ARM GAS  C:\Users\milek\AppData\Local\Temp\cc6GzPmq.s 			page 1


   1              		.cpu cortex-m7
   2              		.eabi_attribute 27, 1
   3              		.eabi_attribute 28, 1
   4              		.eabi_attribute 20, 1
   5              		.eabi_attribute 21, 1
   6              		.eabi_attribute 23, 3
   7              		.eabi_attribute 24, 1
   8              		.eabi_attribute 25, 1
   9              		.eabi_attribute 26, 1
  10              		.eabi_attribute 30, 1
  11              		.eabi_attribute 34, 1
  12              		.eabi_attribute 18, 4
  13              		.file	"api_lib.c"
  14              		.text
  15              	.Ltext0:
  16              		.cfi_sections	.debug_frame
  17              		.section	.text.netconn_apimsg,"ax",%progbits
  18              		.align	1
  19              		.syntax unified
  20              		.thumb
  21              		.thumb_func
  22              		.fpu fpv5-sp-d16
  24              	netconn_apimsg:
  25              	.LFB159:
  26              		.file 1 "Middlewares/Third_Party/LwIP/src/api/api_lib.c"
   1:Middlewares/Third_Party/LwIP/src/api/api_lib.c **** /**
   2:Middlewares/Third_Party/LwIP/src/api/api_lib.c ****  * @file
   3:Middlewares/Third_Party/LwIP/src/api/api_lib.c ****  * Sequential API External module
   4:Middlewares/Third_Party/LwIP/src/api/api_lib.c ****  * 
   5:Middlewares/Third_Party/LwIP/src/api/api_lib.c ****  * @defgroup netconn Netconn API
   6:Middlewares/Third_Party/LwIP/src/api/api_lib.c ****  * @ingroup sequential_api
   7:Middlewares/Third_Party/LwIP/src/api/api_lib.c ****  * Thread-safe, to be called from non-TCPIP threads only.
   8:Middlewares/Third_Party/LwIP/src/api/api_lib.c ****  * TX/RX handling based on @ref netbuf (containing @ref pbuf)
   9:Middlewares/Third_Party/LwIP/src/api/api_lib.c ****  * to avoid copying data around.
  10:Middlewares/Third_Party/LwIP/src/api/api_lib.c ****  * 
  11:Middlewares/Third_Party/LwIP/src/api/api_lib.c ****  * @defgroup netconn_common Common functions
  12:Middlewares/Third_Party/LwIP/src/api/api_lib.c ****  * @ingroup netconn
  13:Middlewares/Third_Party/LwIP/src/api/api_lib.c ****  * For use with TCP and UDP
  14:Middlewares/Third_Party/LwIP/src/api/api_lib.c ****  * 
  15:Middlewares/Third_Party/LwIP/src/api/api_lib.c ****  * @defgroup netconn_tcp TCP only
  16:Middlewares/Third_Party/LwIP/src/api/api_lib.c ****  * @ingroup netconn
  17:Middlewares/Third_Party/LwIP/src/api/api_lib.c ****  * TCP only functions
  18:Middlewares/Third_Party/LwIP/src/api/api_lib.c ****  * 
  19:Middlewares/Third_Party/LwIP/src/api/api_lib.c ****  * @defgroup netconn_udp UDP only
  20:Middlewares/Third_Party/LwIP/src/api/api_lib.c ****  * @ingroup netconn
  21:Middlewares/Third_Party/LwIP/src/api/api_lib.c ****  * UDP only functions
  22:Middlewares/Third_Party/LwIP/src/api/api_lib.c ****  */
  23:Middlewares/Third_Party/LwIP/src/api/api_lib.c **** 
  24:Middlewares/Third_Party/LwIP/src/api/api_lib.c **** /*
  25:Middlewares/Third_Party/LwIP/src/api/api_lib.c ****  * Copyright (c) 2001-2004 Swedish Institute of Computer Science.
  26:Middlewares/Third_Party/LwIP/src/api/api_lib.c ****  * All rights reserved.
  27:Middlewares/Third_Party/LwIP/src/api/api_lib.c ****  *
  28:Middlewares/Third_Party/LwIP/src/api/api_lib.c ****  * Redistribution and use in source and binary forms, with or without modification,
  29:Middlewares/Third_Party/LwIP/src/api/api_lib.c ****  * are permitted provided that the following conditions are met:
  30:Middlewares/Third_Party/LwIP/src/api/api_lib.c ****  *
  31:Middlewares/Third_Party/LwIP/src/api/api_lib.c ****  * 1. Redistributions of source code must retain the above copyright notice,
  32:Middlewares/Third_Party/LwIP/src/api/api_lib.c ****  *    this list of conditions and the following disclaimer.
ARM GAS  C:\Users\milek\AppData\Local\Temp\cc6GzPmq.s 			page 2


  33:Middlewares/Third_Party/LwIP/src/api/api_lib.c ****  * 2. Redistributions in binary form must reproduce the above copyright notice,
  34:Middlewares/Third_Party/LwIP/src/api/api_lib.c ****  *    this list of conditions and the following disclaimer in the documentation
  35:Middlewares/Third_Party/LwIP/src/api/api_lib.c ****  *    and/or other materials provided with the distribution.
  36:Middlewares/Third_Party/LwIP/src/api/api_lib.c ****  * 3. The name of the author may not be used to endorse or promote products
  37:Middlewares/Third_Party/LwIP/src/api/api_lib.c ****  *    derived from this software without specific prior written permission.
  38:Middlewares/Third_Party/LwIP/src/api/api_lib.c ****  *
  39:Middlewares/Third_Party/LwIP/src/api/api_lib.c ****  * THIS SOFTWARE IS PROVIDED BY THE AUTHOR ``AS IS'' AND ANY EXPRESS OR IMPLIED
  40:Middlewares/Third_Party/LwIP/src/api/api_lib.c ****  * WARRANTIES, INCLUDING, BUT NOT LIMITED TO, THE IMPLIED WARRANTIES OF
  41:Middlewares/Third_Party/LwIP/src/api/api_lib.c ****  * MERCHANTABILITY AND FITNESS FOR A PARTICULAR PURPOSE ARE DISCLAIMED. IN NO EVENT
  42:Middlewares/Third_Party/LwIP/src/api/api_lib.c ****  * SHALL THE AUTHOR BE LIABLE FOR ANY DIRECT, INDIRECT, INCIDENTAL, SPECIAL,
  43:Middlewares/Third_Party/LwIP/src/api/api_lib.c ****  * EXEMPLARY, OR CONSEQUENTIAL DAMAGES (INCLUDING, BUT NOT LIMITED TO, PROCUREMENT
  44:Middlewares/Third_Party/LwIP/src/api/api_lib.c ****  * OF SUBSTITUTE GOODS OR SERVICES; LOSS OF USE, DATA, OR PROFITS; OR BUSINESS
  45:Middlewares/Third_Party/LwIP/src/api/api_lib.c ****  * INTERRUPTION) HOWEVER CAUSED AND ON ANY THEORY OF LIABILITY, WHETHER IN
  46:Middlewares/Third_Party/LwIP/src/api/api_lib.c ****  * CONTRACT, STRICT LIABILITY, OR TORT (INCLUDING NEGLIGENCE OR OTHERWISE) ARISING
  47:Middlewares/Third_Party/LwIP/src/api/api_lib.c ****  * IN ANY WAY OUT OF THE USE OF THIS SOFTWARE, EVEN IF ADVISED OF THE POSSIBILITY
  48:Middlewares/Third_Party/LwIP/src/api/api_lib.c ****  * OF SUCH DAMAGE.
  49:Middlewares/Third_Party/LwIP/src/api/api_lib.c ****  *
  50:Middlewares/Third_Party/LwIP/src/api/api_lib.c ****  * This file is part of the lwIP TCP/IP stack.
  51:Middlewares/Third_Party/LwIP/src/api/api_lib.c ****  *
  52:Middlewares/Third_Party/LwIP/src/api/api_lib.c ****  * Author: Adam Dunkels <adam@sics.se>
  53:Middlewares/Third_Party/LwIP/src/api/api_lib.c ****  */
  54:Middlewares/Third_Party/LwIP/src/api/api_lib.c **** 
  55:Middlewares/Third_Party/LwIP/src/api/api_lib.c **** /* This is the part of the API that is linked with
  56:Middlewares/Third_Party/LwIP/src/api/api_lib.c ****    the application */
  57:Middlewares/Third_Party/LwIP/src/api/api_lib.c **** 
  58:Middlewares/Third_Party/LwIP/src/api/api_lib.c **** #include "lwip/opt.h"
  59:Middlewares/Third_Party/LwIP/src/api/api_lib.c **** 
  60:Middlewares/Third_Party/LwIP/src/api/api_lib.c **** #if LWIP_NETCONN /* don't build if not configured for use in lwipopts.h */
  61:Middlewares/Third_Party/LwIP/src/api/api_lib.c **** 
  62:Middlewares/Third_Party/LwIP/src/api/api_lib.c **** #include "lwip/api.h"
  63:Middlewares/Third_Party/LwIP/src/api/api_lib.c **** #include "lwip/memp.h"
  64:Middlewares/Third_Party/LwIP/src/api/api_lib.c **** 
  65:Middlewares/Third_Party/LwIP/src/api/api_lib.c **** #include "lwip/ip.h"
  66:Middlewares/Third_Party/LwIP/src/api/api_lib.c **** #include "lwip/raw.h"
  67:Middlewares/Third_Party/LwIP/src/api/api_lib.c **** #include "lwip/udp.h"
  68:Middlewares/Third_Party/LwIP/src/api/api_lib.c **** #include "lwip/priv/api_msg.h"
  69:Middlewares/Third_Party/LwIP/src/api/api_lib.c **** #include "lwip/priv/tcp_priv.h"
  70:Middlewares/Third_Party/LwIP/src/api/api_lib.c **** #include "lwip/priv/tcpip_priv.h"
  71:Middlewares/Third_Party/LwIP/src/api/api_lib.c **** 
  72:Middlewares/Third_Party/LwIP/src/api/api_lib.c **** #include <string.h>
  73:Middlewares/Third_Party/LwIP/src/api/api_lib.c **** 
  74:Middlewares/Third_Party/LwIP/src/api/api_lib.c **** #define API_MSG_VAR_REF(name)               API_VAR_REF(name)
  75:Middlewares/Third_Party/LwIP/src/api/api_lib.c **** #define API_MSG_VAR_DECLARE(name)           API_VAR_DECLARE(struct api_msg, name)
  76:Middlewares/Third_Party/LwIP/src/api/api_lib.c **** #define API_MSG_VAR_ALLOC(name)             API_VAR_ALLOC(struct api_msg, MEMP_API_MSG, name, ERR_M
  77:Middlewares/Third_Party/LwIP/src/api/api_lib.c **** #define API_MSG_VAR_ALLOC_RETURN_NULL(name) API_VAR_ALLOC(struct api_msg, MEMP_API_MSG, name, NULL)
  78:Middlewares/Third_Party/LwIP/src/api/api_lib.c **** #define API_MSG_VAR_FREE(name)              API_VAR_FREE(MEMP_API_MSG, name)
  79:Middlewares/Third_Party/LwIP/src/api/api_lib.c **** 
  80:Middlewares/Third_Party/LwIP/src/api/api_lib.c **** static err_t netconn_close_shutdown(struct netconn *conn, u8_t how);
  81:Middlewares/Third_Party/LwIP/src/api/api_lib.c **** 
  82:Middlewares/Third_Party/LwIP/src/api/api_lib.c **** /**
  83:Middlewares/Third_Party/LwIP/src/api/api_lib.c ****  * Call the lower part of a netconn_* function
  84:Middlewares/Third_Party/LwIP/src/api/api_lib.c ****  * This function is then running in the thread context
  85:Middlewares/Third_Party/LwIP/src/api/api_lib.c ****  * of tcpip_thread and has exclusive access to lwIP core code.
  86:Middlewares/Third_Party/LwIP/src/api/api_lib.c ****  *
  87:Middlewares/Third_Party/LwIP/src/api/api_lib.c ****  * @param fn function to call
  88:Middlewares/Third_Party/LwIP/src/api/api_lib.c ****  * @param apimsg a struct containing the function to call and its parameters
  89:Middlewares/Third_Party/LwIP/src/api/api_lib.c ****  * @return ERR_OK if the function was called, another err_t if not
ARM GAS  C:\Users\milek\AppData\Local\Temp\cc6GzPmq.s 			page 3


  90:Middlewares/Third_Party/LwIP/src/api/api_lib.c ****  */
  91:Middlewares/Third_Party/LwIP/src/api/api_lib.c **** static err_t
  92:Middlewares/Third_Party/LwIP/src/api/api_lib.c **** netconn_apimsg(tcpip_callback_fn fn, struct api_msg *apimsg)
  93:Middlewares/Third_Party/LwIP/src/api/api_lib.c **** {
  27              		.loc 1 93 0
  28              		.cfi_startproc
  29              		@ args = 0, pretend = 0, frame = 0
  30              		@ frame_needed = 0, uses_anonymous_args = 0
  31              	.LVL0:
  32 0000 10B5     		push	{r4, lr}
  33              	.LCFI0:
  34              		.cfi_def_cfa_offset 8
  35              		.cfi_offset 4, -8
  36              		.cfi_offset 14, -4
  37 0002 0C46     		mov	r4, r1
  94:Middlewares/Third_Party/LwIP/src/api/api_lib.c ****   err_t err;
  95:Middlewares/Third_Party/LwIP/src/api/api_lib.c **** 
  96:Middlewares/Third_Party/LwIP/src/api/api_lib.c **** #ifdef LWIP_DEBUG
  97:Middlewares/Third_Party/LwIP/src/api/api_lib.c ****   /* catch functions that don't set err */
  98:Middlewares/Third_Party/LwIP/src/api/api_lib.c ****   apimsg->err = ERR_VAL;
  99:Middlewares/Third_Party/LwIP/src/api/api_lib.c **** #endif /* LWIP_DEBUG */
 100:Middlewares/Third_Party/LwIP/src/api/api_lib.c **** 
 101:Middlewares/Third_Party/LwIP/src/api/api_lib.c **** #if LWIP_NETCONN_SEM_PER_THREAD
 102:Middlewares/Third_Party/LwIP/src/api/api_lib.c ****   apimsg->op_completed_sem = LWIP_NETCONN_THREAD_SEM_GET();
 103:Middlewares/Third_Party/LwIP/src/api/api_lib.c **** #endif /* LWIP_NETCONN_SEM_PER_THREAD */
 104:Middlewares/Third_Party/LwIP/src/api/api_lib.c **** 
 105:Middlewares/Third_Party/LwIP/src/api/api_lib.c ****   err = tcpip_send_msg_wait_sem(fn, apimsg, LWIP_API_MSG_SEM(apimsg));
  38              		.loc 1 105 0
  39 0004 0A68     		ldr	r2, [r1]
  40 0006 0C32     		adds	r2, r2, #12
  41 0008 FFF7FEFF 		bl	tcpip_send_msg_wait_sem
  42              	.LVL1:
 106:Middlewares/Third_Party/LwIP/src/api/api_lib.c ****   if (err == ERR_OK) {
  43              		.loc 1 106 0
  44 000c 0346     		mov	r3, r0
  45 000e 08B9     		cbnz	r0, .L2
 107:Middlewares/Third_Party/LwIP/src/api/api_lib.c ****     return apimsg->err;
  46              		.loc 1 107 0
  47 0010 94F90430 		ldrsb	r3, [r4, #4]
  48              	.L2:
 108:Middlewares/Third_Party/LwIP/src/api/api_lib.c ****   }
 109:Middlewares/Third_Party/LwIP/src/api/api_lib.c ****   return err;
 110:Middlewares/Third_Party/LwIP/src/api/api_lib.c **** }
  49              		.loc 1 110 0
  50 0014 1846     		mov	r0, r3
  51              	.LVL2:
  52 0016 10BD     		pop	{r4, pc}
  53              		.cfi_endproc
  54              	.LFE159:
  56              		.section	.text.netconn_close_shutdown,"ax",%progbits
  57              		.align	1
  58              		.syntax unified
  59              		.thumb
  60              		.thumb_func
  61              		.fpu fpv5-sp-d16
  63              	netconn_close_shutdown:
  64              	.LFB174:
ARM GAS  C:\Users\milek\AppData\Local\Temp\cc6GzPmq.s 			page 4


 111:Middlewares/Third_Party/LwIP/src/api/api_lib.c **** 
 112:Middlewares/Third_Party/LwIP/src/api/api_lib.c **** /**
 113:Middlewares/Third_Party/LwIP/src/api/api_lib.c ****  * Create a new netconn (of a specific type) that has a callback function.
 114:Middlewares/Third_Party/LwIP/src/api/api_lib.c ****  * The corresponding pcb is also created.
 115:Middlewares/Third_Party/LwIP/src/api/api_lib.c ****  *
 116:Middlewares/Third_Party/LwIP/src/api/api_lib.c ****  * @param t the type of 'connection' to create (@see enum netconn_type)
 117:Middlewares/Third_Party/LwIP/src/api/api_lib.c ****  * @param proto the IP protocol for RAW IP pcbs
 118:Middlewares/Third_Party/LwIP/src/api/api_lib.c ****  * @param callback a function to call on status changes (RX available, TX'ed)
 119:Middlewares/Third_Party/LwIP/src/api/api_lib.c ****  * @return a newly allocated struct netconn or
 120:Middlewares/Third_Party/LwIP/src/api/api_lib.c ****  *         NULL on memory error
 121:Middlewares/Third_Party/LwIP/src/api/api_lib.c ****  */
 122:Middlewares/Third_Party/LwIP/src/api/api_lib.c **** struct netconn*
 123:Middlewares/Third_Party/LwIP/src/api/api_lib.c **** netconn_new_with_proto_and_callback(enum netconn_type t, u8_t proto, netconn_callback callback)
 124:Middlewares/Third_Party/LwIP/src/api/api_lib.c **** {
 125:Middlewares/Third_Party/LwIP/src/api/api_lib.c ****   struct netconn *conn;
 126:Middlewares/Third_Party/LwIP/src/api/api_lib.c ****   API_MSG_VAR_DECLARE(msg);
 127:Middlewares/Third_Party/LwIP/src/api/api_lib.c ****   API_MSG_VAR_ALLOC_RETURN_NULL(msg);
 128:Middlewares/Third_Party/LwIP/src/api/api_lib.c **** 
 129:Middlewares/Third_Party/LwIP/src/api/api_lib.c ****   conn = netconn_alloc(t, callback);
 130:Middlewares/Third_Party/LwIP/src/api/api_lib.c ****   if (conn != NULL) {
 131:Middlewares/Third_Party/LwIP/src/api/api_lib.c ****     err_t err;
 132:Middlewares/Third_Party/LwIP/src/api/api_lib.c **** 
 133:Middlewares/Third_Party/LwIP/src/api/api_lib.c ****     API_MSG_VAR_REF(msg).msg.n.proto = proto;
 134:Middlewares/Third_Party/LwIP/src/api/api_lib.c ****     API_MSG_VAR_REF(msg).conn = conn;
 135:Middlewares/Third_Party/LwIP/src/api/api_lib.c ****     err = netconn_apimsg(lwip_netconn_do_newconn, &API_MSG_VAR_REF(msg));
 136:Middlewares/Third_Party/LwIP/src/api/api_lib.c ****     if (err != ERR_OK) {
 137:Middlewares/Third_Party/LwIP/src/api/api_lib.c ****       LWIP_ASSERT("freeing conn without freeing pcb", conn->pcb.tcp == NULL);
 138:Middlewares/Third_Party/LwIP/src/api/api_lib.c ****       LWIP_ASSERT("conn has no recvmbox", sys_mbox_valid(&conn->recvmbox));
 139:Middlewares/Third_Party/LwIP/src/api/api_lib.c **** #if LWIP_TCP
 140:Middlewares/Third_Party/LwIP/src/api/api_lib.c ****       LWIP_ASSERT("conn->acceptmbox shouldn't exist", !sys_mbox_valid(&conn->acceptmbox));
 141:Middlewares/Third_Party/LwIP/src/api/api_lib.c **** #endif /* LWIP_TCP */
 142:Middlewares/Third_Party/LwIP/src/api/api_lib.c **** #if !LWIP_NETCONN_SEM_PER_THREAD
 143:Middlewares/Third_Party/LwIP/src/api/api_lib.c ****       LWIP_ASSERT("conn has no op_completed", sys_sem_valid(&conn->op_completed));
 144:Middlewares/Third_Party/LwIP/src/api/api_lib.c ****       sys_sem_free(&conn->op_completed);
 145:Middlewares/Third_Party/LwIP/src/api/api_lib.c **** #endif /* !LWIP_NETCONN_SEM_PER_THREAD */
 146:Middlewares/Third_Party/LwIP/src/api/api_lib.c ****       sys_mbox_free(&conn->recvmbox);
 147:Middlewares/Third_Party/LwIP/src/api/api_lib.c ****       memp_free(MEMP_NETCONN, conn);
 148:Middlewares/Third_Party/LwIP/src/api/api_lib.c ****       API_MSG_VAR_FREE(msg);
 149:Middlewares/Third_Party/LwIP/src/api/api_lib.c ****       return NULL;
 150:Middlewares/Third_Party/LwIP/src/api/api_lib.c ****     }
 151:Middlewares/Third_Party/LwIP/src/api/api_lib.c ****   }
 152:Middlewares/Third_Party/LwIP/src/api/api_lib.c ****   API_MSG_VAR_FREE(msg);
 153:Middlewares/Third_Party/LwIP/src/api/api_lib.c ****   return conn;
 154:Middlewares/Third_Party/LwIP/src/api/api_lib.c **** }
 155:Middlewares/Third_Party/LwIP/src/api/api_lib.c **** 
 156:Middlewares/Third_Party/LwIP/src/api/api_lib.c **** /**
 157:Middlewares/Third_Party/LwIP/src/api/api_lib.c ****  * @ingroup netconn_common
 158:Middlewares/Third_Party/LwIP/src/api/api_lib.c ****  * Close a netconn 'connection' and free its resources.
 159:Middlewares/Third_Party/LwIP/src/api/api_lib.c ****  * UDP and RAW connection are completely closed, TCP pcbs might still be in a waitstate
 160:Middlewares/Third_Party/LwIP/src/api/api_lib.c ****  * after this returns.
 161:Middlewares/Third_Party/LwIP/src/api/api_lib.c ****  *
 162:Middlewares/Third_Party/LwIP/src/api/api_lib.c ****  * @param conn the netconn to delete
 163:Middlewares/Third_Party/LwIP/src/api/api_lib.c ****  * @return ERR_OK if the connection was deleted
 164:Middlewares/Third_Party/LwIP/src/api/api_lib.c ****  */
 165:Middlewares/Third_Party/LwIP/src/api/api_lib.c **** err_t
 166:Middlewares/Third_Party/LwIP/src/api/api_lib.c **** netconn_delete(struct netconn *conn)
 167:Middlewares/Third_Party/LwIP/src/api/api_lib.c **** {
ARM GAS  C:\Users\milek\AppData\Local\Temp\cc6GzPmq.s 			page 5


 168:Middlewares/Third_Party/LwIP/src/api/api_lib.c ****   err_t err;
 169:Middlewares/Third_Party/LwIP/src/api/api_lib.c ****   API_MSG_VAR_DECLARE(msg);
 170:Middlewares/Third_Party/LwIP/src/api/api_lib.c **** 
 171:Middlewares/Third_Party/LwIP/src/api/api_lib.c ****   /* No ASSERT here because possible to get a (conn == NULL) if we got an accept error */
 172:Middlewares/Third_Party/LwIP/src/api/api_lib.c ****   if (conn == NULL) {
 173:Middlewares/Third_Party/LwIP/src/api/api_lib.c ****     return ERR_OK;
 174:Middlewares/Third_Party/LwIP/src/api/api_lib.c ****   }
 175:Middlewares/Third_Party/LwIP/src/api/api_lib.c **** 
 176:Middlewares/Third_Party/LwIP/src/api/api_lib.c ****   API_MSG_VAR_ALLOC(msg);
 177:Middlewares/Third_Party/LwIP/src/api/api_lib.c ****   API_MSG_VAR_REF(msg).conn = conn;
 178:Middlewares/Third_Party/LwIP/src/api/api_lib.c **** #if LWIP_SO_SNDTIMEO || LWIP_SO_LINGER
 179:Middlewares/Third_Party/LwIP/src/api/api_lib.c ****   /* get the time we started, which is later compared to
 180:Middlewares/Third_Party/LwIP/src/api/api_lib.c ****      sys_now() + conn->send_timeout */
 181:Middlewares/Third_Party/LwIP/src/api/api_lib.c ****   API_MSG_VAR_REF(msg).msg.sd.time_started = sys_now();
 182:Middlewares/Third_Party/LwIP/src/api/api_lib.c **** #else /* LWIP_SO_SNDTIMEO || LWIP_SO_LINGER */
 183:Middlewares/Third_Party/LwIP/src/api/api_lib.c **** #if LWIP_TCP
 184:Middlewares/Third_Party/LwIP/src/api/api_lib.c ****   API_MSG_VAR_REF(msg).msg.sd.polls_left =
 185:Middlewares/Third_Party/LwIP/src/api/api_lib.c ****     ((LWIP_TCP_CLOSE_TIMEOUT_MS_DEFAULT + TCP_SLOW_INTERVAL - 1) / TCP_SLOW_INTERVAL) + 1;
 186:Middlewares/Third_Party/LwIP/src/api/api_lib.c **** #endif /* LWIP_TCP */
 187:Middlewares/Third_Party/LwIP/src/api/api_lib.c **** #endif /* LWIP_SO_SNDTIMEO || LWIP_SO_LINGER */
 188:Middlewares/Third_Party/LwIP/src/api/api_lib.c ****   err = netconn_apimsg(lwip_netconn_do_delconn, &API_MSG_VAR_REF(msg));
 189:Middlewares/Third_Party/LwIP/src/api/api_lib.c ****   API_MSG_VAR_FREE(msg);
 190:Middlewares/Third_Party/LwIP/src/api/api_lib.c **** 
 191:Middlewares/Third_Party/LwIP/src/api/api_lib.c ****   if (err != ERR_OK) {
 192:Middlewares/Third_Party/LwIP/src/api/api_lib.c ****     return err;
 193:Middlewares/Third_Party/LwIP/src/api/api_lib.c ****   }
 194:Middlewares/Third_Party/LwIP/src/api/api_lib.c **** 
 195:Middlewares/Third_Party/LwIP/src/api/api_lib.c ****   netconn_free(conn);
 196:Middlewares/Third_Party/LwIP/src/api/api_lib.c **** 
 197:Middlewares/Third_Party/LwIP/src/api/api_lib.c ****   return ERR_OK;
 198:Middlewares/Third_Party/LwIP/src/api/api_lib.c **** }
 199:Middlewares/Third_Party/LwIP/src/api/api_lib.c **** 
 200:Middlewares/Third_Party/LwIP/src/api/api_lib.c **** /**
 201:Middlewares/Third_Party/LwIP/src/api/api_lib.c ****  * Get the local or remote IP address and port of a netconn.
 202:Middlewares/Third_Party/LwIP/src/api/api_lib.c ****  * For RAW netconns, this returns the protocol instead of a port!
 203:Middlewares/Third_Party/LwIP/src/api/api_lib.c ****  *
 204:Middlewares/Third_Party/LwIP/src/api/api_lib.c ****  * @param conn the netconn to query
 205:Middlewares/Third_Party/LwIP/src/api/api_lib.c ****  * @param addr a pointer to which to save the IP address
 206:Middlewares/Third_Party/LwIP/src/api/api_lib.c ****  * @param port a pointer to which to save the port (or protocol for RAW)
 207:Middlewares/Third_Party/LwIP/src/api/api_lib.c ****  * @param local 1 to get the local IP address, 0 to get the remote one
 208:Middlewares/Third_Party/LwIP/src/api/api_lib.c ****  * @return ERR_CONN for invalid connections
 209:Middlewares/Third_Party/LwIP/src/api/api_lib.c ****  *         ERR_OK if the information was retrieved
 210:Middlewares/Third_Party/LwIP/src/api/api_lib.c ****  */
 211:Middlewares/Third_Party/LwIP/src/api/api_lib.c **** err_t
 212:Middlewares/Third_Party/LwIP/src/api/api_lib.c **** netconn_getaddr(struct netconn *conn, ip_addr_t *addr, u16_t *port, u8_t local)
 213:Middlewares/Third_Party/LwIP/src/api/api_lib.c **** {
 214:Middlewares/Third_Party/LwIP/src/api/api_lib.c ****   API_MSG_VAR_DECLARE(msg);
 215:Middlewares/Third_Party/LwIP/src/api/api_lib.c ****   err_t err;
 216:Middlewares/Third_Party/LwIP/src/api/api_lib.c **** 
 217:Middlewares/Third_Party/LwIP/src/api/api_lib.c ****   LWIP_ERROR("netconn_getaddr: invalid conn", (conn != NULL), return ERR_ARG;);
 218:Middlewares/Third_Party/LwIP/src/api/api_lib.c ****   LWIP_ERROR("netconn_getaddr: invalid addr", (addr != NULL), return ERR_ARG;);
 219:Middlewares/Third_Party/LwIP/src/api/api_lib.c ****   LWIP_ERROR("netconn_getaddr: invalid port", (port != NULL), return ERR_ARG;);
 220:Middlewares/Third_Party/LwIP/src/api/api_lib.c **** 
 221:Middlewares/Third_Party/LwIP/src/api/api_lib.c ****   API_MSG_VAR_ALLOC(msg);
 222:Middlewares/Third_Party/LwIP/src/api/api_lib.c ****   API_MSG_VAR_REF(msg).conn = conn;
 223:Middlewares/Third_Party/LwIP/src/api/api_lib.c ****   API_MSG_VAR_REF(msg).msg.ad.local = local;
 224:Middlewares/Third_Party/LwIP/src/api/api_lib.c **** #if LWIP_MPU_COMPATIBLE
ARM GAS  C:\Users\milek\AppData\Local\Temp\cc6GzPmq.s 			page 6


 225:Middlewares/Third_Party/LwIP/src/api/api_lib.c ****   err = netconn_apimsg(lwip_netconn_do_getaddr, &API_MSG_VAR_REF(msg));
 226:Middlewares/Third_Party/LwIP/src/api/api_lib.c ****   *addr = msg->msg.ad.ipaddr;
 227:Middlewares/Third_Party/LwIP/src/api/api_lib.c ****   *port = msg->msg.ad.port;
 228:Middlewares/Third_Party/LwIP/src/api/api_lib.c **** #else /* LWIP_MPU_COMPATIBLE */
 229:Middlewares/Third_Party/LwIP/src/api/api_lib.c ****   msg.msg.ad.ipaddr = addr;
 230:Middlewares/Third_Party/LwIP/src/api/api_lib.c ****   msg.msg.ad.port = port;
 231:Middlewares/Third_Party/LwIP/src/api/api_lib.c ****   err = netconn_apimsg(lwip_netconn_do_getaddr, &msg);
 232:Middlewares/Third_Party/LwIP/src/api/api_lib.c **** #endif /* LWIP_MPU_COMPATIBLE */
 233:Middlewares/Third_Party/LwIP/src/api/api_lib.c ****   API_MSG_VAR_FREE(msg);
 234:Middlewares/Third_Party/LwIP/src/api/api_lib.c **** 
 235:Middlewares/Third_Party/LwIP/src/api/api_lib.c ****   return err;
 236:Middlewares/Third_Party/LwIP/src/api/api_lib.c **** }
 237:Middlewares/Third_Party/LwIP/src/api/api_lib.c **** 
 238:Middlewares/Third_Party/LwIP/src/api/api_lib.c **** /**
 239:Middlewares/Third_Party/LwIP/src/api/api_lib.c ****  * @ingroup netconn_common
 240:Middlewares/Third_Party/LwIP/src/api/api_lib.c ****  * Bind a netconn to a specific local IP address and port.
 241:Middlewares/Third_Party/LwIP/src/api/api_lib.c ****  * Binding one netconn twice might not always be checked correctly!
 242:Middlewares/Third_Party/LwIP/src/api/api_lib.c ****  *
 243:Middlewares/Third_Party/LwIP/src/api/api_lib.c ****  * @param conn the netconn to bind
 244:Middlewares/Third_Party/LwIP/src/api/api_lib.c ****  * @param addr the local IP address to bind the netconn to 
 245:Middlewares/Third_Party/LwIP/src/api/api_lib.c ****  *             (use IP4_ADDR_ANY/IP6_ADDR_ANY to bind to all addresses)
 246:Middlewares/Third_Party/LwIP/src/api/api_lib.c ****  * @param port the local port to bind the netconn to (not used for RAW)
 247:Middlewares/Third_Party/LwIP/src/api/api_lib.c ****  * @return ERR_OK if bound, any other err_t on failure
 248:Middlewares/Third_Party/LwIP/src/api/api_lib.c ****  */
 249:Middlewares/Third_Party/LwIP/src/api/api_lib.c **** err_t
 250:Middlewares/Third_Party/LwIP/src/api/api_lib.c **** netconn_bind(struct netconn *conn, const ip_addr_t *addr, u16_t port)
 251:Middlewares/Third_Party/LwIP/src/api/api_lib.c **** {
 252:Middlewares/Third_Party/LwIP/src/api/api_lib.c ****   API_MSG_VAR_DECLARE(msg);
 253:Middlewares/Third_Party/LwIP/src/api/api_lib.c ****   err_t err;
 254:Middlewares/Third_Party/LwIP/src/api/api_lib.c ****   
 255:Middlewares/Third_Party/LwIP/src/api/api_lib.c ****   LWIP_ERROR("netconn_bind: invalid conn", (conn != NULL), return ERR_ARG;);
 256:Middlewares/Third_Party/LwIP/src/api/api_lib.c **** 
 257:Middlewares/Third_Party/LwIP/src/api/api_lib.c **** #if LWIP_IPV4
 258:Middlewares/Third_Party/LwIP/src/api/api_lib.c ****   /* Don't propagate NULL pointer (IP_ADDR_ANY alias) to subsequent functions */
 259:Middlewares/Third_Party/LwIP/src/api/api_lib.c ****   if (addr == NULL) {
 260:Middlewares/Third_Party/LwIP/src/api/api_lib.c ****     addr = IP4_ADDR_ANY;
 261:Middlewares/Third_Party/LwIP/src/api/api_lib.c ****   }
 262:Middlewares/Third_Party/LwIP/src/api/api_lib.c **** #endif /* LWIP_IPV4 */
 263:Middlewares/Third_Party/LwIP/src/api/api_lib.c ****   
 264:Middlewares/Third_Party/LwIP/src/api/api_lib.c **** #if LWIP_IPV4 && LWIP_IPV6
 265:Middlewares/Third_Party/LwIP/src/api/api_lib.c ****   /* "Socket API like" dual-stack support: If IP to bind to is IP6_ADDR_ANY,
 266:Middlewares/Third_Party/LwIP/src/api/api_lib.c ****    * and NETCONN_FLAG_IPV6_V6ONLY is 0, use IP_ANY_TYPE to bind
 267:Middlewares/Third_Party/LwIP/src/api/api_lib.c ****    */
 268:Middlewares/Third_Party/LwIP/src/api/api_lib.c ****   if ((netconn_get_ipv6only(conn) == 0) &&
 269:Middlewares/Third_Party/LwIP/src/api/api_lib.c ****      ip_addr_cmp(addr, IP6_ADDR_ANY)) {
 270:Middlewares/Third_Party/LwIP/src/api/api_lib.c ****     addr = IP_ANY_TYPE;
 271:Middlewares/Third_Party/LwIP/src/api/api_lib.c ****   }
 272:Middlewares/Third_Party/LwIP/src/api/api_lib.c **** #endif /* LWIP_IPV4 && LWIP_IPV6 */
 273:Middlewares/Third_Party/LwIP/src/api/api_lib.c **** 
 274:Middlewares/Third_Party/LwIP/src/api/api_lib.c ****   API_MSG_VAR_ALLOC(msg);
 275:Middlewares/Third_Party/LwIP/src/api/api_lib.c ****   API_MSG_VAR_REF(msg).conn = conn;
 276:Middlewares/Third_Party/LwIP/src/api/api_lib.c ****   API_MSG_VAR_REF(msg).msg.bc.ipaddr = API_MSG_VAR_REF(addr);
 277:Middlewares/Third_Party/LwIP/src/api/api_lib.c ****   API_MSG_VAR_REF(msg).msg.bc.port = port;
 278:Middlewares/Third_Party/LwIP/src/api/api_lib.c ****   err = netconn_apimsg(lwip_netconn_do_bind, &API_MSG_VAR_REF(msg));
 279:Middlewares/Third_Party/LwIP/src/api/api_lib.c ****   API_MSG_VAR_FREE(msg);
 280:Middlewares/Third_Party/LwIP/src/api/api_lib.c **** 
 281:Middlewares/Third_Party/LwIP/src/api/api_lib.c ****   return err;
ARM GAS  C:\Users\milek\AppData\Local\Temp\cc6GzPmq.s 			page 7


 282:Middlewares/Third_Party/LwIP/src/api/api_lib.c **** }
 283:Middlewares/Third_Party/LwIP/src/api/api_lib.c **** 
 284:Middlewares/Third_Party/LwIP/src/api/api_lib.c **** /**
 285:Middlewares/Third_Party/LwIP/src/api/api_lib.c ****  * @ingroup netconn_common
 286:Middlewares/Third_Party/LwIP/src/api/api_lib.c ****  * Connect a netconn to a specific remote IP address and port.
 287:Middlewares/Third_Party/LwIP/src/api/api_lib.c ****  *
 288:Middlewares/Third_Party/LwIP/src/api/api_lib.c ****  * @param conn the netconn to connect
 289:Middlewares/Third_Party/LwIP/src/api/api_lib.c ****  * @param addr the remote IP address to connect to
 290:Middlewares/Third_Party/LwIP/src/api/api_lib.c ****  * @param port the remote port to connect to (no used for RAW)
 291:Middlewares/Third_Party/LwIP/src/api/api_lib.c ****  * @return ERR_OK if connected, return value of tcp_/udp_/raw_connect otherwise
 292:Middlewares/Third_Party/LwIP/src/api/api_lib.c ****  */
 293:Middlewares/Third_Party/LwIP/src/api/api_lib.c **** err_t
 294:Middlewares/Third_Party/LwIP/src/api/api_lib.c **** netconn_connect(struct netconn *conn, const ip_addr_t *addr, u16_t port)
 295:Middlewares/Third_Party/LwIP/src/api/api_lib.c **** {
 296:Middlewares/Third_Party/LwIP/src/api/api_lib.c ****   API_MSG_VAR_DECLARE(msg);
 297:Middlewares/Third_Party/LwIP/src/api/api_lib.c ****   err_t err;
 298:Middlewares/Third_Party/LwIP/src/api/api_lib.c **** 
 299:Middlewares/Third_Party/LwIP/src/api/api_lib.c ****   LWIP_ERROR("netconn_connect: invalid conn", (conn != NULL), return ERR_ARG;);
 300:Middlewares/Third_Party/LwIP/src/api/api_lib.c **** 
 301:Middlewares/Third_Party/LwIP/src/api/api_lib.c **** #if LWIP_IPV4
 302:Middlewares/Third_Party/LwIP/src/api/api_lib.c ****   /* Don't propagate NULL pointer (IP_ADDR_ANY alias) to subsequent functions */
 303:Middlewares/Third_Party/LwIP/src/api/api_lib.c ****   if (addr == NULL) {
 304:Middlewares/Third_Party/LwIP/src/api/api_lib.c ****     addr = IP4_ADDR_ANY;
 305:Middlewares/Third_Party/LwIP/src/api/api_lib.c ****   }
 306:Middlewares/Third_Party/LwIP/src/api/api_lib.c **** #endif /* LWIP_IPV4 */
 307:Middlewares/Third_Party/LwIP/src/api/api_lib.c **** 
 308:Middlewares/Third_Party/LwIP/src/api/api_lib.c ****   API_MSG_VAR_ALLOC(msg);
 309:Middlewares/Third_Party/LwIP/src/api/api_lib.c ****   API_MSG_VAR_REF(msg).conn = conn;
 310:Middlewares/Third_Party/LwIP/src/api/api_lib.c ****   API_MSG_VAR_REF(msg).msg.bc.ipaddr = API_MSG_VAR_REF(addr);
 311:Middlewares/Third_Party/LwIP/src/api/api_lib.c ****   API_MSG_VAR_REF(msg).msg.bc.port = port;
 312:Middlewares/Third_Party/LwIP/src/api/api_lib.c ****   err = netconn_apimsg(lwip_netconn_do_connect, &API_MSG_VAR_REF(msg));
 313:Middlewares/Third_Party/LwIP/src/api/api_lib.c ****   API_MSG_VAR_FREE(msg);
 314:Middlewares/Third_Party/LwIP/src/api/api_lib.c **** 
 315:Middlewares/Third_Party/LwIP/src/api/api_lib.c ****   return err;
 316:Middlewares/Third_Party/LwIP/src/api/api_lib.c **** }
 317:Middlewares/Third_Party/LwIP/src/api/api_lib.c **** 
 318:Middlewares/Third_Party/LwIP/src/api/api_lib.c **** /**
 319:Middlewares/Third_Party/LwIP/src/api/api_lib.c ****  * @ingroup netconn_udp
 320:Middlewares/Third_Party/LwIP/src/api/api_lib.c ****  * Disconnect a netconn from its current peer (only valid for UDP netconns).
 321:Middlewares/Third_Party/LwIP/src/api/api_lib.c ****  *
 322:Middlewares/Third_Party/LwIP/src/api/api_lib.c ****  * @param conn the netconn to disconnect
 323:Middlewares/Third_Party/LwIP/src/api/api_lib.c ****  * @return See @ref err_t
 324:Middlewares/Third_Party/LwIP/src/api/api_lib.c ****  */
 325:Middlewares/Third_Party/LwIP/src/api/api_lib.c **** err_t
 326:Middlewares/Third_Party/LwIP/src/api/api_lib.c **** netconn_disconnect(struct netconn *conn)
 327:Middlewares/Third_Party/LwIP/src/api/api_lib.c **** {
 328:Middlewares/Third_Party/LwIP/src/api/api_lib.c ****   API_MSG_VAR_DECLARE(msg);
 329:Middlewares/Third_Party/LwIP/src/api/api_lib.c ****   err_t err;
 330:Middlewares/Third_Party/LwIP/src/api/api_lib.c **** 
 331:Middlewares/Third_Party/LwIP/src/api/api_lib.c ****   LWIP_ERROR("netconn_disconnect: invalid conn", (conn != NULL), return ERR_ARG;);
 332:Middlewares/Third_Party/LwIP/src/api/api_lib.c **** 
 333:Middlewares/Third_Party/LwIP/src/api/api_lib.c ****   API_MSG_VAR_ALLOC(msg);
 334:Middlewares/Third_Party/LwIP/src/api/api_lib.c ****   API_MSG_VAR_REF(msg).conn = conn;
 335:Middlewares/Third_Party/LwIP/src/api/api_lib.c ****   err = netconn_apimsg(lwip_netconn_do_disconnect, &API_MSG_VAR_REF(msg));
 336:Middlewares/Third_Party/LwIP/src/api/api_lib.c ****   API_MSG_VAR_FREE(msg);
 337:Middlewares/Third_Party/LwIP/src/api/api_lib.c **** 
 338:Middlewares/Third_Party/LwIP/src/api/api_lib.c ****   return err;
ARM GAS  C:\Users\milek\AppData\Local\Temp\cc6GzPmq.s 			page 8


 339:Middlewares/Third_Party/LwIP/src/api/api_lib.c **** }
 340:Middlewares/Third_Party/LwIP/src/api/api_lib.c **** 
 341:Middlewares/Third_Party/LwIP/src/api/api_lib.c **** /**
 342:Middlewares/Third_Party/LwIP/src/api/api_lib.c ****  * @ingroup netconn_tcp
 343:Middlewares/Third_Party/LwIP/src/api/api_lib.c ****  * Set a TCP netconn into listen mode
 344:Middlewares/Third_Party/LwIP/src/api/api_lib.c ****  *
 345:Middlewares/Third_Party/LwIP/src/api/api_lib.c ****  * @param conn the tcp netconn to set to listen mode
 346:Middlewares/Third_Party/LwIP/src/api/api_lib.c ****  * @param backlog the listen backlog, only used if TCP_LISTEN_BACKLOG==1
 347:Middlewares/Third_Party/LwIP/src/api/api_lib.c ****  * @return ERR_OK if the netconn was set to listen (UDP and RAW netconns
 348:Middlewares/Third_Party/LwIP/src/api/api_lib.c ****  *         don't return any error (yet?))
 349:Middlewares/Third_Party/LwIP/src/api/api_lib.c ****  */
 350:Middlewares/Third_Party/LwIP/src/api/api_lib.c **** err_t
 351:Middlewares/Third_Party/LwIP/src/api/api_lib.c **** netconn_listen_with_backlog(struct netconn *conn, u8_t backlog)
 352:Middlewares/Third_Party/LwIP/src/api/api_lib.c **** {
 353:Middlewares/Third_Party/LwIP/src/api/api_lib.c **** #if LWIP_TCP
 354:Middlewares/Third_Party/LwIP/src/api/api_lib.c ****   API_MSG_VAR_DECLARE(msg);
 355:Middlewares/Third_Party/LwIP/src/api/api_lib.c ****   err_t err;
 356:Middlewares/Third_Party/LwIP/src/api/api_lib.c **** 
 357:Middlewares/Third_Party/LwIP/src/api/api_lib.c ****   /* This does no harm. If TCP_LISTEN_BACKLOG is off, backlog is unused. */
 358:Middlewares/Third_Party/LwIP/src/api/api_lib.c ****   LWIP_UNUSED_ARG(backlog);
 359:Middlewares/Third_Party/LwIP/src/api/api_lib.c **** 
 360:Middlewares/Third_Party/LwIP/src/api/api_lib.c ****   LWIP_ERROR("netconn_listen: invalid conn", (conn != NULL), return ERR_ARG;);
 361:Middlewares/Third_Party/LwIP/src/api/api_lib.c **** 
 362:Middlewares/Third_Party/LwIP/src/api/api_lib.c ****   API_MSG_VAR_ALLOC(msg);
 363:Middlewares/Third_Party/LwIP/src/api/api_lib.c ****   API_MSG_VAR_REF(msg).conn = conn;
 364:Middlewares/Third_Party/LwIP/src/api/api_lib.c **** #if TCP_LISTEN_BACKLOG
 365:Middlewares/Third_Party/LwIP/src/api/api_lib.c ****   API_MSG_VAR_REF(msg).msg.lb.backlog = backlog;
 366:Middlewares/Third_Party/LwIP/src/api/api_lib.c **** #endif /* TCP_LISTEN_BACKLOG */
 367:Middlewares/Third_Party/LwIP/src/api/api_lib.c ****   err = netconn_apimsg(lwip_netconn_do_listen, &API_MSG_VAR_REF(msg));
 368:Middlewares/Third_Party/LwIP/src/api/api_lib.c ****   API_MSG_VAR_FREE(msg);
 369:Middlewares/Third_Party/LwIP/src/api/api_lib.c **** 
 370:Middlewares/Third_Party/LwIP/src/api/api_lib.c ****   return err;
 371:Middlewares/Third_Party/LwIP/src/api/api_lib.c **** #else /* LWIP_TCP */
 372:Middlewares/Third_Party/LwIP/src/api/api_lib.c ****   LWIP_UNUSED_ARG(conn);
 373:Middlewares/Third_Party/LwIP/src/api/api_lib.c ****   LWIP_UNUSED_ARG(backlog);
 374:Middlewares/Third_Party/LwIP/src/api/api_lib.c ****   return ERR_ARG;
 375:Middlewares/Third_Party/LwIP/src/api/api_lib.c **** #endif /* LWIP_TCP */
 376:Middlewares/Third_Party/LwIP/src/api/api_lib.c **** }
 377:Middlewares/Third_Party/LwIP/src/api/api_lib.c **** 
 378:Middlewares/Third_Party/LwIP/src/api/api_lib.c **** /**
 379:Middlewares/Third_Party/LwIP/src/api/api_lib.c ****  * @ingroup netconn_tcp
 380:Middlewares/Third_Party/LwIP/src/api/api_lib.c ****  * Accept a new connection on a TCP listening netconn.
 381:Middlewares/Third_Party/LwIP/src/api/api_lib.c ****  *
 382:Middlewares/Third_Party/LwIP/src/api/api_lib.c ****  * @param conn the TCP listen netconn
 383:Middlewares/Third_Party/LwIP/src/api/api_lib.c ****  * @param new_conn pointer where the new connection is stored
 384:Middlewares/Third_Party/LwIP/src/api/api_lib.c ****  * @return ERR_OK if a new connection has been received or an error
 385:Middlewares/Third_Party/LwIP/src/api/api_lib.c ****  *                code otherwise
 386:Middlewares/Third_Party/LwIP/src/api/api_lib.c ****  */
 387:Middlewares/Third_Party/LwIP/src/api/api_lib.c **** err_t
 388:Middlewares/Third_Party/LwIP/src/api/api_lib.c **** netconn_accept(struct netconn *conn, struct netconn **new_conn)
 389:Middlewares/Third_Party/LwIP/src/api/api_lib.c **** {
 390:Middlewares/Third_Party/LwIP/src/api/api_lib.c **** #if LWIP_TCP
 391:Middlewares/Third_Party/LwIP/src/api/api_lib.c ****   void *accept_ptr;
 392:Middlewares/Third_Party/LwIP/src/api/api_lib.c ****   struct netconn *newconn;
 393:Middlewares/Third_Party/LwIP/src/api/api_lib.c **** #if TCP_LISTEN_BACKLOG
 394:Middlewares/Third_Party/LwIP/src/api/api_lib.c ****   API_MSG_VAR_DECLARE(msg);
 395:Middlewares/Third_Party/LwIP/src/api/api_lib.c **** #endif /* TCP_LISTEN_BACKLOG */
ARM GAS  C:\Users\milek\AppData\Local\Temp\cc6GzPmq.s 			page 9


 396:Middlewares/Third_Party/LwIP/src/api/api_lib.c **** 
 397:Middlewares/Third_Party/LwIP/src/api/api_lib.c ****   LWIP_ERROR("netconn_accept: invalid pointer",    (new_conn != NULL),                  return ERR_
 398:Middlewares/Third_Party/LwIP/src/api/api_lib.c ****   *new_conn = NULL;
 399:Middlewares/Third_Party/LwIP/src/api/api_lib.c ****   LWIP_ERROR("netconn_accept: invalid conn",       (conn != NULL),                      return ERR_
 400:Middlewares/Third_Party/LwIP/src/api/api_lib.c **** 
 401:Middlewares/Third_Party/LwIP/src/api/api_lib.c ****   if (ERR_IS_FATAL(conn->last_err)) {
 402:Middlewares/Third_Party/LwIP/src/api/api_lib.c ****     /* don't recv on fatal errors: this might block the application task
 403:Middlewares/Third_Party/LwIP/src/api/api_lib.c ****        waiting on acceptmbox forever! */
 404:Middlewares/Third_Party/LwIP/src/api/api_lib.c ****     return conn->last_err;
 405:Middlewares/Third_Party/LwIP/src/api/api_lib.c ****   }
 406:Middlewares/Third_Party/LwIP/src/api/api_lib.c ****   if (!sys_mbox_valid(&conn->acceptmbox)) {
 407:Middlewares/Third_Party/LwIP/src/api/api_lib.c ****     return ERR_CLSD;
 408:Middlewares/Third_Party/LwIP/src/api/api_lib.c ****   }
 409:Middlewares/Third_Party/LwIP/src/api/api_lib.c **** 
 410:Middlewares/Third_Party/LwIP/src/api/api_lib.c **** #if TCP_LISTEN_BACKLOG
 411:Middlewares/Third_Party/LwIP/src/api/api_lib.c ****   API_MSG_VAR_ALLOC(msg);
 412:Middlewares/Third_Party/LwIP/src/api/api_lib.c **** #endif /* TCP_LISTEN_BACKLOG */
 413:Middlewares/Third_Party/LwIP/src/api/api_lib.c **** 
 414:Middlewares/Third_Party/LwIP/src/api/api_lib.c **** #if LWIP_SO_RCVTIMEO
 415:Middlewares/Third_Party/LwIP/src/api/api_lib.c ****   if (sys_arch_mbox_fetch(&conn->acceptmbox, &accept_ptr, conn->recv_timeout) == SYS_ARCH_TIMEOUT) 
 416:Middlewares/Third_Party/LwIP/src/api/api_lib.c **** #if TCP_LISTEN_BACKLOG
 417:Middlewares/Third_Party/LwIP/src/api/api_lib.c ****     API_MSG_VAR_FREE(msg);
 418:Middlewares/Third_Party/LwIP/src/api/api_lib.c **** #endif /* TCP_LISTEN_BACKLOG */
 419:Middlewares/Third_Party/LwIP/src/api/api_lib.c ****     return ERR_TIMEOUT;
 420:Middlewares/Third_Party/LwIP/src/api/api_lib.c ****   }
 421:Middlewares/Third_Party/LwIP/src/api/api_lib.c **** #else
 422:Middlewares/Third_Party/LwIP/src/api/api_lib.c ****   sys_arch_mbox_fetch(&conn->acceptmbox, &accept_ptr, 0);
 423:Middlewares/Third_Party/LwIP/src/api/api_lib.c **** #endif /* LWIP_SO_RCVTIMEO*/
 424:Middlewares/Third_Party/LwIP/src/api/api_lib.c ****   newconn = (struct netconn *)accept_ptr;
 425:Middlewares/Third_Party/LwIP/src/api/api_lib.c ****   /* Register event with callback */
 426:Middlewares/Third_Party/LwIP/src/api/api_lib.c ****   API_EVENT(conn, NETCONN_EVT_RCVMINUS, 0);
 427:Middlewares/Third_Party/LwIP/src/api/api_lib.c **** 
 428:Middlewares/Third_Party/LwIP/src/api/api_lib.c ****   if (accept_ptr == &netconn_aborted) {
 429:Middlewares/Third_Party/LwIP/src/api/api_lib.c ****     /* a connection has been aborted: out of pcbs or out of netconns during accept */
 430:Middlewares/Third_Party/LwIP/src/api/api_lib.c ****     /* @todo: set netconn error, but this would be fatal and thus block further accepts */
 431:Middlewares/Third_Party/LwIP/src/api/api_lib.c **** #if TCP_LISTEN_BACKLOG
 432:Middlewares/Third_Party/LwIP/src/api/api_lib.c ****     API_MSG_VAR_FREE(msg);
 433:Middlewares/Third_Party/LwIP/src/api/api_lib.c **** #endif /* TCP_LISTEN_BACKLOG */
 434:Middlewares/Third_Party/LwIP/src/api/api_lib.c ****     return ERR_ABRT;
 435:Middlewares/Third_Party/LwIP/src/api/api_lib.c ****   }
 436:Middlewares/Third_Party/LwIP/src/api/api_lib.c ****   if (newconn == NULL) {
 437:Middlewares/Third_Party/LwIP/src/api/api_lib.c ****     /* connection has been aborted */
 438:Middlewares/Third_Party/LwIP/src/api/api_lib.c ****     /* in this special case, we set the netconn error from application thread, as
 439:Middlewares/Third_Party/LwIP/src/api/api_lib.c ****        on a ready-to-accept listening netconn, there should not be anything running
 440:Middlewares/Third_Party/LwIP/src/api/api_lib.c ****        in tcpip_thread */
 441:Middlewares/Third_Party/LwIP/src/api/api_lib.c ****     NETCONN_SET_SAFE_ERR(conn, ERR_CLSD);
 442:Middlewares/Third_Party/LwIP/src/api/api_lib.c **** #if TCP_LISTEN_BACKLOG
 443:Middlewares/Third_Party/LwIP/src/api/api_lib.c ****     API_MSG_VAR_FREE(msg);
 444:Middlewares/Third_Party/LwIP/src/api/api_lib.c **** #endif /* TCP_LISTEN_BACKLOG */
 445:Middlewares/Third_Party/LwIP/src/api/api_lib.c ****     return ERR_CLSD;
 446:Middlewares/Third_Party/LwIP/src/api/api_lib.c ****   }
 447:Middlewares/Third_Party/LwIP/src/api/api_lib.c **** #if TCP_LISTEN_BACKLOG
 448:Middlewares/Third_Party/LwIP/src/api/api_lib.c ****   /* Let the stack know that we have accepted the connection. */
 449:Middlewares/Third_Party/LwIP/src/api/api_lib.c ****   API_MSG_VAR_REF(msg).conn = newconn;
 450:Middlewares/Third_Party/LwIP/src/api/api_lib.c ****   /* don't care for the return value of lwip_netconn_do_recv */
 451:Middlewares/Third_Party/LwIP/src/api/api_lib.c ****   netconn_apimsg(lwip_netconn_do_accepted, &API_MSG_VAR_REF(msg));
 452:Middlewares/Third_Party/LwIP/src/api/api_lib.c ****   API_MSG_VAR_FREE(msg);
ARM GAS  C:\Users\milek\AppData\Local\Temp\cc6GzPmq.s 			page 10


 453:Middlewares/Third_Party/LwIP/src/api/api_lib.c **** #endif /* TCP_LISTEN_BACKLOG */
 454:Middlewares/Third_Party/LwIP/src/api/api_lib.c **** 
 455:Middlewares/Third_Party/LwIP/src/api/api_lib.c ****   *new_conn = newconn;
 456:Middlewares/Third_Party/LwIP/src/api/api_lib.c ****   /* don't set conn->last_err: it's only ERR_OK, anyway */
 457:Middlewares/Third_Party/LwIP/src/api/api_lib.c ****   return ERR_OK;
 458:Middlewares/Third_Party/LwIP/src/api/api_lib.c **** #else /* LWIP_TCP */
 459:Middlewares/Third_Party/LwIP/src/api/api_lib.c ****   LWIP_UNUSED_ARG(conn);
 460:Middlewares/Third_Party/LwIP/src/api/api_lib.c ****   LWIP_UNUSED_ARG(new_conn);
 461:Middlewares/Third_Party/LwIP/src/api/api_lib.c ****   return ERR_ARG;
 462:Middlewares/Third_Party/LwIP/src/api/api_lib.c **** #endif /* LWIP_TCP */
 463:Middlewares/Third_Party/LwIP/src/api/api_lib.c **** }
 464:Middlewares/Third_Party/LwIP/src/api/api_lib.c **** 
 465:Middlewares/Third_Party/LwIP/src/api/api_lib.c **** /**
 466:Middlewares/Third_Party/LwIP/src/api/api_lib.c ****  * @ingroup netconn_common
 467:Middlewares/Third_Party/LwIP/src/api/api_lib.c ****  * Receive data: actual implementation that doesn't care whether pbuf or netbuf
 468:Middlewares/Third_Party/LwIP/src/api/api_lib.c ****  * is received
 469:Middlewares/Third_Party/LwIP/src/api/api_lib.c ****  *
 470:Middlewares/Third_Party/LwIP/src/api/api_lib.c ****  * @param conn the netconn from which to receive data
 471:Middlewares/Third_Party/LwIP/src/api/api_lib.c ****  * @param new_buf pointer where a new pbuf/netbuf is stored when received data
 472:Middlewares/Third_Party/LwIP/src/api/api_lib.c ****  * @return ERR_OK if data has been received, an error code otherwise (timeout,
 473:Middlewares/Third_Party/LwIP/src/api/api_lib.c ****  *                memory error or another error)
 474:Middlewares/Third_Party/LwIP/src/api/api_lib.c ****  */
 475:Middlewares/Third_Party/LwIP/src/api/api_lib.c **** static err_t
 476:Middlewares/Third_Party/LwIP/src/api/api_lib.c **** netconn_recv_data(struct netconn *conn, void **new_buf)
 477:Middlewares/Third_Party/LwIP/src/api/api_lib.c **** {
 478:Middlewares/Third_Party/LwIP/src/api/api_lib.c ****   void *buf = NULL;
 479:Middlewares/Third_Party/LwIP/src/api/api_lib.c ****   u16_t len;
 480:Middlewares/Third_Party/LwIP/src/api/api_lib.c **** #if LWIP_TCP
 481:Middlewares/Third_Party/LwIP/src/api/api_lib.c ****   API_MSG_VAR_DECLARE(msg);
 482:Middlewares/Third_Party/LwIP/src/api/api_lib.c **** #if LWIP_MPU_COMPATIBLE
 483:Middlewares/Third_Party/LwIP/src/api/api_lib.c ****   msg = NULL;
 484:Middlewares/Third_Party/LwIP/src/api/api_lib.c **** #endif
 485:Middlewares/Third_Party/LwIP/src/api/api_lib.c **** #endif /* LWIP_TCP */
 486:Middlewares/Third_Party/LwIP/src/api/api_lib.c **** 
 487:Middlewares/Third_Party/LwIP/src/api/api_lib.c ****   LWIP_ERROR("netconn_recv: invalid pointer", (new_buf != NULL), return ERR_ARG;);
 488:Middlewares/Third_Party/LwIP/src/api/api_lib.c ****   *new_buf = NULL;
 489:Middlewares/Third_Party/LwIP/src/api/api_lib.c ****   LWIP_ERROR("netconn_recv: invalid conn",    (conn != NULL),    return ERR_ARG;);
 490:Middlewares/Third_Party/LwIP/src/api/api_lib.c **** #if LWIP_TCP
 491:Middlewares/Third_Party/LwIP/src/api/api_lib.c **** #if (LWIP_UDP || LWIP_RAW)
 492:Middlewares/Third_Party/LwIP/src/api/api_lib.c ****   if (NETCONNTYPE_GROUP(conn->type) == NETCONN_TCP)
 493:Middlewares/Third_Party/LwIP/src/api/api_lib.c **** #endif /* (LWIP_UDP || LWIP_RAW) */
 494:Middlewares/Third_Party/LwIP/src/api/api_lib.c ****   {
 495:Middlewares/Third_Party/LwIP/src/api/api_lib.c ****     if (!sys_mbox_valid(&conn->recvmbox)) {
 496:Middlewares/Third_Party/LwIP/src/api/api_lib.c ****       /* This happens when calling this function after receiving FIN */
 497:Middlewares/Third_Party/LwIP/src/api/api_lib.c ****       return sys_mbox_valid(&conn->acceptmbox) ? ERR_CONN : ERR_CLSD;
 498:Middlewares/Third_Party/LwIP/src/api/api_lib.c ****     }
 499:Middlewares/Third_Party/LwIP/src/api/api_lib.c ****   }
 500:Middlewares/Third_Party/LwIP/src/api/api_lib.c **** #endif /* LWIP_TCP */
 501:Middlewares/Third_Party/LwIP/src/api/api_lib.c ****   LWIP_ERROR("netconn_recv: invalid recvmbox", sys_mbox_valid(&conn->recvmbox), return ERR_CONN;);
 502:Middlewares/Third_Party/LwIP/src/api/api_lib.c **** 
 503:Middlewares/Third_Party/LwIP/src/api/api_lib.c ****   if (ERR_IS_FATAL(conn->last_err)) {
 504:Middlewares/Third_Party/LwIP/src/api/api_lib.c ****     /* don't recv on fatal errors: this might block the application task
 505:Middlewares/Third_Party/LwIP/src/api/api_lib.c ****        waiting on recvmbox forever! */
 506:Middlewares/Third_Party/LwIP/src/api/api_lib.c ****     /* @todo: this does not allow us to fetch data that has been put into recvmbox
 507:Middlewares/Third_Party/LwIP/src/api/api_lib.c ****        before the fatal error occurred - is that a problem? */
 508:Middlewares/Third_Party/LwIP/src/api/api_lib.c ****     return conn->last_err;
 509:Middlewares/Third_Party/LwIP/src/api/api_lib.c ****   }
ARM GAS  C:\Users\milek\AppData\Local\Temp\cc6GzPmq.s 			page 11


 510:Middlewares/Third_Party/LwIP/src/api/api_lib.c **** #if LWIP_TCP
 511:Middlewares/Third_Party/LwIP/src/api/api_lib.c **** #if (LWIP_UDP || LWIP_RAW)
 512:Middlewares/Third_Party/LwIP/src/api/api_lib.c ****   if (NETCONNTYPE_GROUP(conn->type) == NETCONN_TCP)
 513:Middlewares/Third_Party/LwIP/src/api/api_lib.c **** #endif /* (LWIP_UDP || LWIP_RAW) */
 514:Middlewares/Third_Party/LwIP/src/api/api_lib.c ****   {
 515:Middlewares/Third_Party/LwIP/src/api/api_lib.c ****     API_MSG_VAR_ALLOC(msg);
 516:Middlewares/Third_Party/LwIP/src/api/api_lib.c ****   }
 517:Middlewares/Third_Party/LwIP/src/api/api_lib.c **** #endif /* LWIP_TCP */
 518:Middlewares/Third_Party/LwIP/src/api/api_lib.c **** 
 519:Middlewares/Third_Party/LwIP/src/api/api_lib.c **** #if LWIP_SO_RCVTIMEO
 520:Middlewares/Third_Party/LwIP/src/api/api_lib.c ****   if (sys_arch_mbox_fetch(&conn->recvmbox, &buf, conn->recv_timeout) == SYS_ARCH_TIMEOUT) {
 521:Middlewares/Third_Party/LwIP/src/api/api_lib.c **** #if LWIP_TCP
 522:Middlewares/Third_Party/LwIP/src/api/api_lib.c **** #if (LWIP_UDP || LWIP_RAW)
 523:Middlewares/Third_Party/LwIP/src/api/api_lib.c ****     if (NETCONNTYPE_GROUP(conn->type) == NETCONN_TCP)
 524:Middlewares/Third_Party/LwIP/src/api/api_lib.c **** #endif /* (LWIP_UDP || LWIP_RAW) */
 525:Middlewares/Third_Party/LwIP/src/api/api_lib.c ****     {
 526:Middlewares/Third_Party/LwIP/src/api/api_lib.c ****       API_MSG_VAR_FREE(msg);
 527:Middlewares/Third_Party/LwIP/src/api/api_lib.c ****     }
 528:Middlewares/Third_Party/LwIP/src/api/api_lib.c **** #endif /* LWIP_TCP */
 529:Middlewares/Third_Party/LwIP/src/api/api_lib.c ****     return ERR_TIMEOUT;
 530:Middlewares/Third_Party/LwIP/src/api/api_lib.c ****   }
 531:Middlewares/Third_Party/LwIP/src/api/api_lib.c **** #else
 532:Middlewares/Third_Party/LwIP/src/api/api_lib.c ****   sys_arch_mbox_fetch(&conn->recvmbox, &buf, 0);
 533:Middlewares/Third_Party/LwIP/src/api/api_lib.c **** #endif /* LWIP_SO_RCVTIMEO*/
 534:Middlewares/Third_Party/LwIP/src/api/api_lib.c **** 
 535:Middlewares/Third_Party/LwIP/src/api/api_lib.c **** #if LWIP_TCP
 536:Middlewares/Third_Party/LwIP/src/api/api_lib.c **** #if (LWIP_UDP || LWIP_RAW)
 537:Middlewares/Third_Party/LwIP/src/api/api_lib.c ****   if (NETCONNTYPE_GROUP(conn->type) == NETCONN_TCP)
 538:Middlewares/Third_Party/LwIP/src/api/api_lib.c **** #endif /* (LWIP_UDP || LWIP_RAW) */
 539:Middlewares/Third_Party/LwIP/src/api/api_lib.c ****   {
 540:Middlewares/Third_Party/LwIP/src/api/api_lib.c ****     /* Let the stack know that we have taken the data. */
 541:Middlewares/Third_Party/LwIP/src/api/api_lib.c ****     /* @todo: Speedup: Don't block and wait for the answer here
 542:Middlewares/Third_Party/LwIP/src/api/api_lib.c ****        (to prevent multiple thread-switches). */
 543:Middlewares/Third_Party/LwIP/src/api/api_lib.c ****     API_MSG_VAR_REF(msg).conn = conn;
 544:Middlewares/Third_Party/LwIP/src/api/api_lib.c ****     if (buf != NULL) {
 545:Middlewares/Third_Party/LwIP/src/api/api_lib.c ****       API_MSG_VAR_REF(msg).msg.r.len = ((struct pbuf *)buf)->tot_len;
 546:Middlewares/Third_Party/LwIP/src/api/api_lib.c ****     } else {
 547:Middlewares/Third_Party/LwIP/src/api/api_lib.c ****       API_MSG_VAR_REF(msg).msg.r.len = 1;
 548:Middlewares/Third_Party/LwIP/src/api/api_lib.c ****     }
 549:Middlewares/Third_Party/LwIP/src/api/api_lib.c **** 
 550:Middlewares/Third_Party/LwIP/src/api/api_lib.c ****     /* don't care for the return value of lwip_netconn_do_recv */
 551:Middlewares/Third_Party/LwIP/src/api/api_lib.c ****     netconn_apimsg(lwip_netconn_do_recv, &API_MSG_VAR_REF(msg));
 552:Middlewares/Third_Party/LwIP/src/api/api_lib.c ****     API_MSG_VAR_FREE(msg);
 553:Middlewares/Third_Party/LwIP/src/api/api_lib.c **** 
 554:Middlewares/Third_Party/LwIP/src/api/api_lib.c ****     /* If we are closed, we indicate that we no longer wish to use the socket */
 555:Middlewares/Third_Party/LwIP/src/api/api_lib.c ****     if (buf == NULL) {
 556:Middlewares/Third_Party/LwIP/src/api/api_lib.c ****       API_EVENT(conn, NETCONN_EVT_RCVMINUS, 0);
 557:Middlewares/Third_Party/LwIP/src/api/api_lib.c ****       if (conn->pcb.ip == NULL) {
 558:Middlewares/Third_Party/LwIP/src/api/api_lib.c ****         /* race condition: RST during recv */
 559:Middlewares/Third_Party/LwIP/src/api/api_lib.c ****         return conn->last_err == ERR_OK ? ERR_RST : conn->last_err;
 560:Middlewares/Third_Party/LwIP/src/api/api_lib.c ****       }
 561:Middlewares/Third_Party/LwIP/src/api/api_lib.c ****       /* RX side is closed, so deallocate the recvmbox */
 562:Middlewares/Third_Party/LwIP/src/api/api_lib.c ****       netconn_close_shutdown(conn, NETCONN_SHUT_RD);
 563:Middlewares/Third_Party/LwIP/src/api/api_lib.c ****       /* Don' store ERR_CLSD as conn->err since we are only half-closed */
 564:Middlewares/Third_Party/LwIP/src/api/api_lib.c ****       return ERR_CLSD;
 565:Middlewares/Third_Party/LwIP/src/api/api_lib.c ****     }
 566:Middlewares/Third_Party/LwIP/src/api/api_lib.c ****     len = ((struct pbuf *)buf)->tot_len;
ARM GAS  C:\Users\milek\AppData\Local\Temp\cc6GzPmq.s 			page 12


 567:Middlewares/Third_Party/LwIP/src/api/api_lib.c ****   }
 568:Middlewares/Third_Party/LwIP/src/api/api_lib.c **** #endif /* LWIP_TCP */
 569:Middlewares/Third_Party/LwIP/src/api/api_lib.c **** #if LWIP_TCP && (LWIP_UDP || LWIP_RAW)
 570:Middlewares/Third_Party/LwIP/src/api/api_lib.c ****   else
 571:Middlewares/Third_Party/LwIP/src/api/api_lib.c **** #endif /* LWIP_TCP && (LWIP_UDP || LWIP_RAW) */
 572:Middlewares/Third_Party/LwIP/src/api/api_lib.c **** #if (LWIP_UDP || LWIP_RAW)
 573:Middlewares/Third_Party/LwIP/src/api/api_lib.c ****   {
 574:Middlewares/Third_Party/LwIP/src/api/api_lib.c ****     LWIP_ASSERT("buf != NULL", buf != NULL);
 575:Middlewares/Third_Party/LwIP/src/api/api_lib.c ****     len = netbuf_len((struct netbuf*)buf);
 576:Middlewares/Third_Party/LwIP/src/api/api_lib.c ****   }
 577:Middlewares/Third_Party/LwIP/src/api/api_lib.c **** #endif /* (LWIP_UDP || LWIP_RAW) */
 578:Middlewares/Third_Party/LwIP/src/api/api_lib.c **** 
 579:Middlewares/Third_Party/LwIP/src/api/api_lib.c **** #if LWIP_SO_RCVBUF
 580:Middlewares/Third_Party/LwIP/src/api/api_lib.c ****   SYS_ARCH_DEC(conn->recv_avail, len);
 581:Middlewares/Third_Party/LwIP/src/api/api_lib.c **** #endif /* LWIP_SO_RCVBUF */
 582:Middlewares/Third_Party/LwIP/src/api/api_lib.c ****   /* Register event with callback */
 583:Middlewares/Third_Party/LwIP/src/api/api_lib.c ****   API_EVENT(conn, NETCONN_EVT_RCVMINUS, len);
 584:Middlewares/Third_Party/LwIP/src/api/api_lib.c **** 
 585:Middlewares/Third_Party/LwIP/src/api/api_lib.c ****   LWIP_DEBUGF(API_LIB_DEBUG, ("netconn_recv_data: received %p, len=%"U16_F"\n", buf, len));
 586:Middlewares/Third_Party/LwIP/src/api/api_lib.c **** 
 587:Middlewares/Third_Party/LwIP/src/api/api_lib.c ****   *new_buf = buf;
 588:Middlewares/Third_Party/LwIP/src/api/api_lib.c ****   /* don't set conn->last_err: it's only ERR_OK, anyway */
 589:Middlewares/Third_Party/LwIP/src/api/api_lib.c ****   return ERR_OK;
 590:Middlewares/Third_Party/LwIP/src/api/api_lib.c **** }
 591:Middlewares/Third_Party/LwIP/src/api/api_lib.c **** 
 592:Middlewares/Third_Party/LwIP/src/api/api_lib.c **** /**
 593:Middlewares/Third_Party/LwIP/src/api/api_lib.c ****  * @ingroup netconn_tcp
 594:Middlewares/Third_Party/LwIP/src/api/api_lib.c ****  * Receive data (in form of a pbuf) from a TCP netconn
 595:Middlewares/Third_Party/LwIP/src/api/api_lib.c ****  *
 596:Middlewares/Third_Party/LwIP/src/api/api_lib.c ****  * @param conn the netconn from which to receive data
 597:Middlewares/Third_Party/LwIP/src/api/api_lib.c ****  * @param new_buf pointer where a new pbuf is stored when received data
 598:Middlewares/Third_Party/LwIP/src/api/api_lib.c ****  * @return ERR_OK if data has been received, an error code otherwise (timeout,
 599:Middlewares/Third_Party/LwIP/src/api/api_lib.c ****  *                memory error or another error)
 600:Middlewares/Third_Party/LwIP/src/api/api_lib.c ****  *         ERR_ARG if conn is not a TCP netconn
 601:Middlewares/Third_Party/LwIP/src/api/api_lib.c ****  */
 602:Middlewares/Third_Party/LwIP/src/api/api_lib.c **** err_t
 603:Middlewares/Third_Party/LwIP/src/api/api_lib.c **** netconn_recv_tcp_pbuf(struct netconn *conn, struct pbuf **new_buf)
 604:Middlewares/Third_Party/LwIP/src/api/api_lib.c **** {
 605:Middlewares/Third_Party/LwIP/src/api/api_lib.c ****   LWIP_ERROR("netconn_recv: invalid conn", (conn != NULL) &&
 606:Middlewares/Third_Party/LwIP/src/api/api_lib.c ****              NETCONNTYPE_GROUP(netconn_type(conn)) == NETCONN_TCP, return ERR_ARG;);
 607:Middlewares/Third_Party/LwIP/src/api/api_lib.c **** 
 608:Middlewares/Third_Party/LwIP/src/api/api_lib.c ****   return netconn_recv_data(conn, (void **)new_buf);
 609:Middlewares/Third_Party/LwIP/src/api/api_lib.c **** }
 610:Middlewares/Third_Party/LwIP/src/api/api_lib.c **** 
 611:Middlewares/Third_Party/LwIP/src/api/api_lib.c **** /**
 612:Middlewares/Third_Party/LwIP/src/api/api_lib.c ****  * @ingroup netconn_common
 613:Middlewares/Third_Party/LwIP/src/api/api_lib.c ****  * Receive data (in form of a netbuf containing a packet buffer) from a netconn
 614:Middlewares/Third_Party/LwIP/src/api/api_lib.c ****  *
 615:Middlewares/Third_Party/LwIP/src/api/api_lib.c ****  * @param conn the netconn from which to receive data
 616:Middlewares/Third_Party/LwIP/src/api/api_lib.c ****  * @param new_buf pointer where a new netbuf is stored when received data
 617:Middlewares/Third_Party/LwIP/src/api/api_lib.c ****  * @return ERR_OK if data has been received, an error code otherwise (timeout,
 618:Middlewares/Third_Party/LwIP/src/api/api_lib.c ****  *                memory error or another error)
 619:Middlewares/Third_Party/LwIP/src/api/api_lib.c ****  */
 620:Middlewares/Third_Party/LwIP/src/api/api_lib.c **** err_t
 621:Middlewares/Third_Party/LwIP/src/api/api_lib.c **** netconn_recv(struct netconn *conn, struct netbuf **new_buf)
 622:Middlewares/Third_Party/LwIP/src/api/api_lib.c **** {
 623:Middlewares/Third_Party/LwIP/src/api/api_lib.c **** #if LWIP_TCP
ARM GAS  C:\Users\milek\AppData\Local\Temp\cc6GzPmq.s 			page 13


 624:Middlewares/Third_Party/LwIP/src/api/api_lib.c ****   struct netbuf *buf = NULL;
 625:Middlewares/Third_Party/LwIP/src/api/api_lib.c ****   err_t err;
 626:Middlewares/Third_Party/LwIP/src/api/api_lib.c **** #endif /* LWIP_TCP */
 627:Middlewares/Third_Party/LwIP/src/api/api_lib.c **** 
 628:Middlewares/Third_Party/LwIP/src/api/api_lib.c ****   LWIP_ERROR("netconn_recv: invalid pointer", (new_buf != NULL), return ERR_ARG;);
 629:Middlewares/Third_Party/LwIP/src/api/api_lib.c ****   *new_buf = NULL;
 630:Middlewares/Third_Party/LwIP/src/api/api_lib.c ****   LWIP_ERROR("netconn_recv: invalid conn",    (conn != NULL),    return ERR_ARG;);
 631:Middlewares/Third_Party/LwIP/src/api/api_lib.c **** 
 632:Middlewares/Third_Party/LwIP/src/api/api_lib.c **** #if LWIP_TCP
 633:Middlewares/Third_Party/LwIP/src/api/api_lib.c **** #if (LWIP_UDP || LWIP_RAW)
 634:Middlewares/Third_Party/LwIP/src/api/api_lib.c ****   if (NETCONNTYPE_GROUP(conn->type) == NETCONN_TCP)
 635:Middlewares/Third_Party/LwIP/src/api/api_lib.c **** #endif /* (LWIP_UDP || LWIP_RAW) */
 636:Middlewares/Third_Party/LwIP/src/api/api_lib.c ****   {
 637:Middlewares/Third_Party/LwIP/src/api/api_lib.c ****     struct pbuf *p = NULL;
 638:Middlewares/Third_Party/LwIP/src/api/api_lib.c ****     /* This is not a listening netconn, since recvmbox is set */
 639:Middlewares/Third_Party/LwIP/src/api/api_lib.c **** 
 640:Middlewares/Third_Party/LwIP/src/api/api_lib.c ****     buf = (struct netbuf *)memp_malloc(MEMP_NETBUF);
 641:Middlewares/Third_Party/LwIP/src/api/api_lib.c ****     if (buf == NULL) {
 642:Middlewares/Third_Party/LwIP/src/api/api_lib.c ****       return ERR_MEM;
 643:Middlewares/Third_Party/LwIP/src/api/api_lib.c ****     }
 644:Middlewares/Third_Party/LwIP/src/api/api_lib.c **** 
 645:Middlewares/Third_Party/LwIP/src/api/api_lib.c ****     err = netconn_recv_data(conn, (void **)&p);
 646:Middlewares/Third_Party/LwIP/src/api/api_lib.c ****     if (err != ERR_OK) {
 647:Middlewares/Third_Party/LwIP/src/api/api_lib.c ****       memp_free(MEMP_NETBUF, buf);
 648:Middlewares/Third_Party/LwIP/src/api/api_lib.c ****       return err;
 649:Middlewares/Third_Party/LwIP/src/api/api_lib.c ****     }
 650:Middlewares/Third_Party/LwIP/src/api/api_lib.c ****     LWIP_ASSERT("p != NULL", p != NULL);
 651:Middlewares/Third_Party/LwIP/src/api/api_lib.c **** 
 652:Middlewares/Third_Party/LwIP/src/api/api_lib.c ****     buf->p = p;
 653:Middlewares/Third_Party/LwIP/src/api/api_lib.c ****     buf->ptr = p;
 654:Middlewares/Third_Party/LwIP/src/api/api_lib.c ****     buf->port = 0;
 655:Middlewares/Third_Party/LwIP/src/api/api_lib.c ****     ip_addr_set_zero(&buf->addr);
 656:Middlewares/Third_Party/LwIP/src/api/api_lib.c ****     *new_buf = buf;
 657:Middlewares/Third_Party/LwIP/src/api/api_lib.c ****     /* don't set conn->last_err: it's only ERR_OK, anyway */
 658:Middlewares/Third_Party/LwIP/src/api/api_lib.c ****     return ERR_OK;
 659:Middlewares/Third_Party/LwIP/src/api/api_lib.c ****   }
 660:Middlewares/Third_Party/LwIP/src/api/api_lib.c **** #endif /* LWIP_TCP */
 661:Middlewares/Third_Party/LwIP/src/api/api_lib.c **** #if LWIP_TCP && (LWIP_UDP || LWIP_RAW)
 662:Middlewares/Third_Party/LwIP/src/api/api_lib.c ****   else
 663:Middlewares/Third_Party/LwIP/src/api/api_lib.c **** #endif /* LWIP_TCP && (LWIP_UDP || LWIP_RAW) */
 664:Middlewares/Third_Party/LwIP/src/api/api_lib.c ****   {
 665:Middlewares/Third_Party/LwIP/src/api/api_lib.c **** #if (LWIP_UDP || LWIP_RAW)
 666:Middlewares/Third_Party/LwIP/src/api/api_lib.c ****     return netconn_recv_data(conn, (void **)new_buf);
 667:Middlewares/Third_Party/LwIP/src/api/api_lib.c **** #endif /* (LWIP_UDP || LWIP_RAW) */
 668:Middlewares/Third_Party/LwIP/src/api/api_lib.c ****   }
 669:Middlewares/Third_Party/LwIP/src/api/api_lib.c **** }
 670:Middlewares/Third_Party/LwIP/src/api/api_lib.c **** 
 671:Middlewares/Third_Party/LwIP/src/api/api_lib.c **** /**
 672:Middlewares/Third_Party/LwIP/src/api/api_lib.c ****  * @ingroup netconn_udp
 673:Middlewares/Third_Party/LwIP/src/api/api_lib.c ****  * Send data (in form of a netbuf) to a specific remote IP address and port.
 674:Middlewares/Third_Party/LwIP/src/api/api_lib.c ****  * Only to be used for UDP and RAW netconns (not TCP).
 675:Middlewares/Third_Party/LwIP/src/api/api_lib.c ****  *
 676:Middlewares/Third_Party/LwIP/src/api/api_lib.c ****  * @param conn the netconn over which to send data
 677:Middlewares/Third_Party/LwIP/src/api/api_lib.c ****  * @param buf a netbuf containing the data to send
 678:Middlewares/Third_Party/LwIP/src/api/api_lib.c ****  * @param addr the remote IP address to which to send the data
 679:Middlewares/Third_Party/LwIP/src/api/api_lib.c ****  * @param port the remote port to which to send the data
 680:Middlewares/Third_Party/LwIP/src/api/api_lib.c ****  * @return ERR_OK if data was sent, any other err_t on error
ARM GAS  C:\Users\milek\AppData\Local\Temp\cc6GzPmq.s 			page 14


 681:Middlewares/Third_Party/LwIP/src/api/api_lib.c ****  */
 682:Middlewares/Third_Party/LwIP/src/api/api_lib.c **** err_t
 683:Middlewares/Third_Party/LwIP/src/api/api_lib.c **** netconn_sendto(struct netconn *conn, struct netbuf *buf, const ip_addr_t *addr, u16_t port)
 684:Middlewares/Third_Party/LwIP/src/api/api_lib.c **** {
 685:Middlewares/Third_Party/LwIP/src/api/api_lib.c ****   if (buf != NULL) {
 686:Middlewares/Third_Party/LwIP/src/api/api_lib.c ****     ip_addr_set(&buf->addr, addr);
 687:Middlewares/Third_Party/LwIP/src/api/api_lib.c ****     buf->port = port;
 688:Middlewares/Third_Party/LwIP/src/api/api_lib.c ****     return netconn_send(conn, buf);
 689:Middlewares/Third_Party/LwIP/src/api/api_lib.c ****   }
 690:Middlewares/Third_Party/LwIP/src/api/api_lib.c ****   return ERR_VAL;
 691:Middlewares/Third_Party/LwIP/src/api/api_lib.c **** }
 692:Middlewares/Third_Party/LwIP/src/api/api_lib.c **** 
 693:Middlewares/Third_Party/LwIP/src/api/api_lib.c **** /**
 694:Middlewares/Third_Party/LwIP/src/api/api_lib.c ****  * @ingroup netconn_udp
 695:Middlewares/Third_Party/LwIP/src/api/api_lib.c ****  * Send data over a UDP or RAW netconn (that is already connected).
 696:Middlewares/Third_Party/LwIP/src/api/api_lib.c ****  *
 697:Middlewares/Third_Party/LwIP/src/api/api_lib.c ****  * @param conn the UDP or RAW netconn over which to send data
 698:Middlewares/Third_Party/LwIP/src/api/api_lib.c ****  * @param buf a netbuf containing the data to send
 699:Middlewares/Third_Party/LwIP/src/api/api_lib.c ****  * @return ERR_OK if data was sent, any other err_t on error
 700:Middlewares/Third_Party/LwIP/src/api/api_lib.c ****  */
 701:Middlewares/Third_Party/LwIP/src/api/api_lib.c **** err_t
 702:Middlewares/Third_Party/LwIP/src/api/api_lib.c **** netconn_send(struct netconn *conn, struct netbuf *buf)
 703:Middlewares/Third_Party/LwIP/src/api/api_lib.c **** {
 704:Middlewares/Third_Party/LwIP/src/api/api_lib.c ****   API_MSG_VAR_DECLARE(msg);
 705:Middlewares/Third_Party/LwIP/src/api/api_lib.c ****   err_t err;
 706:Middlewares/Third_Party/LwIP/src/api/api_lib.c **** 
 707:Middlewares/Third_Party/LwIP/src/api/api_lib.c ****   LWIP_ERROR("netconn_send: invalid conn",  (conn != NULL), return ERR_ARG;);
 708:Middlewares/Third_Party/LwIP/src/api/api_lib.c **** 
 709:Middlewares/Third_Party/LwIP/src/api/api_lib.c ****   LWIP_DEBUGF(API_LIB_DEBUG, ("netconn_send: sending %"U16_F" bytes\n", buf->p->tot_len));
 710:Middlewares/Third_Party/LwIP/src/api/api_lib.c **** 
 711:Middlewares/Third_Party/LwIP/src/api/api_lib.c ****   API_MSG_VAR_ALLOC(msg);
 712:Middlewares/Third_Party/LwIP/src/api/api_lib.c ****   API_MSG_VAR_REF(msg).conn = conn;
 713:Middlewares/Third_Party/LwIP/src/api/api_lib.c ****   API_MSG_VAR_REF(msg).msg.b = buf;
 714:Middlewares/Third_Party/LwIP/src/api/api_lib.c ****   err = netconn_apimsg(lwip_netconn_do_send, &API_MSG_VAR_REF(msg));
 715:Middlewares/Third_Party/LwIP/src/api/api_lib.c ****   API_MSG_VAR_FREE(msg);
 716:Middlewares/Third_Party/LwIP/src/api/api_lib.c **** 
 717:Middlewares/Third_Party/LwIP/src/api/api_lib.c ****   return err;
 718:Middlewares/Third_Party/LwIP/src/api/api_lib.c **** }
 719:Middlewares/Third_Party/LwIP/src/api/api_lib.c **** 
 720:Middlewares/Third_Party/LwIP/src/api/api_lib.c **** /**
 721:Middlewares/Third_Party/LwIP/src/api/api_lib.c ****  * @ingroup netconn_tcp
 722:Middlewares/Third_Party/LwIP/src/api/api_lib.c ****  * Send data over a TCP netconn.
 723:Middlewares/Third_Party/LwIP/src/api/api_lib.c ****  *
 724:Middlewares/Third_Party/LwIP/src/api/api_lib.c ****  * @param conn the TCP netconn over which to send data
 725:Middlewares/Third_Party/LwIP/src/api/api_lib.c ****  * @param dataptr pointer to the application buffer that contains the data to send
 726:Middlewares/Third_Party/LwIP/src/api/api_lib.c ****  * @param size size of the application data to send
 727:Middlewares/Third_Party/LwIP/src/api/api_lib.c ****  * @param apiflags combination of following flags :
 728:Middlewares/Third_Party/LwIP/src/api/api_lib.c ****  * - NETCONN_COPY: data will be copied into memory belonging to the stack
 729:Middlewares/Third_Party/LwIP/src/api/api_lib.c ****  * - NETCONN_MORE: for TCP connection, PSH flag will be set on last segment sent
 730:Middlewares/Third_Party/LwIP/src/api/api_lib.c ****  * - NETCONN_DONTBLOCK: only write the data if all data can be written at once
 731:Middlewares/Third_Party/LwIP/src/api/api_lib.c ****  * @param bytes_written pointer to a location that receives the number of written bytes
 732:Middlewares/Third_Party/LwIP/src/api/api_lib.c ****  * @return ERR_OK if data was sent, any other err_t on error
 733:Middlewares/Third_Party/LwIP/src/api/api_lib.c ****  */
 734:Middlewares/Third_Party/LwIP/src/api/api_lib.c **** err_t
 735:Middlewares/Third_Party/LwIP/src/api/api_lib.c **** netconn_write_partly(struct netconn *conn, const void *dataptr, size_t size,
 736:Middlewares/Third_Party/LwIP/src/api/api_lib.c ****                      u8_t apiflags, size_t *bytes_written)
 737:Middlewares/Third_Party/LwIP/src/api/api_lib.c **** {
ARM GAS  C:\Users\milek\AppData\Local\Temp\cc6GzPmq.s 			page 15


 738:Middlewares/Third_Party/LwIP/src/api/api_lib.c ****   API_MSG_VAR_DECLARE(msg);
 739:Middlewares/Third_Party/LwIP/src/api/api_lib.c ****   err_t err;
 740:Middlewares/Third_Party/LwIP/src/api/api_lib.c ****   u8_t dontblock;
 741:Middlewares/Third_Party/LwIP/src/api/api_lib.c **** 
 742:Middlewares/Third_Party/LwIP/src/api/api_lib.c ****   LWIP_ERROR("netconn_write: invalid conn",  (conn != NULL), return ERR_ARG;);
 743:Middlewares/Third_Party/LwIP/src/api/api_lib.c ****   LWIP_ERROR("netconn_write: invalid conn->type",  (NETCONNTYPE_GROUP(conn->type)== NETCONN_TCP), r
 744:Middlewares/Third_Party/LwIP/src/api/api_lib.c ****   if (size == 0) {
 745:Middlewares/Third_Party/LwIP/src/api/api_lib.c ****     return ERR_OK;
 746:Middlewares/Third_Party/LwIP/src/api/api_lib.c ****   }
 747:Middlewares/Third_Party/LwIP/src/api/api_lib.c ****   dontblock = netconn_is_nonblocking(conn) || (apiflags & NETCONN_DONTBLOCK);
 748:Middlewares/Third_Party/LwIP/src/api/api_lib.c **** #if LWIP_SO_SNDTIMEO
 749:Middlewares/Third_Party/LwIP/src/api/api_lib.c ****   if (conn->send_timeout != 0) {
 750:Middlewares/Third_Party/LwIP/src/api/api_lib.c ****     dontblock = 1;
 751:Middlewares/Third_Party/LwIP/src/api/api_lib.c ****   }
 752:Middlewares/Third_Party/LwIP/src/api/api_lib.c **** #endif /* LWIP_SO_SNDTIMEO */
 753:Middlewares/Third_Party/LwIP/src/api/api_lib.c ****   if (dontblock && !bytes_written) {
 754:Middlewares/Third_Party/LwIP/src/api/api_lib.c ****     /* This implies netconn_write() cannot be used for non-blocking send, since
 755:Middlewares/Third_Party/LwIP/src/api/api_lib.c ****        it has no way to return the number of bytes written. */
 756:Middlewares/Third_Party/LwIP/src/api/api_lib.c ****     return ERR_VAL;
 757:Middlewares/Third_Party/LwIP/src/api/api_lib.c ****   }
 758:Middlewares/Third_Party/LwIP/src/api/api_lib.c **** 
 759:Middlewares/Third_Party/LwIP/src/api/api_lib.c ****   API_MSG_VAR_ALLOC(msg);
 760:Middlewares/Third_Party/LwIP/src/api/api_lib.c ****   /* non-blocking write sends as much  */
 761:Middlewares/Third_Party/LwIP/src/api/api_lib.c ****   API_MSG_VAR_REF(msg).conn = conn;
 762:Middlewares/Third_Party/LwIP/src/api/api_lib.c ****   API_MSG_VAR_REF(msg).msg.w.dataptr = dataptr;
 763:Middlewares/Third_Party/LwIP/src/api/api_lib.c ****   API_MSG_VAR_REF(msg).msg.w.apiflags = apiflags;
 764:Middlewares/Third_Party/LwIP/src/api/api_lib.c ****   API_MSG_VAR_REF(msg).msg.w.len = size;
 765:Middlewares/Third_Party/LwIP/src/api/api_lib.c **** #if LWIP_SO_SNDTIMEO
 766:Middlewares/Third_Party/LwIP/src/api/api_lib.c ****   if (conn->send_timeout != 0) {
 767:Middlewares/Third_Party/LwIP/src/api/api_lib.c ****     /* get the time we started, which is later compared to
 768:Middlewares/Third_Party/LwIP/src/api/api_lib.c ****         sys_now() + conn->send_timeout */
 769:Middlewares/Third_Party/LwIP/src/api/api_lib.c ****     API_MSG_VAR_REF(msg).msg.w.time_started = sys_now();
 770:Middlewares/Third_Party/LwIP/src/api/api_lib.c ****   } else {
 771:Middlewares/Third_Party/LwIP/src/api/api_lib.c ****     API_MSG_VAR_REF(msg).msg.w.time_started = 0;
 772:Middlewares/Third_Party/LwIP/src/api/api_lib.c ****   }
 773:Middlewares/Third_Party/LwIP/src/api/api_lib.c **** #endif /* LWIP_SO_SNDTIMEO */
 774:Middlewares/Third_Party/LwIP/src/api/api_lib.c **** 
 775:Middlewares/Third_Party/LwIP/src/api/api_lib.c ****   /* For locking the core: this _can_ be delayed on low memory/low send buffer,
 776:Middlewares/Third_Party/LwIP/src/api/api_lib.c ****      but if it is, this is done inside api_msg.c:do_write(), so we can use the
 777:Middlewares/Third_Party/LwIP/src/api/api_lib.c ****      non-blocking version here. */
 778:Middlewares/Third_Party/LwIP/src/api/api_lib.c ****   err = netconn_apimsg(lwip_netconn_do_write, &API_MSG_VAR_REF(msg));
 779:Middlewares/Third_Party/LwIP/src/api/api_lib.c ****   if ((err == ERR_OK) && (bytes_written != NULL)) {
 780:Middlewares/Third_Party/LwIP/src/api/api_lib.c ****     if (dontblock) {
 781:Middlewares/Third_Party/LwIP/src/api/api_lib.c ****       /* nonblocking write: maybe the data has been sent partly */
 782:Middlewares/Third_Party/LwIP/src/api/api_lib.c ****       *bytes_written = API_MSG_VAR_REF(msg).msg.w.len;
 783:Middlewares/Third_Party/LwIP/src/api/api_lib.c ****     } else {
 784:Middlewares/Third_Party/LwIP/src/api/api_lib.c ****       /* blocking call succeeded: all data has been sent if it */
 785:Middlewares/Third_Party/LwIP/src/api/api_lib.c ****       *bytes_written = size;
 786:Middlewares/Third_Party/LwIP/src/api/api_lib.c ****     }
 787:Middlewares/Third_Party/LwIP/src/api/api_lib.c ****   }
 788:Middlewares/Third_Party/LwIP/src/api/api_lib.c ****   API_MSG_VAR_FREE(msg);
 789:Middlewares/Third_Party/LwIP/src/api/api_lib.c **** 
 790:Middlewares/Third_Party/LwIP/src/api/api_lib.c ****   return err;
 791:Middlewares/Third_Party/LwIP/src/api/api_lib.c **** }
 792:Middlewares/Third_Party/LwIP/src/api/api_lib.c **** 
 793:Middlewares/Third_Party/LwIP/src/api/api_lib.c **** /**
 794:Middlewares/Third_Party/LwIP/src/api/api_lib.c ****  * @ingroup netconn_tcp
ARM GAS  C:\Users\milek\AppData\Local\Temp\cc6GzPmq.s 			page 16


 795:Middlewares/Third_Party/LwIP/src/api/api_lib.c ****  * Close or shutdown a TCP netconn (doesn't delete it).
 796:Middlewares/Third_Party/LwIP/src/api/api_lib.c ****  *
 797:Middlewares/Third_Party/LwIP/src/api/api_lib.c ****  * @param conn the TCP netconn to close or shutdown
 798:Middlewares/Third_Party/LwIP/src/api/api_lib.c ****  * @param how fully close or only shutdown one side?
 799:Middlewares/Third_Party/LwIP/src/api/api_lib.c ****  * @return ERR_OK if the netconn was closed, any other err_t on error
 800:Middlewares/Third_Party/LwIP/src/api/api_lib.c ****  */
 801:Middlewares/Third_Party/LwIP/src/api/api_lib.c **** static err_t
 802:Middlewares/Third_Party/LwIP/src/api/api_lib.c **** netconn_close_shutdown(struct netconn *conn, u8_t how)
 803:Middlewares/Third_Party/LwIP/src/api/api_lib.c **** {
  65              		.loc 1 803 0
  66              		.cfi_startproc
  67              		@ args = 0, pretend = 0, frame = 24
  68              		@ frame_needed = 0, uses_anonymous_args = 0
  69              	.LVL3:
  70 0000 00B5     		push	{lr}
  71              	.LCFI1:
  72              		.cfi_def_cfa_offset 4
  73              		.cfi_offset 14, -4
  74 0002 87B0     		sub	sp, sp, #28
  75              	.LCFI2:
  76              		.cfi_def_cfa_offset 32
 804:Middlewares/Third_Party/LwIP/src/api/api_lib.c ****   API_MSG_VAR_DECLARE(msg);
 805:Middlewares/Third_Party/LwIP/src/api/api_lib.c ****   err_t err;
 806:Middlewares/Third_Party/LwIP/src/api/api_lib.c ****   LWIP_UNUSED_ARG(how);
 807:Middlewares/Third_Party/LwIP/src/api/api_lib.c **** 
 808:Middlewares/Third_Party/LwIP/src/api/api_lib.c ****   LWIP_ERROR("netconn_close: invalid conn",  (conn != NULL), return ERR_ARG;);
  77              		.loc 1 808 0
  78 0004 60B1     		cbz	r0, .L8
 809:Middlewares/Third_Party/LwIP/src/api/api_lib.c **** 
 810:Middlewares/Third_Party/LwIP/src/api/api_lib.c ****   API_MSG_VAR_ALLOC(msg);
 811:Middlewares/Third_Party/LwIP/src/api/api_lib.c ****   API_MSG_VAR_REF(msg).conn = conn;
  79              		.loc 1 811 0
  80 0006 0190     		str	r0, [sp, #4]
 812:Middlewares/Third_Party/LwIP/src/api/api_lib.c **** #if LWIP_TCP
 813:Middlewares/Third_Party/LwIP/src/api/api_lib.c ****   /* shutting down both ends is the same as closing */
 814:Middlewares/Third_Party/LwIP/src/api/api_lib.c ****   API_MSG_VAR_REF(msg).msg.sd.shut = how;
  81              		.loc 1 814 0
  82 0008 8DF80C10 		strb	r1, [sp, #12]
 815:Middlewares/Third_Party/LwIP/src/api/api_lib.c **** #if LWIP_SO_SNDTIMEO || LWIP_SO_LINGER
 816:Middlewares/Third_Party/LwIP/src/api/api_lib.c ****   /* get the time we started, which is later compared to
 817:Middlewares/Third_Party/LwIP/src/api/api_lib.c ****      sys_now() + conn->send_timeout */
 818:Middlewares/Third_Party/LwIP/src/api/api_lib.c ****   API_MSG_VAR_REF(msg).msg.sd.time_started = sys_now();
 819:Middlewares/Third_Party/LwIP/src/api/api_lib.c **** #else /* LWIP_SO_SNDTIMEO || LWIP_SO_LINGER */
 820:Middlewares/Third_Party/LwIP/src/api/api_lib.c ****   API_MSG_VAR_REF(msg).msg.sd.polls_left =
  83              		.loc 1 820 0
  84 000c 2923     		movs	r3, #41
  85 000e 8DF80D30 		strb	r3, [sp, #13]
 821:Middlewares/Third_Party/LwIP/src/api/api_lib.c ****     ((LWIP_TCP_CLOSE_TIMEOUT_MS_DEFAULT + TCP_SLOW_INTERVAL - 1) / TCP_SLOW_INTERVAL) + 1;
 822:Middlewares/Third_Party/LwIP/src/api/api_lib.c **** #endif /* LWIP_SO_SNDTIMEO || LWIP_SO_LINGER */
 823:Middlewares/Third_Party/LwIP/src/api/api_lib.c **** #endif /* LWIP_TCP */
 824:Middlewares/Third_Party/LwIP/src/api/api_lib.c ****   err = netconn_apimsg(lwip_netconn_do_close, &API_MSG_VAR_REF(msg));
  86              		.loc 1 824 0
  87 0012 01A9     		add	r1, sp, #4
  88              	.LVL4:
  89 0014 0748     		ldr	r0, .L9
  90              	.LVL5:
  91 0016 FFF7FEFF 		bl	netconn_apimsg
ARM GAS  C:\Users\milek\AppData\Local\Temp\cc6GzPmq.s 			page 17


  92              	.LVL6:
  93              	.L6:
 825:Middlewares/Third_Party/LwIP/src/api/api_lib.c ****   API_MSG_VAR_FREE(msg);
 826:Middlewares/Third_Party/LwIP/src/api/api_lib.c **** 
 827:Middlewares/Third_Party/LwIP/src/api/api_lib.c ****   return err;
 828:Middlewares/Third_Party/LwIP/src/api/api_lib.c **** }
  94              		.loc 1 828 0
  95 001a 07B0     		add	sp, sp, #28
  96              	.LCFI3:
  97              		.cfi_remember_state
  98              		.cfi_def_cfa_offset 4
  99              		@ sp needed
 100 001c 5DF804FB 		ldr	pc, [sp], #4
 101              	.LVL7:
 102              	.L8:
 103              	.LCFI4:
 104              		.cfi_restore_state
 808:Middlewares/Third_Party/LwIP/src/api/api_lib.c **** 
 105              		.loc 1 808 0 discriminator 1
 106 0020 054B     		ldr	r3, .L9+4
 107 0022 4FF44A72 		mov	r2, #808
 108 0026 0549     		ldr	r1, .L9+8
 109              	.LVL8:
 110 0028 0548     		ldr	r0, .L9+12
 111              	.LVL9:
 112 002a FFF7FEFF 		bl	printf
 113              	.LVL10:
 114 002e 6FF00F00 		mvn	r0, #15
 115 0032 F2E7     		b	.L6
 116              	.L10:
 117              		.align	2
 118              	.L9:
 119 0034 00000000 		.word	lwip_netconn_do_close
 120 0038 00000000 		.word	.LC0
 121 003c 30000000 		.word	.LC1
 122 0040 4C000000 		.word	.LC2
 123              		.cfi_endproc
 124              	.LFE174:
 126              		.section	.text.netconn_recv_data,"ax",%progbits
 127              		.align	1
 128              		.syntax unified
 129              		.thumb
 130              		.thumb_func
 131              		.fpu fpv5-sp-d16
 133              	netconn_recv_data:
 134              	.LFB168:
 477:Middlewares/Third_Party/LwIP/src/api/api_lib.c ****   void *buf = NULL;
 135              		.loc 1 477 0
 136              		.cfi_startproc
 137              		@ args = 0, pretend = 0, frame = 24
 138              		@ frame_needed = 0, uses_anonymous_args = 0
 139              	.LVL11:
 140 0000 70B5     		push	{r4, r5, r6, lr}
 141              	.LCFI5:
 142              		.cfi_def_cfa_offset 16
 143              		.cfi_offset 4, -16
 144              		.cfi_offset 5, -12
ARM GAS  C:\Users\milek\AppData\Local\Temp\cc6GzPmq.s 			page 18


 145              		.cfi_offset 6, -8
 146              		.cfi_offset 14, -4
 147 0002 86B0     		sub	sp, sp, #24
 148              	.LCFI6:
 149              		.cfi_def_cfa_offset 40
 478:Middlewares/Third_Party/LwIP/src/api/api_lib.c ****   u16_t len;
 150              		.loc 1 478 0
 151 0004 0023     		movs	r3, #0
 152 0006 0593     		str	r3, [sp, #20]
 487:Middlewares/Third_Party/LwIP/src/api/api_lib.c ****   *new_buf = NULL;
 153              		.loc 1 487 0
 154 0008 B1B1     		cbz	r1, .L28
 155 000a 0446     		mov	r4, r0
 156 000c 0D46     		mov	r5, r1
 488:Middlewares/Third_Party/LwIP/src/api/api_lib.c ****   LWIP_ERROR("netconn_recv: invalid conn",    (conn != NULL),    return ERR_ARG;);
 157              		.loc 1 488 0
 158 000e 0023     		movs	r3, #0
 159 0010 0B60     		str	r3, [r1]
 489:Middlewares/Third_Party/LwIP/src/api/api_lib.c **** #if LWIP_TCP
 160              		.loc 1 489 0
 161 0012 D8B1     		cbz	r0, .L29
 492:Middlewares/Third_Party/LwIP/src/api/api_lib.c **** #endif /* (LWIP_UDP || LWIP_RAW) */
 162              		.loc 1 492 0
 163 0014 0378     		ldrb	r3, [r0]	@ zero_extendqisi2
 164 0016 03F0F003 		and	r3, r3, #240
 165 001a 102B     		cmp	r3, #16
 166 001c 20D0     		beq	.L30
 167              	.LVL12:
 168              	.L15:
 501:Middlewares/Third_Party/LwIP/src/api/api_lib.c **** 
 169              		.loc 1 501 0
 170 001e 04F11006 		add	r6, r4, #16
 171 0022 3046     		mov	r0, r6
 172 0024 FFF7FEFF 		bl	sys_mbox_valid
 173              	.LVL13:
 174 0028 40B3     		cbz	r0, .L31
 503:Middlewares/Third_Party/LwIP/src/api/api_lib.c ****     /* don't recv on fatal errors: this might block the application task
 175              		.loc 1 503 0
 176 002a 94F90800 		ldrsb	r0, [r4, #8]
 177 002e 10F10C0F 		cmn	r0, #12
 178 0032 2DDA     		bge	.L32
 179              	.LVL14:
 180              	.L13:
 590:Middlewares/Third_Party/LwIP/src/api/api_lib.c **** 
 181              		.loc 1 590 0
 182 0034 06B0     		add	sp, sp, #24
 183              	.LCFI7:
 184              		.cfi_remember_state
 185              		.cfi_def_cfa_offset 16
 186              		@ sp needed
 187 0036 70BD     		pop	{r4, r5, r6, pc}
 188              	.LVL15:
 189              	.L28:
 190              	.LCFI8:
 191              		.cfi_restore_state
 487:Middlewares/Third_Party/LwIP/src/api/api_lib.c ****   *new_buf = NULL;
 192              		.loc 1 487 0 discriminator 1
ARM GAS  C:\Users\milek\AppData\Local\Temp\cc6GzPmq.s 			page 19


 193 0038 3A4B     		ldr	r3, .L36
 194 003a 40F2E712 		movw	r2, #487
 195 003e 3A49     		ldr	r1, .L36+4
 196              	.LVL16:
 197 0040 3A48     		ldr	r0, .L36+8
 198              	.LVL17:
 199 0042 FFF7FEFF 		bl	printf
 200              	.LVL18:
 201 0046 6FF00F00 		mvn	r0, #15
 202 004a F3E7     		b	.L13
 203              	.LVL19:
 204              	.L29:
 489:Middlewares/Third_Party/LwIP/src/api/api_lib.c **** #if LWIP_TCP
 205              		.loc 1 489 0 discriminator 1
 206 004c 354B     		ldr	r3, .L36
 207 004e 40F2E912 		movw	r2, #489
 208 0052 3749     		ldr	r1, .L36+12
 209              	.LVL20:
 210 0054 3548     		ldr	r0, .L36+8
 211              	.LVL21:
 212 0056 FFF7FEFF 		bl	printf
 213              	.LVL22:
 214 005a 6FF00F00 		mvn	r0, #15
 215 005e E9E7     		b	.L13
 216              	.LVL23:
 217              	.L30:
 495:Middlewares/Third_Party/LwIP/src/api/api_lib.c ****       /* This happens when calling this function after receiving FIN */
 218              		.loc 1 495 0
 219 0060 1030     		adds	r0, r0, #16
 220              	.LVL24:
 221 0062 FFF7FEFF 		bl	sys_mbox_valid
 222              	.LVL25:
 223 0066 0028     		cmp	r0, #0
 224 0068 D9D1     		bne	.L15
 497:Middlewares/Third_Party/LwIP/src/api/api_lib.c ****     }
 225              		.loc 1 497 0
 226 006a 04F11400 		add	r0, r4, #20
 227 006e FFF7FEFF 		bl	sys_mbox_valid
 228              	.LVL26:
 229 0072 0028     		cmp	r0, #0
 230 0074 53D0     		beq	.L26
 231 0076 6FF00A00 		mvn	r0, #10
 232 007a DBE7     		b	.L13
 233              	.L31:
 501:Middlewares/Third_Party/LwIP/src/api/api_lib.c **** 
 234              		.loc 1 501 0 discriminator 1
 235 007c 294B     		ldr	r3, .L36
 236 007e 40F2F512 		movw	r2, #501
 237 0082 2C49     		ldr	r1, .L36+16
 238 0084 2948     		ldr	r0, .L36+8
 239 0086 FFF7FEFF 		bl	printf
 240              	.LVL27:
 241 008a 6FF00A00 		mvn	r0, #10
 242 008e D1E7     		b	.L13
 243              	.L32:
 532:Middlewares/Third_Party/LwIP/src/api/api_lib.c **** #endif /* LWIP_SO_RCVTIMEO*/
 244              		.loc 1 532 0
ARM GAS  C:\Users\milek\AppData\Local\Temp\cc6GzPmq.s 			page 20


 245 0090 0022     		movs	r2, #0
 246 0092 05A9     		add	r1, sp, #20
 247 0094 3046     		mov	r0, r6
 248 0096 FFF7FEFF 		bl	sys_arch_mbox_fetch
 249              	.LVL28:
 537:Middlewares/Third_Party/LwIP/src/api/api_lib.c **** #endif /* (LWIP_UDP || LWIP_RAW) */
 250              		.loc 1 537 0
 251 009a 2378     		ldrb	r3, [r4]	@ zero_extendqisi2
 252 009c 03F0F003 		and	r3, r3, #240
 253 00a0 102B     		cmp	r3, #16
 254 00a2 0ED0     		beq	.L33
 574:Middlewares/Third_Party/LwIP/src/api/api_lib.c ****     len = netbuf_len((struct netbuf*)buf);
 255              		.loc 1 574 0
 256 00a4 059B     		ldr	r3, [sp, #20]
 257 00a6 002B     		cmp	r3, #0
 258 00a8 31D0     		beq	.L34
 259              	.L24:
 575:Middlewares/Third_Party/LwIP/src/api/api_lib.c ****   }
 260              		.loc 1 575 0
 261 00aa 059B     		ldr	r3, [sp, #20]
 262 00ac 1B68     		ldr	r3, [r3]
 263 00ae 1A89     		ldrh	r2, [r3, #8]
 264              	.LVL29:
 265              	.L23:
 583:Middlewares/Third_Party/LwIP/src/api/api_lib.c **** 
 266              		.loc 1 583 0
 267 00b0 A36A     		ldr	r3, [r4, #40]
 268 00b2 13B1     		cbz	r3, .L25
 583:Middlewares/Third_Party/LwIP/src/api/api_lib.c **** 
 269              		.loc 1 583 0 is_stmt 0 discriminator 1
 270 00b4 0121     		movs	r1, #1
 271 00b6 2046     		mov	r0, r4
 272 00b8 9847     		blx	r3
 273              	.LVL30:
 274              	.L25:
 587:Middlewares/Third_Party/LwIP/src/api/api_lib.c ****   /* don't set conn->last_err: it's only ERR_OK, anyway */
 275              		.loc 1 587 0 is_stmt 1
 276 00ba 059B     		ldr	r3, [sp, #20]
 277 00bc 2B60     		str	r3, [r5]
 589:Middlewares/Third_Party/LwIP/src/api/api_lib.c **** }
 278              		.loc 1 589 0
 279 00be 0020     		movs	r0, #0
 280 00c0 B8E7     		b	.L13
 281              	.L33:
 543:Middlewares/Third_Party/LwIP/src/api/api_lib.c ****     if (buf != NULL) {
 282              		.loc 1 543 0
 283 00c2 0094     		str	r4, [sp]
 544:Middlewares/Third_Party/LwIP/src/api/api_lib.c ****       API_MSG_VAR_REF(msg).msg.r.len = ((struct pbuf *)buf)->tot_len;
 284              		.loc 1 544 0
 285 00c4 059B     		ldr	r3, [sp, #20]
 286 00c6 4BB1     		cbz	r3, .L18
 545:Middlewares/Third_Party/LwIP/src/api/api_lib.c ****     } else {
 287              		.loc 1 545 0
 288 00c8 1B89     		ldrh	r3, [r3, #8]
 289 00ca 0293     		str	r3, [sp, #8]
 290              	.L19:
 551:Middlewares/Third_Party/LwIP/src/api/api_lib.c ****     API_MSG_VAR_FREE(msg);
ARM GAS  C:\Users\milek\AppData\Local\Temp\cc6GzPmq.s 			page 21


 291              		.loc 1 551 0
 292 00cc 6946     		mov	r1, sp
 293 00ce 1A48     		ldr	r0, .L36+20
 294 00d0 FFF7FEFF 		bl	netconn_apimsg
 295              	.LVL31:
 555:Middlewares/Third_Party/LwIP/src/api/api_lib.c ****       API_EVENT(conn, NETCONN_EVT_RCVMINUS, 0);
 296              		.loc 1 555 0
 297 00d4 059B     		ldr	r3, [sp, #20]
 298 00d6 23B1     		cbz	r3, .L35
 566:Middlewares/Third_Party/LwIP/src/api/api_lib.c ****   }
 299              		.loc 1 566 0
 300 00d8 1A89     		ldrh	r2, [r3, #8]
 301              	.LVL32:
 302 00da E9E7     		b	.L23
 303              	.LVL33:
 304              	.L18:
 547:Middlewares/Third_Party/LwIP/src/api/api_lib.c ****     }
 305              		.loc 1 547 0
 306 00dc 0123     		movs	r3, #1
 307 00de 0293     		str	r3, [sp, #8]
 308 00e0 F4E7     		b	.L19
 309              	.L35:
 556:Middlewares/Third_Party/LwIP/src/api/api_lib.c ****       if (conn->pcb.ip == NULL) {
 310              		.loc 1 556 0
 311 00e2 A36A     		ldr	r3, [r4, #40]
 312 00e4 1BB1     		cbz	r3, .L21
 556:Middlewares/Third_Party/LwIP/src/api/api_lib.c ****       if (conn->pcb.ip == NULL) {
 313              		.loc 1 556 0 is_stmt 0 discriminator 1
 314 00e6 0022     		movs	r2, #0
 315 00e8 0121     		movs	r1, #1
 316 00ea 2046     		mov	r0, r4
 317 00ec 9847     		blx	r3
 318              	.LVL34:
 319              	.L21:
 557:Middlewares/Third_Party/LwIP/src/api/api_lib.c ****         /* race condition: RST during recv */
 320              		.loc 1 557 0 is_stmt 1
 321 00ee 6368     		ldr	r3, [r4, #4]
 322 00f0 33B9     		cbnz	r3, .L22
 559:Middlewares/Third_Party/LwIP/src/api/api_lib.c ****       }
 323              		.loc 1 559 0
 324 00f2 94F90800 		ldrsb	r0, [r4, #8]
 325 00f6 0028     		cmp	r0, #0
 326 00f8 9CD1     		bne	.L13
 327 00fa 6FF00D00 		mvn	r0, #13
 328 00fe 99E7     		b	.L13
 329              	.L22:
 562:Middlewares/Third_Party/LwIP/src/api/api_lib.c ****       /* Don' store ERR_CLSD as conn->err since we are only half-closed */
 330              		.loc 1 562 0
 331 0100 0121     		movs	r1, #1
 332 0102 2046     		mov	r0, r4
 333 0104 FFF7FEFF 		bl	netconn_close_shutdown
 334              	.LVL35:
 564:Middlewares/Third_Party/LwIP/src/api/api_lib.c ****     }
 335              		.loc 1 564 0
 336 0108 6FF00E00 		mvn	r0, #14
 337 010c 92E7     		b	.L13
 338              	.L34:
ARM GAS  C:\Users\milek\AppData\Local\Temp\cc6GzPmq.s 			page 22


 574:Middlewares/Third_Party/LwIP/src/api/api_lib.c ****     len = netbuf_len((struct netbuf*)buf);
 339              		.loc 1 574 0 discriminator 1
 340 010e 054B     		ldr	r3, .L36
 341 0110 40F23E22 		movw	r2, #574
 342 0114 0949     		ldr	r1, .L36+24
 343 0116 0548     		ldr	r0, .L36+8
 344 0118 FFF7FEFF 		bl	printf
 345              	.LVL36:
 346 011c C5E7     		b	.L24
 347              	.L26:
 497:Middlewares/Third_Party/LwIP/src/api/api_lib.c ****     }
 348              		.loc 1 497 0
 349 011e 6FF00E00 		mvn	r0, #14
 350 0122 87E7     		b	.L13
 351              	.L37:
 352              		.align	2
 353              	.L36:
 354 0124 00000000 		.word	.LC0
 355 0128 00000000 		.word	.LC3
 356 012c 4C000000 		.word	.LC2
 357 0130 20000000 		.word	.LC4
 358 0134 3C000000 		.word	.LC5
 359 0138 00000000 		.word	lwip_netconn_do_recv
 360 013c 5C000000 		.word	.LC6
 361              		.cfi_endproc
 362              	.LFE168:
 364              		.section	.text.netconn_new_with_proto_and_callback,"ax",%progbits
 365              		.align	1
 366              		.global	netconn_new_with_proto_and_callback
 367              		.syntax unified
 368              		.thumb
 369              		.thumb_func
 370              		.fpu fpv5-sp-d16
 372              	netconn_new_with_proto_and_callback:
 373              	.LFB160:
 124:Middlewares/Third_Party/LwIP/src/api/api_lib.c ****   struct netconn *conn;
 374              		.loc 1 124 0
 375              		.cfi_startproc
 376              		@ args = 0, pretend = 0, frame = 24
 377              		@ frame_needed = 0, uses_anonymous_args = 0
 378              	.LVL37:
 379 0000 70B5     		push	{r4, r5, r6, lr}
 380              	.LCFI9:
 381              		.cfi_def_cfa_offset 16
 382              		.cfi_offset 4, -16
 383              		.cfi_offset 5, -12
 384              		.cfi_offset 6, -8
 385              		.cfi_offset 14, -4
 386 0002 86B0     		sub	sp, sp, #24
 387              	.LCFI10:
 388              		.cfi_def_cfa_offset 40
 389 0004 0D46     		mov	r5, r1
 129:Middlewares/Third_Party/LwIP/src/api/api_lib.c ****   if (conn != NULL) {
 390              		.loc 1 129 0
 391 0006 1146     		mov	r1, r2
 392              	.LVL38:
 393 0008 FFF7FEFF 		bl	netconn_alloc
ARM GAS  C:\Users\milek\AppData\Local\Temp\cc6GzPmq.s 			page 23


 394              	.LVL39:
 130:Middlewares/Third_Party/LwIP/src/api/api_lib.c ****     err_t err;
 395              		.loc 1 130 0
 396 000c 0446     		mov	r4, r0
 397 000e 40B1     		cbz	r0, .L38
 398              	.LBB2:
 133:Middlewares/Third_Party/LwIP/src/api/api_lib.c ****     API_MSG_VAR_REF(msg).conn = conn;
 399              		.loc 1 133 0
 400 0010 8DF80C50 		strb	r5, [sp, #12]
 134:Middlewares/Third_Party/LwIP/src/api/api_lib.c ****     err = netconn_apimsg(lwip_netconn_do_newconn, &API_MSG_VAR_REF(msg));
 401              		.loc 1 134 0
 402 0014 06A9     		add	r1, sp, #24
 403 0016 41F8140D 		str	r0, [r1, #-20]!
 135:Middlewares/Third_Party/LwIP/src/api/api_lib.c ****     if (err != ERR_OK) {
 404              		.loc 1 135 0
 405 001a 2048     		ldr	r0, .L49
 406              	.LVL40:
 407 001c FFF7FEFF 		bl	netconn_apimsg
 408              	.LVL41:
 136:Middlewares/Third_Party/LwIP/src/api/api_lib.c ****       LWIP_ASSERT("freeing conn without freeing pcb", conn->pcb.tcp == NULL);
 409              		.loc 1 136 0
 410 0020 10B9     		cbnz	r0, .L45
 411              	.LVL42:
 412              	.L38:
 413              	.LBE2:
 154:Middlewares/Third_Party/LwIP/src/api/api_lib.c **** 
 414              		.loc 1 154 0
 415 0022 2046     		mov	r0, r4
 416 0024 06B0     		add	sp, sp, #24
 417              	.LCFI11:
 418              		.cfi_remember_state
 419              		.cfi_def_cfa_offset 16
 420              		@ sp needed
 421 0026 70BD     		pop	{r4, r5, r6, pc}
 422              	.LVL43:
 423              	.L45:
 424              	.LCFI12:
 425              		.cfi_restore_state
 426              	.LBB3:
 137:Middlewares/Third_Party/LwIP/src/api/api_lib.c ****       LWIP_ASSERT("conn has no recvmbox", sys_mbox_valid(&conn->recvmbox));
 427              		.loc 1 137 0
 428 0028 6368     		ldr	r3, [r4, #4]
 429 002a 2BB1     		cbz	r3, .L40
 137:Middlewares/Third_Party/LwIP/src/api/api_lib.c ****       LWIP_ASSERT("conn has no recvmbox", sys_mbox_valid(&conn->recvmbox));
 430              		.loc 1 137 0 is_stmt 0 discriminator 1
 431 002c 1C4B     		ldr	r3, .L49+4
 432 002e 8922     		movs	r2, #137
 433 0030 1C49     		ldr	r1, .L49+8
 434 0032 1D48     		ldr	r0, .L49+12
 435              	.LVL44:
 436 0034 FFF7FEFF 		bl	printf
 437              	.LVL45:
 438              	.L40:
 138:Middlewares/Third_Party/LwIP/src/api/api_lib.c **** #if LWIP_TCP
 439              		.loc 1 138 0 is_stmt 1
 440 0038 04F11005 		add	r5, r4, #16
 441 003c 2846     		mov	r0, r5
ARM GAS  C:\Users\milek\AppData\Local\Temp\cc6GzPmq.s 			page 24


 442 003e FFF7FEFF 		bl	sys_mbox_valid
 443              	.LVL46:
 444 0042 B0B1     		cbz	r0, .L46
 445              	.L41:
 140:Middlewares/Third_Party/LwIP/src/api/api_lib.c **** #endif /* LWIP_TCP */
 446              		.loc 1 140 0
 447 0044 04F11400 		add	r0, r4, #20
 448 0048 FFF7FEFF 		bl	sys_mbox_valid
 449              	.LVL47:
 450 004c C0B9     		cbnz	r0, .L47
 451              	.L42:
 143:Middlewares/Third_Party/LwIP/src/api/api_lib.c ****       sys_sem_free(&conn->op_completed);
 452              		.loc 1 143 0
 453 004e 04F10C06 		add	r6, r4, #12
 454 0052 3046     		mov	r0, r6
 455 0054 FFF7FEFF 		bl	sys_sem_valid
 456              	.LVL48:
 457 0058 C8B1     		cbz	r0, .L48
 458              	.L43:
 144:Middlewares/Third_Party/LwIP/src/api/api_lib.c **** #endif /* !LWIP_NETCONN_SEM_PER_THREAD */
 459              		.loc 1 144 0
 460 005a 3046     		mov	r0, r6
 461 005c FFF7FEFF 		bl	sys_sem_free
 462              	.LVL49:
 146:Middlewares/Third_Party/LwIP/src/api/api_lib.c ****       memp_free(MEMP_NETCONN, conn);
 463              		.loc 1 146 0
 464 0060 2846     		mov	r0, r5
 465 0062 FFF7FEFF 		bl	sys_mbox_free
 466              	.LVL50:
 147:Middlewares/Third_Party/LwIP/src/api/api_lib.c ****       API_MSG_VAR_FREE(msg);
 467              		.loc 1 147 0
 468 0066 2146     		mov	r1, r4
 469 0068 0720     		movs	r0, #7
 470 006a FFF7FEFF 		bl	memp_free
 471              	.LVL51:
 149:Middlewares/Third_Party/LwIP/src/api/api_lib.c ****     }
 472              		.loc 1 149 0
 473 006e 0024     		movs	r4, #0
 474              	.LVL52:
 475 0070 D7E7     		b	.L38
 476              	.LVL53:
 477              	.L46:
 138:Middlewares/Third_Party/LwIP/src/api/api_lib.c **** #if LWIP_TCP
 478              		.loc 1 138 0 discriminator 1
 479 0072 0B4B     		ldr	r3, .L49+4
 480 0074 8A22     		movs	r2, #138
 481 0076 0D49     		ldr	r1, .L49+16
 482 0078 0B48     		ldr	r0, .L49+12
 483 007a FFF7FEFF 		bl	printf
 484              	.LVL54:
 485 007e E1E7     		b	.L41
 486              	.L47:
 140:Middlewares/Third_Party/LwIP/src/api/api_lib.c **** #endif /* LWIP_TCP */
 487              		.loc 1 140 0 discriminator 1
 488 0080 074B     		ldr	r3, .L49+4
 489 0082 8C22     		movs	r2, #140
 490 0084 0A49     		ldr	r1, .L49+20
ARM GAS  C:\Users\milek\AppData\Local\Temp\cc6GzPmq.s 			page 25


 491 0086 0848     		ldr	r0, .L49+12
 492 0088 FFF7FEFF 		bl	printf
 493              	.LVL55:
 494 008c DFE7     		b	.L42
 495              	.L48:
 143:Middlewares/Third_Party/LwIP/src/api/api_lib.c ****       sys_sem_free(&conn->op_completed);
 496              		.loc 1 143 0 discriminator 1
 497 008e 044B     		ldr	r3, .L49+4
 498 0090 8F22     		movs	r2, #143
 499 0092 0849     		ldr	r1, .L49+24
 500 0094 0448     		ldr	r0, .L49+12
 501 0096 FFF7FEFF 		bl	printf
 502              	.LVL56:
 503 009a DEE7     		b	.L43
 504              	.L50:
 505              		.align	2
 506              	.L49:
 507 009c 00000000 		.word	lwip_netconn_do_newconn
 508 00a0 00000000 		.word	.LC0
 509 00a4 00000000 		.word	.LC7
 510 00a8 4C000000 		.word	.LC2
 511 00ac 24000000 		.word	.LC8
 512 00b0 3C000000 		.word	.LC9
 513 00b4 60000000 		.word	.LC10
 514              	.LBE3:
 515              		.cfi_endproc
 516              	.LFE160:
 518              		.section	.text.netconn_delete,"ax",%progbits
 519              		.align	1
 520              		.global	netconn_delete
 521              		.syntax unified
 522              		.thumb
 523              		.thumb_func
 524              		.fpu fpv5-sp-d16
 526              	netconn_delete:
 527              	.LFB161:
 167:Middlewares/Third_Party/LwIP/src/api/api_lib.c ****   err_t err;
 528              		.loc 1 167 0
 529              		.cfi_startproc
 530              		@ args = 0, pretend = 0, frame = 24
 531              		@ frame_needed = 0, uses_anonymous_args = 0
 532              	.LVL57:
 533 0000 30B5     		push	{r4, r5, lr}
 534              	.LCFI13:
 535              		.cfi_def_cfa_offset 12
 536              		.cfi_offset 4, -12
 537              		.cfi_offset 5, -8
 538              		.cfi_offset 14, -4
 539 0002 87B0     		sub	sp, sp, #28
 540              	.LCFI14:
 541              		.cfi_def_cfa_offset 40
 172:Middlewares/Third_Party/LwIP/src/api/api_lib.c ****     return ERR_OK;
 542              		.loc 1 172 0
 543 0004 70B1     		cbz	r0, .L53
 544 0006 0446     		mov	r4, r0
 177:Middlewares/Third_Party/LwIP/src/api/api_lib.c **** #if LWIP_SO_SNDTIMEO || LWIP_SO_LINGER
 545              		.loc 1 177 0
ARM GAS  C:\Users\milek\AppData\Local\Temp\cc6GzPmq.s 			page 26


 546 0008 0190     		str	r0, [sp, #4]
 184:Middlewares/Third_Party/LwIP/src/api/api_lib.c ****     ((LWIP_TCP_CLOSE_TIMEOUT_MS_DEFAULT + TCP_SLOW_INTERVAL - 1) / TCP_SLOW_INTERVAL) + 1;
 547              		.loc 1 184 0
 548 000a 2923     		movs	r3, #41
 549 000c 8DF80D30 		strb	r3, [sp, #13]
 188:Middlewares/Third_Party/LwIP/src/api/api_lib.c ****   API_MSG_VAR_FREE(msg);
 550              		.loc 1 188 0
 551 0010 01A9     		add	r1, sp, #4
 552 0012 0648     		ldr	r0, .L55
 553              	.LVL58:
 554 0014 FFF7FEFF 		bl	netconn_apimsg
 555              	.LVL59:
 191:Middlewares/Third_Party/LwIP/src/api/api_lib.c ****     return err;
 556              		.loc 1 191 0
 557 0018 0546     		mov	r5, r0
 558 001a 20B9     		cbnz	r0, .L52
 195:Middlewares/Third_Party/LwIP/src/api/api_lib.c **** 
 559              		.loc 1 195 0
 560 001c 2046     		mov	r0, r4
 561              	.LVL60:
 562 001e FFF7FEFF 		bl	netconn_free
 563              	.LVL61:
 197:Middlewares/Third_Party/LwIP/src/api/api_lib.c **** }
 564              		.loc 1 197 0
 565 0022 00E0     		b	.L52
 566              	.LVL62:
 567              	.L53:
 173:Middlewares/Third_Party/LwIP/src/api/api_lib.c ****   }
 568              		.loc 1 173 0
 569 0024 0025     		movs	r5, #0
 570              	.LVL63:
 571              	.L52:
 198:Middlewares/Third_Party/LwIP/src/api/api_lib.c **** 
 572              		.loc 1 198 0
 573 0026 2846     		mov	r0, r5
 574 0028 07B0     		add	sp, sp, #28
 575              	.LCFI15:
 576              		.cfi_def_cfa_offset 12
 577              		@ sp needed
 578 002a 30BD     		pop	{r4, r5, pc}
 579              	.L56:
 580              		.align	2
 581              	.L55:
 582 002c 00000000 		.word	lwip_netconn_do_delconn
 583              		.cfi_endproc
 584              	.LFE161:
 586              		.section	.text.netconn_getaddr,"ax",%progbits
 587              		.align	1
 588              		.global	netconn_getaddr
 589              		.syntax unified
 590              		.thumb
 591              		.thumb_func
 592              		.fpu fpv5-sp-d16
 594              	netconn_getaddr:
 595              	.LFB162:
 213:Middlewares/Third_Party/LwIP/src/api/api_lib.c ****   API_MSG_VAR_DECLARE(msg);
 596              		.loc 1 213 0
ARM GAS  C:\Users\milek\AppData\Local\Temp\cc6GzPmq.s 			page 27


 597              		.cfi_startproc
 598              		@ args = 0, pretend = 0, frame = 24
 599              		@ frame_needed = 0, uses_anonymous_args = 0
 600              	.LVL64:
 601 0000 10B5     		push	{r4, lr}
 602              	.LCFI16:
 603              		.cfi_def_cfa_offset 8
 604              		.cfi_offset 4, -8
 605              		.cfi_offset 14, -4
 606 0002 86B0     		sub	sp, sp, #24
 607              	.LCFI17:
 608              		.cfi_def_cfa_offset 32
 217:Middlewares/Third_Party/LwIP/src/api/api_lib.c ****   LWIP_ERROR("netconn_getaddr: invalid addr", (addr != NULL), return ERR_ARG;);
 609              		.loc 1 217 0
 610 0004 60B1     		cbz	r0, .L63
 218:Middlewares/Third_Party/LwIP/src/api/api_lib.c ****   LWIP_ERROR("netconn_getaddr: invalid port", (port != NULL), return ERR_ARG;);
 611              		.loc 1 218 0
 612 0006 A1B1     		cbz	r1, .L64
 219:Middlewares/Third_Party/LwIP/src/api/api_lib.c **** 
 613              		.loc 1 219 0
 614 0008 E2B1     		cbz	r2, .L65
 222:Middlewares/Third_Party/LwIP/src/api/api_lib.c ****   API_MSG_VAR_REF(msg).msg.ad.local = local;
 615              		.loc 1 222 0
 616 000a 0190     		str	r0, [sp, #4]
 223:Middlewares/Third_Party/LwIP/src/api/api_lib.c **** #if LWIP_MPU_COMPATIBLE
 617              		.loc 1 223 0
 618 000c 8DF81430 		strb	r3, [sp, #20]
 229:Middlewares/Third_Party/LwIP/src/api/api_lib.c ****   msg.msg.ad.port = port;
 619              		.loc 1 229 0
 620 0010 0391     		str	r1, [sp, #12]
 230:Middlewares/Third_Party/LwIP/src/api/api_lib.c ****   err = netconn_apimsg(lwip_netconn_do_getaddr, &msg);
 621              		.loc 1 230 0
 622 0012 0492     		str	r2, [sp, #16]
 231:Middlewares/Third_Party/LwIP/src/api/api_lib.c **** #endif /* LWIP_MPU_COMPATIBLE */
 623              		.loc 1 231 0
 624 0014 01A9     		add	r1, sp, #4
 625              	.LVL65:
 626 0016 1048     		ldr	r0, .L66
 627              	.LVL66:
 628 0018 FFF7FEFF 		bl	netconn_apimsg
 629              	.LVL67:
 630              	.L59:
 236:Middlewares/Third_Party/LwIP/src/api/api_lib.c **** 
 631              		.loc 1 236 0
 632 001c 06B0     		add	sp, sp, #24
 633              	.LCFI18:
 634              		.cfi_remember_state
 635              		.cfi_def_cfa_offset 8
 636              		@ sp needed
 637 001e 10BD     		pop	{r4, pc}
 638              	.LVL68:
 639              	.L63:
 640              	.LCFI19:
 641              		.cfi_restore_state
 217:Middlewares/Third_Party/LwIP/src/api/api_lib.c ****   LWIP_ERROR("netconn_getaddr: invalid addr", (addr != NULL), return ERR_ARG;);
 642              		.loc 1 217 0 discriminator 1
 643 0020 0E4B     		ldr	r3, .L66+4
ARM GAS  C:\Users\milek\AppData\Local\Temp\cc6GzPmq.s 			page 28


 644              	.LVL69:
 645 0022 D922     		movs	r2, #217
 646              	.LVL70:
 647 0024 0E49     		ldr	r1, .L66+8
 648              	.LVL71:
 649 0026 0F48     		ldr	r0, .L66+12
 650              	.LVL72:
 651 0028 FFF7FEFF 		bl	printf
 652              	.LVL73:
 653 002c 6FF00F00 		mvn	r0, #15
 654 0030 F4E7     		b	.L59
 655              	.LVL74:
 656              	.L64:
 218:Middlewares/Third_Party/LwIP/src/api/api_lib.c ****   LWIP_ERROR("netconn_getaddr: invalid port", (port != NULL), return ERR_ARG;);
 657              		.loc 1 218 0 discriminator 1
 658 0032 0A4B     		ldr	r3, .L66+4
 659              	.LVL75:
 660 0034 DA22     		movs	r2, #218
 661              	.LVL76:
 662 0036 0C49     		ldr	r1, .L66+16
 663              	.LVL77:
 664 0038 0A48     		ldr	r0, .L66+12
 665              	.LVL78:
 666 003a FFF7FEFF 		bl	printf
 667              	.LVL79:
 668 003e 6FF00F00 		mvn	r0, #15
 669 0042 EBE7     		b	.L59
 670              	.LVL80:
 671              	.L65:
 219:Middlewares/Third_Party/LwIP/src/api/api_lib.c **** 
 672              		.loc 1 219 0 discriminator 1
 673 0044 054B     		ldr	r3, .L66+4
 674              	.LVL81:
 675 0046 DB22     		movs	r2, #219
 676              	.LVL82:
 677 0048 0849     		ldr	r1, .L66+20
 678              	.LVL83:
 679 004a 0648     		ldr	r0, .L66+12
 680              	.LVL84:
 681 004c FFF7FEFF 		bl	printf
 682              	.LVL85:
 683 0050 6FF00F00 		mvn	r0, #15
 684 0054 E2E7     		b	.L59
 685              	.L67:
 686 0056 00BF     		.align	2
 687              	.L66:
 688 0058 00000000 		.word	lwip_netconn_do_getaddr
 689 005c 00000000 		.word	.LC0
 690 0060 00000000 		.word	.LC11
 691 0064 4C000000 		.word	.LC2
 692 0068 20000000 		.word	.LC12
 693 006c 40000000 		.word	.LC13
 694              		.cfi_endproc
 695              	.LFE162:
 697              		.section	.text.netconn_bind,"ax",%progbits
 698              		.align	1
 699              		.global	netconn_bind
ARM GAS  C:\Users\milek\AppData\Local\Temp\cc6GzPmq.s 			page 29


 700              		.syntax unified
 701              		.thumb
 702              		.thumb_func
 703              		.fpu fpv5-sp-d16
 705              	netconn_bind:
 706              	.LFB163:
 251:Middlewares/Third_Party/LwIP/src/api/api_lib.c ****   API_MSG_VAR_DECLARE(msg);
 707              		.loc 1 251 0
 708              		.cfi_startproc
 709              		@ args = 0, pretend = 0, frame = 24
 710              		@ frame_needed = 0, uses_anonymous_args = 0
 711              	.LVL86:
 712 0000 00B5     		push	{lr}
 713              	.LCFI20:
 714              		.cfi_def_cfa_offset 4
 715              		.cfi_offset 14, -4
 716 0002 87B0     		sub	sp, sp, #28
 717              	.LCFI21:
 718              		.cfi_def_cfa_offset 32
 255:Middlewares/Third_Party/LwIP/src/api/api_lib.c **** 
 719              		.loc 1 255 0
 720 0004 60B1     		cbz	r0, .L74
 721 0006 0346     		mov	r3, r0
 259:Middlewares/Third_Party/LwIP/src/api/api_lib.c ****     addr = IP4_ADDR_ANY;
 722              		.loc 1 259 0
 723 0008 99B1     		cbz	r1, .L75
 724              	.LVL87:
 725              	.L71:
 275:Middlewares/Third_Party/LwIP/src/api/api_lib.c ****   API_MSG_VAR_REF(msg).msg.bc.ipaddr = API_MSG_VAR_REF(addr);
 726              		.loc 1 275 0
 727 000a 0193     		str	r3, [sp, #4]
 276:Middlewares/Third_Party/LwIP/src/api/api_lib.c ****   API_MSG_VAR_REF(msg).msg.bc.port = port;
 728              		.loc 1 276 0
 729 000c 0391     		str	r1, [sp, #12]
 277:Middlewares/Third_Party/LwIP/src/api/api_lib.c ****   err = netconn_apimsg(lwip_netconn_do_bind, &API_MSG_VAR_REF(msg));
 730              		.loc 1 277 0
 731 000e ADF81020 		strh	r2, [sp, #16]	@ movhi
 278:Middlewares/Third_Party/LwIP/src/api/api_lib.c ****   API_MSG_VAR_FREE(msg);
 732              		.loc 1 278 0
 733 0012 01A9     		add	r1, sp, #4
 734              	.LVL88:
 735 0014 0848     		ldr	r0, .L76
 736              	.LVL89:
 737 0016 FFF7FEFF 		bl	netconn_apimsg
 738              	.LVL90:
 739              	.L70:
 282:Middlewares/Third_Party/LwIP/src/api/api_lib.c **** 
 740              		.loc 1 282 0
 741 001a 07B0     		add	sp, sp, #28
 742              	.LCFI22:
 743              		.cfi_remember_state
 744              		.cfi_def_cfa_offset 4
 745              		@ sp needed
 746 001c 5DF804FB 		ldr	pc, [sp], #4
 747              	.LVL91:
 748              	.L74:
 749              	.LCFI23:
ARM GAS  C:\Users\milek\AppData\Local\Temp\cc6GzPmq.s 			page 30


 750              		.cfi_restore_state
 255:Middlewares/Third_Party/LwIP/src/api/api_lib.c **** 
 751              		.loc 1 255 0 discriminator 1
 752 0020 064B     		ldr	r3, .L76+4
 753 0022 FF22     		movs	r2, #255
 754              	.LVL92:
 755 0024 0649     		ldr	r1, .L76+8
 756              	.LVL93:
 757 0026 0748     		ldr	r0, .L76+12
 758              	.LVL94:
 759 0028 FFF7FEFF 		bl	printf
 760              	.LVL95:
 761 002c 6FF00F00 		mvn	r0, #15
 762 0030 F3E7     		b	.L70
 763              	.LVL96:
 764              	.L75:
 260:Middlewares/Third_Party/LwIP/src/api/api_lib.c ****   }
 765              		.loc 1 260 0
 766 0032 0549     		ldr	r1, .L76+16
 767              	.LVL97:
 768 0034 E9E7     		b	.L71
 769              	.L77:
 770 0036 00BF     		.align	2
 771              	.L76:
 772 0038 00000000 		.word	lwip_netconn_do_bind
 773 003c 00000000 		.word	.LC0
 774 0040 00000000 		.word	.LC14
 775 0044 4C000000 		.word	.LC2
 776 0048 00000000 		.word	ip_addr_any
 777              		.cfi_endproc
 778              	.LFE163:
 780              		.section	.text.netconn_connect,"ax",%progbits
 781              		.align	1
 782              		.global	netconn_connect
 783              		.syntax unified
 784              		.thumb
 785              		.thumb_func
 786              		.fpu fpv5-sp-d16
 788              	netconn_connect:
 789              	.LFB164:
 295:Middlewares/Third_Party/LwIP/src/api/api_lib.c ****   API_MSG_VAR_DECLARE(msg);
 790              		.loc 1 295 0
 791              		.cfi_startproc
 792              		@ args = 0, pretend = 0, frame = 24
 793              		@ frame_needed = 0, uses_anonymous_args = 0
 794              	.LVL98:
 795 0000 00B5     		push	{lr}
 796              	.LCFI24:
 797              		.cfi_def_cfa_offset 4
 798              		.cfi_offset 14, -4
 799 0002 87B0     		sub	sp, sp, #28
 800              	.LCFI25:
 801              		.cfi_def_cfa_offset 32
 299:Middlewares/Third_Party/LwIP/src/api/api_lib.c **** 
 802              		.loc 1 299 0
 803 0004 60B1     		cbz	r0, .L84
 804 0006 0346     		mov	r3, r0
ARM GAS  C:\Users\milek\AppData\Local\Temp\cc6GzPmq.s 			page 31


 303:Middlewares/Third_Party/LwIP/src/api/api_lib.c ****     addr = IP4_ADDR_ANY;
 805              		.loc 1 303 0
 806 0008 A1B1     		cbz	r1, .L85
 807              	.LVL99:
 808              	.L81:
 309:Middlewares/Third_Party/LwIP/src/api/api_lib.c ****   API_MSG_VAR_REF(msg).msg.bc.ipaddr = API_MSG_VAR_REF(addr);
 809              		.loc 1 309 0
 810 000a 0193     		str	r3, [sp, #4]
 310:Middlewares/Third_Party/LwIP/src/api/api_lib.c ****   API_MSG_VAR_REF(msg).msg.bc.port = port;
 811              		.loc 1 310 0
 812 000c 0391     		str	r1, [sp, #12]
 311:Middlewares/Third_Party/LwIP/src/api/api_lib.c ****   err = netconn_apimsg(lwip_netconn_do_connect, &API_MSG_VAR_REF(msg));
 813              		.loc 1 311 0
 814 000e ADF81020 		strh	r2, [sp, #16]	@ movhi
 312:Middlewares/Third_Party/LwIP/src/api/api_lib.c ****   API_MSG_VAR_FREE(msg);
 815              		.loc 1 312 0
 816 0012 01A9     		add	r1, sp, #4
 817              	.LVL100:
 818 0014 0848     		ldr	r0, .L86
 819              	.LVL101:
 820 0016 FFF7FEFF 		bl	netconn_apimsg
 821              	.LVL102:
 822              	.L80:
 316:Middlewares/Third_Party/LwIP/src/api/api_lib.c **** 
 823              		.loc 1 316 0
 824 001a 07B0     		add	sp, sp, #28
 825              	.LCFI26:
 826              		.cfi_remember_state
 827              		.cfi_def_cfa_offset 4
 828              		@ sp needed
 829 001c 5DF804FB 		ldr	pc, [sp], #4
 830              	.LVL103:
 831              	.L84:
 832              	.LCFI27:
 833              		.cfi_restore_state
 299:Middlewares/Third_Party/LwIP/src/api/api_lib.c **** 
 834              		.loc 1 299 0 discriminator 1
 835 0020 064B     		ldr	r3, .L86+4
 836 0022 40F22B12 		movw	r2, #299
 837              	.LVL104:
 838 0026 0649     		ldr	r1, .L86+8
 839              	.LVL105:
 840 0028 0648     		ldr	r0, .L86+12
 841              	.LVL106:
 842 002a FFF7FEFF 		bl	printf
 843              	.LVL107:
 844 002e 6FF00F00 		mvn	r0, #15
 845 0032 F2E7     		b	.L80
 846              	.LVL108:
 847              	.L85:
 304:Middlewares/Third_Party/LwIP/src/api/api_lib.c ****   }
 848              		.loc 1 304 0
 849 0034 0449     		ldr	r1, .L86+16
 850              	.LVL109:
 851 0036 E8E7     		b	.L81
 852              	.L87:
 853              		.align	2
ARM GAS  C:\Users\milek\AppData\Local\Temp\cc6GzPmq.s 			page 32


 854              	.L86:
 855 0038 00000000 		.word	lwip_netconn_do_connect
 856 003c 00000000 		.word	.LC0
 857 0040 00000000 		.word	.LC15
 858 0044 4C000000 		.word	.LC2
 859 0048 00000000 		.word	ip_addr_any
 860              		.cfi_endproc
 861              	.LFE164:
 863              		.section	.text.netconn_disconnect,"ax",%progbits
 864              		.align	1
 865              		.global	netconn_disconnect
 866              		.syntax unified
 867              		.thumb
 868              		.thumb_func
 869              		.fpu fpv5-sp-d16
 871              	netconn_disconnect:
 872              	.LFB165:
 327:Middlewares/Third_Party/LwIP/src/api/api_lib.c ****   API_MSG_VAR_DECLARE(msg);
 873              		.loc 1 327 0
 874              		.cfi_startproc
 875              		@ args = 0, pretend = 0, frame = 24
 876              		@ frame_needed = 0, uses_anonymous_args = 0
 877              	.LVL110:
 878 0000 00B5     		push	{lr}
 879              	.LCFI28:
 880              		.cfi_def_cfa_offset 4
 881              		.cfi_offset 14, -4
 882 0002 87B0     		sub	sp, sp, #28
 883              	.LCFI29:
 884              		.cfi_def_cfa_offset 32
 331:Middlewares/Third_Party/LwIP/src/api/api_lib.c **** 
 885              		.loc 1 331 0
 886 0004 40B1     		cbz	r0, .L92
 334:Middlewares/Third_Party/LwIP/src/api/api_lib.c ****   err = netconn_apimsg(lwip_netconn_do_disconnect, &API_MSG_VAR_REF(msg));
 887              		.loc 1 334 0
 888 0006 06A9     		add	r1, sp, #24
 889 0008 41F8140D 		str	r0, [r1, #-20]!
 335:Middlewares/Third_Party/LwIP/src/api/api_lib.c ****   API_MSG_VAR_FREE(msg);
 890              		.loc 1 335 0
 891 000c 0748     		ldr	r0, .L93
 892              	.LVL111:
 893 000e FFF7FEFF 		bl	netconn_apimsg
 894              	.LVL112:
 895              	.L90:
 339:Middlewares/Third_Party/LwIP/src/api/api_lib.c **** 
 896              		.loc 1 339 0
 897 0012 07B0     		add	sp, sp, #28
 898              	.LCFI30:
 899              		.cfi_remember_state
 900              		.cfi_def_cfa_offset 4
 901              		@ sp needed
 902 0014 5DF804FB 		ldr	pc, [sp], #4
 903              	.LVL113:
 904              	.L92:
 905              	.LCFI31:
 906              		.cfi_restore_state
 331:Middlewares/Third_Party/LwIP/src/api/api_lib.c **** 
ARM GAS  C:\Users\milek\AppData\Local\Temp\cc6GzPmq.s 			page 33


 907              		.loc 1 331 0 discriminator 1
 908 0018 054B     		ldr	r3, .L93+4
 909 001a 40F24B12 		movw	r2, #331
 910 001e 0549     		ldr	r1, .L93+8
 911 0020 0548     		ldr	r0, .L93+12
 912              	.LVL114:
 913 0022 FFF7FEFF 		bl	printf
 914              	.LVL115:
 915 0026 6FF00F00 		mvn	r0, #15
 916 002a F2E7     		b	.L90
 917              	.L94:
 918              		.align	2
 919              	.L93:
 920 002c 00000000 		.word	lwip_netconn_do_disconnect
 921 0030 00000000 		.word	.LC0
 922 0034 00000000 		.word	.LC16
 923 0038 4C000000 		.word	.LC2
 924              		.cfi_endproc
 925              	.LFE165:
 927              		.section	.text.netconn_listen_with_backlog,"ax",%progbits
 928              		.align	1
 929              		.global	netconn_listen_with_backlog
 930              		.syntax unified
 931              		.thumb
 932              		.thumb_func
 933              		.fpu fpv5-sp-d16
 935              	netconn_listen_with_backlog:
 936              	.LFB166:
 352:Middlewares/Third_Party/LwIP/src/api/api_lib.c **** #if LWIP_TCP
 937              		.loc 1 352 0
 938              		.cfi_startproc
 939              		@ args = 0, pretend = 0, frame = 24
 940              		@ frame_needed = 0, uses_anonymous_args = 0
 941              	.LVL116:
 942 0000 00B5     		push	{lr}
 943              	.LCFI32:
 944              		.cfi_def_cfa_offset 4
 945              		.cfi_offset 14, -4
 946 0002 87B0     		sub	sp, sp, #28
 947              	.LCFI33:
 948              		.cfi_def_cfa_offset 32
 360:Middlewares/Third_Party/LwIP/src/api/api_lib.c **** 
 949              		.loc 1 360 0
 950 0004 40B1     		cbz	r0, .L99
 363:Middlewares/Third_Party/LwIP/src/api/api_lib.c **** #if TCP_LISTEN_BACKLOG
 951              		.loc 1 363 0
 952 0006 06A9     		add	r1, sp, #24
 953              	.LVL117:
 954 0008 41F8140D 		str	r0, [r1, #-20]!
 367:Middlewares/Third_Party/LwIP/src/api/api_lib.c ****   API_MSG_VAR_FREE(msg);
 955              		.loc 1 367 0
 956 000c 0748     		ldr	r0, .L100
 957              	.LVL118:
 958 000e FFF7FEFF 		bl	netconn_apimsg
 959              	.LVL119:
 960              	.L97:
 376:Middlewares/Third_Party/LwIP/src/api/api_lib.c **** 
ARM GAS  C:\Users\milek\AppData\Local\Temp\cc6GzPmq.s 			page 34


 961              		.loc 1 376 0
 962 0012 07B0     		add	sp, sp, #28
 963              	.LCFI34:
 964              		.cfi_remember_state
 965              		.cfi_def_cfa_offset 4
 966              		@ sp needed
 967 0014 5DF804FB 		ldr	pc, [sp], #4
 968              	.LVL120:
 969              	.L99:
 970              	.LCFI35:
 971              		.cfi_restore_state
 360:Middlewares/Third_Party/LwIP/src/api/api_lib.c **** 
 972              		.loc 1 360 0 discriminator 1
 973 0018 054B     		ldr	r3, .L100+4
 974 001a 4FF4B472 		mov	r2, #360
 975 001e 0549     		ldr	r1, .L100+8
 976              	.LVL121:
 977 0020 0548     		ldr	r0, .L100+12
 978              	.LVL122:
 979 0022 FFF7FEFF 		bl	printf
 980              	.LVL123:
 981 0026 6FF00F00 		mvn	r0, #15
 982 002a F2E7     		b	.L97
 983              	.L101:
 984              		.align	2
 985              	.L100:
 986 002c 00000000 		.word	lwip_netconn_do_listen
 987 0030 00000000 		.word	.LC0
 988 0034 00000000 		.word	.LC17
 989 0038 4C000000 		.word	.LC2
 990              		.cfi_endproc
 991              	.LFE166:
 993              		.section	.text.netconn_accept,"ax",%progbits
 994              		.align	1
 995              		.global	netconn_accept
 996              		.syntax unified
 997              		.thumb
 998              		.thumb_func
 999              		.fpu fpv5-sp-d16
 1001              	netconn_accept:
 1002              	.LFB167:
 389:Middlewares/Third_Party/LwIP/src/api/api_lib.c **** #if LWIP_TCP
 1003              		.loc 1 389 0
 1004              		.cfi_startproc
 1005              		@ args = 0, pretend = 0, frame = 8
 1006              		@ frame_needed = 0, uses_anonymous_args = 0
 1007              	.LVL124:
 1008 0000 70B5     		push	{r4, r5, r6, lr}
 1009              	.LCFI36:
 1010              		.cfi_def_cfa_offset 16
 1011              		.cfi_offset 4, -16
 1012              		.cfi_offset 5, -12
 1013              		.cfi_offset 6, -8
 1014              		.cfi_offset 14, -4
 1015 0002 82B0     		sub	sp, sp, #8
 1016              	.LCFI37:
 1017              		.cfi_def_cfa_offset 24
ARM GAS  C:\Users\milek\AppData\Local\Temp\cc6GzPmq.s 			page 35


 397:Middlewares/Third_Party/LwIP/src/api/api_lib.c ****   *new_conn = NULL;
 1018              		.loc 1 397 0
 1019 0004 59B1     		cbz	r1, .L112
 1020 0006 0446     		mov	r4, r0
 1021 0008 0D46     		mov	r5, r1
 398:Middlewares/Third_Party/LwIP/src/api/api_lib.c ****   LWIP_ERROR("netconn_accept: invalid conn",       (conn != NULL),                      return ERR_
 1022              		.loc 1 398 0
 1023 000a 0023     		movs	r3, #0
 1024 000c 0B60     		str	r3, [r1]
 399:Middlewares/Third_Party/LwIP/src/api/api_lib.c **** 
 1025              		.loc 1 399 0
 1026 000e 80B1     		cbz	r0, .L113
 401:Middlewares/Third_Party/LwIP/src/api/api_lib.c ****     /* don't recv on fatal errors: this might block the application task
 1027              		.loc 1 401 0
 1028 0010 90F90800 		ldrsb	r0, [r0, #8]
 1029              	.LVL125:
 1030 0014 10F10C0F 		cmn	r0, #12
 1031 0018 15DA     		bge	.L114
 1032              	.LVL126:
 1033              	.L104:
 463:Middlewares/Third_Party/LwIP/src/api/api_lib.c **** 
 1034              		.loc 1 463 0
 1035 001a 02B0     		add	sp, sp, #8
 1036              	.LCFI38:
 1037              		.cfi_remember_state
 1038              		.cfi_def_cfa_offset 16
 1039              		@ sp needed
 1040 001c 70BD     		pop	{r4, r5, r6, pc}
 1041              	.LVL127:
 1042              	.L112:
 1043              	.LCFI39:
 1044              		.cfi_restore_state
 397:Middlewares/Third_Party/LwIP/src/api/api_lib.c ****   *new_conn = NULL;
 1045              		.loc 1 397 0 discriminator 1
 1046 001e 214B     		ldr	r3, .L116
 1047 0020 40F28D12 		movw	r2, #397
 1048 0024 2049     		ldr	r1, .L116+4
 1049              	.LVL128:
 1050 0026 2148     		ldr	r0, .L116+8
 1051              	.LVL129:
 1052 0028 FFF7FEFF 		bl	printf
 1053              	.LVL130:
 1054 002c 6FF00F00 		mvn	r0, #15
 1055 0030 F3E7     		b	.L104
 1056              	.LVL131:
 1057              	.L113:
 399:Middlewares/Third_Party/LwIP/src/api/api_lib.c **** 
 1058              		.loc 1 399 0 discriminator 1
 1059 0032 1C4B     		ldr	r3, .L116
 1060 0034 40F28F12 		movw	r2, #399
 1061 0038 1D49     		ldr	r1, .L116+12
 1062              	.LVL132:
 1063 003a 1C48     		ldr	r0, .L116+8
 1064              	.LVL133:
 1065 003c FFF7FEFF 		bl	printf
 1066              	.LVL134:
 1067 0040 6FF00F00 		mvn	r0, #15
ARM GAS  C:\Users\milek\AppData\Local\Temp\cc6GzPmq.s 			page 36


 1068 0044 E9E7     		b	.L104
 1069              	.LVL135:
 1070              	.L114:
 406:Middlewares/Third_Party/LwIP/src/api/api_lib.c ****     return ERR_CLSD;
 1071              		.loc 1 406 0
 1072 0046 04F11406 		add	r6, r4, #20
 1073 004a 3046     		mov	r0, r6
 1074 004c FFF7FEFF 		bl	sys_mbox_valid
 1075              	.LVL136:
 1076 0050 08B3     		cbz	r0, .L109
 422:Middlewares/Third_Party/LwIP/src/api/api_lib.c **** #endif /* LWIP_SO_RCVTIMEO*/
 1077              		.loc 1 422 0
 1078 0052 0022     		movs	r2, #0
 1079 0054 01A9     		add	r1, sp, #4
 1080 0056 3046     		mov	r0, r6
 1081 0058 FFF7FEFF 		bl	sys_arch_mbox_fetch
 1082              	.LVL137:
 424:Middlewares/Third_Party/LwIP/src/api/api_lib.c ****   /* Register event with callback */
 1083              		.loc 1 424 0
 1084 005c 019E     		ldr	r6, [sp, #4]
 1085              	.LVL138:
 426:Middlewares/Third_Party/LwIP/src/api/api_lib.c **** 
 1086              		.loc 1 426 0
 1087 005e A36A     		ldr	r3, [r4, #40]
 1088 0060 1BB1     		cbz	r3, .L106
 426:Middlewares/Third_Party/LwIP/src/api/api_lib.c **** 
 1089              		.loc 1 426 0 is_stmt 0 discriminator 1
 1090 0062 0022     		movs	r2, #0
 1091 0064 0121     		movs	r1, #1
 1092 0066 2046     		mov	r0, r4
 1093 0068 9847     		blx	r3
 1094              	.LVL139:
 1095              	.L106:
 428:Middlewares/Third_Party/LwIP/src/api/api_lib.c ****     /* a connection has been aborted: out of pcbs or out of netconns during accept */
 1096              		.loc 1 428 0 is_stmt 1
 1097 006a 019A     		ldr	r2, [sp, #4]
 1098 006c 114B     		ldr	r3, .L116+16
 1099 006e 9A42     		cmp	r2, r3
 1100 0070 14D0     		beq	.L110
 436:Middlewares/Third_Party/LwIP/src/api/api_lib.c ****     /* connection has been aborted */
 1101              		.loc 1 436 0
 1102 0072 16B1     		cbz	r6, .L115
 455:Middlewares/Third_Party/LwIP/src/api/api_lib.c ****   /* don't set conn->last_err: it's only ERR_OK, anyway */
 1103              		.loc 1 455 0
 1104 0074 2E60     		str	r6, [r5]
 457:Middlewares/Third_Party/LwIP/src/api/api_lib.c **** #else /* LWIP_TCP */
 1105              		.loc 1 457 0
 1106 0076 0020     		movs	r0, #0
 1107 0078 CFE7     		b	.L104
 1108              	.L115:
 1109              	.LBB4:
 441:Middlewares/Third_Party/LwIP/src/api/api_lib.c **** #if TCP_LISTEN_BACKLOG
 1110              		.loc 1 441 0 discriminator 1
 1111 007a FFF7FEFF 		bl	sys_arch_protect
 1112              	.LVL140:
 1113 007e 94F90830 		ldrsb	r3, [r4, #8]
 1114 0082 13F10C0F 		cmn	r3, #12
ARM GAS  C:\Users\milek\AppData\Local\Temp\cc6GzPmq.s 			page 37


 1115 0086 01DB     		blt	.L108
 441:Middlewares/Third_Party/LwIP/src/api/api_lib.c **** #if TCP_LISTEN_BACKLOG
 1116              		.loc 1 441 0 is_stmt 0 discriminator 2
 1117 0088 F123     		movs	r3, #241
 1118 008a 2372     		strb	r3, [r4, #8]
 1119              	.L108:
 441:Middlewares/Third_Party/LwIP/src/api/api_lib.c **** #if TCP_LISTEN_BACKLOG
 1120              		.loc 1 441 0 discriminator 4
 1121 008c FFF7FEFF 		bl	sys_arch_unprotect
 1122              	.LVL141:
 1123              	.LBE4:
 445:Middlewares/Third_Party/LwIP/src/api/api_lib.c ****   }
 1124              		.loc 1 445 0 is_stmt 1 discriminator 4
 1125 0090 6FF00E00 		mvn	r0, #14
 1126 0094 C1E7     		b	.L104
 1127              	.LVL142:
 1128              	.L109:
 407:Middlewares/Third_Party/LwIP/src/api/api_lib.c ****   }
 1129              		.loc 1 407 0
 1130 0096 6FF00E00 		mvn	r0, #14
 1131 009a BEE7     		b	.L104
 1132              	.LVL143:
 1133              	.L110:
 434:Middlewares/Third_Party/LwIP/src/api/api_lib.c ****   }
 1134              		.loc 1 434 0
 1135 009c 6FF00C00 		mvn	r0, #12
 1136 00a0 BBE7     		b	.L104
 1137              	.L117:
 1138 00a2 00BF     		.align	2
 1139              	.L116:
 1140 00a4 00000000 		.word	.LC0
 1141 00a8 00000000 		.word	.LC18
 1142 00ac 4C000000 		.word	.LC2
 1143 00b0 20000000 		.word	.LC19
 1144 00b4 00000000 		.word	netconn_aborted
 1145              		.cfi_endproc
 1146              	.LFE167:
 1148              		.section	.text.netconn_recv_tcp_pbuf,"ax",%progbits
 1149              		.align	1
 1150              		.global	netconn_recv_tcp_pbuf
 1151              		.syntax unified
 1152              		.thumb
 1153              		.thumb_func
 1154              		.fpu fpv5-sp-d16
 1156              	netconn_recv_tcp_pbuf:
 1157              	.LFB169:
 604:Middlewares/Third_Party/LwIP/src/api/api_lib.c ****   LWIP_ERROR("netconn_recv: invalid conn", (conn != NULL) &&
 1158              		.loc 1 604 0
 1159              		.cfi_startproc
 1160              		@ args = 0, pretend = 0, frame = 0
 1161              		@ frame_needed = 0, uses_anonymous_args = 0
 1162              	.LVL144:
 1163 0000 08B5     		push	{r3, lr}
 1164              	.LCFI40:
 1165              		.cfi_def_cfa_offset 8
 1166              		.cfi_offset 3, -8
 1167              		.cfi_offset 14, -4
ARM GAS  C:\Users\milek\AppData\Local\Temp\cc6GzPmq.s 			page 38


 605:Middlewares/Third_Party/LwIP/src/api/api_lib.c ****              NETCONNTYPE_GROUP(netconn_type(conn)) == NETCONN_TCP, return ERR_ARG;);
 1168              		.loc 1 605 0
 1169 0002 38B1     		cbz	r0, .L119
 605:Middlewares/Third_Party/LwIP/src/api/api_lib.c ****              NETCONNTYPE_GROUP(netconn_type(conn)) == NETCONN_TCP, return ERR_ARG;);
 1170              		.loc 1 605 0 is_stmt 0 discriminator 2
 1171 0004 0378     		ldrb	r3, [r0]	@ zero_extendqisi2
 1172 0006 03F0F003 		and	r3, r3, #240
 1173 000a 102B     		cmp	r3, #16
 1174 000c 02D1     		bne	.L119
 608:Middlewares/Third_Party/LwIP/src/api/api_lib.c **** }
 1175              		.loc 1 608 0 is_stmt 1
 1176 000e FFF7FEFF 		bl	netconn_recv_data
 1177              	.LVL145:
 1178              	.L121:
 609:Middlewares/Third_Party/LwIP/src/api/api_lib.c **** 
 1179              		.loc 1 609 0
 1180 0012 08BD     		pop	{r3, pc}
 1181              	.LVL146:
 1182              	.L119:
 605:Middlewares/Third_Party/LwIP/src/api/api_lib.c ****              NETCONNTYPE_GROUP(netconn_type(conn)) == NETCONN_TCP, return ERR_ARG;);
 1183              		.loc 1 605 0 discriminator 3
 1184 0014 044B     		ldr	r3, .L123
 1185 0016 40F25E22 		movw	r2, #606
 1186 001a 0449     		ldr	r1, .L123+4
 1187              	.LVL147:
 1188 001c 0448     		ldr	r0, .L123+8
 1189              	.LVL148:
 1190 001e FFF7FEFF 		bl	printf
 1191              	.LVL149:
 1192 0022 6FF00F00 		mvn	r0, #15
 1193 0026 F4E7     		b	.L121
 1194              	.L124:
 1195              		.align	2
 1196              	.L123:
 1197 0028 00000000 		.word	.LC0
 1198 002c 20000000 		.word	.LC4
 1199 0030 4C000000 		.word	.LC2
 1200              		.cfi_endproc
 1201              	.LFE169:
 1203              		.section	.text.netconn_recv,"ax",%progbits
 1204              		.align	1
 1205              		.global	netconn_recv
 1206              		.syntax unified
 1207              		.thumb
 1208              		.thumb_func
 1209              		.fpu fpv5-sp-d16
 1211              	netconn_recv:
 1212              	.LFB170:
 622:Middlewares/Third_Party/LwIP/src/api/api_lib.c **** #if LWIP_TCP
 1213              		.loc 1 622 0
 1214              		.cfi_startproc
 1215              		@ args = 0, pretend = 0, frame = 8
 1216              		@ frame_needed = 0, uses_anonymous_args = 0
 1217              	.LVL150:
 1218 0000 70B5     		push	{r4, r5, r6, lr}
 1219              	.LCFI41:
 1220              		.cfi_def_cfa_offset 16
ARM GAS  C:\Users\milek\AppData\Local\Temp\cc6GzPmq.s 			page 39


 1221              		.cfi_offset 4, -16
 1222              		.cfi_offset 5, -12
 1223              		.cfi_offset 6, -8
 1224              		.cfi_offset 14, -4
 1225 0002 82B0     		sub	sp, sp, #8
 1226              	.LCFI42:
 1227              		.cfi_def_cfa_offset 24
 1228              	.LVL151:
 628:Middlewares/Third_Party/LwIP/src/api/api_lib.c ****   *new_buf = NULL;
 1229              		.loc 1 628 0
 1230 0004 79B1     		cbz	r1, .L135
 1231 0006 0446     		mov	r4, r0
 1232 0008 0D46     		mov	r5, r1
 629:Middlewares/Third_Party/LwIP/src/api/api_lib.c ****   LWIP_ERROR("netconn_recv: invalid conn",    (conn != NULL),    return ERR_ARG;);
 1233              		.loc 1 629 0
 1234 000a 0023     		movs	r3, #0
 1235 000c 0B60     		str	r3, [r1]
 630:Middlewares/Third_Party/LwIP/src/api/api_lib.c **** 
 1236              		.loc 1 630 0
 1237 000e A0B1     		cbz	r0, .L136
 634:Middlewares/Third_Party/LwIP/src/api/api_lib.c **** #endif /* (LWIP_UDP || LWIP_RAW) */
 1238              		.loc 1 634 0
 1239 0010 0378     		ldrb	r3, [r0]	@ zero_extendqisi2
 1240 0012 03F0F003 		and	r3, r3, #240
 1241 0016 102B     		cmp	r3, #16
 1242 0018 19D0     		beq	.L137
 666:Middlewares/Third_Party/LwIP/src/api/api_lib.c **** #endif /* (LWIP_UDP || LWIP_RAW) */
 1243              		.loc 1 666 0
 1244 001a FFF7FEFF 		bl	netconn_recv_data
 1245              	.LVL152:
 1246 001e 0446     		mov	r4, r0
 1247              	.LVL153:
 1248              	.L127:
 669:Middlewares/Third_Party/LwIP/src/api/api_lib.c **** 
 1249              		.loc 1 669 0 discriminator 1
 1250 0020 2046     		mov	r0, r4
 1251 0022 02B0     		add	sp, sp, #8
 1252              	.LCFI43:
 1253              		.cfi_remember_state
 1254              		.cfi_def_cfa_offset 16
 1255              		@ sp needed
 1256 0024 70BD     		pop	{r4, r5, r6, pc}
 1257              	.LVL154:
 1258              	.L135:
 1259              	.LCFI44:
 1260              		.cfi_restore_state
 628:Middlewares/Third_Party/LwIP/src/api/api_lib.c ****   *new_buf = NULL;
 1261              		.loc 1 628 0 discriminator 1
 1262 0026 1E4B     		ldr	r3, .L140
 1263 0028 4FF41D72 		mov	r2, #628
 1264 002c 1D49     		ldr	r1, .L140+4
 1265              	.LVL155:
 1266 002e 1E48     		ldr	r0, .L140+8
 1267              	.LVL156:
 1268 0030 FFF7FEFF 		bl	printf
 1269              	.LVL157:
 1270 0034 6FF00F04 		mvn	r4, #15
ARM GAS  C:\Users\milek\AppData\Local\Temp\cc6GzPmq.s 			page 40


 1271 0038 F2E7     		b	.L127
 1272              	.LVL158:
 1273              	.L136:
 630:Middlewares/Third_Party/LwIP/src/api/api_lib.c **** 
 1274              		.loc 1 630 0 discriminator 1
 1275 003a 194B     		ldr	r3, .L140
 1276 003c 40F27622 		movw	r2, #630
 1277 0040 1A49     		ldr	r1, .L140+12
 1278              	.LVL159:
 1279 0042 1948     		ldr	r0, .L140+8
 1280              	.LVL160:
 1281 0044 FFF7FEFF 		bl	printf
 1282              	.LVL161:
 1283 0048 6FF00F04 		mvn	r4, #15
 1284              	.LVL162:
 1285 004c E8E7     		b	.L127
 1286              	.LVL163:
 1287              	.L137:
 1288              	.LBB5:
 637:Middlewares/Third_Party/LwIP/src/api/api_lib.c ****     /* This is not a listening netconn, since recvmbox is set */
 1289              		.loc 1 637 0
 1290 004e 0023     		movs	r3, #0
 1291 0050 0193     		str	r3, [sp, #4]
 640:Middlewares/Third_Party/LwIP/src/api/api_lib.c ****     if (buf == NULL) {
 1292              		.loc 1 640 0
 1293 0052 0620     		movs	r0, #6
 1294              	.LVL164:
 1295 0054 FFF7FEFF 		bl	memp_malloc
 1296              	.LVL165:
 641:Middlewares/Third_Party/LwIP/src/api/api_lib.c ****       return ERR_MEM;
 1297              		.loc 1 641 0
 1298 0058 0646     		mov	r6, r0
 1299 005a E8B1     		cbz	r0, .L133
 645:Middlewares/Third_Party/LwIP/src/api/api_lib.c ****     if (err != ERR_OK) {
 1300              		.loc 1 645 0
 1301 005c 01A9     		add	r1, sp, #4
 1302 005e 2046     		mov	r0, r4
 1303              	.LVL166:
 1304 0060 FFF7FEFF 		bl	netconn_recv_data
 1305              	.LVL167:
 646:Middlewares/Third_Party/LwIP/src/api/api_lib.c ****       memp_free(MEMP_NETBUF, buf);
 1306              		.loc 1 646 0
 1307 0064 0446     		mov	r4, r0
 1308              	.LVL168:
 1309 0066 50B9     		cbnz	r0, .L138
 650:Middlewares/Third_Party/LwIP/src/api/api_lib.c **** 
 1310              		.loc 1 650 0
 1311 0068 019B     		ldr	r3, [sp, #4]
 1312 006a 6BB1     		cbz	r3, .L139
 1313              	.LVL169:
 1314              	.L132:
 652:Middlewares/Third_Party/LwIP/src/api/api_lib.c ****     buf->ptr = p;
 1315              		.loc 1 652 0
 1316 006c 019B     		ldr	r3, [sp, #4]
 1317 006e 3360     		str	r3, [r6]
 653:Middlewares/Third_Party/LwIP/src/api/api_lib.c ****     buf->port = 0;
 1318              		.loc 1 653 0
ARM GAS  C:\Users\milek\AppData\Local\Temp\cc6GzPmq.s 			page 41


 1319 0070 019B     		ldr	r3, [sp, #4]
 1320 0072 7360     		str	r3, [r6, #4]
 654:Middlewares/Third_Party/LwIP/src/api/api_lib.c ****     ip_addr_set_zero(&buf->addr);
 1321              		.loc 1 654 0
 1322 0074 0023     		movs	r3, #0
 1323 0076 B381     		strh	r3, [r6, #12]	@ movhi
 655:Middlewares/Third_Party/LwIP/src/api/api_lib.c ****     *new_buf = buf;
 1324              		.loc 1 655 0
 1325 0078 B360     		str	r3, [r6, #8]
 656:Middlewares/Third_Party/LwIP/src/api/api_lib.c ****     /* don't set conn->last_err: it's only ERR_OK, anyway */
 1326              		.loc 1 656 0
 1327 007a 2E60     		str	r6, [r5]
 658:Middlewares/Third_Party/LwIP/src/api/api_lib.c ****   }
 1328              		.loc 1 658 0
 1329 007c D0E7     		b	.L127
 1330              	.LVL170:
 1331              	.L138:
 647:Middlewares/Third_Party/LwIP/src/api/api_lib.c ****       return err;
 1332              		.loc 1 647 0
 1333 007e 3146     		mov	r1, r6
 1334 0080 0620     		movs	r0, #6
 1335              	.LVL171:
 1336 0082 FFF7FEFF 		bl	memp_free
 1337              	.LVL172:
 648:Middlewares/Third_Party/LwIP/src/api/api_lib.c ****     }
 1338              		.loc 1 648 0
 1339 0086 CBE7     		b	.L127
 1340              	.LVL173:
 1341              	.L139:
 650:Middlewares/Third_Party/LwIP/src/api/api_lib.c **** 
 1342              		.loc 1 650 0 discriminator 1
 1343 0088 054B     		ldr	r3, .L140
 1344 008a 40F28A22 		movw	r2, #650
 1345 008e 0849     		ldr	r1, .L140+16
 1346 0090 0548     		ldr	r0, .L140+8
 1347              	.LVL174:
 1348 0092 FFF7FEFF 		bl	printf
 1349              	.LVL175:
 1350 0096 E9E7     		b	.L132
 1351              	.LVL176:
 1352              	.L133:
 642:Middlewares/Third_Party/LwIP/src/api/api_lib.c ****     }
 1353              		.loc 1 642 0
 1354 0098 4FF0FF34 		mov	r4, #-1
 1355              	.LVL177:
 1356 009c C0E7     		b	.L127
 1357              	.L141:
 1358 009e 00BF     		.align	2
 1359              	.L140:
 1360 00a0 00000000 		.word	.LC0
 1361 00a4 00000000 		.word	.LC3
 1362 00a8 4C000000 		.word	.LC2
 1363 00ac 20000000 		.word	.LC4
 1364 00b0 00000000 		.word	.LC20
 1365              	.LBE5:
 1366              		.cfi_endproc
 1367              	.LFE170:
ARM GAS  C:\Users\milek\AppData\Local\Temp\cc6GzPmq.s 			page 42


 1369              		.section	.text.netconn_send,"ax",%progbits
 1370              		.align	1
 1371              		.global	netconn_send
 1372              		.syntax unified
 1373              		.thumb
 1374              		.thumb_func
 1375              		.fpu fpv5-sp-d16
 1377              	netconn_send:
 1378              	.LFB172:
 703:Middlewares/Third_Party/LwIP/src/api/api_lib.c ****   API_MSG_VAR_DECLARE(msg);
 1379              		.loc 1 703 0
 1380              		.cfi_startproc
 1381              		@ args = 0, pretend = 0, frame = 24
 1382              		@ frame_needed = 0, uses_anonymous_args = 0
 1383              	.LVL178:
 1384 0000 00B5     		push	{lr}
 1385              	.LCFI45:
 1386              		.cfi_def_cfa_offset 4
 1387              		.cfi_offset 14, -4
 1388 0002 87B0     		sub	sp, sp, #28
 1389              	.LCFI46:
 1390              		.cfi_def_cfa_offset 32
 707:Middlewares/Third_Party/LwIP/src/api/api_lib.c **** 
 1391              		.loc 1 707 0
 1392 0004 40B1     		cbz	r0, .L146
 712:Middlewares/Third_Party/LwIP/src/api/api_lib.c ****   API_MSG_VAR_REF(msg).msg.b = buf;
 1393              		.loc 1 712 0
 1394 0006 0190     		str	r0, [sp, #4]
 713:Middlewares/Third_Party/LwIP/src/api/api_lib.c ****   err = netconn_apimsg(lwip_netconn_do_send, &API_MSG_VAR_REF(msg));
 1395              		.loc 1 713 0
 1396 0008 0391     		str	r1, [sp, #12]
 714:Middlewares/Third_Party/LwIP/src/api/api_lib.c ****   API_MSG_VAR_FREE(msg);
 1397              		.loc 1 714 0
 1398 000a 01A9     		add	r1, sp, #4
 1399              	.LVL179:
 1400 000c 0748     		ldr	r0, .L147
 1401              	.LVL180:
 1402 000e FFF7FEFF 		bl	netconn_apimsg
 1403              	.LVL181:
 1404              	.L144:
 718:Middlewares/Third_Party/LwIP/src/api/api_lib.c **** 
 1405              		.loc 1 718 0
 1406 0012 07B0     		add	sp, sp, #28
 1407              	.LCFI47:
 1408              		.cfi_remember_state
 1409              		.cfi_def_cfa_offset 4
 1410              		@ sp needed
 1411 0014 5DF804FB 		ldr	pc, [sp], #4
 1412              	.LVL182:
 1413              	.L146:
 1414              	.LCFI48:
 1415              		.cfi_restore_state
 707:Middlewares/Third_Party/LwIP/src/api/api_lib.c **** 
 1416              		.loc 1 707 0 discriminator 1
 1417 0018 054B     		ldr	r3, .L147+4
 1418 001a 40F2C322 		movw	r2, #707
 1419 001e 0549     		ldr	r1, .L147+8
ARM GAS  C:\Users\milek\AppData\Local\Temp\cc6GzPmq.s 			page 43


 1420              	.LVL183:
 1421 0020 0548     		ldr	r0, .L147+12
 1422              	.LVL184:
 1423 0022 FFF7FEFF 		bl	printf
 1424              	.LVL185:
 1425 0026 6FF00F00 		mvn	r0, #15
 1426 002a F2E7     		b	.L144
 1427              	.L148:
 1428              		.align	2
 1429              	.L147:
 1430 002c 00000000 		.word	lwip_netconn_do_send
 1431 0030 00000000 		.word	.LC0
 1432 0034 00000000 		.word	.LC21
 1433 0038 4C000000 		.word	.LC2
 1434              		.cfi_endproc
 1435              	.LFE172:
 1437              		.section	.text.netconn_sendto,"ax",%progbits
 1438              		.align	1
 1439              		.global	netconn_sendto
 1440              		.syntax unified
 1441              		.thumb
 1442              		.thumb_func
 1443              		.fpu fpv5-sp-d16
 1445              	netconn_sendto:
 1446              	.LFB171:
 684:Middlewares/Third_Party/LwIP/src/api/api_lib.c ****   if (buf != NULL) {
 1447              		.loc 1 684 0
 1448              		.cfi_startproc
 1449              		@ args = 0, pretend = 0, frame = 0
 1450              		@ frame_needed = 0, uses_anonymous_args = 0
 1451              	.LVL186:
 685:Middlewares/Third_Party/LwIP/src/api/api_lib.c ****     ip_addr_set(&buf->addr, addr);
 1452              		.loc 1 685 0
 1453 0000 59B1     		cbz	r1, .L152
 684:Middlewares/Third_Party/LwIP/src/api/api_lib.c ****   if (buf != NULL) {
 1454              		.loc 1 684 0
 1455 0002 10B5     		push	{r4, lr}
 1456              	.LCFI49:
 1457              		.cfi_def_cfa_offset 8
 1458              		.cfi_offset 4, -8
 1459              		.cfi_offset 14, -4
 1460 0004 0C46     		mov	r4, r1
 686:Middlewares/Third_Party/LwIP/src/api/api_lib.c ****     buf->port = port;
 1461              		.loc 1 686 0
 1462 0006 32B1     		cbz	r2, .L153
 686:Middlewares/Third_Party/LwIP/src/api/api_lib.c ****     buf->port = port;
 1463              		.loc 1 686 0 is_stmt 0 discriminator 1
 1464 0008 1268     		ldr	r2, [r2]
 1465              	.LVL187:
 1466              	.L151:
 1467 000a 2146     		mov	r1, r4
 1468              	.LVL188:
 686:Middlewares/Third_Party/LwIP/src/api/api_lib.c ****     buf->port = port;
 1469              		.loc 1 686 0 discriminator 4
 1470 000c A260     		str	r2, [r4, #8]
 687:Middlewares/Third_Party/LwIP/src/api/api_lib.c ****     return netconn_send(conn, buf);
 1471              		.loc 1 687 0 is_stmt 1 discriminator 4
ARM GAS  C:\Users\milek\AppData\Local\Temp\cc6GzPmq.s 			page 44


 1472 000e A381     		strh	r3, [r4, #12]	@ movhi
 688:Middlewares/Third_Party/LwIP/src/api/api_lib.c ****   }
 1473              		.loc 1 688 0 discriminator 4
 1474 0010 FFF7FEFF 		bl	netconn_send
 1475              	.LVL189:
 691:Middlewares/Third_Party/LwIP/src/api/api_lib.c **** 
 1476              		.loc 1 691 0 discriminator 4
 1477 0014 10BD     		pop	{r4, pc}
 1478              	.LVL190:
 1479              	.L153:
 686:Middlewares/Third_Party/LwIP/src/api/api_lib.c ****     buf->port = port;
 1480              		.loc 1 686 0
 1481 0016 0022     		movs	r2, #0
 1482              	.LVL191:
 1483 0018 F7E7     		b	.L151
 1484              	.LVL192:
 1485              	.L152:
 1486              	.LCFI50:
 1487              		.cfi_def_cfa_offset 0
 1488              		.cfi_restore 4
 1489              		.cfi_restore 14
 690:Middlewares/Third_Party/LwIP/src/api/api_lib.c **** }
 1490              		.loc 1 690 0
 1491 001a 6FF00500 		mvn	r0, #5
 1492              	.LVL193:
 691:Middlewares/Third_Party/LwIP/src/api/api_lib.c **** 
 1493              		.loc 1 691 0
 1494 001e 7047     		bx	lr
 1495              		.cfi_endproc
 1496              	.LFE171:
 1498              		.section	.text.netconn_write_partly,"ax",%progbits
 1499              		.align	1
 1500              		.global	netconn_write_partly
 1501              		.syntax unified
 1502              		.thumb
 1503              		.thumb_func
 1504              		.fpu fpv5-sp-d16
 1506              	netconn_write_partly:
 1507              	.LFB173:
 737:Middlewares/Third_Party/LwIP/src/api/api_lib.c ****   API_MSG_VAR_DECLARE(msg);
 1508              		.loc 1 737 0
 1509              		.cfi_startproc
 1510              		@ args = 4, pretend = 0, frame = 24
 1511              		@ frame_needed = 0, uses_anonymous_args = 0
 1512              	.LVL194:
 1513 0000 F0B5     		push	{r4, r5, r6, r7, lr}
 1514              	.LCFI51:
 1515              		.cfi_def_cfa_offset 20
 1516              		.cfi_offset 4, -20
 1517              		.cfi_offset 5, -16
 1518              		.cfi_offset 6, -12
 1519              		.cfi_offset 7, -8
 1520              		.cfi_offset 14, -4
 1521 0002 87B0     		sub	sp, sp, #28
 1522              	.LCFI52:
 1523              		.cfi_def_cfa_offset 48
 1524 0004 0C9E     		ldr	r6, [sp, #48]
ARM GAS  C:\Users\milek\AppData\Local\Temp\cc6GzPmq.s 			page 45


 742:Middlewares/Third_Party/LwIP/src/api/api_lib.c ****   LWIP_ERROR("netconn_write: invalid conn->type",  (NETCONNTYPE_GROUP(conn->type)== NETCONN_TCP), r
 1525              		.loc 1 742 0
 1526 0006 88B1     		cbz	r0, .L169
 1527 0008 1546     		mov	r5, r2
 1528 000a 0446     		mov	r4, r0
 743:Middlewares/Third_Party/LwIP/src/api/api_lib.c ****   if (size == 0) {
 1529              		.loc 1 743 0
 1530 000c 0278     		ldrb	r2, [r0]	@ zero_extendqisi2
 1531              	.LVL195:
 1532 000e 02F0F002 		and	r2, r2, #240
 1533 0012 102A     		cmp	r2, #16
 1534 0014 14D1     		bne	.L170
 744:Middlewares/Third_Party/LwIP/src/api/api_lib.c ****     return ERR_OK;
 1535              		.loc 1 744 0
 1536 0016 002D     		cmp	r5, #0
 1537 0018 3DD0     		beq	.L164
 747:Middlewares/Third_Party/LwIP/src/api/api_lib.c **** #if LWIP_SO_SNDTIMEO
 1538              		.loc 1 747 0
 1539 001a 027F     		ldrb	r2, [r0, #28]	@ zero_extendqisi2
 1540 001c 12F0020F 		tst	r2, #2
 1541 0020 18D1     		bne	.L165
 747:Middlewares/Third_Party/LwIP/src/api/api_lib.c **** #if LWIP_SO_SNDTIMEO
 1542              		.loc 1 747 0 is_stmt 0 discriminator 2
 1543 0022 13F0040F 		tst	r3, #4
 1544 0026 31D0     		beq	.L166
 747:Middlewares/Third_Party/LwIP/src/api/api_lib.c **** #if LWIP_SO_SNDTIMEO
 1545              		.loc 1 747 0
 1546 0028 0122     		movs	r2, #1
 1547 002a 14E0     		b	.L162
 1548              	.LVL196:
 1549              	.L169:
 742:Middlewares/Third_Party/LwIP/src/api/api_lib.c ****   LWIP_ERROR("netconn_write: invalid conn->type",  (NETCONNTYPE_GROUP(conn->type)== NETCONN_TCP), r
 1550              		.loc 1 742 0 is_stmt 1 discriminator 1
 1551 002c 1D4B     		ldr	r3, .L172
 1552              	.LVL197:
 1553 002e 40F2E622 		movw	r2, #742
 1554              	.LVL198:
 1555 0032 1D49     		ldr	r1, .L172+4
 1556              	.LVL199:
 1557 0034 1D48     		ldr	r0, .L172+8
 1558              	.LVL200:
 1559 0036 FFF7FEFF 		bl	printf
 1560              	.LVL201:
 1561 003a 6FF00F02 		mvn	r2, #15
 1562 003e 2BE0     		b	.L160
 1563              	.LVL202:
 1564              	.L170:
 743:Middlewares/Third_Party/LwIP/src/api/api_lib.c ****   if (size == 0) {
 1565              		.loc 1 743 0 discriminator 1
 1566 0040 184B     		ldr	r3, .L172
 1567              	.LVL203:
 1568 0042 40F2E722 		movw	r2, #743
 1569 0046 1A49     		ldr	r1, .L172+12
 1570              	.LVL204:
 1571 0048 1848     		ldr	r0, .L172+8
 1572              	.LVL205:
 1573 004a FFF7FEFF 		bl	printf
ARM GAS  C:\Users\milek\AppData\Local\Temp\cc6GzPmq.s 			page 46


 1574              	.LVL206:
 1575 004e 6FF00502 		mvn	r2, #5
 1576 0052 21E0     		b	.L160
 1577              	.LVL207:
 1578              	.L165:
 747:Middlewares/Third_Party/LwIP/src/api/api_lib.c **** #if LWIP_SO_SNDTIMEO
 1579              		.loc 1 747 0
 1580 0054 0122     		movs	r2, #1
 1581              	.L162:
 1582              	.LVL208:
 753:Middlewares/Third_Party/LwIP/src/api/api_lib.c ****     /* This implies netconn_write() cannot be used for non-blocking send, since
 1583              		.loc 1 753 0 discriminator 6
 1584 0056 02F0FF07 		and	r7, r2, #255
 1585 005a 002E     		cmp	r6, #0
 1586 005c 18BF     		it	ne
 1587 005e 0022     		movne	r2, #0
 1588              	.LVL209:
 1589 0060 EAB9     		cbnz	r2, .L167
 761:Middlewares/Third_Party/LwIP/src/api/api_lib.c ****   API_MSG_VAR_REF(msg).msg.w.dataptr = dataptr;
 1590              		.loc 1 761 0
 1591 0062 0194     		str	r4, [sp, #4]
 762:Middlewares/Third_Party/LwIP/src/api/api_lib.c ****   API_MSG_VAR_REF(msg).msg.w.apiflags = apiflags;
 1592              		.loc 1 762 0
 1593 0064 0391     		str	r1, [sp, #12]
 763:Middlewares/Third_Party/LwIP/src/api/api_lib.c ****   API_MSG_VAR_REF(msg).msg.w.len = size;
 1594              		.loc 1 763 0
 1595 0066 8DF81430 		strb	r3, [sp, #20]
 764:Middlewares/Third_Party/LwIP/src/api/api_lib.c **** #if LWIP_SO_SNDTIMEO
 1596              		.loc 1 764 0
 1597 006a 0495     		str	r5, [sp, #16]
 778:Middlewares/Third_Party/LwIP/src/api/api_lib.c ****   if ((err == ERR_OK) && (bytes_written != NULL)) {
 1598              		.loc 1 778 0
 1599 006c 01A9     		add	r1, sp, #4
 1600              	.LVL210:
 1601 006e 1148     		ldr	r0, .L172+16
 1602              	.LVL211:
 1603 0070 FFF7FEFF 		bl	netconn_apimsg
 1604              	.LVL212:
 779:Middlewares/Third_Party/LwIP/src/api/api_lib.c ****     if (dontblock) {
 1605              		.loc 1 779 0
 1606 0074 0246     		mov	r2, r0
 1607 0076 331C     		adds	r3, r6, #0
 1608 0078 18BF     		it	ne
 1609 007a 0123     		movne	r3, #1
 1610 007c 0028     		cmp	r0, #0
 1611 007e 0CBF     		ite	eq
 1612 0080 1846     		moveq	r0, r3
 1613 0082 0020     		movne	r0, #0
 1614              	.LVL213:
 1615 0084 40B1     		cbz	r0, .L160
 780:Middlewares/Third_Party/LwIP/src/api/api_lib.c ****       /* nonblocking write: maybe the data has been sent partly */
 1616              		.loc 1 780 0
 1617 0086 1FB9     		cbnz	r7, .L171
 785:Middlewares/Third_Party/LwIP/src/api/api_lib.c ****     }
 1618              		.loc 1 785 0
 1619 0088 3560     		str	r5, [r6]
 1620 008a 05E0     		b	.L160
ARM GAS  C:\Users\milek\AppData\Local\Temp\cc6GzPmq.s 			page 47


 1621              	.LVL214:
 1622              	.L166:
 747:Middlewares/Third_Party/LwIP/src/api/api_lib.c **** #if LWIP_SO_SNDTIMEO
 1623              		.loc 1 747 0
 1624 008c 0022     		movs	r2, #0
 1625 008e E2E7     		b	.L162
 1626              	.LVL215:
 1627              	.L171:
 782:Middlewares/Third_Party/LwIP/src/api/api_lib.c ****     } else {
 1628              		.loc 1 782 0
 1629 0090 049B     		ldr	r3, [sp, #16]
 1630 0092 3360     		str	r3, [r6]
 1631 0094 00E0     		b	.L160
 1632              	.LVL216:
 1633              	.L164:
 745:Middlewares/Third_Party/LwIP/src/api/api_lib.c ****   }
 1634              		.loc 1 745 0
 1635 0096 0022     		movs	r2, #0
 1636              	.LVL217:
 1637              	.L160:
 791:Middlewares/Third_Party/LwIP/src/api/api_lib.c **** 
 1638              		.loc 1 791 0
 1639 0098 1046     		mov	r0, r2
 1640 009a 07B0     		add	sp, sp, #28
 1641              	.LCFI53:
 1642              		.cfi_remember_state
 1643              		.cfi_def_cfa_offset 20
 1644              		@ sp needed
 1645 009c F0BD     		pop	{r4, r5, r6, r7, pc}
 1646              	.LVL218:
 1647              	.L167:
 1648              	.LCFI54:
 1649              		.cfi_restore_state
 756:Middlewares/Third_Party/LwIP/src/api/api_lib.c ****   }
 1650              		.loc 1 756 0
 1651 009e 6FF00502 		mvn	r2, #5
 1652 00a2 F9E7     		b	.L160
 1653              	.L173:
 1654              		.align	2
 1655              	.L172:
 1656 00a4 00000000 		.word	.LC0
 1657 00a8 00000000 		.word	.LC22
 1658 00ac 4C000000 		.word	.LC2
 1659 00b0 1C000000 		.word	.LC23
 1660 00b4 00000000 		.word	lwip_netconn_do_write
 1661              		.cfi_endproc
 1662              	.LFE173:
 1664              		.section	.text.netconn_close,"ax",%progbits
 1665              		.align	1
 1666              		.global	netconn_close
 1667              		.syntax unified
 1668              		.thumb
 1669              		.thumb_func
 1670              		.fpu fpv5-sp-d16
 1672              	netconn_close:
 1673              	.LFB175:
 829:Middlewares/Third_Party/LwIP/src/api/api_lib.c **** 
ARM GAS  C:\Users\milek\AppData\Local\Temp\cc6GzPmq.s 			page 48


 830:Middlewares/Third_Party/LwIP/src/api/api_lib.c **** /**
 831:Middlewares/Third_Party/LwIP/src/api/api_lib.c ****  * @ingroup netconn_tcp
 832:Middlewares/Third_Party/LwIP/src/api/api_lib.c ****  * Close a TCP netconn (doesn't delete it).
 833:Middlewares/Third_Party/LwIP/src/api/api_lib.c ****  *
 834:Middlewares/Third_Party/LwIP/src/api/api_lib.c ****  * @param conn the TCP netconn to close
 835:Middlewares/Third_Party/LwIP/src/api/api_lib.c ****  * @return ERR_OK if the netconn was closed, any other err_t on error
 836:Middlewares/Third_Party/LwIP/src/api/api_lib.c ****  */
 837:Middlewares/Third_Party/LwIP/src/api/api_lib.c **** err_t
 838:Middlewares/Third_Party/LwIP/src/api/api_lib.c **** netconn_close(struct netconn *conn)
 839:Middlewares/Third_Party/LwIP/src/api/api_lib.c **** {
 1674              		.loc 1 839 0
 1675              		.cfi_startproc
 1676              		@ args = 0, pretend = 0, frame = 0
 1677              		@ frame_needed = 0, uses_anonymous_args = 0
 1678              	.LVL219:
 1679 0000 08B5     		push	{r3, lr}
 1680              	.LCFI55:
 1681              		.cfi_def_cfa_offset 8
 1682              		.cfi_offset 3, -8
 1683              		.cfi_offset 14, -4
 840:Middlewares/Third_Party/LwIP/src/api/api_lib.c ****   /* shutting down both ends is the same as closing */
 841:Middlewares/Third_Party/LwIP/src/api/api_lib.c ****   return netconn_close_shutdown(conn, NETCONN_SHUT_RDWR);
 1684              		.loc 1 841 0
 1685 0002 0321     		movs	r1, #3
 1686 0004 FFF7FEFF 		bl	netconn_close_shutdown
 1687              	.LVL220:
 842:Middlewares/Third_Party/LwIP/src/api/api_lib.c **** }
 1688              		.loc 1 842 0
 1689 0008 08BD     		pop	{r3, pc}
 1690              		.cfi_endproc
 1691              	.LFE175:
 1693              		.section	.text.netconn_shutdown,"ax",%progbits
 1694              		.align	1
 1695              		.global	netconn_shutdown
 1696              		.syntax unified
 1697              		.thumb
 1698              		.thumb_func
 1699              		.fpu fpv5-sp-d16
 1701              	netconn_shutdown:
 1702              	.LFB176:
 843:Middlewares/Third_Party/LwIP/src/api/api_lib.c **** 
 844:Middlewares/Third_Party/LwIP/src/api/api_lib.c **** /**
 845:Middlewares/Third_Party/LwIP/src/api/api_lib.c ****  * @ingroup netconn_tcp
 846:Middlewares/Third_Party/LwIP/src/api/api_lib.c ****  * Shut down one or both sides of a TCP netconn (doesn't delete it).
 847:Middlewares/Third_Party/LwIP/src/api/api_lib.c ****  *
 848:Middlewares/Third_Party/LwIP/src/api/api_lib.c ****  * @param conn the TCP netconn to shut down
 849:Middlewares/Third_Party/LwIP/src/api/api_lib.c ****  * @param shut_rx shut down the RX side (no more read possible after this)
 850:Middlewares/Third_Party/LwIP/src/api/api_lib.c ****  * @param shut_tx shut down the TX side (no more write possible after this)
 851:Middlewares/Third_Party/LwIP/src/api/api_lib.c ****  * @return ERR_OK if the netconn was closed, any other err_t on error
 852:Middlewares/Third_Party/LwIP/src/api/api_lib.c ****  */
 853:Middlewares/Third_Party/LwIP/src/api/api_lib.c **** err_t
 854:Middlewares/Third_Party/LwIP/src/api/api_lib.c **** netconn_shutdown(struct netconn *conn, u8_t shut_rx, u8_t shut_tx)
 855:Middlewares/Third_Party/LwIP/src/api/api_lib.c **** {
 1703              		.loc 1 855 0
 1704              		.cfi_startproc
 1705              		@ args = 0, pretend = 0, frame = 0
 1706              		@ frame_needed = 0, uses_anonymous_args = 0
ARM GAS  C:\Users\milek\AppData\Local\Temp\cc6GzPmq.s 			page 49


 1707              	.LVL221:
 1708 0000 08B5     		push	{r3, lr}
 1709              	.LCFI56:
 1710              		.cfi_def_cfa_offset 8
 1711              		.cfi_offset 3, -8
 1712              		.cfi_offset 14, -4
 856:Middlewares/Third_Party/LwIP/src/api/api_lib.c ****   return netconn_close_shutdown(conn, (shut_rx ? NETCONN_SHUT_RD : 0) | (shut_tx ? NETCONN_SHUT_WR 
 1713              		.loc 1 856 0
 1714 0002 0031     		adds	r1, r1, #0
 1715              	.LVL222:
 1716 0004 18BF     		it	ne
 1717 0006 0121     		movne	r1, #1
 1718 0008 22B9     		cbnz	r2, .L180
 1719 000a 0023     		movs	r3, #0
 1720              	.L177:
 1721              		.loc 1 856 0 is_stmt 0 discriminator 4
 1722 000c 1943     		orrs	r1, r1, r3
 1723 000e FFF7FEFF 		bl	netconn_close_shutdown
 1724              	.LVL223:
 857:Middlewares/Third_Party/LwIP/src/api/api_lib.c **** }
 1725              		.loc 1 857 0 is_stmt 1 discriminator 4
 1726 0012 08BD     		pop	{r3, pc}
 1727              	.LVL224:
 1728              	.L180:
 856:Middlewares/Third_Party/LwIP/src/api/api_lib.c ****   return netconn_close_shutdown(conn, (shut_rx ? NETCONN_SHUT_RD : 0) | (shut_tx ? NETCONN_SHUT_WR 
 1729              		.loc 1 856 0
 1730 0014 0223     		movs	r3, #2
 1731 0016 F9E7     		b	.L177
 1732              		.cfi_endproc
 1733              	.LFE176:
 1735              		.section	.text.netconn_gethostbyname,"ax",%progbits
 1736              		.align	1
 1737              		.global	netconn_gethostbyname
 1738              		.syntax unified
 1739              		.thumb
 1740              		.thumb_func
 1741              		.fpu fpv5-sp-d16
 1743              	netconn_gethostbyname:
 1744              	.LFB177:
 858:Middlewares/Third_Party/LwIP/src/api/api_lib.c **** 
 859:Middlewares/Third_Party/LwIP/src/api/api_lib.c **** #if LWIP_IGMP || (LWIP_IPV6 && LWIP_IPV6_MLD)
 860:Middlewares/Third_Party/LwIP/src/api/api_lib.c **** /**
 861:Middlewares/Third_Party/LwIP/src/api/api_lib.c ****  * @ingroup netconn_udp
 862:Middlewares/Third_Party/LwIP/src/api/api_lib.c ****  * Join multicast groups for UDP netconns.
 863:Middlewares/Third_Party/LwIP/src/api/api_lib.c ****  *
 864:Middlewares/Third_Party/LwIP/src/api/api_lib.c ****  * @param conn the UDP netconn for which to change multicast addresses
 865:Middlewares/Third_Party/LwIP/src/api/api_lib.c ****  * @param multiaddr IP address of the multicast group to join or leave
 866:Middlewares/Third_Party/LwIP/src/api/api_lib.c ****  * @param netif_addr the IP address of the network interface on which to send
 867:Middlewares/Third_Party/LwIP/src/api/api_lib.c ****  *                  the igmp message
 868:Middlewares/Third_Party/LwIP/src/api/api_lib.c ****  * @param join_or_leave flag whether to send a join- or leave-message
 869:Middlewares/Third_Party/LwIP/src/api/api_lib.c ****  * @return ERR_OK if the action was taken, any err_t on error
 870:Middlewares/Third_Party/LwIP/src/api/api_lib.c ****  */
 871:Middlewares/Third_Party/LwIP/src/api/api_lib.c **** err_t
 872:Middlewares/Third_Party/LwIP/src/api/api_lib.c **** netconn_join_leave_group(struct netconn *conn,
 873:Middlewares/Third_Party/LwIP/src/api/api_lib.c ****                          const ip_addr_t *multiaddr,
 874:Middlewares/Third_Party/LwIP/src/api/api_lib.c ****                          const ip_addr_t *netif_addr,
 875:Middlewares/Third_Party/LwIP/src/api/api_lib.c ****                          enum netconn_igmp join_or_leave)
ARM GAS  C:\Users\milek\AppData\Local\Temp\cc6GzPmq.s 			page 50


 876:Middlewares/Third_Party/LwIP/src/api/api_lib.c **** {
 877:Middlewares/Third_Party/LwIP/src/api/api_lib.c ****   API_MSG_VAR_DECLARE(msg);
 878:Middlewares/Third_Party/LwIP/src/api/api_lib.c ****   err_t err;
 879:Middlewares/Third_Party/LwIP/src/api/api_lib.c **** 
 880:Middlewares/Third_Party/LwIP/src/api/api_lib.c ****   LWIP_ERROR("netconn_join_leave_group: invalid conn",  (conn != NULL), return ERR_ARG;);
 881:Middlewares/Third_Party/LwIP/src/api/api_lib.c **** 
 882:Middlewares/Third_Party/LwIP/src/api/api_lib.c ****   API_MSG_VAR_ALLOC(msg);
 883:Middlewares/Third_Party/LwIP/src/api/api_lib.c **** 
 884:Middlewares/Third_Party/LwIP/src/api/api_lib.c **** #if LWIP_IPV4
 885:Middlewares/Third_Party/LwIP/src/api/api_lib.c ****   /* Don't propagate NULL pointer (IP_ADDR_ANY alias) to subsequent functions */
 886:Middlewares/Third_Party/LwIP/src/api/api_lib.c ****   if (multiaddr == NULL) {
 887:Middlewares/Third_Party/LwIP/src/api/api_lib.c ****     multiaddr = IP4_ADDR_ANY;
 888:Middlewares/Third_Party/LwIP/src/api/api_lib.c ****   }
 889:Middlewares/Third_Party/LwIP/src/api/api_lib.c ****   if (netif_addr == NULL) {
 890:Middlewares/Third_Party/LwIP/src/api/api_lib.c ****     netif_addr = IP4_ADDR_ANY;
 891:Middlewares/Third_Party/LwIP/src/api/api_lib.c ****   }
 892:Middlewares/Third_Party/LwIP/src/api/api_lib.c **** #endif /* LWIP_IPV4 */
 893:Middlewares/Third_Party/LwIP/src/api/api_lib.c **** 
 894:Middlewares/Third_Party/LwIP/src/api/api_lib.c ****   API_MSG_VAR_REF(msg).conn = conn;
 895:Middlewares/Third_Party/LwIP/src/api/api_lib.c ****   API_MSG_VAR_REF(msg).msg.jl.multiaddr = API_MSG_VAR_REF(multiaddr);
 896:Middlewares/Third_Party/LwIP/src/api/api_lib.c ****   API_MSG_VAR_REF(msg).msg.jl.netif_addr = API_MSG_VAR_REF(netif_addr);
 897:Middlewares/Third_Party/LwIP/src/api/api_lib.c ****   API_MSG_VAR_REF(msg).msg.jl.join_or_leave = join_or_leave;
 898:Middlewares/Third_Party/LwIP/src/api/api_lib.c ****   err = netconn_apimsg(lwip_netconn_do_join_leave_group, &API_MSG_VAR_REF(msg));
 899:Middlewares/Third_Party/LwIP/src/api/api_lib.c ****   API_MSG_VAR_FREE(msg);
 900:Middlewares/Third_Party/LwIP/src/api/api_lib.c **** 
 901:Middlewares/Third_Party/LwIP/src/api/api_lib.c ****   return err;
 902:Middlewares/Third_Party/LwIP/src/api/api_lib.c **** }
 903:Middlewares/Third_Party/LwIP/src/api/api_lib.c **** #endif /* LWIP_IGMP || (LWIP_IPV6 && LWIP_IPV6_MLD) */
 904:Middlewares/Third_Party/LwIP/src/api/api_lib.c **** 
 905:Middlewares/Third_Party/LwIP/src/api/api_lib.c **** #if LWIP_DNS
 906:Middlewares/Third_Party/LwIP/src/api/api_lib.c **** /**
 907:Middlewares/Third_Party/LwIP/src/api/api_lib.c ****  * @ingroup netconn_common
 908:Middlewares/Third_Party/LwIP/src/api/api_lib.c ****  * Execute a DNS query, only one IP address is returned
 909:Middlewares/Third_Party/LwIP/src/api/api_lib.c ****  *
 910:Middlewares/Third_Party/LwIP/src/api/api_lib.c ****  * @param name a string representation of the DNS host name to query
 911:Middlewares/Third_Party/LwIP/src/api/api_lib.c ****  * @param addr a preallocated ip_addr_t where to store the resolved IP address
 912:Middlewares/Third_Party/LwIP/src/api/api_lib.c ****  * @param dns_addrtype IP address type (IPv4 / IPv6)
 913:Middlewares/Third_Party/LwIP/src/api/api_lib.c ****  * @return ERR_OK: resolving succeeded
 914:Middlewares/Third_Party/LwIP/src/api/api_lib.c ****  *         ERR_MEM: memory error, try again later
 915:Middlewares/Third_Party/LwIP/src/api/api_lib.c ****  *         ERR_ARG: dns client not initialized or invalid hostname
 916:Middlewares/Third_Party/LwIP/src/api/api_lib.c ****  *         ERR_VAL: dns server response was invalid
 917:Middlewares/Third_Party/LwIP/src/api/api_lib.c ****  */
 918:Middlewares/Third_Party/LwIP/src/api/api_lib.c **** #if LWIP_IPV4 && LWIP_IPV6
 919:Middlewares/Third_Party/LwIP/src/api/api_lib.c **** err_t
 920:Middlewares/Third_Party/LwIP/src/api/api_lib.c **** netconn_gethostbyname_addrtype(const char *name, ip_addr_t *addr, u8_t dns_addrtype)
 921:Middlewares/Third_Party/LwIP/src/api/api_lib.c **** #else
 922:Middlewares/Third_Party/LwIP/src/api/api_lib.c **** err_t
 923:Middlewares/Third_Party/LwIP/src/api/api_lib.c **** netconn_gethostbyname(const char *name, ip_addr_t *addr)
 924:Middlewares/Third_Party/LwIP/src/api/api_lib.c **** #endif
 925:Middlewares/Third_Party/LwIP/src/api/api_lib.c **** {
 1745              		.loc 1 925 0
 1746              		.cfi_startproc
 1747              		@ args = 0, pretend = 0, frame = 24
 1748              		@ frame_needed = 0, uses_anonymous_args = 0
 1749              	.LVL225:
 1750 0000 10B5     		push	{r4, lr}
 1751              	.LCFI57:
ARM GAS  C:\Users\milek\AppData\Local\Temp\cc6GzPmq.s 			page 51


 1752              		.cfi_def_cfa_offset 8
 1753              		.cfi_offset 4, -8
 1754              		.cfi_offset 14, -4
 1755 0002 86B0     		sub	sp, sp, #24
 1756              	.LCFI58:
 1757              		.cfi_def_cfa_offset 32
 926:Middlewares/Third_Party/LwIP/src/api/api_lib.c ****   API_VAR_DECLARE(struct dns_api_msg, msg);
 927:Middlewares/Third_Party/LwIP/src/api/api_lib.c **** #if !LWIP_MPU_COMPATIBLE
 928:Middlewares/Third_Party/LwIP/src/api/api_lib.c ****   sys_sem_t sem;
 929:Middlewares/Third_Party/LwIP/src/api/api_lib.c **** #endif /* LWIP_MPU_COMPATIBLE */
 930:Middlewares/Third_Party/LwIP/src/api/api_lib.c ****   err_t err;
 931:Middlewares/Third_Party/LwIP/src/api/api_lib.c ****   err_t cberr;
 932:Middlewares/Third_Party/LwIP/src/api/api_lib.c **** 
 933:Middlewares/Third_Party/LwIP/src/api/api_lib.c ****   LWIP_ERROR("netconn_gethostbyname: invalid name", (name != NULL), return ERR_ARG;);
 1758              		.loc 1 933 0
 1759 0004 90B1     		cbz	r0, .L187
 1760 0006 0346     		mov	r3, r0
 934:Middlewares/Third_Party/LwIP/src/api/api_lib.c ****   LWIP_ERROR("netconn_gethostbyname: invalid addr", (addr != NULL), return ERR_ARG;);
 1761              		.loc 1 934 0
 1762 0008 D1B1     		cbz	r1, .L188
 935:Middlewares/Third_Party/LwIP/src/api/api_lib.c **** #if LWIP_MPU_COMPATIBLE
 936:Middlewares/Third_Party/LwIP/src/api/api_lib.c ****   if (strlen(name) >= DNS_MAX_NAME_LENGTH) {
 937:Middlewares/Third_Party/LwIP/src/api/api_lib.c ****     return ERR_ARG;
 938:Middlewares/Third_Party/LwIP/src/api/api_lib.c ****   }
 939:Middlewares/Third_Party/LwIP/src/api/api_lib.c **** #endif
 940:Middlewares/Third_Party/LwIP/src/api/api_lib.c **** 
 941:Middlewares/Third_Party/LwIP/src/api/api_lib.c ****   API_VAR_ALLOC(struct dns_api_msg, MEMP_DNS_API_MSG, msg, ERR_MEM);
 942:Middlewares/Third_Party/LwIP/src/api/api_lib.c **** #if LWIP_MPU_COMPATIBLE
 943:Middlewares/Third_Party/LwIP/src/api/api_lib.c ****   strncpy(API_VAR_REF(msg).name, name, DNS_MAX_NAME_LENGTH-1);
 944:Middlewares/Third_Party/LwIP/src/api/api_lib.c ****   API_VAR_REF(msg).name[DNS_MAX_NAME_LENGTH-1] = 0;
 945:Middlewares/Third_Party/LwIP/src/api/api_lib.c **** #else /* LWIP_MPU_COMPATIBLE */
 946:Middlewares/Third_Party/LwIP/src/api/api_lib.c ****   msg.err = &err;
 1763              		.loc 1 946 0
 1764 000a 0DF10302 		add	r2, sp, #3
 1765 000e 0592     		str	r2, [sp, #20]
 947:Middlewares/Third_Party/LwIP/src/api/api_lib.c ****   msg.sem = &sem;
 1766              		.loc 1 947 0
 1767 0010 01A8     		add	r0, sp, #4
 1768              	.LVL226:
 1769 0012 0490     		str	r0, [sp, #16]
 948:Middlewares/Third_Party/LwIP/src/api/api_lib.c ****   API_VAR_REF(msg).addr = API_VAR_REF(addr);
 1770              		.loc 1 948 0
 1771 0014 0391     		str	r1, [sp, #12]
 949:Middlewares/Third_Party/LwIP/src/api/api_lib.c ****   API_VAR_REF(msg).name = name;
 1772              		.loc 1 949 0
 1773 0016 0293     		str	r3, [sp, #8]
 950:Middlewares/Third_Party/LwIP/src/api/api_lib.c **** #endif /* LWIP_MPU_COMPATIBLE */
 951:Middlewares/Third_Party/LwIP/src/api/api_lib.c **** #if LWIP_IPV4 && LWIP_IPV6
 952:Middlewares/Third_Party/LwIP/src/api/api_lib.c ****   API_VAR_REF(msg).dns_addrtype = dns_addrtype;
 953:Middlewares/Third_Party/LwIP/src/api/api_lib.c **** #endif /* LWIP_IPV4 && LWIP_IPV6 */
 954:Middlewares/Third_Party/LwIP/src/api/api_lib.c **** #if LWIP_NETCONN_SEM_PER_THREAD
 955:Middlewares/Third_Party/LwIP/src/api/api_lib.c ****   API_VAR_REF(msg).sem = LWIP_NETCONN_THREAD_SEM_GET();
 956:Middlewares/Third_Party/LwIP/src/api/api_lib.c **** #else /* LWIP_NETCONN_SEM_PER_THREAD*/
 957:Middlewares/Third_Party/LwIP/src/api/api_lib.c ****   err = sys_sem_new(API_EXPR_REF(API_VAR_REF(msg).sem), 0);
 1774              		.loc 1 957 0
 1775 0018 0021     		movs	r1, #0
 1776              	.LVL227:
ARM GAS  C:\Users\milek\AppData\Local\Temp\cc6GzPmq.s 			page 52


 1777 001a FFF7FEFF 		bl	sys_sem_new
 1778              	.LVL228:
 1779 001e 0446     		mov	r4, r0
 1780 0020 8DF80300 		strb	r0, [sp, #3]
 958:Middlewares/Third_Party/LwIP/src/api/api_lib.c ****   if (err != ERR_OK) {
 1781              		.loc 1 958 0
 1782 0024 B0B1     		cbz	r0, .L189
 1783              	.L183:
 959:Middlewares/Third_Party/LwIP/src/api/api_lib.c ****     API_VAR_FREE(MEMP_DNS_API_MSG, msg);
 960:Middlewares/Third_Party/LwIP/src/api/api_lib.c ****     return err;
 961:Middlewares/Third_Party/LwIP/src/api/api_lib.c ****   }
 962:Middlewares/Third_Party/LwIP/src/api/api_lib.c **** #endif /* LWIP_NETCONN_SEM_PER_THREAD */
 963:Middlewares/Third_Party/LwIP/src/api/api_lib.c **** 
 964:Middlewares/Third_Party/LwIP/src/api/api_lib.c ****   cberr = tcpip_callback(lwip_netconn_do_gethostbyname, &API_VAR_REF(msg));
 965:Middlewares/Third_Party/LwIP/src/api/api_lib.c ****   if (cberr != ERR_OK) {
 966:Middlewares/Third_Party/LwIP/src/api/api_lib.c **** #if !LWIP_NETCONN_SEM_PER_THREAD
 967:Middlewares/Third_Party/LwIP/src/api/api_lib.c ****     sys_sem_free(API_EXPR_REF(API_VAR_REF(msg).sem));
 968:Middlewares/Third_Party/LwIP/src/api/api_lib.c **** #endif /* !LWIP_NETCONN_SEM_PER_THREAD */
 969:Middlewares/Third_Party/LwIP/src/api/api_lib.c ****     API_VAR_FREE(MEMP_DNS_API_MSG, msg);
 970:Middlewares/Third_Party/LwIP/src/api/api_lib.c ****     return cberr;
 971:Middlewares/Third_Party/LwIP/src/api/api_lib.c ****   }
 972:Middlewares/Third_Party/LwIP/src/api/api_lib.c ****   sys_sem_wait(API_EXPR_REF_SEM(API_VAR_REF(msg).sem));
 973:Middlewares/Third_Party/LwIP/src/api/api_lib.c **** #if !LWIP_NETCONN_SEM_PER_THREAD
 974:Middlewares/Third_Party/LwIP/src/api/api_lib.c ****   sys_sem_free(API_EXPR_REF(API_VAR_REF(msg).sem));
 975:Middlewares/Third_Party/LwIP/src/api/api_lib.c **** #endif /* !LWIP_NETCONN_SEM_PER_THREAD */
 976:Middlewares/Third_Party/LwIP/src/api/api_lib.c **** 
 977:Middlewares/Third_Party/LwIP/src/api/api_lib.c **** #if LWIP_MPU_COMPATIBLE
 978:Middlewares/Third_Party/LwIP/src/api/api_lib.c ****   *addr = msg->addr;
 979:Middlewares/Third_Party/LwIP/src/api/api_lib.c ****   err = msg->err;
 980:Middlewares/Third_Party/LwIP/src/api/api_lib.c **** #endif /* LWIP_MPU_COMPATIBLE */
 981:Middlewares/Third_Party/LwIP/src/api/api_lib.c **** 
 982:Middlewares/Third_Party/LwIP/src/api/api_lib.c ****   API_VAR_FREE(MEMP_DNS_API_MSG, msg);
 983:Middlewares/Third_Party/LwIP/src/api/api_lib.c ****   return err;
 984:Middlewares/Third_Party/LwIP/src/api/api_lib.c **** }
 1784              		.loc 1 984 0
 1785 0026 2046     		mov	r0, r4
 1786 0028 06B0     		add	sp, sp, #24
 1787              	.LCFI59:
 1788              		.cfi_remember_state
 1789              		.cfi_def_cfa_offset 8
 1790              		@ sp needed
 1791 002a 10BD     		pop	{r4, pc}
 1792              	.LVL229:
 1793              	.L187:
 1794              	.LCFI60:
 1795              		.cfi_restore_state
 933:Middlewares/Third_Party/LwIP/src/api/api_lib.c ****   LWIP_ERROR("netconn_gethostbyname: invalid addr", (addr != NULL), return ERR_ARG;);
 1796              		.loc 1 933 0 discriminator 1
 1797 002c 144B     		ldr	r3, .L191
 1798 002e 40F2A532 		movw	r2, #933
 1799 0032 1449     		ldr	r1, .L191+4
 1800              	.LVL230:
 1801 0034 1448     		ldr	r0, .L191+8
 1802              	.LVL231:
 1803 0036 FFF7FEFF 		bl	printf
 1804              	.LVL232:
 1805 003a 6FF00F04 		mvn	r4, #15
ARM GAS  C:\Users\milek\AppData\Local\Temp\cc6GzPmq.s 			page 53


 1806 003e F2E7     		b	.L183
 1807              	.LVL233:
 1808              	.L188:
 934:Middlewares/Third_Party/LwIP/src/api/api_lib.c **** #if LWIP_MPU_COMPATIBLE
 1809              		.loc 1 934 0 discriminator 1
 1810 0040 0F4B     		ldr	r3, .L191
 1811 0042 40F2A632 		movw	r2, #934
 1812 0046 1149     		ldr	r1, .L191+12
 1813              	.LVL234:
 1814 0048 0F48     		ldr	r0, .L191+8
 1815              	.LVL235:
 1816 004a FFF7FEFF 		bl	printf
 1817              	.LVL236:
 1818 004e 6FF00F04 		mvn	r4, #15
 1819 0052 E8E7     		b	.L183
 1820              	.L189:
 964:Middlewares/Third_Party/LwIP/src/api/api_lib.c ****   if (cberr != ERR_OK) {
 1821              		.loc 1 964 0
 1822 0054 0122     		movs	r2, #1
 1823 0056 02A9     		add	r1, sp, #8
 1824 0058 0D48     		ldr	r0, .L191+16
 1825 005a FFF7FEFF 		bl	tcpip_callback_with_block
 1826              	.LVL237:
 965:Middlewares/Third_Party/LwIP/src/api/api_lib.c **** #if !LWIP_NETCONN_SEM_PER_THREAD
 1827              		.loc 1 965 0
 1828 005e 0446     		mov	r4, r0
 1829 0060 48B9     		cbnz	r0, .L190
 972:Middlewares/Third_Party/LwIP/src/api/api_lib.c **** #if !LWIP_NETCONN_SEM_PER_THREAD
 1830              		.loc 1 972 0
 1831 0062 0021     		movs	r1, #0
 1832 0064 0498     		ldr	r0, [sp, #16]
 1833              	.LVL238:
 1834 0066 FFF7FEFF 		bl	sys_arch_sem_wait
 1835              	.LVL239:
 974:Middlewares/Third_Party/LwIP/src/api/api_lib.c **** #endif /* !LWIP_NETCONN_SEM_PER_THREAD */
 1836              		.loc 1 974 0
 1837 006a 0498     		ldr	r0, [sp, #16]
 1838 006c FFF7FEFF 		bl	sys_sem_free
 1839              	.LVL240:
 983:Middlewares/Third_Party/LwIP/src/api/api_lib.c **** }
 1840              		.loc 1 983 0
 1841 0070 9DF90340 		ldrsb	r4, [sp, #3]
 1842 0074 D7E7     		b	.L183
 1843              	.LVL241:
 1844              	.L190:
 967:Middlewares/Third_Party/LwIP/src/api/api_lib.c **** #endif /* !LWIP_NETCONN_SEM_PER_THREAD */
 1845              		.loc 1 967 0
 1846 0076 0498     		ldr	r0, [sp, #16]
 1847              	.LVL242:
 1848 0078 FFF7FEFF 		bl	sys_sem_free
 1849              	.LVL243:
 970:Middlewares/Third_Party/LwIP/src/api/api_lib.c ****   }
 1850              		.loc 1 970 0
 1851 007c D3E7     		b	.L183
 1852              	.L192:
 1853 007e 00BF     		.align	2
 1854              	.L191:
ARM GAS  C:\Users\milek\AppData\Local\Temp\cc6GzPmq.s 			page 54


 1855 0080 00000000 		.word	.LC0
 1856 0084 00000000 		.word	.LC24
 1857 0088 4C000000 		.word	.LC2
 1858 008c 24000000 		.word	.LC25
 1859 0090 00000000 		.word	lwip_netconn_do_gethostbyname
 1860              		.cfi_endproc
 1861              	.LFE177:
 1863              		.section	.rodata.netconn_accept.str1.4,"aMS",%progbits,1
 1864              		.align	2
 1865              	.LC18:
 1866 0000 6E657463 		.ascii	"netconn_accept: invalid pointer\000"
 1866      6F6E6E5F 
 1866      61636365 
 1866      70743A20 
 1866      696E7661 
 1867              	.LC19:
 1868 0020 6E657463 		.ascii	"netconn_accept: invalid conn\000"
 1868      6F6E6E5F 
 1868      61636365 
 1868      70743A20 
 1868      696E7661 
 1869              		.section	.rodata.netconn_bind.str1.4,"aMS",%progbits,1
 1870              		.align	2
 1871              	.LC14:
 1872 0000 6E657463 		.ascii	"netconn_bind: invalid conn\000"
 1872      6F6E6E5F 
 1872      62696E64 
 1872      3A20696E 
 1872      76616C69 
 1873              		.section	.rodata.netconn_close_shutdown.str1.4,"aMS",%progbits,1
 1874              		.align	2
 1875              	.LC0:
 1876 0000 4D696464 		.ascii	"Middlewares/Third_Party/LwIP/src/api/api_lib.c\000"
 1876      6C657761 
 1876      7265732F 
 1876      54686972 
 1876      645F5061 
 1877 002f 00       		.space	1
 1878              	.LC1:
 1879 0030 6E657463 		.ascii	"netconn_close: invalid conn\000"
 1879      6F6E6E5F 
 1879      636C6F73 
 1879      653A2069 
 1879      6E76616C 
 1880              	.LC2:
 1881 004c 41737365 		.ascii	"Assertion \"%s\" failed at line %d in %s\012\000"
 1881      7274696F 
 1881      6E202225 
 1881      73222066 
 1881      61696C65 
 1882              		.section	.rodata.netconn_connect.str1.4,"aMS",%progbits,1
 1883              		.align	2
 1884              	.LC15:
 1885 0000 6E657463 		.ascii	"netconn_connect: invalid conn\000"
 1885      6F6E6E5F 
 1885      636F6E6E 
 1885      6563743A 
ARM GAS  C:\Users\milek\AppData\Local\Temp\cc6GzPmq.s 			page 55


 1885      20696E76 
 1886              		.section	.rodata.netconn_disconnect.str1.4,"aMS",%progbits,1
 1887              		.align	2
 1888              	.LC16:
 1889 0000 6E657463 		.ascii	"netconn_disconnect: invalid conn\000"
 1889      6F6E6E5F 
 1889      64697363 
 1889      6F6E6E65 
 1889      63743A20 
 1890              		.section	.rodata.netconn_getaddr.str1.4,"aMS",%progbits,1
 1891              		.align	2
 1892              	.LC11:
 1893 0000 6E657463 		.ascii	"netconn_getaddr: invalid conn\000"
 1893      6F6E6E5F 
 1893      67657461 
 1893      6464723A 
 1893      20696E76 
 1894 001e 0000     		.space	2
 1895              	.LC12:
 1896 0020 6E657463 		.ascii	"netconn_getaddr: invalid addr\000"
 1896      6F6E6E5F 
 1896      67657461 
 1896      6464723A 
 1896      20696E76 
 1897 003e 0000     		.space	2
 1898              	.LC13:
 1899 0040 6E657463 		.ascii	"netconn_getaddr: invalid port\000"
 1899      6F6E6E5F 
 1899      67657461 
 1899      6464723A 
 1899      20696E76 
 1900              		.section	.rodata.netconn_gethostbyname.str1.4,"aMS",%progbits,1
 1901              		.align	2
 1902              	.LC24:
 1903 0000 6E657463 		.ascii	"netconn_gethostbyname: invalid name\000"
 1903      6F6E6E5F 
 1903      67657468 
 1903      6F737462 
 1903      796E616D 
 1904              	.LC25:
 1905 0024 6E657463 		.ascii	"netconn_gethostbyname: invalid addr\000"
 1905      6F6E6E5F 
 1905      67657468 
 1905      6F737462 
 1905      796E616D 
 1906              		.section	.rodata.netconn_listen_with_backlog.str1.4,"aMS",%progbits,1
 1907              		.align	2
 1908              	.LC17:
 1909 0000 6E657463 		.ascii	"netconn_listen: invalid conn\000"
 1909      6F6E6E5F 
 1909      6C697374 
 1909      656E3A20 
 1909      696E7661 
 1910              		.section	.rodata.netconn_new_with_proto_and_callback.str1.4,"aMS",%progbits,1
 1911              		.align	2
 1912              	.LC7:
 1913 0000 66726565 		.ascii	"freeing conn without freeing pcb\000"
ARM GAS  C:\Users\milek\AppData\Local\Temp\cc6GzPmq.s 			page 56


 1913      696E6720 
 1913      636F6E6E 
 1913      20776974 
 1913      686F7574 
 1914 0021 000000   		.space	3
 1915              	.LC8:
 1916 0024 636F6E6E 		.ascii	"conn has no recvmbox\000"
 1916      20686173 
 1916      206E6F20 
 1916      72656376 
 1916      6D626F78 
 1917 0039 000000   		.space	3
 1918              	.LC9:
 1919 003c 636F6E6E 		.ascii	"conn->acceptmbox shouldn't exist\000"
 1919      2D3E6163 
 1919      63657074 
 1919      6D626F78 
 1919      2073686F 
 1920 005d 000000   		.space	3
 1921              	.LC10:
 1922 0060 636F6E6E 		.ascii	"conn has no op_completed\000"
 1922      20686173 
 1922      206E6F20 
 1922      6F705F63 
 1922      6F6D706C 
 1923              		.section	.rodata.netconn_recv.str1.4,"aMS",%progbits,1
 1924              		.align	2
 1925              	.LC20:
 1926 0000 7020213D 		.ascii	"p != NULL\000"
 1926      204E554C 
 1926      4C00
 1927              		.section	.rodata.netconn_recv_data.str1.4,"aMS",%progbits,1
 1928              		.align	2
 1929              	.LC3:
 1930 0000 6E657463 		.ascii	"netconn_recv: invalid pointer\000"
 1930      6F6E6E5F 
 1930      72656376 
 1930      3A20696E 
 1930      76616C69 
 1931 001e 0000     		.space	2
 1932              	.LC4:
 1933 0020 6E657463 		.ascii	"netconn_recv: invalid conn\000"
 1933      6F6E6E5F 
 1933      72656376 
 1933      3A20696E 
 1933      76616C69 
 1934 003b 00       		.space	1
 1935              	.LC5:
 1936 003c 6E657463 		.ascii	"netconn_recv: invalid recvmbox\000"
 1936      6F6E6E5F 
 1936      72656376 
 1936      3A20696E 
 1936      76616C69 
 1937 005b 00       		.space	1
 1938              	.LC6:
 1939 005c 62756620 		.ascii	"buf != NULL\000"
 1939      213D204E 
ARM GAS  C:\Users\milek\AppData\Local\Temp\cc6GzPmq.s 			page 57


 1939      554C4C00 
 1940              		.section	.rodata.netconn_send.str1.4,"aMS",%progbits,1
 1941              		.align	2
 1942              	.LC21:
 1943 0000 6E657463 		.ascii	"netconn_send: invalid conn\000"
 1943      6F6E6E5F 
 1943      73656E64 
 1943      3A20696E 
 1943      76616C69 
 1944              		.section	.rodata.netconn_write_partly.str1.4,"aMS",%progbits,1
 1945              		.align	2
 1946              	.LC22:
 1947 0000 6E657463 		.ascii	"netconn_write: invalid conn\000"
 1947      6F6E6E5F 
 1947      77726974 
 1947      653A2069 
 1947      6E76616C 
 1948              	.LC23:
 1949 001c 6E657463 		.ascii	"netconn_write: invalid conn->type\000"
 1949      6F6E6E5F 
 1949      77726974 
 1949      653A2069 
 1949      6E76616C 
 1950              		.text
 1951              	.Letext0:
 1952              		.file 2 "d:\\program files (x86)\\gnu\\7_2018-q2-update\\arm-none-eabi\\include\\machine\\_default
 1953              		.file 3 "d:\\program files (x86)\\gnu\\7_2018-q2-update\\arm-none-eabi\\include\\sys\\_stdint.h"
 1954              		.file 4 "Drivers/CMSIS/Include/core_cm7.h"
 1955              		.file 5 "Drivers/CMSIS/Device/ST/STM32F7xx/Include/system_stm32f7xx.h"
 1956              		.file 6 "d:\\program files (x86)\\gnu\\7_2018-q2-update\\lib\\gcc\\arm-none-eabi\\7.3.1\\include\\
 1957              		.file 7 "d:\\program files (x86)\\gnu\\7_2018-q2-update\\arm-none-eabi\\include\\sys\\lock.h"
 1958              		.file 8 "d:\\program files (x86)\\gnu\\7_2018-q2-update\\arm-none-eabi\\include\\sys\\_types.h"
 1959              		.file 9 "d:\\program files (x86)\\gnu\\7_2018-q2-update\\arm-none-eabi\\include\\sys\\reent.h"
 1960              		.file 10 "d:\\program files (x86)\\gnu\\7_2018-q2-update\\arm-none-eabi\\include\\stdlib.h"
 1961              		.file 11 "Middlewares/Third_Party/LwIP/system/arch/cc.h"
 1962              		.file 12 "d:\\program files (x86)\\gnu\\7_2018-q2-update\\arm-none-eabi\\include\\time.h"
 1963              		.file 13 "Middlewares/Third_Party/LwIP/src/include/lwip/arch.h"
 1964              		.file 14 "Middlewares/Third_Party/LwIP/src/include/lwip/err.h"
 1965              		.file 15 "Middlewares/Third_Party/LwIP/src/include/lwip/pbuf.h"
 1966              		.file 16 "Middlewares/Third_Party/LwIP/src/include/lwip/ip4_addr.h"
 1967              		.file 17 "Middlewares/Third_Party/LwIP/src/include/lwip/ip_addr.h"
 1968              		.file 18 "Middlewares/Third_Party/LwIP/src/include/lwip/netbuf.h"
 1969              		.file 19 "Middlewares/Third_Party/FreeRTOS/Source/include/queue.h"
 1970              		.file 20 "Middlewares/Third_Party/FreeRTOS/Source/include/semphr.h"
 1971              		.file 21 "Middlewares/Third_Party/FreeRTOS/Source/CMSIS_RTOS/cmsis_os.h"
 1972              		.file 22 "Middlewares/Third_Party/LwIP/system/arch/sys_arch.h"
 1973              		.file 23 "Middlewares/Third_Party/LwIP/src/include/lwip/api.h"
 1974              		.file 24 "Middlewares/Third_Party/LwIP/src/include/lwip/ip.h"
 1975              		.file 25 "Middlewares/Third_Party/LwIP/src/include/lwip/tcp.h"
 1976              		.file 26 "Middlewares/Third_Party/LwIP/src/include/lwip/udp.h"
 1977              		.file 27 "Middlewares/Third_Party/LwIP/src/include/lwip/priv/api_msg.h"
 1978              		.file 28 "Middlewares/Third_Party/LwIP/src/include/lwip/memp.h"
 1979              		.file 29 "Middlewares/Third_Party/LwIP/src/include/lwip/priv/memp_priv.h"
 1980              		.file 30 "Middlewares/Third_Party/LwIP/src/include/lwip/netif.h"
 1981              		.file 31 "Middlewares/Third_Party/LwIP/src/include/lwip/prot/ip4.h"
 1982              		.file 32 "Middlewares/Third_Party/LwIP/src/include/lwip/timeouts.h"
 1983              		.file 33 "Middlewares/Third_Party/LwIP/src/include/lwip/tcpip.h"
ARM GAS  C:\Users\milek\AppData\Local\Temp\cc6GzPmq.s 			page 58


 1984              		.file 34 "Middlewares/Third_Party/LwIP/src/include/lwip/priv/tcp_priv.h"
 1985              		.file 35 "Middlewares/Third_Party/LwIP/src/include/lwip/prot/tcp.h"
 1986              		.file 36 "Middlewares/Third_Party/LwIP/src/include/lwip/sys.h"
 1987              		.file 37 "d:\\program files (x86)\\gnu\\7_2018-q2-update\\arm-none-eabi\\include\\stdio.h"
 1988              		.file 38 "Middlewares/Third_Party/LwIP/src/include/lwip/priv/tcpip_priv.h"
ARM GAS  C:\Users\milek\AppData\Local\Temp\cc6GzPmq.s 			page 59

