ARM GAS  C:\Users\Student\AppData\Local\Temp\ccmFnxUZ.s 			page 1


   1              		.cpu cortex-m7
   2              		.eabi_attribute 27, 1
   3              		.eabi_attribute 28, 1
   4              		.eabi_attribute 20, 1
   5              		.eabi_attribute 21, 1
   6              		.eabi_attribute 23, 3
   7              		.eabi_attribute 24, 1
   8              		.eabi_attribute 25, 1
   9              		.eabi_attribute 26, 1
  10              		.eabi_attribute 30, 1
  11              		.eabi_attribute 34, 1
  12              		.eabi_attribute 18, 4
  13              		.file	"def.c"
  14              		.text
  15              	.Ltext0:
  16              		.cfi_sections	.debug_frame
  17              		.section	.text.lwip_htons,"ax",%progbits
  18              		.align	1
  19              		.global	lwip_htons
  20              		.syntax unified
  21              		.thumb
  22              		.thumb_func
  23              		.fpu fpv5-sp-d16
  25              	lwip_htons:
  26              	.LFB152:
  27              		.file 1 "Middlewares/Third_Party/LwIP/src/core/def.c"
   1:Middlewares/Third_Party/LwIP/src/core/def.c **** /**
   2:Middlewares/Third_Party/LwIP/src/core/def.c ****  * @file
   3:Middlewares/Third_Party/LwIP/src/core/def.c ****  * Common functions used throughout the stack.
   4:Middlewares/Third_Party/LwIP/src/core/def.c ****  *
   5:Middlewares/Third_Party/LwIP/src/core/def.c ****  * These are reference implementations of the byte swapping functions.
   6:Middlewares/Third_Party/LwIP/src/core/def.c ****  * Again with the aim of being simple, correct and fully portable.
   7:Middlewares/Third_Party/LwIP/src/core/def.c ****  * Byte swapping is the second thing you would want to optimize. You will
   8:Middlewares/Third_Party/LwIP/src/core/def.c ****  * need to port it to your architecture and in your cc.h:
   9:Middlewares/Third_Party/LwIP/src/core/def.c ****  *
  10:Middlewares/Third_Party/LwIP/src/core/def.c ****  * \#define lwip_htons(x) your_htons
  11:Middlewares/Third_Party/LwIP/src/core/def.c ****  * \#define lwip_htonl(x) your_htonl
  12:Middlewares/Third_Party/LwIP/src/core/def.c ****  *
  13:Middlewares/Third_Party/LwIP/src/core/def.c ****  * Note lwip_ntohs() and lwip_ntohl() are merely references to the htonx counterparts.
  14:Middlewares/Third_Party/LwIP/src/core/def.c ****  * 
  15:Middlewares/Third_Party/LwIP/src/core/def.c ****  * If you \#define them to htons() and htonl(), you should
  16:Middlewares/Third_Party/LwIP/src/core/def.c ****  * \#define LWIP_DONT_PROVIDE_BYTEORDER_FUNCTIONS to prevent lwIP from
  17:Middlewares/Third_Party/LwIP/src/core/def.c ****  * defining htonx/ntohx compatibility macros.
  18:Middlewares/Third_Party/LwIP/src/core/def.c **** 
  19:Middlewares/Third_Party/LwIP/src/core/def.c ****  * @defgroup sys_nonstandard Non-standard functions
  20:Middlewares/Third_Party/LwIP/src/core/def.c ****  * @ingroup sys_layer
  21:Middlewares/Third_Party/LwIP/src/core/def.c ****  * lwIP provides default implementations for non-standard functions.
  22:Middlewares/Third_Party/LwIP/src/core/def.c ****  * These can be mapped to OS functions to reduce code footprint if desired.
  23:Middlewares/Third_Party/LwIP/src/core/def.c ****  * All defines related to this section must not be placed in lwipopts.h,
  24:Middlewares/Third_Party/LwIP/src/core/def.c ****  * but in arch/cc.h!
  25:Middlewares/Third_Party/LwIP/src/core/def.c ****  * These options cannot be \#defined in lwipopts.h since they are not options
  26:Middlewares/Third_Party/LwIP/src/core/def.c ****  * of lwIP itself, but options of the lwIP port to your system.
  27:Middlewares/Third_Party/LwIP/src/core/def.c ****  */
  28:Middlewares/Third_Party/LwIP/src/core/def.c **** 
  29:Middlewares/Third_Party/LwIP/src/core/def.c **** /*
  30:Middlewares/Third_Party/LwIP/src/core/def.c ****  * Copyright (c) 2001-2004 Swedish Institute of Computer Science.
  31:Middlewares/Third_Party/LwIP/src/core/def.c ****  * All rights reserved.
ARM GAS  C:\Users\Student\AppData\Local\Temp\ccmFnxUZ.s 			page 2


  32:Middlewares/Third_Party/LwIP/src/core/def.c ****  *
  33:Middlewares/Third_Party/LwIP/src/core/def.c ****  * Redistribution and use in source and binary forms, with or without modification,
  34:Middlewares/Third_Party/LwIP/src/core/def.c ****  * are permitted provided that the following conditions are met:
  35:Middlewares/Third_Party/LwIP/src/core/def.c ****  *
  36:Middlewares/Third_Party/LwIP/src/core/def.c ****  * 1. Redistributions of source code must retain the above copyright notice,
  37:Middlewares/Third_Party/LwIP/src/core/def.c ****  *    this list of conditions and the following disclaimer.
  38:Middlewares/Third_Party/LwIP/src/core/def.c ****  * 2. Redistributions in binary form must reproduce the above copyright notice,
  39:Middlewares/Third_Party/LwIP/src/core/def.c ****  *    this list of conditions and the following disclaimer in the documentation
  40:Middlewares/Third_Party/LwIP/src/core/def.c ****  *    and/or other materials provided with the distribution.
  41:Middlewares/Third_Party/LwIP/src/core/def.c ****  * 3. The name of the author may not be used to endorse or promote products
  42:Middlewares/Third_Party/LwIP/src/core/def.c ****  *    derived from this software without specific prior written permission.
  43:Middlewares/Third_Party/LwIP/src/core/def.c ****  *
  44:Middlewares/Third_Party/LwIP/src/core/def.c ****  * THIS SOFTWARE IS PROVIDED BY THE AUTHOR ``AS IS'' AND ANY EXPRESS OR IMPLIED
  45:Middlewares/Third_Party/LwIP/src/core/def.c ****  * WARRANTIES, INCLUDING, BUT NOT LIMITED TO, THE IMPLIED WARRANTIES OF
  46:Middlewares/Third_Party/LwIP/src/core/def.c ****  * MERCHANTABILITY AND FITNESS FOR A PARTICULAR PURPOSE ARE DISCLAIMED. IN NO EVENT
  47:Middlewares/Third_Party/LwIP/src/core/def.c ****  * SHALL THE AUTHOR BE LIABLE FOR ANY DIRECT, INDIRECT, INCIDENTAL, SPECIAL,
  48:Middlewares/Third_Party/LwIP/src/core/def.c ****  * EXEMPLARY, OR CONSEQUENTIAL DAMAGES (INCLUDING, BUT NOT LIMITED TO, PROCUREMENT
  49:Middlewares/Third_Party/LwIP/src/core/def.c ****  * OF SUBSTITUTE GOODS OR SERVICES; LOSS OF USE, DATA, OR PROFITS; OR BUSINESS
  50:Middlewares/Third_Party/LwIP/src/core/def.c ****  * INTERRUPTION) HOWEVER CAUSED AND ON ANY THEORY OF LIABILITY, WHETHER IN
  51:Middlewares/Third_Party/LwIP/src/core/def.c ****  * CONTRACT, STRICT LIABILITY, OR TORT (INCLUDING NEGLIGENCE OR OTHERWISE) ARISING
  52:Middlewares/Third_Party/LwIP/src/core/def.c ****  * IN ANY WAY OUT OF THE USE OF THIS SOFTWARE, EVEN IF ADVISED OF THE POSSIBILITY
  53:Middlewares/Third_Party/LwIP/src/core/def.c ****  * OF SUCH DAMAGE.
  54:Middlewares/Third_Party/LwIP/src/core/def.c ****  *
  55:Middlewares/Third_Party/LwIP/src/core/def.c ****  * This file is part of the lwIP TCP/IP stack.
  56:Middlewares/Third_Party/LwIP/src/core/def.c ****  *
  57:Middlewares/Third_Party/LwIP/src/core/def.c ****  * Author: Simon Goldschmidt
  58:Middlewares/Third_Party/LwIP/src/core/def.c ****  *
  59:Middlewares/Third_Party/LwIP/src/core/def.c ****  */
  60:Middlewares/Third_Party/LwIP/src/core/def.c **** 
  61:Middlewares/Third_Party/LwIP/src/core/def.c **** #include "lwip/opt.h"
  62:Middlewares/Third_Party/LwIP/src/core/def.c **** #include "lwip/def.h"
  63:Middlewares/Third_Party/LwIP/src/core/def.c **** 
  64:Middlewares/Third_Party/LwIP/src/core/def.c **** #include <string.h>
  65:Middlewares/Third_Party/LwIP/src/core/def.c **** 
  66:Middlewares/Third_Party/LwIP/src/core/def.c **** #if BYTE_ORDER == LITTLE_ENDIAN
  67:Middlewares/Third_Party/LwIP/src/core/def.c **** 
  68:Middlewares/Third_Party/LwIP/src/core/def.c **** #if !defined(lwip_htons)
  69:Middlewares/Third_Party/LwIP/src/core/def.c **** /**
  70:Middlewares/Third_Party/LwIP/src/core/def.c ****  * Convert an u16_t from host- to network byte order.
  71:Middlewares/Third_Party/LwIP/src/core/def.c ****  *
  72:Middlewares/Third_Party/LwIP/src/core/def.c ****  * @param n u16_t in host byte order
  73:Middlewares/Third_Party/LwIP/src/core/def.c ****  * @return n in network byte order
  74:Middlewares/Third_Party/LwIP/src/core/def.c ****  */
  75:Middlewares/Third_Party/LwIP/src/core/def.c **** u16_t
  76:Middlewares/Third_Party/LwIP/src/core/def.c **** lwip_htons(u16_t n)
  77:Middlewares/Third_Party/LwIP/src/core/def.c **** {
  28              		.loc 1 77 0
  29              		.cfi_startproc
  30              		@ args = 0, pretend = 0, frame = 0
  31              		@ frame_needed = 0, uses_anonymous_args = 0
  32              		@ link register save eliminated.
  33              	.LVL0:
  78:Middlewares/Third_Party/LwIP/src/core/def.c ****   return (u16_t)PP_HTONS(n);
  34              		.loc 1 78 0
  35 0000 40BA     		rev16	r0, r0
  36              	.LVL1:
  79:Middlewares/Third_Party/LwIP/src/core/def.c **** }
ARM GAS  C:\Users\Student\AppData\Local\Temp\ccmFnxUZ.s 			page 3


  37              		.loc 1 79 0
  38 0002 80B2     		uxth	r0, r0
  39 0004 7047     		bx	lr
  40              		.cfi_endproc
  41              	.LFE152:
  43              		.section	.text.lwip_htonl,"ax",%progbits
  44              		.align	1
  45              		.global	lwip_htonl
  46              		.syntax unified
  47              		.thumb
  48              		.thumb_func
  49              		.fpu fpv5-sp-d16
  51              	lwip_htonl:
  52              	.LFB153:
  80:Middlewares/Third_Party/LwIP/src/core/def.c **** #endif /* lwip_htons */
  81:Middlewares/Third_Party/LwIP/src/core/def.c **** 
  82:Middlewares/Third_Party/LwIP/src/core/def.c **** #if !defined(lwip_htonl)
  83:Middlewares/Third_Party/LwIP/src/core/def.c **** /**
  84:Middlewares/Third_Party/LwIP/src/core/def.c ****  * Convert an u32_t from host- to network byte order.
  85:Middlewares/Third_Party/LwIP/src/core/def.c ****  *
  86:Middlewares/Third_Party/LwIP/src/core/def.c ****  * @param n u32_t in host byte order
  87:Middlewares/Third_Party/LwIP/src/core/def.c ****  * @return n in network byte order
  88:Middlewares/Third_Party/LwIP/src/core/def.c ****  */
  89:Middlewares/Third_Party/LwIP/src/core/def.c **** u32_t
  90:Middlewares/Third_Party/LwIP/src/core/def.c **** lwip_htonl(u32_t n)
  91:Middlewares/Third_Party/LwIP/src/core/def.c **** {
  53              		.loc 1 91 0
  54              		.cfi_startproc
  55              		@ args = 0, pretend = 0, frame = 0
  56              		@ frame_needed = 0, uses_anonymous_args = 0
  57              		@ link register save eliminated.
  58              	.LVL2:
  92:Middlewares/Third_Party/LwIP/src/core/def.c ****   return (u32_t)PP_HTONL(n);
  59              		.loc 1 92 0
  60 0000 0302     		lsls	r3, r0, #8
  61 0002 03F47F03 		and	r3, r3, #16711680
  62 0006 43EA0063 		orr	r3, r3, r0, lsl #24
  63 000a 020A     		lsrs	r2, r0, #8
  64 000c 02F47F42 		and	r2, r2, #65280
  65 0010 1343     		orrs	r3, r3, r2
  93:Middlewares/Third_Party/LwIP/src/core/def.c **** }
  66              		.loc 1 93 0
  67 0012 43EA1060 		orr	r0, r3, r0, lsr #24
  68              	.LVL3:
  69 0016 7047     		bx	lr
  70              		.cfi_endproc
  71              	.LFE153:
  73              		.section	.text.lwip_strnstr,"ax",%progbits
  74              		.align	1
  75              		.global	lwip_strnstr
  76              		.syntax unified
  77              		.thumb
  78              		.thumb_func
  79              		.fpu fpv5-sp-d16
  81              	lwip_strnstr:
  82              	.LFB154:
  94:Middlewares/Third_Party/LwIP/src/core/def.c **** #endif /* lwip_htonl */
ARM GAS  C:\Users\Student\AppData\Local\Temp\ccmFnxUZ.s 			page 4


  95:Middlewares/Third_Party/LwIP/src/core/def.c **** 
  96:Middlewares/Third_Party/LwIP/src/core/def.c **** #endif /* BYTE_ORDER == LITTLE_ENDIAN */
  97:Middlewares/Third_Party/LwIP/src/core/def.c **** 
  98:Middlewares/Third_Party/LwIP/src/core/def.c **** #ifndef lwip_strnstr
  99:Middlewares/Third_Party/LwIP/src/core/def.c **** /**
 100:Middlewares/Third_Party/LwIP/src/core/def.c ****  * @ingroup sys_nonstandard
 101:Middlewares/Third_Party/LwIP/src/core/def.c ****  * lwIP default implementation for strnstr() non-standard function.
 102:Middlewares/Third_Party/LwIP/src/core/def.c ****  * This can be \#defined to strnstr() depending on your platform port.
 103:Middlewares/Third_Party/LwIP/src/core/def.c ****  */
 104:Middlewares/Third_Party/LwIP/src/core/def.c **** char*
 105:Middlewares/Third_Party/LwIP/src/core/def.c **** lwip_strnstr(const char* buffer, const char* token, size_t n)
 106:Middlewares/Third_Party/LwIP/src/core/def.c **** {
  83              		.loc 1 106 0
  84              		.cfi_startproc
  85              		@ args = 0, pretend = 0, frame = 0
  86              		@ frame_needed = 0, uses_anonymous_args = 0
  87              	.LVL4:
  88 0000 2DE9F041 		push	{r4, r5, r6, r7, r8, lr}
  89              	.LCFI0:
  90              		.cfi_def_cfa_offset 24
  91              		.cfi_offset 4, -24
  92              		.cfi_offset 5, -20
  93              		.cfi_offset 6, -16
  94              		.cfi_offset 7, -12
  95              		.cfi_offset 8, -8
  96              		.cfi_offset 14, -4
  97 0004 0646     		mov	r6, r0
  98 0006 0D46     		mov	r5, r1
  99 0008 9046     		mov	r8, r2
 107:Middlewares/Third_Party/LwIP/src/core/def.c ****   const char* p;
 108:Middlewares/Third_Party/LwIP/src/core/def.c ****   size_t tokenlen = strlen(token);
 100              		.loc 1 108 0
 101 000a 0846     		mov	r0, r1
 102              	.LVL5:
 103 000c FFF7FEFF 		bl	strlen
 104              	.LVL6:
 109:Middlewares/Third_Party/LwIP/src/core/def.c ****   if (tokenlen == 0) {
 105              		.loc 1 109 0
 106 0010 D0B1     		cbz	r0, .L8
 107 0012 0746     		mov	r7, r0
 108 0014 3446     		mov	r4, r6
 109 0016 00E0     		b	.L5
 110              	.LVL7:
 111              	.L6:
 110:Middlewares/Third_Party/LwIP/src/core/def.c ****     return LWIP_CONST_CAST(char *, buffer);
 111:Middlewares/Third_Party/LwIP/src/core/def.c ****   }
 112:Middlewares/Third_Party/LwIP/src/core/def.c ****   for (p = buffer; *p && (p + tokenlen <= buffer + n); p++) {
 112              		.loc 1 112 0 discriminator 2
 113 0018 0134     		adds	r4, r4, #1
 114              	.LVL8:
 115              	.L5:
 116              		.loc 1 112 0 is_stmt 0 discriminator 1
 117 001a 2278     		ldrb	r2, [r4]	@ zero_extendqisi2
 118 001c BAB1     		cbz	r2, .L10
 119              		.loc 1 112 0 discriminator 3
 120 001e E319     		adds	r3, r4, r7
 121 0020 06EB0801 		add	r1, r6, r8
ARM GAS  C:\Users\Student\AppData\Local\Temp\ccmFnxUZ.s 			page 5


 122 0024 8B42     		cmp	r3, r1
 123 0026 0CD8     		bhi	.L12
 113:Middlewares/Third_Party/LwIP/src/core/def.c ****     if ((*p == *token) && (strncmp(p, token, tokenlen) == 0)) {
 124              		.loc 1 113 0 is_stmt 1
 125 0028 2B78     		ldrb	r3, [r5]	@ zero_extendqisi2
 126 002a 9A42     		cmp	r2, r3
 127 002c F4D1     		bne	.L6
 128              		.loc 1 113 0 is_stmt 0 discriminator 1
 129 002e 3A46     		mov	r2, r7
 130 0030 2946     		mov	r1, r5
 131 0032 2046     		mov	r0, r4
 132 0034 FFF7FEFF 		bl	strncmp
 133              	.LVL9:
 134 0038 0028     		cmp	r0, #0
 135 003a EDD1     		bne	.L6
 114:Middlewares/Third_Party/LwIP/src/core/def.c ****       return LWIP_CONST_CAST(char *, p);
 136              		.loc 1 114 0 is_stmt 1
 137 003c 2046     		mov	r0, r4
 138 003e BDE8F081 		pop	{r4, r5, r6, r7, r8, pc}
 139              	.LVL10:
 140              	.L12:
 115:Middlewares/Third_Party/LwIP/src/core/def.c ****     }
 116:Middlewares/Third_Party/LwIP/src/core/def.c ****   }
 117:Middlewares/Third_Party/LwIP/src/core/def.c ****   return NULL;
 141              		.loc 1 117 0
 142 0042 0020     		movs	r0, #0
 143 0044 BDE8F081 		pop	{r4, r5, r6, r7, r8, pc}
 144              	.LVL11:
 145              	.L8:
 110:Middlewares/Third_Party/LwIP/src/core/def.c ****   }
 146              		.loc 1 110 0
 147 0048 3046     		mov	r0, r6
 148              	.LVL12:
 149 004a BDE8F081 		pop	{r4, r5, r6, r7, r8, pc}
 150              	.LVL13:
 151              	.L10:
 152              		.loc 1 117 0
 153 004e 0020     		movs	r0, #0
 118:Middlewares/Third_Party/LwIP/src/core/def.c **** }
 154              		.loc 1 118 0
 155 0050 BDE8F081 		pop	{r4, r5, r6, r7, r8, pc}
 156              		.cfi_endproc
 157              	.LFE154:
 159              		.section	.text.lwip_stricmp,"ax",%progbits
 160              		.align	1
 161              		.global	lwip_stricmp
 162              		.syntax unified
 163              		.thumb
 164              		.thumb_func
 165              		.fpu fpv5-sp-d16
 167              	lwip_stricmp:
 168              	.LFB155:
 119:Middlewares/Third_Party/LwIP/src/core/def.c **** #endif
 120:Middlewares/Third_Party/LwIP/src/core/def.c **** 
 121:Middlewares/Third_Party/LwIP/src/core/def.c **** #ifndef lwip_stricmp
 122:Middlewares/Third_Party/LwIP/src/core/def.c **** /**
 123:Middlewares/Third_Party/LwIP/src/core/def.c ****  * @ingroup sys_nonstandard
ARM GAS  C:\Users\Student\AppData\Local\Temp\ccmFnxUZ.s 			page 6


 124:Middlewares/Third_Party/LwIP/src/core/def.c ****  * lwIP default implementation for stricmp() non-standard function.
 125:Middlewares/Third_Party/LwIP/src/core/def.c ****  * This can be \#defined to stricmp() depending on your platform port.
 126:Middlewares/Third_Party/LwIP/src/core/def.c ****  */
 127:Middlewares/Third_Party/LwIP/src/core/def.c **** int
 128:Middlewares/Third_Party/LwIP/src/core/def.c **** lwip_stricmp(const char* str1, const char* str2)
 129:Middlewares/Third_Party/LwIP/src/core/def.c **** {
 169              		.loc 1 129 0
 170              		.cfi_startproc
 171              		@ args = 0, pretend = 0, frame = 0
 172              		@ frame_needed = 0, uses_anonymous_args = 0
 173              		@ link register save eliminated.
 174              	.LVL14:
 175 0000 30B4     		push	{r4, r5}
 176              	.LCFI1:
 177              		.cfi_def_cfa_offset 8
 178              		.cfi_offset 4, -8
 179              		.cfi_offset 5, -4
 180 0002 02E0     		b	.L16
 181              	.LVL15:
 182              	.L14:
 130:Middlewares/Third_Party/LwIP/src/core/def.c ****   char c1, c2;
 131:Middlewares/Third_Party/LwIP/src/core/def.c **** 
 132:Middlewares/Third_Party/LwIP/src/core/def.c ****   do {
 133:Middlewares/Third_Party/LwIP/src/core/def.c ****     c1 = *str1++;
 183              		.loc 1 133 0
 184 0004 2846     		mov	r0, r5
 134:Middlewares/Third_Party/LwIP/src/core/def.c ****     c2 = *str2++;
 185              		.loc 1 134 0
 186 0006 2146     		mov	r1, r4
 135:Middlewares/Third_Party/LwIP/src/core/def.c ****     if (c1 != c2) {
 136:Middlewares/Third_Party/LwIP/src/core/def.c ****       char c1_upc = c1 | 0x20;
 137:Middlewares/Third_Party/LwIP/src/core/def.c ****       if ((c1_upc >= 'a') && (c1_upc <= 'z')) {
 138:Middlewares/Third_Party/LwIP/src/core/def.c ****         /* characters are not equal an one is in the alphabet range:
 139:Middlewares/Third_Party/LwIP/src/core/def.c ****         downcase both chars and check again */
 140:Middlewares/Third_Party/LwIP/src/core/def.c ****         char c2_upc = c2 | 0x20;
 141:Middlewares/Third_Party/LwIP/src/core/def.c ****         if (c1_upc != c2_upc) {
 142:Middlewares/Third_Party/LwIP/src/core/def.c ****           /* still not equal */
 143:Middlewares/Third_Party/LwIP/src/core/def.c ****           /* don't care for < or > */
 144:Middlewares/Third_Party/LwIP/src/core/def.c ****           return 1;
 145:Middlewares/Third_Party/LwIP/src/core/def.c ****         }
 146:Middlewares/Third_Party/LwIP/src/core/def.c ****       } else {
 147:Middlewares/Third_Party/LwIP/src/core/def.c ****         /* characters are not equal but none is in the alphabet range */
 148:Middlewares/Third_Party/LwIP/src/core/def.c ****         return 1;
 149:Middlewares/Third_Party/LwIP/src/core/def.c ****       }
 150:Middlewares/Third_Party/LwIP/src/core/def.c ****     }
 151:Middlewares/Third_Party/LwIP/src/core/def.c ****   } while (c1 != 0);
 187              		.loc 1 151 0
 188 0008 92B1     		cbz	r2, .L20
 189              	.LVL16:
 190              	.L16:
 133:Middlewares/Third_Party/LwIP/src/core/def.c ****     c2 = *str2++;
 191              		.loc 1 133 0
 192 000a 451C     		adds	r5, r0, #1
 193              	.LVL17:
 194 000c 0278     		ldrb	r2, [r0]	@ zero_extendqisi2
 195              	.LVL18:
 134:Middlewares/Third_Party/LwIP/src/core/def.c ****     c2 = *str2++;
ARM GAS  C:\Users\Student\AppData\Local\Temp\ccmFnxUZ.s 			page 7


 196              		.loc 1 134 0
 197 000e 4C1C     		adds	r4, r1, #1
 198              	.LVL19:
 199 0010 0B78     		ldrb	r3, [r1]	@ zero_extendqisi2
 200              	.LVL20:
 135:Middlewares/Third_Party/LwIP/src/core/def.c ****     if (c1 != c2) {
 201              		.loc 1 135 0
 202 0012 9A42     		cmp	r2, r3
 203 0014 F6D0     		beq	.L14
 204              	.LBB2:
 136:Middlewares/Third_Party/LwIP/src/core/def.c ****       if ((c1_upc >= 'a') && (c1_upc <= 'z')) {
 205              		.loc 1 136 0
 206 0016 42F02000 		orr	r0, r2, #32
 207              	.LVL21:
 137:Middlewares/Third_Party/LwIP/src/core/def.c ****         /* characters are not equal an one is in the alphabet range:
 208              		.loc 1 137 0
 209 001a A0F16101 		sub	r1, r0, #97
 210 001e C9B2     		uxtb	r1, r1
 211 0020 1929     		cmp	r1, #25
 212 0022 08D8     		bhi	.L17
 213              	.LBB3:
 140:Middlewares/Third_Party/LwIP/src/core/def.c ****         if (c1_upc != c2_upc) {
 214              		.loc 1 140 0
 215 0024 43F02003 		orr	r3, r3, #32
 216              	.LVL22:
 141:Middlewares/Third_Party/LwIP/src/core/def.c ****           /* still not equal */
 217              		.loc 1 141 0
 218 0028 9842     		cmp	r0, r3
 219 002a EBD0     		beq	.L14
 144:Middlewares/Third_Party/LwIP/src/core/def.c ****         }
 220              		.loc 1 144 0
 221 002c 0120     		movs	r0, #1
 222              	.LVL23:
 223 002e 00E0     		b	.L13
 224              	.LVL24:
 225              	.L20:
 226              	.LBE3:
 227              	.LBE2:
 152:Middlewares/Third_Party/LwIP/src/core/def.c ****   return 0;
 228              		.loc 1 152 0
 229 0030 0020     		movs	r0, #0
 230              	.LVL25:
 231              	.L13:
 153:Middlewares/Third_Party/LwIP/src/core/def.c **** }
 232              		.loc 1 153 0
 233 0032 30BC     		pop	{r4, r5}
 234              	.LCFI2:
 235              		.cfi_remember_state
 236              		.cfi_restore 5
 237              		.cfi_restore 4
 238              		.cfi_def_cfa_offset 0
 239              	.LVL26:
 240 0034 7047     		bx	lr
 241              	.LVL27:
 242              	.L17:
 243              	.LCFI3:
 244              		.cfi_restore_state
ARM GAS  C:\Users\Student\AppData\Local\Temp\ccmFnxUZ.s 			page 8


 245              	.LBB4:
 148:Middlewares/Third_Party/LwIP/src/core/def.c ****       }
 246              		.loc 1 148 0
 247 0036 0120     		movs	r0, #1
 248              	.LVL28:
 249 0038 FBE7     		b	.L13
 250              	.LBE4:
 251              		.cfi_endproc
 252              	.LFE155:
 254              		.section	.text.lwip_strnicmp,"ax",%progbits
 255              		.align	1
 256              		.global	lwip_strnicmp
 257              		.syntax unified
 258              		.thumb
 259              		.thumb_func
 260              		.fpu fpv5-sp-d16
 262              	lwip_strnicmp:
 263              	.LFB156:
 154:Middlewares/Third_Party/LwIP/src/core/def.c **** #endif
 155:Middlewares/Third_Party/LwIP/src/core/def.c **** 
 156:Middlewares/Third_Party/LwIP/src/core/def.c **** #ifndef lwip_strnicmp
 157:Middlewares/Third_Party/LwIP/src/core/def.c **** /**
 158:Middlewares/Third_Party/LwIP/src/core/def.c ****  * @ingroup sys_nonstandard
 159:Middlewares/Third_Party/LwIP/src/core/def.c ****  * lwIP default implementation for strnicmp() non-standard function.
 160:Middlewares/Third_Party/LwIP/src/core/def.c ****  * This can be \#defined to strnicmp() depending on your platform port.
 161:Middlewares/Third_Party/LwIP/src/core/def.c ****  */
 162:Middlewares/Third_Party/LwIP/src/core/def.c **** int
 163:Middlewares/Third_Party/LwIP/src/core/def.c **** lwip_strnicmp(const char* str1, const char* str2, size_t len)
 164:Middlewares/Third_Party/LwIP/src/core/def.c **** {
 264              		.loc 1 164 0
 265              		.cfi_startproc
 266              		@ args = 0, pretend = 0, frame = 0
 267              		@ frame_needed = 0, uses_anonymous_args = 0
 268              		@ link register save eliminated.
 269              	.LVL29:
 270 0000 70B4     		push	{r4, r5, r6}
 271              	.LCFI4:
 272              		.cfi_def_cfa_offset 12
 273              		.cfi_offset 4, -12
 274              		.cfi_offset 5, -8
 275              		.cfi_offset 6, -4
 276 0002 05E0     		b	.L24
 277              	.LVL30:
 278              	.L22:
 165:Middlewares/Third_Party/LwIP/src/core/def.c ****   char c1, c2;
 166:Middlewares/Third_Party/LwIP/src/core/def.c **** 
 167:Middlewares/Third_Party/LwIP/src/core/def.c ****   do {
 168:Middlewares/Third_Party/LwIP/src/core/def.c ****     c1 = *str1++;
 169:Middlewares/Third_Party/LwIP/src/core/def.c ****     c2 = *str2++;
 170:Middlewares/Third_Party/LwIP/src/core/def.c ****     if (c1 != c2) {
 171:Middlewares/Third_Party/LwIP/src/core/def.c ****       char c1_upc = c1 | 0x20;
 172:Middlewares/Third_Party/LwIP/src/core/def.c ****       if ((c1_upc >= 'a') && (c1_upc <= 'z')) {
 173:Middlewares/Third_Party/LwIP/src/core/def.c ****         /* characters are not equal an one is in the alphabet range:
 174:Middlewares/Third_Party/LwIP/src/core/def.c ****         downcase both chars and check again */
 175:Middlewares/Third_Party/LwIP/src/core/def.c ****         char c2_upc = c2 | 0x20;
 176:Middlewares/Third_Party/LwIP/src/core/def.c ****         if (c1_upc != c2_upc) {
 177:Middlewares/Third_Party/LwIP/src/core/def.c ****           /* still not equal */
ARM GAS  C:\Users\Student\AppData\Local\Temp\ccmFnxUZ.s 			page 9


 178:Middlewares/Third_Party/LwIP/src/core/def.c ****           /* don't care for < or > */
 179:Middlewares/Third_Party/LwIP/src/core/def.c ****           return 1;
 180:Middlewares/Third_Party/LwIP/src/core/def.c ****         }
 181:Middlewares/Third_Party/LwIP/src/core/def.c ****       } else {
 182:Middlewares/Third_Party/LwIP/src/core/def.c ****         /* characters are not equal but none is in the alphabet range */
 183:Middlewares/Third_Party/LwIP/src/core/def.c ****         return 1;
 184:Middlewares/Third_Party/LwIP/src/core/def.c ****       }
 185:Middlewares/Third_Party/LwIP/src/core/def.c ****     }
 186:Middlewares/Third_Party/LwIP/src/core/def.c ****   } while (len-- && c1 != 0);
 279              		.loc 1 186 0
 280 0004 531E     		subs	r3, r2, #1
 281              	.LVL31:
 282 0006 D2B1     		cbz	r2, .L27
 168:Middlewares/Third_Party/LwIP/src/core/def.c ****     c2 = *str2++;
 283              		.loc 1 168 0 discriminator 1
 284 0008 3046     		mov	r0, r6
 169:Middlewares/Third_Party/LwIP/src/core/def.c ****     if (c1 != c2) {
 285              		.loc 1 169 0 discriminator 1
 286 000a 2946     		mov	r1, r5
 287              		.loc 1 186 0 discriminator 1
 288 000c 9CB1     		cbz	r4, .L30
 289              	.LVL32:
 290              		.loc 1 186 0 is_stmt 0
 291 000e 1A46     		mov	r2, r3
 292              	.LVL33:
 293              	.L24:
 168:Middlewares/Third_Party/LwIP/src/core/def.c ****     c2 = *str2++;
 294              		.loc 1 168 0 is_stmt 1
 295 0010 461C     		adds	r6, r0, #1
 296              	.LVL34:
 297 0012 0478     		ldrb	r4, [r0]	@ zero_extendqisi2
 298              	.LVL35:
 169:Middlewares/Third_Party/LwIP/src/core/def.c ****     if (c1 != c2) {
 299              		.loc 1 169 0
 300 0014 4D1C     		adds	r5, r1, #1
 301              	.LVL36:
 302 0016 0B78     		ldrb	r3, [r1]	@ zero_extendqisi2
 303              	.LVL37:
 170:Middlewares/Third_Party/LwIP/src/core/def.c ****       char c1_upc = c1 | 0x20;
 304              		.loc 1 170 0
 305 0018 9C42     		cmp	r4, r3
 306 001a F3D0     		beq	.L22
 307              	.LBB5:
 171:Middlewares/Third_Party/LwIP/src/core/def.c ****       if ((c1_upc >= 'a') && (c1_upc <= 'z')) {
 308              		.loc 1 171 0
 309 001c 44F02000 		orr	r0, r4, #32
 310              	.LVL38:
 172:Middlewares/Third_Party/LwIP/src/core/def.c ****         /* characters are not equal an one is in the alphabet range:
 311              		.loc 1 172 0
 312 0020 A0F16101 		sub	r1, r0, #97
 313 0024 C9B2     		uxtb	r1, r1
 314 0026 1929     		cmp	r1, #25
 315 0028 07D8     		bhi	.L25
 316              	.LBB6:
 175:Middlewares/Third_Party/LwIP/src/core/def.c ****         if (c1_upc != c2_upc) {
 317              		.loc 1 175 0
 318 002a 43F02003 		orr	r3, r3, #32
ARM GAS  C:\Users\Student\AppData\Local\Temp\ccmFnxUZ.s 			page 10


 319              	.LVL39:
 176:Middlewares/Third_Party/LwIP/src/core/def.c ****           /* still not equal */
 320              		.loc 1 176 0
 321 002e 9842     		cmp	r0, r3
 322 0030 E8D0     		beq	.L22
 179:Middlewares/Third_Party/LwIP/src/core/def.c ****         }
 323              		.loc 1 179 0
 324 0032 0120     		movs	r0, #1
 325              	.LVL40:
 326 0034 04E0     		b	.L21
 327              	.LVL41:
 328              	.L30:
 329              	.LBE6:
 330              	.LBE5:
 187:Middlewares/Third_Party/LwIP/src/core/def.c ****   return 0;
 331              		.loc 1 187 0
 332 0036 0020     		movs	r0, #0
 333              	.LVL42:
 334 0038 02E0     		b	.L21
 335              	.LVL43:
 336              	.L25:
 337              	.LBB7:
 183:Middlewares/Third_Party/LwIP/src/core/def.c ****       }
 338              		.loc 1 183 0
 339 003a 0120     		movs	r0, #1
 340              	.LVL44:
 341 003c 00E0     		b	.L21
 342              	.LVL45:
 343              	.L27:
 344              	.LBE7:
 345              		.loc 1 187 0
 346 003e 0020     		movs	r0, #0
 347              	.LVL46:
 348              	.L21:
 188:Middlewares/Third_Party/LwIP/src/core/def.c **** }
 349              		.loc 1 188 0
 350 0040 70BC     		pop	{r4, r5, r6}
 351              	.LCFI5:
 352              		.cfi_restore 6
 353              		.cfi_restore 5
 354              		.cfi_restore 4
 355              		.cfi_def_cfa_offset 0
 356              	.LVL47:
 357 0042 7047     		bx	lr
 358              		.cfi_endproc
 359              	.LFE156:
 361              		.section	.text.lwip_itoa,"ax",%progbits
 362              		.align	1
 363              		.global	lwip_itoa
 364              		.syntax unified
 365              		.thumb
 366              		.thumb_func
 367              		.fpu fpv5-sp-d16
 369              	lwip_itoa:
 370              	.LFB157:
 189:Middlewares/Third_Party/LwIP/src/core/def.c **** #endif
 190:Middlewares/Third_Party/LwIP/src/core/def.c **** 
ARM GAS  C:\Users\Student\AppData\Local\Temp\ccmFnxUZ.s 			page 11


 191:Middlewares/Third_Party/LwIP/src/core/def.c **** #ifndef lwip_itoa
 192:Middlewares/Third_Party/LwIP/src/core/def.c **** /**
 193:Middlewares/Third_Party/LwIP/src/core/def.c ****  * @ingroup sys_nonstandard
 194:Middlewares/Third_Party/LwIP/src/core/def.c ****  * lwIP default implementation for itoa() non-standard function.
 195:Middlewares/Third_Party/LwIP/src/core/def.c ****  * This can be \#defined to itoa() or snprintf(result, bufsize, "%d", number) depending on your pla
 196:Middlewares/Third_Party/LwIP/src/core/def.c ****  */
 197:Middlewares/Third_Party/LwIP/src/core/def.c **** void
 198:Middlewares/Third_Party/LwIP/src/core/def.c **** lwip_itoa(char* result, size_t bufsize, int number)
 199:Middlewares/Third_Party/LwIP/src/core/def.c **** {
 371              		.loc 1 199 0
 372              		.cfi_startproc
 373              		@ args = 0, pretend = 0, frame = 0
 374              		@ frame_needed = 0, uses_anonymous_args = 0
 375              		@ link register save eliminated.
 376              	.LVL48:
 377 0000 70B4     		push	{r4, r5, r6}
 378              	.LCFI6:
 379              		.cfi_def_cfa_offset 12
 380              		.cfi_offset 4, -12
 381              		.cfi_offset 5, -8
 382              		.cfi_offset 6, -4
 383              	.LVL49:
 200:Middlewares/Third_Party/LwIP/src/core/def.c ****   const int base = 10;
 201:Middlewares/Third_Party/LwIP/src/core/def.c ****   char* ptr = result, *ptr1 = result, tmp_char;
 384              		.loc 1 201 0
 385 0002 0446     		mov	r4, r0
 386 0004 01E0     		b	.L32
 387              	.LVL50:
 388              	.L36:
 202:Middlewares/Third_Party/LwIP/src/core/def.c ****   int tmp_value;
 203:Middlewares/Third_Party/LwIP/src/core/def.c ****   LWIP_UNUSED_ARG(bufsize);
 204:Middlewares/Third_Party/LwIP/src/core/def.c **** 
 205:Middlewares/Third_Party/LwIP/src/core/def.c ****   do {
 206:Middlewares/Third_Party/LwIP/src/core/def.c ****     tmp_value = number;
 207:Middlewares/Third_Party/LwIP/src/core/def.c ****     number /= base;
 208:Middlewares/Third_Party/LwIP/src/core/def.c ****     *ptr++ = "zyxwvutsrqponmlkjihgfedcba9876543210123456789abcdefghijklmnopqrstuvwxyz"[35 + (tmp_va
 389              		.loc 1 208 0
 390 0006 2C46     		mov	r4, r5
 207:Middlewares/Third_Party/LwIP/src/core/def.c ****     *ptr++ = "zyxwvutsrqponmlkjihgfedcba9876543210123456789abcdefghijklmnopqrstuvwxyz"[35 + (tmp_va
 391              		.loc 1 207 0
 392 0008 0A46     		mov	r2, r1
 393              	.LVL51:
 394              	.L32:
 207:Middlewares/Third_Party/LwIP/src/core/def.c ****     *ptr++ = "zyxwvutsrqponmlkjihgfedcba9876543210123456789abcdefghijklmnopqrstuvwxyz"[35 + (tmp_va
 395              		.loc 1 207 0 is_stmt 0 discriminator 1
 396 000a 144B     		ldr	r3, .L39
 397 000c 83FB0213 		smull	r1, r3, r3, r2
 398 0010 D117     		asrs	r1, r2, #31
 399 0012 C1EBA301 		rsb	r1, r1, r3, asr #2
 400              	.LVL52:
 401              		.loc 1 208 0 is_stmt 1 discriminator 1
 402 0016 651C     		adds	r5, r4, #1
 403              	.LVL53:
 404 0018 6FF00903 		mvn	r3, #9
 405 001c 03FB0123 		mla	r3, r3, r1, r2
 406 0020 2333     		adds	r3, r3, #35
 407 0022 0F4E     		ldr	r6, .L39+4
ARM GAS  C:\Users\Student\AppData\Local\Temp\ccmFnxUZ.s 			page 12


 408 0024 F35C     		ldrb	r3, [r6, r3]	@ zero_extendqisi2
 409 0026 2370     		strb	r3, [r4]
 209:Middlewares/Third_Party/LwIP/src/core/def.c ****   } while(number);
 410              		.loc 1 209 0 discriminator 1
 411 0028 0029     		cmp	r1, #0
 412 002a ECD1     		bne	.L36
 210:Middlewares/Third_Party/LwIP/src/core/def.c **** 
 211:Middlewares/Third_Party/LwIP/src/core/def.c ****    /* Apply negative sign */
 212:Middlewares/Third_Party/LwIP/src/core/def.c ****   if (tmp_value < 0) {
 413              		.loc 1 212 0
 414 002c 002A     		cmp	r2, #0
 415 002e 03DB     		blt	.L38
 416              	.L33:
 213:Middlewares/Third_Party/LwIP/src/core/def.c ****      *ptr++ = '-';
 214:Middlewares/Third_Party/LwIP/src/core/def.c ****   }
 215:Middlewares/Third_Party/LwIP/src/core/def.c ****   *ptr-- = '\0';
 417              		.loc 1 215 0
 418 0030 6B1E     		subs	r3, r5, #1
 419              	.LVL54:
 420 0032 0022     		movs	r2, #0
 421              	.LVL55:
 422 0034 2A70     		strb	r2, [r5]
 216:Middlewares/Third_Party/LwIP/src/core/def.c ****   while(ptr1 < ptr) {
 423              		.loc 1 216 0
 424 0036 0DE0     		b	.L34
 425              	.LVL56:
 426              	.L38:
 213:Middlewares/Third_Party/LwIP/src/core/def.c ****      *ptr++ = '-';
 427              		.loc 1 213 0
 428 0038 2D23     		movs	r3, #45
 429 003a 2B70     		strb	r3, [r5]
 430 003c A51C     		adds	r5, r4, #2
 431              	.LVL57:
 432 003e F7E7     		b	.L33
 433              	.LVL58:
 434              	.L35:
 217:Middlewares/Third_Party/LwIP/src/core/def.c ****     tmp_char = *ptr;
 435              		.loc 1 217 0
 436 0040 1A46     		mov	r2, r3
 437 0042 12F80149 		ldrb	r4, [r2], #-1	@ zero_extendqisi2
 438              	.LVL59:
 218:Middlewares/Third_Party/LwIP/src/core/def.c ****     *ptr--= *ptr1;
 439              		.loc 1 218 0
 440 0046 0146     		mov	r1, r0
 441 0048 11F8015B 		ldrb	r5, [r1], #1	@ zero_extendqisi2
 442 004c 1D70     		strb	r5, [r3]
 443              	.LVL60:
 219:Middlewares/Third_Party/LwIP/src/core/def.c ****     *ptr1++ = tmp_char;
 444              		.loc 1 219 0
 445 004e 0470     		strb	r4, [r0]
 446 0050 0846     		mov	r0, r1
 218:Middlewares/Third_Party/LwIP/src/core/def.c ****     *ptr--= *ptr1;
 447              		.loc 1 218 0
 448 0052 1346     		mov	r3, r2
 449              	.LVL61:
 450              	.L34:
 216:Middlewares/Third_Party/LwIP/src/core/def.c ****     tmp_char = *ptr;
ARM GAS  C:\Users\Student\AppData\Local\Temp\ccmFnxUZ.s 			page 13


 451              		.loc 1 216 0
 452 0054 8342     		cmp	r3, r0
 453 0056 F3D8     		bhi	.L35
 220:Middlewares/Third_Party/LwIP/src/core/def.c ****   }
 221:Middlewares/Third_Party/LwIP/src/core/def.c **** }
 454              		.loc 1 221 0
 455 0058 70BC     		pop	{r4, r5, r6}
 456              	.LCFI7:
 457              		.cfi_restore 6
 458              		.cfi_restore 5
 459              		.cfi_restore 4
 460              		.cfi_def_cfa_offset 0
 461 005a 7047     		bx	lr
 462              	.L40:
 463              		.align	2
 464              	.L39:
 465 005c 67666666 		.word	1717986919
 466 0060 00000000 		.word	.LC0
 467              		.cfi_endproc
 468              	.LFE157:
 470              		.section	.rodata.lwip_itoa.str1.4,"aMS",%progbits,1
 471              		.align	2
 472              	.LC0:
 473 0000 7A797877 		.ascii	"zyxwvutsrqponmlkjihgfedcba9876543210123456789abcdef"
 473      76757473 
 473      7271706F 
 473      6E6D6C6B 
 473      6A696867 
 474 0033 6768696A 		.ascii	"ghijklmnopqrstuvwxyz\000"
 474      6B6C6D6E 
 474      6F707172 
 474      73747576 
 474      7778797A 
 475              		.text
 476              	.Letext0:
 477              		.file 2 "c:\\gcc_toolchain\\6_2017-q1-update\\arm-none-eabi\\include\\machine\\_default_types.h"
 478              		.file 3 "c:\\gcc_toolchain\\6_2017-q1-update\\arm-none-eabi\\include\\sys\\_stdint.h"
 479              		.file 4 "Drivers/CMSIS/Include/core_cm7.h"
 480              		.file 5 "Drivers/CMSIS/Device/ST/STM32F7xx/Include/system_stm32f7xx.h"
 481              		.file 6 "c:\\gcc_toolchain\\6_2017-q1-update\\lib\\gcc\\arm-none-eabi\\6.3.1\\include\\stddef.h"
 482              		.file 7 "c:\\gcc_toolchain\\6_2017-q1-update\\arm-none-eabi\\include\\sys\\lock.h"
 483              		.file 8 "c:\\gcc_toolchain\\6_2017-q1-update\\arm-none-eabi\\include\\sys\\_types.h"
 484              		.file 9 "c:\\gcc_toolchain\\6_2017-q1-update\\arm-none-eabi\\include\\sys\\reent.h"
 485              		.file 10 "c:\\gcc_toolchain\\6_2017-q1-update\\arm-none-eabi\\include\\stdlib.h"
 486              		.file 11 "c:\\gcc_toolchain\\6_2017-q1-update\\arm-none-eabi\\include\\time.h"
 487              		.file 12 "Middlewares/Third_Party/LwIP/src/include/lwip/arch.h"
 488              		.file 13 "c:\\gcc_toolchain\\6_2017-q1-update\\arm-none-eabi\\include\\string.h"
ARM GAS  C:\Users\Student\AppData\Local\Temp\ccmFnxUZ.s 			page 14


DEFINED SYMBOLS
                            *ABS*:00000000 def.c
C:\Users\Student\AppData\Local\Temp\ccmFnxUZ.s:18     .text.lwip_htons:00000000 $t
C:\Users\Student\AppData\Local\Temp\ccmFnxUZ.s:25     .text.lwip_htons:00000000 lwip_htons
C:\Users\Student\AppData\Local\Temp\ccmFnxUZ.s:44     .text.lwip_htonl:00000000 $t
C:\Users\Student\AppData\Local\Temp\ccmFnxUZ.s:51     .text.lwip_htonl:00000000 lwip_htonl
C:\Users\Student\AppData\Local\Temp\ccmFnxUZ.s:74     .text.lwip_strnstr:00000000 $t
C:\Users\Student\AppData\Local\Temp\ccmFnxUZ.s:81     .text.lwip_strnstr:00000000 lwip_strnstr
C:\Users\Student\AppData\Local\Temp\ccmFnxUZ.s:160    .text.lwip_stricmp:00000000 $t
C:\Users\Student\AppData\Local\Temp\ccmFnxUZ.s:167    .text.lwip_stricmp:00000000 lwip_stricmp
C:\Users\Student\AppData\Local\Temp\ccmFnxUZ.s:255    .text.lwip_strnicmp:00000000 $t
C:\Users\Student\AppData\Local\Temp\ccmFnxUZ.s:262    .text.lwip_strnicmp:00000000 lwip_strnicmp
C:\Users\Student\AppData\Local\Temp\ccmFnxUZ.s:362    .text.lwip_itoa:00000000 $t
C:\Users\Student\AppData\Local\Temp\ccmFnxUZ.s:369    .text.lwip_itoa:00000000 lwip_itoa
C:\Users\Student\AppData\Local\Temp\ccmFnxUZ.s:465    .text.lwip_itoa:0000005c $d
C:\Users\Student\AppData\Local\Temp\ccmFnxUZ.s:471    .rodata.lwip_itoa.str1.4:00000000 $d
                     .debug_frame:00000010 $d

UNDEFINED SYMBOLS
strlen
strncmp
