ARM GAS  C:\Users\Patryk\AppData\Local\Temp\cc5hZg2k.s 			page 1


   1              		.cpu cortex-m7
   2              		.eabi_attribute 27, 1
   3              		.eabi_attribute 28, 1
   4              		.eabi_attribute 20, 1
   5              		.eabi_attribute 21, 1
   6              		.eabi_attribute 23, 3
   7              		.eabi_attribute 24, 1
   8              		.eabi_attribute 25, 1
   9              		.eabi_attribute 26, 1
  10              		.eabi_attribute 30, 1
  11              		.eabi_attribute 34, 1
  12              		.eabi_attribute 18, 4
  13              		.file	"def.c"
  14              		.text
  15              	.Ltext0:
  16              		.cfi_sections	.debug_frame
  17              		.section	.text.lwip_htons,"ax",%progbits
  18              		.align	1
  19              		.global	lwip_htons
  20              		.syntax unified
  21              		.thumb
  22              		.thumb_func
  23              		.fpu fpv5-sp-d16
  25              	lwip_htons:
  26              	.LFB154:
  27              		.file 1 "Middlewares/Third_Party/LwIP/src/core/def.c"
   1:Middlewares/Third_Party/LwIP/src/core/def.c **** /**
   2:Middlewares/Third_Party/LwIP/src/core/def.c ****  * @file
   3:Middlewares/Third_Party/LwIP/src/core/def.c ****  * Common functions used throughout the stack.
   4:Middlewares/Third_Party/LwIP/src/core/def.c ****  *
   5:Middlewares/Third_Party/LwIP/src/core/def.c ****  * These are reference implementations of the byte swapping functions.
   6:Middlewares/Third_Party/LwIP/src/core/def.c ****  * Again with the aim of being simple, correct and fully portable.
   7:Middlewares/Third_Party/LwIP/src/core/def.c ****  * Byte swapping is the second thing you would want to optimize. You will
   8:Middlewares/Third_Party/LwIP/src/core/def.c ****  * need to port it to your architecture and in your cc.h:
   9:Middlewares/Third_Party/LwIP/src/core/def.c ****  *
  10:Middlewares/Third_Party/LwIP/src/core/def.c ****  * \#define lwip_htons(x) your_htons
  11:Middlewares/Third_Party/LwIP/src/core/def.c ****  * \#define lwip_htonl(x) your_htonl
  12:Middlewares/Third_Party/LwIP/src/core/def.c ****  *
  13:Middlewares/Third_Party/LwIP/src/core/def.c ****  * Note lwip_ntohs() and lwip_ntohl() are merely references to the htonx counterparts.
  14:Middlewares/Third_Party/LwIP/src/core/def.c ****  * 
  15:Middlewares/Third_Party/LwIP/src/core/def.c ****  * If you \#define them to htons() and htonl(), you should
  16:Middlewares/Third_Party/LwIP/src/core/def.c ****  * \#define LWIP_DONT_PROVIDE_BYTEORDER_FUNCTIONS to prevent lwIP from
  17:Middlewares/Third_Party/LwIP/src/core/def.c ****  * defining htonx/ntohx compatibility macros.
  18:Middlewares/Third_Party/LwIP/src/core/def.c **** 
  19:Middlewares/Third_Party/LwIP/src/core/def.c ****  * @defgroup sys_nonstandard Non-standard functions
  20:Middlewares/Third_Party/LwIP/src/core/def.c ****  * @ingroup sys_layer
  21:Middlewares/Third_Party/LwIP/src/core/def.c ****  * lwIP provides default implementations for non-standard functions.
  22:Middlewares/Third_Party/LwIP/src/core/def.c ****  * These can be mapped to OS functions to reduce code footprint if desired.
  23:Middlewares/Third_Party/LwIP/src/core/def.c ****  * All defines related to this section must not be placed in lwipopts.h,
  24:Middlewares/Third_Party/LwIP/src/core/def.c ****  * but in arch/cc.h!
  25:Middlewares/Third_Party/LwIP/src/core/def.c ****  * These options cannot be \#defined in lwipopts.h since they are not options
  26:Middlewares/Third_Party/LwIP/src/core/def.c ****  * of lwIP itself, but options of the lwIP port to your system.
  27:Middlewares/Third_Party/LwIP/src/core/def.c ****  */
  28:Middlewares/Third_Party/LwIP/src/core/def.c **** 
  29:Middlewares/Third_Party/LwIP/src/core/def.c **** /*
  30:Middlewares/Third_Party/LwIP/src/core/def.c ****  * Copyright (c) 2001-2004 Swedish Institute of Computer Science.
  31:Middlewares/Third_Party/LwIP/src/core/def.c ****  * All rights reserved.
ARM GAS  C:\Users\Patryk\AppData\Local\Temp\cc5hZg2k.s 			page 2


  32:Middlewares/Third_Party/LwIP/src/core/def.c ****  *
  33:Middlewares/Third_Party/LwIP/src/core/def.c ****  * Redistribution and use in source and binary forms, with or without modification,
  34:Middlewares/Third_Party/LwIP/src/core/def.c ****  * are permitted provided that the following conditions are met:
  35:Middlewares/Third_Party/LwIP/src/core/def.c ****  *
  36:Middlewares/Third_Party/LwIP/src/core/def.c ****  * 1. Redistributions of source code must retain the above copyright notice,
  37:Middlewares/Third_Party/LwIP/src/core/def.c ****  *    this list of conditions and the following disclaimer.
  38:Middlewares/Third_Party/LwIP/src/core/def.c ****  * 2. Redistributions in binary form must reproduce the above copyright notice,
  39:Middlewares/Third_Party/LwIP/src/core/def.c ****  *    this list of conditions and the following disclaimer in the documentation
  40:Middlewares/Third_Party/LwIP/src/core/def.c ****  *    and/or other materials provided with the distribution.
  41:Middlewares/Third_Party/LwIP/src/core/def.c ****  * 3. The name of the author may not be used to endorse or promote products
  42:Middlewares/Third_Party/LwIP/src/core/def.c ****  *    derived from this software without specific prior written permission.
  43:Middlewares/Third_Party/LwIP/src/core/def.c ****  *
  44:Middlewares/Third_Party/LwIP/src/core/def.c ****  * THIS SOFTWARE IS PROVIDED BY THE AUTHOR ``AS IS'' AND ANY EXPRESS OR IMPLIED
  45:Middlewares/Third_Party/LwIP/src/core/def.c ****  * WARRANTIES, INCLUDING, BUT NOT LIMITED TO, THE IMPLIED WARRANTIES OF
  46:Middlewares/Third_Party/LwIP/src/core/def.c ****  * MERCHANTABILITY AND FITNESS FOR A PARTICULAR PURPOSE ARE DISCLAIMED. IN NO EVENT
  47:Middlewares/Third_Party/LwIP/src/core/def.c ****  * SHALL THE AUTHOR BE LIABLE FOR ANY DIRECT, INDIRECT, INCIDENTAL, SPECIAL,
  48:Middlewares/Third_Party/LwIP/src/core/def.c ****  * EXEMPLARY, OR CONSEQUENTIAL DAMAGES (INCLUDING, BUT NOT LIMITED TO, PROCUREMENT
  49:Middlewares/Third_Party/LwIP/src/core/def.c ****  * OF SUBSTITUTE GOODS OR SERVICES; LOSS OF USE, DATA, OR PROFITS; OR BUSINESS
  50:Middlewares/Third_Party/LwIP/src/core/def.c ****  * INTERRUPTION) HOWEVER CAUSED AND ON ANY THEORY OF LIABILITY, WHETHER IN
  51:Middlewares/Third_Party/LwIP/src/core/def.c ****  * CONTRACT, STRICT LIABILITY, OR TORT (INCLUDING NEGLIGENCE OR OTHERWISE) ARISING
  52:Middlewares/Third_Party/LwIP/src/core/def.c ****  * IN ANY WAY OUT OF THE USE OF THIS SOFTWARE, EVEN IF ADVISED OF THE POSSIBILITY
  53:Middlewares/Third_Party/LwIP/src/core/def.c ****  * OF SUCH DAMAGE.
  54:Middlewares/Third_Party/LwIP/src/core/def.c ****  *
  55:Middlewares/Third_Party/LwIP/src/core/def.c ****  * This file is part of the lwIP TCP/IP stack.
  56:Middlewares/Third_Party/LwIP/src/core/def.c ****  *
  57:Middlewares/Third_Party/LwIP/src/core/def.c ****  * Author: Simon Goldschmidt
  58:Middlewares/Third_Party/LwIP/src/core/def.c ****  *
  59:Middlewares/Third_Party/LwIP/src/core/def.c ****  */
  60:Middlewares/Third_Party/LwIP/src/core/def.c **** 
  61:Middlewares/Third_Party/LwIP/src/core/def.c **** #include "lwip/opt.h"
  62:Middlewares/Third_Party/LwIP/src/core/def.c **** #include "lwip/def.h"
  63:Middlewares/Third_Party/LwIP/src/core/def.c **** 
  64:Middlewares/Third_Party/LwIP/src/core/def.c **** #include <string.h>
  65:Middlewares/Third_Party/LwIP/src/core/def.c **** 
  66:Middlewares/Third_Party/LwIP/src/core/def.c **** #if BYTE_ORDER == LITTLE_ENDIAN
  67:Middlewares/Third_Party/LwIP/src/core/def.c **** 
  68:Middlewares/Third_Party/LwIP/src/core/def.c **** #if !defined(lwip_htons)
  69:Middlewares/Third_Party/LwIP/src/core/def.c **** /**
  70:Middlewares/Third_Party/LwIP/src/core/def.c ****  * Convert an u16_t from host- to network byte order.
  71:Middlewares/Third_Party/LwIP/src/core/def.c ****  *
  72:Middlewares/Third_Party/LwIP/src/core/def.c ****  * @param n u16_t in host byte order
  73:Middlewares/Third_Party/LwIP/src/core/def.c ****  * @return n in network byte order
  74:Middlewares/Third_Party/LwIP/src/core/def.c ****  */
  75:Middlewares/Third_Party/LwIP/src/core/def.c **** u16_t
  76:Middlewares/Third_Party/LwIP/src/core/def.c **** lwip_htons(u16_t n)
  77:Middlewares/Third_Party/LwIP/src/core/def.c **** {
  28              		.loc 1 77 0
  29              		.cfi_startproc
  30              		@ args = 0, pretend = 0, frame = 0
  31              		@ frame_needed = 0, uses_anonymous_args = 0
  32              		@ link register save eliminated.
  33              	.LVL0:
  78:Middlewares/Third_Party/LwIP/src/core/def.c ****   return (u16_t)PP_HTONS(n);
  34              		.loc 1 78 0
  35 0000 40BA     		rev16	r0, r0
  36              	.LVL1:
  79:Middlewares/Third_Party/LwIP/src/core/def.c **** }
ARM GAS  C:\Users\Patryk\AppData\Local\Temp\cc5hZg2k.s 			page 3


  37              		.loc 1 79 0
  38 0002 80B2     		uxth	r0, r0
  39 0004 7047     		bx	lr
  40              		.cfi_endproc
  41              	.LFE154:
  43              		.section	.text.lwip_htonl,"ax",%progbits
  44              		.align	1
  45              		.global	lwip_htonl
  46              		.syntax unified
  47              		.thumb
  48              		.thumb_func
  49              		.fpu fpv5-sp-d16
  51              	lwip_htonl:
  52              	.LFB155:
  80:Middlewares/Third_Party/LwIP/src/core/def.c **** #endif /* lwip_htons */
  81:Middlewares/Third_Party/LwIP/src/core/def.c **** 
  82:Middlewares/Third_Party/LwIP/src/core/def.c **** #if !defined(lwip_htonl)
  83:Middlewares/Third_Party/LwIP/src/core/def.c **** /**
  84:Middlewares/Third_Party/LwIP/src/core/def.c ****  * Convert an u32_t from host- to network byte order.
  85:Middlewares/Third_Party/LwIP/src/core/def.c ****  *
  86:Middlewares/Third_Party/LwIP/src/core/def.c ****  * @param n u32_t in host byte order
  87:Middlewares/Third_Party/LwIP/src/core/def.c ****  * @return n in network byte order
  88:Middlewares/Third_Party/LwIP/src/core/def.c ****  */
  89:Middlewares/Third_Party/LwIP/src/core/def.c **** u32_t
  90:Middlewares/Third_Party/LwIP/src/core/def.c **** lwip_htonl(u32_t n)
  91:Middlewares/Third_Party/LwIP/src/core/def.c **** {
  53              		.loc 1 91 0
  54              		.cfi_startproc
  55              		@ args = 0, pretend = 0, frame = 0
  56              		@ frame_needed = 0, uses_anonymous_args = 0
  57              		@ link register save eliminated.
  58              	.LVL2:
  92:Middlewares/Third_Party/LwIP/src/core/def.c ****   return (u32_t)PP_HTONL(n);
  59              		.loc 1 92 0
  60 0000 0302     		lsls	r3, r0, #8
  61 0002 03F47F03 		and	r3, r3, #16711680
  62 0006 43EA0063 		orr	r3, r3, r0, lsl #24
  63 000a 020A     		lsrs	r2, r0, #8
  64 000c 02F47F42 		and	r2, r2, #65280
  65 0010 1343     		orrs	r3, r3, r2
  93:Middlewares/Third_Party/LwIP/src/core/def.c **** }
  66              		.loc 1 93 0
  67 0012 43EA1060 		orr	r0, r3, r0, lsr #24
  68              	.LVL3:
  69 0016 7047     		bx	lr
  70              		.cfi_endproc
  71              	.LFE155:
  73              		.section	.text.lwip_strnstr,"ax",%progbits
  74              		.align	1
  75              		.global	lwip_strnstr
  76              		.syntax unified
  77              		.thumb
  78              		.thumb_func
  79              		.fpu fpv5-sp-d16
  81              	lwip_strnstr:
  82              	.LFB156:
  94:Middlewares/Third_Party/LwIP/src/core/def.c **** #endif /* lwip_htonl */
ARM GAS  C:\Users\Patryk\AppData\Local\Temp\cc5hZg2k.s 			page 4


  95:Middlewares/Third_Party/LwIP/src/core/def.c **** 
  96:Middlewares/Third_Party/LwIP/src/core/def.c **** #endif /* BYTE_ORDER == LITTLE_ENDIAN */
  97:Middlewares/Third_Party/LwIP/src/core/def.c **** 
  98:Middlewares/Third_Party/LwIP/src/core/def.c **** #ifndef lwip_strnstr
  99:Middlewares/Third_Party/LwIP/src/core/def.c **** /**
 100:Middlewares/Third_Party/LwIP/src/core/def.c ****  * @ingroup sys_nonstandard
 101:Middlewares/Third_Party/LwIP/src/core/def.c ****  * lwIP default implementation for strnstr() non-standard function.
 102:Middlewares/Third_Party/LwIP/src/core/def.c ****  * This can be \#defined to strnstr() depending on your platform port.
 103:Middlewares/Third_Party/LwIP/src/core/def.c ****  */
 104:Middlewares/Third_Party/LwIP/src/core/def.c **** char*
 105:Middlewares/Third_Party/LwIP/src/core/def.c **** lwip_strnstr(const char* buffer, const char* token, size_t n)
 106:Middlewares/Third_Party/LwIP/src/core/def.c **** {
  83              		.loc 1 106 0
  84              		.cfi_startproc
  85              		@ args = 0, pretend = 0, frame = 0
  86              		@ frame_needed = 0, uses_anonymous_args = 0
  87              	.LVL4:
  88 0000 2DE9F041 		push	{r4, r5, r6, r7, r8, lr}
  89              	.LCFI0:
  90              		.cfi_def_cfa_offset 24
  91              		.cfi_offset 4, -24
  92              		.cfi_offset 5, -20
  93              		.cfi_offset 6, -16
  94              		.cfi_offset 7, -12
  95              		.cfi_offset 8, -8
  96              		.cfi_offset 14, -4
  97 0004 0746     		mov	r7, r0
  98 0006 0D46     		mov	r5, r1
  99 0008 9046     		mov	r8, r2
 107:Middlewares/Third_Party/LwIP/src/core/def.c ****   const char* p;
 108:Middlewares/Third_Party/LwIP/src/core/def.c ****   size_t tokenlen = strlen(token);
 100              		.loc 1 108 0
 101 000a 0846     		mov	r0, r1
 102              	.LVL5:
 103 000c FFF7FEFF 		bl	strlen
 104              	.LVL6:
 109:Middlewares/Third_Party/LwIP/src/core/def.c ****   if (tokenlen == 0) {
 105              		.loc 1 109 0
 106 0010 B8B1     		cbz	r0, .L8
 107 0012 0646     		mov	r6, r0
 110:Middlewares/Third_Party/LwIP/src/core/def.c ****     return LWIP_CONST_CAST(char *, buffer);
 111:Middlewares/Third_Party/LwIP/src/core/def.c ****   }
 112:Middlewares/Third_Party/LwIP/src/core/def.c ****   for (p = buffer; *p && (p + tokenlen <= buffer + n); p++) {
 108              		.loc 1 112 0
 109 0014 3C46     		mov	r4, r7
 110 0016 00E0     		b	.L5
 111              	.LVL7:
 112              	.L6:
 113              		.loc 1 112 0 is_stmt 0 discriminator 2
 114 0018 0134     		adds	r4, r4, #1
 115              	.LVL8:
 116              	.L5:
 117              		.loc 1 112 0 discriminator 1
 118 001a 2278     		ldrb	r2, [r4]	@ zero_extendqisi2
 119 001c AAB1     		cbz	r2, .L9
 120              		.loc 1 112 0 discriminator 3
 121 001e A319     		adds	r3, r4, r6
ARM GAS  C:\Users\Patryk\AppData\Local\Temp\cc5hZg2k.s 			page 5


 122 0020 07EB0801 		add	r1, r7, r8
 123 0024 8B42     		cmp	r3, r1
 124 0026 0AD8     		bhi	.L11
 113:Middlewares/Third_Party/LwIP/src/core/def.c ****     if ((*p == *token) && (strncmp(p, token, tokenlen) == 0)) {
 125              		.loc 1 113 0 is_stmt 1
 126 0028 2B78     		ldrb	r3, [r5]	@ zero_extendqisi2
 127 002a 9342     		cmp	r3, r2
 128 002c F4D1     		bne	.L6
 129              		.loc 1 113 0 is_stmt 0 discriminator 1
 130 002e 3246     		mov	r2, r6
 131 0030 2946     		mov	r1, r5
 132 0032 2046     		mov	r0, r4
 133 0034 FFF7FEFF 		bl	strncmp
 134              	.LVL9:
 135 0038 0028     		cmp	r0, #0
 136 003a EDD1     		bne	.L6
 137 003c 02E0     		b	.L3
 138              	.L11:
 114:Middlewares/Third_Party/LwIP/src/core/def.c ****       return LWIP_CONST_CAST(char *, p);
 115:Middlewares/Third_Party/LwIP/src/core/def.c ****     }
 116:Middlewares/Third_Party/LwIP/src/core/def.c ****   }
 117:Middlewares/Third_Party/LwIP/src/core/def.c ****   return NULL;
 139              		.loc 1 117 0 is_stmt 1
 140 003e 0024     		movs	r4, #0
 141              	.LVL10:
 142 0040 00E0     		b	.L3
 143              	.LVL11:
 144              	.L8:
 110:Middlewares/Third_Party/LwIP/src/core/def.c ****   }
 145              		.loc 1 110 0
 146 0042 3C46     		mov	r4, r7
 147              	.LVL12:
 148              	.L3:
 118:Middlewares/Third_Party/LwIP/src/core/def.c **** }
 149              		.loc 1 118 0
 150 0044 2046     		mov	r0, r4
 151 0046 BDE8F081 		pop	{r4, r5, r6, r7, r8, pc}
 152              	.LVL13:
 153              	.L9:
 117:Middlewares/Third_Party/LwIP/src/core/def.c **** }
 154              		.loc 1 117 0
 155 004a 0024     		movs	r4, #0
 156              	.LVL14:
 157 004c FAE7     		b	.L3
 158              		.cfi_endproc
 159              	.LFE156:
 161              		.section	.text.lwip_stricmp,"ax",%progbits
 162              		.align	1
 163              		.global	lwip_stricmp
 164              		.syntax unified
 165              		.thumb
 166              		.thumb_func
 167              		.fpu fpv5-sp-d16
 169              	lwip_stricmp:
 170              	.LFB157:
 119:Middlewares/Third_Party/LwIP/src/core/def.c **** #endif
 120:Middlewares/Third_Party/LwIP/src/core/def.c **** 
ARM GAS  C:\Users\Patryk\AppData\Local\Temp\cc5hZg2k.s 			page 6


 121:Middlewares/Third_Party/LwIP/src/core/def.c **** #ifndef lwip_stricmp
 122:Middlewares/Third_Party/LwIP/src/core/def.c **** /**
 123:Middlewares/Third_Party/LwIP/src/core/def.c ****  * @ingroup sys_nonstandard
 124:Middlewares/Third_Party/LwIP/src/core/def.c ****  * lwIP default implementation for stricmp() non-standard function.
 125:Middlewares/Third_Party/LwIP/src/core/def.c ****  * This can be \#defined to stricmp() depending on your platform port.
 126:Middlewares/Third_Party/LwIP/src/core/def.c ****  */
 127:Middlewares/Third_Party/LwIP/src/core/def.c **** int
 128:Middlewares/Third_Party/LwIP/src/core/def.c **** lwip_stricmp(const char* str1, const char* str2)
 129:Middlewares/Third_Party/LwIP/src/core/def.c **** {
 171              		.loc 1 129 0
 172              		.cfi_startproc
 173              		@ args = 0, pretend = 0, frame = 0
 174              		@ frame_needed = 0, uses_anonymous_args = 0
 175              		@ link register save eliminated.
 176              	.LVL15:
 177 0000 30B4     		push	{r4, r5}
 178              	.LCFI1:
 179              		.cfi_def_cfa_offset 8
 180              		.cfi_offset 4, -8
 181              		.cfi_offset 5, -4
 182 0002 02E0     		b	.L15
 183              	.LVL16:
 184              	.L13:
 130:Middlewares/Third_Party/LwIP/src/core/def.c ****   char c1, c2;
 131:Middlewares/Third_Party/LwIP/src/core/def.c **** 
 132:Middlewares/Third_Party/LwIP/src/core/def.c ****   do {
 133:Middlewares/Third_Party/LwIP/src/core/def.c ****     c1 = *str1++;
 185              		.loc 1 133 0
 186 0004 2846     		mov	r0, r5
 134:Middlewares/Third_Party/LwIP/src/core/def.c ****     c2 = *str2++;
 187              		.loc 1 134 0
 188 0006 2146     		mov	r1, r4
 135:Middlewares/Third_Party/LwIP/src/core/def.c ****     if (c1 != c2) {
 136:Middlewares/Third_Party/LwIP/src/core/def.c ****       char c1_upc = c1 | 0x20;
 137:Middlewares/Third_Party/LwIP/src/core/def.c ****       if ((c1_upc >= 'a') && (c1_upc <= 'z')) {
 138:Middlewares/Third_Party/LwIP/src/core/def.c ****         /* characters are not equal an one is in the alphabet range:
 139:Middlewares/Third_Party/LwIP/src/core/def.c ****         downcase both chars and check again */
 140:Middlewares/Third_Party/LwIP/src/core/def.c ****         char c2_upc = c2 | 0x20;
 141:Middlewares/Third_Party/LwIP/src/core/def.c ****         if (c1_upc != c2_upc) {
 142:Middlewares/Third_Party/LwIP/src/core/def.c ****           /* still not equal */
 143:Middlewares/Third_Party/LwIP/src/core/def.c ****           /* don't care for < or > */
 144:Middlewares/Third_Party/LwIP/src/core/def.c ****           return 1;
 145:Middlewares/Third_Party/LwIP/src/core/def.c ****         }
 146:Middlewares/Third_Party/LwIP/src/core/def.c ****       } else {
 147:Middlewares/Third_Party/LwIP/src/core/def.c ****         /* characters are not equal but none is in the alphabet range */
 148:Middlewares/Third_Party/LwIP/src/core/def.c ****         return 1;
 149:Middlewares/Third_Party/LwIP/src/core/def.c ****       }
 150:Middlewares/Third_Party/LwIP/src/core/def.c ****     }
 151:Middlewares/Third_Party/LwIP/src/core/def.c ****   } while (c1 != 0);
 189              		.loc 1 151 0
 190 0008 92B1     		cbz	r2, .L19
 191              	.LVL17:
 192              	.L15:
 133:Middlewares/Third_Party/LwIP/src/core/def.c ****     c2 = *str2++;
 193              		.loc 1 133 0
 194 000a 451C     		adds	r5, r0, #1
 195              	.LVL18:
ARM GAS  C:\Users\Patryk\AppData\Local\Temp\cc5hZg2k.s 			page 7


 196 000c 0278     		ldrb	r2, [r0]	@ zero_extendqisi2
 197              	.LVL19:
 134:Middlewares/Third_Party/LwIP/src/core/def.c ****     c2 = *str2++;
 198              		.loc 1 134 0
 199 000e 4C1C     		adds	r4, r1, #1
 200              	.LVL20:
 201 0010 0B78     		ldrb	r3, [r1]	@ zero_extendqisi2
 202              	.LVL21:
 135:Middlewares/Third_Party/LwIP/src/core/def.c ****     if (c1 != c2) {
 203              		.loc 1 135 0
 204 0012 9A42     		cmp	r2, r3
 205 0014 F6D0     		beq	.L13
 206              	.LBB2:
 136:Middlewares/Third_Party/LwIP/src/core/def.c ****       if ((c1_upc >= 'a') && (c1_upc <= 'z')) {
 207              		.loc 1 136 0
 208 0016 42F02000 		orr	r0, r2, #32
 209              	.LVL22:
 137:Middlewares/Third_Party/LwIP/src/core/def.c ****         /* characters are not equal an one is in the alphabet range:
 210              		.loc 1 137 0
 211 001a A0F16101 		sub	r1, r0, #97
 212 001e C9B2     		uxtb	r1, r1
 213 0020 1929     		cmp	r1, #25
 214 0022 08D8     		bhi	.L16
 215              	.LBB3:
 140:Middlewares/Third_Party/LwIP/src/core/def.c ****         if (c1_upc != c2_upc) {
 216              		.loc 1 140 0
 217 0024 43F02003 		orr	r3, r3, #32
 218              	.LVL23:
 141:Middlewares/Third_Party/LwIP/src/core/def.c ****           /* still not equal */
 219              		.loc 1 141 0
 220 0028 9842     		cmp	r0, r3
 221 002a EBD0     		beq	.L13
 144:Middlewares/Third_Party/LwIP/src/core/def.c ****         }
 222              		.loc 1 144 0
 223 002c 0120     		movs	r0, #1
 224              	.LVL24:
 225 002e 00E0     		b	.L12
 226              	.LVL25:
 227              	.L19:
 228              	.LBE3:
 229              	.LBE2:
 152:Middlewares/Third_Party/LwIP/src/core/def.c ****   return 0;
 230              		.loc 1 152 0
 231 0030 0020     		movs	r0, #0
 232              	.LVL26:
 233              	.L12:
 153:Middlewares/Third_Party/LwIP/src/core/def.c **** }
 234              		.loc 1 153 0
 235 0032 30BC     		pop	{r4, r5}
 236              	.LCFI2:
 237              		.cfi_remember_state
 238              		.cfi_restore 5
 239              		.cfi_restore 4
 240              		.cfi_def_cfa_offset 0
 241              	.LVL27:
 242 0034 7047     		bx	lr
 243              	.LVL28:
ARM GAS  C:\Users\Patryk\AppData\Local\Temp\cc5hZg2k.s 			page 8


 244              	.L16:
 245              	.LCFI3:
 246              		.cfi_restore_state
 247              	.LBB4:
 148:Middlewares/Third_Party/LwIP/src/core/def.c ****       }
 248              		.loc 1 148 0
 249 0036 0120     		movs	r0, #1
 250              	.LVL29:
 251 0038 FBE7     		b	.L12
 252              	.LBE4:
 253              		.cfi_endproc
 254              	.LFE157:
 256              		.section	.text.lwip_strnicmp,"ax",%progbits
 257              		.align	1
 258              		.global	lwip_strnicmp
 259              		.syntax unified
 260              		.thumb
 261              		.thumb_func
 262              		.fpu fpv5-sp-d16
 264              	lwip_strnicmp:
 265              	.LFB158:
 154:Middlewares/Third_Party/LwIP/src/core/def.c **** #endif
 155:Middlewares/Third_Party/LwIP/src/core/def.c **** 
 156:Middlewares/Third_Party/LwIP/src/core/def.c **** #ifndef lwip_strnicmp
 157:Middlewares/Third_Party/LwIP/src/core/def.c **** /**
 158:Middlewares/Third_Party/LwIP/src/core/def.c ****  * @ingroup sys_nonstandard
 159:Middlewares/Third_Party/LwIP/src/core/def.c ****  * lwIP default implementation for strnicmp() non-standard function.
 160:Middlewares/Third_Party/LwIP/src/core/def.c ****  * This can be \#defined to strnicmp() depending on your platform port.
 161:Middlewares/Third_Party/LwIP/src/core/def.c ****  */
 162:Middlewares/Third_Party/LwIP/src/core/def.c **** int
 163:Middlewares/Third_Party/LwIP/src/core/def.c **** lwip_strnicmp(const char* str1, const char* str2, size_t len)
 164:Middlewares/Third_Party/LwIP/src/core/def.c **** {
 266              		.loc 1 164 0
 267              		.cfi_startproc
 268              		@ args = 0, pretend = 0, frame = 0
 269              		@ frame_needed = 0, uses_anonymous_args = 0
 270              		@ link register save eliminated.
 271              	.LVL30:
 272 0000 70B4     		push	{r4, r5, r6}
 273              	.LCFI4:
 274              		.cfi_def_cfa_offset 12
 275              		.cfi_offset 4, -12
 276              		.cfi_offset 5, -8
 277              		.cfi_offset 6, -4
 278 0002 05E0     		b	.L23
 279              	.LVL31:
 280              	.L21:
 165:Middlewares/Third_Party/LwIP/src/core/def.c ****   char c1, c2;
 166:Middlewares/Third_Party/LwIP/src/core/def.c **** 
 167:Middlewares/Third_Party/LwIP/src/core/def.c ****   do {
 168:Middlewares/Third_Party/LwIP/src/core/def.c ****     c1 = *str1++;
 169:Middlewares/Third_Party/LwIP/src/core/def.c ****     c2 = *str2++;
 170:Middlewares/Third_Party/LwIP/src/core/def.c ****     if (c1 != c2) {
 171:Middlewares/Third_Party/LwIP/src/core/def.c ****       char c1_upc = c1 | 0x20;
 172:Middlewares/Third_Party/LwIP/src/core/def.c ****       if ((c1_upc >= 'a') && (c1_upc <= 'z')) {
 173:Middlewares/Third_Party/LwIP/src/core/def.c ****         /* characters are not equal an one is in the alphabet range:
 174:Middlewares/Third_Party/LwIP/src/core/def.c ****         downcase both chars and check again */
ARM GAS  C:\Users\Patryk\AppData\Local\Temp\cc5hZg2k.s 			page 9


 175:Middlewares/Third_Party/LwIP/src/core/def.c ****         char c2_upc = c2 | 0x20;
 176:Middlewares/Third_Party/LwIP/src/core/def.c ****         if (c1_upc != c2_upc) {
 177:Middlewares/Third_Party/LwIP/src/core/def.c ****           /* still not equal */
 178:Middlewares/Third_Party/LwIP/src/core/def.c ****           /* don't care for < or > */
 179:Middlewares/Third_Party/LwIP/src/core/def.c ****           return 1;
 180:Middlewares/Third_Party/LwIP/src/core/def.c ****         }
 181:Middlewares/Third_Party/LwIP/src/core/def.c ****       } else {
 182:Middlewares/Third_Party/LwIP/src/core/def.c ****         /* characters are not equal but none is in the alphabet range */
 183:Middlewares/Third_Party/LwIP/src/core/def.c ****         return 1;
 184:Middlewares/Third_Party/LwIP/src/core/def.c ****       }
 185:Middlewares/Third_Party/LwIP/src/core/def.c ****     }
 186:Middlewares/Third_Party/LwIP/src/core/def.c ****   } while (len-- && c1 != 0);
 281              		.loc 1 186 0
 282 0004 531E     		subs	r3, r2, #1
 283              	.LVL32:
 284 0006 D2B1     		cbz	r2, .L26
 168:Middlewares/Third_Party/LwIP/src/core/def.c ****     c2 = *str2++;
 285              		.loc 1 168 0 discriminator 1
 286 0008 3046     		mov	r0, r6
 169:Middlewares/Third_Party/LwIP/src/core/def.c ****     if (c1 != c2) {
 287              		.loc 1 169 0 discriminator 1
 288 000a 2946     		mov	r1, r5
 289              		.loc 1 186 0 discriminator 1
 290 000c 9CB1     		cbz	r4, .L29
 291              	.LVL33:
 292              		.loc 1 186 0 is_stmt 0
 293 000e 1A46     		mov	r2, r3
 294              	.LVL34:
 295              	.L23:
 168:Middlewares/Third_Party/LwIP/src/core/def.c ****     c2 = *str2++;
 296              		.loc 1 168 0 is_stmt 1
 297 0010 461C     		adds	r6, r0, #1
 298              	.LVL35:
 299 0012 0478     		ldrb	r4, [r0]	@ zero_extendqisi2
 300              	.LVL36:
 169:Middlewares/Third_Party/LwIP/src/core/def.c ****     if (c1 != c2) {
 301              		.loc 1 169 0
 302 0014 4D1C     		adds	r5, r1, #1
 303              	.LVL37:
 304 0016 0B78     		ldrb	r3, [r1]	@ zero_extendqisi2
 305              	.LVL38:
 170:Middlewares/Third_Party/LwIP/src/core/def.c ****       char c1_upc = c1 | 0x20;
 306              		.loc 1 170 0
 307 0018 9C42     		cmp	r4, r3
 308 001a F3D0     		beq	.L21
 309              	.LBB5:
 171:Middlewares/Third_Party/LwIP/src/core/def.c ****       if ((c1_upc >= 'a') && (c1_upc <= 'z')) {
 310              		.loc 1 171 0
 311 001c 44F02000 		orr	r0, r4, #32
 312              	.LVL39:
 172:Middlewares/Third_Party/LwIP/src/core/def.c ****         /* characters are not equal an one is in the alphabet range:
 313              		.loc 1 172 0
 314 0020 A0F16101 		sub	r1, r0, #97
 315 0024 C9B2     		uxtb	r1, r1
 316 0026 1929     		cmp	r1, #25
 317 0028 07D8     		bhi	.L24
 318              	.LBB6:
ARM GAS  C:\Users\Patryk\AppData\Local\Temp\cc5hZg2k.s 			page 10


 175:Middlewares/Third_Party/LwIP/src/core/def.c ****         if (c1_upc != c2_upc) {
 319              		.loc 1 175 0
 320 002a 43F02003 		orr	r3, r3, #32
 321              	.LVL40:
 176:Middlewares/Third_Party/LwIP/src/core/def.c ****           /* still not equal */
 322              		.loc 1 176 0
 323 002e 9842     		cmp	r0, r3
 324 0030 E8D0     		beq	.L21
 179:Middlewares/Third_Party/LwIP/src/core/def.c ****         }
 325              		.loc 1 179 0
 326 0032 0120     		movs	r0, #1
 327              	.LVL41:
 328 0034 04E0     		b	.L20
 329              	.LVL42:
 330              	.L29:
 331              	.LBE6:
 332              	.LBE5:
 187:Middlewares/Third_Party/LwIP/src/core/def.c ****   return 0;
 333              		.loc 1 187 0
 334 0036 0020     		movs	r0, #0
 335              	.LVL43:
 336 0038 02E0     		b	.L20
 337              	.LVL44:
 338              	.L24:
 339              	.LBB7:
 183:Middlewares/Third_Party/LwIP/src/core/def.c ****       }
 340              		.loc 1 183 0
 341 003a 0120     		movs	r0, #1
 342              	.LVL45:
 343 003c 00E0     		b	.L20
 344              	.LVL46:
 345              	.L26:
 346              	.LBE7:
 347              		.loc 1 187 0
 348 003e 0020     		movs	r0, #0
 349              	.LVL47:
 350              	.L20:
 188:Middlewares/Third_Party/LwIP/src/core/def.c **** }
 351              		.loc 1 188 0
 352 0040 70BC     		pop	{r4, r5, r6}
 353              	.LCFI5:
 354              		.cfi_restore 6
 355              		.cfi_restore 5
 356              		.cfi_restore 4
 357              		.cfi_def_cfa_offset 0
 358              	.LVL48:
 359 0042 7047     		bx	lr
 360              		.cfi_endproc
 361              	.LFE158:
 363              		.section	.text.lwip_itoa,"ax",%progbits
 364              		.align	1
 365              		.global	lwip_itoa
 366              		.syntax unified
 367              		.thumb
 368              		.thumb_func
 369              		.fpu fpv5-sp-d16
 371              	lwip_itoa:
ARM GAS  C:\Users\Patryk\AppData\Local\Temp\cc5hZg2k.s 			page 11


 372              	.LFB159:
 189:Middlewares/Third_Party/LwIP/src/core/def.c **** #endif
 190:Middlewares/Third_Party/LwIP/src/core/def.c **** 
 191:Middlewares/Third_Party/LwIP/src/core/def.c **** #ifndef lwip_itoa
 192:Middlewares/Third_Party/LwIP/src/core/def.c **** /**
 193:Middlewares/Third_Party/LwIP/src/core/def.c ****  * @ingroup sys_nonstandard
 194:Middlewares/Third_Party/LwIP/src/core/def.c ****  * lwIP default implementation for itoa() non-standard function.
 195:Middlewares/Third_Party/LwIP/src/core/def.c ****  * This can be \#defined to itoa() or snprintf(result, bufsize, "%d", number) depending on your pla
 196:Middlewares/Third_Party/LwIP/src/core/def.c ****  */
 197:Middlewares/Third_Party/LwIP/src/core/def.c **** void
 198:Middlewares/Third_Party/LwIP/src/core/def.c **** lwip_itoa(char* result, size_t bufsize, int number)
 199:Middlewares/Third_Party/LwIP/src/core/def.c **** {
 373              		.loc 1 199 0
 374              		.cfi_startproc
 375              		@ args = 0, pretend = 0, frame = 0
 376              		@ frame_needed = 0, uses_anonymous_args = 0
 377              		@ link register save eliminated.
 378              	.LVL49:
 379 0000 70B4     		push	{r4, r5, r6}
 380              	.LCFI6:
 381              		.cfi_def_cfa_offset 12
 382              		.cfi_offset 4, -12
 383              		.cfi_offset 5, -8
 384              		.cfi_offset 6, -4
 385              	.LVL50:
 200:Middlewares/Third_Party/LwIP/src/core/def.c ****   const int base = 10;
 201:Middlewares/Third_Party/LwIP/src/core/def.c ****   char* ptr = result, *ptr1 = result, tmp_char;
 386              		.loc 1 201 0
 387 0002 0446     		mov	r4, r0
 388 0004 01E0     		b	.L31
 389              	.LVL51:
 390              	.L35:
 202:Middlewares/Third_Party/LwIP/src/core/def.c ****   int tmp_value;
 203:Middlewares/Third_Party/LwIP/src/core/def.c ****   LWIP_UNUSED_ARG(bufsize);
 204:Middlewares/Third_Party/LwIP/src/core/def.c **** 
 205:Middlewares/Third_Party/LwIP/src/core/def.c ****   do {
 206:Middlewares/Third_Party/LwIP/src/core/def.c ****     tmp_value = number;
 207:Middlewares/Third_Party/LwIP/src/core/def.c ****     number /= base;
 208:Middlewares/Third_Party/LwIP/src/core/def.c ****     *ptr++ = "zyxwvutsrqponmlkjihgfedcba9876543210123456789abcdefghijklmnopqrstuvwxyz"[35 + (tmp_va
 391              		.loc 1 208 0
 392 0006 2C46     		mov	r4, r5
 207:Middlewares/Third_Party/LwIP/src/core/def.c ****     *ptr++ = "zyxwvutsrqponmlkjihgfedcba9876543210123456789abcdefghijklmnopqrstuvwxyz"[35 + (tmp_va
 393              		.loc 1 207 0
 394 0008 0A46     		mov	r2, r1
 395              	.LVL52:
 396              	.L31:
 207:Middlewares/Third_Party/LwIP/src/core/def.c ****     *ptr++ = "zyxwvutsrqponmlkjihgfedcba9876543210123456789abcdefghijklmnopqrstuvwxyz"[35 + (tmp_va
 397              		.loc 1 207 0 is_stmt 0 discriminator 1
 398 000a 144B     		ldr	r3, .L38
 399 000c 83FB0213 		smull	r1, r3, r3, r2
 400 0010 D117     		asrs	r1, r2, #31
 401 0012 C1EBA301 		rsb	r1, r1, r3, asr #2
 402              	.LVL53:
 403              		.loc 1 208 0 is_stmt 1 discriminator 1
 404 0016 6FF00903 		mvn	r3, #9
 405 001a 03FB0123 		mla	r3, r3, r1, r2
 406 001e 2333     		adds	r3, r3, #35
ARM GAS  C:\Users\Patryk\AppData\Local\Temp\cc5hZg2k.s 			page 12


 407 0020 651C     		adds	r5, r4, #1
 408              	.LVL54:
 409 0022 0F4E     		ldr	r6, .L38+4
 410 0024 F35C     		ldrb	r3, [r6, r3]	@ zero_extendqisi2
 411 0026 2370     		strb	r3, [r4]
 209:Middlewares/Third_Party/LwIP/src/core/def.c ****   } while(number);
 412              		.loc 1 209 0 discriminator 1
 413 0028 0029     		cmp	r1, #0
 414 002a ECD1     		bne	.L35
 210:Middlewares/Third_Party/LwIP/src/core/def.c **** 
 211:Middlewares/Third_Party/LwIP/src/core/def.c ****    /* Apply negative sign */
 212:Middlewares/Third_Party/LwIP/src/core/def.c ****   if (tmp_value < 0) {
 415              		.loc 1 212 0
 416 002c 002A     		cmp	r2, #0
 417 002e 03DB     		blt	.L37
 418              	.L32:
 213:Middlewares/Third_Party/LwIP/src/core/def.c ****      *ptr++ = '-';
 214:Middlewares/Third_Party/LwIP/src/core/def.c ****   }
 215:Middlewares/Third_Party/LwIP/src/core/def.c ****   *ptr-- = '\0';
 419              		.loc 1 215 0
 420 0030 6B1E     		subs	r3, r5, #1
 421              	.LVL55:
 422 0032 0022     		movs	r2, #0
 423              	.LVL56:
 424 0034 2A70     		strb	r2, [r5]
 216:Middlewares/Third_Party/LwIP/src/core/def.c ****   while(ptr1 < ptr) {
 425              		.loc 1 216 0
 426 0036 0DE0     		b	.L33
 427              	.LVL57:
 428              	.L37:
 213:Middlewares/Third_Party/LwIP/src/core/def.c ****      *ptr++ = '-';
 429              		.loc 1 213 0
 430 0038 A51C     		adds	r5, r4, #2
 431              	.LVL58:
 432 003a 2D23     		movs	r3, #45
 433 003c 6370     		strb	r3, [r4, #1]
 434 003e F7E7     		b	.L32
 435              	.LVL59:
 436              	.L34:
 217:Middlewares/Third_Party/LwIP/src/core/def.c ****     tmp_char = *ptr;
 437              		.loc 1 217 0
 438 0040 1A46     		mov	r2, r3
 439 0042 12F80149 		ldrb	r4, [r2], #-1	@ zero_extendqisi2
 440              	.LVL60:
 218:Middlewares/Third_Party/LwIP/src/core/def.c ****     *ptr--= *ptr1;
 441              		.loc 1 218 0
 442 0046 0146     		mov	r1, r0
 443 0048 11F8015B 		ldrb	r5, [r1], #1	@ zero_extendqisi2
 444 004c 1D70     		strb	r5, [r3]
 445              	.LVL61:
 219:Middlewares/Third_Party/LwIP/src/core/def.c ****     *ptr1++ = tmp_char;
 446              		.loc 1 219 0
 447 004e 0470     		strb	r4, [r0]
 448 0050 0846     		mov	r0, r1
 218:Middlewares/Third_Party/LwIP/src/core/def.c ****     *ptr--= *ptr1;
 449              		.loc 1 218 0
 450 0052 1346     		mov	r3, r2
ARM GAS  C:\Users\Patryk\AppData\Local\Temp\cc5hZg2k.s 			page 13


 451              	.LVL62:
 452              	.L33:
 216:Middlewares/Third_Party/LwIP/src/core/def.c ****     tmp_char = *ptr;
 453              		.loc 1 216 0
 454 0054 8342     		cmp	r3, r0
 455 0056 F3D8     		bhi	.L34
 220:Middlewares/Third_Party/LwIP/src/core/def.c ****   }
 221:Middlewares/Third_Party/LwIP/src/core/def.c **** }
 456              		.loc 1 221 0
 457 0058 70BC     		pop	{r4, r5, r6}
 458              	.LCFI7:
 459              		.cfi_restore 6
 460              		.cfi_restore 5
 461              		.cfi_restore 4
 462              		.cfi_def_cfa_offset 0
 463 005a 7047     		bx	lr
 464              	.L39:
 465              		.align	2
 466              	.L38:
 467 005c 67666666 		.word	1717986919
 468 0060 00000000 		.word	.LC0
 469              		.cfi_endproc
 470              	.LFE159:
 472              		.section	.rodata.lwip_itoa.str1.4,"aMS",%progbits,1
 473              		.align	2
 474              	.LC0:
 475 0000 7A797877 		.ascii	"zyxwvutsrqponmlkjihgfedcba9876543210123456789abcdef"
 475      76757473 
 475      7271706F 
 475      6E6D6C6B 
 475      6A696867 
 476 0033 6768696A 		.ascii	"ghijklmnopqrstuvwxyz\000"
 476      6B6C6D6E 
 476      6F707172 
 476      73747576 
 476      7778797A 
 477              		.text
 478              	.Letext0:
 479              		.file 2 "c:\\program files (x86)\\gnu\\7_2018-q2-update\\arm-none-eabi\\include\\machine\\_default
 480              		.file 3 "c:\\program files (x86)\\gnu\\7_2018-q2-update\\arm-none-eabi\\include\\sys\\_stdint.h"
 481              		.file 4 "Drivers/CMSIS/Include/core_cm7.h"
 482              		.file 5 "Drivers/CMSIS/Device/ST/STM32F7xx/Include/system_stm32f7xx.h"
 483              		.file 6 "c:\\program files (x86)\\gnu\\7_2018-q2-update\\lib\\gcc\\arm-none-eabi\\7.3.1\\include\\
 484              		.file 7 "c:\\program files (x86)\\gnu\\7_2018-q2-update\\arm-none-eabi\\include\\sys\\lock.h"
 485              		.file 8 "c:\\program files (x86)\\gnu\\7_2018-q2-update\\arm-none-eabi\\include\\sys\\_types.h"
 486              		.file 9 "c:\\program files (x86)\\gnu\\7_2018-q2-update\\arm-none-eabi\\include\\sys\\reent.h"
 487              		.file 10 "c:\\program files (x86)\\gnu\\7_2018-q2-update\\arm-none-eabi\\include\\stdlib.h"
 488              		.file 11 "c:\\program files (x86)\\gnu\\7_2018-q2-update\\arm-none-eabi\\include\\time.h"
 489              		.file 12 "Middlewares/Third_Party/LwIP/src/include/lwip/arch.h"
 490              		.file 13 "c:\\program files (x86)\\gnu\\7_2018-q2-update\\arm-none-eabi\\include\\string.h"
ARM GAS  C:\Users\Patryk\AppData\Local\Temp\cc5hZg2k.s 			page 14

