ARM GAS  C:\Users\milek\AppData\Local\Temp\ccm1c3Aw.s 			page 1


   1              		.cpu cortex-m7
   2              		.eabi_attribute 27, 1
   3              		.eabi_attribute 28, 1
   4              		.eabi_attribute 20, 1
   5              		.eabi_attribute 21, 1
   6              		.eabi_attribute 23, 3
   7              		.eabi_attribute 24, 1
   8              		.eabi_attribute 25, 1
   9              		.eabi_attribute 26, 1
  10              		.eabi_attribute 30, 1
  11              		.eabi_attribute 34, 1
  12              		.eabi_attribute 18, 4
  13              		.file	"dns.c"
  14              		.text
  15              	.Ltext0:
  16              		.cfi_sections	.debug_frame
  17              		.section	.text.dns_create_txid,"ax",%progbits
  18              		.align	1
  19              		.syntax unified
  20              		.thumb
  21              		.thumb_func
  22              		.fpu fpv5-sp-d16
  24              	dns_create_txid:
  25              	.LFB165:
  26              		.file 1 "Middlewares/Third_Party/LwIP/src/core/dns.c"
   1:Middlewares/Third_Party/LwIP/src/core/dns.c **** /**
   2:Middlewares/Third_Party/LwIP/src/core/dns.c ****  * @file
   3:Middlewares/Third_Party/LwIP/src/core/dns.c ****  * DNS - host name to IP address resolver.
   4:Middlewares/Third_Party/LwIP/src/core/dns.c ****  *
   5:Middlewares/Third_Party/LwIP/src/core/dns.c ****  * @defgroup dns DNS
   6:Middlewares/Third_Party/LwIP/src/core/dns.c ****  * @ingroup callbackstyle_api
   7:Middlewares/Third_Party/LwIP/src/core/dns.c ****  *
   8:Middlewares/Third_Party/LwIP/src/core/dns.c ****  * Implements a DNS host name to IP address resolver.
   9:Middlewares/Third_Party/LwIP/src/core/dns.c ****  *
  10:Middlewares/Third_Party/LwIP/src/core/dns.c ****  * The lwIP DNS resolver functions are used to lookup a host name and
  11:Middlewares/Third_Party/LwIP/src/core/dns.c ****  * map it to a numerical IP address. It maintains a list of resolved
  12:Middlewares/Third_Party/LwIP/src/core/dns.c ****  * hostnames that can be queried with the dns_lookup() function.
  13:Middlewares/Third_Party/LwIP/src/core/dns.c ****  * New hostnames can be resolved using the dns_query() function.
  14:Middlewares/Third_Party/LwIP/src/core/dns.c ****  *
  15:Middlewares/Third_Party/LwIP/src/core/dns.c ****  * The lwIP version of the resolver also adds a non-blocking version of
  16:Middlewares/Third_Party/LwIP/src/core/dns.c ****  * gethostbyname() that will work with a raw API application. This function
  17:Middlewares/Third_Party/LwIP/src/core/dns.c ****  * checks for an IP address string first and converts it if it is valid.
  18:Middlewares/Third_Party/LwIP/src/core/dns.c ****  * gethostbyname() then does a dns_lookup() to see if the name is
  19:Middlewares/Third_Party/LwIP/src/core/dns.c ****  * already in the table. If so, the IP is returned. If not, a query is
  20:Middlewares/Third_Party/LwIP/src/core/dns.c ****  * issued and the function returns with a ERR_INPROGRESS status. The app
  21:Middlewares/Third_Party/LwIP/src/core/dns.c ****  * using the dns client must then go into a waiting state.
  22:Middlewares/Third_Party/LwIP/src/core/dns.c ****  *
  23:Middlewares/Third_Party/LwIP/src/core/dns.c ****  * Once a hostname has been resolved (or found to be non-existent),
  24:Middlewares/Third_Party/LwIP/src/core/dns.c ****  * the resolver code calls a specified callback function (which
  25:Middlewares/Third_Party/LwIP/src/core/dns.c ****  * must be implemented by the module that uses the resolver).
  26:Middlewares/Third_Party/LwIP/src/core/dns.c ****  * 
  27:Middlewares/Third_Party/LwIP/src/core/dns.c ****  * Multicast DNS queries are supported for names ending on ".local".
  28:Middlewares/Third_Party/LwIP/src/core/dns.c ****  * However, only "One-Shot Multicast DNS Queries" are supported (RFC 6762
  29:Middlewares/Third_Party/LwIP/src/core/dns.c ****  * chapter 5.1), this is not a fully compliant implementation of continuous
  30:Middlewares/Third_Party/LwIP/src/core/dns.c ****  * mDNS querying!
  31:Middlewares/Third_Party/LwIP/src/core/dns.c ****  *
  32:Middlewares/Third_Party/LwIP/src/core/dns.c ****  * All functions must be called from TCPIP thread.
ARM GAS  C:\Users\milek\AppData\Local\Temp\ccm1c3Aw.s 			page 2


  33:Middlewares/Third_Party/LwIP/src/core/dns.c ****  * 
  34:Middlewares/Third_Party/LwIP/src/core/dns.c ****  * @see @ref netconn_common for thread-safe access.
  35:Middlewares/Third_Party/LwIP/src/core/dns.c ****  */
  36:Middlewares/Third_Party/LwIP/src/core/dns.c **** 
  37:Middlewares/Third_Party/LwIP/src/core/dns.c **** /*
  38:Middlewares/Third_Party/LwIP/src/core/dns.c ****  * Port to lwIP from uIP
  39:Middlewares/Third_Party/LwIP/src/core/dns.c ****  * by Jim Pettinato April 2007
  40:Middlewares/Third_Party/LwIP/src/core/dns.c ****  *
  41:Middlewares/Third_Party/LwIP/src/core/dns.c ****  * security fixes and more by Simon Goldschmidt
  42:Middlewares/Third_Party/LwIP/src/core/dns.c ****  *
  43:Middlewares/Third_Party/LwIP/src/core/dns.c ****  * uIP version Copyright (c) 2002-2003, Adam Dunkels.
  44:Middlewares/Third_Party/LwIP/src/core/dns.c ****  * All rights reserved.
  45:Middlewares/Third_Party/LwIP/src/core/dns.c ****  *
  46:Middlewares/Third_Party/LwIP/src/core/dns.c ****  * Redistribution and use in source and binary forms, with or without
  47:Middlewares/Third_Party/LwIP/src/core/dns.c ****  * modification, are permitted provided that the following conditions
  48:Middlewares/Third_Party/LwIP/src/core/dns.c ****  * are met:
  49:Middlewares/Third_Party/LwIP/src/core/dns.c ****  * 1. Redistributions of source code must retain the above copyright
  50:Middlewares/Third_Party/LwIP/src/core/dns.c ****  *    notice, this list of conditions and the following disclaimer.
  51:Middlewares/Third_Party/LwIP/src/core/dns.c ****  * 2. Redistributions in binary form must reproduce the above copyright
  52:Middlewares/Third_Party/LwIP/src/core/dns.c ****  *    notice, this list of conditions and the following disclaimer in the
  53:Middlewares/Third_Party/LwIP/src/core/dns.c ****  *    documentation and/or other materials provided with the distribution.
  54:Middlewares/Third_Party/LwIP/src/core/dns.c ****  * 3. The name of the author may not be used to endorse or promote
  55:Middlewares/Third_Party/LwIP/src/core/dns.c ****  *    products derived from this software without specific prior
  56:Middlewares/Third_Party/LwIP/src/core/dns.c ****  *    written permission.
  57:Middlewares/Third_Party/LwIP/src/core/dns.c ****  *
  58:Middlewares/Third_Party/LwIP/src/core/dns.c ****  * THIS SOFTWARE IS PROVIDED BY THE AUTHOR ``AS IS'' AND ANY EXPRESS
  59:Middlewares/Third_Party/LwIP/src/core/dns.c ****  * OR IMPLIED WARRANTIES, INCLUDING, BUT NOT LIMITED TO, THE IMPLIED
  60:Middlewares/Third_Party/LwIP/src/core/dns.c ****  * WARRANTIES OF MERCHANTABILITY AND FITNESS FOR A PARTICULAR PURPOSE
  61:Middlewares/Third_Party/LwIP/src/core/dns.c ****  * ARE DISCLAIMED.  IN NO EVENT SHALL THE AUTHOR BE LIABLE FOR ANY
  62:Middlewares/Third_Party/LwIP/src/core/dns.c ****  * DIRECT, INDIRECT, INCIDENTAL, SPECIAL, EXEMPLARY, OR CONSEQUENTIAL
  63:Middlewares/Third_Party/LwIP/src/core/dns.c ****  * DAMAGES (INCLUDING, BUT NOT LIMITED TO, PROCUREMENT OF SUBSTITUTE
  64:Middlewares/Third_Party/LwIP/src/core/dns.c ****  * GOODS OR SERVICES; LOSS OF USE, DATA, OR PROFITS; OR BUSINESS
  65:Middlewares/Third_Party/LwIP/src/core/dns.c ****  * INTERRUPTION) HOWEVER CAUSED AND ON ANY THEORY OF LIABILITY,
  66:Middlewares/Third_Party/LwIP/src/core/dns.c ****  * WHETHER IN CONTRACT, STRICT LIABILITY, OR TORT (INCLUDING
  67:Middlewares/Third_Party/LwIP/src/core/dns.c ****  * NEGLIGENCE OR OTHERWISE) ARISING IN ANY WAY OUT OF THE USE OF THIS
  68:Middlewares/Third_Party/LwIP/src/core/dns.c ****  * SOFTWARE, EVEN IF ADVISED OF THE POSSIBILITY OF SUCH DAMAGE.
  69:Middlewares/Third_Party/LwIP/src/core/dns.c ****  */
  70:Middlewares/Third_Party/LwIP/src/core/dns.c **** 
  71:Middlewares/Third_Party/LwIP/src/core/dns.c **** /*-----------------------------------------------------------------------------
  72:Middlewares/Third_Party/LwIP/src/core/dns.c ****  * RFC 1035 - Domain names - implementation and specification
  73:Middlewares/Third_Party/LwIP/src/core/dns.c ****  * RFC 2181 - Clarifications to the DNS Specification
  74:Middlewares/Third_Party/LwIP/src/core/dns.c ****  *----------------------------------------------------------------------------*/
  75:Middlewares/Third_Party/LwIP/src/core/dns.c **** 
  76:Middlewares/Third_Party/LwIP/src/core/dns.c **** /** @todo: define good default values (rfc compliance) */
  77:Middlewares/Third_Party/LwIP/src/core/dns.c **** /** @todo: improve answer parsing, more checkings... */
  78:Middlewares/Third_Party/LwIP/src/core/dns.c **** /** @todo: check RFC1035 - 7.3. Processing responses */
  79:Middlewares/Third_Party/LwIP/src/core/dns.c **** /** @todo: one-shot mDNS: dual-stack fallback to another IP version */
  80:Middlewares/Third_Party/LwIP/src/core/dns.c **** 
  81:Middlewares/Third_Party/LwIP/src/core/dns.c **** /*-----------------------------------------------------------------------------
  82:Middlewares/Third_Party/LwIP/src/core/dns.c ****  * Includes
  83:Middlewares/Third_Party/LwIP/src/core/dns.c ****  *----------------------------------------------------------------------------*/
  84:Middlewares/Third_Party/LwIP/src/core/dns.c **** 
  85:Middlewares/Third_Party/LwIP/src/core/dns.c **** #include "lwip/opt.h"
  86:Middlewares/Third_Party/LwIP/src/core/dns.c **** 
  87:Middlewares/Third_Party/LwIP/src/core/dns.c **** #if LWIP_DNS /* don't build if not configured for use in lwipopts.h */
  88:Middlewares/Third_Party/LwIP/src/core/dns.c **** 
  89:Middlewares/Third_Party/LwIP/src/core/dns.c **** #include "lwip/def.h"
ARM GAS  C:\Users\milek\AppData\Local\Temp\ccm1c3Aw.s 			page 3


  90:Middlewares/Third_Party/LwIP/src/core/dns.c **** #include "lwip/udp.h"
  91:Middlewares/Third_Party/LwIP/src/core/dns.c **** #include "lwip/mem.h"
  92:Middlewares/Third_Party/LwIP/src/core/dns.c **** #include "lwip/memp.h"
  93:Middlewares/Third_Party/LwIP/src/core/dns.c **** #include "lwip/dns.h"
  94:Middlewares/Third_Party/LwIP/src/core/dns.c **** #include "lwip/prot/dns.h"
  95:Middlewares/Third_Party/LwIP/src/core/dns.c **** 
  96:Middlewares/Third_Party/LwIP/src/core/dns.c **** #include <string.h>
  97:Middlewares/Third_Party/LwIP/src/core/dns.c **** 
  98:Middlewares/Third_Party/LwIP/src/core/dns.c **** /** Random generator function to create random TXIDs and source ports for queries */
  99:Middlewares/Third_Party/LwIP/src/core/dns.c **** #ifndef DNS_RAND_TXID
 100:Middlewares/Third_Party/LwIP/src/core/dns.c **** #if ((LWIP_DNS_SECURE & LWIP_DNS_SECURE_RAND_XID) != 0)
 101:Middlewares/Third_Party/LwIP/src/core/dns.c **** #define DNS_RAND_TXID LWIP_RAND
 102:Middlewares/Third_Party/LwIP/src/core/dns.c **** #else
 103:Middlewares/Third_Party/LwIP/src/core/dns.c **** static u16_t dns_txid;
 104:Middlewares/Third_Party/LwIP/src/core/dns.c **** #define DNS_RAND_TXID() (++dns_txid)
 105:Middlewares/Third_Party/LwIP/src/core/dns.c **** #endif
 106:Middlewares/Third_Party/LwIP/src/core/dns.c **** #endif
 107:Middlewares/Third_Party/LwIP/src/core/dns.c **** 
 108:Middlewares/Third_Party/LwIP/src/core/dns.c **** /** Limits the source port to be >= 1024 by default */
 109:Middlewares/Third_Party/LwIP/src/core/dns.c **** #ifndef DNS_PORT_ALLOWED
 110:Middlewares/Third_Party/LwIP/src/core/dns.c **** #define DNS_PORT_ALLOWED(port) ((port) >= 1024)
 111:Middlewares/Third_Party/LwIP/src/core/dns.c **** #endif
 112:Middlewares/Third_Party/LwIP/src/core/dns.c **** 
 113:Middlewares/Third_Party/LwIP/src/core/dns.c **** /** DNS maximum number of retries when asking for a name, before "timeout". */
 114:Middlewares/Third_Party/LwIP/src/core/dns.c **** #ifndef DNS_MAX_RETRIES
 115:Middlewares/Third_Party/LwIP/src/core/dns.c **** #define DNS_MAX_RETRIES           4
 116:Middlewares/Third_Party/LwIP/src/core/dns.c **** #endif
 117:Middlewares/Third_Party/LwIP/src/core/dns.c **** 
 118:Middlewares/Third_Party/LwIP/src/core/dns.c **** /** DNS resource record max. TTL (one week as default) */
 119:Middlewares/Third_Party/LwIP/src/core/dns.c **** #ifndef DNS_MAX_TTL
 120:Middlewares/Third_Party/LwIP/src/core/dns.c **** #define DNS_MAX_TTL               604800
 121:Middlewares/Third_Party/LwIP/src/core/dns.c **** #elif DNS_MAX_TTL > 0x7FFFFFFF
 122:Middlewares/Third_Party/LwIP/src/core/dns.c **** #error DNS_MAX_TTL must be a positive 32-bit value
 123:Middlewares/Third_Party/LwIP/src/core/dns.c **** #endif
 124:Middlewares/Third_Party/LwIP/src/core/dns.c **** 
 125:Middlewares/Third_Party/LwIP/src/core/dns.c **** #if DNS_TABLE_SIZE > 255
 126:Middlewares/Third_Party/LwIP/src/core/dns.c **** #error DNS_TABLE_SIZE must fit into an u8_t
 127:Middlewares/Third_Party/LwIP/src/core/dns.c **** #endif
 128:Middlewares/Third_Party/LwIP/src/core/dns.c **** #if DNS_MAX_SERVERS > 255
 129:Middlewares/Third_Party/LwIP/src/core/dns.c **** #error DNS_MAX_SERVERS must fit into an u8_t
 130:Middlewares/Third_Party/LwIP/src/core/dns.c **** #endif
 131:Middlewares/Third_Party/LwIP/src/core/dns.c **** 
 132:Middlewares/Third_Party/LwIP/src/core/dns.c **** /* The number of parallel requests (i.e. calls to dns_gethostbyname
 133:Middlewares/Third_Party/LwIP/src/core/dns.c ****  * that cannot be answered from the DNS table.
 134:Middlewares/Third_Party/LwIP/src/core/dns.c ****  * This is set to the table size by default.
 135:Middlewares/Third_Party/LwIP/src/core/dns.c ****  */
 136:Middlewares/Third_Party/LwIP/src/core/dns.c **** #if ((LWIP_DNS_SECURE & LWIP_DNS_SECURE_NO_MULTIPLE_OUTSTANDING) != 0)
 137:Middlewares/Third_Party/LwIP/src/core/dns.c **** #ifndef DNS_MAX_REQUESTS
 138:Middlewares/Third_Party/LwIP/src/core/dns.c **** #define DNS_MAX_REQUESTS          DNS_TABLE_SIZE
 139:Middlewares/Third_Party/LwIP/src/core/dns.c **** #else
 140:Middlewares/Third_Party/LwIP/src/core/dns.c **** #if DNS_MAX_REQUESTS > 255
 141:Middlewares/Third_Party/LwIP/src/core/dns.c **** #error DNS_MAX_REQUESTS must fit into an u8_t
 142:Middlewares/Third_Party/LwIP/src/core/dns.c **** #endif
 143:Middlewares/Third_Party/LwIP/src/core/dns.c **** #endif
 144:Middlewares/Third_Party/LwIP/src/core/dns.c **** #else
 145:Middlewares/Third_Party/LwIP/src/core/dns.c **** /* In this configuration, both arrays have to have the same size and are used
 146:Middlewares/Third_Party/LwIP/src/core/dns.c ****  * like one entry (used/free) */
ARM GAS  C:\Users\milek\AppData\Local\Temp\ccm1c3Aw.s 			page 4


 147:Middlewares/Third_Party/LwIP/src/core/dns.c **** #define DNS_MAX_REQUESTS          DNS_TABLE_SIZE
 148:Middlewares/Third_Party/LwIP/src/core/dns.c **** #endif
 149:Middlewares/Third_Party/LwIP/src/core/dns.c **** 
 150:Middlewares/Third_Party/LwIP/src/core/dns.c **** /* The number of UDP source ports used in parallel */
 151:Middlewares/Third_Party/LwIP/src/core/dns.c **** #if ((LWIP_DNS_SECURE & LWIP_DNS_SECURE_RAND_SRC_PORT) != 0)
 152:Middlewares/Third_Party/LwIP/src/core/dns.c **** #ifndef DNS_MAX_SOURCE_PORTS
 153:Middlewares/Third_Party/LwIP/src/core/dns.c **** #define DNS_MAX_SOURCE_PORTS      DNS_MAX_REQUESTS
 154:Middlewares/Third_Party/LwIP/src/core/dns.c **** #else
 155:Middlewares/Third_Party/LwIP/src/core/dns.c **** #if DNS_MAX_SOURCE_PORTS > 255
 156:Middlewares/Third_Party/LwIP/src/core/dns.c **** #error DNS_MAX_SOURCE_PORTS must fit into an u8_t
 157:Middlewares/Third_Party/LwIP/src/core/dns.c **** #endif
 158:Middlewares/Third_Party/LwIP/src/core/dns.c **** #endif
 159:Middlewares/Third_Party/LwIP/src/core/dns.c **** #else
 160:Middlewares/Third_Party/LwIP/src/core/dns.c **** #ifdef DNS_MAX_SOURCE_PORTS
 161:Middlewares/Third_Party/LwIP/src/core/dns.c **** #undef DNS_MAX_SOURCE_PORTS
 162:Middlewares/Third_Party/LwIP/src/core/dns.c **** #endif
 163:Middlewares/Third_Party/LwIP/src/core/dns.c **** #define DNS_MAX_SOURCE_PORTS      1
 164:Middlewares/Third_Party/LwIP/src/core/dns.c **** #endif
 165:Middlewares/Third_Party/LwIP/src/core/dns.c **** 
 166:Middlewares/Third_Party/LwIP/src/core/dns.c **** #if LWIP_IPV4 && LWIP_IPV6
 167:Middlewares/Third_Party/LwIP/src/core/dns.c **** #define LWIP_DNS_ADDRTYPE_IS_IPV6(t) (((t) == LWIP_DNS_ADDRTYPE_IPV6_IPV4) || ((t) == LWIP_DNS_ADDR
 168:Middlewares/Third_Party/LwIP/src/core/dns.c **** #define LWIP_DNS_ADDRTYPE_MATCH_IP(t, ip) (IP_IS_V6_VAL(ip) ? LWIP_DNS_ADDRTYPE_IS_IPV6(t) : (!LWIP
 169:Middlewares/Third_Party/LwIP/src/core/dns.c **** #define LWIP_DNS_ADDRTYPE_ARG(x) , x
 170:Middlewares/Third_Party/LwIP/src/core/dns.c **** #define LWIP_DNS_ADDRTYPE_ARG_OR_ZERO(x) x
 171:Middlewares/Third_Party/LwIP/src/core/dns.c **** #define LWIP_DNS_SET_ADDRTYPE(x, y) do { x = y; } while(0)
 172:Middlewares/Third_Party/LwIP/src/core/dns.c **** #else
 173:Middlewares/Third_Party/LwIP/src/core/dns.c **** #if LWIP_IPV6
 174:Middlewares/Third_Party/LwIP/src/core/dns.c **** #define LWIP_DNS_ADDRTYPE_IS_IPV6(t) 1
 175:Middlewares/Third_Party/LwIP/src/core/dns.c **** #else
 176:Middlewares/Third_Party/LwIP/src/core/dns.c **** #define LWIP_DNS_ADDRTYPE_IS_IPV6(t) 0
 177:Middlewares/Third_Party/LwIP/src/core/dns.c **** #endif
 178:Middlewares/Third_Party/LwIP/src/core/dns.c **** #define LWIP_DNS_ADDRTYPE_MATCH_IP(t, ip) 1
 179:Middlewares/Third_Party/LwIP/src/core/dns.c **** #define LWIP_DNS_ADDRTYPE_ARG(x)
 180:Middlewares/Third_Party/LwIP/src/core/dns.c **** #define LWIP_DNS_ADDRTYPE_ARG_OR_ZERO(x) 0
 181:Middlewares/Third_Party/LwIP/src/core/dns.c **** #define LWIP_DNS_SET_ADDRTYPE(x, y)
 182:Middlewares/Third_Party/LwIP/src/core/dns.c **** #endif /* LWIP_IPV4 && LWIP_IPV6 */
 183:Middlewares/Third_Party/LwIP/src/core/dns.c **** 
 184:Middlewares/Third_Party/LwIP/src/core/dns.c **** #if LWIP_DNS_SUPPORT_MDNS_QUERIES
 185:Middlewares/Third_Party/LwIP/src/core/dns.c **** #define LWIP_DNS_ISMDNS_ARG(x) , x
 186:Middlewares/Third_Party/LwIP/src/core/dns.c **** #else
 187:Middlewares/Third_Party/LwIP/src/core/dns.c **** #define LWIP_DNS_ISMDNS_ARG(x)
 188:Middlewares/Third_Party/LwIP/src/core/dns.c **** #endif
 189:Middlewares/Third_Party/LwIP/src/core/dns.c **** 
 190:Middlewares/Third_Party/LwIP/src/core/dns.c **** /** DNS query message structure.
 191:Middlewares/Third_Party/LwIP/src/core/dns.c ****     No packing needed: only used locally on the stack. */
 192:Middlewares/Third_Party/LwIP/src/core/dns.c **** struct dns_query {
 193:Middlewares/Third_Party/LwIP/src/core/dns.c ****   /* DNS query record starts with either a domain name or a pointer
 194:Middlewares/Third_Party/LwIP/src/core/dns.c ****      to a name already present somewhere in the packet. */
 195:Middlewares/Third_Party/LwIP/src/core/dns.c ****   u16_t type;
 196:Middlewares/Third_Party/LwIP/src/core/dns.c ****   u16_t cls;
 197:Middlewares/Third_Party/LwIP/src/core/dns.c **** };
 198:Middlewares/Third_Party/LwIP/src/core/dns.c **** #define SIZEOF_DNS_QUERY 4
 199:Middlewares/Third_Party/LwIP/src/core/dns.c **** 
 200:Middlewares/Third_Party/LwIP/src/core/dns.c **** /** DNS answer message structure.
 201:Middlewares/Third_Party/LwIP/src/core/dns.c ****     No packing needed: only used locally on the stack. */
 202:Middlewares/Third_Party/LwIP/src/core/dns.c **** struct dns_answer {
 203:Middlewares/Third_Party/LwIP/src/core/dns.c ****   /* DNS answer record starts with either a domain name or a pointer
ARM GAS  C:\Users\milek\AppData\Local\Temp\ccm1c3Aw.s 			page 5


 204:Middlewares/Third_Party/LwIP/src/core/dns.c ****      to a name already present somewhere in the packet. */
 205:Middlewares/Third_Party/LwIP/src/core/dns.c ****   u16_t type;
 206:Middlewares/Third_Party/LwIP/src/core/dns.c ****   u16_t cls;
 207:Middlewares/Third_Party/LwIP/src/core/dns.c ****   u32_t ttl;
 208:Middlewares/Third_Party/LwIP/src/core/dns.c ****   u16_t len;
 209:Middlewares/Third_Party/LwIP/src/core/dns.c **** };
 210:Middlewares/Third_Party/LwIP/src/core/dns.c **** #define SIZEOF_DNS_ANSWER 10
 211:Middlewares/Third_Party/LwIP/src/core/dns.c **** /* maximum allowed size for the struct due to non-packed */
 212:Middlewares/Third_Party/LwIP/src/core/dns.c **** #define SIZEOF_DNS_ANSWER_ASSERT 12
 213:Middlewares/Third_Party/LwIP/src/core/dns.c **** 
 214:Middlewares/Third_Party/LwIP/src/core/dns.c **** /* DNS table entry states */
 215:Middlewares/Third_Party/LwIP/src/core/dns.c **** typedef enum {
 216:Middlewares/Third_Party/LwIP/src/core/dns.c ****   DNS_STATE_UNUSED           = 0,
 217:Middlewares/Third_Party/LwIP/src/core/dns.c ****   DNS_STATE_NEW              = 1,
 218:Middlewares/Third_Party/LwIP/src/core/dns.c ****   DNS_STATE_ASKING           = 2,
 219:Middlewares/Third_Party/LwIP/src/core/dns.c ****   DNS_STATE_DONE             = 3
 220:Middlewares/Third_Party/LwIP/src/core/dns.c **** } dns_state_enum_t;
 221:Middlewares/Third_Party/LwIP/src/core/dns.c **** 
 222:Middlewares/Third_Party/LwIP/src/core/dns.c **** /** DNS table entry */
 223:Middlewares/Third_Party/LwIP/src/core/dns.c **** struct dns_table_entry {
 224:Middlewares/Third_Party/LwIP/src/core/dns.c ****   u32_t ttl;
 225:Middlewares/Third_Party/LwIP/src/core/dns.c ****   ip_addr_t ipaddr;
 226:Middlewares/Third_Party/LwIP/src/core/dns.c ****   u16_t txid;
 227:Middlewares/Third_Party/LwIP/src/core/dns.c ****   u8_t  state;
 228:Middlewares/Third_Party/LwIP/src/core/dns.c ****   u8_t  server_idx;
 229:Middlewares/Third_Party/LwIP/src/core/dns.c ****   u8_t  tmr;
 230:Middlewares/Third_Party/LwIP/src/core/dns.c ****   u8_t  retries;
 231:Middlewares/Third_Party/LwIP/src/core/dns.c ****   u8_t  seqno;
 232:Middlewares/Third_Party/LwIP/src/core/dns.c **** #if ((LWIP_DNS_SECURE & LWIP_DNS_SECURE_RAND_SRC_PORT) != 0)
 233:Middlewares/Third_Party/LwIP/src/core/dns.c ****   u8_t pcb_idx;
 234:Middlewares/Third_Party/LwIP/src/core/dns.c **** #endif
 235:Middlewares/Third_Party/LwIP/src/core/dns.c ****   char name[DNS_MAX_NAME_LENGTH];
 236:Middlewares/Third_Party/LwIP/src/core/dns.c **** #if LWIP_IPV4 && LWIP_IPV6
 237:Middlewares/Third_Party/LwIP/src/core/dns.c ****   u8_t reqaddrtype;
 238:Middlewares/Third_Party/LwIP/src/core/dns.c **** #endif /* LWIP_IPV4 && LWIP_IPV6 */
 239:Middlewares/Third_Party/LwIP/src/core/dns.c **** #if LWIP_DNS_SUPPORT_MDNS_QUERIES
 240:Middlewares/Third_Party/LwIP/src/core/dns.c ****   u8_t is_mdns;
 241:Middlewares/Third_Party/LwIP/src/core/dns.c **** #endif
 242:Middlewares/Third_Party/LwIP/src/core/dns.c **** };
 243:Middlewares/Third_Party/LwIP/src/core/dns.c **** 
 244:Middlewares/Third_Party/LwIP/src/core/dns.c **** /** DNS request table entry: used when dns_gehostbyname cannot answer the
 245:Middlewares/Third_Party/LwIP/src/core/dns.c ****  * request from the DNS table */
 246:Middlewares/Third_Party/LwIP/src/core/dns.c **** struct dns_req_entry {
 247:Middlewares/Third_Party/LwIP/src/core/dns.c ****   /* pointer to callback on DNS query done */
 248:Middlewares/Third_Party/LwIP/src/core/dns.c ****   dns_found_callback found;
 249:Middlewares/Third_Party/LwIP/src/core/dns.c ****   /* argument passed to the callback function */
 250:Middlewares/Third_Party/LwIP/src/core/dns.c ****   void *arg;
 251:Middlewares/Third_Party/LwIP/src/core/dns.c **** #if ((LWIP_DNS_SECURE & LWIP_DNS_SECURE_NO_MULTIPLE_OUTSTANDING) != 0)
 252:Middlewares/Third_Party/LwIP/src/core/dns.c ****   u8_t dns_table_idx;
 253:Middlewares/Third_Party/LwIP/src/core/dns.c **** #endif
 254:Middlewares/Third_Party/LwIP/src/core/dns.c **** #if LWIP_IPV4 && LWIP_IPV6
 255:Middlewares/Third_Party/LwIP/src/core/dns.c ****   u8_t reqaddrtype;
 256:Middlewares/Third_Party/LwIP/src/core/dns.c **** #endif /* LWIP_IPV4 && LWIP_IPV6 */
 257:Middlewares/Third_Party/LwIP/src/core/dns.c **** };
 258:Middlewares/Third_Party/LwIP/src/core/dns.c **** 
 259:Middlewares/Third_Party/LwIP/src/core/dns.c **** #if DNS_LOCAL_HOSTLIST
 260:Middlewares/Third_Party/LwIP/src/core/dns.c **** 
ARM GAS  C:\Users\milek\AppData\Local\Temp\ccm1c3Aw.s 			page 6


 261:Middlewares/Third_Party/LwIP/src/core/dns.c **** #if DNS_LOCAL_HOSTLIST_IS_DYNAMIC
 262:Middlewares/Third_Party/LwIP/src/core/dns.c **** /** Local host-list. For hostnames in this list, no
 263:Middlewares/Third_Party/LwIP/src/core/dns.c ****  *  external name resolution is performed */
 264:Middlewares/Third_Party/LwIP/src/core/dns.c **** static struct local_hostlist_entry *local_hostlist_dynamic;
 265:Middlewares/Third_Party/LwIP/src/core/dns.c **** #else /* DNS_LOCAL_HOSTLIST_IS_DYNAMIC */
 266:Middlewares/Third_Party/LwIP/src/core/dns.c **** 
 267:Middlewares/Third_Party/LwIP/src/core/dns.c **** /** Defining this allows the local_hostlist_static to be placed in a different
 268:Middlewares/Third_Party/LwIP/src/core/dns.c ****  * linker section (e.g. FLASH) */
 269:Middlewares/Third_Party/LwIP/src/core/dns.c **** #ifndef DNS_LOCAL_HOSTLIST_STORAGE_PRE
 270:Middlewares/Third_Party/LwIP/src/core/dns.c **** #define DNS_LOCAL_HOSTLIST_STORAGE_PRE static
 271:Middlewares/Third_Party/LwIP/src/core/dns.c **** #endif /* DNS_LOCAL_HOSTLIST_STORAGE_PRE */
 272:Middlewares/Third_Party/LwIP/src/core/dns.c **** /** Defining this allows the local_hostlist_static to be placed in a different
 273:Middlewares/Third_Party/LwIP/src/core/dns.c ****  * linker section (e.g. FLASH) */
 274:Middlewares/Third_Party/LwIP/src/core/dns.c **** #ifndef DNS_LOCAL_HOSTLIST_STORAGE_POST
 275:Middlewares/Third_Party/LwIP/src/core/dns.c **** #define DNS_LOCAL_HOSTLIST_STORAGE_POST
 276:Middlewares/Third_Party/LwIP/src/core/dns.c **** #endif /* DNS_LOCAL_HOSTLIST_STORAGE_POST */
 277:Middlewares/Third_Party/LwIP/src/core/dns.c **** DNS_LOCAL_HOSTLIST_STORAGE_PRE struct local_hostlist_entry local_hostlist_static[]
 278:Middlewares/Third_Party/LwIP/src/core/dns.c ****   DNS_LOCAL_HOSTLIST_STORAGE_POST = DNS_LOCAL_HOSTLIST_INIT;
 279:Middlewares/Third_Party/LwIP/src/core/dns.c **** 
 280:Middlewares/Third_Party/LwIP/src/core/dns.c **** #endif /* DNS_LOCAL_HOSTLIST_IS_DYNAMIC */
 281:Middlewares/Third_Party/LwIP/src/core/dns.c **** 
 282:Middlewares/Third_Party/LwIP/src/core/dns.c **** static void dns_init_local(void);
 283:Middlewares/Third_Party/LwIP/src/core/dns.c **** static err_t dns_lookup_local(const char *hostname, ip_addr_t *addr LWIP_DNS_ADDRTYPE_ARG(u8_t dns_
 284:Middlewares/Third_Party/LwIP/src/core/dns.c **** #endif /* DNS_LOCAL_HOSTLIST */
 285:Middlewares/Third_Party/LwIP/src/core/dns.c **** 
 286:Middlewares/Third_Party/LwIP/src/core/dns.c **** 
 287:Middlewares/Third_Party/LwIP/src/core/dns.c **** /* forward declarations */
 288:Middlewares/Third_Party/LwIP/src/core/dns.c **** static void dns_recv(void *s, struct udp_pcb *pcb, struct pbuf *p, const ip_addr_t *addr, u16_t por
 289:Middlewares/Third_Party/LwIP/src/core/dns.c **** static void dns_check_entries(void);
 290:Middlewares/Third_Party/LwIP/src/core/dns.c **** static void dns_call_found(u8_t idx, ip_addr_t* addr);
 291:Middlewares/Third_Party/LwIP/src/core/dns.c **** 
 292:Middlewares/Third_Party/LwIP/src/core/dns.c **** /*-----------------------------------------------------------------------------
 293:Middlewares/Third_Party/LwIP/src/core/dns.c ****  * Globals
 294:Middlewares/Third_Party/LwIP/src/core/dns.c ****  *----------------------------------------------------------------------------*/
 295:Middlewares/Third_Party/LwIP/src/core/dns.c **** 
 296:Middlewares/Third_Party/LwIP/src/core/dns.c **** /* DNS variables */
 297:Middlewares/Third_Party/LwIP/src/core/dns.c **** static struct udp_pcb        *dns_pcbs[DNS_MAX_SOURCE_PORTS];
 298:Middlewares/Third_Party/LwIP/src/core/dns.c **** #if ((LWIP_DNS_SECURE & LWIP_DNS_SECURE_RAND_SRC_PORT) != 0)
 299:Middlewares/Third_Party/LwIP/src/core/dns.c **** static u8_t                   dns_last_pcb_idx;
 300:Middlewares/Third_Party/LwIP/src/core/dns.c **** #endif
 301:Middlewares/Third_Party/LwIP/src/core/dns.c **** static u8_t                   dns_seqno;
 302:Middlewares/Third_Party/LwIP/src/core/dns.c **** static struct dns_table_entry dns_table[DNS_TABLE_SIZE];
 303:Middlewares/Third_Party/LwIP/src/core/dns.c **** static struct dns_req_entry   dns_requests[DNS_MAX_REQUESTS];
 304:Middlewares/Third_Party/LwIP/src/core/dns.c **** static ip_addr_t              dns_servers[DNS_MAX_SERVERS];
 305:Middlewares/Third_Party/LwIP/src/core/dns.c **** 
 306:Middlewares/Third_Party/LwIP/src/core/dns.c **** #if LWIP_IPV4
 307:Middlewares/Third_Party/LwIP/src/core/dns.c **** const ip_addr_t dns_mquery_v4group = DNS_MQUERY_IPV4_GROUP_INIT;
 308:Middlewares/Third_Party/LwIP/src/core/dns.c **** #endif /* LWIP_IPV4 */
 309:Middlewares/Third_Party/LwIP/src/core/dns.c **** #if LWIP_IPV6
 310:Middlewares/Third_Party/LwIP/src/core/dns.c **** const ip_addr_t dns_mquery_v6group = DNS_MQUERY_IPV6_GROUP_INIT;
 311:Middlewares/Third_Party/LwIP/src/core/dns.c **** #endif /* LWIP_IPV6 */
 312:Middlewares/Third_Party/LwIP/src/core/dns.c **** 
 313:Middlewares/Third_Party/LwIP/src/core/dns.c **** /**
 314:Middlewares/Third_Party/LwIP/src/core/dns.c ****  * Initialize the resolver: set up the UDP pcb and configure the default server
 315:Middlewares/Third_Party/LwIP/src/core/dns.c ****  * (if DNS_SERVER_ADDRESS is set).
 316:Middlewares/Third_Party/LwIP/src/core/dns.c ****  */
 317:Middlewares/Third_Party/LwIP/src/core/dns.c **** void
ARM GAS  C:\Users\milek\AppData\Local\Temp\ccm1c3Aw.s 			page 7


 318:Middlewares/Third_Party/LwIP/src/core/dns.c **** dns_init(void)
 319:Middlewares/Third_Party/LwIP/src/core/dns.c **** {
 320:Middlewares/Third_Party/LwIP/src/core/dns.c **** #ifdef DNS_SERVER_ADDRESS
 321:Middlewares/Third_Party/LwIP/src/core/dns.c ****   /* initialize default DNS server address */
 322:Middlewares/Third_Party/LwIP/src/core/dns.c ****   ip_addr_t dnsserver;
 323:Middlewares/Third_Party/LwIP/src/core/dns.c ****   DNS_SERVER_ADDRESS(&dnsserver);
 324:Middlewares/Third_Party/LwIP/src/core/dns.c ****   dns_setserver(0, &dnsserver);
 325:Middlewares/Third_Party/LwIP/src/core/dns.c **** #endif /* DNS_SERVER_ADDRESS */
 326:Middlewares/Third_Party/LwIP/src/core/dns.c **** 
 327:Middlewares/Third_Party/LwIP/src/core/dns.c ****   LWIP_ASSERT("sanity check SIZEOF_DNS_QUERY",
 328:Middlewares/Third_Party/LwIP/src/core/dns.c ****     sizeof(struct dns_query) == SIZEOF_DNS_QUERY);
 329:Middlewares/Third_Party/LwIP/src/core/dns.c ****   LWIP_ASSERT("sanity check SIZEOF_DNS_ANSWER",
 330:Middlewares/Third_Party/LwIP/src/core/dns.c ****     sizeof(struct dns_answer) <= SIZEOF_DNS_ANSWER_ASSERT);
 331:Middlewares/Third_Party/LwIP/src/core/dns.c **** 
 332:Middlewares/Third_Party/LwIP/src/core/dns.c ****   LWIP_DEBUGF(DNS_DEBUG, ("dns_init: initializing\n"));
 333:Middlewares/Third_Party/LwIP/src/core/dns.c **** 
 334:Middlewares/Third_Party/LwIP/src/core/dns.c ****   /* if dns client not yet initialized... */
 335:Middlewares/Third_Party/LwIP/src/core/dns.c **** #if ((LWIP_DNS_SECURE & LWIP_DNS_SECURE_RAND_SRC_PORT) == 0)
 336:Middlewares/Third_Party/LwIP/src/core/dns.c ****   if (dns_pcbs[0] == NULL) {
 337:Middlewares/Third_Party/LwIP/src/core/dns.c ****     dns_pcbs[0] = udp_new_ip_type(IPADDR_TYPE_ANY);
 338:Middlewares/Third_Party/LwIP/src/core/dns.c ****     LWIP_ASSERT("dns_pcbs[0] != NULL", dns_pcbs[0] != NULL);
 339:Middlewares/Third_Party/LwIP/src/core/dns.c **** 
 340:Middlewares/Third_Party/LwIP/src/core/dns.c ****     /* initialize DNS table not needed (initialized to zero since it is a
 341:Middlewares/Third_Party/LwIP/src/core/dns.c ****      * global variable) */
 342:Middlewares/Third_Party/LwIP/src/core/dns.c ****     LWIP_ASSERT("For implicit initialization to work, DNS_STATE_UNUSED needs to be 0",
 343:Middlewares/Third_Party/LwIP/src/core/dns.c ****       DNS_STATE_UNUSED == 0);
 344:Middlewares/Third_Party/LwIP/src/core/dns.c **** 
 345:Middlewares/Third_Party/LwIP/src/core/dns.c ****     /* initialize DNS client */
 346:Middlewares/Third_Party/LwIP/src/core/dns.c ****     udp_bind(dns_pcbs[0], IP_ANY_TYPE, 0);
 347:Middlewares/Third_Party/LwIP/src/core/dns.c ****     udp_recv(dns_pcbs[0], dns_recv, NULL);
 348:Middlewares/Third_Party/LwIP/src/core/dns.c ****   }
 349:Middlewares/Third_Party/LwIP/src/core/dns.c **** #endif
 350:Middlewares/Third_Party/LwIP/src/core/dns.c **** 
 351:Middlewares/Third_Party/LwIP/src/core/dns.c **** #if DNS_LOCAL_HOSTLIST
 352:Middlewares/Third_Party/LwIP/src/core/dns.c ****   dns_init_local();
 353:Middlewares/Third_Party/LwIP/src/core/dns.c **** #endif
 354:Middlewares/Third_Party/LwIP/src/core/dns.c **** }
 355:Middlewares/Third_Party/LwIP/src/core/dns.c **** 
 356:Middlewares/Third_Party/LwIP/src/core/dns.c **** /**
 357:Middlewares/Third_Party/LwIP/src/core/dns.c ****  * @ingroup dns
 358:Middlewares/Third_Party/LwIP/src/core/dns.c ****  * Initialize one of the DNS servers.
 359:Middlewares/Third_Party/LwIP/src/core/dns.c ****  *
 360:Middlewares/Third_Party/LwIP/src/core/dns.c ****  * @param numdns the index of the DNS server to set must be < DNS_MAX_SERVERS
 361:Middlewares/Third_Party/LwIP/src/core/dns.c ****  * @param dnsserver IP address of the DNS server to set
 362:Middlewares/Third_Party/LwIP/src/core/dns.c ****  */
 363:Middlewares/Third_Party/LwIP/src/core/dns.c **** void
 364:Middlewares/Third_Party/LwIP/src/core/dns.c **** dns_setserver(u8_t numdns, const ip_addr_t *dnsserver)
 365:Middlewares/Third_Party/LwIP/src/core/dns.c **** {
 366:Middlewares/Third_Party/LwIP/src/core/dns.c ****   if (numdns < DNS_MAX_SERVERS) {
 367:Middlewares/Third_Party/LwIP/src/core/dns.c ****     if (dnsserver != NULL) {
 368:Middlewares/Third_Party/LwIP/src/core/dns.c ****       dns_servers[numdns] = (*dnsserver);
 369:Middlewares/Third_Party/LwIP/src/core/dns.c ****     } else {
 370:Middlewares/Third_Party/LwIP/src/core/dns.c ****       dns_servers[numdns] = *IP_ADDR_ANY;
 371:Middlewares/Third_Party/LwIP/src/core/dns.c ****     }
 372:Middlewares/Third_Party/LwIP/src/core/dns.c ****   }
 373:Middlewares/Third_Party/LwIP/src/core/dns.c **** }
 374:Middlewares/Third_Party/LwIP/src/core/dns.c **** 
ARM GAS  C:\Users\milek\AppData\Local\Temp\ccm1c3Aw.s 			page 8


 375:Middlewares/Third_Party/LwIP/src/core/dns.c **** /**
 376:Middlewares/Third_Party/LwIP/src/core/dns.c ****  * @ingroup dns
 377:Middlewares/Third_Party/LwIP/src/core/dns.c ****  * Obtain one of the currently configured DNS server.
 378:Middlewares/Third_Party/LwIP/src/core/dns.c ****  *
 379:Middlewares/Third_Party/LwIP/src/core/dns.c ****  * @param numdns the index of the DNS server
 380:Middlewares/Third_Party/LwIP/src/core/dns.c ****  * @return IP address of the indexed DNS server or "ip_addr_any" if the DNS
 381:Middlewares/Third_Party/LwIP/src/core/dns.c ****  *         server has not been configured.
 382:Middlewares/Third_Party/LwIP/src/core/dns.c ****  */
 383:Middlewares/Third_Party/LwIP/src/core/dns.c **** const ip_addr_t*
 384:Middlewares/Third_Party/LwIP/src/core/dns.c **** dns_getserver(u8_t numdns)
 385:Middlewares/Third_Party/LwIP/src/core/dns.c **** {
 386:Middlewares/Third_Party/LwIP/src/core/dns.c ****   if (numdns < DNS_MAX_SERVERS) {
 387:Middlewares/Third_Party/LwIP/src/core/dns.c ****     return &dns_servers[numdns];
 388:Middlewares/Third_Party/LwIP/src/core/dns.c ****   } else {
 389:Middlewares/Third_Party/LwIP/src/core/dns.c ****     return IP_ADDR_ANY;
 390:Middlewares/Third_Party/LwIP/src/core/dns.c ****   }
 391:Middlewares/Third_Party/LwIP/src/core/dns.c **** }
 392:Middlewares/Third_Party/LwIP/src/core/dns.c **** 
 393:Middlewares/Third_Party/LwIP/src/core/dns.c **** /**
 394:Middlewares/Third_Party/LwIP/src/core/dns.c ****  * The DNS resolver client timer - handle retries and timeouts and should
 395:Middlewares/Third_Party/LwIP/src/core/dns.c ****  * be called every DNS_TMR_INTERVAL milliseconds (every second by default).
 396:Middlewares/Third_Party/LwIP/src/core/dns.c ****  */
 397:Middlewares/Third_Party/LwIP/src/core/dns.c **** void
 398:Middlewares/Third_Party/LwIP/src/core/dns.c **** dns_tmr(void)
 399:Middlewares/Third_Party/LwIP/src/core/dns.c **** {
 400:Middlewares/Third_Party/LwIP/src/core/dns.c ****   LWIP_DEBUGF(DNS_DEBUG, ("dns_tmr: dns_check_entries\n"));
 401:Middlewares/Third_Party/LwIP/src/core/dns.c ****   dns_check_entries();
 402:Middlewares/Third_Party/LwIP/src/core/dns.c **** }
 403:Middlewares/Third_Party/LwIP/src/core/dns.c **** 
 404:Middlewares/Third_Party/LwIP/src/core/dns.c **** #if DNS_LOCAL_HOSTLIST
 405:Middlewares/Third_Party/LwIP/src/core/dns.c **** static void
 406:Middlewares/Third_Party/LwIP/src/core/dns.c **** dns_init_local(void)
 407:Middlewares/Third_Party/LwIP/src/core/dns.c **** {
 408:Middlewares/Third_Party/LwIP/src/core/dns.c **** #if DNS_LOCAL_HOSTLIST_IS_DYNAMIC && defined(DNS_LOCAL_HOSTLIST_INIT)
 409:Middlewares/Third_Party/LwIP/src/core/dns.c ****   size_t i;
 410:Middlewares/Third_Party/LwIP/src/core/dns.c ****   struct local_hostlist_entry *entry;
 411:Middlewares/Third_Party/LwIP/src/core/dns.c ****   /* Dynamic: copy entries from DNS_LOCAL_HOSTLIST_INIT to list */
 412:Middlewares/Third_Party/LwIP/src/core/dns.c ****   struct local_hostlist_entry local_hostlist_init[] = DNS_LOCAL_HOSTLIST_INIT;
 413:Middlewares/Third_Party/LwIP/src/core/dns.c ****   size_t namelen;
 414:Middlewares/Third_Party/LwIP/src/core/dns.c ****   for (i = 0; i < LWIP_ARRAYSIZE(local_hostlist_init); i++) {
 415:Middlewares/Third_Party/LwIP/src/core/dns.c ****     struct local_hostlist_entry *init_entry = &local_hostlist_init[i];
 416:Middlewares/Third_Party/LwIP/src/core/dns.c ****     LWIP_ASSERT("invalid host name (NULL)", init_entry->name != NULL);
 417:Middlewares/Third_Party/LwIP/src/core/dns.c ****     namelen = strlen(init_entry->name);
 418:Middlewares/Third_Party/LwIP/src/core/dns.c ****     LWIP_ASSERT("namelen <= DNS_LOCAL_HOSTLIST_MAX_NAMELEN", namelen <= DNS_LOCAL_HOSTLIST_MAX_NAME
 419:Middlewares/Third_Party/LwIP/src/core/dns.c ****     entry = (struct local_hostlist_entry *)memp_malloc(MEMP_LOCALHOSTLIST);
 420:Middlewares/Third_Party/LwIP/src/core/dns.c ****     LWIP_ASSERT("mem-error in dns_init_local", entry != NULL);
 421:Middlewares/Third_Party/LwIP/src/core/dns.c ****     if (entry != NULL) {
 422:Middlewares/Third_Party/LwIP/src/core/dns.c ****       char* entry_name = (char*)entry + sizeof(struct local_hostlist_entry);
 423:Middlewares/Third_Party/LwIP/src/core/dns.c ****       MEMCPY(entry_name, init_entry->name, namelen);
 424:Middlewares/Third_Party/LwIP/src/core/dns.c ****       entry_name[namelen] = 0;
 425:Middlewares/Third_Party/LwIP/src/core/dns.c ****       entry->name = entry_name;
 426:Middlewares/Third_Party/LwIP/src/core/dns.c ****       entry->addr = init_entry->addr;
 427:Middlewares/Third_Party/LwIP/src/core/dns.c ****       entry->next = local_hostlist_dynamic;
 428:Middlewares/Third_Party/LwIP/src/core/dns.c ****       local_hostlist_dynamic = entry;
 429:Middlewares/Third_Party/LwIP/src/core/dns.c ****     }
 430:Middlewares/Third_Party/LwIP/src/core/dns.c ****   }
 431:Middlewares/Third_Party/LwIP/src/core/dns.c **** #endif /* DNS_LOCAL_HOSTLIST_IS_DYNAMIC && defined(DNS_LOCAL_HOSTLIST_INIT) */
ARM GAS  C:\Users\milek\AppData\Local\Temp\ccm1c3Aw.s 			page 9


 432:Middlewares/Third_Party/LwIP/src/core/dns.c **** }
 433:Middlewares/Third_Party/LwIP/src/core/dns.c **** 
 434:Middlewares/Third_Party/LwIP/src/core/dns.c **** /**
 435:Middlewares/Third_Party/LwIP/src/core/dns.c ****  * @ingroup dns
 436:Middlewares/Third_Party/LwIP/src/core/dns.c ****  * Iterate the local host-list for a hostname.
 437:Middlewares/Third_Party/LwIP/src/core/dns.c ****  *
 438:Middlewares/Third_Party/LwIP/src/core/dns.c ****  * @param iterator_fn a function that is called for every entry in the local host-list
 439:Middlewares/Third_Party/LwIP/src/core/dns.c ****  * @param iterator_arg 3rd argument passed to iterator_fn
 440:Middlewares/Third_Party/LwIP/src/core/dns.c ****  * @return the number of entries in the local host-list
 441:Middlewares/Third_Party/LwIP/src/core/dns.c ****  */
 442:Middlewares/Third_Party/LwIP/src/core/dns.c **** size_t
 443:Middlewares/Third_Party/LwIP/src/core/dns.c **** dns_local_iterate(dns_found_callback iterator_fn, void *iterator_arg)
 444:Middlewares/Third_Party/LwIP/src/core/dns.c **** {
 445:Middlewares/Third_Party/LwIP/src/core/dns.c ****   size_t i;
 446:Middlewares/Third_Party/LwIP/src/core/dns.c **** #if DNS_LOCAL_HOSTLIST_IS_DYNAMIC
 447:Middlewares/Third_Party/LwIP/src/core/dns.c ****   struct local_hostlist_entry *entry = local_hostlist_dynamic;
 448:Middlewares/Third_Party/LwIP/src/core/dns.c ****   i = 0;
 449:Middlewares/Third_Party/LwIP/src/core/dns.c ****   while (entry != NULL) {
 450:Middlewares/Third_Party/LwIP/src/core/dns.c ****     if (iterator_fn != NULL) {
 451:Middlewares/Third_Party/LwIP/src/core/dns.c ****       iterator_fn(entry->name, &entry->addr, iterator_arg);
 452:Middlewares/Third_Party/LwIP/src/core/dns.c ****     }
 453:Middlewares/Third_Party/LwIP/src/core/dns.c ****     i++;
 454:Middlewares/Third_Party/LwIP/src/core/dns.c ****     entry = entry->next;
 455:Middlewares/Third_Party/LwIP/src/core/dns.c ****   }
 456:Middlewares/Third_Party/LwIP/src/core/dns.c **** #else /* DNS_LOCAL_HOSTLIST_IS_DYNAMIC */
 457:Middlewares/Third_Party/LwIP/src/core/dns.c ****   for (i = 0; i < LWIP_ARRAYSIZE(local_hostlist_static); i++) {
 458:Middlewares/Third_Party/LwIP/src/core/dns.c ****     if (iterator_fn != NULL) {
 459:Middlewares/Third_Party/LwIP/src/core/dns.c ****       iterator_fn(local_hostlist_static[i].name, &local_hostlist_static[i].addr, iterator_arg);
 460:Middlewares/Third_Party/LwIP/src/core/dns.c ****     }
 461:Middlewares/Third_Party/LwIP/src/core/dns.c ****   }
 462:Middlewares/Third_Party/LwIP/src/core/dns.c **** #endif /* DNS_LOCAL_HOSTLIST_IS_DYNAMIC */
 463:Middlewares/Third_Party/LwIP/src/core/dns.c ****   return i;
 464:Middlewares/Third_Party/LwIP/src/core/dns.c **** }
 465:Middlewares/Third_Party/LwIP/src/core/dns.c **** 
 466:Middlewares/Third_Party/LwIP/src/core/dns.c **** /**
 467:Middlewares/Third_Party/LwIP/src/core/dns.c ****  * @ingroup dns
 468:Middlewares/Third_Party/LwIP/src/core/dns.c ****  * Scans the local host-list for a hostname.
 469:Middlewares/Third_Party/LwIP/src/core/dns.c ****  *
 470:Middlewares/Third_Party/LwIP/src/core/dns.c ****  * @param hostname Hostname to look for in the local host-list
 471:Middlewares/Third_Party/LwIP/src/core/dns.c ****  * @param addr the first IP address for the hostname in the local host-list or
 472:Middlewares/Third_Party/LwIP/src/core/dns.c ****  *         IPADDR_NONE if not found.
 473:Middlewares/Third_Party/LwIP/src/core/dns.c ****  * @param dns_addrtype - LWIP_DNS_ADDRTYPE_IPV4_IPV6: try to resolve IPv4 (ATTENTION: no fallback h
 474:Middlewares/Third_Party/LwIP/src/core/dns.c ****  *                     - LWIP_DNS_ADDRTYPE_IPV6_IPV4: try to resolve IPv6 (ATTENTION: no fallback h
 475:Middlewares/Third_Party/LwIP/src/core/dns.c ****  *                     - LWIP_DNS_ADDRTYPE_IPV4: try to resolve IPv4 only
 476:Middlewares/Third_Party/LwIP/src/core/dns.c ****  *                     - LWIP_DNS_ADDRTYPE_IPV6: try to resolve IPv6 only
 477:Middlewares/Third_Party/LwIP/src/core/dns.c ****  * @return ERR_OK if found, ERR_ARG if not found
 478:Middlewares/Third_Party/LwIP/src/core/dns.c ****  */
 479:Middlewares/Third_Party/LwIP/src/core/dns.c **** err_t
 480:Middlewares/Third_Party/LwIP/src/core/dns.c **** dns_local_lookup(const char *hostname, ip_addr_t *addr, u8_t dns_addrtype)
 481:Middlewares/Third_Party/LwIP/src/core/dns.c **** {
 482:Middlewares/Third_Party/LwIP/src/core/dns.c ****   LWIP_UNUSED_ARG(dns_addrtype);
 483:Middlewares/Third_Party/LwIP/src/core/dns.c ****   return dns_lookup_local(hostname, addr LWIP_DNS_ADDRTYPE_ARG(dns_addrtype));
 484:Middlewares/Third_Party/LwIP/src/core/dns.c **** }
 485:Middlewares/Third_Party/LwIP/src/core/dns.c **** 
 486:Middlewares/Third_Party/LwIP/src/core/dns.c **** /* Internal implementation for dns_local_lookup and dns_lookup */
 487:Middlewares/Third_Party/LwIP/src/core/dns.c **** static err_t
 488:Middlewares/Third_Party/LwIP/src/core/dns.c **** dns_lookup_local(const char *hostname, ip_addr_t *addr LWIP_DNS_ADDRTYPE_ARG(u8_t dns_addrtype))
ARM GAS  C:\Users\milek\AppData\Local\Temp\ccm1c3Aw.s 			page 10


 489:Middlewares/Third_Party/LwIP/src/core/dns.c **** {
 490:Middlewares/Third_Party/LwIP/src/core/dns.c **** #if DNS_LOCAL_HOSTLIST_IS_DYNAMIC
 491:Middlewares/Third_Party/LwIP/src/core/dns.c ****   struct local_hostlist_entry *entry = local_hostlist_dynamic;
 492:Middlewares/Third_Party/LwIP/src/core/dns.c ****   while (entry != NULL) {
 493:Middlewares/Third_Party/LwIP/src/core/dns.c ****     if ((lwip_stricmp(entry->name, hostname) == 0) &&
 494:Middlewares/Third_Party/LwIP/src/core/dns.c ****         LWIP_DNS_ADDRTYPE_MATCH_IP(dns_addrtype, entry->addr)) {
 495:Middlewares/Third_Party/LwIP/src/core/dns.c ****       if (addr) {
 496:Middlewares/Third_Party/LwIP/src/core/dns.c ****         ip_addr_copy(*addr, entry->addr);
 497:Middlewares/Third_Party/LwIP/src/core/dns.c ****       }
 498:Middlewares/Third_Party/LwIP/src/core/dns.c ****       return ERR_OK;
 499:Middlewares/Third_Party/LwIP/src/core/dns.c ****     }
 500:Middlewares/Third_Party/LwIP/src/core/dns.c ****     entry = entry->next;
 501:Middlewares/Third_Party/LwIP/src/core/dns.c ****   }
 502:Middlewares/Third_Party/LwIP/src/core/dns.c **** #else /* DNS_LOCAL_HOSTLIST_IS_DYNAMIC */
 503:Middlewares/Third_Party/LwIP/src/core/dns.c ****   size_t i;
 504:Middlewares/Third_Party/LwIP/src/core/dns.c ****   for (i = 0; i < LWIP_ARRAYSIZE(local_hostlist_static); i++) {
 505:Middlewares/Third_Party/LwIP/src/core/dns.c ****     if ((lwip_stricmp(local_hostlist_static[i].name, hostname) == 0) &&
 506:Middlewares/Third_Party/LwIP/src/core/dns.c ****         LWIP_DNS_ADDRTYPE_MATCH_IP(dns_addrtype, local_hostlist_static[i].addr)) {
 507:Middlewares/Third_Party/LwIP/src/core/dns.c ****       if (addr) {
 508:Middlewares/Third_Party/LwIP/src/core/dns.c ****         ip_addr_copy(*addr, local_hostlist_static[i].addr);
 509:Middlewares/Third_Party/LwIP/src/core/dns.c ****       }
 510:Middlewares/Third_Party/LwIP/src/core/dns.c ****       return ERR_OK;
 511:Middlewares/Third_Party/LwIP/src/core/dns.c ****     }
 512:Middlewares/Third_Party/LwIP/src/core/dns.c ****   }
 513:Middlewares/Third_Party/LwIP/src/core/dns.c **** #endif /* DNS_LOCAL_HOSTLIST_IS_DYNAMIC */
 514:Middlewares/Third_Party/LwIP/src/core/dns.c ****   return ERR_ARG;
 515:Middlewares/Third_Party/LwIP/src/core/dns.c **** }
 516:Middlewares/Third_Party/LwIP/src/core/dns.c **** 
 517:Middlewares/Third_Party/LwIP/src/core/dns.c **** #if DNS_LOCAL_HOSTLIST_IS_DYNAMIC
 518:Middlewares/Third_Party/LwIP/src/core/dns.c **** /**
 519:Middlewares/Third_Party/LwIP/src/core/dns.c ****  * @ingroup dns
 520:Middlewares/Third_Party/LwIP/src/core/dns.c ****  * Remove all entries from the local host-list for a specific hostname
 521:Middlewares/Third_Party/LwIP/src/core/dns.c ****  * and/or IP address
 522:Middlewares/Third_Party/LwIP/src/core/dns.c ****  *
 523:Middlewares/Third_Party/LwIP/src/core/dns.c ****  * @param hostname hostname for which entries shall be removed from the local
 524:Middlewares/Third_Party/LwIP/src/core/dns.c ****  *                 host-list
 525:Middlewares/Third_Party/LwIP/src/core/dns.c ****  * @param addr address for which entries shall be removed from the local host-list
 526:Middlewares/Third_Party/LwIP/src/core/dns.c ****  * @return the number of removed entries
 527:Middlewares/Third_Party/LwIP/src/core/dns.c ****  */
 528:Middlewares/Third_Party/LwIP/src/core/dns.c **** int
 529:Middlewares/Third_Party/LwIP/src/core/dns.c **** dns_local_removehost(const char *hostname, const ip_addr_t *addr)
 530:Middlewares/Third_Party/LwIP/src/core/dns.c **** {
 531:Middlewares/Third_Party/LwIP/src/core/dns.c ****   int removed = 0;
 532:Middlewares/Third_Party/LwIP/src/core/dns.c ****   struct local_hostlist_entry *entry = local_hostlist_dynamic;
 533:Middlewares/Third_Party/LwIP/src/core/dns.c ****   struct local_hostlist_entry *last_entry = NULL;
 534:Middlewares/Third_Party/LwIP/src/core/dns.c ****   while (entry != NULL) {
 535:Middlewares/Third_Party/LwIP/src/core/dns.c ****     if (((hostname == NULL) || !lwip_stricmp(entry->name, hostname)) &&
 536:Middlewares/Third_Party/LwIP/src/core/dns.c ****         ((addr == NULL) || ip_addr_cmp(&entry->addr, addr))) {
 537:Middlewares/Third_Party/LwIP/src/core/dns.c ****       struct local_hostlist_entry *free_entry;
 538:Middlewares/Third_Party/LwIP/src/core/dns.c ****       if (last_entry != NULL) {
 539:Middlewares/Third_Party/LwIP/src/core/dns.c ****         last_entry->next = entry->next;
 540:Middlewares/Third_Party/LwIP/src/core/dns.c ****       } else {
 541:Middlewares/Third_Party/LwIP/src/core/dns.c ****         local_hostlist_dynamic = entry->next;
 542:Middlewares/Third_Party/LwIP/src/core/dns.c ****       }
 543:Middlewares/Third_Party/LwIP/src/core/dns.c ****       free_entry = entry;
 544:Middlewares/Third_Party/LwIP/src/core/dns.c ****       entry = entry->next;
 545:Middlewares/Third_Party/LwIP/src/core/dns.c ****       memp_free(MEMP_LOCALHOSTLIST, free_entry);
ARM GAS  C:\Users\milek\AppData\Local\Temp\ccm1c3Aw.s 			page 11


 546:Middlewares/Third_Party/LwIP/src/core/dns.c ****       removed++;
 547:Middlewares/Third_Party/LwIP/src/core/dns.c ****     } else {
 548:Middlewares/Third_Party/LwIP/src/core/dns.c ****       last_entry = entry;
 549:Middlewares/Third_Party/LwIP/src/core/dns.c ****       entry = entry->next;
 550:Middlewares/Third_Party/LwIP/src/core/dns.c ****     }
 551:Middlewares/Third_Party/LwIP/src/core/dns.c ****   }
 552:Middlewares/Third_Party/LwIP/src/core/dns.c ****   return removed;
 553:Middlewares/Third_Party/LwIP/src/core/dns.c **** }
 554:Middlewares/Third_Party/LwIP/src/core/dns.c **** 
 555:Middlewares/Third_Party/LwIP/src/core/dns.c **** /**
 556:Middlewares/Third_Party/LwIP/src/core/dns.c ****  * @ingroup dns
 557:Middlewares/Third_Party/LwIP/src/core/dns.c ****  * Add a hostname/IP address pair to the local host-list.
 558:Middlewares/Third_Party/LwIP/src/core/dns.c ****  * Duplicates are not checked.
 559:Middlewares/Third_Party/LwIP/src/core/dns.c ****  *
 560:Middlewares/Third_Party/LwIP/src/core/dns.c ****  * @param hostname hostname of the new entry
 561:Middlewares/Third_Party/LwIP/src/core/dns.c ****  * @param addr IP address of the new entry
 562:Middlewares/Third_Party/LwIP/src/core/dns.c ****  * @return ERR_OK if succeeded or ERR_MEM on memory error
 563:Middlewares/Third_Party/LwIP/src/core/dns.c ****  */
 564:Middlewares/Third_Party/LwIP/src/core/dns.c **** err_t
 565:Middlewares/Third_Party/LwIP/src/core/dns.c **** dns_local_addhost(const char *hostname, const ip_addr_t *addr)
 566:Middlewares/Third_Party/LwIP/src/core/dns.c **** {
 567:Middlewares/Third_Party/LwIP/src/core/dns.c ****   struct local_hostlist_entry *entry;
 568:Middlewares/Third_Party/LwIP/src/core/dns.c ****   size_t namelen;
 569:Middlewares/Third_Party/LwIP/src/core/dns.c ****   char* entry_name;
 570:Middlewares/Third_Party/LwIP/src/core/dns.c ****   LWIP_ASSERT("invalid host name (NULL)", hostname != NULL);
 571:Middlewares/Third_Party/LwIP/src/core/dns.c ****   namelen = strlen(hostname);
 572:Middlewares/Third_Party/LwIP/src/core/dns.c ****   LWIP_ASSERT("namelen <= DNS_LOCAL_HOSTLIST_MAX_NAMELEN", namelen <= DNS_LOCAL_HOSTLIST_MAX_NAMELE
 573:Middlewares/Third_Party/LwIP/src/core/dns.c ****   entry = (struct local_hostlist_entry *)memp_malloc(MEMP_LOCALHOSTLIST);
 574:Middlewares/Third_Party/LwIP/src/core/dns.c ****   if (entry == NULL) {
 575:Middlewares/Third_Party/LwIP/src/core/dns.c ****     return ERR_MEM;
 576:Middlewares/Third_Party/LwIP/src/core/dns.c ****   }
 577:Middlewares/Third_Party/LwIP/src/core/dns.c ****   entry_name = (char*)entry + sizeof(struct local_hostlist_entry);
 578:Middlewares/Third_Party/LwIP/src/core/dns.c ****   MEMCPY(entry_name, hostname, namelen);
 579:Middlewares/Third_Party/LwIP/src/core/dns.c ****   entry_name[namelen] = 0;
 580:Middlewares/Third_Party/LwIP/src/core/dns.c ****   entry->name = entry_name;
 581:Middlewares/Third_Party/LwIP/src/core/dns.c ****   ip_addr_copy(entry->addr, *addr);
 582:Middlewares/Third_Party/LwIP/src/core/dns.c ****   entry->next = local_hostlist_dynamic;
 583:Middlewares/Third_Party/LwIP/src/core/dns.c ****   local_hostlist_dynamic = entry;
 584:Middlewares/Third_Party/LwIP/src/core/dns.c ****   return ERR_OK;
 585:Middlewares/Third_Party/LwIP/src/core/dns.c **** }
 586:Middlewares/Third_Party/LwIP/src/core/dns.c **** #endif /* DNS_LOCAL_HOSTLIST_IS_DYNAMIC*/
 587:Middlewares/Third_Party/LwIP/src/core/dns.c **** #endif /* DNS_LOCAL_HOSTLIST */
 588:Middlewares/Third_Party/LwIP/src/core/dns.c **** 
 589:Middlewares/Third_Party/LwIP/src/core/dns.c **** /**
 590:Middlewares/Third_Party/LwIP/src/core/dns.c ****  * @ingroup dns
 591:Middlewares/Third_Party/LwIP/src/core/dns.c ****  * Look up a hostname in the array of known hostnames.
 592:Middlewares/Third_Party/LwIP/src/core/dns.c ****  *
 593:Middlewares/Third_Party/LwIP/src/core/dns.c ****  * @note This function only looks in the internal array of known
 594:Middlewares/Third_Party/LwIP/src/core/dns.c ****  * hostnames, it does not send out a query for the hostname if none
 595:Middlewares/Third_Party/LwIP/src/core/dns.c ****  * was found. The function dns_enqueue() can be used to send a query
 596:Middlewares/Third_Party/LwIP/src/core/dns.c ****  * for a hostname.
 597:Middlewares/Third_Party/LwIP/src/core/dns.c ****  *
 598:Middlewares/Third_Party/LwIP/src/core/dns.c ****  * @param name the hostname to look up
 599:Middlewares/Third_Party/LwIP/src/core/dns.c ****  * @param addr the hostname's IP address, as u32_t (instead of ip_addr_t to
 600:Middlewares/Third_Party/LwIP/src/core/dns.c ****  *         better check for failure: != IPADDR_NONE) or IPADDR_NONE if the hostname
 601:Middlewares/Third_Party/LwIP/src/core/dns.c ****  *         was not found in the cached dns_table.
 602:Middlewares/Third_Party/LwIP/src/core/dns.c ****  * @return ERR_OK if found, ERR_ARG if not found
ARM GAS  C:\Users\milek\AppData\Local\Temp\ccm1c3Aw.s 			page 12


 603:Middlewares/Third_Party/LwIP/src/core/dns.c ****  */
 604:Middlewares/Third_Party/LwIP/src/core/dns.c **** static err_t
 605:Middlewares/Third_Party/LwIP/src/core/dns.c **** dns_lookup(const char *name, ip_addr_t *addr LWIP_DNS_ADDRTYPE_ARG(u8_t dns_addrtype))
 606:Middlewares/Third_Party/LwIP/src/core/dns.c **** {
 607:Middlewares/Third_Party/LwIP/src/core/dns.c ****   u8_t i;
 608:Middlewares/Third_Party/LwIP/src/core/dns.c **** #if DNS_LOCAL_HOSTLIST || defined(DNS_LOOKUP_LOCAL_EXTERN)
 609:Middlewares/Third_Party/LwIP/src/core/dns.c **** #endif /* DNS_LOCAL_HOSTLIST || defined(DNS_LOOKUP_LOCAL_EXTERN) */
 610:Middlewares/Third_Party/LwIP/src/core/dns.c **** #if DNS_LOCAL_HOSTLIST
 611:Middlewares/Third_Party/LwIP/src/core/dns.c ****   if (dns_lookup_local(name, addr LWIP_DNS_ADDRTYPE_ARG(dns_addrtype)) == ERR_OK) {
 612:Middlewares/Third_Party/LwIP/src/core/dns.c ****     return ERR_OK;
 613:Middlewares/Third_Party/LwIP/src/core/dns.c ****   }
 614:Middlewares/Third_Party/LwIP/src/core/dns.c **** #endif /* DNS_LOCAL_HOSTLIST */
 615:Middlewares/Third_Party/LwIP/src/core/dns.c **** #ifdef DNS_LOOKUP_LOCAL_EXTERN
 616:Middlewares/Third_Party/LwIP/src/core/dns.c ****   if (DNS_LOOKUP_LOCAL_EXTERN(name, addr, LWIP_DNS_ADDRTYPE_ARG_OR_ZERO(dns_addrtype)) == ERR_OK) {
 617:Middlewares/Third_Party/LwIP/src/core/dns.c ****     return ERR_OK;
 618:Middlewares/Third_Party/LwIP/src/core/dns.c ****   }
 619:Middlewares/Third_Party/LwIP/src/core/dns.c **** #endif /* DNS_LOOKUP_LOCAL_EXTERN */
 620:Middlewares/Third_Party/LwIP/src/core/dns.c **** 
 621:Middlewares/Third_Party/LwIP/src/core/dns.c ****   /* Walk through name list, return entry if found. If not, return NULL. */
 622:Middlewares/Third_Party/LwIP/src/core/dns.c ****   for (i = 0; i < DNS_TABLE_SIZE; ++i) {
 623:Middlewares/Third_Party/LwIP/src/core/dns.c ****     if ((dns_table[i].state == DNS_STATE_DONE) &&
 624:Middlewares/Third_Party/LwIP/src/core/dns.c ****         (lwip_strnicmp(name, dns_table[i].name, sizeof(dns_table[i].name)) == 0) &&
 625:Middlewares/Third_Party/LwIP/src/core/dns.c ****         LWIP_DNS_ADDRTYPE_MATCH_IP(dns_addrtype, dns_table[i].ipaddr)) {
 626:Middlewares/Third_Party/LwIP/src/core/dns.c ****       LWIP_DEBUGF(DNS_DEBUG, ("dns_lookup: \"%s\": found = ", name));
 627:Middlewares/Third_Party/LwIP/src/core/dns.c ****       ip_addr_debug_print(DNS_DEBUG, &(dns_table[i].ipaddr));
 628:Middlewares/Third_Party/LwIP/src/core/dns.c ****       LWIP_DEBUGF(DNS_DEBUG, ("\n"));
 629:Middlewares/Third_Party/LwIP/src/core/dns.c ****       if (addr) {
 630:Middlewares/Third_Party/LwIP/src/core/dns.c ****         ip_addr_copy(*addr, dns_table[i].ipaddr);
 631:Middlewares/Third_Party/LwIP/src/core/dns.c ****       }
 632:Middlewares/Third_Party/LwIP/src/core/dns.c ****       return ERR_OK;
 633:Middlewares/Third_Party/LwIP/src/core/dns.c ****     }
 634:Middlewares/Third_Party/LwIP/src/core/dns.c ****   }
 635:Middlewares/Third_Party/LwIP/src/core/dns.c **** 
 636:Middlewares/Third_Party/LwIP/src/core/dns.c ****   return ERR_ARG;
 637:Middlewares/Third_Party/LwIP/src/core/dns.c **** }
 638:Middlewares/Third_Party/LwIP/src/core/dns.c **** 
 639:Middlewares/Third_Party/LwIP/src/core/dns.c **** /**
 640:Middlewares/Third_Party/LwIP/src/core/dns.c ****  * Compare the "dotted" name "query" with the encoded name "response"
 641:Middlewares/Third_Party/LwIP/src/core/dns.c ****  * to make sure an answer from the DNS server matches the current dns_table
 642:Middlewares/Third_Party/LwIP/src/core/dns.c ****  * entry (otherwise, answers might arrive late for hostname not on the list
 643:Middlewares/Third_Party/LwIP/src/core/dns.c ****  * any more).
 644:Middlewares/Third_Party/LwIP/src/core/dns.c ****  *
 645:Middlewares/Third_Party/LwIP/src/core/dns.c ****  * @param query hostname (not encoded) from the dns_table
 646:Middlewares/Third_Party/LwIP/src/core/dns.c ****  * @param p pbuf containing the encoded hostname in the DNS response
 647:Middlewares/Third_Party/LwIP/src/core/dns.c ****  * @param start_offset offset into p where the name starts
 648:Middlewares/Third_Party/LwIP/src/core/dns.c ****  * @return 0xFFFF: names differ, other: names equal -> offset behind name
 649:Middlewares/Third_Party/LwIP/src/core/dns.c ****  */
 650:Middlewares/Third_Party/LwIP/src/core/dns.c **** static u16_t
 651:Middlewares/Third_Party/LwIP/src/core/dns.c **** dns_compare_name(const char *query, struct pbuf* p, u16_t start_offset)
 652:Middlewares/Third_Party/LwIP/src/core/dns.c **** {
 653:Middlewares/Third_Party/LwIP/src/core/dns.c ****   int n;
 654:Middlewares/Third_Party/LwIP/src/core/dns.c ****   u16_t response_offset = start_offset;
 655:Middlewares/Third_Party/LwIP/src/core/dns.c **** 
 656:Middlewares/Third_Party/LwIP/src/core/dns.c ****   do {
 657:Middlewares/Third_Party/LwIP/src/core/dns.c ****     n = pbuf_try_get_at(p, response_offset++);
 658:Middlewares/Third_Party/LwIP/src/core/dns.c ****     if (n < 0) {
 659:Middlewares/Third_Party/LwIP/src/core/dns.c ****       return 0xFFFF;
ARM GAS  C:\Users\milek\AppData\Local\Temp\ccm1c3Aw.s 			page 13


 660:Middlewares/Third_Party/LwIP/src/core/dns.c ****     }
 661:Middlewares/Third_Party/LwIP/src/core/dns.c ****     /** @see RFC 1035 - 4.1.4. Message compression */
 662:Middlewares/Third_Party/LwIP/src/core/dns.c ****     if ((n & 0xc0) == 0xc0) {
 663:Middlewares/Third_Party/LwIP/src/core/dns.c ****       /* Compressed name: cannot be equal since we don't send them */
 664:Middlewares/Third_Party/LwIP/src/core/dns.c ****       return 0xFFFF;
 665:Middlewares/Third_Party/LwIP/src/core/dns.c ****     } else {
 666:Middlewares/Third_Party/LwIP/src/core/dns.c ****       /* Not compressed name */
 667:Middlewares/Third_Party/LwIP/src/core/dns.c ****       while (n > 0) {
 668:Middlewares/Third_Party/LwIP/src/core/dns.c ****         int c = pbuf_try_get_at(p, response_offset);
 669:Middlewares/Third_Party/LwIP/src/core/dns.c ****         if (c < 0) {
 670:Middlewares/Third_Party/LwIP/src/core/dns.c ****           return 0xFFFF;
 671:Middlewares/Third_Party/LwIP/src/core/dns.c ****         }
 672:Middlewares/Third_Party/LwIP/src/core/dns.c ****         if ((*query) != (u8_t)c) {
 673:Middlewares/Third_Party/LwIP/src/core/dns.c ****           return 0xFFFF;
 674:Middlewares/Third_Party/LwIP/src/core/dns.c ****         }
 675:Middlewares/Third_Party/LwIP/src/core/dns.c ****         ++response_offset;
 676:Middlewares/Third_Party/LwIP/src/core/dns.c ****         ++query;
 677:Middlewares/Third_Party/LwIP/src/core/dns.c ****         --n;
 678:Middlewares/Third_Party/LwIP/src/core/dns.c ****       }
 679:Middlewares/Third_Party/LwIP/src/core/dns.c ****       ++query;
 680:Middlewares/Third_Party/LwIP/src/core/dns.c ****     }
 681:Middlewares/Third_Party/LwIP/src/core/dns.c ****     n = pbuf_try_get_at(p, response_offset);
 682:Middlewares/Third_Party/LwIP/src/core/dns.c ****     if (n < 0) {
 683:Middlewares/Third_Party/LwIP/src/core/dns.c ****       return 0xFFFF;
 684:Middlewares/Third_Party/LwIP/src/core/dns.c ****     }
 685:Middlewares/Third_Party/LwIP/src/core/dns.c ****   } while (n != 0);
 686:Middlewares/Third_Party/LwIP/src/core/dns.c **** 
 687:Middlewares/Third_Party/LwIP/src/core/dns.c ****   return response_offset + 1;
 688:Middlewares/Third_Party/LwIP/src/core/dns.c **** }
 689:Middlewares/Third_Party/LwIP/src/core/dns.c **** 
 690:Middlewares/Third_Party/LwIP/src/core/dns.c **** /**
 691:Middlewares/Third_Party/LwIP/src/core/dns.c ****  * Walk through a compact encoded DNS name and return the end of the name.
 692:Middlewares/Third_Party/LwIP/src/core/dns.c ****  *
 693:Middlewares/Third_Party/LwIP/src/core/dns.c ****  * @param p pbuf containing the name
 694:Middlewares/Third_Party/LwIP/src/core/dns.c ****  * @param query_idx start index into p pointing to encoded DNS name in the DNS server response
 695:Middlewares/Third_Party/LwIP/src/core/dns.c ****  * @return index to end of the name
 696:Middlewares/Third_Party/LwIP/src/core/dns.c ****  */
 697:Middlewares/Third_Party/LwIP/src/core/dns.c **** static u16_t
 698:Middlewares/Third_Party/LwIP/src/core/dns.c **** dns_skip_name(struct pbuf* p, u16_t query_idx)
 699:Middlewares/Third_Party/LwIP/src/core/dns.c **** {
 700:Middlewares/Third_Party/LwIP/src/core/dns.c ****   int n;
 701:Middlewares/Third_Party/LwIP/src/core/dns.c ****   u16_t offset = query_idx;
 702:Middlewares/Third_Party/LwIP/src/core/dns.c **** 
 703:Middlewares/Third_Party/LwIP/src/core/dns.c ****   do {
 704:Middlewares/Third_Party/LwIP/src/core/dns.c ****     n = pbuf_try_get_at(p, offset++);
 705:Middlewares/Third_Party/LwIP/src/core/dns.c ****     if (n < 0) {
 706:Middlewares/Third_Party/LwIP/src/core/dns.c ****       return 0xFFFF;
 707:Middlewares/Third_Party/LwIP/src/core/dns.c ****     }
 708:Middlewares/Third_Party/LwIP/src/core/dns.c ****     /** @see RFC 1035 - 4.1.4. Message compression */
 709:Middlewares/Third_Party/LwIP/src/core/dns.c ****     if ((n & 0xc0) == 0xc0) {
 710:Middlewares/Third_Party/LwIP/src/core/dns.c ****       /* Compressed name: since we only want to skip it (not check it), stop here */
 711:Middlewares/Third_Party/LwIP/src/core/dns.c ****       break;
 712:Middlewares/Third_Party/LwIP/src/core/dns.c ****     } else {
 713:Middlewares/Third_Party/LwIP/src/core/dns.c ****       /* Not compressed name */
 714:Middlewares/Third_Party/LwIP/src/core/dns.c ****       if (offset + n >= p->tot_len) {
 715:Middlewares/Third_Party/LwIP/src/core/dns.c ****         return 0xFFFF;
 716:Middlewares/Third_Party/LwIP/src/core/dns.c ****       }
ARM GAS  C:\Users\milek\AppData\Local\Temp\ccm1c3Aw.s 			page 14


 717:Middlewares/Third_Party/LwIP/src/core/dns.c ****       offset = (u16_t)(offset + n);
 718:Middlewares/Third_Party/LwIP/src/core/dns.c ****     }
 719:Middlewares/Third_Party/LwIP/src/core/dns.c ****     n = pbuf_try_get_at(p, offset);
 720:Middlewares/Third_Party/LwIP/src/core/dns.c ****     if (n < 0) {
 721:Middlewares/Third_Party/LwIP/src/core/dns.c ****       return 0xFFFF;
 722:Middlewares/Third_Party/LwIP/src/core/dns.c ****     }
 723:Middlewares/Third_Party/LwIP/src/core/dns.c ****   } while (n != 0);
 724:Middlewares/Third_Party/LwIP/src/core/dns.c **** 
 725:Middlewares/Third_Party/LwIP/src/core/dns.c ****   return offset + 1;
 726:Middlewares/Third_Party/LwIP/src/core/dns.c **** }
 727:Middlewares/Third_Party/LwIP/src/core/dns.c **** 
 728:Middlewares/Third_Party/LwIP/src/core/dns.c **** /**
 729:Middlewares/Third_Party/LwIP/src/core/dns.c ****  * Send a DNS query packet.
 730:Middlewares/Third_Party/LwIP/src/core/dns.c ****  *
 731:Middlewares/Third_Party/LwIP/src/core/dns.c ****  * @param idx the DNS table entry index for which to send a request
 732:Middlewares/Third_Party/LwIP/src/core/dns.c ****  * @return ERR_OK if packet is sent; an err_t indicating the problem otherwise
 733:Middlewares/Third_Party/LwIP/src/core/dns.c ****  */
 734:Middlewares/Third_Party/LwIP/src/core/dns.c **** static err_t
 735:Middlewares/Third_Party/LwIP/src/core/dns.c **** dns_send(u8_t idx)
 736:Middlewares/Third_Party/LwIP/src/core/dns.c **** {
 737:Middlewares/Third_Party/LwIP/src/core/dns.c ****   err_t err;
 738:Middlewares/Third_Party/LwIP/src/core/dns.c ****   struct dns_hdr hdr;
 739:Middlewares/Third_Party/LwIP/src/core/dns.c ****   struct dns_query qry;
 740:Middlewares/Third_Party/LwIP/src/core/dns.c ****   struct pbuf *p;
 741:Middlewares/Third_Party/LwIP/src/core/dns.c ****   u16_t query_idx, copy_len;
 742:Middlewares/Third_Party/LwIP/src/core/dns.c ****   const char *hostname, *hostname_part;
 743:Middlewares/Third_Party/LwIP/src/core/dns.c ****   u8_t n;
 744:Middlewares/Third_Party/LwIP/src/core/dns.c ****   u8_t pcb_idx;
 745:Middlewares/Third_Party/LwIP/src/core/dns.c ****   struct dns_table_entry* entry = &dns_table[idx];
 746:Middlewares/Third_Party/LwIP/src/core/dns.c **** 
 747:Middlewares/Third_Party/LwIP/src/core/dns.c ****   LWIP_DEBUGF(DNS_DEBUG, ("dns_send: dns_servers[%"U16_F"] \"%s\": request\n",
 748:Middlewares/Third_Party/LwIP/src/core/dns.c ****               (u16_t)(entry->server_idx), entry->name));
 749:Middlewares/Third_Party/LwIP/src/core/dns.c ****   LWIP_ASSERT("dns server out of array", entry->server_idx < DNS_MAX_SERVERS);
 750:Middlewares/Third_Party/LwIP/src/core/dns.c ****   if (ip_addr_isany_val(dns_servers[entry->server_idx])
 751:Middlewares/Third_Party/LwIP/src/core/dns.c **** #if LWIP_DNS_SUPPORT_MDNS_QUERIES
 752:Middlewares/Third_Party/LwIP/src/core/dns.c ****       && !entry->is_mdns
 753:Middlewares/Third_Party/LwIP/src/core/dns.c **** #endif
 754:Middlewares/Third_Party/LwIP/src/core/dns.c ****     ) {
 755:Middlewares/Third_Party/LwIP/src/core/dns.c ****     /* DNS server not valid anymore, e.g. PPP netif has been shut down */
 756:Middlewares/Third_Party/LwIP/src/core/dns.c ****     /* call specified callback function if provided */
 757:Middlewares/Third_Party/LwIP/src/core/dns.c ****     dns_call_found(idx, NULL);
 758:Middlewares/Third_Party/LwIP/src/core/dns.c ****     /* flush this entry */
 759:Middlewares/Third_Party/LwIP/src/core/dns.c ****     entry->state = DNS_STATE_UNUSED;
 760:Middlewares/Third_Party/LwIP/src/core/dns.c ****     return ERR_OK;
 761:Middlewares/Third_Party/LwIP/src/core/dns.c ****   }
 762:Middlewares/Third_Party/LwIP/src/core/dns.c **** 
 763:Middlewares/Third_Party/LwIP/src/core/dns.c ****   /* if here, we have either a new query or a retry on a previous query to process */
 764:Middlewares/Third_Party/LwIP/src/core/dns.c ****   p = pbuf_alloc(PBUF_TRANSPORT, (u16_t)(SIZEOF_DNS_HDR + strlen(entry->name) + 2 +
 765:Middlewares/Third_Party/LwIP/src/core/dns.c ****                  SIZEOF_DNS_QUERY), PBUF_RAM);
 766:Middlewares/Third_Party/LwIP/src/core/dns.c ****   if (p != NULL) {
 767:Middlewares/Third_Party/LwIP/src/core/dns.c ****     const ip_addr_t* dst;
 768:Middlewares/Third_Party/LwIP/src/core/dns.c ****     u16_t dst_port;
 769:Middlewares/Third_Party/LwIP/src/core/dns.c ****     /* fill dns header */
 770:Middlewares/Third_Party/LwIP/src/core/dns.c ****     memset(&hdr, 0, SIZEOF_DNS_HDR);
 771:Middlewares/Third_Party/LwIP/src/core/dns.c ****     hdr.id = lwip_htons(entry->txid);
 772:Middlewares/Third_Party/LwIP/src/core/dns.c ****     hdr.flags1 = DNS_FLAG1_RD;
 773:Middlewares/Third_Party/LwIP/src/core/dns.c ****     hdr.numquestions = PP_HTONS(1);
ARM GAS  C:\Users\milek\AppData\Local\Temp\ccm1c3Aw.s 			page 15


 774:Middlewares/Third_Party/LwIP/src/core/dns.c ****     pbuf_take(p, &hdr, SIZEOF_DNS_HDR);
 775:Middlewares/Third_Party/LwIP/src/core/dns.c ****     hostname = entry->name;
 776:Middlewares/Third_Party/LwIP/src/core/dns.c ****     --hostname;
 777:Middlewares/Third_Party/LwIP/src/core/dns.c **** 
 778:Middlewares/Third_Party/LwIP/src/core/dns.c ****     /* convert hostname into suitable query format. */
 779:Middlewares/Third_Party/LwIP/src/core/dns.c ****     query_idx = SIZEOF_DNS_HDR;
 780:Middlewares/Third_Party/LwIP/src/core/dns.c ****     do {
 781:Middlewares/Third_Party/LwIP/src/core/dns.c ****       ++hostname;
 782:Middlewares/Third_Party/LwIP/src/core/dns.c ****       hostname_part = hostname;
 783:Middlewares/Third_Party/LwIP/src/core/dns.c ****       for (n = 0; *hostname != '.' && *hostname != 0; ++hostname) {
 784:Middlewares/Third_Party/LwIP/src/core/dns.c ****         ++n;
 785:Middlewares/Third_Party/LwIP/src/core/dns.c ****       }
 786:Middlewares/Third_Party/LwIP/src/core/dns.c ****       copy_len = (u16_t)(hostname - hostname_part);
 787:Middlewares/Third_Party/LwIP/src/core/dns.c ****       pbuf_put_at(p, query_idx, n);
 788:Middlewares/Third_Party/LwIP/src/core/dns.c ****       pbuf_take_at(p, hostname_part, copy_len, query_idx + 1);
 789:Middlewares/Third_Party/LwIP/src/core/dns.c ****       query_idx += n + 1;
 790:Middlewares/Third_Party/LwIP/src/core/dns.c ****     } while (*hostname != 0);
 791:Middlewares/Third_Party/LwIP/src/core/dns.c ****     pbuf_put_at(p, query_idx, 0);
 792:Middlewares/Third_Party/LwIP/src/core/dns.c ****     query_idx++;
 793:Middlewares/Third_Party/LwIP/src/core/dns.c **** 
 794:Middlewares/Third_Party/LwIP/src/core/dns.c ****     /* fill dns query */
 795:Middlewares/Third_Party/LwIP/src/core/dns.c ****     if (LWIP_DNS_ADDRTYPE_IS_IPV6(entry->reqaddrtype)) {
 796:Middlewares/Third_Party/LwIP/src/core/dns.c ****       qry.type = PP_HTONS(DNS_RRTYPE_AAAA);
 797:Middlewares/Third_Party/LwIP/src/core/dns.c ****     } else {
 798:Middlewares/Third_Party/LwIP/src/core/dns.c ****       qry.type = PP_HTONS(DNS_RRTYPE_A);
 799:Middlewares/Third_Party/LwIP/src/core/dns.c ****     }
 800:Middlewares/Third_Party/LwIP/src/core/dns.c ****     qry.cls = PP_HTONS(DNS_RRCLASS_IN);
 801:Middlewares/Third_Party/LwIP/src/core/dns.c ****     pbuf_take_at(p, &qry, SIZEOF_DNS_QUERY, query_idx);
 802:Middlewares/Third_Party/LwIP/src/core/dns.c **** 
 803:Middlewares/Third_Party/LwIP/src/core/dns.c **** #if ((LWIP_DNS_SECURE & LWIP_DNS_SECURE_RAND_SRC_PORT) != 0)
 804:Middlewares/Third_Party/LwIP/src/core/dns.c ****     pcb_idx = entry->pcb_idx;
 805:Middlewares/Third_Party/LwIP/src/core/dns.c **** #else
 806:Middlewares/Third_Party/LwIP/src/core/dns.c ****     pcb_idx = 0;
 807:Middlewares/Third_Party/LwIP/src/core/dns.c **** #endif
 808:Middlewares/Third_Party/LwIP/src/core/dns.c ****     /* send dns packet */
 809:Middlewares/Third_Party/LwIP/src/core/dns.c ****     LWIP_DEBUGF(DNS_DEBUG, ("sending DNS request ID %d for name \"%s\" to server %d\r\n",
 810:Middlewares/Third_Party/LwIP/src/core/dns.c ****       entry->txid, entry->name, entry->server_idx));
 811:Middlewares/Third_Party/LwIP/src/core/dns.c **** #if LWIP_DNS_SUPPORT_MDNS_QUERIES
 812:Middlewares/Third_Party/LwIP/src/core/dns.c ****     if (entry->is_mdns) {
 813:Middlewares/Third_Party/LwIP/src/core/dns.c ****       dst_port = DNS_MQUERY_PORT;
 814:Middlewares/Third_Party/LwIP/src/core/dns.c **** #if LWIP_IPV6
 815:Middlewares/Third_Party/LwIP/src/core/dns.c ****       if (LWIP_DNS_ADDRTYPE_IS_IPV6(entry->reqaddrtype))
 816:Middlewares/Third_Party/LwIP/src/core/dns.c ****       {
 817:Middlewares/Third_Party/LwIP/src/core/dns.c ****         dst = &dns_mquery_v6group;
 818:Middlewares/Third_Party/LwIP/src/core/dns.c ****       }
 819:Middlewares/Third_Party/LwIP/src/core/dns.c **** #endif
 820:Middlewares/Third_Party/LwIP/src/core/dns.c **** #if LWIP_IPV4 && LWIP_IPV6
 821:Middlewares/Third_Party/LwIP/src/core/dns.c ****       else
 822:Middlewares/Third_Party/LwIP/src/core/dns.c **** #endif
 823:Middlewares/Third_Party/LwIP/src/core/dns.c **** #if LWIP_IPV4
 824:Middlewares/Third_Party/LwIP/src/core/dns.c ****       {
 825:Middlewares/Third_Party/LwIP/src/core/dns.c ****         dst = &dns_mquery_v4group;
 826:Middlewares/Third_Party/LwIP/src/core/dns.c ****       }
 827:Middlewares/Third_Party/LwIP/src/core/dns.c **** #endif
 828:Middlewares/Third_Party/LwIP/src/core/dns.c ****     } else
 829:Middlewares/Third_Party/LwIP/src/core/dns.c **** #endif /* LWIP_DNS_SUPPORT_MDNS_QUERIES */
 830:Middlewares/Third_Party/LwIP/src/core/dns.c ****     {
ARM GAS  C:\Users\milek\AppData\Local\Temp\ccm1c3Aw.s 			page 16


 831:Middlewares/Third_Party/LwIP/src/core/dns.c ****       dst_port = DNS_SERVER_PORT;
 832:Middlewares/Third_Party/LwIP/src/core/dns.c ****       dst = &dns_servers[entry->server_idx];
 833:Middlewares/Third_Party/LwIP/src/core/dns.c ****     }
 834:Middlewares/Third_Party/LwIP/src/core/dns.c ****     err = udp_sendto(dns_pcbs[pcb_idx], p, dst, dst_port);
 835:Middlewares/Third_Party/LwIP/src/core/dns.c **** 
 836:Middlewares/Third_Party/LwIP/src/core/dns.c ****     /* free pbuf */
 837:Middlewares/Third_Party/LwIP/src/core/dns.c ****     pbuf_free(p);
 838:Middlewares/Third_Party/LwIP/src/core/dns.c ****   } else {
 839:Middlewares/Third_Party/LwIP/src/core/dns.c ****     err = ERR_MEM;
 840:Middlewares/Third_Party/LwIP/src/core/dns.c ****   }
 841:Middlewares/Third_Party/LwIP/src/core/dns.c **** 
 842:Middlewares/Third_Party/LwIP/src/core/dns.c ****   return err;
 843:Middlewares/Third_Party/LwIP/src/core/dns.c **** }
 844:Middlewares/Third_Party/LwIP/src/core/dns.c **** 
 845:Middlewares/Third_Party/LwIP/src/core/dns.c **** #if ((LWIP_DNS_SECURE & LWIP_DNS_SECURE_RAND_SRC_PORT) != 0)
 846:Middlewares/Third_Party/LwIP/src/core/dns.c **** static struct udp_pcb*
 847:Middlewares/Third_Party/LwIP/src/core/dns.c **** dns_alloc_random_port(void)
 848:Middlewares/Third_Party/LwIP/src/core/dns.c **** {
 849:Middlewares/Third_Party/LwIP/src/core/dns.c ****   err_t err;
 850:Middlewares/Third_Party/LwIP/src/core/dns.c ****   struct udp_pcb* ret;
 851:Middlewares/Third_Party/LwIP/src/core/dns.c **** 
 852:Middlewares/Third_Party/LwIP/src/core/dns.c ****   ret = udp_new_ip_type(IPADDR_TYPE_ANY);
 853:Middlewares/Third_Party/LwIP/src/core/dns.c ****   if (ret == NULL) {
 854:Middlewares/Third_Party/LwIP/src/core/dns.c ****     /* out of memory, have to reuse an existing pcb */
 855:Middlewares/Third_Party/LwIP/src/core/dns.c ****     return NULL;
 856:Middlewares/Third_Party/LwIP/src/core/dns.c ****   }
 857:Middlewares/Third_Party/LwIP/src/core/dns.c ****   do {
 858:Middlewares/Third_Party/LwIP/src/core/dns.c ****     u16_t port = (u16_t)DNS_RAND_TXID();
 859:Middlewares/Third_Party/LwIP/src/core/dns.c ****     if (!DNS_PORT_ALLOWED(port)) {
 860:Middlewares/Third_Party/LwIP/src/core/dns.c ****       /* this port is not allowed, try again */
 861:Middlewares/Third_Party/LwIP/src/core/dns.c ****       err = ERR_USE;
 862:Middlewares/Third_Party/LwIP/src/core/dns.c ****       continue;
 863:Middlewares/Third_Party/LwIP/src/core/dns.c ****     }
 864:Middlewares/Third_Party/LwIP/src/core/dns.c ****     err = udp_bind(ret, IP_ANY_TYPE, port);
 865:Middlewares/Third_Party/LwIP/src/core/dns.c ****   } while (err == ERR_USE);
 866:Middlewares/Third_Party/LwIP/src/core/dns.c ****   if (err != ERR_OK) {
 867:Middlewares/Third_Party/LwIP/src/core/dns.c ****     udp_remove(ret);
 868:Middlewares/Third_Party/LwIP/src/core/dns.c ****     return NULL;
 869:Middlewares/Third_Party/LwIP/src/core/dns.c ****   }
 870:Middlewares/Third_Party/LwIP/src/core/dns.c ****   udp_recv(ret, dns_recv, NULL);
 871:Middlewares/Third_Party/LwIP/src/core/dns.c ****   return ret;
 872:Middlewares/Third_Party/LwIP/src/core/dns.c **** }
 873:Middlewares/Third_Party/LwIP/src/core/dns.c **** 
 874:Middlewares/Third_Party/LwIP/src/core/dns.c **** /**
 875:Middlewares/Third_Party/LwIP/src/core/dns.c ****  * dns_alloc_pcb() - allocates a new pcb (or reuses an existing one) to be used
 876:Middlewares/Third_Party/LwIP/src/core/dns.c ****  * for sending a request
 877:Middlewares/Third_Party/LwIP/src/core/dns.c ****  *
 878:Middlewares/Third_Party/LwIP/src/core/dns.c ****  * @return an index into dns_pcbs
 879:Middlewares/Third_Party/LwIP/src/core/dns.c ****  */
 880:Middlewares/Third_Party/LwIP/src/core/dns.c **** static u8_t
 881:Middlewares/Third_Party/LwIP/src/core/dns.c **** dns_alloc_pcb(void)
 882:Middlewares/Third_Party/LwIP/src/core/dns.c **** {
 883:Middlewares/Third_Party/LwIP/src/core/dns.c ****   u8_t i;
 884:Middlewares/Third_Party/LwIP/src/core/dns.c ****   u8_t idx;
 885:Middlewares/Third_Party/LwIP/src/core/dns.c **** 
 886:Middlewares/Third_Party/LwIP/src/core/dns.c ****   for (i = 0; i < DNS_MAX_SOURCE_PORTS; i++) {
 887:Middlewares/Third_Party/LwIP/src/core/dns.c ****     if (dns_pcbs[i] == NULL) {
ARM GAS  C:\Users\milek\AppData\Local\Temp\ccm1c3Aw.s 			page 17


 888:Middlewares/Third_Party/LwIP/src/core/dns.c ****       break;
 889:Middlewares/Third_Party/LwIP/src/core/dns.c ****     }
 890:Middlewares/Third_Party/LwIP/src/core/dns.c ****   }
 891:Middlewares/Third_Party/LwIP/src/core/dns.c ****   if (i < DNS_MAX_SOURCE_PORTS) {
 892:Middlewares/Third_Party/LwIP/src/core/dns.c ****     dns_pcbs[i] = dns_alloc_random_port();
 893:Middlewares/Third_Party/LwIP/src/core/dns.c ****     if (dns_pcbs[i] != NULL) {
 894:Middlewares/Third_Party/LwIP/src/core/dns.c ****       /* succeeded */
 895:Middlewares/Third_Party/LwIP/src/core/dns.c ****       dns_last_pcb_idx = i;
 896:Middlewares/Third_Party/LwIP/src/core/dns.c ****       return i;
 897:Middlewares/Third_Party/LwIP/src/core/dns.c ****     }
 898:Middlewares/Third_Party/LwIP/src/core/dns.c ****   }
 899:Middlewares/Third_Party/LwIP/src/core/dns.c ****   /* if we come here, creating a new UDP pcb failed, so we have to use
 900:Middlewares/Third_Party/LwIP/src/core/dns.c ****      an already existing one */
 901:Middlewares/Third_Party/LwIP/src/core/dns.c ****   for (i = 0, idx = dns_last_pcb_idx + 1; i < DNS_MAX_SOURCE_PORTS; i++, idx++) {
 902:Middlewares/Third_Party/LwIP/src/core/dns.c ****     if (idx >= DNS_MAX_SOURCE_PORTS) {
 903:Middlewares/Third_Party/LwIP/src/core/dns.c ****       idx = 0;
 904:Middlewares/Third_Party/LwIP/src/core/dns.c ****     }
 905:Middlewares/Third_Party/LwIP/src/core/dns.c ****     if (dns_pcbs[idx] != NULL) {
 906:Middlewares/Third_Party/LwIP/src/core/dns.c ****       dns_last_pcb_idx = idx;
 907:Middlewares/Third_Party/LwIP/src/core/dns.c ****       return idx;
 908:Middlewares/Third_Party/LwIP/src/core/dns.c ****     }
 909:Middlewares/Third_Party/LwIP/src/core/dns.c ****   }
 910:Middlewares/Third_Party/LwIP/src/core/dns.c ****   return DNS_MAX_SOURCE_PORTS;
 911:Middlewares/Third_Party/LwIP/src/core/dns.c **** }
 912:Middlewares/Third_Party/LwIP/src/core/dns.c **** #endif /* ((LWIP_DNS_SECURE & LWIP_DNS_SECURE_RAND_SRC_PORT) != 0) */
 913:Middlewares/Third_Party/LwIP/src/core/dns.c **** 
 914:Middlewares/Third_Party/LwIP/src/core/dns.c **** /**
 915:Middlewares/Third_Party/LwIP/src/core/dns.c ****  * dns_call_found() - call the found callback and check if there are duplicate
 916:Middlewares/Third_Party/LwIP/src/core/dns.c ****  * entries for the given hostname. If there are any, their found callback will
 917:Middlewares/Third_Party/LwIP/src/core/dns.c ****  * be called and they will be removed.
 918:Middlewares/Third_Party/LwIP/src/core/dns.c ****  *
 919:Middlewares/Third_Party/LwIP/src/core/dns.c ****  * @param idx dns table index of the entry that is resolved or removed
 920:Middlewares/Third_Party/LwIP/src/core/dns.c ****  * @param addr IP address for the hostname (or NULL on error or memory shortage)
 921:Middlewares/Third_Party/LwIP/src/core/dns.c ****  */
 922:Middlewares/Third_Party/LwIP/src/core/dns.c **** static void
 923:Middlewares/Third_Party/LwIP/src/core/dns.c **** dns_call_found(u8_t idx, ip_addr_t* addr)
 924:Middlewares/Third_Party/LwIP/src/core/dns.c **** {
 925:Middlewares/Third_Party/LwIP/src/core/dns.c **** #if ((LWIP_DNS_SECURE & (LWIP_DNS_SECURE_NO_MULTIPLE_OUTSTANDING | LWIP_DNS_SECURE_RAND_SRC_PORT)) 
 926:Middlewares/Third_Party/LwIP/src/core/dns.c ****   u8_t i;
 927:Middlewares/Third_Party/LwIP/src/core/dns.c **** #endif
 928:Middlewares/Third_Party/LwIP/src/core/dns.c **** 
 929:Middlewares/Third_Party/LwIP/src/core/dns.c **** #if LWIP_IPV4 && LWIP_IPV6
 930:Middlewares/Third_Party/LwIP/src/core/dns.c ****   if (addr != NULL) {
 931:Middlewares/Third_Party/LwIP/src/core/dns.c ****     /* check that address type matches the request and adapt the table entry */
 932:Middlewares/Third_Party/LwIP/src/core/dns.c ****     if (IP_IS_V6_VAL(*addr)) {
 933:Middlewares/Third_Party/LwIP/src/core/dns.c ****       LWIP_ASSERT("invalid response", LWIP_DNS_ADDRTYPE_IS_IPV6(dns_table[idx].reqaddrtype));
 934:Middlewares/Third_Party/LwIP/src/core/dns.c ****       dns_table[idx].reqaddrtype = LWIP_DNS_ADDRTYPE_IPV6;
 935:Middlewares/Third_Party/LwIP/src/core/dns.c ****     } else {
 936:Middlewares/Third_Party/LwIP/src/core/dns.c ****       LWIP_ASSERT("invalid response", !LWIP_DNS_ADDRTYPE_IS_IPV6(dns_table[idx].reqaddrtype));
 937:Middlewares/Third_Party/LwIP/src/core/dns.c ****       dns_table[idx].reqaddrtype = LWIP_DNS_ADDRTYPE_IPV4;
 938:Middlewares/Third_Party/LwIP/src/core/dns.c ****     }
 939:Middlewares/Third_Party/LwIP/src/core/dns.c ****   }
 940:Middlewares/Third_Party/LwIP/src/core/dns.c **** #endif /* LWIP_IPV4 && LWIP_IPV6 */
 941:Middlewares/Third_Party/LwIP/src/core/dns.c **** 
 942:Middlewares/Third_Party/LwIP/src/core/dns.c **** #if ((LWIP_DNS_SECURE & LWIP_DNS_SECURE_NO_MULTIPLE_OUTSTANDING) != 0)
 943:Middlewares/Third_Party/LwIP/src/core/dns.c ****   for (i = 0; i < DNS_MAX_REQUESTS; i++) {
 944:Middlewares/Third_Party/LwIP/src/core/dns.c ****     if (dns_requests[i].found && (dns_requests[i].dns_table_idx == idx)) {
ARM GAS  C:\Users\milek\AppData\Local\Temp\ccm1c3Aw.s 			page 18


 945:Middlewares/Third_Party/LwIP/src/core/dns.c ****       (*dns_requests[i].found)(dns_table[idx].name, addr, dns_requests[i].arg);
 946:Middlewares/Third_Party/LwIP/src/core/dns.c ****       /* flush this entry */
 947:Middlewares/Third_Party/LwIP/src/core/dns.c ****       dns_requests[i].found = NULL;
 948:Middlewares/Third_Party/LwIP/src/core/dns.c ****     }
 949:Middlewares/Third_Party/LwIP/src/core/dns.c ****   }
 950:Middlewares/Third_Party/LwIP/src/core/dns.c **** #else
 951:Middlewares/Third_Party/LwIP/src/core/dns.c ****   if (dns_requests[idx].found) {
 952:Middlewares/Third_Party/LwIP/src/core/dns.c ****     (*dns_requests[idx].found)(dns_table[idx].name, addr, dns_requests[idx].arg);
 953:Middlewares/Third_Party/LwIP/src/core/dns.c ****   }
 954:Middlewares/Third_Party/LwIP/src/core/dns.c ****   dns_requests[idx].found = NULL;
 955:Middlewares/Third_Party/LwIP/src/core/dns.c **** #endif
 956:Middlewares/Third_Party/LwIP/src/core/dns.c **** #if ((LWIP_DNS_SECURE & LWIP_DNS_SECURE_RAND_SRC_PORT) != 0)
 957:Middlewares/Third_Party/LwIP/src/core/dns.c ****   /* close the pcb used unless other request are using it */
 958:Middlewares/Third_Party/LwIP/src/core/dns.c ****   for (i = 0; i < DNS_MAX_REQUESTS; i++) {
 959:Middlewares/Third_Party/LwIP/src/core/dns.c ****     if (i == idx) {
 960:Middlewares/Third_Party/LwIP/src/core/dns.c ****       continue; /* only check other requests */
 961:Middlewares/Third_Party/LwIP/src/core/dns.c ****     }
 962:Middlewares/Third_Party/LwIP/src/core/dns.c ****     if (dns_table[i].state == DNS_STATE_ASKING) {
 963:Middlewares/Third_Party/LwIP/src/core/dns.c ****       if (dns_table[i].pcb_idx == dns_table[idx].pcb_idx) {
 964:Middlewares/Third_Party/LwIP/src/core/dns.c ****         /* another request is still using the same pcb */
 965:Middlewares/Third_Party/LwIP/src/core/dns.c ****         dns_table[idx].pcb_idx = DNS_MAX_SOURCE_PORTS;
 966:Middlewares/Third_Party/LwIP/src/core/dns.c ****         break;
 967:Middlewares/Third_Party/LwIP/src/core/dns.c ****       }
 968:Middlewares/Third_Party/LwIP/src/core/dns.c ****     }
 969:Middlewares/Third_Party/LwIP/src/core/dns.c ****   }
 970:Middlewares/Third_Party/LwIP/src/core/dns.c ****   if (dns_table[idx].pcb_idx < DNS_MAX_SOURCE_PORTS) {
 971:Middlewares/Third_Party/LwIP/src/core/dns.c ****     /* if we come here, the pcb is not used any more and can be removed */
 972:Middlewares/Third_Party/LwIP/src/core/dns.c ****     udp_remove(dns_pcbs[dns_table[idx].pcb_idx]);
 973:Middlewares/Third_Party/LwIP/src/core/dns.c ****     dns_pcbs[dns_table[idx].pcb_idx] = NULL;
 974:Middlewares/Third_Party/LwIP/src/core/dns.c ****     dns_table[idx].pcb_idx = DNS_MAX_SOURCE_PORTS;
 975:Middlewares/Third_Party/LwIP/src/core/dns.c ****   }
 976:Middlewares/Third_Party/LwIP/src/core/dns.c **** #endif
 977:Middlewares/Third_Party/LwIP/src/core/dns.c **** }
 978:Middlewares/Third_Party/LwIP/src/core/dns.c **** 
 979:Middlewares/Third_Party/LwIP/src/core/dns.c **** /* Create a query transmission ID that is unique for all outstanding queries */
 980:Middlewares/Third_Party/LwIP/src/core/dns.c **** static u16_t
 981:Middlewares/Third_Party/LwIP/src/core/dns.c **** dns_create_txid(void)
 982:Middlewares/Third_Party/LwIP/src/core/dns.c **** {
  27              		.loc 1 982 0
  28              		.cfi_startproc
  29              		@ args = 0, pretend = 0, frame = 0
  30              		@ frame_needed = 0, uses_anonymous_args = 0
  31 0000 08B5     		push	{r3, lr}
  32              	.LCFI0:
  33              		.cfi_def_cfa_offset 8
  34              		.cfi_offset 3, -8
  35              		.cfi_offset 14, -4
  36              	.L2:
 983:Middlewares/Third_Party/LwIP/src/core/dns.c ****   u16_t txid;
 984:Middlewares/Third_Party/LwIP/src/core/dns.c ****   u8_t i;
 985:Middlewares/Third_Party/LwIP/src/core/dns.c **** 
 986:Middlewares/Third_Party/LwIP/src/core/dns.c **** again:
 987:Middlewares/Third_Party/LwIP/src/core/dns.c ****   txid = (u16_t)DNS_RAND_TXID();
  37              		.loc 1 987 0
  38 0002 FFF7FEFF 		bl	rand
  39              	.LVL0:
  40 0006 80B2     		uxth	r0, r0
ARM GAS  C:\Users\milek\AppData\Local\Temp\ccm1c3Aw.s 			page 19


  41              	.LVL1:
 988:Middlewares/Third_Party/LwIP/src/core/dns.c **** 
 989:Middlewares/Third_Party/LwIP/src/core/dns.c ****   /* check whether the ID is unique */
 990:Middlewares/Third_Party/LwIP/src/core/dns.c ****   for (i = 0; i < DNS_TABLE_SIZE; i++) {
  42              		.loc 1 990 0
  43 0008 0023     		movs	r3, #0
  44 000a 01E0     		b	.L3
  45              	.LVL2:
  46              	.L4:
  47              		.loc 1 990 0 is_stmt 0 discriminator 2
  48 000c 0133     		adds	r3, r3, #1
  49              	.LVL3:
  50 000e DBB2     		uxtb	r3, r3
  51              	.LVL4:
  52              	.L3:
  53              		.loc 1 990 0 discriminator 1
  54 0010 032B     		cmp	r3, #3
  55 0012 0DD8     		bhi	.L7
 991:Middlewares/Third_Party/LwIP/src/core/dns.c ****     if ((dns_table[i].state == DNS_STATE_ASKING) &&
  56              		.loc 1 991 0 is_stmt 1
  57 0014 03EB0312 		add	r2, r3, r3, lsl #4
  58 0018 1101     		lsls	r1, r2, #4
  59 001a 064A     		ldr	r2, .L8
  60 001c 0A44     		add	r2, r2, r1
  61 001e 927A     		ldrb	r2, [r2, #10]	@ zero_extendqisi2
  62 0020 022A     		cmp	r2, #2
  63 0022 F3D1     		bne	.L4
 992:Middlewares/Third_Party/LwIP/src/core/dns.c ****         (dns_table[i].txid == txid)) {
  64              		.loc 1 992 0 discriminator 1
  65 0024 034A     		ldr	r2, .L8
  66 0026 0A44     		add	r2, r2, r1
  67 0028 1289     		ldrh	r2, [r2, #8]
 991:Middlewares/Third_Party/LwIP/src/core/dns.c ****     if ((dns_table[i].state == DNS_STATE_ASKING) &&
  68              		.loc 1 991 0 discriminator 1
  69 002a 8242     		cmp	r2, r0
  70 002c EED1     		bne	.L4
 986:Middlewares/Third_Party/LwIP/src/core/dns.c ****   txid = (u16_t)DNS_RAND_TXID();
  71              		.loc 1 986 0
  72 002e E8E7     		b	.L2
  73              	.L7:
 993:Middlewares/Third_Party/LwIP/src/core/dns.c ****       /* ID already used by another pending query */
 994:Middlewares/Third_Party/LwIP/src/core/dns.c ****       goto again;
 995:Middlewares/Third_Party/LwIP/src/core/dns.c ****     }
 996:Middlewares/Third_Party/LwIP/src/core/dns.c ****   }
 997:Middlewares/Third_Party/LwIP/src/core/dns.c **** 
 998:Middlewares/Third_Party/LwIP/src/core/dns.c ****   return txid;
 999:Middlewares/Third_Party/LwIP/src/core/dns.c **** }
  74              		.loc 1 999 0
  75 0030 08BD     		pop	{r3, pc}
  76              	.LVL5:
  77              	.L9:
  78 0032 00BF     		.align	2
  79              	.L8:
  80 0034 00000000 		.word	.LANCHOR0
  81              		.cfi_endproc
  82              	.LFE165:
  84              		.section	.text.dns_call_found,"ax",%progbits
ARM GAS  C:\Users\milek\AppData\Local\Temp\ccm1c3Aw.s 			page 20


  85              		.align	1
  86              		.syntax unified
  87              		.thumb
  88              		.thumb_func
  89              		.fpu fpv5-sp-d16
  91              	dns_call_found:
  92              	.LFB164:
 924:Middlewares/Third_Party/LwIP/src/core/dns.c **** #if ((LWIP_DNS_SECURE & (LWIP_DNS_SECURE_NO_MULTIPLE_OUTSTANDING | LWIP_DNS_SECURE_RAND_SRC_PORT)) 
  93              		.loc 1 924 0
  94              		.cfi_startproc
  95              		@ args = 0, pretend = 0, frame = 0
  96              		@ frame_needed = 0, uses_anonymous_args = 0
  97              	.LVL6:
  98 0000 2DE9F047 		push	{r4, r5, r6, r7, r8, r9, r10, lr}
  99              	.LCFI1:
 100              		.cfi_def_cfa_offset 32
 101              		.cfi_offset 4, -32
 102              		.cfi_offset 5, -28
 103              		.cfi_offset 6, -24
 104              		.cfi_offset 7, -20
 105              		.cfi_offset 8, -16
 106              		.cfi_offset 9, -12
 107              		.cfi_offset 10, -8
 108              		.cfi_offset 14, -4
 109 0004 0546     		mov	r5, r0
 110 0006 8A46     		mov	r10, r1
 111              	.LVL7:
 943:Middlewares/Third_Party/LwIP/src/core/dns.c ****     if (dns_requests[i].found && (dns_requests[i].dns_table_idx == idx)) {
 112              		.loc 1 943 0
 113 0008 0024     		movs	r4, #0
 114 000a 01E0     		b	.L11
 115              	.LVL8:
 116              	.L12:
 943:Middlewares/Third_Party/LwIP/src/core/dns.c ****     if (dns_requests[i].found && (dns_requests[i].dns_table_idx == idx)) {
 117              		.loc 1 943 0 is_stmt 0 discriminator 2
 118 000c 0134     		adds	r4, r4, #1
 119              	.LVL9:
 120 000e E4B2     		uxtb	r4, r4
 121              	.LVL10:
 122              	.L11:
 943:Middlewares/Third_Party/LwIP/src/core/dns.c ****     if (dns_requests[i].found && (dns_requests[i].dns_table_idx == idx)) {
 123              		.loc 1 943 0 discriminator 1
 124 0010 032C     		cmp	r4, #3
 125 0012 23D8     		bhi	.L20
 944:Middlewares/Third_Party/LwIP/src/core/dns.c ****       (*dns_requests[i].found)(dns_table[idx].name, addr, dns_requests[i].arg);
 126              		.loc 1 944 0 is_stmt 1
 127 0014 04EB4402 		add	r2, r4, r4, lsl #1
 128 0018 9300     		lsls	r3, r2, #2
 129 001a 2E4A     		ldr	r2, .L22
 130 001c 52F80390 		ldr	r9, [r2, r3]
 131 0020 B9F1000F 		cmp	r9, #0
 132 0024 F2D0     		beq	.L12
 944:Middlewares/Third_Party/LwIP/src/core/dns.c ****       (*dns_requests[i].found)(dns_table[idx].name, addr, dns_requests[i].arg);
 133              		.loc 1 944 0 is_stmt 0 discriminator 1
 134 0026 04EB4403 		add	r3, r4, r4, lsl #1
 135 002a 9A00     		lsls	r2, r3, #2
 136 002c 294B     		ldr	r3, .L22
ARM GAS  C:\Users\milek\AppData\Local\Temp\ccm1c3Aw.s 			page 21


 137 002e 1344     		add	r3, r3, r2
 138 0030 1B7A     		ldrb	r3, [r3, #8]	@ zero_extendqisi2
 139 0032 AB42     		cmp	r3, r5
 140 0034 EAD1     		bne	.L12
 945:Middlewares/Third_Party/LwIP/src/core/dns.c ****       /* flush this entry */
 141              		.loc 1 945 0 is_stmt 1
 142 0036 05EB0513 		add	r3, r5, r5, lsl #4
 143 003a 1801     		lsls	r0, r3, #4
 144 003c 1030     		adds	r0, r0, #16
 145 003e 254F     		ldr	r7, .L22
 146 0040 6600     		lsls	r6, r4, #1
 147 0042 3219     		adds	r2, r6, r4
 148 0044 9300     		lsls	r3, r2, #2
 149 0046 3B44     		add	r3, r3, r7
 150 0048 5A68     		ldr	r2, [r3, #4]
 151 004a 5146     		mov	r1, r10
 152 004c 224B     		ldr	r3, .L22+4
 153 004e 1844     		add	r0, r0, r3
 154 0050 C847     		blx	r9
 155              	.LVL11:
 947:Middlewares/Third_Party/LwIP/src/core/dns.c ****     }
 156              		.loc 1 947 0
 157 0052 2644     		add	r6, r6, r4
 158 0054 B300     		lsls	r3, r6, #2
 159 0056 0022     		movs	r2, #0
 160 0058 FA50     		str	r2, [r7, r3]
 161 005a D7E7     		b	.L12
 162              	.L20:
 958:Middlewares/Third_Party/LwIP/src/core/dns.c ****     if (i == idx) {
 163              		.loc 1 958 0
 164 005c 0023     		movs	r3, #0
 165 005e 01E0     		b	.L14
 166              	.LVL12:
 167              	.L15:
 958:Middlewares/Third_Party/LwIP/src/core/dns.c ****     if (i == idx) {
 168              		.loc 1 958 0 is_stmt 0 discriminator 2
 169 0060 0133     		adds	r3, r3, #1
 170              	.LVL13:
 171 0062 DBB2     		uxtb	r3, r3
 172              	.LVL14:
 173              	.L14:
 958:Middlewares/Third_Party/LwIP/src/core/dns.c ****     if (i == idx) {
 174              		.loc 1 958 0 discriminator 1
 175 0064 032B     		cmp	r3, #3
 176 0066 17D8     		bhi	.L16
 959:Middlewares/Third_Party/LwIP/src/core/dns.c ****       continue; /* only check other requests */
 177              		.loc 1 959 0 is_stmt 1
 178 0068 AB42     		cmp	r3, r5
 179 006a F9D0     		beq	.L15
 962:Middlewares/Third_Party/LwIP/src/core/dns.c ****       if (dns_table[i].pcb_idx == dns_table[idx].pcb_idx) {
 180              		.loc 1 962 0
 181 006c 03EB0312 		add	r2, r3, r3, lsl #4
 182 0070 1101     		lsls	r1, r2, #4
 183 0072 194A     		ldr	r2, .L22+4
 184 0074 0A44     		add	r2, r2, r1
 185 0076 927A     		ldrb	r2, [r2, #10]	@ zero_extendqisi2
 186 0078 022A     		cmp	r2, #2
ARM GAS  C:\Users\milek\AppData\Local\Temp\ccm1c3Aw.s 			page 22


 187 007a F1D1     		bne	.L15
 963:Middlewares/Third_Party/LwIP/src/core/dns.c ****         /* another request is still using the same pcb */
 188              		.loc 1 963 0
 189 007c 164A     		ldr	r2, .L22+4
 190 007e 1144     		add	r1, r1, r2
 191 0080 CC7B     		ldrb	r4, [r1, #15]	@ zero_extendqisi2
 192 0082 05EB0510 		add	r0, r5, r5, lsl #4
 193 0086 0101     		lsls	r1, r0, #4
 194 0088 0A44     		add	r2, r2, r1
 195 008a D27B     		ldrb	r2, [r2, #15]	@ zero_extendqisi2
 196 008c 9442     		cmp	r4, r2
 197 008e E7D1     		bne	.L15
 965:Middlewares/Third_Party/LwIP/src/core/dns.c ****         break;
 198              		.loc 1 965 0
 199 0090 114B     		ldr	r3, .L22+4
 200              	.LVL15:
 201 0092 0B44     		add	r3, r3, r1
 202 0094 0422     		movs	r2, #4
 203 0096 DA73     		strb	r2, [r3, #15]
 204              	.L16:
 970:Middlewares/Third_Party/LwIP/src/core/dns.c ****     /* if we come here, the pcb is not used any more and can be removed */
 205              		.loc 1 970 0
 206 0098 05EB0513 		add	r3, r5, r5, lsl #4
 207 009c 1A01     		lsls	r2, r3, #4
 208 009e 0E4B     		ldr	r3, .L22+4
 209 00a0 1344     		add	r3, r3, r2
 210 00a2 DB7B     		ldrb	r3, [r3, #15]	@ zero_extendqisi2
 211 00a4 032B     		cmp	r3, #3
 212 00a6 01D9     		bls	.L21
 213              	.L10:
 977:Middlewares/Third_Party/LwIP/src/core/dns.c **** 
 214              		.loc 1 977 0
 215 00a8 BDE8F087 		pop	{r4, r5, r6, r7, r8, r9, r10, pc}
 216              	.LVL16:
 217              	.L21:
 972:Middlewares/Third_Party/LwIP/src/core/dns.c ****     dns_pcbs[dns_table[idx].pcb_idx] = NULL;
 218              		.loc 1 972 0
 219 00ac 0B4C     		ldr	r4, .L22+8
 220 00ae 54F82300 		ldr	r0, [r4, r3, lsl #2]
 221 00b2 FFF7FEFF 		bl	udp_remove
 222              	.LVL17:
 973:Middlewares/Third_Party/LwIP/src/core/dns.c ****     dns_table[idx].pcb_idx = DNS_MAX_SOURCE_PORTS;
 223              		.loc 1 973 0
 224 00b6 084A     		ldr	r2, .L22+4
 225 00b8 2B01     		lsls	r3, r5, #4
 226 00ba 5819     		adds	r0, r3, r5
 227 00bc 0101     		lsls	r1, r0, #4
 228 00be 1144     		add	r1, r1, r2
 229 00c0 C97B     		ldrb	r1, [r1, #15]	@ zero_extendqisi2
 230 00c2 0020     		movs	r0, #0
 231 00c4 44F82100 		str	r0, [r4, r1, lsl #2]
 974:Middlewares/Third_Party/LwIP/src/core/dns.c ****   }
 232              		.loc 1 974 0
 233 00c8 1D44     		add	r5, r5, r3
 234 00ca 2B01     		lsls	r3, r5, #4
 235 00cc 1A44     		add	r2, r2, r3
 236 00ce 0423     		movs	r3, #4
ARM GAS  C:\Users\milek\AppData\Local\Temp\ccm1c3Aw.s 			page 23


 237 00d0 D373     		strb	r3, [r2, #15]
 977:Middlewares/Third_Party/LwIP/src/core/dns.c **** 
 238              		.loc 1 977 0
 239 00d2 E9E7     		b	.L10
 240              	.L23:
 241              		.align	2
 242              	.L22:
 243 00d4 00000000 		.word	.LANCHOR1
 244 00d8 00000000 		.word	.LANCHOR0
 245 00dc 00000000 		.word	.LANCHOR2
 246              		.cfi_endproc
 247              	.LFE164:
 249              		.section	.text.dns_correct_response,"ax",%progbits
 250              		.align	1
 251              		.syntax unified
 252              		.thumb
 253              		.thumb_func
 254              		.fpu fpv5-sp-d16
 256              	dns_correct_response:
 257              	.LFB168:
1000:Middlewares/Third_Party/LwIP/src/core/dns.c **** 
1001:Middlewares/Third_Party/LwIP/src/core/dns.c **** /**
1002:Middlewares/Third_Party/LwIP/src/core/dns.c ****  * dns_check_entry() - see if entry has not yet been queried and, if so, sends out a query.
1003:Middlewares/Third_Party/LwIP/src/core/dns.c ****  * Check an entry in the dns_table:
1004:Middlewares/Third_Party/LwIP/src/core/dns.c ****  * - send out query for new entries
1005:Middlewares/Third_Party/LwIP/src/core/dns.c ****  * - retry old pending entries on timeout (also with different servers)
1006:Middlewares/Third_Party/LwIP/src/core/dns.c ****  * - remove completed entries from the table if their TTL has expired
1007:Middlewares/Third_Party/LwIP/src/core/dns.c ****  *
1008:Middlewares/Third_Party/LwIP/src/core/dns.c ****  * @param i index of the dns_table entry to check
1009:Middlewares/Third_Party/LwIP/src/core/dns.c ****  */
1010:Middlewares/Third_Party/LwIP/src/core/dns.c **** static void
1011:Middlewares/Third_Party/LwIP/src/core/dns.c **** dns_check_entry(u8_t i)
1012:Middlewares/Third_Party/LwIP/src/core/dns.c **** {
1013:Middlewares/Third_Party/LwIP/src/core/dns.c ****   err_t err;
1014:Middlewares/Third_Party/LwIP/src/core/dns.c ****   struct dns_table_entry *entry = &dns_table[i];
1015:Middlewares/Third_Party/LwIP/src/core/dns.c **** 
1016:Middlewares/Third_Party/LwIP/src/core/dns.c ****   LWIP_ASSERT("array index out of bounds", i < DNS_TABLE_SIZE);
1017:Middlewares/Third_Party/LwIP/src/core/dns.c **** 
1018:Middlewares/Third_Party/LwIP/src/core/dns.c ****   switch (entry->state) {
1019:Middlewares/Third_Party/LwIP/src/core/dns.c ****     case DNS_STATE_NEW:
1020:Middlewares/Third_Party/LwIP/src/core/dns.c ****       /* initialize new entry */
1021:Middlewares/Third_Party/LwIP/src/core/dns.c ****       entry->txid = dns_create_txid();
1022:Middlewares/Third_Party/LwIP/src/core/dns.c ****       entry->state = DNS_STATE_ASKING;
1023:Middlewares/Third_Party/LwIP/src/core/dns.c ****       entry->server_idx = 0;
1024:Middlewares/Third_Party/LwIP/src/core/dns.c ****       entry->tmr = 1;
1025:Middlewares/Third_Party/LwIP/src/core/dns.c ****       entry->retries = 0;
1026:Middlewares/Third_Party/LwIP/src/core/dns.c **** 
1027:Middlewares/Third_Party/LwIP/src/core/dns.c ****       /* send DNS packet for this entry */
1028:Middlewares/Third_Party/LwIP/src/core/dns.c ****       err = dns_send(i);
1029:Middlewares/Third_Party/LwIP/src/core/dns.c ****       if (err != ERR_OK) {
1030:Middlewares/Third_Party/LwIP/src/core/dns.c ****         LWIP_DEBUGF(DNS_DEBUG | LWIP_DBG_LEVEL_WARNING,
1031:Middlewares/Third_Party/LwIP/src/core/dns.c ****                     ("dns_send returned error: %s\n", lwip_strerr(err)));
1032:Middlewares/Third_Party/LwIP/src/core/dns.c ****       }
1033:Middlewares/Third_Party/LwIP/src/core/dns.c ****       break;
1034:Middlewares/Third_Party/LwIP/src/core/dns.c ****     case DNS_STATE_ASKING:
1035:Middlewares/Third_Party/LwIP/src/core/dns.c ****       if (--entry->tmr == 0) {
1036:Middlewares/Third_Party/LwIP/src/core/dns.c ****         if (++entry->retries == DNS_MAX_RETRIES) {
ARM GAS  C:\Users\milek\AppData\Local\Temp\ccm1c3Aw.s 			page 24


1037:Middlewares/Third_Party/LwIP/src/core/dns.c ****           if ((entry->server_idx + 1 < DNS_MAX_SERVERS) && !ip_addr_isany_val(dns_servers[entry->se
1038:Middlewares/Third_Party/LwIP/src/core/dns.c **** #if LWIP_DNS_SUPPORT_MDNS_QUERIES
1039:Middlewares/Third_Party/LwIP/src/core/dns.c ****             && !entry->is_mdns
1040:Middlewares/Third_Party/LwIP/src/core/dns.c **** #endif /* LWIP_DNS_SUPPORT_MDNS_QUERIES */
1041:Middlewares/Third_Party/LwIP/src/core/dns.c ****             ) {
1042:Middlewares/Third_Party/LwIP/src/core/dns.c ****             /* change of server */
1043:Middlewares/Third_Party/LwIP/src/core/dns.c ****             entry->server_idx++;
1044:Middlewares/Third_Party/LwIP/src/core/dns.c ****             entry->tmr = 1;
1045:Middlewares/Third_Party/LwIP/src/core/dns.c ****             entry->retries = 0;
1046:Middlewares/Third_Party/LwIP/src/core/dns.c ****           } else {
1047:Middlewares/Third_Party/LwIP/src/core/dns.c ****             LWIP_DEBUGF(DNS_DEBUG, ("dns_check_entry: \"%s\": timeout\n", entry->name));
1048:Middlewares/Third_Party/LwIP/src/core/dns.c ****             /* call specified callback function if provided */
1049:Middlewares/Third_Party/LwIP/src/core/dns.c ****             dns_call_found(i, NULL);
1050:Middlewares/Third_Party/LwIP/src/core/dns.c ****             /* flush this entry */
1051:Middlewares/Third_Party/LwIP/src/core/dns.c ****             entry->state = DNS_STATE_UNUSED;
1052:Middlewares/Third_Party/LwIP/src/core/dns.c ****             break;
1053:Middlewares/Third_Party/LwIP/src/core/dns.c ****           }
1054:Middlewares/Third_Party/LwIP/src/core/dns.c ****         } else {
1055:Middlewares/Third_Party/LwIP/src/core/dns.c ****           /* wait longer for the next retry */
1056:Middlewares/Third_Party/LwIP/src/core/dns.c ****           entry->tmr = entry->retries;
1057:Middlewares/Third_Party/LwIP/src/core/dns.c ****         }
1058:Middlewares/Third_Party/LwIP/src/core/dns.c **** 
1059:Middlewares/Third_Party/LwIP/src/core/dns.c ****         /* send DNS packet for this entry */
1060:Middlewares/Third_Party/LwIP/src/core/dns.c ****         err = dns_send(i);
1061:Middlewares/Third_Party/LwIP/src/core/dns.c ****         if (err != ERR_OK) {
1062:Middlewares/Third_Party/LwIP/src/core/dns.c ****           LWIP_DEBUGF(DNS_DEBUG | LWIP_DBG_LEVEL_WARNING,
1063:Middlewares/Third_Party/LwIP/src/core/dns.c ****                       ("dns_send returned error: %s\n", lwip_strerr(err)));
1064:Middlewares/Third_Party/LwIP/src/core/dns.c ****         }
1065:Middlewares/Third_Party/LwIP/src/core/dns.c ****       }
1066:Middlewares/Third_Party/LwIP/src/core/dns.c ****       break;
1067:Middlewares/Third_Party/LwIP/src/core/dns.c ****     case DNS_STATE_DONE:
1068:Middlewares/Third_Party/LwIP/src/core/dns.c ****       /* if the time to live is nul */
1069:Middlewares/Third_Party/LwIP/src/core/dns.c ****       if ((entry->ttl == 0) || (--entry->ttl == 0)) {
1070:Middlewares/Third_Party/LwIP/src/core/dns.c ****         LWIP_DEBUGF(DNS_DEBUG, ("dns_check_entry: \"%s\": flush\n", entry->name));
1071:Middlewares/Third_Party/LwIP/src/core/dns.c ****         /* flush this entry, there cannot be any related pending entries in this state */
1072:Middlewares/Third_Party/LwIP/src/core/dns.c ****         entry->state = DNS_STATE_UNUSED;
1073:Middlewares/Third_Party/LwIP/src/core/dns.c ****       }
1074:Middlewares/Third_Party/LwIP/src/core/dns.c ****       break;
1075:Middlewares/Third_Party/LwIP/src/core/dns.c ****     case DNS_STATE_UNUSED:
1076:Middlewares/Third_Party/LwIP/src/core/dns.c ****       /* nothing to do */
1077:Middlewares/Third_Party/LwIP/src/core/dns.c ****       break;
1078:Middlewares/Third_Party/LwIP/src/core/dns.c ****     default:
1079:Middlewares/Third_Party/LwIP/src/core/dns.c ****       LWIP_ASSERT("unknown dns_table entry state:", 0);
1080:Middlewares/Third_Party/LwIP/src/core/dns.c ****       break;
1081:Middlewares/Third_Party/LwIP/src/core/dns.c ****   }
1082:Middlewares/Third_Party/LwIP/src/core/dns.c **** }
1083:Middlewares/Third_Party/LwIP/src/core/dns.c **** 
1084:Middlewares/Third_Party/LwIP/src/core/dns.c **** /**
1085:Middlewares/Third_Party/LwIP/src/core/dns.c ****  * Call dns_check_entry for each entry in dns_table - check all entries.
1086:Middlewares/Third_Party/LwIP/src/core/dns.c ****  */
1087:Middlewares/Third_Party/LwIP/src/core/dns.c **** static void
1088:Middlewares/Third_Party/LwIP/src/core/dns.c **** dns_check_entries(void)
1089:Middlewares/Third_Party/LwIP/src/core/dns.c **** {
1090:Middlewares/Third_Party/LwIP/src/core/dns.c ****   u8_t i;
1091:Middlewares/Third_Party/LwIP/src/core/dns.c **** 
1092:Middlewares/Third_Party/LwIP/src/core/dns.c ****   for (i = 0; i < DNS_TABLE_SIZE; ++i) {
1093:Middlewares/Third_Party/LwIP/src/core/dns.c ****     dns_check_entry(i);
ARM GAS  C:\Users\milek\AppData\Local\Temp\ccm1c3Aw.s 			page 25


1094:Middlewares/Third_Party/LwIP/src/core/dns.c ****   }
1095:Middlewares/Third_Party/LwIP/src/core/dns.c **** }
1096:Middlewares/Third_Party/LwIP/src/core/dns.c **** 
1097:Middlewares/Third_Party/LwIP/src/core/dns.c **** /**
1098:Middlewares/Third_Party/LwIP/src/core/dns.c ****  * Save TTL and call dns_call_found for correct response.
1099:Middlewares/Third_Party/LwIP/src/core/dns.c ****  */
1100:Middlewares/Third_Party/LwIP/src/core/dns.c **** static void
1101:Middlewares/Third_Party/LwIP/src/core/dns.c **** dns_correct_response(u8_t idx, u32_t ttl)
1102:Middlewares/Third_Party/LwIP/src/core/dns.c **** {
 258              		.loc 1 1102 0
 259              		.cfi_startproc
 260              		@ args = 0, pretend = 0, frame = 0
 261              		@ frame_needed = 0, uses_anonymous_args = 0
 262              	.LVL18:
 263 0000 70B5     		push	{r4, r5, r6, lr}
 264              	.LCFI2:
 265              		.cfi_def_cfa_offset 16
 266              		.cfi_offset 4, -16
 267              		.cfi_offset 5, -12
 268              		.cfi_offset 6, -8
 269              		.cfi_offset 14, -4
 270 0002 0446     		mov	r4, r0
 271              	.LVL19:
1103:Middlewares/Third_Party/LwIP/src/core/dns.c ****   struct dns_table_entry *entry = &dns_table[idx];
1104:Middlewares/Third_Party/LwIP/src/core/dns.c **** 
1105:Middlewares/Third_Party/LwIP/src/core/dns.c ****   entry->state = DNS_STATE_DONE;
 272              		.loc 1 1105 0
 273 0004 154A     		ldr	r2, .L28
 274 0006 4FF48873 		mov	r3, #272
 275 000a 03FB00F3 		mul	r3, r3, r0
 276 000e D018     		adds	r0, r2, r3
 277              	.LVL20:
 278 0010 0325     		movs	r5, #3
 279 0012 8572     		strb	r5, [r0, #10]
1106:Middlewares/Third_Party/LwIP/src/core/dns.c **** 
1107:Middlewares/Third_Party/LwIP/src/core/dns.c ****   LWIP_DEBUGF(DNS_DEBUG, ("dns_recv: \"%s\": response = ", entry->name));
1108:Middlewares/Third_Party/LwIP/src/core/dns.c ****   ip_addr_debug_print(DNS_DEBUG, (&(entry->ipaddr)));
1109:Middlewares/Third_Party/LwIP/src/core/dns.c ****   LWIP_DEBUGF(DNS_DEBUG, ("\n"));
1110:Middlewares/Third_Party/LwIP/src/core/dns.c **** 
1111:Middlewares/Third_Party/LwIP/src/core/dns.c ****   /* read the answer resource record's TTL, and maximize it if needed */
1112:Middlewares/Third_Party/LwIP/src/core/dns.c ****   entry->ttl = ttl;
 280              		.loc 1 1112 0
 281 0014 D150     		str	r1, [r2, r3]
1113:Middlewares/Third_Party/LwIP/src/core/dns.c ****   if (entry->ttl > DNS_MAX_TTL) {
 282              		.loc 1 1113 0
 283 0016 124B     		ldr	r3, .L28+4
 284 0018 9942     		cmp	r1, r3
 285 001a 05D9     		bls	.L25
1114:Middlewares/Third_Party/LwIP/src/core/dns.c ****     entry->ttl = DNS_MAX_TTL;
 286              		.loc 1 1114 0
 287 001c 4FF48873 		mov	r3, #272
 288 0020 03FB04F3 		mul	r3, r3, r4
 289 0024 0E49     		ldr	r1, .L28+4
 290              	.LVL21:
 291 0026 D150     		str	r1, [r2, r3]
 292              	.LVL22:
 293              	.L25:
ARM GAS  C:\Users\milek\AppData\Local\Temp\ccm1c3Aw.s 			page 26


1115:Middlewares/Third_Party/LwIP/src/core/dns.c ****   }
1116:Middlewares/Third_Party/LwIP/src/core/dns.c ****   dns_call_found(idx, &entry->ipaddr);
 294              		.loc 1 1116 0
 295 0028 0C4E     		ldr	r6, .L28
 296 002a 4FF48875 		mov	r5, #272
 297 002e 05FB04F5 		mul	r5, r5, r4
 298 0032 7119     		adds	r1, r6, r5
 299 0034 0431     		adds	r1, r1, #4
 300 0036 2046     		mov	r0, r4
 301 0038 FFF7FEFF 		bl	dns_call_found
 302              	.LVL23:
1117:Middlewares/Third_Party/LwIP/src/core/dns.c **** 
1118:Middlewares/Third_Party/LwIP/src/core/dns.c ****   if (entry->ttl == 0) {
 303              		.loc 1 1118 0
 304 003c 7359     		ldr	r3, [r6, r5]
 305 003e 63B9     		cbnz	r3, .L24
1119:Middlewares/Third_Party/LwIP/src/core/dns.c ****     /* RFC 883, page 29: "Zero values are
1120:Middlewares/Third_Party/LwIP/src/core/dns.c ****        interpreted to mean that the RR can only be used for the
1121:Middlewares/Third_Party/LwIP/src/core/dns.c ****        transaction in progress, and should not be cached."
1122:Middlewares/Third_Party/LwIP/src/core/dns.c ****        -> flush this entry now */
1123:Middlewares/Third_Party/LwIP/src/core/dns.c ****     /* entry reused during callback? */
1124:Middlewares/Third_Party/LwIP/src/core/dns.c ****     if (entry->state == DNS_STATE_DONE) {
 306              		.loc 1 1124 0
 307 0040 4FF48873 		mov	r3, #272
 308 0044 03FB0463 		mla	r3, r3, r4, r6
 309 0048 9B7A     		ldrb	r3, [r3, #10]	@ zero_extendqisi2
 310 004a 032B     		cmp	r3, #3
 311 004c 05D1     		bne	.L24
1125:Middlewares/Third_Party/LwIP/src/core/dns.c ****       entry->state = DNS_STATE_UNUSED;
 312              		.loc 1 1125 0
 313 004e 4FF48872 		mov	r2, #272
 314 0052 02FB0464 		mla	r4, r2, r4, r6
 315              	.LVL24:
 316 0056 0023     		movs	r3, #0
 317 0058 A372     		strb	r3, [r4, #10]
 318              	.L24:
1126:Middlewares/Third_Party/LwIP/src/core/dns.c ****     }
1127:Middlewares/Third_Party/LwIP/src/core/dns.c ****   }
1128:Middlewares/Third_Party/LwIP/src/core/dns.c **** }
 319              		.loc 1 1128 0
 320 005a 70BD     		pop	{r4, r5, r6, pc}
 321              	.L29:
 322              		.align	2
 323              	.L28:
 324 005c 00000000 		.word	.LANCHOR0
 325 0060 803A0900 		.word	604800
 326              		.cfi_endproc
 327              	.LFE168:
 329              		.section	.text.dns_send,"ax",%progbits
 330              		.align	1
 331              		.syntax unified
 332              		.thumb
 333              		.thumb_func
 334              		.fpu fpv5-sp-d16
 336              	dns_send:
 337              	.LFB161:
 736:Middlewares/Third_Party/LwIP/src/core/dns.c ****   err_t err;
ARM GAS  C:\Users\milek\AppData\Local\Temp\ccm1c3Aw.s 			page 27


 338              		.loc 1 736 0
 339              		.cfi_startproc
 340              		@ args = 0, pretend = 0, frame = 16
 341              		@ frame_needed = 0, uses_anonymous_args = 0
 342              	.LVL25:
 343 0000 2DE9F047 		push	{r4, r5, r6, r7, r8, r9, r10, lr}
 344              	.LCFI3:
 345              		.cfi_def_cfa_offset 32
 346              		.cfi_offset 4, -32
 347              		.cfi_offset 5, -28
 348              		.cfi_offset 6, -24
 349              		.cfi_offset 7, -20
 350              		.cfi_offset 8, -16
 351              		.cfi_offset 9, -12
 352              		.cfi_offset 10, -8
 353              		.cfi_offset 14, -4
 354 0004 84B0     		sub	sp, sp, #16
 355              	.LCFI4:
 356              		.cfi_def_cfa_offset 48
 357 0006 0546     		mov	r5, r0
 358              	.LVL26:
 749:Middlewares/Third_Party/LwIP/src/core/dns.c ****   if (ip_addr_isany_val(dns_servers[entry->server_idx])
 359              		.loc 1 749 0
 360 0008 00EB0013 		add	r3, r0, r0, lsl #4
 361 000c 1A01     		lsls	r2, r3, #4
 362 000e 544B     		ldr	r3, .L42
 363 0010 1344     		add	r3, r3, r2
 364 0012 DB7A     		ldrb	r3, [r3, #11]	@ zero_extendqisi2
 365 0014 012B     		cmp	r3, #1
 366 0016 3CD8     		bhi	.L39
 367              	.LVL27:
 368              	.L31:
 750:Middlewares/Third_Party/LwIP/src/core/dns.c **** #if LWIP_DNS_SUPPORT_MDNS_QUERIES
 369              		.loc 1 750 0
 370 0018 05EB0513 		add	r3, r5, r5, lsl #4
 371 001c 1A01     		lsls	r2, r3, #4
 372 001e 504B     		ldr	r3, .L42
 373 0020 1344     		add	r3, r3, r2
 374 0022 DA7A     		ldrb	r2, [r3, #11]	@ zero_extendqisi2
 375 0024 4F4B     		ldr	r3, .L42+4
 376 0026 53F82230 		ldr	r3, [r3, r2, lsl #2]
 377 002a 002B     		cmp	r3, #0
 378 002c 39D0     		beq	.L40
 764:Middlewares/Third_Party/LwIP/src/core/dns.c ****                  SIZEOF_DNS_QUERY), PBUF_RAM);
 379              		.loc 1 764 0
 380 002e 05EB0513 		add	r3, r5, r5, lsl #4
 381 0032 1F01     		lsls	r7, r3, #4
 382 0034 1037     		adds	r7, r7, #16
 383 0036 4A4B     		ldr	r3, .L42
 384 0038 1F44     		add	r7, r7, r3
 385 003a 3846     		mov	r0, r7
 386 003c FFF7FEFF 		bl	strlen
 387              	.LVL28:
 388 0040 00F11201 		add	r1, r0, #18
 389 0044 0022     		movs	r2, #0
 390 0046 89B2     		uxth	r1, r1
 391 0048 1046     		mov	r0, r2
ARM GAS  C:\Users\milek\AppData\Local\Temp\ccm1c3Aw.s 			page 28


 392 004a FFF7FEFF 		bl	pbuf_alloc
 393              	.LVL29:
 766:Middlewares/Third_Party/LwIP/src/core/dns.c ****     const ip_addr_t* dst;
 394              		.loc 1 766 0
 395 004e 0646     		mov	r6, r0
 396 0050 0028     		cmp	r0, #0
 397 0052 00F08280 		beq	.L37
 398              	.LBB2:
 770:Middlewares/Third_Party/LwIP/src/core/dns.c ****     hdr.id = lwip_htons(entry->txid);
 399              		.loc 1 770 0
 400 0056 0023     		movs	r3, #0
 401 0058 0193     		str	r3, [sp, #4]
 402 005a 0293     		str	r3, [sp, #8]
 403 005c 0393     		str	r3, [sp, #12]
 771:Middlewares/Third_Party/LwIP/src/core/dns.c ****     hdr.flags1 = DNS_FLAG1_RD;
 404              		.loc 1 771 0
 405 005e 05EB0513 		add	r3, r5, r5, lsl #4
 406 0062 1A01     		lsls	r2, r3, #4
 407 0064 3E4B     		ldr	r3, .L42
 408 0066 1344     		add	r3, r3, r2
 409 0068 1889     		ldrh	r0, [r3, #8]
 410              	.LVL30:
 411 006a FFF7FEFF 		bl	lwip_htons
 412              	.LVL31:
 413 006e ADF80400 		strh	r0, [sp, #4]	@ movhi
 772:Middlewares/Third_Party/LwIP/src/core/dns.c ****     hdr.numquestions = PP_HTONS(1);
 414              		.loc 1 772 0
 415 0072 0123     		movs	r3, #1
 416 0074 8DF80630 		strb	r3, [sp, #6]
 773:Middlewares/Third_Party/LwIP/src/core/dns.c ****     pbuf_take(p, &hdr, SIZEOF_DNS_HDR);
 417              		.loc 1 773 0
 418 0078 4FF48073 		mov	r3, #256
 419 007c ADF80830 		strh	r3, [sp, #8]	@ movhi
 774:Middlewares/Third_Party/LwIP/src/core/dns.c ****     hostname = entry->name;
 420              		.loc 1 774 0
 421 0080 0C22     		movs	r2, #12
 422 0082 01A9     		add	r1, sp, #4
 423 0084 3046     		mov	r0, r6
 424 0086 FFF7FEFF 		bl	pbuf_take
 425              	.LVL32:
 776:Middlewares/Third_Party/LwIP/src/core/dns.c **** 
 426              		.loc 1 776 0
 427 008a 013F     		subs	r7, r7, #1
 428              	.LVL33:
 779:Middlewares/Third_Party/LwIP/src/core/dns.c ****     do {
 429              		.loc 1 779 0
 430 008c 4FF00C08 		mov	r8, #12
 431 0090 34E0     		b	.L36
 432              	.LVL34:
 433              	.L39:
 434              	.LBE2:
 749:Middlewares/Third_Party/LwIP/src/core/dns.c ****   if (ip_addr_isany_val(dns_servers[entry->server_idx])
 435              		.loc 1 749 0 discriminator 1
 436 0092 354B     		ldr	r3, .L42+8
 437 0094 40F2ED22 		movw	r2, #749
 438 0098 3449     		ldr	r1, .L42+12
 439 009a 3548     		ldr	r0, .L42+16
ARM GAS  C:\Users\milek\AppData\Local\Temp\ccm1c3Aw.s 			page 29


 440              	.LVL35:
 441 009c FFF7FEFF 		bl	printf
 442              	.LVL36:
 443 00a0 BAE7     		b	.L31
 444              	.L40:
 757:Middlewares/Third_Party/LwIP/src/core/dns.c ****     /* flush this entry */
 445              		.loc 1 757 0
 446 00a2 0021     		movs	r1, #0
 447 00a4 2846     		mov	r0, r5
 448 00a6 FFF7FEFF 		bl	dns_call_found
 449              	.LVL37:
 759:Middlewares/Third_Party/LwIP/src/core/dns.c ****     return ERR_OK;
 450              		.loc 1 759 0
 451 00aa 05EB0515 		add	r5, r5, r5, lsl #4
 452              	.LVL38:
 453 00ae 2A01     		lsls	r2, r5, #4
 454 00b0 2B4B     		ldr	r3, .L42
 455 00b2 1344     		add	r3, r3, r2
 456 00b4 0024     		movs	r4, #0
 457 00b6 9C72     		strb	r4, [r3, #10]
 760:Middlewares/Third_Party/LwIP/src/core/dns.c ****   }
 458              		.loc 1 760 0
 459 00b8 4BE0     		b	.L33
 460              	.LVL39:
 461              	.L35:
 462              	.LBB3:
 784:Middlewares/Third_Party/LwIP/src/core/dns.c ****       }
 463              		.loc 1 784 0 discriminator 3
 464 00ba 0134     		adds	r4, r4, #1
 465              	.LVL40:
 466 00bc E4B2     		uxtb	r4, r4
 467              	.LVL41:
 783:Middlewares/Third_Party/LwIP/src/core/dns.c ****         ++n;
 468              		.loc 1 783 0 discriminator 3
 469 00be 0137     		adds	r7, r7, #1
 470              	.LVL42:
 471              	.L34:
 783:Middlewares/Third_Party/LwIP/src/core/dns.c ****         ++n;
 472              		.loc 1 783 0 is_stmt 0 discriminator 1
 473 00c0 3B78     		ldrb	r3, [r7]	@ zero_extendqisi2
 474 00c2 2E2B     		cmp	r3, #46
 475 00c4 18BF     		it	ne
 476 00c6 002B     		cmpne	r3, #0
 477 00c8 F7D1     		bne	.L35
 786:Middlewares/Third_Party/LwIP/src/core/dns.c ****       pbuf_put_at(p, query_idx, n);
 478              		.loc 1 786 0 is_stmt 1
 479 00ca A7EB090A 		sub	r10, r7, r9
 480 00ce 1FFA8AFA 		uxth	r10, r10
 481              	.LVL43:
 787:Middlewares/Third_Party/LwIP/src/core/dns.c ****       pbuf_take_at(p, hostname_part, copy_len, query_idx + 1);
 482              		.loc 1 787 0
 483 00d2 2246     		mov	r2, r4
 484 00d4 4146     		mov	r1, r8
 485 00d6 3046     		mov	r0, r6
 486 00d8 FFF7FEFF 		bl	pbuf_put_at
 487              	.LVL44:
 788:Middlewares/Third_Party/LwIP/src/core/dns.c ****       query_idx += n + 1;
ARM GAS  C:\Users\milek\AppData\Local\Temp\ccm1c3Aw.s 			page 30


 488              		.loc 1 788 0
 489 00dc 08F10103 		add	r3, r8, #1
 490 00e0 9BB2     		uxth	r3, r3
 491 00e2 5246     		mov	r2, r10
 492 00e4 4946     		mov	r1, r9
 493 00e6 3046     		mov	r0, r6
 494 00e8 FFF7FEFF 		bl	pbuf_take_at
 495              	.LVL45:
 789:Middlewares/Third_Party/LwIP/src/core/dns.c ****     } while (*hostname != 0);
 496              		.loc 1 789 0
 497 00ec 4444     		add	r4, r4, r8
 498              	.LVL46:
 499 00ee A4B2     		uxth	r4, r4
 500 00f0 04F10108 		add	r8, r4, #1
 501              	.LVL47:
 502 00f4 1FFA88F8 		uxth	r8, r8
 503              	.LVL48:
 790:Middlewares/Third_Party/LwIP/src/core/dns.c ****     pbuf_put_at(p, query_idx, 0);
 504              		.loc 1 790 0
 505 00f8 3B78     		ldrb	r3, [r7]	@ zero_extendqisi2
 506 00fa 1BB1     		cbz	r3, .L41
 507              	.LVL49:
 508              	.L36:
 781:Middlewares/Third_Party/LwIP/src/core/dns.c ****       hostname_part = hostname;
 509              		.loc 1 781 0
 510 00fc 0137     		adds	r7, r7, #1
 511              	.LVL50:
 512 00fe B946     		mov	r9, r7
 783:Middlewares/Third_Party/LwIP/src/core/dns.c ****         ++n;
 513              		.loc 1 783 0
 514 0100 0024     		movs	r4, #0
 515 0102 DDE7     		b	.L34
 516              	.LVL51:
 517              	.L41:
 791:Middlewares/Third_Party/LwIP/src/core/dns.c ****     query_idx++;
 518              		.loc 1 791 0
 519 0104 0022     		movs	r2, #0
 520 0106 4146     		mov	r1, r8
 521 0108 3046     		mov	r0, r6
 522 010a FFF7FEFF 		bl	pbuf_put_at
 523              	.LVL52:
 792:Middlewares/Third_Party/LwIP/src/core/dns.c **** 
 524              		.loc 1 792 0
 525 010e A31C     		adds	r3, r4, #2
 526              	.LVL53:
 798:Middlewares/Third_Party/LwIP/src/core/dns.c ****     }
 527              		.loc 1 798 0
 528 0110 4FF48072 		mov	r2, #256
 529 0114 ADF80020 		strh	r2, [sp]	@ movhi
 800:Middlewares/Third_Party/LwIP/src/core/dns.c ****     pbuf_take_at(p, &qry, SIZEOF_DNS_QUERY, query_idx);
 530              		.loc 1 800 0
 531 0118 ADF80220 		strh	r2, [sp, #2]	@ movhi
 801:Middlewares/Third_Party/LwIP/src/core/dns.c **** 
 532              		.loc 1 801 0
 533 011c 9BB2     		uxth	r3, r3
 534 011e 0422     		movs	r2, #4
 535 0120 6946     		mov	r1, sp
ARM GAS  C:\Users\milek\AppData\Local\Temp\ccm1c3Aw.s 			page 31


 536 0122 3046     		mov	r0, r6
 537 0124 FFF7FEFF 		bl	pbuf_take_at
 538              	.LVL54:
 804:Middlewares/Third_Party/LwIP/src/core/dns.c **** #else
 539              		.loc 1 804 0
 540 0128 0D4A     		ldr	r2, .L42
 541 012a 2B01     		lsls	r3, r5, #4
 542 012c 5819     		adds	r0, r3, r5
 543 012e 0101     		lsls	r1, r0, #4
 544 0130 1144     		add	r1, r1, r2
 545 0132 CC7B     		ldrb	r4, [r1, #15]	@ zero_extendqisi2
 546              	.LVL55:
 832:Middlewares/Third_Party/LwIP/src/core/dns.c ****     }
 547              		.loc 1 832 0
 548 0134 C97A     		ldrb	r1, [r1, #11]	@ zero_extendqisi2
 549              	.LVL56:
 834:Middlewares/Third_Party/LwIP/src/core/dns.c **** 
 550              		.loc 1 834 0
 551 0136 3523     		movs	r3, #53
 552 0138 0A4A     		ldr	r2, .L42+4
 553 013a 02EB8102 		add	r2, r2, r1, lsl #2
 554              	.LVL57:
 555 013e 3146     		mov	r1, r6
 556 0140 0C48     		ldr	r0, .L42+20
 557 0142 50F82400 		ldr	r0, [r0, r4, lsl #2]
 558 0146 FFF7FEFF 		bl	udp_sendto
 559              	.LVL58:
 560 014a 0446     		mov	r4, r0
 561              	.LVL59:
 837:Middlewares/Third_Party/LwIP/src/core/dns.c ****   } else {
 562              		.loc 1 837 0
 563 014c 3046     		mov	r0, r6
 564 014e FFF7FEFF 		bl	pbuf_free
 565              	.LVL60:
 566              	.L33:
 567              	.LBE3:
 843:Middlewares/Third_Party/LwIP/src/core/dns.c **** 
 568              		.loc 1 843 0
 569 0152 2046     		mov	r0, r4
 570 0154 04B0     		add	sp, sp, #16
 571              	.LCFI5:
 572              		.cfi_remember_state
 573              		.cfi_def_cfa_offset 32
 574              		@ sp needed
 575 0156 BDE8F087 		pop	{r4, r5, r6, r7, r8, r9, r10, pc}
 576              	.LVL61:
 577              	.L37:
 578              	.LCFI6:
 579              		.cfi_restore_state
 839:Middlewares/Third_Party/LwIP/src/core/dns.c ****   }
 580              		.loc 1 839 0
 581 015a 4FF0FF34 		mov	r4, #-1
 582 015e F8E7     		b	.L33
 583              	.L43:
 584              		.align	2
 585              	.L42:
 586 0160 00000000 		.word	.LANCHOR0
ARM GAS  C:\Users\milek\AppData\Local\Temp\ccm1c3Aw.s 			page 32


 587 0164 00000000 		.word	.LANCHOR3
 588 0168 00000000 		.word	.LC0
 589 016c 2C000000 		.word	.LC1
 590 0170 44000000 		.word	.LC2
 591 0174 00000000 		.word	.LANCHOR2
 592              		.cfi_endproc
 593              	.LFE161:
 595              		.section	.text.dns_check_entry,"ax",%progbits
 596              		.align	1
 597              		.syntax unified
 598              		.thumb
 599              		.thumb_func
 600              		.fpu fpv5-sp-d16
 602              	dns_check_entry:
 603              	.LFB166:
1012:Middlewares/Third_Party/LwIP/src/core/dns.c ****   err_t err;
 604              		.loc 1 1012 0
 605              		.cfi_startproc
 606              		@ args = 0, pretend = 0, frame = 0
 607              		@ frame_needed = 0, uses_anonymous_args = 0
 608              	.LVL62:
 609 0000 38B5     		push	{r3, r4, r5, lr}
 610              	.LCFI7:
 611              		.cfi_def_cfa_offset 16
 612              		.cfi_offset 3, -16
 613              		.cfi_offset 4, -12
 614              		.cfi_offset 5, -8
 615              		.cfi_offset 14, -4
 616 0002 0446     		mov	r4, r0
 617              	.LVL63:
1016:Middlewares/Third_Party/LwIP/src/core/dns.c **** 
 618              		.loc 1 1016 0
 619 0004 0328     		cmp	r0, #3
 620 0006 0BD8     		bhi	.L57
 621              	.LVL64:
 622              	.L45:
1018:Middlewares/Third_Party/LwIP/src/core/dns.c ****     case DNS_STATE_NEW:
 623              		.loc 1 1018 0
 624 0008 04EB0413 		add	r3, r4, r4, lsl #4
 625 000c 1A01     		lsls	r2, r3, #4
 626 000e 424B     		ldr	r3, .L59
 627 0010 1344     		add	r3, r3, r2
 628 0012 9B7A     		ldrb	r3, [r3, #10]	@ zero_extendqisi2
 629 0014 032B     		cmp	r3, #3
 630 0016 76D8     		bhi	.L46
 631 0018 DFE803F0 		tbb	[pc, r3]
 632              	.L48:
 633 001c 1F       		.byte	(.L44-.L48)/2
 634 001d 0A       		.byte	(.L49-.L48)/2
 635 001e 20       		.byte	(.L50-.L48)/2
 636 001f 5F       		.byte	(.L51-.L48)/2
 637              	.LVL65:
 638              		.p2align 1
 639              	.L57:
1016:Middlewares/Third_Party/LwIP/src/core/dns.c **** 
 640              		.loc 1 1016 0 discriminator 1
 641 0020 3E4B     		ldr	r3, .L59+4
ARM GAS  C:\Users\milek\AppData\Local\Temp\ccm1c3Aw.s 			page 33


 642 0022 4FF47E72 		mov	r2, #1016
 643 0026 3E49     		ldr	r1, .L59+8
 644 0028 3E48     		ldr	r0, .L59+12
 645              	.LVL66:
 646 002a FFF7FEFF 		bl	printf
 647              	.LVL67:
 648 002e EBE7     		b	.L45
 649              	.L49:
1021:Middlewares/Third_Party/LwIP/src/core/dns.c ****       entry->state = DNS_STATE_ASKING;
 650              		.loc 1 1021 0
 651 0030 FFF7FEFF 		bl	dns_create_txid
 652              	.LVL68:
 653 0034 3849     		ldr	r1, .L59
 654 0036 2201     		lsls	r2, r4, #4
 655 0038 1519     		adds	r5, r2, r4
 656 003a 2B01     		lsls	r3, r5, #4
 657 003c 0B44     		add	r3, r3, r1
 658 003e 1881     		strh	r0, [r3, #8]	@ movhi
1022:Middlewares/Third_Party/LwIP/src/core/dns.c ****       entry->server_idx = 0;
 659              		.loc 1 1022 0
 660 0040 0220     		movs	r0, #2
 661 0042 9872     		strb	r0, [r3, #10]
1023:Middlewares/Third_Party/LwIP/src/core/dns.c ****       entry->tmr = 1;
 662              		.loc 1 1023 0
 663 0044 0020     		movs	r0, #0
 664 0046 D872     		strb	r0, [r3, #11]
1024:Middlewares/Third_Party/LwIP/src/core/dns.c ****       entry->retries = 0;
 665              		.loc 1 1024 0
 666 0048 0125     		movs	r5, #1
 667 004a 1D73     		strb	r5, [r3, #12]
1025:Middlewares/Third_Party/LwIP/src/core/dns.c **** 
 668              		.loc 1 1025 0
 669 004c 2244     		add	r2, r2, r4
 670 004e 1301     		lsls	r3, r2, #4
 671 0050 1944     		add	r1, r1, r3
 672 0052 4873     		strb	r0, [r1, #13]
1028:Middlewares/Third_Party/LwIP/src/core/dns.c ****       if (err != ERR_OK) {
 673              		.loc 1 1028 0
 674 0054 2046     		mov	r0, r4
 675 0056 FFF7FEFF 		bl	dns_send
 676              	.LVL69:
 677              	.L44:
1082:Middlewares/Third_Party/LwIP/src/core/dns.c **** 
 678              		.loc 1 1082 0
 679 005a 38BD     		pop	{r3, r4, r5, pc}
 680              	.LVL70:
 681              	.L50:
1035:Middlewares/Third_Party/LwIP/src/core/dns.c ****         if (++entry->retries == DNS_MAX_RETRIES) {
 682              		.loc 1 1035 0
 683 005c 2301     		lsls	r3, r4, #4
 684 005e 2344     		add	r3, r3, r4
 685 0060 1901     		lsls	r1, r3, #4
 686 0062 2D4A     		ldr	r2, .L59
 687 0064 0A44     		add	r2, r2, r1
 688 0066 137B     		ldrb	r3, [r2, #12]	@ zero_extendqisi2
 689 0068 013B     		subs	r3, r3, #1
 690 006a DBB2     		uxtb	r3, r3
ARM GAS  C:\Users\milek\AppData\Local\Temp\ccm1c3Aw.s 			page 34


 691 006c 1373     		strb	r3, [r2, #12]
 692 006e 002B     		cmp	r3, #0
 693 0070 F3D1     		bne	.L44
1036:Middlewares/Third_Party/LwIP/src/core/dns.c ****           if ((entry->server_idx + 1 < DNS_MAX_SERVERS) && !ip_addr_isany_val(dns_servers[entry->se
 694              		.loc 1 1036 0
 695 0072 294A     		ldr	r2, .L59
 696 0074 0A44     		add	r2, r2, r1
 697 0076 537B     		ldrb	r3, [r2, #13]	@ zero_extendqisi2
 698 0078 0133     		adds	r3, r3, #1
 699 007a DBB2     		uxtb	r3, r3
 700 007c 5373     		strb	r3, [r2, #13]
 701 007e 042B     		cmp	r3, #4
 702 0080 09D0     		beq	.L58
1056:Middlewares/Third_Party/LwIP/src/core/dns.c ****         }
 703              		.loc 1 1056 0
 704 0082 04EB0412 		add	r2, r4, r4, lsl #4
 705 0086 1101     		lsls	r1, r2, #4
 706 0088 234A     		ldr	r2, .L59
 707 008a 0A44     		add	r2, r2, r1
 708 008c 1373     		strb	r3, [r2, #12]
 709              	.L54:
1060:Middlewares/Third_Party/LwIP/src/core/dns.c ****         if (err != ERR_OK) {
 710              		.loc 1 1060 0
 711 008e 2046     		mov	r0, r4
 712 0090 FFF7FEFF 		bl	dns_send
 713              	.LVL71:
 714 0094 E1E7     		b	.L44
 715              	.L58:
1037:Middlewares/Third_Party/LwIP/src/core/dns.c **** #if LWIP_DNS_SUPPORT_MDNS_QUERIES
 716              		.loc 1 1037 0
 717 0096 204B     		ldr	r3, .L59
 718 0098 0B44     		add	r3, r3, r1
 719 009a DB7A     		ldrb	r3, [r3, #11]	@ zero_extendqisi2
 720 009c 5A1C     		adds	r2, r3, #1
 721 009e 012A     		cmp	r2, #1
 722 00a0 0FDC     		bgt	.L53
1037:Middlewares/Third_Party/LwIP/src/core/dns.c **** #if LWIP_DNS_SUPPORT_MDNS_QUERIES
 723              		.loc 1 1037 0 is_stmt 0 discriminator 1
 724 00a2 2149     		ldr	r1, .L59+16
 725 00a4 51F82220 		ldr	r2, [r1, r2, lsl #2]
 726 00a8 5AB1     		cbz	r2, .L53
1043:Middlewares/Third_Party/LwIP/src/core/dns.c ****             entry->tmr = 1;
 727              		.loc 1 1043 0 is_stmt 1
 728 00aa 1B48     		ldr	r0, .L59
 729 00ac 2201     		lsls	r2, r4, #4
 730 00ae 1519     		adds	r5, r2, r4
 731 00b0 2901     		lsls	r1, r5, #4
 732 00b2 0144     		add	r1, r1, r0
 733 00b4 0133     		adds	r3, r3, #1
 734 00b6 CB72     		strb	r3, [r1, #11]
1044:Middlewares/Third_Party/LwIP/src/core/dns.c ****             entry->retries = 0;
 735              		.loc 1 1044 0
 736 00b8 0123     		movs	r3, #1
 737 00ba 0B73     		strb	r3, [r1, #12]
1045:Middlewares/Third_Party/LwIP/src/core/dns.c ****           } else {
 738              		.loc 1 1045 0
 739 00bc 0023     		movs	r3, #0
ARM GAS  C:\Users\milek\AppData\Local\Temp\ccm1c3Aw.s 			page 35


 740 00be 4B73     		strb	r3, [r1, #13]
 741 00c0 E5E7     		b	.L54
 742              	.L53:
1049:Middlewares/Third_Party/LwIP/src/core/dns.c ****             /* flush this entry */
 743              		.loc 1 1049 0
 744 00c2 0021     		movs	r1, #0
 745 00c4 2046     		mov	r0, r4
 746 00c6 FFF7FEFF 		bl	dns_call_found
 747              	.LVL72:
1051:Middlewares/Third_Party/LwIP/src/core/dns.c ****             break;
 748              		.loc 1 1051 0
 749 00ca 04EB0414 		add	r4, r4, r4, lsl #4
 750              	.LVL73:
 751 00ce 2201     		lsls	r2, r4, #4
 752 00d0 114B     		ldr	r3, .L59
 753 00d2 1344     		add	r3, r3, r2
 754 00d4 0022     		movs	r2, #0
 755 00d6 9A72     		strb	r2, [r3, #10]
1052:Middlewares/Third_Party/LwIP/src/core/dns.c ****           }
 756              		.loc 1 1052 0
 757 00d8 BFE7     		b	.L44
 758              	.LVL74:
 759              	.L51:
1069:Middlewares/Third_Party/LwIP/src/core/dns.c ****         LWIP_DEBUGF(DNS_DEBUG, ("dns_check_entry: \"%s\": flush\n", entry->name));
 760              		.loc 1 1069 0
 761 00da 04EB0412 		add	r2, r4, r4, lsl #4
 762 00de 1301     		lsls	r3, r2, #4
 763 00e0 0D4A     		ldr	r2, .L59
 764 00e2 D358     		ldr	r3, [r2, r3]
 765 00e4 3BB1     		cbz	r3, .L55
1069:Middlewares/Third_Party/LwIP/src/core/dns.c ****         LWIP_DEBUGF(DNS_DEBUG, ("dns_check_entry: \"%s\": flush\n", entry->name));
 766              		.loc 1 1069 0 is_stmt 0 discriminator 1
 767 00e6 013B     		subs	r3, r3, #1
 768 00e8 04EB0411 		add	r1, r4, r4, lsl #4
 769 00ec 0A01     		lsls	r2, r1, #4
 770 00ee 0A49     		ldr	r1, .L59
 771 00f0 8B50     		str	r3, [r1, r2]
 772 00f2 002B     		cmp	r3, #0
 773 00f4 B1D1     		bne	.L44
 774              	.L55:
1072:Middlewares/Third_Party/LwIP/src/core/dns.c ****       }
 775              		.loc 1 1072 0 is_stmt 1
 776 00f6 04EB0414 		add	r4, r4, r4, lsl #4
 777              	.LVL75:
 778 00fa 2201     		lsls	r2, r4, #4
 779 00fc 064B     		ldr	r3, .L59
 780 00fe 1344     		add	r3, r3, r2
 781 0100 0022     		movs	r2, #0
 782 0102 9A72     		strb	r2, [r3, #10]
 783 0104 A9E7     		b	.L44
 784              	.LVL76:
 785              	.L46:
1079:Middlewares/Third_Party/LwIP/src/core/dns.c ****       break;
 786              		.loc 1 1079 0 discriminator 1
 787 0106 054B     		ldr	r3, .L59+4
 788 0108 40F23742 		movw	r2, #1079
 789 010c 0749     		ldr	r1, .L59+20
ARM GAS  C:\Users\milek\AppData\Local\Temp\ccm1c3Aw.s 			page 36


 790 010e 0548     		ldr	r0, .L59+12
 791 0110 FFF7FEFF 		bl	printf
 792              	.LVL77:
1082:Middlewares/Third_Party/LwIP/src/core/dns.c **** 
 793              		.loc 1 1082 0 discriminator 1
 794 0114 A1E7     		b	.L44
 795              	.L60:
 796 0116 00BF     		.align	2
 797              	.L59:
 798 0118 00000000 		.word	.LANCHOR0
 799 011c 00000000 		.word	.LC0
 800 0120 00000000 		.word	.LC3
 801 0124 44000000 		.word	.LC2
 802 0128 00000000 		.word	.LANCHOR3
 803 012c 1C000000 		.word	.LC4
 804              		.cfi_endproc
 805              	.LFE166:
 807              		.section	.text.dns_check_entries,"ax",%progbits
 808              		.align	1
 809              		.syntax unified
 810              		.thumb
 811              		.thumb_func
 812              		.fpu fpv5-sp-d16
 814              	dns_check_entries:
 815              	.LFB167:
1089:Middlewares/Third_Party/LwIP/src/core/dns.c ****   u8_t i;
 816              		.loc 1 1089 0
 817              		.cfi_startproc
 818              		@ args = 0, pretend = 0, frame = 0
 819              		@ frame_needed = 0, uses_anonymous_args = 0
 820 0000 10B5     		push	{r4, lr}
 821              	.LCFI8:
 822              		.cfi_def_cfa_offset 8
 823              		.cfi_offset 4, -8
 824              		.cfi_offset 14, -4
 825              	.LVL78:
1092:Middlewares/Third_Party/LwIP/src/core/dns.c ****     dns_check_entry(i);
 826              		.loc 1 1092 0
 827 0002 0024     		movs	r4, #0
 828 0004 04E0     		b	.L62
 829              	.LVL79:
 830              	.L63:
1093:Middlewares/Third_Party/LwIP/src/core/dns.c ****   }
 831              		.loc 1 1093 0 discriminator 3
 832 0006 2046     		mov	r0, r4
 833 0008 FFF7FEFF 		bl	dns_check_entry
 834              	.LVL80:
1092:Middlewares/Third_Party/LwIP/src/core/dns.c ****     dns_check_entry(i);
 835              		.loc 1 1092 0 discriminator 3
 836 000c 0134     		adds	r4, r4, #1
 837              	.LVL81:
 838 000e E4B2     		uxtb	r4, r4
 839              	.LVL82:
 840              	.L62:
1092:Middlewares/Third_Party/LwIP/src/core/dns.c ****     dns_check_entry(i);
 841              		.loc 1 1092 0 is_stmt 0 discriminator 1
 842 0010 032C     		cmp	r4, #3
ARM GAS  C:\Users\milek\AppData\Local\Temp\ccm1c3Aw.s 			page 37


 843 0012 F8D9     		bls	.L63
1095:Middlewares/Third_Party/LwIP/src/core/dns.c **** 
 844              		.loc 1 1095 0 is_stmt 1
 845 0014 10BD     		pop	{r4, pc}
 846              		.cfi_endproc
 847              	.LFE167:
 849              		.section	.text.dns_lookup,"ax",%progbits
 850              		.align	1
 851              		.syntax unified
 852              		.thumb
 853              		.thumb_func
 854              		.fpu fpv5-sp-d16
 856              	dns_lookup:
 857              	.LFB158:
 606:Middlewares/Third_Party/LwIP/src/core/dns.c ****   u8_t i;
 858              		.loc 1 606 0
 859              		.cfi_startproc
 860              		@ args = 0, pretend = 0, frame = 0
 861              		@ frame_needed = 0, uses_anonymous_args = 0
 862              	.LVL83:
 863 0000 F8B5     		push	{r3, r4, r5, r6, r7, lr}
 864              	.LCFI9:
 865              		.cfi_def_cfa_offset 24
 866              		.cfi_offset 3, -24
 867              		.cfi_offset 4, -20
 868              		.cfi_offset 5, -16
 869              		.cfi_offset 6, -12
 870              		.cfi_offset 7, -8
 871              		.cfi_offset 14, -4
 872 0002 0646     		mov	r6, r0
 873 0004 0F46     		mov	r7, r1
 874              	.LVL84:
 622:Middlewares/Third_Party/LwIP/src/core/dns.c ****     if ((dns_table[i].state == DNS_STATE_DONE) &&
 875              		.loc 1 622 0
 876 0006 0024     		movs	r4, #0
 877 0008 01E0     		b	.L66
 878              	.LVL85:
 879              	.L67:
 622:Middlewares/Third_Party/LwIP/src/core/dns.c ****     if ((dns_table[i].state == DNS_STATE_DONE) &&
 880              		.loc 1 622 0 is_stmt 0 discriminator 2
 881 000a 0134     		adds	r4, r4, #1
 882              	.LVL86:
 883 000c E4B2     		uxtb	r4, r4
 884              	.LVL87:
 885              	.L66:
 622:Middlewares/Third_Party/LwIP/src/core/dns.c ****     if ((dns_table[i].state == DNS_STATE_DONE) &&
 886              		.loc 1 622 0 discriminator 1
 887 000e 032C     		cmp	r4, #3
 888 0010 1BD8     		bhi	.L72
 623:Middlewares/Third_Party/LwIP/src/core/dns.c ****         (lwip_strnicmp(name, dns_table[i].name, sizeof(dns_table[i].name)) == 0) &&
 889              		.loc 1 623 0 is_stmt 1
 890 0012 04EB0413 		add	r3, r4, r4, lsl #4
 891 0016 1A01     		lsls	r2, r3, #4
 892 0018 0E4B     		ldr	r3, .L73
 893 001a 1344     		add	r3, r3, r2
 894 001c 9B7A     		ldrb	r3, [r3, #10]	@ zero_extendqisi2
 895 001e 032B     		cmp	r3, #3
ARM GAS  C:\Users\milek\AppData\Local\Temp\ccm1c3Aw.s 			page 38


 896 0020 F3D1     		bne	.L67
 624:Middlewares/Third_Party/LwIP/src/core/dns.c ****         LWIP_DNS_ADDRTYPE_MATCH_IP(dns_addrtype, dns_table[i].ipaddr)) {
 897              		.loc 1 624 0 discriminator 1
 898 0022 1146     		mov	r1, r2
 899 0024 1031     		adds	r1, r1, #16
 900 0026 4FF48072 		mov	r2, #256
 901 002a 0A4B     		ldr	r3, .L73
 902 002c 1944     		add	r1, r1, r3
 903 002e 3046     		mov	r0, r6
 904 0030 FFF7FEFF 		bl	lwip_strnicmp
 905              	.LVL88:
 623:Middlewares/Third_Party/LwIP/src/core/dns.c ****         (lwip_strnicmp(name, dns_table[i].name, sizeof(dns_table[i].name)) == 0) &&
 906              		.loc 1 623 0 discriminator 1
 907 0034 0028     		cmp	r0, #0
 908 0036 E8D1     		bne	.L67
 629:Middlewares/Third_Party/LwIP/src/core/dns.c ****         ip_addr_copy(*addr, dns_table[i].ipaddr);
 909              		.loc 1 629 0
 910 0038 57B1     		cbz	r7, .L70
 630:Middlewares/Third_Party/LwIP/src/core/dns.c ****       }
 911              		.loc 1 630 0
 912 003a 04EB0415 		add	r5, r4, r4, lsl #4
 913 003e 2A01     		lsls	r2, r5, #4
 914 0040 044B     		ldr	r3, .L73
 915 0042 1344     		add	r3, r3, r2
 916 0044 5B68     		ldr	r3, [r3, #4]
 917 0046 3B60     		str	r3, [r7]
 918 0048 01E0     		b	.L68
 919              	.L72:
 636:Middlewares/Third_Party/LwIP/src/core/dns.c **** }
 920              		.loc 1 636 0
 921 004a 6FF00F00 		mvn	r0, #15
 922              	.L68:
 637:Middlewares/Third_Party/LwIP/src/core/dns.c **** 
 923              		.loc 1 637 0
 924 004e F8BD     		pop	{r3, r4, r5, r6, r7, pc}
 925              	.LVL89:
 926              	.L70:
 632:Middlewares/Third_Party/LwIP/src/core/dns.c ****     }
 927              		.loc 1 632 0
 928 0050 0020     		movs	r0, #0
 929 0052 FCE7     		b	.L68
 930              	.L74:
 931              		.align	2
 932              	.L73:
 933 0054 00000000 		.word	.LANCHOR0
 934              		.cfi_endproc
 935              	.LFE158:
 937              		.section	.text.dns_alloc_random_port,"ax",%progbits
 938              		.align	1
 939              		.syntax unified
 940              		.thumb
 941              		.thumb_func
 942              		.fpu fpv5-sp-d16
 944              	dns_alloc_random_port:
 945              	.LFB162:
 848:Middlewares/Third_Party/LwIP/src/core/dns.c ****   err_t err;
 946              		.loc 1 848 0
ARM GAS  C:\Users\milek\AppData\Local\Temp\ccm1c3Aw.s 			page 39


 947              		.cfi_startproc
 948              		@ args = 0, pretend = 0, frame = 0
 949              		@ frame_needed = 0, uses_anonymous_args = 0
 950 0000 10B5     		push	{r4, lr}
 951              	.LCFI10:
 952              		.cfi_def_cfa_offset 8
 953              		.cfi_offset 4, -8
 954              		.cfi_offset 14, -4
 852:Middlewares/Third_Party/LwIP/src/core/dns.c ****   if (ret == NULL) {
 955              		.loc 1 852 0
 956 0002 2E20     		movs	r0, #46
 957 0004 FFF7FEFF 		bl	udp_new_ip_type
 958              	.LVL90:
 853:Middlewares/Third_Party/LwIP/src/core/dns.c ****     /* out of memory, have to reuse an existing pcb */
 959              		.loc 1 853 0
 960 0008 0446     		mov	r4, r0
 961 000a 90B1     		cbz	r0, .L75
 962              	.LVL91:
 963              	.L77:
 964              	.LBB4:
 858:Middlewares/Third_Party/LwIP/src/core/dns.c ****     if (!DNS_PORT_ALLOWED(port)) {
 965              		.loc 1 858 0
 966 000c FFF7FEFF 		bl	rand
 967              	.LVL92:
 968 0010 82B2     		uxth	r2, r0
 969              	.LVL93:
 859:Middlewares/Third_Party/LwIP/src/core/dns.c ****       /* this port is not allowed, try again */
 970              		.loc 1 859 0
 971 0012 B2F5806F 		cmp	r2, #1024
 972 0016 F9D3     		bcc	.L77
 864:Middlewares/Third_Party/LwIP/src/core/dns.c ****   } while (err == ERR_USE);
 973              		.loc 1 864 0
 974 0018 0949     		ldr	r1, .L82
 975 001a 2046     		mov	r0, r4
 976 001c FFF7FEFF 		bl	udp_bind
 977              	.LVL94:
 978              	.LBE4:
 865:Middlewares/Third_Party/LwIP/src/core/dns.c ****   if (err != ERR_OK) {
 979              		.loc 1 865 0
 980 0020 10F1080F 		cmn	r0, #8
 981 0024 F2D0     		beq	.L77
 866:Middlewares/Third_Party/LwIP/src/core/dns.c ****     udp_remove(ret);
 982              		.loc 1 866 0
 983 0026 30B9     		cbnz	r0, .L81
 870:Middlewares/Third_Party/LwIP/src/core/dns.c ****   return ret;
 984              		.loc 1 870 0
 985 0028 0022     		movs	r2, #0
 986 002a 0649     		ldr	r1, .L82+4
 987 002c 2046     		mov	r0, r4
 988              	.LVL95:
 989 002e FFF7FEFF 		bl	udp_recv
 990              	.LVL96:
 991              	.L75:
 872:Middlewares/Third_Party/LwIP/src/core/dns.c **** 
 992              		.loc 1 872 0
 993 0032 2046     		mov	r0, r4
 994 0034 10BD     		pop	{r4, pc}
ARM GAS  C:\Users\milek\AppData\Local\Temp\ccm1c3Aw.s 			page 40


 995              	.LVL97:
 996              	.L81:
 867:Middlewares/Third_Party/LwIP/src/core/dns.c ****     return NULL;
 997              		.loc 1 867 0
 998 0036 2046     		mov	r0, r4
 999              	.LVL98:
 1000 0038 FFF7FEFF 		bl	udp_remove
 1001              	.LVL99:
 868:Middlewares/Third_Party/LwIP/src/core/dns.c ****   }
 1002              		.loc 1 868 0
 1003 003c 0024     		movs	r4, #0
 1004              	.LVL100:
 1005 003e F8E7     		b	.L75
 1006              	.L83:
 1007              		.align	2
 1008              	.L82:
 1009 0040 00000000 		.word	ip_addr_any
 1010 0044 00000000 		.word	dns_recv
 1011              		.cfi_endproc
 1012              	.LFE162:
 1014              		.section	.text.dns_alloc_pcb,"ax",%progbits
 1015              		.align	1
 1016              		.syntax unified
 1017              		.thumb
 1018              		.thumb_func
 1019              		.fpu fpv5-sp-d16
 1021              	dns_alloc_pcb:
 1022              	.LFB163:
 882:Middlewares/Third_Party/LwIP/src/core/dns.c ****   u8_t i;
 1023              		.loc 1 882 0
 1024              		.cfi_startproc
 1025              		@ args = 0, pretend = 0, frame = 0
 1026              		@ frame_needed = 0, uses_anonymous_args = 0
 1027 0000 10B5     		push	{r4, lr}
 1028              	.LCFI11:
 1029              		.cfi_def_cfa_offset 8
 1030              		.cfi_offset 4, -8
 1031              		.cfi_offset 14, -4
 1032              	.LVL101:
 886:Middlewares/Third_Party/LwIP/src/core/dns.c ****     if (dns_pcbs[i] == NULL) {
 1033              		.loc 1 886 0
 1034 0002 0024     		movs	r4, #0
 1035              	.LVL102:
 1036              	.L85:
 886:Middlewares/Third_Party/LwIP/src/core/dns.c ****     if (dns_pcbs[i] == NULL) {
 1037              		.loc 1 886 0 is_stmt 0 discriminator 1
 1038 0004 032C     		cmp	r4, #3
 1039 0006 06D8     		bhi	.L86
 887:Middlewares/Third_Party/LwIP/src/core/dns.c ****       break;
 1040              		.loc 1 887 0 is_stmt 1
 1041 0008 164B     		ldr	r3, .L99
 1042 000a 53F82430 		ldr	r3, [r3, r4, lsl #2]
 1043 000e 13B1     		cbz	r3, .L86
 886:Middlewares/Third_Party/LwIP/src/core/dns.c ****     if (dns_pcbs[i] == NULL) {
 1044              		.loc 1 886 0 discriminator 2
 1045 0010 0134     		adds	r4, r4, #1
 1046              	.LVL103:
ARM GAS  C:\Users\milek\AppData\Local\Temp\ccm1c3Aw.s 			page 41


 1047 0012 E4B2     		uxtb	r4, r4
 1048              	.LVL104:
 1049 0014 F6E7     		b	.L85
 1050              	.L86:
 891:Middlewares/Third_Party/LwIP/src/core/dns.c ****     dns_pcbs[i] = dns_alloc_random_port();
 1051              		.loc 1 891 0
 1052 0016 032C     		cmp	r4, #3
 1053 0018 05D9     		bls	.L96
 1054              	.L88:
 1055              	.LVL105:
 901:Middlewares/Third_Party/LwIP/src/core/dns.c ****     if (idx >= DNS_MAX_SOURCE_PORTS) {
 1056              		.loc 1 901 0
 1057 001a 134B     		ldr	r3, .L99+4
 1058 001c 1C78     		ldrb	r4, [r3]	@ zero_extendqisi2
 1059 001e 0134     		adds	r4, r4, #1
 1060 0020 E4B2     		uxtb	r4, r4
 1061              	.LVL106:
 1062 0022 0023     		movs	r3, #0
 1063 0024 11E0     		b	.L90
 1064              	.LVL107:
 1065              	.L96:
 892:Middlewares/Third_Party/LwIP/src/core/dns.c ****     if (dns_pcbs[i] != NULL) {
 1066              		.loc 1 892 0
 1067 0026 FFF7FEFF 		bl	dns_alloc_random_port
 1068              	.LVL108:
 1069 002a 0E4B     		ldr	r3, .L99
 1070 002c 43F82400 		str	r0, [r3, r4, lsl #2]
 893:Middlewares/Third_Party/LwIP/src/core/dns.c ****       /* succeeded */
 1071              		.loc 1 893 0
 1072 0030 0028     		cmp	r0, #0
 1073 0032 F2D0     		beq	.L88
 895:Middlewares/Third_Party/LwIP/src/core/dns.c ****       return i;
 1074              		.loc 1 895 0
 1075 0034 0C4B     		ldr	r3, .L99+4
 1076 0036 1C70     		strb	r4, [r3]
 896:Middlewares/Third_Party/LwIP/src/core/dns.c ****     }
 1077              		.loc 1 896 0
 1078 0038 11E0     		b	.L89
 1079              	.LVL109:
 1080              	.L91:
 905:Middlewares/Third_Party/LwIP/src/core/dns.c ****       dns_last_pcb_idx = idx;
 1081              		.loc 1 905 0
 1082 003a 0A4A     		ldr	r2, .L99
 1083 003c 52F82420 		ldr	r2, [r2, r4, lsl #2]
 1084 0040 4AB9     		cbnz	r2, .L97
 901:Middlewares/Third_Party/LwIP/src/core/dns.c ****     if (idx >= DNS_MAX_SOURCE_PORTS) {
 1085              		.loc 1 901 0 discriminator 2
 1086 0042 0133     		adds	r3, r3, #1
 1087              	.LVL110:
 1088 0044 DBB2     		uxtb	r3, r3
 1089              	.LVL111:
 1090 0046 0134     		adds	r4, r4, #1
 1091              	.LVL112:
 1092 0048 E4B2     		uxtb	r4, r4
 1093              	.LVL113:
 1094              	.L90:
 901:Middlewares/Third_Party/LwIP/src/core/dns.c ****     if (idx >= DNS_MAX_SOURCE_PORTS) {
ARM GAS  C:\Users\milek\AppData\Local\Temp\ccm1c3Aw.s 			page 42


 1095              		.loc 1 901 0 is_stmt 0 discriminator 1
 1096 004a 032B     		cmp	r3, #3
 1097 004c 06D8     		bhi	.L98
 902:Middlewares/Third_Party/LwIP/src/core/dns.c ****       idx = 0;
 1098              		.loc 1 902 0 is_stmt 1
 1099 004e 032C     		cmp	r4, #3
 1100 0050 F3D9     		bls	.L91
 903:Middlewares/Third_Party/LwIP/src/core/dns.c ****     }
 1101              		.loc 1 903 0
 1102 0052 0024     		movs	r4, #0
 1103              	.LVL114:
 1104 0054 F1E7     		b	.L91
 1105              	.LVL115:
 1106              	.L97:
 906:Middlewares/Third_Party/LwIP/src/core/dns.c ****       return idx;
 1107              		.loc 1 906 0
 1108 0056 044B     		ldr	r3, .L99+4
 1109              	.LVL116:
 1110 0058 1C70     		strb	r4, [r3]
 907:Middlewares/Third_Party/LwIP/src/core/dns.c ****     }
 1111              		.loc 1 907 0
 1112 005a 00E0     		b	.L89
 1113              	.LVL117:
 1114              	.L98:
 910:Middlewares/Third_Party/LwIP/src/core/dns.c **** }
 1115              		.loc 1 910 0
 1116 005c 0424     		movs	r4, #4
 1117              	.LVL118:
 1118              	.L89:
 911:Middlewares/Third_Party/LwIP/src/core/dns.c **** #endif /* ((LWIP_DNS_SECURE & LWIP_DNS_SECURE_RAND_SRC_PORT) != 0) */
 1119              		.loc 1 911 0
 1120 005e 2046     		mov	r0, r4
 1121 0060 10BD     		pop	{r4, pc}
 1122              	.L100:
 1123 0062 00BF     		.align	2
 1124              	.L99:
 1125 0064 00000000 		.word	.LANCHOR2
 1126 0068 00000000 		.word	.LANCHOR4
 1127              		.cfi_endproc
 1128              	.LFE163:
 1130              		.section	.text.dns_enqueue,"ax",%progbits
 1131              		.align	1
 1132              		.syntax unified
 1133              		.thumb
 1134              		.thumb_func
 1135              		.fpu fpv5-sp-d16
 1137              	dns_enqueue:
 1138              	.LFB170:
1129:Middlewares/Third_Party/LwIP/src/core/dns.c **** /**
1130:Middlewares/Third_Party/LwIP/src/core/dns.c ****  * Receive input function for DNS response packets arriving for the dns UDP pcb.
1131:Middlewares/Third_Party/LwIP/src/core/dns.c ****  */
1132:Middlewares/Third_Party/LwIP/src/core/dns.c **** static void
1133:Middlewares/Third_Party/LwIP/src/core/dns.c **** dns_recv(void *arg, struct udp_pcb *pcb, struct pbuf *p, const ip_addr_t *addr, u16_t port)
1134:Middlewares/Third_Party/LwIP/src/core/dns.c **** {
1135:Middlewares/Third_Party/LwIP/src/core/dns.c ****   u8_t i;
1136:Middlewares/Third_Party/LwIP/src/core/dns.c ****   u16_t txid;
1137:Middlewares/Third_Party/LwIP/src/core/dns.c ****   u16_t res_idx;
ARM GAS  C:\Users\milek\AppData\Local\Temp\ccm1c3Aw.s 			page 43


1138:Middlewares/Third_Party/LwIP/src/core/dns.c ****   struct dns_hdr hdr;
1139:Middlewares/Third_Party/LwIP/src/core/dns.c ****   struct dns_answer ans;
1140:Middlewares/Third_Party/LwIP/src/core/dns.c ****   struct dns_query qry;
1141:Middlewares/Third_Party/LwIP/src/core/dns.c ****   u16_t nquestions, nanswers;
1142:Middlewares/Third_Party/LwIP/src/core/dns.c **** 
1143:Middlewares/Third_Party/LwIP/src/core/dns.c ****   LWIP_UNUSED_ARG(arg);
1144:Middlewares/Third_Party/LwIP/src/core/dns.c ****   LWIP_UNUSED_ARG(pcb);
1145:Middlewares/Third_Party/LwIP/src/core/dns.c ****   LWIP_UNUSED_ARG(port);
1146:Middlewares/Third_Party/LwIP/src/core/dns.c **** 
1147:Middlewares/Third_Party/LwIP/src/core/dns.c ****   /* is the dns message big enough ? */
1148:Middlewares/Third_Party/LwIP/src/core/dns.c ****   if (p->tot_len < (SIZEOF_DNS_HDR + SIZEOF_DNS_QUERY)) {
1149:Middlewares/Third_Party/LwIP/src/core/dns.c ****     LWIP_DEBUGF(DNS_DEBUG, ("dns_recv: pbuf too small\n"));
1150:Middlewares/Third_Party/LwIP/src/core/dns.c ****     /* free pbuf and return */
1151:Middlewares/Third_Party/LwIP/src/core/dns.c ****     goto memerr;
1152:Middlewares/Third_Party/LwIP/src/core/dns.c ****   }
1153:Middlewares/Third_Party/LwIP/src/core/dns.c **** 
1154:Middlewares/Third_Party/LwIP/src/core/dns.c ****   /* copy dns payload inside static buffer for processing */
1155:Middlewares/Third_Party/LwIP/src/core/dns.c ****   if (pbuf_copy_partial(p, &hdr, SIZEOF_DNS_HDR, 0) == SIZEOF_DNS_HDR) {
1156:Middlewares/Third_Party/LwIP/src/core/dns.c ****     /* Match the ID in the DNS header with the name table. */
1157:Middlewares/Third_Party/LwIP/src/core/dns.c ****     txid = lwip_htons(hdr.id);
1158:Middlewares/Third_Party/LwIP/src/core/dns.c ****     for (i = 0; i < DNS_TABLE_SIZE; i++) {
1159:Middlewares/Third_Party/LwIP/src/core/dns.c ****       const struct dns_table_entry *entry = &dns_table[i];
1160:Middlewares/Third_Party/LwIP/src/core/dns.c ****       if ((entry->state == DNS_STATE_ASKING) &&
1161:Middlewares/Third_Party/LwIP/src/core/dns.c ****           (entry->txid == txid)) {
1162:Middlewares/Third_Party/LwIP/src/core/dns.c **** 
1163:Middlewares/Third_Party/LwIP/src/core/dns.c ****         /* We only care about the question(s) and the answers. The authrr
1164:Middlewares/Third_Party/LwIP/src/core/dns.c ****            and the extrarr are simply discarded. */
1165:Middlewares/Third_Party/LwIP/src/core/dns.c ****         nquestions = lwip_htons(hdr.numquestions);
1166:Middlewares/Third_Party/LwIP/src/core/dns.c ****         nanswers   = lwip_htons(hdr.numanswers);
1167:Middlewares/Third_Party/LwIP/src/core/dns.c **** 
1168:Middlewares/Third_Party/LwIP/src/core/dns.c ****         /* Check for correct response. */
1169:Middlewares/Third_Party/LwIP/src/core/dns.c ****         if ((hdr.flags1 & DNS_FLAG1_RESPONSE) == 0) {
1170:Middlewares/Third_Party/LwIP/src/core/dns.c ****           LWIP_DEBUGF(DNS_DEBUG, ("dns_recv: \"%s\": not a response\n", entry->name));
1171:Middlewares/Third_Party/LwIP/src/core/dns.c ****           goto memerr; /* ignore this packet */
1172:Middlewares/Third_Party/LwIP/src/core/dns.c ****         }
1173:Middlewares/Third_Party/LwIP/src/core/dns.c ****         if (nquestions != 1) {
1174:Middlewares/Third_Party/LwIP/src/core/dns.c ****           LWIP_DEBUGF(DNS_DEBUG, ("dns_recv: \"%s\": response not match to query\n", entry->name));
1175:Middlewares/Third_Party/LwIP/src/core/dns.c ****           goto memerr; /* ignore this packet */
1176:Middlewares/Third_Party/LwIP/src/core/dns.c ****         }
1177:Middlewares/Third_Party/LwIP/src/core/dns.c **** 
1178:Middlewares/Third_Party/LwIP/src/core/dns.c **** #if LWIP_DNS_SUPPORT_MDNS_QUERIES
1179:Middlewares/Third_Party/LwIP/src/core/dns.c ****         if (!entry->is_mdns)
1180:Middlewares/Third_Party/LwIP/src/core/dns.c **** #endif /* LWIP_DNS_SUPPORT_MDNS_QUERIES */
1181:Middlewares/Third_Party/LwIP/src/core/dns.c ****         {
1182:Middlewares/Third_Party/LwIP/src/core/dns.c ****           /* Check whether response comes from the same network address to which the
1183:Middlewares/Third_Party/LwIP/src/core/dns.c ****              question was sent. (RFC 5452) */
1184:Middlewares/Third_Party/LwIP/src/core/dns.c ****           if (!ip_addr_cmp(addr, &dns_servers[entry->server_idx])) {
1185:Middlewares/Third_Party/LwIP/src/core/dns.c ****             goto memerr; /* ignore this packet */
1186:Middlewares/Third_Party/LwIP/src/core/dns.c ****           }
1187:Middlewares/Third_Party/LwIP/src/core/dns.c ****         }
1188:Middlewares/Third_Party/LwIP/src/core/dns.c **** 
1189:Middlewares/Third_Party/LwIP/src/core/dns.c ****         /* Check if the name in the "question" part match with the name in the entry and
1190:Middlewares/Third_Party/LwIP/src/core/dns.c ****            skip it if equal. */
1191:Middlewares/Third_Party/LwIP/src/core/dns.c ****         res_idx = dns_compare_name(entry->name, p, SIZEOF_DNS_HDR);
1192:Middlewares/Third_Party/LwIP/src/core/dns.c ****         if (res_idx == 0xFFFF) {
1193:Middlewares/Third_Party/LwIP/src/core/dns.c ****           LWIP_DEBUGF(DNS_DEBUG, ("dns_recv: \"%s\": response not match to query\n", entry->name));
1194:Middlewares/Third_Party/LwIP/src/core/dns.c ****           goto memerr; /* ignore this packet */
ARM GAS  C:\Users\milek\AppData\Local\Temp\ccm1c3Aw.s 			page 44


1195:Middlewares/Third_Party/LwIP/src/core/dns.c ****         }
1196:Middlewares/Third_Party/LwIP/src/core/dns.c **** 
1197:Middlewares/Third_Party/LwIP/src/core/dns.c ****         /* check if "question" part matches the request */
1198:Middlewares/Third_Party/LwIP/src/core/dns.c ****         if (pbuf_copy_partial(p, &qry, SIZEOF_DNS_QUERY, res_idx) != SIZEOF_DNS_QUERY) {
1199:Middlewares/Third_Party/LwIP/src/core/dns.c ****           goto memerr; /* ignore this packet */
1200:Middlewares/Third_Party/LwIP/src/core/dns.c ****         }
1201:Middlewares/Third_Party/LwIP/src/core/dns.c ****         if ((qry.cls != PP_HTONS(DNS_RRCLASS_IN)) ||
1202:Middlewares/Third_Party/LwIP/src/core/dns.c ****           (LWIP_DNS_ADDRTYPE_IS_IPV6(entry->reqaddrtype) && (qry.type != PP_HTONS(DNS_RRTYPE_AAAA))
1203:Middlewares/Third_Party/LwIP/src/core/dns.c ****           (!LWIP_DNS_ADDRTYPE_IS_IPV6(entry->reqaddrtype) && (qry.type != PP_HTONS(DNS_RRTYPE_A))))
1204:Middlewares/Third_Party/LwIP/src/core/dns.c ****           LWIP_DEBUGF(DNS_DEBUG, ("dns_recv: \"%s\": response not match to query\n", entry->name));
1205:Middlewares/Third_Party/LwIP/src/core/dns.c ****           goto memerr; /* ignore this packet */
1206:Middlewares/Third_Party/LwIP/src/core/dns.c ****         }
1207:Middlewares/Third_Party/LwIP/src/core/dns.c ****         /* skip the rest of the "question" part */
1208:Middlewares/Third_Party/LwIP/src/core/dns.c ****         res_idx += SIZEOF_DNS_QUERY;
1209:Middlewares/Third_Party/LwIP/src/core/dns.c **** 
1210:Middlewares/Third_Party/LwIP/src/core/dns.c ****         /* Check for error. If so, call callback to inform. */
1211:Middlewares/Third_Party/LwIP/src/core/dns.c ****         if (hdr.flags2 & DNS_FLAG2_ERR_MASK) {
1212:Middlewares/Third_Party/LwIP/src/core/dns.c ****           LWIP_DEBUGF(DNS_DEBUG, ("dns_recv: \"%s\": error in flags\n", entry->name));
1213:Middlewares/Third_Party/LwIP/src/core/dns.c ****         } else {
1214:Middlewares/Third_Party/LwIP/src/core/dns.c ****           while ((nanswers > 0) && (res_idx < p->tot_len)) {
1215:Middlewares/Third_Party/LwIP/src/core/dns.c ****             /* skip answer resource record's host name */
1216:Middlewares/Third_Party/LwIP/src/core/dns.c ****             res_idx = dns_skip_name(p, res_idx);
1217:Middlewares/Third_Party/LwIP/src/core/dns.c ****             if (res_idx == 0xFFFF) {
1218:Middlewares/Third_Party/LwIP/src/core/dns.c ****               goto memerr; /* ignore this packet */
1219:Middlewares/Third_Party/LwIP/src/core/dns.c ****             }
1220:Middlewares/Third_Party/LwIP/src/core/dns.c **** 
1221:Middlewares/Third_Party/LwIP/src/core/dns.c ****             /* Check for IP address type and Internet class. Others are discarded. */
1222:Middlewares/Third_Party/LwIP/src/core/dns.c ****             if (pbuf_copy_partial(p, &ans, SIZEOF_DNS_ANSWER, res_idx) != SIZEOF_DNS_ANSWER) {
1223:Middlewares/Third_Party/LwIP/src/core/dns.c ****               goto memerr; /* ignore this packet */
1224:Middlewares/Third_Party/LwIP/src/core/dns.c ****             }
1225:Middlewares/Third_Party/LwIP/src/core/dns.c ****             res_idx += SIZEOF_DNS_ANSWER;
1226:Middlewares/Third_Party/LwIP/src/core/dns.c **** 
1227:Middlewares/Third_Party/LwIP/src/core/dns.c ****             if (ans.cls == PP_HTONS(DNS_RRCLASS_IN)) {
1228:Middlewares/Third_Party/LwIP/src/core/dns.c **** #if LWIP_IPV4
1229:Middlewares/Third_Party/LwIP/src/core/dns.c ****               if ((ans.type == PP_HTONS(DNS_RRTYPE_A)) && (ans.len == PP_HTONS(sizeof(ip4_addr_t)))
1230:Middlewares/Third_Party/LwIP/src/core/dns.c **** #if LWIP_IPV4 && LWIP_IPV6
1231:Middlewares/Third_Party/LwIP/src/core/dns.c ****                 if (!LWIP_DNS_ADDRTYPE_IS_IPV6(entry->reqaddrtype))
1232:Middlewares/Third_Party/LwIP/src/core/dns.c **** #endif /* LWIP_IPV4 && LWIP_IPV6 */
1233:Middlewares/Third_Party/LwIP/src/core/dns.c ****                 {
1234:Middlewares/Third_Party/LwIP/src/core/dns.c ****                   ip4_addr_t ip4addr;
1235:Middlewares/Third_Party/LwIP/src/core/dns.c ****                   /* read the IP address after answer resource record's header */
1236:Middlewares/Third_Party/LwIP/src/core/dns.c ****                   if (pbuf_copy_partial(p, &ip4addr, sizeof(ip4_addr_t), res_idx) != sizeof(ip4_add
1237:Middlewares/Third_Party/LwIP/src/core/dns.c ****                     goto memerr; /* ignore this packet */
1238:Middlewares/Third_Party/LwIP/src/core/dns.c ****                   }
1239:Middlewares/Third_Party/LwIP/src/core/dns.c ****                   ip_addr_copy_from_ip4(dns_table[i].ipaddr, ip4addr);
1240:Middlewares/Third_Party/LwIP/src/core/dns.c ****                   pbuf_free(p);
1241:Middlewares/Third_Party/LwIP/src/core/dns.c ****                   /* handle correct response */
1242:Middlewares/Third_Party/LwIP/src/core/dns.c ****                   dns_correct_response(i, lwip_ntohl(ans.ttl));
1243:Middlewares/Third_Party/LwIP/src/core/dns.c ****                   return;
1244:Middlewares/Third_Party/LwIP/src/core/dns.c ****                 }
1245:Middlewares/Third_Party/LwIP/src/core/dns.c ****               }
1246:Middlewares/Third_Party/LwIP/src/core/dns.c **** #endif /* LWIP_IPV4 */
1247:Middlewares/Third_Party/LwIP/src/core/dns.c **** #if LWIP_IPV6
1248:Middlewares/Third_Party/LwIP/src/core/dns.c ****               if ((ans.type == PP_HTONS(DNS_RRTYPE_AAAA)) && (ans.len == PP_HTONS(sizeof(ip6_addr_t
1249:Middlewares/Third_Party/LwIP/src/core/dns.c **** #if LWIP_IPV4 && LWIP_IPV6
1250:Middlewares/Third_Party/LwIP/src/core/dns.c ****                 if (LWIP_DNS_ADDRTYPE_IS_IPV6(entry->reqaddrtype))
1251:Middlewares/Third_Party/LwIP/src/core/dns.c **** #endif /* LWIP_IPV4 && LWIP_IPV6 */
ARM GAS  C:\Users\milek\AppData\Local\Temp\ccm1c3Aw.s 			page 45


1252:Middlewares/Third_Party/LwIP/src/core/dns.c ****                 {
1253:Middlewares/Third_Party/LwIP/src/core/dns.c ****                   ip6_addr_t ip6addr;
1254:Middlewares/Third_Party/LwIP/src/core/dns.c ****                   /* read the IP address after answer resource record's header */
1255:Middlewares/Third_Party/LwIP/src/core/dns.c ****                   if (pbuf_copy_partial(p, &ip6addr, sizeof(ip6_addr_t), res_idx) != sizeof(ip6_add
1256:Middlewares/Third_Party/LwIP/src/core/dns.c ****                     goto memerr; /* ignore this packet */
1257:Middlewares/Third_Party/LwIP/src/core/dns.c ****                   }
1258:Middlewares/Third_Party/LwIP/src/core/dns.c ****                   ip_addr_copy_from_ip6(dns_table[i].ipaddr, ip6addr);
1259:Middlewares/Third_Party/LwIP/src/core/dns.c ****                   pbuf_free(p);
1260:Middlewares/Third_Party/LwIP/src/core/dns.c ****                   /* handle correct response */
1261:Middlewares/Third_Party/LwIP/src/core/dns.c ****                   dns_correct_response(i, lwip_ntohl(ans.ttl));
1262:Middlewares/Third_Party/LwIP/src/core/dns.c ****                   return;
1263:Middlewares/Third_Party/LwIP/src/core/dns.c ****                 }
1264:Middlewares/Third_Party/LwIP/src/core/dns.c ****               }
1265:Middlewares/Third_Party/LwIP/src/core/dns.c **** #endif /* LWIP_IPV6 */
1266:Middlewares/Third_Party/LwIP/src/core/dns.c ****             }
1267:Middlewares/Third_Party/LwIP/src/core/dns.c ****             /* skip this answer */
1268:Middlewares/Third_Party/LwIP/src/core/dns.c ****             if ((int)(res_idx + lwip_htons(ans.len)) > 0xFFFF) {
1269:Middlewares/Third_Party/LwIP/src/core/dns.c ****               goto memerr; /* ignore this packet */
1270:Middlewares/Third_Party/LwIP/src/core/dns.c ****             }
1271:Middlewares/Third_Party/LwIP/src/core/dns.c ****             res_idx += lwip_htons(ans.len);
1272:Middlewares/Third_Party/LwIP/src/core/dns.c ****             --nanswers;
1273:Middlewares/Third_Party/LwIP/src/core/dns.c ****           }
1274:Middlewares/Third_Party/LwIP/src/core/dns.c **** #if LWIP_IPV4 && LWIP_IPV6
1275:Middlewares/Third_Party/LwIP/src/core/dns.c ****           if ((entry->reqaddrtype == LWIP_DNS_ADDRTYPE_IPV4_IPV6) ||
1276:Middlewares/Third_Party/LwIP/src/core/dns.c ****               (entry->reqaddrtype == LWIP_DNS_ADDRTYPE_IPV6_IPV4)) {
1277:Middlewares/Third_Party/LwIP/src/core/dns.c ****             if (entry->reqaddrtype == LWIP_DNS_ADDRTYPE_IPV4_IPV6) {
1278:Middlewares/Third_Party/LwIP/src/core/dns.c ****               /* IPv4 failed, try IPv6 */
1279:Middlewares/Third_Party/LwIP/src/core/dns.c ****               dns_table[i].reqaddrtype = LWIP_DNS_ADDRTYPE_IPV6;
1280:Middlewares/Third_Party/LwIP/src/core/dns.c ****             } else {
1281:Middlewares/Third_Party/LwIP/src/core/dns.c ****               /* IPv6 failed, try IPv4 */
1282:Middlewares/Third_Party/LwIP/src/core/dns.c ****               dns_table[i].reqaddrtype = LWIP_DNS_ADDRTYPE_IPV4;
1283:Middlewares/Third_Party/LwIP/src/core/dns.c ****             }
1284:Middlewares/Third_Party/LwIP/src/core/dns.c ****             pbuf_free(p);
1285:Middlewares/Third_Party/LwIP/src/core/dns.c ****             dns_table[i].state = DNS_STATE_NEW;
1286:Middlewares/Third_Party/LwIP/src/core/dns.c ****             dns_check_entry(i);
1287:Middlewares/Third_Party/LwIP/src/core/dns.c ****             return;
1288:Middlewares/Third_Party/LwIP/src/core/dns.c ****           }
1289:Middlewares/Third_Party/LwIP/src/core/dns.c **** #endif /* LWIP_IPV4 && LWIP_IPV6 */
1290:Middlewares/Third_Party/LwIP/src/core/dns.c ****           LWIP_DEBUGF(DNS_DEBUG, ("dns_recv: \"%s\": error in response\n", entry->name));
1291:Middlewares/Third_Party/LwIP/src/core/dns.c ****         }
1292:Middlewares/Third_Party/LwIP/src/core/dns.c ****         /* call callback to indicate error, clean up memory and return */
1293:Middlewares/Third_Party/LwIP/src/core/dns.c ****         pbuf_free(p);
1294:Middlewares/Third_Party/LwIP/src/core/dns.c ****         dns_call_found(i, NULL);
1295:Middlewares/Third_Party/LwIP/src/core/dns.c ****         dns_table[i].state = DNS_STATE_UNUSED;
1296:Middlewares/Third_Party/LwIP/src/core/dns.c ****         return;
1297:Middlewares/Third_Party/LwIP/src/core/dns.c ****       }
1298:Middlewares/Third_Party/LwIP/src/core/dns.c ****     }
1299:Middlewares/Third_Party/LwIP/src/core/dns.c ****   }
1300:Middlewares/Third_Party/LwIP/src/core/dns.c **** 
1301:Middlewares/Third_Party/LwIP/src/core/dns.c **** memerr:
1302:Middlewares/Third_Party/LwIP/src/core/dns.c ****   /* deallocate memory and return */
1303:Middlewares/Third_Party/LwIP/src/core/dns.c ****   pbuf_free(p);
1304:Middlewares/Third_Party/LwIP/src/core/dns.c ****   return;
1305:Middlewares/Third_Party/LwIP/src/core/dns.c **** }
1306:Middlewares/Third_Party/LwIP/src/core/dns.c **** 
1307:Middlewares/Third_Party/LwIP/src/core/dns.c **** /**
1308:Middlewares/Third_Party/LwIP/src/core/dns.c ****  * Queues a new hostname to resolve and sends out a DNS query for that hostname
ARM GAS  C:\Users\milek\AppData\Local\Temp\ccm1c3Aw.s 			page 46


1309:Middlewares/Third_Party/LwIP/src/core/dns.c ****  *
1310:Middlewares/Third_Party/LwIP/src/core/dns.c ****  * @param name the hostname that is to be queried
1311:Middlewares/Third_Party/LwIP/src/core/dns.c ****  * @param hostnamelen length of the hostname
1312:Middlewares/Third_Party/LwIP/src/core/dns.c ****  * @param found a callback function to be called on success, failure or timeout
1313:Middlewares/Third_Party/LwIP/src/core/dns.c ****  * @param callback_arg argument to pass to the callback function
1314:Middlewares/Third_Party/LwIP/src/core/dns.c ****  * @return err_t return code.
1315:Middlewares/Third_Party/LwIP/src/core/dns.c ****  */
1316:Middlewares/Third_Party/LwIP/src/core/dns.c **** static err_t
1317:Middlewares/Third_Party/LwIP/src/core/dns.c **** dns_enqueue(const char *name, size_t hostnamelen, dns_found_callback found,
1318:Middlewares/Third_Party/LwIP/src/core/dns.c ****             void *callback_arg LWIP_DNS_ADDRTYPE_ARG(u8_t dns_addrtype) LWIP_DNS_ISMDNS_ARG(u8_t is
1319:Middlewares/Third_Party/LwIP/src/core/dns.c **** {
 1139              		.loc 1 1319 0
 1140              		.cfi_startproc
 1141              		@ args = 0, pretend = 0, frame = 0
 1142              		@ frame_needed = 0, uses_anonymous_args = 0
 1143              	.LVL119:
 1144 0000 2DE9F047 		push	{r4, r5, r6, r7, r8, r9, r10, lr}
 1145              	.LCFI12:
 1146              		.cfi_def_cfa_offset 32
 1147              		.cfi_offset 4, -32
 1148              		.cfi_offset 5, -28
 1149              		.cfi_offset 6, -24
 1150              		.cfi_offset 7, -20
 1151              		.cfi_offset 8, -16
 1152              		.cfi_offset 9, -12
 1153              		.cfi_offset 10, -8
 1154              		.cfi_offset 14, -4
 1155 0004 0646     		mov	r6, r0
 1156 0006 0D46     		mov	r5, r1
 1157 0008 9046     		mov	r8, r2
 1158 000a 1F46     		mov	r7, r3
 1159              	.LVL120:
1320:Middlewares/Third_Party/LwIP/src/core/dns.c ****   u8_t i;
1321:Middlewares/Third_Party/LwIP/src/core/dns.c ****   u8_t lseq, lseqi;
1322:Middlewares/Third_Party/LwIP/src/core/dns.c ****   struct dns_table_entry *entry = NULL;
1323:Middlewares/Third_Party/LwIP/src/core/dns.c ****   size_t namelen;
1324:Middlewares/Third_Party/LwIP/src/core/dns.c ****   struct dns_req_entry* req;
1325:Middlewares/Third_Party/LwIP/src/core/dns.c **** 
1326:Middlewares/Third_Party/LwIP/src/core/dns.c **** #if ((LWIP_DNS_SECURE & LWIP_DNS_SECURE_NO_MULTIPLE_OUTSTANDING) != 0)
1327:Middlewares/Third_Party/LwIP/src/core/dns.c ****   u8_t r;
1328:Middlewares/Third_Party/LwIP/src/core/dns.c ****   /* check for duplicate entries */
1329:Middlewares/Third_Party/LwIP/src/core/dns.c ****   for (i = 0; i < DNS_TABLE_SIZE; i++) {
 1160              		.loc 1 1329 0
 1161 000c 0024     		movs	r4, #0
 1162 000e 0DE0     		b	.L102
 1163              	.LVL121:
 1164              	.L126:
1330:Middlewares/Third_Party/LwIP/src/core/dns.c ****     if ((dns_table[i].state == DNS_STATE_ASKING) &&
1331:Middlewares/Third_Party/LwIP/src/core/dns.c ****         (lwip_strnicmp(name, dns_table[i].name, sizeof(dns_table[i].name)) == 0)) {
1332:Middlewares/Third_Party/LwIP/src/core/dns.c **** #if LWIP_IPV4 && LWIP_IPV6
1333:Middlewares/Third_Party/LwIP/src/core/dns.c ****       if (dns_table[i].reqaddrtype != dns_addrtype) {
1334:Middlewares/Third_Party/LwIP/src/core/dns.c ****         /* requested address types don't match
1335:Middlewares/Third_Party/LwIP/src/core/dns.c ****            this can lead to 2 concurrent requests, but mixing the address types
1336:Middlewares/Third_Party/LwIP/src/core/dns.c ****            for the same host should not be that common */
1337:Middlewares/Third_Party/LwIP/src/core/dns.c ****         continue;
1338:Middlewares/Third_Party/LwIP/src/core/dns.c ****       }
1339:Middlewares/Third_Party/LwIP/src/core/dns.c **** #endif /* LWIP_IPV4 && LWIP_IPV6 */
ARM GAS  C:\Users\milek\AppData\Local\Temp\ccm1c3Aw.s 			page 47


1340:Middlewares/Third_Party/LwIP/src/core/dns.c ****       /* this is a duplicate entry, find a free request entry */
1341:Middlewares/Third_Party/LwIP/src/core/dns.c ****       for (r = 0; r < DNS_MAX_REQUESTS; r++) {
1342:Middlewares/Third_Party/LwIP/src/core/dns.c ****         if (dns_requests[r].found == 0) {
1343:Middlewares/Third_Party/LwIP/src/core/dns.c ****           dns_requests[r].found = found;
 1165              		.loc 1 1343 0
 1166 0010 0B46     		mov	r3, r1
 1167              	.LVL122:
 1168 0012 4200     		lsls	r2, r0, #1
 1169 0014 1518     		adds	r5, r2, r0
 1170              	.LVL123:
 1171 0016 A900     		lsls	r1, r5, #2
 1172 0018 5D18     		adds	r5, r3, r1
 1173 001a 43F80180 		str	r8, [r3, r1]
1344:Middlewares/Third_Party/LwIP/src/core/dns.c ****           dns_requests[r].arg = callback_arg;
 1174              		.loc 1 1344 0
 1175 001e 6F60     		str	r7, [r5, #4]
1345:Middlewares/Third_Party/LwIP/src/core/dns.c ****           dns_requests[r].dns_table_idx = i;
 1176              		.loc 1 1345 0
 1177 0020 2C72     		strb	r4, [r5, #8]
1346:Middlewares/Third_Party/LwIP/src/core/dns.c ****           LWIP_DNS_SET_ADDRTYPE(dns_requests[r].reqaddrtype, dns_addrtype);
1347:Middlewares/Third_Party/LwIP/src/core/dns.c ****           LWIP_DEBUGF(DNS_DEBUG, ("dns_enqueue: \"%s\": duplicate request\n", name));
1348:Middlewares/Third_Party/LwIP/src/core/dns.c ****           return ERR_INPROGRESS;
 1178              		.loc 1 1348 0
 1179 0022 6FF00400 		mvn	r0, #4
 1180 0026 ACE0     		b	.L106
 1181              	.LVL124:
 1182              	.L103:
1329:Middlewares/Third_Party/LwIP/src/core/dns.c ****     if ((dns_table[i].state == DNS_STATE_ASKING) &&
 1183              		.loc 1 1329 0 discriminator 2
 1184 0028 0134     		adds	r4, r4, #1
 1185              	.LVL125:
 1186 002a E4B2     		uxtb	r4, r4
 1187              	.LVL126:
 1188              	.L102:
1329:Middlewares/Third_Party/LwIP/src/core/dns.c ****     if ((dns_table[i].state == DNS_STATE_ASKING) &&
 1189              		.loc 1 1329 0 is_stmt 0 discriminator 1
 1190 002c 032C     		cmp	r4, #3
 1191 002e 20D8     		bhi	.L125
1330:Middlewares/Third_Party/LwIP/src/core/dns.c ****         (lwip_strnicmp(name, dns_table[i].name, sizeof(dns_table[i].name)) == 0)) {
 1192              		.loc 1 1330 0 is_stmt 1
 1193 0030 04EB0413 		add	r3, r4, r4, lsl #4
 1194 0034 1A01     		lsls	r2, r3, #4
 1195 0036 544B     		ldr	r3, .L130
 1196 0038 1344     		add	r3, r3, r2
 1197 003a 9B7A     		ldrb	r3, [r3, #10]	@ zero_extendqisi2
 1198 003c 022B     		cmp	r3, #2
 1199 003e F3D1     		bne	.L103
1331:Middlewares/Third_Party/LwIP/src/core/dns.c **** #if LWIP_IPV4 && LWIP_IPV6
 1200              		.loc 1 1331 0 discriminator 1
 1201 0040 1146     		mov	r1, r2
 1202 0042 1031     		adds	r1, r1, #16
 1203 0044 4FF48072 		mov	r2, #256
 1204 0048 4F4B     		ldr	r3, .L130
 1205 004a 1944     		add	r1, r1, r3
 1206 004c 3046     		mov	r0, r6
 1207 004e FFF7FEFF 		bl	lwip_strnicmp
 1208              	.LVL127:
ARM GAS  C:\Users\milek\AppData\Local\Temp\ccm1c3Aw.s 			page 48


1330:Middlewares/Third_Party/LwIP/src/core/dns.c ****         (lwip_strnicmp(name, dns_table[i].name, sizeof(dns_table[i].name)) == 0)) {
 1209              		.loc 1 1330 0 discriminator 1
 1210 0052 0028     		cmp	r0, #0
 1211 0054 E8D1     		bne	.L103
1341:Middlewares/Third_Party/LwIP/src/core/dns.c ****         if (dns_requests[r].found == 0) {
 1212              		.loc 1 1341 0
 1213 0056 0023     		movs	r3, #0
 1214              	.L104:
 1215              	.LVL128:
1341:Middlewares/Third_Party/LwIP/src/core/dns.c ****         if (dns_requests[r].found == 0) {
 1216              		.loc 1 1341 0 is_stmt 0 discriminator 1
 1217 0058 032B     		cmp	r3, #3
 1218 005a E5D8     		bhi	.L103
1342:Middlewares/Third_Party/LwIP/src/core/dns.c ****           dns_requests[r].found = found;
 1219              		.loc 1 1342 0 is_stmt 1
 1220 005c 1846     		mov	r0, r3
 1221 005e 03EB4301 		add	r1, r3, r3, lsl #1
 1222 0062 8A00     		lsls	r2, r1, #2
 1223 0064 4949     		ldr	r1, .L130+4
 1224 0066 8A58     		ldr	r2, [r1, r2]
 1225 0068 002A     		cmp	r2, #0
 1226 006a D1D0     		beq	.L126
1341:Middlewares/Third_Party/LwIP/src/core/dns.c ****         if (dns_requests[r].found == 0) {
 1227              		.loc 1 1341 0 discriminator 2
 1228 006c 0133     		adds	r3, r3, #1
 1229              	.LVL129:
 1230 006e DBB2     		uxtb	r3, r3
 1231              	.LVL130:
 1232 0070 F2E7     		b	.L104
 1233              	.LVL131:
 1234              	.L125:
1322:Middlewares/Third_Party/LwIP/src/core/dns.c ****   size_t namelen;
 1235              		.loc 1 1322 0
 1236 0072 4FF00009 		mov	r9, #0
1349:Middlewares/Third_Party/LwIP/src/core/dns.c ****         }
1350:Middlewares/Third_Party/LwIP/src/core/dns.c ****       }
1351:Middlewares/Third_Party/LwIP/src/core/dns.c ****     }
1352:Middlewares/Third_Party/LwIP/src/core/dns.c ****   }
1353:Middlewares/Third_Party/LwIP/src/core/dns.c ****   /* no duplicate entries found */
1354:Middlewares/Third_Party/LwIP/src/core/dns.c **** #endif
1355:Middlewares/Third_Party/LwIP/src/core/dns.c **** 
1356:Middlewares/Third_Party/LwIP/src/core/dns.c ****   /* search an unused entry, or the oldest one */
1357:Middlewares/Third_Party/LwIP/src/core/dns.c ****   lseq = 0;
1358:Middlewares/Third_Party/LwIP/src/core/dns.c ****   lseqi = DNS_TABLE_SIZE;
 1237              		.loc 1 1358 0
 1238 0076 4FF0040C 		mov	ip, #4
1357:Middlewares/Third_Party/LwIP/src/core/dns.c ****   lseqi = DNS_TABLE_SIZE;
 1239              		.loc 1 1357 0
 1240 007a 4846     		mov	r0, r9
1359:Middlewares/Third_Party/LwIP/src/core/dns.c ****   for (i = 0; i < DNS_TABLE_SIZE; ++i) {
 1241              		.loc 1 1359 0
 1242 007c 4C46     		mov	r4, r9
 1243              	.LVL132:
 1244 007e 01E0     		b	.L109
 1245              	.LVL133:
 1246              	.L111:
 1247              		.loc 1 1359 0 is_stmt 0 discriminator 2
ARM GAS  C:\Users\milek\AppData\Local\Temp\ccm1c3Aw.s 			page 49


 1248 0080 0134     		adds	r4, r4, #1
 1249              	.LVL134:
 1250 0082 E4B2     		uxtb	r4, r4
 1251              	.LVL135:
 1252              	.L109:
 1253              		.loc 1 1359 0 discriminator 1
 1254 0084 032C     		cmp	r4, #3
 1255 0086 16D8     		bhi	.L110
1360:Middlewares/Third_Party/LwIP/src/core/dns.c ****     entry = &dns_table[i];
 1256              		.loc 1 1360 0 is_stmt 1
 1257 0088 2301     		lsls	r3, r4, #4
 1258 008a 2344     		add	r3, r3, r4
 1259 008c 1A01     		lsls	r2, r3, #4
 1260 008e 3E4B     		ldr	r3, .L130
 1261 0090 03EB0209 		add	r9, r3, r2
 1262              	.LVL136:
1361:Middlewares/Third_Party/LwIP/src/core/dns.c ****     /* is it an unused entry ? */
1362:Middlewares/Third_Party/LwIP/src/core/dns.c ****     if (entry->state == DNS_STATE_UNUSED) {
 1263              		.loc 1 1362 0
 1264 0094 99F80A30 		ldrb	r3, [r9, #10]	@ zero_extendqisi2
 1265 0098 6BB1     		cbz	r3, .L110
1363:Middlewares/Third_Party/LwIP/src/core/dns.c ****       break;
1364:Middlewares/Third_Party/LwIP/src/core/dns.c ****     }
1365:Middlewares/Third_Party/LwIP/src/core/dns.c ****     /* check if this is the oldest completed entry */
1366:Middlewares/Third_Party/LwIP/src/core/dns.c ****     if (entry->state == DNS_STATE_DONE) {
 1266              		.loc 1 1366 0
 1267 009a 032B     		cmp	r3, #3
 1268 009c F0D1     		bne	.L111
 1269              	.LBB5:
1367:Middlewares/Third_Party/LwIP/src/core/dns.c ****       u8_t age = dns_seqno - entry->seqno;
 1270              		.loc 1 1367 0
 1271 009e 3C4B     		ldr	r3, .L130+8
 1272 00a0 1B78     		ldrb	r3, [r3]	@ zero_extendqisi2
 1273 00a2 9646     		mov	lr, r2
 1274 00a4 99F80E20 		ldrb	r2, [r9, #14]	@ zero_extendqisi2
 1275 00a8 9B1A     		subs	r3, r3, r2
 1276 00aa DBB2     		uxtb	r3, r3
 1277              	.LVL137:
1368:Middlewares/Third_Party/LwIP/src/core/dns.c ****       if (age > lseq) {
 1278              		.loc 1 1368 0
 1279 00ac 9842     		cmp	r0, r3
 1280 00ae E7D2     		bcs	.L111
1369:Middlewares/Third_Party/LwIP/src/core/dns.c ****         lseq = age;
1370:Middlewares/Third_Party/LwIP/src/core/dns.c ****         lseqi = i;
 1281              		.loc 1 1370 0
 1282 00b0 A446     		mov	ip, r4
 1283              	.LVL138:
1369:Middlewares/Third_Party/LwIP/src/core/dns.c ****         lseq = age;
 1284              		.loc 1 1369 0
 1285 00b2 1846     		mov	r0, r3
 1286              	.LVL139:
 1287 00b4 E4E7     		b	.L111
 1288              	.LVL140:
 1289              	.L110:
 1290              	.LBE5:
1371:Middlewares/Third_Party/LwIP/src/core/dns.c ****       }
1372:Middlewares/Third_Party/LwIP/src/core/dns.c ****     }
ARM GAS  C:\Users\milek\AppData\Local\Temp\ccm1c3Aw.s 			page 50


1373:Middlewares/Third_Party/LwIP/src/core/dns.c ****   }
1374:Middlewares/Third_Party/LwIP/src/core/dns.c **** 
1375:Middlewares/Third_Party/LwIP/src/core/dns.c ****   /* if we don't have found an unused entry, use the oldest completed one */
1376:Middlewares/Third_Party/LwIP/src/core/dns.c ****   if (i == DNS_TABLE_SIZE) {
 1291              		.loc 1 1376 0
 1292 00b6 042C     		cmp	r4, #4
 1293 00b8 01D0     		beq	.L127
 1294              	.LVL141:
 1295              	.L113:
1377:Middlewares/Third_Party/LwIP/src/core/dns.c ****     if ((lseqi >= DNS_TABLE_SIZE) || (dns_table[lseqi].state != DNS_STATE_DONE)) {
1378:Middlewares/Third_Party/LwIP/src/core/dns.c ****       /* no entry can be used now, table is full */
1379:Middlewares/Third_Party/LwIP/src/core/dns.c ****       LWIP_DEBUGF(DNS_DEBUG, ("dns_enqueue: \"%s\": DNS entries table is full\n", name));
1380:Middlewares/Third_Party/LwIP/src/core/dns.c ****       return ERR_MEM;
1381:Middlewares/Third_Party/LwIP/src/core/dns.c ****     } else {
1382:Middlewares/Third_Party/LwIP/src/core/dns.c ****       /* use the oldest completed one */
1383:Middlewares/Third_Party/LwIP/src/core/dns.c ****       i = lseqi;
1384:Middlewares/Third_Party/LwIP/src/core/dns.c ****       entry = &dns_table[i];
1385:Middlewares/Third_Party/LwIP/src/core/dns.c ****     }
1386:Middlewares/Third_Party/LwIP/src/core/dns.c ****   }
1387:Middlewares/Third_Party/LwIP/src/core/dns.c **** 
1388:Middlewares/Third_Party/LwIP/src/core/dns.c **** #if ((LWIP_DNS_SECURE & LWIP_DNS_SECURE_NO_MULTIPLE_OUTSTANDING) != 0)
1389:Middlewares/Third_Party/LwIP/src/core/dns.c ****   /* find a free request entry */
1390:Middlewares/Third_Party/LwIP/src/core/dns.c ****   req = NULL;
1391:Middlewares/Third_Party/LwIP/src/core/dns.c ****   for (r = 0; r < DNS_MAX_REQUESTS; r++) {
 1296              		.loc 1 1391 0
 1297 00ba 0023     		movs	r3, #0
 1298 00bc 17E0     		b	.L114
 1299              	.LVL142:
 1300              	.L127:
1377:Middlewares/Third_Party/LwIP/src/core/dns.c ****     if ((lseqi >= DNS_TABLE_SIZE) || (dns_table[lseqi].state != DNS_STATE_DONE)) {
 1301              		.loc 1 1377 0
 1302 00be BCF1030F 		cmp	ip, #3
 1303 00c2 59D8     		bhi	.L121
1377:Middlewares/Third_Party/LwIP/src/core/dns.c ****     if ((lseqi >= DNS_TABLE_SIZE) || (dns_table[lseqi].state != DNS_STATE_DONE)) {
 1304              		.loc 1 1377 0 is_stmt 0 discriminator 1
 1305 00c4 0CEB0C13 		add	r3, ip, ip, lsl #4
 1306 00c8 1A01     		lsls	r2, r3, #4
 1307 00ca 2F4B     		ldr	r3, .L130
 1308 00cc 1344     		add	r3, r3, r2
 1309 00ce 9B7A     		ldrb	r3, [r3, #10]	@ zero_extendqisi2
 1310 00d0 032B     		cmp	r3, #3
 1311 00d2 02D0     		beq	.L128
1380:Middlewares/Third_Party/LwIP/src/core/dns.c ****     } else {
 1312              		.loc 1 1380 0 is_stmt 1
 1313 00d4 4FF0FF30 		mov	r0, #-1
 1314              	.LVL143:
 1315 00d8 53E0     		b	.L106
 1316              	.LVL144:
 1317              	.L128:
1384:Middlewares/Third_Party/LwIP/src/core/dns.c ****     }
 1318              		.loc 1 1384 0
 1319 00da 0CEB0C12 		add	r2, ip, ip, lsl #4
 1320 00de 1301     		lsls	r3, r2, #4
 1321 00e0 294A     		ldr	r2, .L130
 1322 00e2 02EB0309 		add	r9, r2, r3
 1323              	.LVL145:
1383:Middlewares/Third_Party/LwIP/src/core/dns.c ****       entry = &dns_table[i];
ARM GAS  C:\Users\milek\AppData\Local\Temp\ccm1c3Aw.s 			page 51


 1324              		.loc 1 1383 0
 1325 00e6 6446     		mov	r4, ip
 1326 00e8 E7E7     		b	.L113
 1327              	.LVL146:
 1328              	.L115:
 1329              		.loc 1 1391 0 discriminator 2
 1330 00ea 0133     		adds	r3, r3, #1
 1331              	.LVL147:
 1332 00ec DBB2     		uxtb	r3, r3
 1333              	.LVL148:
 1334              	.L114:
 1335              		.loc 1 1391 0 is_stmt 0 discriminator 1
 1336 00ee 032B     		cmp	r3, #3
 1337 00f0 0CD8     		bhi	.L129
1392:Middlewares/Third_Party/LwIP/src/core/dns.c ****     if (dns_requests[r].found == NULL) {
 1338              		.loc 1 1392 0 is_stmt 1
 1339 00f2 03EB4301 		add	r1, r3, r3, lsl #1
 1340 00f6 8A00     		lsls	r2, r1, #2
 1341 00f8 2449     		ldr	r1, .L130+4
 1342 00fa 8A58     		ldr	r2, [r1, r2]
 1343 00fc 002A     		cmp	r2, #0
 1344 00fe F4D1     		bne	.L115
1393:Middlewares/Third_Party/LwIP/src/core/dns.c ****       req = &dns_requests[r];
 1345              		.loc 1 1393 0
 1346 0100 03EB4300 		add	r0, r3, r3, lsl #1
 1347              	.LVL149:
 1348 0104 8300     		lsls	r3, r0, #2
 1349              	.LVL150:
 1350 0106 01EB030A 		add	r10, r1, r3
 1351              	.LVL151:
1394:Middlewares/Third_Party/LwIP/src/core/dns.c ****       break;
 1352              		.loc 1 1394 0
 1353 010a 01E0     		b	.L116
 1354              	.LVL152:
 1355              	.L129:
1390:Middlewares/Third_Party/LwIP/src/core/dns.c ****   for (r = 0; r < DNS_MAX_REQUESTS; r++) {
 1356              		.loc 1 1390 0
 1357 010c 4FF0000A 		mov	r10, #0
 1358              	.LVL153:
 1359              	.L116:
1395:Middlewares/Third_Party/LwIP/src/core/dns.c ****     }
1396:Middlewares/Third_Party/LwIP/src/core/dns.c ****   }
1397:Middlewares/Third_Party/LwIP/src/core/dns.c ****   if (req == NULL) {
 1360              		.loc 1 1397 0
 1361 0110 BAF1000F 		cmp	r10, #0
 1362 0114 33D0     		beq	.L123
1398:Middlewares/Third_Party/LwIP/src/core/dns.c ****     /* no request entry can be used now, table is full */
1399:Middlewares/Third_Party/LwIP/src/core/dns.c ****     LWIP_DEBUGF(DNS_DEBUG, ("dns_enqueue: \"%s\": DNS request entries table is full\n", name));
1400:Middlewares/Third_Party/LwIP/src/core/dns.c ****     return ERR_MEM;
1401:Middlewares/Third_Party/LwIP/src/core/dns.c ****   }
1402:Middlewares/Third_Party/LwIP/src/core/dns.c ****   req->dns_table_idx = i;
 1363              		.loc 1 1402 0
 1364 0116 8AF80840 		strb	r4, [r10, #8]
1403:Middlewares/Third_Party/LwIP/src/core/dns.c **** #else
1404:Middlewares/Third_Party/LwIP/src/core/dns.c ****   /* in this configuration, the entry index is the same as the request index */
1405:Middlewares/Third_Party/LwIP/src/core/dns.c ****   req = &dns_requests[i];
1406:Middlewares/Third_Party/LwIP/src/core/dns.c **** #endif
ARM GAS  C:\Users\milek\AppData\Local\Temp\ccm1c3Aw.s 			page 52


1407:Middlewares/Third_Party/LwIP/src/core/dns.c **** 
1408:Middlewares/Third_Party/LwIP/src/core/dns.c ****   /* use this entry */
1409:Middlewares/Third_Party/LwIP/src/core/dns.c ****   LWIP_DEBUGF(DNS_DEBUG, ("dns_enqueue: \"%s\": use DNS entry %"U16_F"\n", name, (u16_t)(i)));
1410:Middlewares/Third_Party/LwIP/src/core/dns.c **** 
1411:Middlewares/Third_Party/LwIP/src/core/dns.c ****   /* fill the entry */
1412:Middlewares/Third_Party/LwIP/src/core/dns.c ****   entry->state = DNS_STATE_NEW;
 1365              		.loc 1 1412 0
 1366 011a 0123     		movs	r3, #1
 1367 011c 89F80A30 		strb	r3, [r9, #10]
1413:Middlewares/Third_Party/LwIP/src/core/dns.c ****   entry->seqno = dns_seqno;
 1368              		.loc 1 1413 0
 1369 0120 1B4B     		ldr	r3, .L130+8
 1370 0122 1B78     		ldrb	r3, [r3]	@ zero_extendqisi2
 1371 0124 89F80E30 		strb	r3, [r9, #14]
1414:Middlewares/Third_Party/LwIP/src/core/dns.c ****   LWIP_DNS_SET_ADDRTYPE(entry->reqaddrtype, dns_addrtype);
1415:Middlewares/Third_Party/LwIP/src/core/dns.c ****   LWIP_DNS_SET_ADDRTYPE(req->reqaddrtype, dns_addrtype);
1416:Middlewares/Third_Party/LwIP/src/core/dns.c ****   req->found = found;
 1372              		.loc 1 1416 0
 1373 0128 CAF80080 		str	r8, [r10]
1417:Middlewares/Third_Party/LwIP/src/core/dns.c ****   req->arg   = callback_arg;
 1374              		.loc 1 1417 0
 1375 012c CAF80470 		str	r7, [r10, #4]
1418:Middlewares/Third_Party/LwIP/src/core/dns.c ****   namelen = LWIP_MIN(hostnamelen, DNS_MAX_NAME_LENGTH-1);
 1376              		.loc 1 1418 0
 1377 0130 FF2D     		cmp	r5, #255
 1378 0132 28BF     		it	cs
 1379 0134 FF25     		movcs	r5, #255
 1380              	.LVL154:
1419:Middlewares/Third_Party/LwIP/src/core/dns.c ****   MEMCPY(entry->name, name, namelen);
 1381              		.loc 1 1419 0
 1382 0136 2A46     		mov	r2, r5
 1383 0138 3146     		mov	r1, r6
 1384 013a 09F11000 		add	r0, r9, #16
 1385 013e FFF7FEFF 		bl	memcpy
 1386              	.LVL155:
1420:Middlewares/Third_Party/LwIP/src/core/dns.c ****   entry->name[namelen] = 0;
 1387              		.loc 1 1420 0
 1388 0142 4D44     		add	r5, r5, r9
 1389              	.LVL156:
 1390 0144 0023     		movs	r3, #0
 1391 0146 2B74     		strb	r3, [r5, #16]
1421:Middlewares/Third_Party/LwIP/src/core/dns.c **** 
1422:Middlewares/Third_Party/LwIP/src/core/dns.c **** #if ((LWIP_DNS_SECURE & LWIP_DNS_SECURE_RAND_SRC_PORT) != 0)
1423:Middlewares/Third_Party/LwIP/src/core/dns.c ****   entry->pcb_idx = dns_alloc_pcb();
 1392              		.loc 1 1423 0
 1393 0148 FFF7FEFF 		bl	dns_alloc_pcb
 1394              	.LVL157:
 1395 014c 89F80F00 		strb	r0, [r9, #15]
1424:Middlewares/Third_Party/LwIP/src/core/dns.c ****   if (entry->pcb_idx >= DNS_MAX_SOURCE_PORTS) {
 1396              		.loc 1 1424 0
 1397 0150 0328     		cmp	r0, #3
 1398 0152 07D9     		bls	.L118
1425:Middlewares/Third_Party/LwIP/src/core/dns.c ****     /* failed to get a UDP pcb */
1426:Middlewares/Third_Party/LwIP/src/core/dns.c ****     LWIP_DEBUGF(DNS_DEBUG, ("dns_enqueue: \"%s\": failed to allocate a pcb\n", name));
1427:Middlewares/Third_Party/LwIP/src/core/dns.c ****     entry->state = DNS_STATE_UNUSED;
 1399              		.loc 1 1427 0
 1400 0154 0023     		movs	r3, #0
ARM GAS  C:\Users\milek\AppData\Local\Temp\ccm1c3Aw.s 			page 53


 1401 0156 89F80A30 		strb	r3, [r9, #10]
1428:Middlewares/Third_Party/LwIP/src/core/dns.c ****     req->found = NULL;
 1402              		.loc 1 1428 0
 1403 015a CAF80030 		str	r3, [r10]
1429:Middlewares/Third_Party/LwIP/src/core/dns.c ****     return ERR_MEM;
 1404              		.loc 1 1429 0
 1405 015e 4FF0FF30 		mov	r0, #-1
 1406 0162 0EE0     		b	.L106
 1407              	.L118:
1430:Middlewares/Third_Party/LwIP/src/core/dns.c ****   }
1431:Middlewares/Third_Party/LwIP/src/core/dns.c ****   LWIP_DEBUGF(DNS_DEBUG, ("dns_enqueue: \"%s\": use DNS pcb %"U16_F"\n", name, (u16_t)(entry->pcb_i
1432:Middlewares/Third_Party/LwIP/src/core/dns.c **** #endif
1433:Middlewares/Third_Party/LwIP/src/core/dns.c **** 
1434:Middlewares/Third_Party/LwIP/src/core/dns.c **** #if LWIP_DNS_SUPPORT_MDNS_QUERIES
1435:Middlewares/Third_Party/LwIP/src/core/dns.c ****   entry->is_mdns = is_mdns;
1436:Middlewares/Third_Party/LwIP/src/core/dns.c **** #endif
1437:Middlewares/Third_Party/LwIP/src/core/dns.c **** 
1438:Middlewares/Third_Party/LwIP/src/core/dns.c ****   dns_seqno++;
 1408              		.loc 1 1438 0
 1409 0164 0A4A     		ldr	r2, .L130+8
 1410 0166 1378     		ldrb	r3, [r2]	@ zero_extendqisi2
 1411 0168 0133     		adds	r3, r3, #1
 1412 016a 1370     		strb	r3, [r2]
1439:Middlewares/Third_Party/LwIP/src/core/dns.c **** 
1440:Middlewares/Third_Party/LwIP/src/core/dns.c ****   /* force to send query without waiting timer */
1441:Middlewares/Third_Party/LwIP/src/core/dns.c ****   dns_check_entry(i);
 1413              		.loc 1 1441 0
 1414 016c 2046     		mov	r0, r4
 1415 016e FFF7FEFF 		bl	dns_check_entry
 1416              	.LVL158:
1442:Middlewares/Third_Party/LwIP/src/core/dns.c **** 
1443:Middlewares/Third_Party/LwIP/src/core/dns.c ****   /* dns query is enqueued */
1444:Middlewares/Third_Party/LwIP/src/core/dns.c ****   return ERR_INPROGRESS;
 1417              		.loc 1 1444 0
 1418 0172 6FF00400 		mvn	r0, #4
 1419 0176 04E0     		b	.L106
 1420              	.LVL159:
 1421              	.L121:
1380:Middlewares/Third_Party/LwIP/src/core/dns.c ****     } else {
 1422              		.loc 1 1380 0
 1423 0178 4FF0FF30 		mov	r0, #-1
 1424              	.LVL160:
 1425 017c 01E0     		b	.L106
 1426              	.LVL161:
 1427              	.L123:
1400:Middlewares/Third_Party/LwIP/src/core/dns.c ****   }
 1428              		.loc 1 1400 0
 1429 017e 4FF0FF30 		mov	r0, #-1
 1430              	.LVL162:
 1431              	.L106:
1445:Middlewares/Third_Party/LwIP/src/core/dns.c **** }
 1432              		.loc 1 1445 0
 1433 0182 BDE8F087 		pop	{r4, r5, r6, r7, r8, r9, r10, pc}
 1434              	.LVL163:
 1435              	.L131:
 1436 0186 00BF     		.align	2
 1437              	.L130:
ARM GAS  C:\Users\milek\AppData\Local\Temp\ccm1c3Aw.s 			page 54


 1438 0188 00000000 		.word	.LANCHOR0
 1439 018c 00000000 		.word	.LANCHOR1
 1440 0190 00000000 		.word	.LANCHOR5
 1441              		.cfi_endproc
 1442              	.LFE170:
 1444              		.section	.text.dns_compare_name,"ax",%progbits
 1445              		.align	1
 1446              		.syntax unified
 1447              		.thumb
 1448              		.thumb_func
 1449              		.fpu fpv5-sp-d16
 1451              	dns_compare_name:
 1452              	.LFB159:
 652:Middlewares/Third_Party/LwIP/src/core/dns.c ****   int n;
 1453              		.loc 1 652 0
 1454              		.cfi_startproc
 1455              		@ args = 0, pretend = 0, frame = 0
 1456              		@ frame_needed = 0, uses_anonymous_args = 0
 1457              	.LVL164:
 1458 0000 2DE9F041 		push	{r4, r5, r6, r7, r8, lr}
 1459              	.LCFI13:
 1460              		.cfi_def_cfa_offset 24
 1461              		.cfi_offset 4, -24
 1462              		.cfi_offset 5, -20
 1463              		.cfi_offset 6, -16
 1464              		.cfi_offset 7, -12
 1465              		.cfi_offset 8, -8
 1466              		.cfi_offset 14, -4
 1467 0004 0546     		mov	r5, r0
 1468 0006 0F46     		mov	r7, r1
 1469 0008 1446     		mov	r4, r2
 1470              	.LVL165:
 1471              	.L136:
 657:Middlewares/Third_Party/LwIP/src/core/dns.c ****     if (n < 0) {
 1472              		.loc 1 657 0
 1473 000a 04F10108 		add	r8, r4, #1
 1474 000e 1FFA88F8 		uxth	r8, r8
 1475              	.LVL166:
 1476 0012 2146     		mov	r1, r4
 1477 0014 3846     		mov	r0, r7
 1478 0016 FFF7FEFF 		bl	pbuf_try_get_at
 1479              	.LVL167:
 658:Middlewares/Third_Party/LwIP/src/core/dns.c ****       return 0xFFFF;
 1480              		.loc 1 658 0
 1481 001a 061E     		subs	r6, r0, #0
 1482 001c 22DB     		blt	.L137
 662:Middlewares/Third_Party/LwIP/src/core/dns.c ****       /* Compressed name: cannot be equal since we don't send them */
 1483              		.loc 1 662 0
 1484 001e 06F0C003 		and	r3, r6, #192
 1485 0022 C02B     		cmp	r3, #192
 1486 0024 21D0     		beq	.L138
 657:Middlewares/Third_Party/LwIP/src/core/dns.c ****     if (n < 0) {
 1487              		.loc 1 657 0
 1488 0026 4446     		mov	r4, r8
 1489              	.LVL168:
 1490              	.L134:
 667:Middlewares/Third_Party/LwIP/src/core/dns.c ****         int c = pbuf_try_get_at(p, response_offset);
ARM GAS  C:\Users\milek\AppData\Local\Temp\ccm1c3Aw.s 			page 55


 1491              		.loc 1 667 0
 1492 0028 002E     		cmp	r6, #0
 1493 002a 0CDC     		bgt	.L135
 679:Middlewares/Third_Party/LwIP/src/core/dns.c ****     }
 1494              		.loc 1 679 0
 1495 002c 0135     		adds	r5, r5, #1
 1496              	.LVL169:
 681:Middlewares/Third_Party/LwIP/src/core/dns.c ****     if (n < 0) {
 1497              		.loc 1 681 0
 1498 002e 2146     		mov	r1, r4
 1499 0030 3846     		mov	r0, r7
 1500 0032 FFF7FEFF 		bl	pbuf_try_get_at
 1501              	.LVL170:
 682:Middlewares/Third_Party/LwIP/src/core/dns.c ****       return 0xFFFF;
 1502              		.loc 1 682 0
 1503 0036 0028     		cmp	r0, #0
 1504 0038 20DB     		blt	.L141
 685:Middlewares/Third_Party/LwIP/src/core/dns.c **** 
 1505              		.loc 1 685 0
 1506 003a 0028     		cmp	r0, #0
 1507 003c E5D1     		bne	.L136
 687:Middlewares/Third_Party/LwIP/src/core/dns.c **** }
 1508              		.loc 1 687 0
 1509 003e 601C     		adds	r0, r4, #1
 1510              	.LVL171:
 1511 0040 80B2     		uxth	r0, r0
 1512              	.LVL172:
 1513              	.L133:
 688:Middlewares/Third_Party/LwIP/src/core/dns.c **** 
 1514              		.loc 1 688 0
 1515 0042 BDE8F081 		pop	{r4, r5, r6, r7, r8, pc}
 1516              	.LVL173:
 1517              	.L135:
 1518              	.LBB6:
 668:Middlewares/Third_Party/LwIP/src/core/dns.c ****         if (c < 0) {
 1519              		.loc 1 668 0
 1520 0046 2146     		mov	r1, r4
 1521 0048 3846     		mov	r0, r7
 1522 004a FFF7FEFF 		bl	pbuf_try_get_at
 1523              	.LVL174:
 669:Middlewares/Third_Party/LwIP/src/core/dns.c ****           return 0xFFFF;
 1524              		.loc 1 669 0
 1525 004e 0028     		cmp	r0, #0
 1526 0050 0EDB     		blt	.L139
 672:Middlewares/Third_Party/LwIP/src/core/dns.c ****           return 0xFFFF;
 1527              		.loc 1 672 0
 1528 0052 2B78     		ldrb	r3, [r5]	@ zero_extendqisi2
 1529 0054 C0B2     		uxtb	r0, r0
 1530              	.LVL175:
 1531 0056 8342     		cmp	r3, r0
 1532 0058 0DD1     		bne	.L140
 675:Middlewares/Third_Party/LwIP/src/core/dns.c ****         ++query;
 1533              		.loc 1 675 0
 1534 005a 0134     		adds	r4, r4, #1
 1535              	.LVL176:
 1536 005c A4B2     		uxth	r4, r4
 1537              	.LVL177:
ARM GAS  C:\Users\milek\AppData\Local\Temp\ccm1c3Aw.s 			page 56


 676:Middlewares/Third_Party/LwIP/src/core/dns.c ****         --n;
 1538              		.loc 1 676 0
 1539 005e 0135     		adds	r5, r5, #1
 1540              	.LVL178:
 677:Middlewares/Third_Party/LwIP/src/core/dns.c ****       }
 1541              		.loc 1 677 0
 1542 0060 013E     		subs	r6, r6, #1
 1543              	.LVL179:
 1544 0062 E1E7     		b	.L134
 1545              	.LVL180:
 1546              	.L137:
 1547              	.LBE6:
 659:Middlewares/Third_Party/LwIP/src/core/dns.c ****     }
 1548              		.loc 1 659 0
 1549 0064 4FF6FF70 		movw	r0, #65535
 1550              	.LVL181:
 1551 0068 EBE7     		b	.L133
 1552              	.LVL182:
 1553              	.L138:
 664:Middlewares/Third_Party/LwIP/src/core/dns.c ****     } else {
 1554              		.loc 1 664 0
 1555 006a 4FF6FF70 		movw	r0, #65535
 1556              	.LVL183:
 1557 006e E8E7     		b	.L133
 1558              	.LVL184:
 1559              	.L139:
 1560              	.LBB7:
 670:Middlewares/Third_Party/LwIP/src/core/dns.c ****         }
 1561              		.loc 1 670 0
 1562 0070 4FF6FF70 		movw	r0, #65535
 1563              	.LVL185:
 1564 0074 E5E7     		b	.L133
 1565              	.L140:
 673:Middlewares/Third_Party/LwIP/src/core/dns.c ****         }
 1566              		.loc 1 673 0
 1567 0076 4FF6FF70 		movw	r0, #65535
 1568 007a E2E7     		b	.L133
 1569              	.LVL186:
 1570              	.L141:
 1571              	.LBE7:
 683:Middlewares/Third_Party/LwIP/src/core/dns.c ****     }
 1572              		.loc 1 683 0
 1573 007c 4FF6FF70 		movw	r0, #65535
 1574              	.LVL187:
 1575 0080 DFE7     		b	.L133
 1576              		.cfi_endproc
 1577              	.LFE159:
 1579              		.section	.text.dns_skip_name,"ax",%progbits
 1580              		.align	1
 1581              		.syntax unified
 1582              		.thumb
 1583              		.thumb_func
 1584              		.fpu fpv5-sp-d16
 1586              	dns_skip_name:
 1587              	.LFB160:
 699:Middlewares/Third_Party/LwIP/src/core/dns.c ****   int n;
 1588              		.loc 1 699 0
ARM GAS  C:\Users\milek\AppData\Local\Temp\ccm1c3Aw.s 			page 57


 1589              		.cfi_startproc
 1590              		@ args = 0, pretend = 0, frame = 0
 1591              		@ frame_needed = 0, uses_anonymous_args = 0
 1592              	.LVL188:
 1593 0000 70B5     		push	{r4, r5, r6, lr}
 1594              	.LCFI14:
 1595              		.cfi_def_cfa_offset 16
 1596              		.cfi_offset 4, -16
 1597              		.cfi_offset 5, -12
 1598              		.cfi_offset 6, -8
 1599              		.cfi_offset 14, -4
 1600 0002 0646     		mov	r6, r0
 1601 0004 0D46     		mov	r5, r1
 1602              	.LVL189:
 1603              	.L146:
 704:Middlewares/Third_Party/LwIP/src/core/dns.c ****     if (n < 0) {
 1604              		.loc 1 704 0
 1605 0006 6C1C     		adds	r4, r5, #1
 1606 0008 A4B2     		uxth	r4, r4
 1607              	.LVL190:
 1608 000a 2946     		mov	r1, r5
 1609 000c 3046     		mov	r0, r6
 1610 000e FFF7FEFF 		bl	pbuf_try_get_at
 1611              	.LVL191:
 705:Middlewares/Third_Party/LwIP/src/core/dns.c ****       return 0xFFFF;
 1612              		.loc 1 705 0
 1613 0012 0028     		cmp	r0, #0
 1614 0014 16DB     		blt	.L147
 709:Middlewares/Third_Party/LwIP/src/core/dns.c ****       /* Compressed name: since we only want to skip it (not check it), stop here */
 1615              		.loc 1 709 0
 1616 0016 00F0C003 		and	r3, r0, #192
 1617 001a C02B     		cmp	r3, #192
 1618 001c 0FD0     		beq	.L145
 714:Middlewares/Third_Party/LwIP/src/core/dns.c ****         return 0xFFFF;
 1619              		.loc 1 714 0
 1620 001e 2318     		adds	r3, r4, r0
 1621 0020 3289     		ldrh	r2, [r6, #8]
 1622 0022 9342     		cmp	r3, r2
 1623 0024 11DA     		bge	.L148
 717:Middlewares/Third_Party/LwIP/src/core/dns.c ****     }
 1624              		.loc 1 717 0
 1625 0026 14FA80F4 		uxtah	r4, r4, r0
 1626              	.LVL192:
 1627 002a A5B2     		uxth	r5, r4
 1628              	.LVL193:
 719:Middlewares/Third_Party/LwIP/src/core/dns.c ****     if (n < 0) {
 1629              		.loc 1 719 0
 1630 002c 2946     		mov	r1, r5
 1631 002e 3046     		mov	r0, r6
 1632              	.LVL194:
 1633 0030 FFF7FEFF 		bl	pbuf_try_get_at
 1634              	.LVL195:
 720:Middlewares/Third_Party/LwIP/src/core/dns.c ****       return 0xFFFF;
 1635              		.loc 1 720 0
 1636 0034 0028     		cmp	r0, #0
 1637 0036 0BDB     		blt	.L149
 723:Middlewares/Third_Party/LwIP/src/core/dns.c **** 
ARM GAS  C:\Users\milek\AppData\Local\Temp\ccm1c3Aw.s 			page 58


 1638              		.loc 1 723 0
 1639 0038 0028     		cmp	r0, #0
 1640 003a E4D1     		bne	.L146
 717:Middlewares/Third_Party/LwIP/src/core/dns.c ****     }
 1641              		.loc 1 717 0
 1642 003c 2C46     		mov	r4, r5
 1643              	.LVL196:
 1644              	.L145:
 725:Middlewares/Third_Party/LwIP/src/core/dns.c **** }
 1645              		.loc 1 725 0
 1646 003e 601C     		adds	r0, r4, #1
 1647              	.LVL197:
 1648 0040 80B2     		uxth	r0, r0
 1649              	.LVL198:
 1650              	.L144:
 726:Middlewares/Third_Party/LwIP/src/core/dns.c **** 
 1651              		.loc 1 726 0
 1652 0042 70BD     		pop	{r4, r5, r6, pc}
 1653              	.LVL199:
 1654              	.L147:
 706:Middlewares/Third_Party/LwIP/src/core/dns.c ****     }
 1655              		.loc 1 706 0
 1656 0044 4FF6FF70 		movw	r0, #65535
 1657              	.LVL200:
 1658 0048 FBE7     		b	.L144
 1659              	.LVL201:
 1660              	.L148:
 715:Middlewares/Third_Party/LwIP/src/core/dns.c ****       }
 1661              		.loc 1 715 0
 1662 004a 4FF6FF70 		movw	r0, #65535
 1663              	.LVL202:
 1664 004e F8E7     		b	.L144
 1665              	.LVL203:
 1666              	.L149:
 721:Middlewares/Third_Party/LwIP/src/core/dns.c ****     }
 1667              		.loc 1 721 0
 1668 0050 4FF6FF70 		movw	r0, #65535
 1669              	.LVL204:
 1670 0054 F5E7     		b	.L144
 1671              		.cfi_endproc
 1672              	.LFE160:
 1674              		.section	.text.dns_recv,"ax",%progbits
 1675              		.align	1
 1676              		.syntax unified
 1677              		.thumb
 1678              		.thumb_func
 1679              		.fpu fpv5-sp-d16
 1681              	dns_recv:
 1682              	.LFB169:
1134:Middlewares/Third_Party/LwIP/src/core/dns.c ****   u8_t i;
 1683              		.loc 1 1134 0
 1684              		.cfi_startproc
 1685              		@ args = 4, pretend = 0, frame = 32
 1686              		@ frame_needed = 0, uses_anonymous_args = 0
 1687              	.LVL205:
 1688 0000 2DE9F043 		push	{r4, r5, r6, r7, r8, r9, lr}
 1689              	.LCFI15:
ARM GAS  C:\Users\milek\AppData\Local\Temp\ccm1c3Aw.s 			page 59


 1690              		.cfi_def_cfa_offset 28
 1691              		.cfi_offset 4, -28
 1692              		.cfi_offset 5, -24
 1693              		.cfi_offset 6, -20
 1694              		.cfi_offset 7, -16
 1695              		.cfi_offset 8, -12
 1696              		.cfi_offset 9, -8
 1697              		.cfi_offset 14, -4
 1698 0004 89B0     		sub	sp, sp, #36
 1699              	.LCFI16:
 1700              		.cfi_def_cfa_offset 64
 1701 0006 1446     		mov	r4, r2
 1702 0008 1E46     		mov	r6, r3
1148:Middlewares/Third_Party/LwIP/src/core/dns.c ****     LWIP_DEBUGF(DNS_DEBUG, ("dns_recv: pbuf too small\n"));
 1703              		.loc 1 1148 0
 1704 000a 1389     		ldrh	r3, [r2, #8]
 1705              	.LVL206:
 1706 000c 0F2B     		cmp	r3, #15
 1707 000e 07D9     		bls	.L152
1155:Middlewares/Third_Party/LwIP/src/core/dns.c ****     /* Match the ID in the DNS header with the name table. */
 1708              		.loc 1 1155 0
 1709 0010 0023     		movs	r3, #0
 1710 0012 0C22     		movs	r2, #12
 1711              	.LVL207:
 1712 0014 05A9     		add	r1, sp, #20
 1713              	.LVL208:
 1714 0016 2046     		mov	r0, r4
 1715              	.LVL209:
 1716 0018 FFF7FEFF 		bl	pbuf_copy_partial
 1717              	.LVL210:
 1718 001c 0C28     		cmp	r0, #12
 1719 001e 05D0     		beq	.L163
 1720              	.LVL211:
 1721              	.L152:
1303:Middlewares/Third_Party/LwIP/src/core/dns.c ****   return;
 1722              		.loc 1 1303 0
 1723 0020 2046     		mov	r0, r4
 1724 0022 FFF7FEFF 		bl	pbuf_free
 1725              	.LVL212:
 1726              	.L151:
1305:Middlewares/Third_Party/LwIP/src/core/dns.c **** 
 1727              		.loc 1 1305 0
 1728 0026 09B0     		add	sp, sp, #36
 1729              	.LCFI17:
 1730              		.cfi_remember_state
 1731              		.cfi_def_cfa_offset 28
 1732              		@ sp needed
 1733 0028 BDE8F083 		pop	{r4, r5, r6, r7, r8, r9, pc}
 1734              	.LVL213:
 1735              	.L163:
 1736              	.LCFI18:
 1737              		.cfi_restore_state
1157:Middlewares/Third_Party/LwIP/src/core/dns.c ****     for (i = 0; i < DNS_TABLE_SIZE; i++) {
 1738              		.loc 1 1157 0
 1739 002c BDF81400 		ldrh	r0, [sp, #20]
 1740 0030 FFF7FEFF 		bl	lwip_htons
 1741              	.LVL214:
ARM GAS  C:\Users\milek\AppData\Local\Temp\ccm1c3Aw.s 			page 60


1158:Middlewares/Third_Party/LwIP/src/core/dns.c ****       const struct dns_table_entry *entry = &dns_table[i];
 1742              		.loc 1 1158 0
 1743 0034 0025     		movs	r5, #0
 1744 0036 56E0     		b	.L153
 1745              	.LVL215:
 1746              	.L157:
 1747              	.LBB8:
1268:Middlewares/Third_Party/LwIP/src/core/dns.c ****               goto memerr; /* ignore this packet */
 1748              		.loc 1 1268 0
 1749 0038 BDF81000 		ldrh	r0, [sp, #16]
 1750 003c FFF7FEFF 		bl	lwip_htons
 1751              	.LVL216:
 1752 0040 3044     		add	r0, r0, r6
 1753 0042 B0F5803F 		cmp	r0, #65536
 1754 0046 EBDA     		bge	.L152
1271:Middlewares/Third_Party/LwIP/src/core/dns.c ****             --nanswers;
 1755              		.loc 1 1271 0
 1756 0048 BDF81000 		ldrh	r0, [sp, #16]
 1757 004c FFF7FEFF 		bl	lwip_htons
 1758              	.LVL217:
 1759 0050 3118     		adds	r1, r6, r0
 1760 0052 89B2     		uxth	r1, r1
 1761              	.LVL218:
1272:Middlewares/Third_Party/LwIP/src/core/dns.c ****           }
 1762              		.loc 1 1272 0
 1763 0054 08F1FF38 		add	r8, r8, #-1
 1764              	.LVL219:
 1765 0058 1FFA88F8 		uxth	r8, r8
 1766              	.LVL220:
 1767              	.L156:
1214:Middlewares/Third_Party/LwIP/src/core/dns.c ****             /* skip answer resource record's host name */
 1768              		.loc 1 1214 0
 1769 005c B8F1000F 		cmp	r8, #0
 1770 0060 00F0A080 		beq	.L155
1214:Middlewares/Third_Party/LwIP/src/core/dns.c ****             /* skip answer resource record's host name */
 1771              		.loc 1 1214 0 is_stmt 0 discriminator 1
 1772 0064 2389     		ldrh	r3, [r4, #8]
 1773 0066 8B42     		cmp	r3, r1
 1774 0068 40F29C80 		bls	.L155
1216:Middlewares/Third_Party/LwIP/src/core/dns.c ****             if (res_idx == 0xFFFF) {
 1775              		.loc 1 1216 0 is_stmt 1
 1776 006c 2046     		mov	r0, r4
 1777 006e FFF7FEFF 		bl	dns_skip_name
 1778              	.LVL221:
 1779 0072 0646     		mov	r6, r0
 1780              	.LVL222:
1217:Middlewares/Third_Party/LwIP/src/core/dns.c ****               goto memerr; /* ignore this packet */
 1781              		.loc 1 1217 0
 1782 0074 4FF6FF73 		movw	r3, #65535
 1783 0078 9842     		cmp	r0, r3
 1784 007a D1D0     		beq	.L152
1222:Middlewares/Third_Party/LwIP/src/core/dns.c ****               goto memerr; /* ignore this packet */
 1785              		.loc 1 1222 0
 1786 007c 0346     		mov	r3, r0
 1787 007e 0A22     		movs	r2, #10
 1788 0080 02A9     		add	r1, sp, #8
 1789 0082 2046     		mov	r0, r4
ARM GAS  C:\Users\milek\AppData\Local\Temp\ccm1c3Aw.s 			page 61


 1790              	.LVL223:
 1791 0084 FFF7FEFF 		bl	pbuf_copy_partial
 1792              	.LVL224:
 1793 0088 0A28     		cmp	r0, #10
 1794 008a C9D1     		bne	.L152
1225:Middlewares/Third_Party/LwIP/src/core/dns.c **** 
 1795              		.loc 1 1225 0
 1796 008c 0A36     		adds	r6, r6, #10
 1797 008e B6B2     		uxth	r6, r6
 1798              	.LVL225:
1227:Middlewares/Third_Party/LwIP/src/core/dns.c **** #if LWIP_IPV4
 1799              		.loc 1 1227 0
 1800 0090 BDF80A30 		ldrh	r3, [sp, #10]
 1801 0094 B3F5807F 		cmp	r3, #256
 1802 0098 CED1     		bne	.L157
1229:Middlewares/Third_Party/LwIP/src/core/dns.c **** #if LWIP_IPV4 && LWIP_IPV6
 1803              		.loc 1 1229 0
 1804 009a BDF80830 		ldrh	r3, [sp, #8]
 1805 009e B3F5807F 		cmp	r3, #256
 1806 00a2 C9D1     		bne	.L157
1229:Middlewares/Third_Party/LwIP/src/core/dns.c **** #if LWIP_IPV4 && LWIP_IPV6
 1807              		.loc 1 1229 0 is_stmt 0 discriminator 1
 1808 00a4 BDF81030 		ldrh	r3, [sp, #16]
 1809 00a8 B3F5806F 		cmp	r3, #1024
 1810 00ac C4D1     		bne	.L157
 1811              	.LBB9:
1236:Middlewares/Third_Party/LwIP/src/core/dns.c ****                     goto memerr; /* ignore this packet */
 1812              		.loc 1 1236 0 is_stmt 1
 1813 00ae 3346     		mov	r3, r6
 1814 00b0 0422     		movs	r2, #4
 1815 00b2 6946     		mov	r1, sp
 1816 00b4 2046     		mov	r0, r4
 1817 00b6 FFF7FEFF 		bl	pbuf_copy_partial
 1818              	.LVL226:
 1819 00ba 0428     		cmp	r0, #4
 1820 00bc B0D1     		bne	.L152
1239:Middlewares/Third_Party/LwIP/src/core/dns.c ****                   pbuf_free(p);
 1821              		.loc 1 1239 0
 1822 00be 414A     		ldr	r2, .L164
 1823 00c0 4FF48873 		mov	r3, #272
 1824 00c4 03FB0727 		mla	r7, r3, r7, r2
 1825 00c8 009B     		ldr	r3, [sp]
 1826 00ca 7B60     		str	r3, [r7, #4]
1240:Middlewares/Third_Party/LwIP/src/core/dns.c ****                   /* handle correct response */
 1827              		.loc 1 1240 0
 1828 00cc 2046     		mov	r0, r4
 1829 00ce FFF7FEFF 		bl	pbuf_free
 1830              	.LVL227:
1242:Middlewares/Third_Party/LwIP/src/core/dns.c ****                   return;
 1831              		.loc 1 1242 0
 1832 00d2 0398     		ldr	r0, [sp, #12]
 1833 00d4 FFF7FEFF 		bl	lwip_htonl
 1834              	.LVL228:
 1835 00d8 0146     		mov	r1, r0
 1836 00da 2846     		mov	r0, r5
 1837 00dc FFF7FEFF 		bl	dns_correct_response
 1838              	.LVL229:
ARM GAS  C:\Users\milek\AppData\Local\Temp\ccm1c3Aw.s 			page 62


 1839 00e0 A1E7     		b	.L151
 1840              	.LVL230:
 1841              	.L154:
 1842              	.LBE9:
 1843              	.LBE8:
1158:Middlewares/Third_Party/LwIP/src/core/dns.c ****       const struct dns_table_entry *entry = &dns_table[i];
 1844              		.loc 1 1158 0 discriminator 2
 1845 00e2 0135     		adds	r5, r5, #1
 1846              	.LVL231:
 1847 00e4 EDB2     		uxtb	r5, r5
 1848              	.LVL232:
 1849              	.L153:
1158:Middlewares/Third_Party/LwIP/src/core/dns.c ****       const struct dns_table_entry *entry = &dns_table[i];
 1850              		.loc 1 1158 0 is_stmt 0 discriminator 1
 1851 00e6 032D     		cmp	r5, #3
 1852 00e8 9AD8     		bhi	.L152
 1853              	.LBB10:
1159:Middlewares/Third_Party/LwIP/src/core/dns.c ****       if ((entry->state == DNS_STATE_ASKING) &&
 1854              		.loc 1 1159 0 is_stmt 1
 1855 00ea 2F46     		mov	r7, r5
 1856              	.LVL233:
1160:Middlewares/Third_Party/LwIP/src/core/dns.c ****           (entry->txid == txid)) {
 1857              		.loc 1 1160 0
 1858 00ec 05EB0513 		add	r3, r5, r5, lsl #4
 1859 00f0 1A01     		lsls	r2, r3, #4
 1860 00f2 344B     		ldr	r3, .L164
 1861 00f4 1344     		add	r3, r3, r2
 1862 00f6 9B7A     		ldrb	r3, [r3, #10]	@ zero_extendqisi2
 1863 00f8 022B     		cmp	r3, #2
 1864 00fa F2D1     		bne	.L154
1161:Middlewares/Third_Party/LwIP/src/core/dns.c **** 
 1865              		.loc 1 1161 0 discriminator 1
 1866 00fc 314B     		ldr	r3, .L164
 1867 00fe 1344     		add	r3, r3, r2
 1868 0100 1B89     		ldrh	r3, [r3, #8]
1160:Middlewares/Third_Party/LwIP/src/core/dns.c ****           (entry->txid == txid)) {
 1869              		.loc 1 1160 0 discriminator 1
 1870 0102 8342     		cmp	r3, r0
 1871 0104 EDD1     		bne	.L154
1165:Middlewares/Third_Party/LwIP/src/core/dns.c ****         nanswers   = lwip_htons(hdr.numanswers);
 1872              		.loc 1 1165 0
 1873 0106 BDF81800 		ldrh	r0, [sp, #24]
 1874              	.LVL234:
 1875 010a FFF7FEFF 		bl	lwip_htons
 1876              	.LVL235:
 1877 010e 8146     		mov	r9, r0
 1878              	.LVL236:
1166:Middlewares/Third_Party/LwIP/src/core/dns.c **** 
 1879              		.loc 1 1166 0
 1880 0110 BDF81A00 		ldrh	r0, [sp, #26]
 1881 0114 FFF7FEFF 		bl	lwip_htons
 1882              	.LVL237:
 1883 0118 8046     		mov	r8, r0
 1884              	.LVL238:
1169:Middlewares/Third_Party/LwIP/src/core/dns.c ****           LWIP_DEBUGF(DNS_DEBUG, ("dns_recv: \"%s\": not a response\n", entry->name));
 1885              		.loc 1 1169 0
 1886 011a 9DF91630 		ldrsb	r3, [sp, #22]
ARM GAS  C:\Users\milek\AppData\Local\Temp\ccm1c3Aw.s 			page 63


 1887 011e 002B     		cmp	r3, #0
 1888 0120 BFF67EAF 		bge	.L152
1173:Middlewares/Third_Party/LwIP/src/core/dns.c ****           LWIP_DEBUGF(DNS_DEBUG, ("dns_recv: \"%s\": response not match to query\n", entry->name));
 1889              		.loc 1 1173 0
 1890 0124 B9F1010F 		cmp	r9, #1
 1891 0128 7FF47AAF 		bne	.L152
1184:Middlewares/Third_Party/LwIP/src/core/dns.c ****             goto memerr; /* ignore this packet */
 1892              		.loc 1 1184 0
 1893 012c 3168     		ldr	r1, [r6]
 1894 012e 05EB0513 		add	r3, r5, r5, lsl #4
 1895 0132 1A01     		lsls	r2, r3, #4
 1896 0134 234B     		ldr	r3, .L164
 1897 0136 1344     		add	r3, r3, r2
 1898 0138 DA7A     		ldrb	r2, [r3, #11]	@ zero_extendqisi2
 1899 013a 234B     		ldr	r3, .L164+4
 1900 013c 53F82230 		ldr	r3, [r3, r2, lsl #2]
 1901 0140 9942     		cmp	r1, r3
 1902 0142 7FF46DAF 		bne	.L152
1191:Middlewares/Third_Party/LwIP/src/core/dns.c ****         if (res_idx == 0xFFFF) {
 1903              		.loc 1 1191 0
 1904 0146 4FF48873 		mov	r3, #272
 1905 014a 03FB05F3 		mul	r3, r3, r5
 1906 014e 1033     		adds	r3, r3, #16
 1907 0150 0C22     		movs	r2, #12
 1908 0152 2146     		mov	r1, r4
 1909 0154 1B48     		ldr	r0, .L164
 1910 0156 1844     		add	r0, r0, r3
 1911 0158 FFF7FEFF 		bl	dns_compare_name
 1912              	.LVL239:
 1913 015c 0646     		mov	r6, r0
 1914              	.LVL240:
1192:Middlewares/Third_Party/LwIP/src/core/dns.c ****           LWIP_DEBUGF(DNS_DEBUG, ("dns_recv: \"%s\": response not match to query\n", entry->name));
 1915              		.loc 1 1192 0
 1916 015e 4FF6FF73 		movw	r3, #65535
 1917 0162 9842     		cmp	r0, r3
 1918 0164 3FF45CAF 		beq	.L152
1198:Middlewares/Third_Party/LwIP/src/core/dns.c ****           goto memerr; /* ignore this packet */
 1919              		.loc 1 1198 0
 1920 0168 0346     		mov	r3, r0
 1921 016a 0422     		movs	r2, #4
 1922 016c 0DEB0201 		add	r1, sp, r2
 1923 0170 2046     		mov	r0, r4
 1924              	.LVL241:
 1925 0172 FFF7FEFF 		bl	pbuf_copy_partial
 1926              	.LVL242:
 1927 0176 0428     		cmp	r0, #4
 1928 0178 7FF452AF 		bne	.L152
1201:Middlewares/Third_Party/LwIP/src/core/dns.c ****           (LWIP_DNS_ADDRTYPE_IS_IPV6(entry->reqaddrtype) && (qry.type != PP_HTONS(DNS_RRTYPE_AAAA))
 1929              		.loc 1 1201 0
 1930 017c BDF80630 		ldrh	r3, [sp, #6]
 1931 0180 B3F5807F 		cmp	r3, #256
 1932 0184 7FF44CAF 		bne	.L152
1203:Middlewares/Third_Party/LwIP/src/core/dns.c ****           LWIP_DEBUGF(DNS_DEBUG, ("dns_recv: \"%s\": response not match to query\n", entry->name));
 1933              		.loc 1 1203 0
 1934 0188 BDF80430 		ldrh	r3, [sp, #4]
1202:Middlewares/Third_Party/LwIP/src/core/dns.c ****           (!LWIP_DNS_ADDRTYPE_IS_IPV6(entry->reqaddrtype) && (qry.type != PP_HTONS(DNS_RRTYPE_A))))
 1935              		.loc 1 1202 0
ARM GAS  C:\Users\milek\AppData\Local\Temp\ccm1c3Aw.s 			page 64


 1936 018c B3F5807F 		cmp	r3, #256
 1937 0190 7FF446AF 		bne	.L152
1208:Middlewares/Third_Party/LwIP/src/core/dns.c **** 
 1938              		.loc 1 1208 0
 1939 0194 311D     		adds	r1, r6, #4
 1940 0196 89B2     		uxth	r1, r1
 1941              	.LVL243:
1211:Middlewares/Third_Party/LwIP/src/core/dns.c ****           LWIP_DEBUGF(DNS_DEBUG, ("dns_recv: \"%s\": error in flags\n", entry->name));
 1942              		.loc 1 1211 0
 1943 0198 9DF81730 		ldrb	r3, [sp, #23]	@ zero_extendqisi2
 1944 019c 13F00F0F 		tst	r3, #15
 1945 01a0 3FF45CAF 		beq	.L156
 1946              	.L155:
1293:Middlewares/Third_Party/LwIP/src/core/dns.c ****         dns_call_found(i, NULL);
 1947              		.loc 1 1293 0
 1948 01a4 2046     		mov	r0, r4
 1949 01a6 FFF7FEFF 		bl	pbuf_free
 1950              	.LVL244:
1294:Middlewares/Third_Party/LwIP/src/core/dns.c ****         dns_table[i].state = DNS_STATE_UNUSED;
 1951              		.loc 1 1294 0
 1952 01aa 0021     		movs	r1, #0
 1953 01ac 2846     		mov	r0, r5
 1954 01ae FFF7FEFF 		bl	dns_call_found
 1955              	.LVL245:
1295:Middlewares/Third_Party/LwIP/src/core/dns.c ****         return;
 1956              		.loc 1 1295 0
 1957 01b2 044B     		ldr	r3, .L164
 1958 01b4 4FF48872 		mov	r2, #272
 1959 01b8 02FB0737 		mla	r7, r2, r7, r3
 1960 01bc 0023     		movs	r3, #0
 1961 01be BB72     		strb	r3, [r7, #10]
1296:Middlewares/Third_Party/LwIP/src/core/dns.c ****       }
 1962              		.loc 1 1296 0
 1963 01c0 31E7     		b	.L151
 1964              	.L165:
 1965 01c2 00BF     		.align	2
 1966              	.L164:
 1967 01c4 00000000 		.word	.LANCHOR0
 1968 01c8 00000000 		.word	.LANCHOR3
 1969              	.LBE10:
 1970              		.cfi_endproc
 1971              	.LFE169:
 1973              		.section	.text.dns_init,"ax",%progbits
 1974              		.align	1
 1975              		.global	dns_init
 1976              		.syntax unified
 1977              		.thumb
 1978              		.thumb_func
 1979              		.fpu fpv5-sp-d16
 1981              	dns_init:
 1982              	.LFB154:
 319:Middlewares/Third_Party/LwIP/src/core/dns.c **** #ifdef DNS_SERVER_ADDRESS
 1983              		.loc 1 319 0
 1984              		.cfi_startproc
 1985              		@ args = 0, pretend = 0, frame = 0
 1986              		@ frame_needed = 0, uses_anonymous_args = 0
 1987              		@ link register save eliminated.
ARM GAS  C:\Users\milek\AppData\Local\Temp\ccm1c3Aw.s 			page 65


 354:Middlewares/Third_Party/LwIP/src/core/dns.c **** 
 1988              		.loc 1 354 0
 1989 0000 7047     		bx	lr
 1990              		.cfi_endproc
 1991              	.LFE154:
 1993              		.section	.text.dns_setserver,"ax",%progbits
 1994              		.align	1
 1995              		.global	dns_setserver
 1996              		.syntax unified
 1997              		.thumb
 1998              		.thumb_func
 1999              		.fpu fpv5-sp-d16
 2001              	dns_setserver:
 2002              	.LFB155:
 365:Middlewares/Third_Party/LwIP/src/core/dns.c ****   if (numdns < DNS_MAX_SERVERS) {
 2003              		.loc 1 365 0
 2004              		.cfi_startproc
 2005              		@ args = 0, pretend = 0, frame = 0
 2006              		@ frame_needed = 0, uses_anonymous_args = 0
 2007              		@ link register save eliminated.
 2008              	.LVL246:
 366:Middlewares/Third_Party/LwIP/src/core/dns.c ****     if (dnsserver != NULL) {
 2009              		.loc 1 366 0
 2010 0000 0128     		cmp	r0, #1
 2011 0002 00D9     		bls	.L170
 2012              	.L167:
 373:Middlewares/Third_Party/LwIP/src/core/dns.c **** 
 2013              		.loc 1 373 0
 2014 0004 7047     		bx	lr
 2015              	.L170:
 367:Middlewares/Third_Party/LwIP/src/core/dns.c ****       dns_servers[numdns] = (*dnsserver);
 2016              		.loc 1 367 0
 2017 0006 21B1     		cbz	r1, .L169
 368:Middlewares/Third_Party/LwIP/src/core/dns.c ****     } else {
 2018              		.loc 1 368 0
 2019 0008 0A68     		ldr	r2, [r1]
 2020 000a 054B     		ldr	r3, .L171
 2021 000c 43F82020 		str	r2, [r3, r0, lsl #2]
 2022 0010 7047     		bx	lr
 2023              	.L169:
 370:Middlewares/Third_Party/LwIP/src/core/dns.c ****     }
 2024              		.loc 1 370 0
 2025 0012 044B     		ldr	r3, .L171+4
 2026 0014 1A68     		ldr	r2, [r3]
 2027 0016 024B     		ldr	r3, .L171
 2028 0018 43F82020 		str	r2, [r3, r0, lsl #2]
 373:Middlewares/Third_Party/LwIP/src/core/dns.c **** 
 2029              		.loc 1 373 0
 2030 001c F2E7     		b	.L167
 2031              	.L172:
 2032 001e 00BF     		.align	2
 2033              	.L171:
 2034 0020 00000000 		.word	.LANCHOR3
 2035 0024 00000000 		.word	ip_addr_any
 2036              		.cfi_endproc
 2037              	.LFE155:
 2039              		.section	.text.dns_getserver,"ax",%progbits
ARM GAS  C:\Users\milek\AppData\Local\Temp\ccm1c3Aw.s 			page 66


 2040              		.align	1
 2041              		.global	dns_getserver
 2042              		.syntax unified
 2043              		.thumb
 2044              		.thumb_func
 2045              		.fpu fpv5-sp-d16
 2047              	dns_getserver:
 2048              	.LFB156:
 385:Middlewares/Third_Party/LwIP/src/core/dns.c ****   if (numdns < DNS_MAX_SERVERS) {
 2049              		.loc 1 385 0
 2050              		.cfi_startproc
 2051              		@ args = 0, pretend = 0, frame = 0
 2052              		@ frame_needed = 0, uses_anonymous_args = 0
 2053              		@ link register save eliminated.
 2054              	.LVL247:
 386:Middlewares/Third_Party/LwIP/src/core/dns.c ****     return &dns_servers[numdns];
 2055              		.loc 1 386 0
 2056 0000 0128     		cmp	r0, #1
 2057 0002 01D9     		bls	.L176
 389:Middlewares/Third_Party/LwIP/src/core/dns.c ****   }
 2058              		.loc 1 389 0
 2059 0004 0248     		ldr	r0, .L177
 2060              	.LVL248:
 391:Middlewares/Third_Party/LwIP/src/core/dns.c **** 
 2061              		.loc 1 391 0
 2062 0006 7047     		bx	lr
 2063              	.LVL249:
 2064              	.L176:
 387:Middlewares/Third_Party/LwIP/src/core/dns.c ****   } else {
 2065              		.loc 1 387 0
 2066 0008 024B     		ldr	r3, .L177+4
 2067 000a 03EB8000 		add	r0, r3, r0, lsl #2
 2068              	.LVL250:
 2069 000e 7047     		bx	lr
 2070              	.L178:
 2071              		.align	2
 2072              	.L177:
 2073 0010 00000000 		.word	ip_addr_any
 2074 0014 00000000 		.word	.LANCHOR3
 2075              		.cfi_endproc
 2076              	.LFE156:
 2078              		.section	.text.dns_tmr,"ax",%progbits
 2079              		.align	1
 2080              		.global	dns_tmr
 2081              		.syntax unified
 2082              		.thumb
 2083              		.thumb_func
 2084              		.fpu fpv5-sp-d16
 2086              	dns_tmr:
 2087              	.LFB157:
 399:Middlewares/Third_Party/LwIP/src/core/dns.c ****   LWIP_DEBUGF(DNS_DEBUG, ("dns_tmr: dns_check_entries\n"));
 2088              		.loc 1 399 0
 2089              		.cfi_startproc
 2090              		@ args = 0, pretend = 0, frame = 0
 2091              		@ frame_needed = 0, uses_anonymous_args = 0
 2092 0000 08B5     		push	{r3, lr}
 2093              	.LCFI19:
ARM GAS  C:\Users\milek\AppData\Local\Temp\ccm1c3Aw.s 			page 67


 2094              		.cfi_def_cfa_offset 8
 2095              		.cfi_offset 3, -8
 2096              		.cfi_offset 14, -4
 401:Middlewares/Third_Party/LwIP/src/core/dns.c **** }
 2097              		.loc 1 401 0
 2098 0002 FFF7FEFF 		bl	dns_check_entries
 2099              	.LVL251:
 402:Middlewares/Third_Party/LwIP/src/core/dns.c **** 
 2100              		.loc 1 402 0
 2101 0006 08BD     		pop	{r3, pc}
 2102              		.cfi_endproc
 2103              	.LFE157:
 2105              		.section	.text.dns_gethostbyname_addrtype,"ax",%progbits
 2106              		.align	1
 2107              		.global	dns_gethostbyname_addrtype
 2108              		.syntax unified
 2109              		.thumb
 2110              		.thumb_func
 2111              		.fpu fpv5-sp-d16
 2113              	dns_gethostbyname_addrtype:
 2114              	.LFB172:
1446:Middlewares/Third_Party/LwIP/src/core/dns.c **** 
1447:Middlewares/Third_Party/LwIP/src/core/dns.c **** /**
1448:Middlewares/Third_Party/LwIP/src/core/dns.c ****  * @ingroup dns
1449:Middlewares/Third_Party/LwIP/src/core/dns.c ****  * Resolve a hostname (string) into an IP address.
1450:Middlewares/Third_Party/LwIP/src/core/dns.c ****  * NON-BLOCKING callback version for use with raw API!!!
1451:Middlewares/Third_Party/LwIP/src/core/dns.c ****  *
1452:Middlewares/Third_Party/LwIP/src/core/dns.c ****  * Returns immediately with one of err_t return codes:
1453:Middlewares/Third_Party/LwIP/src/core/dns.c ****  * - ERR_OK if hostname is a valid IP address string or the host
1454:Middlewares/Third_Party/LwIP/src/core/dns.c ****  *   name is already in the local names table.
1455:Middlewares/Third_Party/LwIP/src/core/dns.c ****  * - ERR_INPROGRESS enqueue a request to be sent to the DNS server
1456:Middlewares/Third_Party/LwIP/src/core/dns.c ****  *   for resolution if no errors are present.
1457:Middlewares/Third_Party/LwIP/src/core/dns.c ****  * - ERR_ARG: dns client not initialized or invalid hostname
1458:Middlewares/Third_Party/LwIP/src/core/dns.c ****  *
1459:Middlewares/Third_Party/LwIP/src/core/dns.c ****  * @param hostname the hostname that is to be queried
1460:Middlewares/Third_Party/LwIP/src/core/dns.c ****  * @param addr pointer to a ip_addr_t where to store the address if it is already
1461:Middlewares/Third_Party/LwIP/src/core/dns.c ****  *             cached in the dns_table (only valid if ERR_OK is returned!)
1462:Middlewares/Third_Party/LwIP/src/core/dns.c ****  * @param found a callback function to be called on success, failure or timeout (only if
1463:Middlewares/Third_Party/LwIP/src/core/dns.c ****  *              ERR_INPROGRESS is returned!)
1464:Middlewares/Third_Party/LwIP/src/core/dns.c ****  * @param callback_arg argument to pass to the callback function
1465:Middlewares/Third_Party/LwIP/src/core/dns.c ****  * @return a err_t return code.
1466:Middlewares/Third_Party/LwIP/src/core/dns.c ****  */
1467:Middlewares/Third_Party/LwIP/src/core/dns.c **** err_t
1468:Middlewares/Third_Party/LwIP/src/core/dns.c **** dns_gethostbyname(const char *hostname, ip_addr_t *addr, dns_found_callback found,
1469:Middlewares/Third_Party/LwIP/src/core/dns.c ****                   void *callback_arg)
1470:Middlewares/Third_Party/LwIP/src/core/dns.c **** {
1471:Middlewares/Third_Party/LwIP/src/core/dns.c ****   return dns_gethostbyname_addrtype(hostname, addr, found, callback_arg, LWIP_DNS_ADDRTYPE_DEFAULT)
1472:Middlewares/Third_Party/LwIP/src/core/dns.c **** }
1473:Middlewares/Third_Party/LwIP/src/core/dns.c **** 
1474:Middlewares/Third_Party/LwIP/src/core/dns.c **** /**
1475:Middlewares/Third_Party/LwIP/src/core/dns.c ****  * @ingroup dns
1476:Middlewares/Third_Party/LwIP/src/core/dns.c ****  * Like dns_gethostbyname, but returned address type can be controlled:
1477:Middlewares/Third_Party/LwIP/src/core/dns.c ****  * @param hostname the hostname that is to be queried
1478:Middlewares/Third_Party/LwIP/src/core/dns.c ****  * @param addr pointer to a ip_addr_t where to store the address if it is already
1479:Middlewares/Third_Party/LwIP/src/core/dns.c ****  *             cached in the dns_table (only valid if ERR_OK is returned!)
1480:Middlewares/Third_Party/LwIP/src/core/dns.c ****  * @param found a callback function to be called on success, failure or timeout (only if
1481:Middlewares/Third_Party/LwIP/src/core/dns.c ****  *              ERR_INPROGRESS is returned!)
ARM GAS  C:\Users\milek\AppData\Local\Temp\ccm1c3Aw.s 			page 68


1482:Middlewares/Third_Party/LwIP/src/core/dns.c ****  * @param callback_arg argument to pass to the callback function
1483:Middlewares/Third_Party/LwIP/src/core/dns.c ****  * @param dns_addrtype - LWIP_DNS_ADDRTYPE_IPV4_IPV6: try to resolve IPv4 first, try IPv6 if IPv4 f
1484:Middlewares/Third_Party/LwIP/src/core/dns.c ****  *                     - LWIP_DNS_ADDRTYPE_IPV6_IPV4: try to resolve IPv6 first, try IPv4 if IPv6 f
1485:Middlewares/Third_Party/LwIP/src/core/dns.c ****  *                     - LWIP_DNS_ADDRTYPE_IPV4: try to resolve IPv4 only
1486:Middlewares/Third_Party/LwIP/src/core/dns.c ****  *                     - LWIP_DNS_ADDRTYPE_IPV6: try to resolve IPv6 only
1487:Middlewares/Third_Party/LwIP/src/core/dns.c ****  */
1488:Middlewares/Third_Party/LwIP/src/core/dns.c **** err_t
1489:Middlewares/Third_Party/LwIP/src/core/dns.c **** dns_gethostbyname_addrtype(const char *hostname, ip_addr_t *addr, dns_found_callback found,
1490:Middlewares/Third_Party/LwIP/src/core/dns.c ****                            void *callback_arg, u8_t dns_addrtype)
1491:Middlewares/Third_Party/LwIP/src/core/dns.c **** {
 2115              		.loc 1 1491 0
 2116              		.cfi_startproc
 2117              		@ args = 4, pretend = 0, frame = 0
 2118              		@ frame_needed = 0, uses_anonymous_args = 0
 2119              	.LVL252:
 2120 0000 2DE9F041 		push	{r4, r5, r6, r7, r8, lr}
 2121              	.LCFI20:
 2122              		.cfi_def_cfa_offset 24
 2123              		.cfi_offset 4, -24
 2124              		.cfi_offset 5, -20
 2125              		.cfi_offset 6, -16
 2126              		.cfi_offset 7, -12
 2127              		.cfi_offset 8, -8
 2128              		.cfi_offset 14, -4
1492:Middlewares/Third_Party/LwIP/src/core/dns.c ****   size_t hostnamelen;
1493:Middlewares/Third_Party/LwIP/src/core/dns.c **** #if LWIP_DNS_SUPPORT_MDNS_QUERIES
1494:Middlewares/Third_Party/LwIP/src/core/dns.c ****   u8_t is_mdns;
1495:Middlewares/Third_Party/LwIP/src/core/dns.c **** #endif
1496:Middlewares/Third_Party/LwIP/src/core/dns.c ****   /* not initialized or no valid server yet, or invalid addr pointer
1497:Middlewares/Third_Party/LwIP/src/core/dns.c ****    * or invalid hostname or invalid hostname length */
1498:Middlewares/Third_Party/LwIP/src/core/dns.c ****   if ((addr == NULL) ||
1499:Middlewares/Third_Party/LwIP/src/core/dns.c ****       (!hostname) || (!hostname[0])) {
 2129              		.loc 1 1499 0
 2130 0004 0446     		mov	r4, r0
 2131 0006 B0FA80F0 		clz	r0, r0
 2132              	.LVL253:
 2133 000a 4009     		lsrs	r0, r0, #5
1498:Middlewares/Third_Party/LwIP/src/core/dns.c ****       (!hostname) || (!hostname[0])) {
 2134              		.loc 1 1498 0
 2135 000c 0029     		cmp	r1, #0
 2136 000e 08BF     		it	eq
 2137 0010 0120     		moveq	r0, #1
 2138 0012 28BB     		cbnz	r0, .L183
 2139 0014 0D46     		mov	r5, r1
 2140              		.loc 1 1499 0
 2141 0016 2178     		ldrb	r1, [r4]	@ zero_extendqisi2
 2142              	.LVL254:
 2143 0018 29B3     		cbz	r1, .L184
 2144 001a 9846     		mov	r8, r3
 2145 001c 1646     		mov	r6, r2
1500:Middlewares/Third_Party/LwIP/src/core/dns.c ****     return ERR_ARG;
1501:Middlewares/Third_Party/LwIP/src/core/dns.c ****   }
1502:Middlewares/Third_Party/LwIP/src/core/dns.c **** #if ((LWIP_DNS_SECURE & LWIP_DNS_SECURE_RAND_SRC_PORT) == 0)
1503:Middlewares/Third_Party/LwIP/src/core/dns.c ****   if (dns_pcbs[0] == NULL) {
1504:Middlewares/Third_Party/LwIP/src/core/dns.c ****     return ERR_ARG;
1505:Middlewares/Third_Party/LwIP/src/core/dns.c ****   }
1506:Middlewares/Third_Party/LwIP/src/core/dns.c **** #endif
ARM GAS  C:\Users\milek\AppData\Local\Temp\ccm1c3Aw.s 			page 69


1507:Middlewares/Third_Party/LwIP/src/core/dns.c ****   hostnamelen = strlen(hostname);
 2146              		.loc 1 1507 0
 2147 001e 2046     		mov	r0, r4
 2148 0020 FFF7FEFF 		bl	strlen
 2149              	.LVL255:
 2150 0024 0746     		mov	r7, r0
 2151              	.LVL256:
1508:Middlewares/Third_Party/LwIP/src/core/dns.c ****   if (hostnamelen >= DNS_MAX_NAME_LENGTH) {
 2152              		.loc 1 1508 0
 2153 0026 FF28     		cmp	r0, #255
 2154 0028 20D8     		bhi	.L185
1509:Middlewares/Third_Party/LwIP/src/core/dns.c ****     LWIP_DEBUGF(DNS_DEBUG, ("dns_gethostbyname: name too long to resolve"));
1510:Middlewares/Third_Party/LwIP/src/core/dns.c ****     return ERR_ARG;
1511:Middlewares/Third_Party/LwIP/src/core/dns.c ****   }
1512:Middlewares/Third_Party/LwIP/src/core/dns.c **** 
1513:Middlewares/Third_Party/LwIP/src/core/dns.c **** 
1514:Middlewares/Third_Party/LwIP/src/core/dns.c **** #if LWIP_HAVE_LOOPIF
1515:Middlewares/Third_Party/LwIP/src/core/dns.c ****   if (strcmp(hostname, "localhost") == 0) {
1516:Middlewares/Third_Party/LwIP/src/core/dns.c ****     ip_addr_set_loopback(LWIP_DNS_ADDRTYPE_IS_IPV6(dns_addrtype), addr);
1517:Middlewares/Third_Party/LwIP/src/core/dns.c ****     return ERR_OK;
1518:Middlewares/Third_Party/LwIP/src/core/dns.c ****   }
1519:Middlewares/Third_Party/LwIP/src/core/dns.c **** #endif /* LWIP_HAVE_LOOPIF */
1520:Middlewares/Third_Party/LwIP/src/core/dns.c **** 
1521:Middlewares/Third_Party/LwIP/src/core/dns.c ****   /* host name already in octet notation? set ip addr and return ERR_OK */
1522:Middlewares/Third_Party/LwIP/src/core/dns.c ****   if (ipaddr_aton(hostname, addr)) {
 2155              		.loc 1 1522 0
 2156 002a 2946     		mov	r1, r5
 2157 002c 2046     		mov	r0, r4
 2158              	.LVL257:
 2159 002e FFF7FEFF 		bl	ip4addr_aton
 2160              	.LVL258:
 2161 0032 18B1     		cbz	r0, .L189
1523:Middlewares/Third_Party/LwIP/src/core/dns.c **** #if LWIP_IPV4 && LWIP_IPV6
1524:Middlewares/Third_Party/LwIP/src/core/dns.c ****     if ((IP_IS_V6(addr) && (dns_addrtype != LWIP_DNS_ADDRTYPE_IPV4)) ||
1525:Middlewares/Third_Party/LwIP/src/core/dns.c ****         (IP_IS_V4(addr) && (dns_addrtype != LWIP_DNS_ADDRTYPE_IPV6)))
1526:Middlewares/Third_Party/LwIP/src/core/dns.c **** #endif /* LWIP_IPV4 && LWIP_IPV6 */
1527:Middlewares/Third_Party/LwIP/src/core/dns.c ****     {
1528:Middlewares/Third_Party/LwIP/src/core/dns.c ****       return ERR_OK;
 2162              		.loc 1 1528 0
 2163 0034 0022     		movs	r2, #0
 2164              	.LVL259:
 2165              	.L182:
1529:Middlewares/Third_Party/LwIP/src/core/dns.c ****     }
1530:Middlewares/Third_Party/LwIP/src/core/dns.c ****   }
1531:Middlewares/Third_Party/LwIP/src/core/dns.c ****   /* already have this address cached? */
1532:Middlewares/Third_Party/LwIP/src/core/dns.c ****   if (dns_lookup(hostname, addr LWIP_DNS_ADDRTYPE_ARG(dns_addrtype)) == ERR_OK) {
1533:Middlewares/Third_Party/LwIP/src/core/dns.c ****     return ERR_OK;
1534:Middlewares/Third_Party/LwIP/src/core/dns.c ****   }
1535:Middlewares/Third_Party/LwIP/src/core/dns.c **** #if LWIP_IPV4 && LWIP_IPV6
1536:Middlewares/Third_Party/LwIP/src/core/dns.c ****   if ((dns_addrtype == LWIP_DNS_ADDRTYPE_IPV4_IPV6) || (dns_addrtype == LWIP_DNS_ADDRTYPE_IPV6_IPV4
1537:Middlewares/Third_Party/LwIP/src/core/dns.c ****     /* fallback to 2nd IP type and try again to lookup */
1538:Middlewares/Third_Party/LwIP/src/core/dns.c ****     u8_t fallback;
1539:Middlewares/Third_Party/LwIP/src/core/dns.c ****     if (dns_addrtype == LWIP_DNS_ADDRTYPE_IPV4_IPV6) {
1540:Middlewares/Third_Party/LwIP/src/core/dns.c ****       fallback = LWIP_DNS_ADDRTYPE_IPV6;
1541:Middlewares/Third_Party/LwIP/src/core/dns.c ****     } else {
1542:Middlewares/Third_Party/LwIP/src/core/dns.c ****       fallback = LWIP_DNS_ADDRTYPE_IPV4;
1543:Middlewares/Third_Party/LwIP/src/core/dns.c ****     }
ARM GAS  C:\Users\milek\AppData\Local\Temp\ccm1c3Aw.s 			page 70


1544:Middlewares/Third_Party/LwIP/src/core/dns.c ****     if (dns_lookup(hostname, addr LWIP_DNS_ADDRTYPE_ARG(fallback)) == ERR_OK) {
1545:Middlewares/Third_Party/LwIP/src/core/dns.c ****       return ERR_OK;
1546:Middlewares/Third_Party/LwIP/src/core/dns.c ****     }
1547:Middlewares/Third_Party/LwIP/src/core/dns.c ****   }
1548:Middlewares/Third_Party/LwIP/src/core/dns.c **** #else /* LWIP_IPV4 && LWIP_IPV6 */
1549:Middlewares/Third_Party/LwIP/src/core/dns.c ****   LWIP_UNUSED_ARG(dns_addrtype);
1550:Middlewares/Third_Party/LwIP/src/core/dns.c **** #endif /* LWIP_IPV4 && LWIP_IPV6 */
1551:Middlewares/Third_Party/LwIP/src/core/dns.c **** 
1552:Middlewares/Third_Party/LwIP/src/core/dns.c **** #if LWIP_DNS_SUPPORT_MDNS_QUERIES
1553:Middlewares/Third_Party/LwIP/src/core/dns.c ****   if (strstr(hostname, ".local") == &hostname[hostnamelen] - 6) {
1554:Middlewares/Third_Party/LwIP/src/core/dns.c ****     is_mdns = 1;
1555:Middlewares/Third_Party/LwIP/src/core/dns.c ****   } else {
1556:Middlewares/Third_Party/LwIP/src/core/dns.c ****     is_mdns = 0;
1557:Middlewares/Third_Party/LwIP/src/core/dns.c ****   }
1558:Middlewares/Third_Party/LwIP/src/core/dns.c **** 
1559:Middlewares/Third_Party/LwIP/src/core/dns.c ****   if (!is_mdns)
1560:Middlewares/Third_Party/LwIP/src/core/dns.c **** #endif /* LWIP_DNS_SUPPORT_MDNS_QUERIES */
1561:Middlewares/Third_Party/LwIP/src/core/dns.c ****   {
1562:Middlewares/Third_Party/LwIP/src/core/dns.c ****     /* prevent calling found callback if no server is set, return error instead */
1563:Middlewares/Third_Party/LwIP/src/core/dns.c ****     if (ip_addr_isany_val(dns_servers[0])) {
1564:Middlewares/Third_Party/LwIP/src/core/dns.c ****       return ERR_VAL;
1565:Middlewares/Third_Party/LwIP/src/core/dns.c ****     }
1566:Middlewares/Third_Party/LwIP/src/core/dns.c ****   }
1567:Middlewares/Third_Party/LwIP/src/core/dns.c **** 
1568:Middlewares/Third_Party/LwIP/src/core/dns.c ****   /* queue query with specified callback */
1569:Middlewares/Third_Party/LwIP/src/core/dns.c ****   return dns_enqueue(hostname, hostnamelen, found, callback_arg LWIP_DNS_ADDRTYPE_ARG(dns_addrtype)
1570:Middlewares/Third_Party/LwIP/src/core/dns.c ****      LWIP_DNS_ISMDNS_ARG(is_mdns));
1571:Middlewares/Third_Party/LwIP/src/core/dns.c **** }
 2166              		.loc 1 1571 0
 2167 0036 1046     		mov	r0, r2
 2168 0038 BDE8F081 		pop	{r4, r5, r6, r7, r8, pc}
 2169              	.LVL260:
 2170              	.L189:
1532:Middlewares/Third_Party/LwIP/src/core/dns.c ****     return ERR_OK;
 2171              		.loc 1 1532 0
 2172 003c 2946     		mov	r1, r5
 2173 003e 2046     		mov	r0, r4
 2174 0040 FFF7FEFF 		bl	dns_lookup
 2175              	.LVL261:
 2176 0044 0246     		mov	r2, r0
 2177 0046 0028     		cmp	r0, #0
 2178 0048 F5D0     		beq	.L182
1563:Middlewares/Third_Party/LwIP/src/core/dns.c ****       return ERR_VAL;
 2179              		.loc 1 1563 0
 2180 004a 0B4B     		ldr	r3, .L190
 2181 004c 1B68     		ldr	r3, [r3]
 2182 004e 83B1     		cbz	r3, .L187
1569:Middlewares/Third_Party/LwIP/src/core/dns.c ****      LWIP_DNS_ISMDNS_ARG(is_mdns));
 2183              		.loc 1 1569 0
 2184 0050 4346     		mov	r3, r8
 2185 0052 3246     		mov	r2, r6
 2186 0054 3946     		mov	r1, r7
 2187 0056 2046     		mov	r0, r4
 2188 0058 FFF7FEFF 		bl	dns_enqueue
 2189              	.LVL262:
 2190 005c 0246     		mov	r2, r0
 2191 005e EAE7     		b	.L182
ARM GAS  C:\Users\milek\AppData\Local\Temp\ccm1c3Aw.s 			page 71


 2192              	.LVL263:
 2193              	.L183:
1500:Middlewares/Third_Party/LwIP/src/core/dns.c ****   }
 2194              		.loc 1 1500 0
 2195 0060 6FF00F02 		mvn	r2, #15
 2196              	.LVL264:
 2197 0064 E7E7     		b	.L182
 2198              	.LVL265:
 2199              	.L184:
 2200 0066 6FF00F02 		mvn	r2, #15
 2201              	.LVL266:
 2202 006a E4E7     		b	.L182
 2203              	.LVL267:
 2204              	.L185:
1510:Middlewares/Third_Party/LwIP/src/core/dns.c ****   }
 2205              		.loc 1 1510 0
 2206 006c 6FF00F02 		mvn	r2, #15
 2207 0070 E1E7     		b	.L182
 2208              	.LVL268:
 2209              	.L187:
1564:Middlewares/Third_Party/LwIP/src/core/dns.c ****     }
 2210              		.loc 1 1564 0
 2211 0072 6FF00502 		mvn	r2, #5
 2212 0076 DEE7     		b	.L182
 2213              	.L191:
 2214              		.align	2
 2215              	.L190:
 2216 0078 00000000 		.word	.LANCHOR3
 2217              		.cfi_endproc
 2218              	.LFE172:
 2220              		.section	.text.dns_gethostbyname,"ax",%progbits
 2221              		.align	1
 2222              		.global	dns_gethostbyname
 2223              		.syntax unified
 2224              		.thumb
 2225              		.thumb_func
 2226              		.fpu fpv5-sp-d16
 2228              	dns_gethostbyname:
 2229              	.LFB171:
1470:Middlewares/Third_Party/LwIP/src/core/dns.c ****   return dns_gethostbyname_addrtype(hostname, addr, found, callback_arg, LWIP_DNS_ADDRTYPE_DEFAULT)
 2230              		.loc 1 1470 0
 2231              		.cfi_startproc
 2232              		@ args = 0, pretend = 0, frame = 0
 2233              		@ frame_needed = 0, uses_anonymous_args = 0
 2234              	.LVL269:
 2235 0000 10B5     		push	{r4, lr}
 2236              	.LCFI21:
 2237              		.cfi_def_cfa_offset 8
 2238              		.cfi_offset 4, -8
 2239              		.cfi_offset 14, -4
 2240 0002 82B0     		sub	sp, sp, #8
 2241              	.LCFI22:
 2242              		.cfi_def_cfa_offset 16
1471:Middlewares/Third_Party/LwIP/src/core/dns.c **** }
 2243              		.loc 1 1471 0
 2244 0004 0024     		movs	r4, #0
 2245 0006 0094     		str	r4, [sp]
ARM GAS  C:\Users\milek\AppData\Local\Temp\ccm1c3Aw.s 			page 72


 2246 0008 FFF7FEFF 		bl	dns_gethostbyname_addrtype
 2247              	.LVL270:
1472:Middlewares/Third_Party/LwIP/src/core/dns.c **** 
 2248              		.loc 1 1472 0
 2249 000c 02B0     		add	sp, sp, #8
 2250              	.LCFI23:
 2251              		.cfi_def_cfa_offset 8
 2252              		@ sp needed
 2253 000e 10BD     		pop	{r4, pc}
 2254              		.cfi_endproc
 2255              	.LFE171:
 2257              		.global	dns_mquery_v4group
 2258              		.section	.bss.dns_last_pcb_idx,"aw",%nobits
 2259              		.set	.LANCHOR4,. + 0
 2262              	dns_last_pcb_idx:
 2263 0000 00       		.space	1
 2264              		.section	.bss.dns_pcbs,"aw",%nobits
 2265              		.align	2
 2266              		.set	.LANCHOR2,. + 0
 2269              	dns_pcbs:
 2270 0000 00000000 		.space	16
 2270      00000000 
 2270      00000000 
 2270      00000000 
 2271              		.section	.bss.dns_requests,"aw",%nobits
 2272              		.align	2
 2273              		.set	.LANCHOR1,. + 0
 2276              	dns_requests:
 2277 0000 00000000 		.space	48
 2277      00000000 
 2277      00000000 
 2277      00000000 
 2277      00000000 
 2278              		.section	.bss.dns_seqno,"aw",%nobits
 2279              		.set	.LANCHOR5,. + 0
 2282              	dns_seqno:
 2283 0000 00       		.space	1
 2284              		.section	.bss.dns_servers,"aw",%nobits
 2285              		.align	2
 2286              		.set	.LANCHOR3,. + 0
 2289              	dns_servers:
 2290 0000 00000000 		.space	8
 2290      00000000 
 2291              		.section	.bss.dns_table,"aw",%nobits
 2292              		.align	2
 2293              		.set	.LANCHOR0,. + 0
 2296              	dns_table:
 2297 0000 00000000 		.space	1088
 2297      00000000 
 2297      00000000 
 2297      00000000 
 2297      00000000 
 2298              		.section	.rodata.dns_check_entry.str1.4,"aMS",%progbits,1
 2299              		.align	2
 2300              	.LC3:
 2301 0000 61727261 		.ascii	"array index out of bounds\000"
 2301      7920696E 
ARM GAS  C:\Users\milek\AppData\Local\Temp\ccm1c3Aw.s 			page 73


 2301      64657820 
 2301      6F757420 
 2301      6F662062 
 2302 001a 0000     		.space	2
 2303              	.LC4:
 2304 001c 756E6B6E 		.ascii	"unknown dns_table entry state:\000"
 2304      6F776E20 
 2304      646E735F 
 2304      7461626C 
 2304      6520656E 
 2305              		.section	.rodata.dns_mquery_v4group,"a",%progbits
 2306              		.align	2
 2309              	dns_mquery_v4group:
 2310 0000 E00000FB 		.word	-83885856
 2311              		.section	.rodata.dns_send.str1.4,"aMS",%progbits,1
 2312              		.align	2
 2313              	.LC0:
 2314 0000 4D696464 		.ascii	"Middlewares/Third_Party/LwIP/src/core/dns.c\000"
 2314      6C657761 
 2314      7265732F 
 2314      54686972 
 2314      645F5061 
 2315              	.LC1:
 2316 002c 646E7320 		.ascii	"dns server out of array\000"
 2316      73657276 
 2316      6572206F 
 2316      7574206F 
 2316      66206172 
 2317              	.LC2:
 2318 0044 41737365 		.ascii	"Assertion \"%s\" failed at line %d in %s\012\000"
 2318      7274696F 
 2318      6E202225 
 2318      73222066 
 2318      61696C65 
 2319              		.text
 2320              	.Letext0:
 2321              		.file 2 "d:\\program files (x86)\\gnu\\7_2018-q2-update\\arm-none-eabi\\include\\machine\\_default
 2322              		.file 3 "d:\\program files (x86)\\gnu\\7_2018-q2-update\\arm-none-eabi\\include\\sys\\_stdint.h"
 2323              		.file 4 "Drivers/CMSIS/Include/core_cm7.h"
 2324              		.file 5 "Drivers/CMSIS/Device/ST/STM32F7xx/Include/system_stm32f7xx.h"
 2325              		.file 6 "d:\\program files (x86)\\gnu\\7_2018-q2-update\\lib\\gcc\\arm-none-eabi\\7.3.1\\include\\
 2326              		.file 7 "d:\\program files (x86)\\gnu\\7_2018-q2-update\\arm-none-eabi\\include\\sys\\lock.h"
 2327              		.file 8 "d:\\program files (x86)\\gnu\\7_2018-q2-update\\arm-none-eabi\\include\\sys\\_types.h"
 2328              		.file 9 "d:\\program files (x86)\\gnu\\7_2018-q2-update\\arm-none-eabi\\include\\sys\\reent.h"
 2329              		.file 10 "d:\\program files (x86)\\gnu\\7_2018-q2-update\\arm-none-eabi\\include\\stdlib.h"
 2330              		.file 11 "d:\\program files (x86)\\gnu\\7_2018-q2-update\\arm-none-eabi\\include\\time.h"
 2331              		.file 12 "Middlewares/Third_Party/LwIP/src/include/lwip/arch.h"
 2332              		.file 13 "Middlewares/Third_Party/LwIP/src/include/lwip/err.h"
 2333              		.file 14 "Middlewares/Third_Party/LwIP/src/include/lwip/pbuf.h"
 2334              		.file 15 "Middlewares/Third_Party/LwIP/src/include/lwip/ip4_addr.h"
 2335              		.file 16 "Middlewares/Third_Party/LwIP/src/include/lwip/ip_addr.h"
 2336              		.file 17 "Middlewares/Third_Party/LwIP/src/include/lwip/memp.h"
 2337              		.file 18 "Middlewares/Third_Party/LwIP/src/include/lwip/priv/memp_priv.h"
 2338              		.file 19 "Middlewares/Third_Party/LwIP/src/include/lwip/netif.h"
 2339              		.file 20 "Middlewares/Third_Party/LwIP/src/include/lwip/prot/ip4.h"
 2340              		.file 21 "Middlewares/Third_Party/LwIP/src/include/lwip/ip.h"
 2341              		.file 22 "Middlewares/Third_Party/LwIP/src/include/lwip/udp.h"
ARM GAS  C:\Users\milek\AppData\Local\Temp\ccm1c3Aw.s 			page 74


 2342              		.file 23 "Middlewares/Third_Party/LwIP/src/include/lwip/dns.h"
 2343              		.file 24 "Middlewares/Third_Party/LwIP/src/include/lwip/prot/dns.h"
 2344              		.file 25 "d:\\program files (x86)\\gnu\\7_2018-q2-update\\arm-none-eabi\\include\\string.h"
 2345              		.file 26 "Middlewares/Third_Party/LwIP/src/include/lwip/def.h"
 2346              		.file 27 "d:\\program files (x86)\\gnu\\7_2018-q2-update\\arm-none-eabi\\include\\stdio.h"
 2347              		.file 28 "<built-in>"
ARM GAS  C:\Users\milek\AppData\Local\Temp\ccm1c3Aw.s 			page 75

