ARM GAS  C:\Users\Student\AppData\Local\Temp\ccULT5Xy.s 			page 1


   1              		.cpu cortex-m7
   2              		.eabi_attribute 27, 1
   3              		.eabi_attribute 28, 1
   4              		.eabi_attribute 20, 1
   5              		.eabi_attribute 21, 1
   6              		.eabi_attribute 23, 3
   7              		.eabi_attribute 24, 1
   8              		.eabi_attribute 25, 1
   9              		.eabi_attribute 26, 1
  10              		.eabi_attribute 30, 1
  11              		.eabi_attribute 34, 1
  12              		.eabi_attribute 18, 4
  13              		.file	"etharp.c"
  14              		.text
  15              	.Ltext0:
  16              		.cfi_sections	.debug_frame
  17              		.section	.text.etharp_free_entry,"ax",%progbits
  18              		.align	1
  19              		.syntax unified
  20              		.thumb
  21              		.thumb_func
  22              		.fpu fpv5-sp-d16
  24              	etharp_free_entry:
  25              	.LFB152:
  26              		.file 1 "Middlewares/Third_Party/LwIP/src/core/ipv4/etharp.c"
   1:Middlewares/Third_Party/LwIP/src/core/ipv4/etharp.c **** /**
   2:Middlewares/Third_Party/LwIP/src/core/ipv4/etharp.c ****  * @file
   3:Middlewares/Third_Party/LwIP/src/core/ipv4/etharp.c ****  * Address Resolution Protocol module for IP over Ethernet
   4:Middlewares/Third_Party/LwIP/src/core/ipv4/etharp.c ****  *
   5:Middlewares/Third_Party/LwIP/src/core/ipv4/etharp.c ****  * Functionally, ARP is divided into two parts. The first maps an IP address
   6:Middlewares/Third_Party/LwIP/src/core/ipv4/etharp.c ****  * to a physical address when sending a packet, and the second part answers
   7:Middlewares/Third_Party/LwIP/src/core/ipv4/etharp.c ****  * requests from other machines for our physical address.
   8:Middlewares/Third_Party/LwIP/src/core/ipv4/etharp.c ****  *
   9:Middlewares/Third_Party/LwIP/src/core/ipv4/etharp.c ****  * This implementation complies with RFC 826 (Ethernet ARP). It supports
  10:Middlewares/Third_Party/LwIP/src/core/ipv4/etharp.c ****  * Gratuitious ARP from RFC3220 (IP Mobility Support for IPv4) section 4.6
  11:Middlewares/Third_Party/LwIP/src/core/ipv4/etharp.c ****  * if an interface calls etharp_gratuitous(our_netif) upon address change.
  12:Middlewares/Third_Party/LwIP/src/core/ipv4/etharp.c ****  */
  13:Middlewares/Third_Party/LwIP/src/core/ipv4/etharp.c **** 
  14:Middlewares/Third_Party/LwIP/src/core/ipv4/etharp.c **** /*
  15:Middlewares/Third_Party/LwIP/src/core/ipv4/etharp.c ****  * Copyright (c) 2001-2003 Swedish Institute of Computer Science.
  16:Middlewares/Third_Party/LwIP/src/core/ipv4/etharp.c ****  * Copyright (c) 2003-2004 Leon Woestenberg <leon.woestenberg@axon.tv>
  17:Middlewares/Third_Party/LwIP/src/core/ipv4/etharp.c ****  * Copyright (c) 2003-2004 Axon Digital Design B.V., The Netherlands.
  18:Middlewares/Third_Party/LwIP/src/core/ipv4/etharp.c ****  * All rights reserved.
  19:Middlewares/Third_Party/LwIP/src/core/ipv4/etharp.c ****  *
  20:Middlewares/Third_Party/LwIP/src/core/ipv4/etharp.c ****  * Redistribution and use in source and binary forms, with or without modification,
  21:Middlewares/Third_Party/LwIP/src/core/ipv4/etharp.c ****  * are permitted provided that the following conditions are met:
  22:Middlewares/Third_Party/LwIP/src/core/ipv4/etharp.c ****  *
  23:Middlewares/Third_Party/LwIP/src/core/ipv4/etharp.c ****  * 1. Redistributions of source code must retain the above copyright notice,
  24:Middlewares/Third_Party/LwIP/src/core/ipv4/etharp.c ****  *    this list of conditions and the following disclaimer.
  25:Middlewares/Third_Party/LwIP/src/core/ipv4/etharp.c ****  * 2. Redistributions in binary form must reproduce the above copyright notice,
  26:Middlewares/Third_Party/LwIP/src/core/ipv4/etharp.c ****  *    this list of conditions and the following disclaimer in the documentation
  27:Middlewares/Third_Party/LwIP/src/core/ipv4/etharp.c ****  *    and/or other materials provided with the distribution.
  28:Middlewares/Third_Party/LwIP/src/core/ipv4/etharp.c ****  * 3. The name of the author may not be used to endorse or promote products
  29:Middlewares/Third_Party/LwIP/src/core/ipv4/etharp.c ****  *    derived from this software without specific prior written permission.
  30:Middlewares/Third_Party/LwIP/src/core/ipv4/etharp.c ****  *
  31:Middlewares/Third_Party/LwIP/src/core/ipv4/etharp.c ****  * THIS SOFTWARE IS PROVIDED BY THE AUTHOR ``AS IS'' AND ANY EXPRESS OR IMPLIED
  32:Middlewares/Third_Party/LwIP/src/core/ipv4/etharp.c ****  * WARRANTIES, INCLUDING, BUT NOT LIMITED TO, THE IMPLIED WARRANTIES OF
ARM GAS  C:\Users\Student\AppData\Local\Temp\ccULT5Xy.s 			page 2


  33:Middlewares/Third_Party/LwIP/src/core/ipv4/etharp.c ****  * MERCHANTABILITY AND FITNESS FOR A PARTICULAR PURPOSE ARE DISCLAIMED. IN NO EVENT
  34:Middlewares/Third_Party/LwIP/src/core/ipv4/etharp.c ****  * SHALL THE AUTHOR BE LIABLE FOR ANY DIRECT, INDIRECT, INCIDENTAL, SPECIAL,
  35:Middlewares/Third_Party/LwIP/src/core/ipv4/etharp.c ****  * EXEMPLARY, OR CONSEQUENTIAL DAMAGES (INCLUDING, BUT NOT LIMITED TO, PROCUREMENT
  36:Middlewares/Third_Party/LwIP/src/core/ipv4/etharp.c ****  * OF SUBSTITUTE GOODS OR SERVICES; LOSS OF USE, DATA, OR PROFITS; OR BUSINESS
  37:Middlewares/Third_Party/LwIP/src/core/ipv4/etharp.c ****  * INTERRUPTION) HOWEVER CAUSED AND ON ANY THEORY OF LIABILITY, WHETHER IN
  38:Middlewares/Third_Party/LwIP/src/core/ipv4/etharp.c ****  * CONTRACT, STRICT LIABILITY, OR TORT (INCLUDING NEGLIGENCE OR OTHERWISE) ARISING
  39:Middlewares/Third_Party/LwIP/src/core/ipv4/etharp.c ****  * IN ANY WAY OUT OF THE USE OF THIS SOFTWARE, EVEN IF ADVISED OF THE POSSIBILITY
  40:Middlewares/Third_Party/LwIP/src/core/ipv4/etharp.c ****  * OF SUCH DAMAGE.
  41:Middlewares/Third_Party/LwIP/src/core/ipv4/etharp.c ****  *
  42:Middlewares/Third_Party/LwIP/src/core/ipv4/etharp.c ****  * This file is part of the lwIP TCP/IP stack.
  43:Middlewares/Third_Party/LwIP/src/core/ipv4/etharp.c ****  *
  44:Middlewares/Third_Party/LwIP/src/core/ipv4/etharp.c ****  */
  45:Middlewares/Third_Party/LwIP/src/core/ipv4/etharp.c **** 
  46:Middlewares/Third_Party/LwIP/src/core/ipv4/etharp.c **** #include "lwip/opt.h"
  47:Middlewares/Third_Party/LwIP/src/core/ipv4/etharp.c **** 
  48:Middlewares/Third_Party/LwIP/src/core/ipv4/etharp.c **** #if LWIP_ARP || LWIP_ETHERNET
  49:Middlewares/Third_Party/LwIP/src/core/ipv4/etharp.c **** 
  50:Middlewares/Third_Party/LwIP/src/core/ipv4/etharp.c **** #include "lwip/etharp.h"
  51:Middlewares/Third_Party/LwIP/src/core/ipv4/etharp.c **** #include "lwip/stats.h"
  52:Middlewares/Third_Party/LwIP/src/core/ipv4/etharp.c **** #include "lwip/snmp.h"
  53:Middlewares/Third_Party/LwIP/src/core/ipv4/etharp.c **** #include "lwip/dhcp.h"
  54:Middlewares/Third_Party/LwIP/src/core/ipv4/etharp.c **** #include "lwip/autoip.h"
  55:Middlewares/Third_Party/LwIP/src/core/ipv4/etharp.c **** #include "netif/ethernet.h"
  56:Middlewares/Third_Party/LwIP/src/core/ipv4/etharp.c **** 
  57:Middlewares/Third_Party/LwIP/src/core/ipv4/etharp.c **** #include <string.h>
  58:Middlewares/Third_Party/LwIP/src/core/ipv4/etharp.c **** 
  59:Middlewares/Third_Party/LwIP/src/core/ipv4/etharp.c **** #ifdef LWIP_HOOK_FILENAME
  60:Middlewares/Third_Party/LwIP/src/core/ipv4/etharp.c **** #include LWIP_HOOK_FILENAME
  61:Middlewares/Third_Party/LwIP/src/core/ipv4/etharp.c **** #endif
  62:Middlewares/Third_Party/LwIP/src/core/ipv4/etharp.c **** 
  63:Middlewares/Third_Party/LwIP/src/core/ipv4/etharp.c **** #if LWIP_IPV4 && LWIP_ARP /* don't build if not configured for use in lwipopts.h */
  64:Middlewares/Third_Party/LwIP/src/core/ipv4/etharp.c **** 
  65:Middlewares/Third_Party/LwIP/src/core/ipv4/etharp.c **** /** Re-request a used ARP entry 1 minute before it would expire to prevent
  66:Middlewares/Third_Party/LwIP/src/core/ipv4/etharp.c ****  *  breaking a steadily used connection because the ARP entry timed out. */
  67:Middlewares/Third_Party/LwIP/src/core/ipv4/etharp.c **** #define ARP_AGE_REREQUEST_USED_UNICAST   (ARP_MAXAGE - 30)
  68:Middlewares/Third_Party/LwIP/src/core/ipv4/etharp.c **** #define ARP_AGE_REREQUEST_USED_BROADCAST (ARP_MAXAGE - 15)
  69:Middlewares/Third_Party/LwIP/src/core/ipv4/etharp.c **** 
  70:Middlewares/Third_Party/LwIP/src/core/ipv4/etharp.c **** /** the time an ARP entry stays pending after first request,
  71:Middlewares/Third_Party/LwIP/src/core/ipv4/etharp.c ****  *  for ARP_TMR_INTERVAL = 1000, this is
  72:Middlewares/Third_Party/LwIP/src/core/ipv4/etharp.c ****  *  10 seconds.
  73:Middlewares/Third_Party/LwIP/src/core/ipv4/etharp.c ****  *
  74:Middlewares/Third_Party/LwIP/src/core/ipv4/etharp.c ****  *  @internal Keep this number at least 2, otherwise it might
  75:Middlewares/Third_Party/LwIP/src/core/ipv4/etharp.c ****  *  run out instantly if the timeout occurs directly after a request.
  76:Middlewares/Third_Party/LwIP/src/core/ipv4/etharp.c ****  */
  77:Middlewares/Third_Party/LwIP/src/core/ipv4/etharp.c **** #define ARP_MAXPENDING 5
  78:Middlewares/Third_Party/LwIP/src/core/ipv4/etharp.c **** 
  79:Middlewares/Third_Party/LwIP/src/core/ipv4/etharp.c **** /** ARP states */
  80:Middlewares/Third_Party/LwIP/src/core/ipv4/etharp.c **** enum etharp_state {
  81:Middlewares/Third_Party/LwIP/src/core/ipv4/etharp.c ****   ETHARP_STATE_EMPTY = 0,
  82:Middlewares/Third_Party/LwIP/src/core/ipv4/etharp.c ****   ETHARP_STATE_PENDING,
  83:Middlewares/Third_Party/LwIP/src/core/ipv4/etharp.c ****   ETHARP_STATE_STABLE,
  84:Middlewares/Third_Party/LwIP/src/core/ipv4/etharp.c ****   ETHARP_STATE_STABLE_REREQUESTING_1,
  85:Middlewares/Third_Party/LwIP/src/core/ipv4/etharp.c ****   ETHARP_STATE_STABLE_REREQUESTING_2
  86:Middlewares/Third_Party/LwIP/src/core/ipv4/etharp.c **** #if ETHARP_SUPPORT_STATIC_ENTRIES
  87:Middlewares/Third_Party/LwIP/src/core/ipv4/etharp.c ****   ,ETHARP_STATE_STATIC
  88:Middlewares/Third_Party/LwIP/src/core/ipv4/etharp.c **** #endif /* ETHARP_SUPPORT_STATIC_ENTRIES */
  89:Middlewares/Third_Party/LwIP/src/core/ipv4/etharp.c **** };
ARM GAS  C:\Users\Student\AppData\Local\Temp\ccULT5Xy.s 			page 3


  90:Middlewares/Third_Party/LwIP/src/core/ipv4/etharp.c **** 
  91:Middlewares/Third_Party/LwIP/src/core/ipv4/etharp.c **** struct etharp_entry {
  92:Middlewares/Third_Party/LwIP/src/core/ipv4/etharp.c **** #if ARP_QUEUEING
  93:Middlewares/Third_Party/LwIP/src/core/ipv4/etharp.c ****   /** Pointer to queue of pending outgoing packets on this ARP entry. */
  94:Middlewares/Third_Party/LwIP/src/core/ipv4/etharp.c ****   struct etharp_q_entry *q;
  95:Middlewares/Third_Party/LwIP/src/core/ipv4/etharp.c **** #else /* ARP_QUEUEING */
  96:Middlewares/Third_Party/LwIP/src/core/ipv4/etharp.c ****   /** Pointer to a single pending outgoing packet on this ARP entry. */
  97:Middlewares/Third_Party/LwIP/src/core/ipv4/etharp.c ****   struct pbuf *q;
  98:Middlewares/Third_Party/LwIP/src/core/ipv4/etharp.c **** #endif /* ARP_QUEUEING */
  99:Middlewares/Third_Party/LwIP/src/core/ipv4/etharp.c ****   ip4_addr_t ipaddr;
 100:Middlewares/Third_Party/LwIP/src/core/ipv4/etharp.c ****   struct netif *netif;
 101:Middlewares/Third_Party/LwIP/src/core/ipv4/etharp.c ****   struct eth_addr ethaddr;
 102:Middlewares/Third_Party/LwIP/src/core/ipv4/etharp.c ****   u16_t ctime;
 103:Middlewares/Third_Party/LwIP/src/core/ipv4/etharp.c ****   u8_t state;
 104:Middlewares/Third_Party/LwIP/src/core/ipv4/etharp.c **** };
 105:Middlewares/Third_Party/LwIP/src/core/ipv4/etharp.c **** 
 106:Middlewares/Third_Party/LwIP/src/core/ipv4/etharp.c **** static struct etharp_entry arp_table[ARP_TABLE_SIZE];
 107:Middlewares/Third_Party/LwIP/src/core/ipv4/etharp.c **** 
 108:Middlewares/Third_Party/LwIP/src/core/ipv4/etharp.c **** #if !LWIP_NETIF_HWADDRHINT
 109:Middlewares/Third_Party/LwIP/src/core/ipv4/etharp.c **** static u8_t etharp_cached_entry;
 110:Middlewares/Third_Party/LwIP/src/core/ipv4/etharp.c **** #endif /* !LWIP_NETIF_HWADDRHINT */
 111:Middlewares/Third_Party/LwIP/src/core/ipv4/etharp.c **** 
 112:Middlewares/Third_Party/LwIP/src/core/ipv4/etharp.c **** /** Try hard to create a new entry - we want the IP address to appear in
 113:Middlewares/Third_Party/LwIP/src/core/ipv4/etharp.c ****     the cache (even if this means removing an active entry or so). */
 114:Middlewares/Third_Party/LwIP/src/core/ipv4/etharp.c **** #define ETHARP_FLAG_TRY_HARD     1
 115:Middlewares/Third_Party/LwIP/src/core/ipv4/etharp.c **** #define ETHARP_FLAG_FIND_ONLY    2
 116:Middlewares/Third_Party/LwIP/src/core/ipv4/etharp.c **** #if ETHARP_SUPPORT_STATIC_ENTRIES
 117:Middlewares/Third_Party/LwIP/src/core/ipv4/etharp.c **** #define ETHARP_FLAG_STATIC_ENTRY 4
 118:Middlewares/Third_Party/LwIP/src/core/ipv4/etharp.c **** #endif /* ETHARP_SUPPORT_STATIC_ENTRIES */
 119:Middlewares/Third_Party/LwIP/src/core/ipv4/etharp.c **** 
 120:Middlewares/Third_Party/LwIP/src/core/ipv4/etharp.c **** #if LWIP_NETIF_HWADDRHINT
 121:Middlewares/Third_Party/LwIP/src/core/ipv4/etharp.c **** #define ETHARP_SET_HINT(netif, hint)  if (((netif) != NULL) && ((netif)->addr_hint != NULL))  \
 122:Middlewares/Third_Party/LwIP/src/core/ipv4/etharp.c ****                                       *((netif)->addr_hint) = (hint);
 123:Middlewares/Third_Party/LwIP/src/core/ipv4/etharp.c **** #else /* LWIP_NETIF_HWADDRHINT */
 124:Middlewares/Third_Party/LwIP/src/core/ipv4/etharp.c **** #define ETHARP_SET_HINT(netif, hint)  (etharp_cached_entry = (hint))
 125:Middlewares/Third_Party/LwIP/src/core/ipv4/etharp.c **** #endif /* LWIP_NETIF_HWADDRHINT */
 126:Middlewares/Third_Party/LwIP/src/core/ipv4/etharp.c **** 
 127:Middlewares/Third_Party/LwIP/src/core/ipv4/etharp.c **** 
 128:Middlewares/Third_Party/LwIP/src/core/ipv4/etharp.c **** /* Some checks, instead of etharp_init(): */
 129:Middlewares/Third_Party/LwIP/src/core/ipv4/etharp.c **** #if (LWIP_ARP && (ARP_TABLE_SIZE > 0x7f))
 130:Middlewares/Third_Party/LwIP/src/core/ipv4/etharp.c ****   #error "ARP_TABLE_SIZE must fit in an s8_t, you have to reduce it in your lwipopts.h"
 131:Middlewares/Third_Party/LwIP/src/core/ipv4/etharp.c **** #endif
 132:Middlewares/Third_Party/LwIP/src/core/ipv4/etharp.c **** 
 133:Middlewares/Third_Party/LwIP/src/core/ipv4/etharp.c **** 
 134:Middlewares/Third_Party/LwIP/src/core/ipv4/etharp.c **** static err_t etharp_request_dst(struct netif *netif, const ip4_addr_t *ipaddr, const struct eth_add
 135:Middlewares/Third_Party/LwIP/src/core/ipv4/etharp.c **** static err_t etharp_raw(struct netif *netif,
 136:Middlewares/Third_Party/LwIP/src/core/ipv4/etharp.c ****                         const struct eth_addr *ethsrc_addr, const struct eth_addr *ethdst_addr,
 137:Middlewares/Third_Party/LwIP/src/core/ipv4/etharp.c ****                         const struct eth_addr *hwsrc_addr, const ip4_addr_t *ipsrc_addr,
 138:Middlewares/Third_Party/LwIP/src/core/ipv4/etharp.c ****                         const struct eth_addr *hwdst_addr, const ip4_addr_t *ipdst_addr,
 139:Middlewares/Third_Party/LwIP/src/core/ipv4/etharp.c ****                         const u16_t opcode);
 140:Middlewares/Third_Party/LwIP/src/core/ipv4/etharp.c **** 
 141:Middlewares/Third_Party/LwIP/src/core/ipv4/etharp.c **** #if ARP_QUEUEING
 142:Middlewares/Third_Party/LwIP/src/core/ipv4/etharp.c **** /**
 143:Middlewares/Third_Party/LwIP/src/core/ipv4/etharp.c ****  * Free a complete queue of etharp entries
 144:Middlewares/Third_Party/LwIP/src/core/ipv4/etharp.c ****  *
 145:Middlewares/Third_Party/LwIP/src/core/ipv4/etharp.c ****  * @param q a qeueue of etharp_q_entry's to free
 146:Middlewares/Third_Party/LwIP/src/core/ipv4/etharp.c ****  */
ARM GAS  C:\Users\Student\AppData\Local\Temp\ccULT5Xy.s 			page 4


 147:Middlewares/Third_Party/LwIP/src/core/ipv4/etharp.c **** static void
 148:Middlewares/Third_Party/LwIP/src/core/ipv4/etharp.c **** free_etharp_q(struct etharp_q_entry *q)
 149:Middlewares/Third_Party/LwIP/src/core/ipv4/etharp.c **** {
 150:Middlewares/Third_Party/LwIP/src/core/ipv4/etharp.c ****   struct etharp_q_entry *r;
 151:Middlewares/Third_Party/LwIP/src/core/ipv4/etharp.c ****   LWIP_ASSERT("q != NULL", q != NULL);
 152:Middlewares/Third_Party/LwIP/src/core/ipv4/etharp.c ****   LWIP_ASSERT("q->p != NULL", q->p != NULL);
 153:Middlewares/Third_Party/LwIP/src/core/ipv4/etharp.c ****   while (q) {
 154:Middlewares/Third_Party/LwIP/src/core/ipv4/etharp.c ****     r = q;
 155:Middlewares/Third_Party/LwIP/src/core/ipv4/etharp.c ****     q = q->next;
 156:Middlewares/Third_Party/LwIP/src/core/ipv4/etharp.c ****     LWIP_ASSERT("r->p != NULL", (r->p != NULL));
 157:Middlewares/Third_Party/LwIP/src/core/ipv4/etharp.c ****     pbuf_free(r->p);
 158:Middlewares/Third_Party/LwIP/src/core/ipv4/etharp.c ****     memp_free(MEMP_ARP_QUEUE, r);
 159:Middlewares/Third_Party/LwIP/src/core/ipv4/etharp.c ****   }
 160:Middlewares/Third_Party/LwIP/src/core/ipv4/etharp.c **** }
 161:Middlewares/Third_Party/LwIP/src/core/ipv4/etharp.c **** #else /* ARP_QUEUEING */
 162:Middlewares/Third_Party/LwIP/src/core/ipv4/etharp.c **** 
 163:Middlewares/Third_Party/LwIP/src/core/ipv4/etharp.c **** /** Compatibility define: free the queued pbuf */
 164:Middlewares/Third_Party/LwIP/src/core/ipv4/etharp.c **** #define free_etharp_q(q) pbuf_free(q)
 165:Middlewares/Third_Party/LwIP/src/core/ipv4/etharp.c **** 
 166:Middlewares/Third_Party/LwIP/src/core/ipv4/etharp.c **** #endif /* ARP_QUEUEING */
 167:Middlewares/Third_Party/LwIP/src/core/ipv4/etharp.c **** 
 168:Middlewares/Third_Party/LwIP/src/core/ipv4/etharp.c **** /** Clean up ARP table entries */
 169:Middlewares/Third_Party/LwIP/src/core/ipv4/etharp.c **** static void
 170:Middlewares/Third_Party/LwIP/src/core/ipv4/etharp.c **** etharp_free_entry(int i)
 171:Middlewares/Third_Party/LwIP/src/core/ipv4/etharp.c **** {
  27              		.loc 1 171 0
  28              		.cfi_startproc
  29              		@ args = 0, pretend = 0, frame = 0
  30              		@ frame_needed = 0, uses_anonymous_args = 0
  31              	.LVL0:
  32 0000 10B5     		push	{r4, lr}
  33              	.LCFI0:
  34              		.cfi_def_cfa_offset 8
  35              		.cfi_offset 4, -8
  36              		.cfi_offset 14, -4
  37 0002 0446     		mov	r4, r0
 172:Middlewares/Third_Party/LwIP/src/core/ipv4/etharp.c ****   /* remove from SNMP ARP index tree */
 173:Middlewares/Third_Party/LwIP/src/core/ipv4/etharp.c ****   mib2_remove_arp_entry(arp_table[i].netif, &arp_table[i].ipaddr);
 174:Middlewares/Third_Party/LwIP/src/core/ipv4/etharp.c ****   /* and empty packet queue */
 175:Middlewares/Third_Party/LwIP/src/core/ipv4/etharp.c ****   if (arp_table[i].q != NULL) {
  38              		.loc 1 175 0
  39 0004 00EB4002 		add	r2, r0, r0, lsl #1
  40 0008 D300     		lsls	r3, r2, #3
  41 000a 094A     		ldr	r2, .L4
  42 000c D058     		ldr	r0, [r2, r3]
  43              	.LVL1:
  44 000e 38B1     		cbz	r0, .L2
 176:Middlewares/Third_Party/LwIP/src/core/ipv4/etharp.c ****     /* remove all queued packets */
 177:Middlewares/Third_Party/LwIP/src/core/ipv4/etharp.c ****     LWIP_DEBUGF(ETHARP_DEBUG, ("etharp_free_entry: freeing entry %"U16_F", packet queue %p.\n", (u1
 178:Middlewares/Third_Party/LwIP/src/core/ipv4/etharp.c ****     free_etharp_q(arp_table[i].q);
  45              		.loc 1 178 0
  46 0010 FFF7FEFF 		bl	pbuf_free
  47              	.LVL2:
 179:Middlewares/Third_Party/LwIP/src/core/ipv4/etharp.c ****     arp_table[i].q = NULL;
  48              		.loc 1 179 0
  49 0014 04EB4402 		add	r2, r4, r4, lsl #1
  50 0018 D300     		lsls	r3, r2, #3
ARM GAS  C:\Users\Student\AppData\Local\Temp\ccULT5Xy.s 			page 5


  51 001a 0021     		movs	r1, #0
  52 001c 044A     		ldr	r2, .L4
  53 001e D150     		str	r1, [r2, r3]
  54              	.L2:
 180:Middlewares/Third_Party/LwIP/src/core/ipv4/etharp.c ****   }
 181:Middlewares/Third_Party/LwIP/src/core/ipv4/etharp.c ****   /* recycle entry for re-use */
 182:Middlewares/Third_Party/LwIP/src/core/ipv4/etharp.c ****   arp_table[i].state = ETHARP_STATE_EMPTY;
  55              		.loc 1 182 0
  56 0020 04EB4404 		add	r4, r4, r4, lsl #1
  57              	.LVL3:
  58 0024 E200     		lsls	r2, r4, #3
  59 0026 024B     		ldr	r3, .L4
  60 0028 1344     		add	r3, r3, r2
  61 002a 0022     		movs	r2, #0
  62 002c 1A75     		strb	r2, [r3, #20]
  63 002e 10BD     		pop	{r4, pc}
  64              	.L5:
  65              		.align	2
  66              	.L4:
  67 0030 00000000 		.word	.LANCHOR0
  68              		.cfi_endproc
  69              	.LFE152:
  71              		.section	.text.etharp_find_entry,"ax",%progbits
  72              		.align	1
  73              		.syntax unified
  74              		.thumb
  75              		.thumb_func
  76              		.fpu fpv5-sp-d16
  78              	etharp_find_entry:
  79              	.LFB154:
 183:Middlewares/Third_Party/LwIP/src/core/ipv4/etharp.c **** #ifdef LWIP_DEBUG
 184:Middlewares/Third_Party/LwIP/src/core/ipv4/etharp.c ****   /* for debugging, clean out the complete entry */
 185:Middlewares/Third_Party/LwIP/src/core/ipv4/etharp.c ****   arp_table[i].ctime = 0;
 186:Middlewares/Third_Party/LwIP/src/core/ipv4/etharp.c ****   arp_table[i].netif = NULL;
 187:Middlewares/Third_Party/LwIP/src/core/ipv4/etharp.c ****   ip4_addr_set_zero(&arp_table[i].ipaddr);
 188:Middlewares/Third_Party/LwIP/src/core/ipv4/etharp.c ****   arp_table[i].ethaddr = ethzero;
 189:Middlewares/Third_Party/LwIP/src/core/ipv4/etharp.c **** #endif /* LWIP_DEBUG */
 190:Middlewares/Third_Party/LwIP/src/core/ipv4/etharp.c **** }
 191:Middlewares/Third_Party/LwIP/src/core/ipv4/etharp.c **** 
 192:Middlewares/Third_Party/LwIP/src/core/ipv4/etharp.c **** /**
 193:Middlewares/Third_Party/LwIP/src/core/ipv4/etharp.c ****  * Clears expired entries in the ARP table.
 194:Middlewares/Third_Party/LwIP/src/core/ipv4/etharp.c ****  *
 195:Middlewares/Third_Party/LwIP/src/core/ipv4/etharp.c ****  * This function should be called every ARP_TMR_INTERVAL milliseconds (1 second),
 196:Middlewares/Third_Party/LwIP/src/core/ipv4/etharp.c ****  * in order to expire entries in the ARP table.
 197:Middlewares/Third_Party/LwIP/src/core/ipv4/etharp.c ****  */
 198:Middlewares/Third_Party/LwIP/src/core/ipv4/etharp.c **** void
 199:Middlewares/Third_Party/LwIP/src/core/ipv4/etharp.c **** etharp_tmr(void)
 200:Middlewares/Third_Party/LwIP/src/core/ipv4/etharp.c **** {
 201:Middlewares/Third_Party/LwIP/src/core/ipv4/etharp.c ****   u8_t i;
 202:Middlewares/Third_Party/LwIP/src/core/ipv4/etharp.c **** 
 203:Middlewares/Third_Party/LwIP/src/core/ipv4/etharp.c ****   LWIP_DEBUGF(ETHARP_DEBUG, ("etharp_timer\n"));
 204:Middlewares/Third_Party/LwIP/src/core/ipv4/etharp.c ****   /* remove expired entries from the ARP table */
 205:Middlewares/Third_Party/LwIP/src/core/ipv4/etharp.c ****   for (i = 0; i < ARP_TABLE_SIZE; ++i) {
 206:Middlewares/Third_Party/LwIP/src/core/ipv4/etharp.c ****     u8_t state = arp_table[i].state;
 207:Middlewares/Third_Party/LwIP/src/core/ipv4/etharp.c ****     if (state != ETHARP_STATE_EMPTY
 208:Middlewares/Third_Party/LwIP/src/core/ipv4/etharp.c **** #if ETHARP_SUPPORT_STATIC_ENTRIES
 209:Middlewares/Third_Party/LwIP/src/core/ipv4/etharp.c ****       && (state != ETHARP_STATE_STATIC)
ARM GAS  C:\Users\Student\AppData\Local\Temp\ccULT5Xy.s 			page 6


 210:Middlewares/Third_Party/LwIP/src/core/ipv4/etharp.c **** #endif /* ETHARP_SUPPORT_STATIC_ENTRIES */
 211:Middlewares/Third_Party/LwIP/src/core/ipv4/etharp.c ****       ) {
 212:Middlewares/Third_Party/LwIP/src/core/ipv4/etharp.c ****       arp_table[i].ctime++;
 213:Middlewares/Third_Party/LwIP/src/core/ipv4/etharp.c ****       if ((arp_table[i].ctime >= ARP_MAXAGE) ||
 214:Middlewares/Third_Party/LwIP/src/core/ipv4/etharp.c ****           ((arp_table[i].state == ETHARP_STATE_PENDING)  &&
 215:Middlewares/Third_Party/LwIP/src/core/ipv4/etharp.c ****            (arp_table[i].ctime >= ARP_MAXPENDING))) {
 216:Middlewares/Third_Party/LwIP/src/core/ipv4/etharp.c ****         /* pending or stable entry has become old! */
 217:Middlewares/Third_Party/LwIP/src/core/ipv4/etharp.c ****         LWIP_DEBUGF(ETHARP_DEBUG, ("etharp_timer: expired %s entry %"U16_F".\n",
 218:Middlewares/Third_Party/LwIP/src/core/ipv4/etharp.c ****              arp_table[i].state >= ETHARP_STATE_STABLE ? "stable" : "pending", (u16_t)i));
 219:Middlewares/Third_Party/LwIP/src/core/ipv4/etharp.c ****         /* clean up entries that have just been expired */
 220:Middlewares/Third_Party/LwIP/src/core/ipv4/etharp.c ****         etharp_free_entry(i);
 221:Middlewares/Third_Party/LwIP/src/core/ipv4/etharp.c ****       } else if (arp_table[i].state == ETHARP_STATE_STABLE_REREQUESTING_1) {
 222:Middlewares/Third_Party/LwIP/src/core/ipv4/etharp.c ****         /* Don't send more than one request every 2 seconds. */
 223:Middlewares/Third_Party/LwIP/src/core/ipv4/etharp.c ****         arp_table[i].state = ETHARP_STATE_STABLE_REREQUESTING_2;
 224:Middlewares/Third_Party/LwIP/src/core/ipv4/etharp.c ****       } else if (arp_table[i].state == ETHARP_STATE_STABLE_REREQUESTING_2) {
 225:Middlewares/Third_Party/LwIP/src/core/ipv4/etharp.c ****         /* Reset state to stable, so that the next transmitted packet will
 226:Middlewares/Third_Party/LwIP/src/core/ipv4/etharp.c ****            re-send an ARP request. */
 227:Middlewares/Third_Party/LwIP/src/core/ipv4/etharp.c ****         arp_table[i].state = ETHARP_STATE_STABLE;
 228:Middlewares/Third_Party/LwIP/src/core/ipv4/etharp.c ****       } else if (arp_table[i].state == ETHARP_STATE_PENDING) {
 229:Middlewares/Third_Party/LwIP/src/core/ipv4/etharp.c ****         /* still pending, resend an ARP query */
 230:Middlewares/Third_Party/LwIP/src/core/ipv4/etharp.c ****         etharp_request(arp_table[i].netif, &arp_table[i].ipaddr);
 231:Middlewares/Third_Party/LwIP/src/core/ipv4/etharp.c ****       }
 232:Middlewares/Third_Party/LwIP/src/core/ipv4/etharp.c ****     }
 233:Middlewares/Third_Party/LwIP/src/core/ipv4/etharp.c ****   }
 234:Middlewares/Third_Party/LwIP/src/core/ipv4/etharp.c **** }
 235:Middlewares/Third_Party/LwIP/src/core/ipv4/etharp.c **** 
 236:Middlewares/Third_Party/LwIP/src/core/ipv4/etharp.c **** /**
 237:Middlewares/Third_Party/LwIP/src/core/ipv4/etharp.c ****  * Search the ARP table for a matching or new entry.
 238:Middlewares/Third_Party/LwIP/src/core/ipv4/etharp.c ****  *
 239:Middlewares/Third_Party/LwIP/src/core/ipv4/etharp.c ****  * If an IP address is given, return a pending or stable ARP entry that matches
 240:Middlewares/Third_Party/LwIP/src/core/ipv4/etharp.c ****  * the address. If no match is found, create a new entry with this address set,
 241:Middlewares/Third_Party/LwIP/src/core/ipv4/etharp.c ****  * but in state ETHARP_EMPTY. The caller must check and possibly change the
 242:Middlewares/Third_Party/LwIP/src/core/ipv4/etharp.c ****  * state of the returned entry.
 243:Middlewares/Third_Party/LwIP/src/core/ipv4/etharp.c ****  *
 244:Middlewares/Third_Party/LwIP/src/core/ipv4/etharp.c ****  * If ipaddr is NULL, return a initialized new entry in state ETHARP_EMPTY.
 245:Middlewares/Third_Party/LwIP/src/core/ipv4/etharp.c ****  *
 246:Middlewares/Third_Party/LwIP/src/core/ipv4/etharp.c ****  * In all cases, attempt to create new entries from an empty entry. If no
 247:Middlewares/Third_Party/LwIP/src/core/ipv4/etharp.c ****  * empty entries are available and ETHARP_FLAG_TRY_HARD flag is set, recycle
 248:Middlewares/Third_Party/LwIP/src/core/ipv4/etharp.c ****  * old entries. Heuristic choose the least important entry for recycling.
 249:Middlewares/Third_Party/LwIP/src/core/ipv4/etharp.c ****  *
 250:Middlewares/Third_Party/LwIP/src/core/ipv4/etharp.c ****  * @param ipaddr IP address to find in ARP cache, or to add if not found.
 251:Middlewares/Third_Party/LwIP/src/core/ipv4/etharp.c ****  * @param flags See @ref etharp_state
 252:Middlewares/Third_Party/LwIP/src/core/ipv4/etharp.c ****  * @param netif netif related to this address (used for NETIF_HWADDRHINT)
 253:Middlewares/Third_Party/LwIP/src/core/ipv4/etharp.c ****  *
 254:Middlewares/Third_Party/LwIP/src/core/ipv4/etharp.c ****  * @return The ARP entry index that matched or is created, ERR_MEM if no
 255:Middlewares/Third_Party/LwIP/src/core/ipv4/etharp.c ****  * entry is found or could be recycled.
 256:Middlewares/Third_Party/LwIP/src/core/ipv4/etharp.c ****  */
 257:Middlewares/Third_Party/LwIP/src/core/ipv4/etharp.c **** static s8_t
 258:Middlewares/Third_Party/LwIP/src/core/ipv4/etharp.c **** etharp_find_entry(const ip4_addr_t *ipaddr, u8_t flags, struct netif* netif)
 259:Middlewares/Third_Party/LwIP/src/core/ipv4/etharp.c **** {
  80              		.loc 1 259 0
  81              		.cfi_startproc
  82              		@ args = 0, pretend = 0, frame = 0
  83              		@ frame_needed = 0, uses_anonymous_args = 0
  84              	.LVL4:
  85 0000 2DE9F84F 		push	{r3, r4, r5, r6, r7, r8, r9, r10, fp, lr}
  86              	.LCFI1:
ARM GAS  C:\Users\Student\AppData\Local\Temp\ccULT5Xy.s 			page 7


  87              		.cfi_def_cfa_offset 40
  88              		.cfi_offset 3, -40
  89              		.cfi_offset 4, -36
  90              		.cfi_offset 5, -32
  91              		.cfi_offset 6, -28
  92              		.cfi_offset 7, -24
  93              		.cfi_offset 8, -20
  94              		.cfi_offset 9, -16
  95              		.cfi_offset 10, -12
  96              		.cfi_offset 11, -8
  97              		.cfi_offset 14, -4
  98              	.LVL5:
 260:Middlewares/Third_Party/LwIP/src/core/ipv4/etharp.c ****   s8_t old_pending = ARP_TABLE_SIZE, old_stable = ARP_TABLE_SIZE;
 261:Middlewares/Third_Party/LwIP/src/core/ipv4/etharp.c ****   s8_t empty = ARP_TABLE_SIZE;
 262:Middlewares/Third_Party/LwIP/src/core/ipv4/etharp.c ****   u8_t i = 0;
 263:Middlewares/Third_Party/LwIP/src/core/ipv4/etharp.c ****   /* oldest entry with packets on queue */
 264:Middlewares/Third_Party/LwIP/src/core/ipv4/etharp.c ****   s8_t old_queue = ARP_TABLE_SIZE;
 265:Middlewares/Third_Party/LwIP/src/core/ipv4/etharp.c ****   /* its age */
 266:Middlewares/Third_Party/LwIP/src/core/ipv4/etharp.c ****   u16_t age_queue = 0, age_pending = 0, age_stable = 0;
  99              		.loc 1 266 0
 100 0004 4FF0000E 		mov	lr, #0
 101 0008 F346     		mov	fp, lr
 102 000a F146     		mov	r9, lr
 264:Middlewares/Third_Party/LwIP/src/core/ipv4/etharp.c ****   /* its age */
 103              		.loc 1 264 0
 104 000c 4FF00A0C 		mov	ip, #10
 267:Middlewares/Third_Party/LwIP/src/core/ipv4/etharp.c **** 
 268:Middlewares/Third_Party/LwIP/src/core/ipv4/etharp.c ****   LWIP_UNUSED_ARG(netif);
 269:Middlewares/Third_Party/LwIP/src/core/ipv4/etharp.c **** 
 270:Middlewares/Third_Party/LwIP/src/core/ipv4/etharp.c ****   /**
 271:Middlewares/Third_Party/LwIP/src/core/ipv4/etharp.c ****    * a) do a search through the cache, remember candidates
 272:Middlewares/Third_Party/LwIP/src/core/ipv4/etharp.c ****    * b) select candidate entry
 273:Middlewares/Third_Party/LwIP/src/core/ipv4/etharp.c ****    * c) create new entry
 274:Middlewares/Third_Party/LwIP/src/core/ipv4/etharp.c ****    */
 275:Middlewares/Third_Party/LwIP/src/core/ipv4/etharp.c **** 
 276:Middlewares/Third_Party/LwIP/src/core/ipv4/etharp.c ****   /* a) in a single search sweep, do all of this
 277:Middlewares/Third_Party/LwIP/src/core/ipv4/etharp.c ****    * 1) remember the first empty entry (if any)
 278:Middlewares/Third_Party/LwIP/src/core/ipv4/etharp.c ****    * 2) remember the oldest stable entry (if any)
 279:Middlewares/Third_Party/LwIP/src/core/ipv4/etharp.c ****    * 3) remember the oldest pending entry without queued packets (if any)
 280:Middlewares/Third_Party/LwIP/src/core/ipv4/etharp.c ****    * 4) remember the oldest pending entry with queued packets (if any)
 281:Middlewares/Third_Party/LwIP/src/core/ipv4/etharp.c ****    * 5) search for a matching IP entry, either pending or stable
 282:Middlewares/Third_Party/LwIP/src/core/ipv4/etharp.c ****    *    until 5 matches, or all entries are searched for.
 283:Middlewares/Third_Party/LwIP/src/core/ipv4/etharp.c ****    */
 284:Middlewares/Third_Party/LwIP/src/core/ipv4/etharp.c **** 
 285:Middlewares/Third_Party/LwIP/src/core/ipv4/etharp.c ****   for (i = 0; i < ARP_TABLE_SIZE; ++i) {
 105              		.loc 1 285 0
 106 0010 7346     		mov	r3, lr
 261:Middlewares/Third_Party/LwIP/src/core/ipv4/etharp.c ****   u8_t i = 0;
 107              		.loc 1 261 0
 108 0012 6546     		mov	r5, ip
 260:Middlewares/Third_Party/LwIP/src/core/ipv4/etharp.c ****   s8_t empty = ARP_TABLE_SIZE;
 109              		.loc 1 260 0
 110 0014 E046     		mov	r8, ip
 111 0016 E246     		mov	r10, ip
 112              		.loc 1 285 0
 113 0018 1BE0     		b	.L7
 114              	.LVL6:
ARM GAS  C:\Users\Student\AppData\Local\Temp\ccULT5Xy.s 			page 8


 115              	.L8:
 116              	.LBB2:
 286:Middlewares/Third_Party/LwIP/src/core/ipv4/etharp.c ****     u8_t state = arp_table[i].state;
 287:Middlewares/Third_Party/LwIP/src/core/ipv4/etharp.c ****     /* no empty entry found yet and now we do find one? */
 288:Middlewares/Third_Party/LwIP/src/core/ipv4/etharp.c ****     if ((empty == ARP_TABLE_SIZE) && (state == ETHARP_STATE_EMPTY)) {
 289:Middlewares/Third_Party/LwIP/src/core/ipv4/etharp.c ****       LWIP_DEBUGF(ETHARP_DEBUG, ("etharp_find_entry: found empty entry %"U16_F"\n", (u16_t)i));
 290:Middlewares/Third_Party/LwIP/src/core/ipv4/etharp.c ****       /* remember first empty entry */
 291:Middlewares/Third_Party/LwIP/src/core/ipv4/etharp.c ****       empty = i;
 292:Middlewares/Third_Party/LwIP/src/core/ipv4/etharp.c ****     } else if (state != ETHARP_STATE_EMPTY) {
 117              		.loc 1 292 0
 118 001a C2B1     		cbz	r2, .L9
 293:Middlewares/Third_Party/LwIP/src/core/ipv4/etharp.c ****       LWIP_ASSERT("state == ETHARP_STATE_PENDING || state >= ETHARP_STATE_STABLE",
 294:Middlewares/Third_Party/LwIP/src/core/ipv4/etharp.c ****         state == ETHARP_STATE_PENDING || state >= ETHARP_STATE_STABLE);
 295:Middlewares/Third_Party/LwIP/src/core/ipv4/etharp.c ****       /* if given, does IP address match IP address in ARP entry? */
 296:Middlewares/Third_Party/LwIP/src/core/ipv4/etharp.c ****       if (ipaddr && ip4_addr_cmp(ipaddr, &arp_table[i].ipaddr)
 119              		.loc 1 296 0
 120 001c 40B1     		cbz	r0, .L10
 121              		.loc 1 296 0 is_stmt 0 discriminator 1
 122 001e 03EB4306 		add	r6, r3, r3, lsl #1
 123 0022 F700     		lsls	r7, r6, #3
 124 0024 5B4E     		ldr	r6, .L36
 125 0026 3E44     		add	r6, r6, r7
 126 0028 7668     		ldr	r6, [r6, #4]
 127 002a 0768     		ldr	r7, [r0]
 128 002c B742     		cmp	r7, r6
 129 002e 1FD0     		beq	.L29
 130              	.L10:
 297:Middlewares/Third_Party/LwIP/src/core/ipv4/etharp.c **** #if ETHARP_TABLE_MATCH_NETIF
 298:Middlewares/Third_Party/LwIP/src/core/ipv4/etharp.c ****           && ((netif == NULL) || (netif == arp_table[i].netif))
 299:Middlewares/Third_Party/LwIP/src/core/ipv4/etharp.c **** #endif /* ETHARP_TABLE_MATCH_NETIF */
 300:Middlewares/Third_Party/LwIP/src/core/ipv4/etharp.c ****         ) {
 301:Middlewares/Third_Party/LwIP/src/core/ipv4/etharp.c ****         LWIP_DEBUGF(ETHARP_DEBUG | LWIP_DBG_TRACE, ("etharp_find_entry: found matching entry %"U16_
 302:Middlewares/Third_Party/LwIP/src/core/ipv4/etharp.c ****         /* found exact IP address match, simply bail out */
 303:Middlewares/Third_Party/LwIP/src/core/ipv4/etharp.c ****         return i;
 304:Middlewares/Third_Party/LwIP/src/core/ipv4/etharp.c ****       }
 305:Middlewares/Third_Party/LwIP/src/core/ipv4/etharp.c ****       /* pending entry? */
 306:Middlewares/Third_Party/LwIP/src/core/ipv4/etharp.c ****       if (state == ETHARP_STATE_PENDING) {
 131              		.loc 1 306 0 is_stmt 1
 132 0030 012A     		cmp	r2, #1
 133 0032 20D0     		beq	.L30
 307:Middlewares/Third_Party/LwIP/src/core/ipv4/etharp.c ****         /* pending with queued packets? */
 308:Middlewares/Third_Party/LwIP/src/core/ipv4/etharp.c ****         if (arp_table[i].q != NULL) {
 309:Middlewares/Third_Party/LwIP/src/core/ipv4/etharp.c ****           if (arp_table[i].ctime >= age_queue) {
 310:Middlewares/Third_Party/LwIP/src/core/ipv4/etharp.c ****             old_queue = i;
 311:Middlewares/Third_Party/LwIP/src/core/ipv4/etharp.c ****             age_queue = arp_table[i].ctime;
 312:Middlewares/Third_Party/LwIP/src/core/ipv4/etharp.c ****           }
 313:Middlewares/Third_Party/LwIP/src/core/ipv4/etharp.c ****         } else
 314:Middlewares/Third_Party/LwIP/src/core/ipv4/etharp.c ****         /* pending without queued packets? */
 315:Middlewares/Third_Party/LwIP/src/core/ipv4/etharp.c ****         {
 316:Middlewares/Third_Party/LwIP/src/core/ipv4/etharp.c ****           if (arp_table[i].ctime >= age_pending) {
 317:Middlewares/Third_Party/LwIP/src/core/ipv4/etharp.c ****             old_pending = i;
 318:Middlewares/Third_Party/LwIP/src/core/ipv4/etharp.c ****             age_pending = arp_table[i].ctime;
 319:Middlewares/Third_Party/LwIP/src/core/ipv4/etharp.c ****           }
 320:Middlewares/Third_Party/LwIP/src/core/ipv4/etharp.c ****         }
 321:Middlewares/Third_Party/LwIP/src/core/ipv4/etharp.c ****       /* stable entry? */
 322:Middlewares/Third_Party/LwIP/src/core/ipv4/etharp.c ****       } else if (state >= ETHARP_STATE_STABLE) {
 134              		.loc 1 322 0
ARM GAS  C:\Users\Student\AppData\Local\Temp\ccULT5Xy.s 			page 9


 135 0034 012A     		cmp	r2, #1
 136 0036 0AD9     		bls	.L9
 323:Middlewares/Third_Party/LwIP/src/core/ipv4/etharp.c **** #if ETHARP_SUPPORT_STATIC_ENTRIES
 324:Middlewares/Third_Party/LwIP/src/core/ipv4/etharp.c ****         /* don't record old_stable for static entries since they never expire */
 325:Middlewares/Third_Party/LwIP/src/core/ipv4/etharp.c ****         if (state < ETHARP_STATE_STATIC)
 326:Middlewares/Third_Party/LwIP/src/core/ipv4/etharp.c **** #endif /* ETHARP_SUPPORT_STATIC_ENTRIES */
 327:Middlewares/Third_Party/LwIP/src/core/ipv4/etharp.c ****         {
 328:Middlewares/Third_Party/LwIP/src/core/ipv4/etharp.c ****           /* remember entry with oldest stable entry in oldest, its age in maxtime */
 329:Middlewares/Third_Party/LwIP/src/core/ipv4/etharp.c ****           if (arp_table[i].ctime >= age_stable) {
 137              		.loc 1 329 0
 138 0038 04EB4404 		add	r4, r4, r4, lsl #1
 139 003c E600     		lsls	r6, r4, #3
 140 003e 554A     		ldr	r2, .L36
 141              	.LVL7:
 142 0040 3244     		add	r2, r2, r6
 143              	.LVL8:
 144 0042 528A     		ldrh	r2, [r2, #18]
 145 0044 9645     		cmp	lr, r2
 146 0046 02D8     		bhi	.L9
 330:Middlewares/Third_Party/LwIP/src/core/ipv4/etharp.c ****             old_stable = i;
 147              		.loc 1 330 0
 148 0048 4FFA83F8 		sxtb	r8, r3
 149              	.LVL9:
 331:Middlewares/Third_Party/LwIP/src/core/ipv4/etharp.c ****             age_stable = arp_table[i].ctime;
 150              		.loc 1 331 0
 151 004c 9646     		mov	lr, r2
 152              	.LVL10:
 153              	.L9:
 154              	.LBE2:
 285:Middlewares/Third_Party/LwIP/src/core/ipv4/etharp.c ****     u8_t state = arp_table[i].state;
 155              		.loc 1 285 0 discriminator 2
 156 004e 0133     		adds	r3, r3, #1
 157              	.LVL11:
 158 0050 DBB2     		uxtb	r3, r3
 159              	.LVL12:
 160              	.L7:
 285:Middlewares/Third_Party/LwIP/src/core/ipv4/etharp.c ****     u8_t state = arp_table[i].state;
 161              		.loc 1 285 0 is_stmt 0 discriminator 1
 162 0052 092B     		cmp	r3, #9
 163 0054 2DD8     		bhi	.L31
 164              	.LBB3:
 286:Middlewares/Third_Party/LwIP/src/core/ipv4/etharp.c ****     /* no empty entry found yet and now we do find one? */
 165              		.loc 1 286 0 is_stmt 1
 166 0056 1C46     		mov	r4, r3
 167 0058 03EB4302 		add	r2, r3, r3, lsl #1
 168 005c D600     		lsls	r6, r2, #3
 169 005e 4D4A     		ldr	r2, .L36
 170 0060 3244     		add	r2, r2, r6
 171 0062 127D     		ldrb	r2, [r2, #20]	@ zero_extendqisi2
 172              	.LVL13:
 288:Middlewares/Third_Party/LwIP/src/core/ipv4/etharp.c ****       LWIP_DEBUGF(ETHARP_DEBUG, ("etharp_find_entry: found empty entry %"U16_F"\n", (u16_t)i));
 173              		.loc 1 288 0
 174 0064 0A2D     		cmp	r5, #10
 175 0066 08BF     		it	eq
 176 0068 002A     		cmpeq	r2, #0
 177 006a D6D1     		bne	.L8
 291:Middlewares/Third_Party/LwIP/src/core/ipv4/etharp.c ****     } else if (state != ETHARP_STATE_EMPTY) {
ARM GAS  C:\Users\Student\AppData\Local\Temp\ccULT5Xy.s 			page 10


 178              		.loc 1 291 0
 179 006c 5DB2     		sxtb	r5, r3
 180              	.LVL14:
 181 006e EEE7     		b	.L9
 182              	.L29:
 303:Middlewares/Third_Party/LwIP/src/core/ipv4/etharp.c ****       }
 183              		.loc 1 303 0
 184 0070 58B2     		sxtb	r0, r3
 185              	.LVL15:
 186 0072 BDE8F88F 		pop	{r3, r4, r5, r6, r7, r8, r9, r10, fp, pc}
 187              	.LVL16:
 188              	.L30:
 308:Middlewares/Third_Party/LwIP/src/core/ipv4/etharp.c ****           if (arp_table[i].ctime >= age_queue) {
 189              		.loc 1 308 0
 190 0076 04EB4406 		add	r6, r4, r4, lsl #1
 191 007a F200     		lsls	r2, r6, #3
 192              	.LVL17:
 193 007c 454E     		ldr	r6, .L36
 194              	.LVL18:
 195 007e B258     		ldr	r2, [r6, r2]
 196 0080 5AB1     		cbz	r2, .L13
 309:Middlewares/Third_Party/LwIP/src/core/ipv4/etharp.c ****             old_queue = i;
 197              		.loc 1 309 0
 198 0082 04EB4404 		add	r4, r4, r4, lsl #1
 199 0086 E600     		lsls	r6, r4, #3
 200              	.LVL19:
 201 0088 424A     		ldr	r2, .L36
 202              	.LVL20:
 203 008a 3244     		add	r2, r2, r6
 204              	.LVL21:
 205 008c 528A     		ldrh	r2, [r2, #18]
 206 008e 9145     		cmp	r9, r2
 207 0090 DDD8     		bhi	.L9
 310:Middlewares/Third_Party/LwIP/src/core/ipv4/etharp.c ****             age_queue = arp_table[i].ctime;
 208              		.loc 1 310 0
 209 0092 4FFA83FC 		sxtb	ip, r3
 210              	.LVL22:
 311:Middlewares/Third_Party/LwIP/src/core/ipv4/etharp.c ****           }
 211              		.loc 1 311 0
 212 0096 9146     		mov	r9, r2
 213 0098 D9E7     		b	.L9
 214              	.LVL23:
 215              	.L13:
 316:Middlewares/Third_Party/LwIP/src/core/ipv4/etharp.c ****             old_pending = i;
 216              		.loc 1 316 0
 217 009a 04EB4404 		add	r4, r4, r4, lsl #1
 218 009e E600     		lsls	r6, r4, #3
 219              	.LVL24:
 220 00a0 3C4A     		ldr	r2, .L36
 221              	.LVL25:
 222 00a2 3244     		add	r2, r2, r6
 223              	.LVL26:
 224 00a4 528A     		ldrh	r2, [r2, #18]
 225 00a6 9345     		cmp	fp, r2
 226 00a8 D1D8     		bhi	.L9
 317:Middlewares/Third_Party/LwIP/src/core/ipv4/etharp.c ****             age_pending = arp_table[i].ctime;
 227              		.loc 1 317 0
ARM GAS  C:\Users\Student\AppData\Local\Temp\ccULT5Xy.s 			page 11


 228 00aa 4FFA83FA 		sxtb	r10, r3
 229              	.LVL27:
 318:Middlewares/Third_Party/LwIP/src/core/ipv4/etharp.c ****           }
 230              		.loc 1 318 0
 231 00ae 9346     		mov	fp, r2
 232 00b0 CDE7     		b	.L9
 233              	.LVL28:
 234              	.L31:
 235              	.LBE3:
 332:Middlewares/Third_Party/LwIP/src/core/ipv4/etharp.c ****           }
 333:Middlewares/Third_Party/LwIP/src/core/ipv4/etharp.c ****         }
 334:Middlewares/Third_Party/LwIP/src/core/ipv4/etharp.c ****       }
 335:Middlewares/Third_Party/LwIP/src/core/ipv4/etharp.c ****     }
 336:Middlewares/Third_Party/LwIP/src/core/ipv4/etharp.c ****   }
 337:Middlewares/Third_Party/LwIP/src/core/ipv4/etharp.c ****   /* { we have no match } => try to create a new entry */
 338:Middlewares/Third_Party/LwIP/src/core/ipv4/etharp.c **** 
 339:Middlewares/Third_Party/LwIP/src/core/ipv4/etharp.c ****   /* don't create new entry, only search? */
 340:Middlewares/Third_Party/LwIP/src/core/ipv4/etharp.c ****   if (((flags & ETHARP_FLAG_FIND_ONLY) != 0) ||
 236              		.loc 1 340 0
 237 00b2 11F0020F 		tst	r1, #2
 238 00b6 65D1     		bne	.L25
 239              		.loc 1 340 0 is_stmt 0 discriminator 1
 240 00b8 0A2D     		cmp	r5, #10
 241 00ba 20D0     		beq	.L32
 242              	.L15:
 243 00bc 0646     		mov	r6, r0
 341:Middlewares/Third_Party/LwIP/src/core/ipv4/etharp.c ****       /* or no empty entry found and not allowed to recycle? */
 342:Middlewares/Third_Party/LwIP/src/core/ipv4/etharp.c ****       ((empty == ARP_TABLE_SIZE) && ((flags & ETHARP_FLAG_TRY_HARD) == 0))) {
 343:Middlewares/Third_Party/LwIP/src/core/ipv4/etharp.c ****     LWIP_DEBUGF(ETHARP_DEBUG | LWIP_DBG_TRACE, ("etharp_find_entry: no empty entry found and not al
 344:Middlewares/Third_Party/LwIP/src/core/ipv4/etharp.c ****     return (s8_t)ERR_MEM;
 345:Middlewares/Third_Party/LwIP/src/core/ipv4/etharp.c ****   }
 346:Middlewares/Third_Party/LwIP/src/core/ipv4/etharp.c **** 
 347:Middlewares/Third_Party/LwIP/src/core/ipv4/etharp.c ****   /* b) choose the least destructive entry to recycle:
 348:Middlewares/Third_Party/LwIP/src/core/ipv4/etharp.c ****    * 1) empty entry
 349:Middlewares/Third_Party/LwIP/src/core/ipv4/etharp.c ****    * 2) oldest stable entry
 350:Middlewares/Third_Party/LwIP/src/core/ipv4/etharp.c ****    * 3) oldest pending entry without queued packets
 351:Middlewares/Third_Party/LwIP/src/core/ipv4/etharp.c ****    * 4) oldest pending entry with queued packets
 352:Middlewares/Third_Party/LwIP/src/core/ipv4/etharp.c ****    *
 353:Middlewares/Third_Party/LwIP/src/core/ipv4/etharp.c ****    * { ETHARP_FLAG_TRY_HARD is set at this point }
 354:Middlewares/Third_Party/LwIP/src/core/ipv4/etharp.c ****    */
 355:Middlewares/Third_Party/LwIP/src/core/ipv4/etharp.c **** 
 356:Middlewares/Third_Party/LwIP/src/core/ipv4/etharp.c ****   /* 1) empty entry available? */
 357:Middlewares/Third_Party/LwIP/src/core/ipv4/etharp.c ****   if (empty < ARP_TABLE_SIZE) {
 244              		.loc 1 357 0 is_stmt 1
 245 00be 092D     		cmp	r5, #9
 246 00c0 24DC     		bgt	.L16
 358:Middlewares/Third_Party/LwIP/src/core/ipv4/etharp.c ****     i = empty;
 247              		.loc 1 358 0
 248 00c2 EDB2     		uxtb	r5, r5
 249              	.LVL29:
 250              	.L17:
 359:Middlewares/Third_Party/LwIP/src/core/ipv4/etharp.c ****     LWIP_DEBUGF(ETHARP_DEBUG | LWIP_DBG_TRACE, ("etharp_find_entry: selecting empty entry %"U16_F"\
 360:Middlewares/Third_Party/LwIP/src/core/ipv4/etharp.c ****   } else {
 361:Middlewares/Third_Party/LwIP/src/core/ipv4/etharp.c ****     /* 2) found recyclable stable entry? */
 362:Middlewares/Third_Party/LwIP/src/core/ipv4/etharp.c ****     if (old_stable < ARP_TABLE_SIZE) {
 363:Middlewares/Third_Party/LwIP/src/core/ipv4/etharp.c ****       /* recycle oldest stable*/
 364:Middlewares/Third_Party/LwIP/src/core/ipv4/etharp.c ****       i = old_stable;
ARM GAS  C:\Users\Student\AppData\Local\Temp\ccULT5Xy.s 			page 12


 365:Middlewares/Third_Party/LwIP/src/core/ipv4/etharp.c ****       LWIP_DEBUGF(ETHARP_DEBUG | LWIP_DBG_TRACE, ("etharp_find_entry: selecting oldest stable entry
 366:Middlewares/Third_Party/LwIP/src/core/ipv4/etharp.c ****       /* no queued packets should exist on stable entries */
 367:Middlewares/Third_Party/LwIP/src/core/ipv4/etharp.c ****       LWIP_ASSERT("arp_table[i].q == NULL", arp_table[i].q == NULL);
 368:Middlewares/Third_Party/LwIP/src/core/ipv4/etharp.c ****     /* 3) found recyclable pending entry without queued packets? */
 369:Middlewares/Third_Party/LwIP/src/core/ipv4/etharp.c ****     } else if (old_pending < ARP_TABLE_SIZE) {
 370:Middlewares/Third_Party/LwIP/src/core/ipv4/etharp.c ****       /* recycle oldest pending */
 371:Middlewares/Third_Party/LwIP/src/core/ipv4/etharp.c ****       i = old_pending;
 372:Middlewares/Third_Party/LwIP/src/core/ipv4/etharp.c ****       LWIP_DEBUGF(ETHARP_DEBUG | LWIP_DBG_TRACE, ("etharp_find_entry: selecting oldest pending entr
 373:Middlewares/Third_Party/LwIP/src/core/ipv4/etharp.c ****     /* 4) found recyclable pending entry with queued packets? */
 374:Middlewares/Third_Party/LwIP/src/core/ipv4/etharp.c ****     } else if (old_queue < ARP_TABLE_SIZE) {
 375:Middlewares/Third_Party/LwIP/src/core/ipv4/etharp.c ****       /* recycle oldest pending (queued packets are free in etharp_free_entry) */
 376:Middlewares/Third_Party/LwIP/src/core/ipv4/etharp.c ****       i = old_queue;
 377:Middlewares/Third_Party/LwIP/src/core/ipv4/etharp.c ****       LWIP_DEBUGF(ETHARP_DEBUG | LWIP_DBG_TRACE, ("etharp_find_entry: selecting oldest pending entr
 378:Middlewares/Third_Party/LwIP/src/core/ipv4/etharp.c ****       /* no empty or recyclable entries found */
 379:Middlewares/Third_Party/LwIP/src/core/ipv4/etharp.c ****     } else {
 380:Middlewares/Third_Party/LwIP/src/core/ipv4/etharp.c ****       LWIP_DEBUGF(ETHARP_DEBUG | LWIP_DBG_TRACE, ("etharp_find_entry: no empty or recyclable entrie
 381:Middlewares/Third_Party/LwIP/src/core/ipv4/etharp.c ****       return (s8_t)ERR_MEM;
 382:Middlewares/Third_Party/LwIP/src/core/ipv4/etharp.c ****     }
 383:Middlewares/Third_Party/LwIP/src/core/ipv4/etharp.c **** 
 384:Middlewares/Third_Party/LwIP/src/core/ipv4/etharp.c ****     /* { empty or recyclable entry found } */
 385:Middlewares/Third_Party/LwIP/src/core/ipv4/etharp.c ****     LWIP_ASSERT("i < ARP_TABLE_SIZE", i < ARP_TABLE_SIZE);
 386:Middlewares/Third_Party/LwIP/src/core/ipv4/etharp.c ****     etharp_free_entry(i);
 387:Middlewares/Third_Party/LwIP/src/core/ipv4/etharp.c ****   }
 388:Middlewares/Third_Party/LwIP/src/core/ipv4/etharp.c **** 
 389:Middlewares/Third_Party/LwIP/src/core/ipv4/etharp.c ****   LWIP_ASSERT("i < ARP_TABLE_SIZE", i < ARP_TABLE_SIZE);
 251              		.loc 1 389 0
 252 00c4 092D     		cmp	r5, #9
 253 00c6 4DD8     		bhi	.L33
 254              	.L22:
 390:Middlewares/Third_Party/LwIP/src/core/ipv4/etharp.c ****   LWIP_ASSERT("arp_table[i].state == ETHARP_STATE_EMPTY",
 255              		.loc 1 390 0
 256 00c8 2C46     		mov	r4, r5
 257 00ca 05EB4503 		add	r3, r5, r5, lsl #1
 258 00ce DA00     		lsls	r2, r3, #3
 259 00d0 304B     		ldr	r3, .L36
 260 00d2 1344     		add	r3, r3, r2
 261 00d4 1B7D     		ldrb	r3, [r3, #20]	@ zero_extendqisi2
 262 00d6 002B     		cmp	r3, #0
 263 00d8 4CD1     		bne	.L34
 264              	.L23:
 391:Middlewares/Third_Party/LwIP/src/core/ipv4/etharp.c ****     arp_table[i].state == ETHARP_STATE_EMPTY);
 392:Middlewares/Third_Party/LwIP/src/core/ipv4/etharp.c **** 
 393:Middlewares/Third_Party/LwIP/src/core/ipv4/etharp.c ****   /* IP address given? */
 394:Middlewares/Third_Party/LwIP/src/core/ipv4/etharp.c ****   if (ipaddr != NULL) {
 265              		.loc 1 394 0
 266 00da 36B1     		cbz	r6, .L24
 395:Middlewares/Third_Party/LwIP/src/core/ipv4/etharp.c ****     /* set IP address */
 396:Middlewares/Third_Party/LwIP/src/core/ipv4/etharp.c ****     ip4_addr_copy(arp_table[i].ipaddr, *ipaddr);
 267              		.loc 1 396 0
 268 00dc 3168     		ldr	r1, [r6]
 269 00de 04EB4403 		add	r3, r4, r4, lsl #1
 270 00e2 DA00     		lsls	r2, r3, #3
 271 00e4 2B4B     		ldr	r3, .L36
 272 00e6 1344     		add	r3, r3, r2
 273 00e8 5960     		str	r1, [r3, #4]
 274              	.L24:
 397:Middlewares/Third_Party/LwIP/src/core/ipv4/etharp.c ****   }
ARM GAS  C:\Users\Student\AppData\Local\Temp\ccULT5Xy.s 			page 13


 398:Middlewares/Third_Party/LwIP/src/core/ipv4/etharp.c ****   arp_table[i].ctime = 0;
 275              		.loc 1 398 0
 276 00ea 04EB4404 		add	r4, r4, r4, lsl #1
 277 00ee E200     		lsls	r2, r4, #3
 278 00f0 284B     		ldr	r3, .L36
 279 00f2 1344     		add	r3, r3, r2
 280 00f4 0022     		movs	r2, #0
 281 00f6 5A82     		strh	r2, [r3, #18]	@ movhi
 399:Middlewares/Third_Party/LwIP/src/core/ipv4/etharp.c **** #if ETHARP_TABLE_MATCH_NETIF
 400:Middlewares/Third_Party/LwIP/src/core/ipv4/etharp.c ****   arp_table[i].netif = netif;
 401:Middlewares/Third_Party/LwIP/src/core/ipv4/etharp.c **** #endif /* ETHARP_TABLE_MATCH_NETIF*/
 402:Middlewares/Third_Party/LwIP/src/core/ipv4/etharp.c ****   return (err_t)i;
 282              		.loc 1 402 0
 283 00f8 68B2     		sxtb	r0, r5
 284 00fa BDE8F88F 		pop	{r3, r4, r5, r6, r7, r8, r9, r10, fp, pc}
 285              	.LVL30:
 286              	.L32:
 342:Middlewares/Third_Party/LwIP/src/core/ipv4/etharp.c ****     LWIP_DEBUGF(ETHARP_DEBUG | LWIP_DBG_TRACE, ("etharp_find_entry: no empty entry found and not al
 287              		.loc 1 342 0
 288 00fe 11F0010F 		tst	r1, #1
 289 0102 DBD1     		bne	.L15
 344:Middlewares/Third_Party/LwIP/src/core/ipv4/etharp.c ****   }
 290              		.loc 1 344 0
 291 0104 4FF0FF30 		mov	r0, #-1
 292              	.LVL31:
 293 0108 BDE8F88F 		pop	{r3, r4, r5, r6, r7, r8, r9, r10, fp, pc}
 294              	.LVL32:
 295              	.L16:
 362:Middlewares/Third_Party/LwIP/src/core/ipv4/etharp.c ****       /* recycle oldest stable*/
 296              		.loc 1 362 0
 297 010c B8F1090F 		cmp	r8, #9
 298 0110 14DC     		bgt	.L18
 364:Middlewares/Third_Party/LwIP/src/core/ipv4/etharp.c ****       LWIP_DEBUGF(ETHARP_DEBUG | LWIP_DBG_TRACE, ("etharp_find_entry: selecting oldest stable entry
 299              		.loc 1 364 0
 300 0112 5FFA88F5 		uxtb	r5, r8
 301              	.LVL33:
 367:Middlewares/Third_Party/LwIP/src/core/ipv4/etharp.c ****     /* 3) found recyclable pending entry without queued packets? */
 302              		.loc 1 367 0
 303 0116 05EB4502 		add	r2, r5, r5, lsl #1
 304 011a D300     		lsls	r3, r2, #3
 305 011c 1D4A     		ldr	r2, .L36
 306 011e D358     		ldr	r3, [r2, r3]
 307 0120 33B1     		cbz	r3, .L19
 367:Middlewares/Third_Party/LwIP/src/core/ipv4/etharp.c ****     /* 3) found recyclable pending entry without queued packets? */
 308              		.loc 1 367 0 is_stmt 0 discriminator 1
 309 0122 1D4B     		ldr	r3, .L36+4
 310 0124 40F26F12 		movw	r2, #367
 311 0128 1C49     		ldr	r1, .L36+8
 312              	.LVL34:
 313 012a 1D48     		ldr	r0, .L36+12
 314              	.LVL35:
 315 012c FFF7FEFF 		bl	printf
 316              	.LVL36:
 317              	.L19:
 385:Middlewares/Third_Party/LwIP/src/core/ipv4/etharp.c ****     etharp_free_entry(i);
 318              		.loc 1 385 0 is_stmt 1
 319 0130 092D     		cmp	r5, #9
ARM GAS  C:\Users\Student\AppData\Local\Temp\ccULT5Xy.s 			page 14


 320 0132 0FD8     		bhi	.L35
 321              	.L21:
 386:Middlewares/Third_Party/LwIP/src/core/ipv4/etharp.c ****   }
 322              		.loc 1 386 0
 323 0134 2846     		mov	r0, r5
 324 0136 FFF7FEFF 		bl	etharp_free_entry
 325              	.LVL37:
 326 013a C3E7     		b	.L17
 327              	.LVL38:
 328              	.L18:
 369:Middlewares/Third_Party/LwIP/src/core/ipv4/etharp.c ****       /* recycle oldest pending */
 329              		.loc 1 369 0
 330 013c BAF1090F 		cmp	r10, #9
 331 0140 02DC     		bgt	.L20
 371:Middlewares/Third_Party/LwIP/src/core/ipv4/etharp.c ****       LWIP_DEBUGF(ETHARP_DEBUG | LWIP_DBG_TRACE, ("etharp_find_entry: selecting oldest pending entr
 332              		.loc 1 371 0
 333 0142 5FFA8AF5 		uxtb	r5, r10
 334              	.LVL39:
 335 0146 F3E7     		b	.L19
 336              	.LVL40:
 337              	.L20:
 374:Middlewares/Third_Party/LwIP/src/core/ipv4/etharp.c ****       /* recycle oldest pending (queued packets are free in etharp_free_entry) */
 338              		.loc 1 374 0
 339 0148 BCF1090F 		cmp	ip, #9
 340 014c 1EDC     		bgt	.L27
 376:Middlewares/Third_Party/LwIP/src/core/ipv4/etharp.c ****       LWIP_DEBUGF(ETHARP_DEBUG | LWIP_DBG_TRACE, ("etharp_find_entry: selecting oldest pending entr
 341              		.loc 1 376 0
 342 014e 5FFA8CF5 		uxtb	r5, ip
 343              	.LVL41:
 344 0152 EDE7     		b	.L19
 345              	.LVL42:
 346              	.L35:
 385:Middlewares/Third_Party/LwIP/src/core/ipv4/etharp.c ****     etharp_free_entry(i);
 347              		.loc 1 385 0 discriminator 1
 348 0154 104B     		ldr	r3, .L36+4
 349 0156 40F28112 		movw	r2, #385
 350 015a 1249     		ldr	r1, .L36+16
 351 015c 1048     		ldr	r0, .L36+12
 352 015e FFF7FEFF 		bl	printf
 353              	.LVL43:
 354 0162 E7E7     		b	.L21
 355              	.L33:
 389:Middlewares/Third_Party/LwIP/src/core/ipv4/etharp.c ****   LWIP_ASSERT("arp_table[i].state == ETHARP_STATE_EMPTY",
 356              		.loc 1 389 0 discriminator 1
 357 0164 0C4B     		ldr	r3, .L36+4
 358 0166 40F28512 		movw	r2, #389
 359 016a 0E49     		ldr	r1, .L36+16
 360 016c 0C48     		ldr	r0, .L36+12
 361 016e FFF7FEFF 		bl	printf
 362              	.LVL44:
 363 0172 A9E7     		b	.L22
 364              	.L34:
 390:Middlewares/Third_Party/LwIP/src/core/ipv4/etharp.c ****     arp_table[i].state == ETHARP_STATE_EMPTY);
 365              		.loc 1 390 0 discriminator 1
 366 0174 084B     		ldr	r3, .L36+4
 367 0176 40F28712 		movw	r2, #391
 368 017a 0B49     		ldr	r1, .L36+20
ARM GAS  C:\Users\Student\AppData\Local\Temp\ccULT5Xy.s 			page 15


 369 017c 0848     		ldr	r0, .L36+12
 370 017e FFF7FEFF 		bl	printf
 371              	.LVL45:
 372 0182 AAE7     		b	.L23
 373              	.LVL46:
 374              	.L25:
 344:Middlewares/Third_Party/LwIP/src/core/ipv4/etharp.c ****   }
 375              		.loc 1 344 0
 376 0184 4FF0FF30 		mov	r0, #-1
 377              	.LVL47:
 378 0188 BDE8F88F 		pop	{r3, r4, r5, r6, r7, r8, r9, r10, fp, pc}
 379              	.LVL48:
 380              	.L27:
 381:Middlewares/Third_Party/LwIP/src/core/ipv4/etharp.c ****     }
 381              		.loc 1 381 0
 382 018c 4FF0FF30 		mov	r0, #-1
 383              	.LVL49:
 403:Middlewares/Third_Party/LwIP/src/core/ipv4/etharp.c **** }
 384              		.loc 1 403 0
 385 0190 BDE8F88F 		pop	{r3, r4, r5, r6, r7, r8, r9, r10, fp, pc}
 386              	.LVL50:
 387              	.L37:
 388              		.align	2
 389              	.L36:
 390 0194 00000000 		.word	.LANCHOR0
 391 0198 00000000 		.word	.LC0
 392 019c 34000000 		.word	.LC1
 393 01a0 4C000000 		.word	.LC2
 394 01a4 74000000 		.word	.LC3
 395 01a8 88000000 		.word	.LC4
 396              		.cfi_endproc
 397              	.LFE154:
 399              		.section	.text.etharp_update_arp_entry,"ax",%progbits
 400              		.align	1
 401              		.syntax unified
 402              		.thumb
 403              		.thumb_func
 404              		.fpu fpv5-sp-d16
 406              	etharp_update_arp_entry:
 407              	.LFB155:
 404:Middlewares/Third_Party/LwIP/src/core/ipv4/etharp.c **** 
 405:Middlewares/Third_Party/LwIP/src/core/ipv4/etharp.c **** /**
 406:Middlewares/Third_Party/LwIP/src/core/ipv4/etharp.c ****  * Update (or insert) a IP/MAC address pair in the ARP cache.
 407:Middlewares/Third_Party/LwIP/src/core/ipv4/etharp.c ****  *
 408:Middlewares/Third_Party/LwIP/src/core/ipv4/etharp.c ****  * If a pending entry is resolved, any queued packets will be sent
 409:Middlewares/Third_Party/LwIP/src/core/ipv4/etharp.c ****  * at this point.
 410:Middlewares/Third_Party/LwIP/src/core/ipv4/etharp.c ****  *
 411:Middlewares/Third_Party/LwIP/src/core/ipv4/etharp.c ****  * @param netif netif related to this entry (used for NETIF_ADDRHINT)
 412:Middlewares/Third_Party/LwIP/src/core/ipv4/etharp.c ****  * @param ipaddr IP address of the inserted ARP entry.
 413:Middlewares/Third_Party/LwIP/src/core/ipv4/etharp.c ****  * @param ethaddr Ethernet address of the inserted ARP entry.
 414:Middlewares/Third_Party/LwIP/src/core/ipv4/etharp.c ****  * @param flags See @ref etharp_state
 415:Middlewares/Third_Party/LwIP/src/core/ipv4/etharp.c ****  *
 416:Middlewares/Third_Party/LwIP/src/core/ipv4/etharp.c ****  * @return
 417:Middlewares/Third_Party/LwIP/src/core/ipv4/etharp.c ****  * - ERR_OK Successfully updated ARP cache.
 418:Middlewares/Third_Party/LwIP/src/core/ipv4/etharp.c ****  * - ERR_MEM If we could not add a new ARP entry when ETHARP_FLAG_TRY_HARD was set.
 419:Middlewares/Third_Party/LwIP/src/core/ipv4/etharp.c ****  * - ERR_ARG Non-unicast address given, those will not appear in ARP cache.
 420:Middlewares/Third_Party/LwIP/src/core/ipv4/etharp.c ****  *
ARM GAS  C:\Users\Student\AppData\Local\Temp\ccULT5Xy.s 			page 16


 421:Middlewares/Third_Party/LwIP/src/core/ipv4/etharp.c ****  * @see pbuf_free()
 422:Middlewares/Third_Party/LwIP/src/core/ipv4/etharp.c ****  */
 423:Middlewares/Third_Party/LwIP/src/core/ipv4/etharp.c **** static err_t
 424:Middlewares/Third_Party/LwIP/src/core/ipv4/etharp.c **** etharp_update_arp_entry(struct netif *netif, const ip4_addr_t *ipaddr, struct eth_addr *ethaddr, u8
 425:Middlewares/Third_Party/LwIP/src/core/ipv4/etharp.c **** {
 408              		.loc 1 425 0
 409              		.cfi_startproc
 410              		@ args = 0, pretend = 0, frame = 0
 411              		@ frame_needed = 0, uses_anonymous_args = 0
 412              	.LVL51:
 413 0000 F0B5     		push	{r4, r5, r6, r7, lr}
 414              	.LCFI2:
 415              		.cfi_def_cfa_offset 20
 416              		.cfi_offset 4, -20
 417              		.cfi_offset 5, -16
 418              		.cfi_offset 6, -12
 419              		.cfi_offset 7, -8
 420              		.cfi_offset 14, -4
 421 0002 83B0     		sub	sp, sp, #12
 422              	.LCFI3:
 423              		.cfi_def_cfa_offset 32
 424 0004 0446     		mov	r4, r0
 425 0006 0D46     		mov	r5, r1
 426 0008 1646     		mov	r6, r2
 427 000a 1F46     		mov	r7, r3
 426:Middlewares/Third_Party/LwIP/src/core/ipv4/etharp.c ****   s8_t i;
 427:Middlewares/Third_Party/LwIP/src/core/ipv4/etharp.c ****   LWIP_ASSERT("netif->hwaddr_len == ETH_HWADDR_LEN", netif->hwaddr_len == ETH_HWADDR_LEN);
 428              		.loc 1 427 0
 429 000c 90F82830 		ldrb	r3, [r0, #40]	@ zero_extendqisi2
 430              	.LVL52:
 431 0010 062B     		cmp	r3, #6
 432 0012 06D0     		beq	.L39
 433              		.loc 1 427 0 is_stmt 0 discriminator 1
 434 0014 284B     		ldr	r3, .L47
 435 0016 40F2AB12 		movw	r2, #427
 436              	.LVL53:
 437 001a 2849     		ldr	r1, .L47+4
 438              	.LVL54:
 439 001c 2848     		ldr	r0, .L47+8
 440              	.LVL55:
 441 001e FFF7FEFF 		bl	printf
 442              	.LVL56:
 443              	.L39:
 428:Middlewares/Third_Party/LwIP/src/core/ipv4/etharp.c ****   LWIP_DEBUGF(ETHARP_DEBUG | LWIP_DBG_TRACE, ("etharp_update_arp_entry: %"U16_F".%"U16_F".%"U16_F".
 429:Middlewares/Third_Party/LwIP/src/core/ipv4/etharp.c ****     ip4_addr1_16(ipaddr), ip4_addr2_16(ipaddr), ip4_addr3_16(ipaddr), ip4_addr4_16(ipaddr),
 430:Middlewares/Third_Party/LwIP/src/core/ipv4/etharp.c ****     (u16_t)ethaddr->addr[0], (u16_t)ethaddr->addr[1], (u16_t)ethaddr->addr[2],
 431:Middlewares/Third_Party/LwIP/src/core/ipv4/etharp.c ****     (u16_t)ethaddr->addr[3], (u16_t)ethaddr->addr[4], (u16_t)ethaddr->addr[5]));
 432:Middlewares/Third_Party/LwIP/src/core/ipv4/etharp.c ****   /* non-unicast address? */
 433:Middlewares/Third_Party/LwIP/src/core/ipv4/etharp.c ****   if (ip4_addr_isany(ipaddr) ||
 444              		.loc 1 433 0 is_stmt 1
 445 0022 002D     		cmp	r5, #0
 446 0024 39D0     		beq	.L41
 447              		.loc 1 433 0 is_stmt 0 discriminator 1
 448 0026 2868     		ldr	r0, [r5]
 449 0028 0028     		cmp	r0, #0
 450 002a 39D0     		beq	.L42
 434:Middlewares/Third_Party/LwIP/src/core/ipv4/etharp.c ****       ip4_addr_isbroadcast(ipaddr, netif) ||
ARM GAS  C:\Users\Student\AppData\Local\Temp\ccULT5Xy.s 			page 17


 451              		.loc 1 434 0 is_stmt 1 discriminator 2
 452 002c 2146     		mov	r1, r4
 453 002e FFF7FEFF 		bl	ip4_addr_isbroadcast_u32
 454              	.LVL57:
 433:Middlewares/Third_Party/LwIP/src/core/ipv4/etharp.c ****       ip4_addr_isbroadcast(ipaddr, netif) ||
 455              		.loc 1 433 0 discriminator 2
 456 0032 0028     		cmp	r0, #0
 457 0034 37D1     		bne	.L43
 435:Middlewares/Third_Party/LwIP/src/core/ipv4/etharp.c ****       ip4_addr_ismulticast(ipaddr)) {
 458              		.loc 1 435 0
 459 0036 2B68     		ldr	r3, [r5]
 460 0038 03F0F003 		and	r3, r3, #240
 434:Middlewares/Third_Party/LwIP/src/core/ipv4/etharp.c ****       ip4_addr_isbroadcast(ipaddr, netif) ||
 461              		.loc 1 434 0
 462 003c E02B     		cmp	r3, #224
 463 003e 35D0     		beq	.L44
 436:Middlewares/Third_Party/LwIP/src/core/ipv4/etharp.c ****     LWIP_DEBUGF(ETHARP_DEBUG | LWIP_DBG_TRACE, ("etharp_update_arp_entry: will not add non-unicast 
 437:Middlewares/Third_Party/LwIP/src/core/ipv4/etharp.c ****     return ERR_ARG;
 438:Middlewares/Third_Party/LwIP/src/core/ipv4/etharp.c ****   }
 439:Middlewares/Third_Party/LwIP/src/core/ipv4/etharp.c ****   /* find or create ARP entry */
 440:Middlewares/Third_Party/LwIP/src/core/ipv4/etharp.c ****   i = etharp_find_entry(ipaddr, flags, netif);
 464              		.loc 1 440 0
 465 0040 2246     		mov	r2, r4
 466 0042 3946     		mov	r1, r7
 467 0044 2846     		mov	r0, r5
 468 0046 FFF7FEFF 		bl	etharp_find_entry
 469              	.LVL58:
 441:Middlewares/Third_Party/LwIP/src/core/ipv4/etharp.c ****   /* bail out if no entry could be found */
 442:Middlewares/Third_Party/LwIP/src/core/ipv4/etharp.c ****   if (i < 0) {
 470              		.loc 1 442 0
 471 004a 0028     		cmp	r0, #0
 472              	.LVL59:
 473 004c 23DB     		blt	.L40
 443:Middlewares/Third_Party/LwIP/src/core/ipv4/etharp.c ****     return (err_t)i;
 444:Middlewares/Third_Party/LwIP/src/core/ipv4/etharp.c ****   }
 445:Middlewares/Third_Party/LwIP/src/core/ipv4/etharp.c **** 
 446:Middlewares/Third_Party/LwIP/src/core/ipv4/etharp.c **** #if ETHARP_SUPPORT_STATIC_ENTRIES
 447:Middlewares/Third_Party/LwIP/src/core/ipv4/etharp.c ****   if (flags & ETHARP_FLAG_STATIC_ENTRY) {
 448:Middlewares/Third_Party/LwIP/src/core/ipv4/etharp.c ****     /* record static type */
 449:Middlewares/Third_Party/LwIP/src/core/ipv4/etharp.c ****     arp_table[i].state = ETHARP_STATE_STATIC;
 450:Middlewares/Third_Party/LwIP/src/core/ipv4/etharp.c ****   } else if (arp_table[i].state == ETHARP_STATE_STATIC) {
 451:Middlewares/Third_Party/LwIP/src/core/ipv4/etharp.c ****     /* found entry is a static type, don't overwrite it */
 452:Middlewares/Third_Party/LwIP/src/core/ipv4/etharp.c ****     return ERR_VAL;
 453:Middlewares/Third_Party/LwIP/src/core/ipv4/etharp.c ****   } else
 454:Middlewares/Third_Party/LwIP/src/core/ipv4/etharp.c **** #endif /* ETHARP_SUPPORT_STATIC_ENTRIES */
 455:Middlewares/Third_Party/LwIP/src/core/ipv4/etharp.c ****   {
 456:Middlewares/Third_Party/LwIP/src/core/ipv4/etharp.c ****     /* mark it stable */
 457:Middlewares/Third_Party/LwIP/src/core/ipv4/etharp.c ****     arp_table[i].state = ETHARP_STATE_STABLE;
 474              		.loc 1 457 0
 475 004e 1D4D     		ldr	r5, .L47+12
 476              	.LVL60:
 477 0050 4200     		lsls	r2, r0, #1
 478 0052 1318     		adds	r3, r2, r0
 479 0054 D900     		lsls	r1, r3, #3
 480 0056 6F18     		adds	r7, r5, r1
 481 0058 0223     		movs	r3, #2
 482 005a 3B75     		strb	r3, [r7, #20]
ARM GAS  C:\Users\Student\AppData\Local\Temp\ccULT5Xy.s 			page 18


 458:Middlewares/Third_Party/LwIP/src/core/ipv4/etharp.c ****   }
 459:Middlewares/Third_Party/LwIP/src/core/ipv4/etharp.c **** 
 460:Middlewares/Third_Party/LwIP/src/core/ipv4/etharp.c ****   /* record network interface */
 461:Middlewares/Third_Party/LwIP/src/core/ipv4/etharp.c ****   arp_table[i].netif = netif;
 483              		.loc 1 461 0
 484 005c BC60     		str	r4, [r7, #8]
 462:Middlewares/Third_Party/LwIP/src/core/ipv4/etharp.c ****   /* insert in SNMP ARP index tree */
 463:Middlewares/Third_Party/LwIP/src/core/ipv4/etharp.c ****   mib2_add_arp_entry(netif, &arp_table[i].ipaddr);
 464:Middlewares/Third_Party/LwIP/src/core/ipv4/etharp.c **** 
 465:Middlewares/Third_Party/LwIP/src/core/ipv4/etharp.c ****   LWIP_DEBUGF(ETHARP_DEBUG | LWIP_DBG_TRACE, ("etharp_update_arp_entry: updating stable entry %"S16
 466:Middlewares/Third_Party/LwIP/src/core/ipv4/etharp.c ****   /* update address */
 467:Middlewares/Third_Party/LwIP/src/core/ipv4/etharp.c ****   ETHADDR32_COPY(&arp_table[i].ethaddr, ethaddr);
 485              		.loc 1 467 0
 486 005e 0B46     		mov	r3, r1
 487 0060 0833     		adds	r3, r3, #8
 488 0062 2B44     		add	r3, r3, r5
 489 0064 3268     		ldr	r2, [r6]	@ unaligned
 490 0066 5A60     		str	r2, [r3, #4]	@ unaligned
 491 0068 B288     		ldrh	r2, [r6, #4]	@ unaligned
 492 006a 1A81     		strh	r2, [r3, #8]	@ unaligned
 468:Middlewares/Third_Party/LwIP/src/core/ipv4/etharp.c ****   /* reset time stamp */
 469:Middlewares/Third_Party/LwIP/src/core/ipv4/etharp.c ****   arp_table[i].ctime = 0;
 493              		.loc 1 469 0
 494 006c 0023     		movs	r3, #0
 495 006e 7B82     		strh	r3, [r7, #18]	@ movhi
 470:Middlewares/Third_Party/LwIP/src/core/ipv4/etharp.c ****   /* this is where we will send out queued packets! */
 471:Middlewares/Third_Party/LwIP/src/core/ipv4/etharp.c **** #if ARP_QUEUEING
 472:Middlewares/Third_Party/LwIP/src/core/ipv4/etharp.c ****   while (arp_table[i].q != NULL) {
 473:Middlewares/Third_Party/LwIP/src/core/ipv4/etharp.c ****     struct pbuf *p;
 474:Middlewares/Third_Party/LwIP/src/core/ipv4/etharp.c ****     /* remember remainder of queue */
 475:Middlewares/Third_Party/LwIP/src/core/ipv4/etharp.c ****     struct etharp_q_entry *q = arp_table[i].q;
 476:Middlewares/Third_Party/LwIP/src/core/ipv4/etharp.c ****     /* pop first item off the queue */
 477:Middlewares/Third_Party/LwIP/src/core/ipv4/etharp.c ****     arp_table[i].q = q->next;
 478:Middlewares/Third_Party/LwIP/src/core/ipv4/etharp.c ****     /* get the packet pointer */
 479:Middlewares/Third_Party/LwIP/src/core/ipv4/etharp.c ****     p = q->p;
 480:Middlewares/Third_Party/LwIP/src/core/ipv4/etharp.c ****     /* now queue entry can be freed */
 481:Middlewares/Third_Party/LwIP/src/core/ipv4/etharp.c ****     memp_free(MEMP_ARP_QUEUE, q);
 482:Middlewares/Third_Party/LwIP/src/core/ipv4/etharp.c **** #else /* ARP_QUEUEING */
 483:Middlewares/Third_Party/LwIP/src/core/ipv4/etharp.c ****   if (arp_table[i].q != NULL) {
 496              		.loc 1 483 0
 497 0070 6D58     		ldr	r5, [r5, r1]
 498 0072 F5B1     		cbz	r5, .L45
 499              	.LVL61:
 500              	.LBB4:
 484:Middlewares/Third_Party/LwIP/src/core/ipv4/etharp.c ****     struct pbuf *p = arp_table[i].q;
 485:Middlewares/Third_Party/LwIP/src/core/ipv4/etharp.c ****     arp_table[i].q = NULL;
 501              		.loc 1 485 0
 502 0074 0027     		movs	r7, #0
 503 0076 134A     		ldr	r2, .L47+12
 504 0078 5750     		str	r7, [r2, r1]
 486:Middlewares/Third_Party/LwIP/src/core/ipv4/etharp.c **** #endif /* ARP_QUEUEING */
 487:Middlewares/Third_Party/LwIP/src/core/ipv4/etharp.c ****     /* send the queued IP packet */
 488:Middlewares/Third_Party/LwIP/src/core/ipv4/etharp.c ****     ethernet_output(netif, p, (struct eth_addr*)(netif->hwaddr), ethaddr, ETHTYPE_IP);
 505              		.loc 1 488 0
 506 007a 4FF40063 		mov	r3, #2048
 507 007e 0093     		str	r3, [sp]
 508 0080 3346     		mov	r3, r6
ARM GAS  C:\Users\Student\AppData\Local\Temp\ccULT5Xy.s 			page 19


 509 0082 04F12902 		add	r2, r4, #41
 510 0086 2946     		mov	r1, r5
 511 0088 2046     		mov	r0, r4
 512 008a FFF7FEFF 		bl	ethernet_output
 513              	.LVL62:
 489:Middlewares/Third_Party/LwIP/src/core/ipv4/etharp.c ****     /* free the queued IP packet */
 490:Middlewares/Third_Party/LwIP/src/core/ipv4/etharp.c ****     pbuf_free(p);
 514              		.loc 1 490 0
 515 008e 2846     		mov	r0, r5
 516 0090 FFF7FEFF 		bl	pbuf_free
 517              	.LVL63:
 518              	.LBE4:
 491:Middlewares/Third_Party/LwIP/src/core/ipv4/etharp.c ****   }
 492:Middlewares/Third_Party/LwIP/src/core/ipv4/etharp.c ****   return ERR_OK;
 519              		.loc 1 492 0
 520 0094 3846     		mov	r0, r7
 521              	.LVL64:
 522              	.L40:
 493:Middlewares/Third_Party/LwIP/src/core/ipv4/etharp.c **** }
 523              		.loc 1 493 0
 524 0096 03B0     		add	sp, sp, #12
 525              	.LCFI4:
 526              		.cfi_remember_state
 527              		.cfi_def_cfa_offset 20
 528              		@ sp needed
 529 0098 F0BD     		pop	{r4, r5, r6, r7, pc}
 530              	.LVL65:
 531              	.L41:
 532              	.LCFI5:
 533              		.cfi_restore_state
 437:Middlewares/Third_Party/LwIP/src/core/ipv4/etharp.c ****   }
 534              		.loc 1 437 0
 535 009a 6FF00F00 		mvn	r0, #15
 536 009e FAE7     		b	.L40
 537              	.L42:
 538 00a0 6FF00F00 		mvn	r0, #15
 539 00a4 F7E7     		b	.L40
 540              	.L43:
 541 00a6 6FF00F00 		mvn	r0, #15
 542 00aa F4E7     		b	.L40
 543              	.L44:
 544 00ac 6FF00F00 		mvn	r0, #15
 545 00b0 F1E7     		b	.L40
 546              	.LVL66:
 547              	.L45:
 492:Middlewares/Third_Party/LwIP/src/core/ipv4/etharp.c **** }
 548              		.loc 1 492 0
 549 00b2 0020     		movs	r0, #0
 550 00b4 EFE7     		b	.L40
 551              	.L48:
 552 00b6 00BF     		.align	2
 553              	.L47:
 554 00b8 00000000 		.word	.LC0
 555 00bc 00000000 		.word	.LC5
 556 00c0 4C000000 		.word	.LC2
 557 00c4 00000000 		.word	.LANCHOR0
 558              		.cfi_endproc
ARM GAS  C:\Users\Student\AppData\Local\Temp\ccULT5Xy.s 			page 20


 559              	.LFE155:
 561              		.section	.text.etharp_raw,"ax",%progbits
 562              		.align	1
 563              		.syntax unified
 564              		.thumb
 565              		.thumb_func
 566              		.fpu fpv5-sp-d16
 568              	etharp_raw:
 569              	.LFB163:
 494:Middlewares/Third_Party/LwIP/src/core/ipv4/etharp.c **** 
 495:Middlewares/Third_Party/LwIP/src/core/ipv4/etharp.c **** #if ETHARP_SUPPORT_STATIC_ENTRIES
 496:Middlewares/Third_Party/LwIP/src/core/ipv4/etharp.c **** /** Add a new static entry to the ARP table. If an entry exists for the
 497:Middlewares/Third_Party/LwIP/src/core/ipv4/etharp.c ****  * specified IP address, this entry is overwritten.
 498:Middlewares/Third_Party/LwIP/src/core/ipv4/etharp.c ****  * If packets are queued for the specified IP address, they are sent out.
 499:Middlewares/Third_Party/LwIP/src/core/ipv4/etharp.c ****  *
 500:Middlewares/Third_Party/LwIP/src/core/ipv4/etharp.c ****  * @param ipaddr IP address for the new static entry
 501:Middlewares/Third_Party/LwIP/src/core/ipv4/etharp.c ****  * @param ethaddr ethernet address for the new static entry
 502:Middlewares/Third_Party/LwIP/src/core/ipv4/etharp.c ****  * @return See return values of etharp_add_static_entry
 503:Middlewares/Third_Party/LwIP/src/core/ipv4/etharp.c ****  */
 504:Middlewares/Third_Party/LwIP/src/core/ipv4/etharp.c **** err_t
 505:Middlewares/Third_Party/LwIP/src/core/ipv4/etharp.c **** etharp_add_static_entry(const ip4_addr_t *ipaddr, struct eth_addr *ethaddr)
 506:Middlewares/Third_Party/LwIP/src/core/ipv4/etharp.c **** {
 507:Middlewares/Third_Party/LwIP/src/core/ipv4/etharp.c ****   struct netif *netif;
 508:Middlewares/Third_Party/LwIP/src/core/ipv4/etharp.c ****   LWIP_DEBUGF(ETHARP_DEBUG | LWIP_DBG_TRACE, ("etharp_add_static_entry: %"U16_F".%"U16_F".%"U16_F".
 509:Middlewares/Third_Party/LwIP/src/core/ipv4/etharp.c ****     ip4_addr1_16(ipaddr), ip4_addr2_16(ipaddr), ip4_addr3_16(ipaddr), ip4_addr4_16(ipaddr),
 510:Middlewares/Third_Party/LwIP/src/core/ipv4/etharp.c ****     (u16_t)ethaddr->addr[0], (u16_t)ethaddr->addr[1], (u16_t)ethaddr->addr[2],
 511:Middlewares/Third_Party/LwIP/src/core/ipv4/etharp.c ****     (u16_t)ethaddr->addr[3], (u16_t)ethaddr->addr[4], (u16_t)ethaddr->addr[5]));
 512:Middlewares/Third_Party/LwIP/src/core/ipv4/etharp.c **** 
 513:Middlewares/Third_Party/LwIP/src/core/ipv4/etharp.c ****   netif = ip4_route(ipaddr);
 514:Middlewares/Third_Party/LwIP/src/core/ipv4/etharp.c ****   if (netif == NULL) {
 515:Middlewares/Third_Party/LwIP/src/core/ipv4/etharp.c ****     return ERR_RTE;
 516:Middlewares/Third_Party/LwIP/src/core/ipv4/etharp.c ****   }
 517:Middlewares/Third_Party/LwIP/src/core/ipv4/etharp.c **** 
 518:Middlewares/Third_Party/LwIP/src/core/ipv4/etharp.c ****   return etharp_update_arp_entry(netif, ipaddr, ethaddr, ETHARP_FLAG_TRY_HARD | ETHARP_FLAG_STATIC_
 519:Middlewares/Third_Party/LwIP/src/core/ipv4/etharp.c **** }
 520:Middlewares/Third_Party/LwIP/src/core/ipv4/etharp.c **** 
 521:Middlewares/Third_Party/LwIP/src/core/ipv4/etharp.c **** /** Remove a static entry from the ARP table previously added with a call to
 522:Middlewares/Third_Party/LwIP/src/core/ipv4/etharp.c ****  * etharp_add_static_entry.
 523:Middlewares/Third_Party/LwIP/src/core/ipv4/etharp.c ****  *
 524:Middlewares/Third_Party/LwIP/src/core/ipv4/etharp.c ****  * @param ipaddr IP address of the static entry to remove
 525:Middlewares/Third_Party/LwIP/src/core/ipv4/etharp.c ****  * @return ERR_OK: entry removed
 526:Middlewares/Third_Party/LwIP/src/core/ipv4/etharp.c ****  *         ERR_MEM: entry wasn't found
 527:Middlewares/Third_Party/LwIP/src/core/ipv4/etharp.c ****  *         ERR_ARG: entry wasn't a static entry but a dynamic one
 528:Middlewares/Third_Party/LwIP/src/core/ipv4/etharp.c ****  */
 529:Middlewares/Third_Party/LwIP/src/core/ipv4/etharp.c **** err_t
 530:Middlewares/Third_Party/LwIP/src/core/ipv4/etharp.c **** etharp_remove_static_entry(const ip4_addr_t *ipaddr)
 531:Middlewares/Third_Party/LwIP/src/core/ipv4/etharp.c **** {
 532:Middlewares/Third_Party/LwIP/src/core/ipv4/etharp.c ****   s8_t i;
 533:Middlewares/Third_Party/LwIP/src/core/ipv4/etharp.c ****   LWIP_DEBUGF(ETHARP_DEBUG | LWIP_DBG_TRACE, ("etharp_remove_static_entry: %"U16_F".%"U16_F".%"U16_
 534:Middlewares/Third_Party/LwIP/src/core/ipv4/etharp.c ****     ip4_addr1_16(ipaddr), ip4_addr2_16(ipaddr), ip4_addr3_16(ipaddr), ip4_addr4_16(ipaddr)));
 535:Middlewares/Third_Party/LwIP/src/core/ipv4/etharp.c **** 
 536:Middlewares/Third_Party/LwIP/src/core/ipv4/etharp.c ****   /* find or create ARP entry */
 537:Middlewares/Third_Party/LwIP/src/core/ipv4/etharp.c ****   i = etharp_find_entry(ipaddr, ETHARP_FLAG_FIND_ONLY, NULL);
 538:Middlewares/Third_Party/LwIP/src/core/ipv4/etharp.c ****   /* bail out if no entry could be found */
 539:Middlewares/Third_Party/LwIP/src/core/ipv4/etharp.c ****   if (i < 0) {
 540:Middlewares/Third_Party/LwIP/src/core/ipv4/etharp.c ****     return (err_t)i;
 541:Middlewares/Third_Party/LwIP/src/core/ipv4/etharp.c ****   }
ARM GAS  C:\Users\Student\AppData\Local\Temp\ccULT5Xy.s 			page 21


 542:Middlewares/Third_Party/LwIP/src/core/ipv4/etharp.c **** 
 543:Middlewares/Third_Party/LwIP/src/core/ipv4/etharp.c ****   if (arp_table[i].state != ETHARP_STATE_STATIC) {
 544:Middlewares/Third_Party/LwIP/src/core/ipv4/etharp.c ****     /* entry wasn't a static entry, cannot remove it */
 545:Middlewares/Third_Party/LwIP/src/core/ipv4/etharp.c ****     return ERR_ARG;
 546:Middlewares/Third_Party/LwIP/src/core/ipv4/etharp.c ****   }
 547:Middlewares/Third_Party/LwIP/src/core/ipv4/etharp.c ****   /* entry found, free it */
 548:Middlewares/Third_Party/LwIP/src/core/ipv4/etharp.c ****   etharp_free_entry(i);
 549:Middlewares/Third_Party/LwIP/src/core/ipv4/etharp.c ****   return ERR_OK;
 550:Middlewares/Third_Party/LwIP/src/core/ipv4/etharp.c **** }
 551:Middlewares/Third_Party/LwIP/src/core/ipv4/etharp.c **** #endif /* ETHARP_SUPPORT_STATIC_ENTRIES */
 552:Middlewares/Third_Party/LwIP/src/core/ipv4/etharp.c **** 
 553:Middlewares/Third_Party/LwIP/src/core/ipv4/etharp.c **** /**
 554:Middlewares/Third_Party/LwIP/src/core/ipv4/etharp.c ****  * Remove all ARP table entries of the specified netif.
 555:Middlewares/Third_Party/LwIP/src/core/ipv4/etharp.c ****  *
 556:Middlewares/Third_Party/LwIP/src/core/ipv4/etharp.c ****  * @param netif points to a network interface
 557:Middlewares/Third_Party/LwIP/src/core/ipv4/etharp.c ****  */
 558:Middlewares/Third_Party/LwIP/src/core/ipv4/etharp.c **** void
 559:Middlewares/Third_Party/LwIP/src/core/ipv4/etharp.c **** etharp_cleanup_netif(struct netif *netif)
 560:Middlewares/Third_Party/LwIP/src/core/ipv4/etharp.c **** {
 561:Middlewares/Third_Party/LwIP/src/core/ipv4/etharp.c ****   u8_t i;
 562:Middlewares/Third_Party/LwIP/src/core/ipv4/etharp.c **** 
 563:Middlewares/Third_Party/LwIP/src/core/ipv4/etharp.c ****   for (i = 0; i < ARP_TABLE_SIZE; ++i) {
 564:Middlewares/Third_Party/LwIP/src/core/ipv4/etharp.c ****     u8_t state = arp_table[i].state;
 565:Middlewares/Third_Party/LwIP/src/core/ipv4/etharp.c ****     if ((state != ETHARP_STATE_EMPTY) && (arp_table[i].netif == netif)) {
 566:Middlewares/Third_Party/LwIP/src/core/ipv4/etharp.c ****       etharp_free_entry(i);
 567:Middlewares/Third_Party/LwIP/src/core/ipv4/etharp.c ****     }
 568:Middlewares/Third_Party/LwIP/src/core/ipv4/etharp.c ****   }
 569:Middlewares/Third_Party/LwIP/src/core/ipv4/etharp.c **** }
 570:Middlewares/Third_Party/LwIP/src/core/ipv4/etharp.c **** 
 571:Middlewares/Third_Party/LwIP/src/core/ipv4/etharp.c **** /**
 572:Middlewares/Third_Party/LwIP/src/core/ipv4/etharp.c ****  * Finds (stable) ethernet/IP address pair from ARP table
 573:Middlewares/Third_Party/LwIP/src/core/ipv4/etharp.c ****  * using interface and IP address index.
 574:Middlewares/Third_Party/LwIP/src/core/ipv4/etharp.c ****  * @note the addresses in the ARP table are in network order!
 575:Middlewares/Third_Party/LwIP/src/core/ipv4/etharp.c ****  *
 576:Middlewares/Third_Party/LwIP/src/core/ipv4/etharp.c ****  * @param netif points to interface index
 577:Middlewares/Third_Party/LwIP/src/core/ipv4/etharp.c ****  * @param ipaddr points to the (network order) IP address index
 578:Middlewares/Third_Party/LwIP/src/core/ipv4/etharp.c ****  * @param eth_ret points to return pointer
 579:Middlewares/Third_Party/LwIP/src/core/ipv4/etharp.c ****  * @param ip_ret points to return pointer
 580:Middlewares/Third_Party/LwIP/src/core/ipv4/etharp.c ****  * @return table index if found, -1 otherwise
 581:Middlewares/Third_Party/LwIP/src/core/ipv4/etharp.c ****  */
 582:Middlewares/Third_Party/LwIP/src/core/ipv4/etharp.c **** s8_t
 583:Middlewares/Third_Party/LwIP/src/core/ipv4/etharp.c **** etharp_find_addr(struct netif *netif, const ip4_addr_t *ipaddr,
 584:Middlewares/Third_Party/LwIP/src/core/ipv4/etharp.c ****          struct eth_addr **eth_ret, const ip4_addr_t **ip_ret)
 585:Middlewares/Third_Party/LwIP/src/core/ipv4/etharp.c **** {
 586:Middlewares/Third_Party/LwIP/src/core/ipv4/etharp.c ****   s8_t i;
 587:Middlewares/Third_Party/LwIP/src/core/ipv4/etharp.c **** 
 588:Middlewares/Third_Party/LwIP/src/core/ipv4/etharp.c ****   LWIP_ASSERT("eth_ret != NULL && ip_ret != NULL",
 589:Middlewares/Third_Party/LwIP/src/core/ipv4/etharp.c ****     eth_ret != NULL && ip_ret != NULL);
 590:Middlewares/Third_Party/LwIP/src/core/ipv4/etharp.c **** 
 591:Middlewares/Third_Party/LwIP/src/core/ipv4/etharp.c ****   LWIP_UNUSED_ARG(netif);
 592:Middlewares/Third_Party/LwIP/src/core/ipv4/etharp.c **** 
 593:Middlewares/Third_Party/LwIP/src/core/ipv4/etharp.c ****   i = etharp_find_entry(ipaddr, ETHARP_FLAG_FIND_ONLY, netif);
 594:Middlewares/Third_Party/LwIP/src/core/ipv4/etharp.c ****   if ((i >= 0) && (arp_table[i].state >= ETHARP_STATE_STABLE)) {
 595:Middlewares/Third_Party/LwIP/src/core/ipv4/etharp.c ****       *eth_ret = &arp_table[i].ethaddr;
 596:Middlewares/Third_Party/LwIP/src/core/ipv4/etharp.c ****       *ip_ret = &arp_table[i].ipaddr;
 597:Middlewares/Third_Party/LwIP/src/core/ipv4/etharp.c ****       return i;
 598:Middlewares/Third_Party/LwIP/src/core/ipv4/etharp.c ****   }
ARM GAS  C:\Users\Student\AppData\Local\Temp\ccULT5Xy.s 			page 22


 599:Middlewares/Third_Party/LwIP/src/core/ipv4/etharp.c ****   return -1;
 600:Middlewares/Third_Party/LwIP/src/core/ipv4/etharp.c **** }
 601:Middlewares/Third_Party/LwIP/src/core/ipv4/etharp.c **** 
 602:Middlewares/Third_Party/LwIP/src/core/ipv4/etharp.c **** /**
 603:Middlewares/Third_Party/LwIP/src/core/ipv4/etharp.c ****  * Possibility to iterate over stable ARP table entries
 604:Middlewares/Third_Party/LwIP/src/core/ipv4/etharp.c ****  *
 605:Middlewares/Third_Party/LwIP/src/core/ipv4/etharp.c ****  * @param i entry number, 0 to ARP_TABLE_SIZE
 606:Middlewares/Third_Party/LwIP/src/core/ipv4/etharp.c ****  * @param ipaddr return value: IP address
 607:Middlewares/Third_Party/LwIP/src/core/ipv4/etharp.c ****  * @param netif return value: points to interface
 608:Middlewares/Third_Party/LwIP/src/core/ipv4/etharp.c ****  * @param eth_ret return value: ETH address
 609:Middlewares/Third_Party/LwIP/src/core/ipv4/etharp.c ****  * @return 1 on valid index, 0 otherwise
 610:Middlewares/Third_Party/LwIP/src/core/ipv4/etharp.c ****  */
 611:Middlewares/Third_Party/LwIP/src/core/ipv4/etharp.c **** u8_t
 612:Middlewares/Third_Party/LwIP/src/core/ipv4/etharp.c **** etharp_get_entry(u8_t i, ip4_addr_t **ipaddr, struct netif **netif, struct eth_addr **eth_ret)
 613:Middlewares/Third_Party/LwIP/src/core/ipv4/etharp.c **** {
 614:Middlewares/Third_Party/LwIP/src/core/ipv4/etharp.c ****   LWIP_ASSERT("ipaddr != NULL", ipaddr != NULL);
 615:Middlewares/Third_Party/LwIP/src/core/ipv4/etharp.c ****   LWIP_ASSERT("netif != NULL", netif != NULL);
 616:Middlewares/Third_Party/LwIP/src/core/ipv4/etharp.c ****   LWIP_ASSERT("eth_ret != NULL", eth_ret != NULL);
 617:Middlewares/Third_Party/LwIP/src/core/ipv4/etharp.c **** 
 618:Middlewares/Third_Party/LwIP/src/core/ipv4/etharp.c ****   if((i < ARP_TABLE_SIZE) && (arp_table[i].state >= ETHARP_STATE_STABLE)) {
 619:Middlewares/Third_Party/LwIP/src/core/ipv4/etharp.c ****     *ipaddr  = &arp_table[i].ipaddr;
 620:Middlewares/Third_Party/LwIP/src/core/ipv4/etharp.c ****     *netif   = arp_table[i].netif;
 621:Middlewares/Third_Party/LwIP/src/core/ipv4/etharp.c ****     *eth_ret = &arp_table[i].ethaddr;
 622:Middlewares/Third_Party/LwIP/src/core/ipv4/etharp.c ****     return 1;
 623:Middlewares/Third_Party/LwIP/src/core/ipv4/etharp.c ****   } else {
 624:Middlewares/Third_Party/LwIP/src/core/ipv4/etharp.c ****     return 0;
 625:Middlewares/Third_Party/LwIP/src/core/ipv4/etharp.c ****   }
 626:Middlewares/Third_Party/LwIP/src/core/ipv4/etharp.c **** }
 627:Middlewares/Third_Party/LwIP/src/core/ipv4/etharp.c **** 
 628:Middlewares/Third_Party/LwIP/src/core/ipv4/etharp.c **** /**
 629:Middlewares/Third_Party/LwIP/src/core/ipv4/etharp.c ****  * Responds to ARP requests to us. Upon ARP replies to us, add entry to cache
 630:Middlewares/Third_Party/LwIP/src/core/ipv4/etharp.c ****  * send out queued IP packets. Updates cache with snooped address pairs.
 631:Middlewares/Third_Party/LwIP/src/core/ipv4/etharp.c ****  *
 632:Middlewares/Third_Party/LwIP/src/core/ipv4/etharp.c ****  * Should be called for incoming ARP packets. The pbuf in the argument
 633:Middlewares/Third_Party/LwIP/src/core/ipv4/etharp.c ****  * is freed by this function.
 634:Middlewares/Third_Party/LwIP/src/core/ipv4/etharp.c ****  *
 635:Middlewares/Third_Party/LwIP/src/core/ipv4/etharp.c ****  * @param p The ARP packet that arrived on netif. Is freed by this function.
 636:Middlewares/Third_Party/LwIP/src/core/ipv4/etharp.c ****  * @param netif The lwIP network interface on which the ARP packet pbuf arrived.
 637:Middlewares/Third_Party/LwIP/src/core/ipv4/etharp.c ****  *
 638:Middlewares/Third_Party/LwIP/src/core/ipv4/etharp.c ****  * @see pbuf_free()
 639:Middlewares/Third_Party/LwIP/src/core/ipv4/etharp.c ****  */
 640:Middlewares/Third_Party/LwIP/src/core/ipv4/etharp.c **** void
 641:Middlewares/Third_Party/LwIP/src/core/ipv4/etharp.c **** etharp_input(struct pbuf *p, struct netif *netif)
 642:Middlewares/Third_Party/LwIP/src/core/ipv4/etharp.c **** {
 643:Middlewares/Third_Party/LwIP/src/core/ipv4/etharp.c ****   struct etharp_hdr *hdr;
 644:Middlewares/Third_Party/LwIP/src/core/ipv4/etharp.c ****   /* these are aligned properly, whereas the ARP header fields might not be */
 645:Middlewares/Third_Party/LwIP/src/core/ipv4/etharp.c ****   ip4_addr_t sipaddr, dipaddr;
 646:Middlewares/Third_Party/LwIP/src/core/ipv4/etharp.c ****   u8_t for_us;
 647:Middlewares/Third_Party/LwIP/src/core/ipv4/etharp.c **** 
 648:Middlewares/Third_Party/LwIP/src/core/ipv4/etharp.c ****   LWIP_ERROR("netif != NULL", (netif != NULL), return;);
 649:Middlewares/Third_Party/LwIP/src/core/ipv4/etharp.c **** 
 650:Middlewares/Third_Party/LwIP/src/core/ipv4/etharp.c ****   hdr = (struct etharp_hdr *)p->payload;
 651:Middlewares/Third_Party/LwIP/src/core/ipv4/etharp.c **** 
 652:Middlewares/Third_Party/LwIP/src/core/ipv4/etharp.c ****   /* RFC 826 "Packet Reception": */
 653:Middlewares/Third_Party/LwIP/src/core/ipv4/etharp.c ****   if ((hdr->hwtype != PP_HTONS(HWTYPE_ETHERNET)) ||
 654:Middlewares/Third_Party/LwIP/src/core/ipv4/etharp.c ****       (hdr->hwlen != ETH_HWADDR_LEN) ||
 655:Middlewares/Third_Party/LwIP/src/core/ipv4/etharp.c ****       (hdr->protolen != sizeof(ip4_addr_t)) ||
ARM GAS  C:\Users\Student\AppData\Local\Temp\ccULT5Xy.s 			page 23


 656:Middlewares/Third_Party/LwIP/src/core/ipv4/etharp.c ****       (hdr->proto != PP_HTONS(ETHTYPE_IP)))  {
 657:Middlewares/Third_Party/LwIP/src/core/ipv4/etharp.c ****     LWIP_DEBUGF(ETHARP_DEBUG | LWIP_DBG_TRACE | LWIP_DBG_LEVEL_WARNING,
 658:Middlewares/Third_Party/LwIP/src/core/ipv4/etharp.c ****       ("etharp_input: packet dropped, wrong hw type, hwlen, proto, protolen or ethernet type (%"U16
 659:Middlewares/Third_Party/LwIP/src/core/ipv4/etharp.c ****       hdr->hwtype, (u16_t)hdr->hwlen, hdr->proto, (u16_t)hdr->protolen));
 660:Middlewares/Third_Party/LwIP/src/core/ipv4/etharp.c ****     ETHARP_STATS_INC(etharp.proterr);
 661:Middlewares/Third_Party/LwIP/src/core/ipv4/etharp.c ****     ETHARP_STATS_INC(etharp.drop);
 662:Middlewares/Third_Party/LwIP/src/core/ipv4/etharp.c ****     pbuf_free(p);
 663:Middlewares/Third_Party/LwIP/src/core/ipv4/etharp.c ****     return;
 664:Middlewares/Third_Party/LwIP/src/core/ipv4/etharp.c ****   }
 665:Middlewares/Third_Party/LwIP/src/core/ipv4/etharp.c ****   ETHARP_STATS_INC(etharp.recv);
 666:Middlewares/Third_Party/LwIP/src/core/ipv4/etharp.c **** 
 667:Middlewares/Third_Party/LwIP/src/core/ipv4/etharp.c **** #if LWIP_AUTOIP
 668:Middlewares/Third_Party/LwIP/src/core/ipv4/etharp.c ****   /* We have to check if a host already has configured our random
 669:Middlewares/Third_Party/LwIP/src/core/ipv4/etharp.c ****    * created link local address and continuously check if there is
 670:Middlewares/Third_Party/LwIP/src/core/ipv4/etharp.c ****    * a host with this IP-address so we can detect collisions */
 671:Middlewares/Third_Party/LwIP/src/core/ipv4/etharp.c ****   autoip_arp_reply(netif, hdr);
 672:Middlewares/Third_Party/LwIP/src/core/ipv4/etharp.c **** #endif /* LWIP_AUTOIP */
 673:Middlewares/Third_Party/LwIP/src/core/ipv4/etharp.c **** 
 674:Middlewares/Third_Party/LwIP/src/core/ipv4/etharp.c ****   /* Copy struct ip4_addr2 to aligned ip4_addr, to support compilers without
 675:Middlewares/Third_Party/LwIP/src/core/ipv4/etharp.c ****    * structure packing (not using structure copy which breaks strict-aliasing rules). */
 676:Middlewares/Third_Party/LwIP/src/core/ipv4/etharp.c ****   IPADDR2_COPY(&sipaddr, &hdr->sipaddr);
 677:Middlewares/Third_Party/LwIP/src/core/ipv4/etharp.c ****   IPADDR2_COPY(&dipaddr, &hdr->dipaddr);
 678:Middlewares/Third_Party/LwIP/src/core/ipv4/etharp.c **** 
 679:Middlewares/Third_Party/LwIP/src/core/ipv4/etharp.c ****   /* this interface is not configured? */
 680:Middlewares/Third_Party/LwIP/src/core/ipv4/etharp.c ****   if (ip4_addr_isany_val(*netif_ip4_addr(netif))) {
 681:Middlewares/Third_Party/LwIP/src/core/ipv4/etharp.c ****     for_us = 0;
 682:Middlewares/Third_Party/LwIP/src/core/ipv4/etharp.c ****   } else {
 683:Middlewares/Third_Party/LwIP/src/core/ipv4/etharp.c ****     /* ARP packet directed to us? */
 684:Middlewares/Third_Party/LwIP/src/core/ipv4/etharp.c ****     for_us = (u8_t)ip4_addr_cmp(&dipaddr, netif_ip4_addr(netif));
 685:Middlewares/Third_Party/LwIP/src/core/ipv4/etharp.c ****   }
 686:Middlewares/Third_Party/LwIP/src/core/ipv4/etharp.c **** 
 687:Middlewares/Third_Party/LwIP/src/core/ipv4/etharp.c ****   /* ARP message directed to us?
 688:Middlewares/Third_Party/LwIP/src/core/ipv4/etharp.c ****       -> add IP address in ARP cache; assume requester wants to talk to us,
 689:Middlewares/Third_Party/LwIP/src/core/ipv4/etharp.c ****          can result in directly sending the queued packets for this host.
 690:Middlewares/Third_Party/LwIP/src/core/ipv4/etharp.c ****      ARP message not directed to us?
 691:Middlewares/Third_Party/LwIP/src/core/ipv4/etharp.c ****       ->  update the source IP address in the cache, if present */
 692:Middlewares/Third_Party/LwIP/src/core/ipv4/etharp.c ****   etharp_update_arp_entry(netif, &sipaddr, &(hdr->shwaddr),
 693:Middlewares/Third_Party/LwIP/src/core/ipv4/etharp.c ****                    for_us ? ETHARP_FLAG_TRY_HARD : ETHARP_FLAG_FIND_ONLY);
 694:Middlewares/Third_Party/LwIP/src/core/ipv4/etharp.c **** 
 695:Middlewares/Third_Party/LwIP/src/core/ipv4/etharp.c ****   /* now act on the message itself */
 696:Middlewares/Third_Party/LwIP/src/core/ipv4/etharp.c ****   switch (hdr->opcode) {
 697:Middlewares/Third_Party/LwIP/src/core/ipv4/etharp.c ****   /* ARP request? */
 698:Middlewares/Third_Party/LwIP/src/core/ipv4/etharp.c ****   case PP_HTONS(ARP_REQUEST):
 699:Middlewares/Third_Party/LwIP/src/core/ipv4/etharp.c ****     /* ARP request. If it asked for our address, we send out a
 700:Middlewares/Third_Party/LwIP/src/core/ipv4/etharp.c ****      * reply. In any case, we time-stamp any existing ARP entry,
 701:Middlewares/Third_Party/LwIP/src/core/ipv4/etharp.c ****      * and possibly send out an IP packet that was queued on it. */
 702:Middlewares/Third_Party/LwIP/src/core/ipv4/etharp.c **** 
 703:Middlewares/Third_Party/LwIP/src/core/ipv4/etharp.c ****     LWIP_DEBUGF (ETHARP_DEBUG | LWIP_DBG_TRACE, ("etharp_input: incoming ARP request\n"));
 704:Middlewares/Third_Party/LwIP/src/core/ipv4/etharp.c ****     /* ARP request for our address? */
 705:Middlewares/Third_Party/LwIP/src/core/ipv4/etharp.c ****     if (for_us) {
 706:Middlewares/Third_Party/LwIP/src/core/ipv4/etharp.c ****       /* send ARP response */
 707:Middlewares/Third_Party/LwIP/src/core/ipv4/etharp.c ****       etharp_raw(netif,
 708:Middlewares/Third_Party/LwIP/src/core/ipv4/etharp.c ****                  (struct eth_addr *)netif->hwaddr, &hdr->shwaddr,
 709:Middlewares/Third_Party/LwIP/src/core/ipv4/etharp.c ****                  (struct eth_addr *)netif->hwaddr, netif_ip4_addr(netif),
 710:Middlewares/Third_Party/LwIP/src/core/ipv4/etharp.c ****                  &hdr->shwaddr, &sipaddr,
 711:Middlewares/Third_Party/LwIP/src/core/ipv4/etharp.c ****                  ARP_REPLY);
 712:Middlewares/Third_Party/LwIP/src/core/ipv4/etharp.c ****     /* we are not configured? */
ARM GAS  C:\Users\Student\AppData\Local\Temp\ccULT5Xy.s 			page 24


 713:Middlewares/Third_Party/LwIP/src/core/ipv4/etharp.c ****     } else if (ip4_addr_isany_val(*netif_ip4_addr(netif))) {
 714:Middlewares/Third_Party/LwIP/src/core/ipv4/etharp.c ****       /* { for_us == 0 and netif->ip_addr.addr == 0 } */
 715:Middlewares/Third_Party/LwIP/src/core/ipv4/etharp.c ****       LWIP_DEBUGF(ETHARP_DEBUG | LWIP_DBG_TRACE, ("etharp_input: we are unconfigured, ARP request i
 716:Middlewares/Third_Party/LwIP/src/core/ipv4/etharp.c ****     /* request was not directed to us */
 717:Middlewares/Third_Party/LwIP/src/core/ipv4/etharp.c ****     } else {
 718:Middlewares/Third_Party/LwIP/src/core/ipv4/etharp.c ****       /* { for_us == 0 and netif->ip_addr.addr != 0 } */
 719:Middlewares/Third_Party/LwIP/src/core/ipv4/etharp.c ****       LWIP_DEBUGF(ETHARP_DEBUG | LWIP_DBG_TRACE, ("etharp_input: ARP request was not for us.\n"));
 720:Middlewares/Third_Party/LwIP/src/core/ipv4/etharp.c ****     }
 721:Middlewares/Third_Party/LwIP/src/core/ipv4/etharp.c ****     break;
 722:Middlewares/Third_Party/LwIP/src/core/ipv4/etharp.c ****   case PP_HTONS(ARP_REPLY):
 723:Middlewares/Third_Party/LwIP/src/core/ipv4/etharp.c ****     /* ARP reply. We already updated the ARP cache earlier. */
 724:Middlewares/Third_Party/LwIP/src/core/ipv4/etharp.c ****     LWIP_DEBUGF(ETHARP_DEBUG | LWIP_DBG_TRACE, ("etharp_input: incoming ARP reply\n"));
 725:Middlewares/Third_Party/LwIP/src/core/ipv4/etharp.c **** #if (LWIP_DHCP && DHCP_DOES_ARP_CHECK)
 726:Middlewares/Third_Party/LwIP/src/core/ipv4/etharp.c ****     /* DHCP wants to know about ARP replies from any host with an
 727:Middlewares/Third_Party/LwIP/src/core/ipv4/etharp.c ****      * IP address also offered to us by the DHCP server. We do not
 728:Middlewares/Third_Party/LwIP/src/core/ipv4/etharp.c ****      * want to take a duplicate IP address on a single network.
 729:Middlewares/Third_Party/LwIP/src/core/ipv4/etharp.c ****      * @todo How should we handle redundant (fail-over) interfaces? */
 730:Middlewares/Third_Party/LwIP/src/core/ipv4/etharp.c ****     dhcp_arp_reply(netif, &sipaddr);
 731:Middlewares/Third_Party/LwIP/src/core/ipv4/etharp.c **** #endif /* (LWIP_DHCP && DHCP_DOES_ARP_CHECK) */
 732:Middlewares/Third_Party/LwIP/src/core/ipv4/etharp.c ****     break;
 733:Middlewares/Third_Party/LwIP/src/core/ipv4/etharp.c ****   default:
 734:Middlewares/Third_Party/LwIP/src/core/ipv4/etharp.c ****     LWIP_DEBUGF(ETHARP_DEBUG | LWIP_DBG_TRACE, ("etharp_input: ARP unknown opcode type %"S16_F"\n",
 735:Middlewares/Third_Party/LwIP/src/core/ipv4/etharp.c ****     ETHARP_STATS_INC(etharp.err);
 736:Middlewares/Third_Party/LwIP/src/core/ipv4/etharp.c ****     break;
 737:Middlewares/Third_Party/LwIP/src/core/ipv4/etharp.c ****   }
 738:Middlewares/Third_Party/LwIP/src/core/ipv4/etharp.c ****   /* free ARP packet */
 739:Middlewares/Third_Party/LwIP/src/core/ipv4/etharp.c ****   pbuf_free(p);
 740:Middlewares/Third_Party/LwIP/src/core/ipv4/etharp.c **** }
 741:Middlewares/Third_Party/LwIP/src/core/ipv4/etharp.c **** 
 742:Middlewares/Third_Party/LwIP/src/core/ipv4/etharp.c **** /** Just a small helper function that sends a pbuf to an ethernet address
 743:Middlewares/Third_Party/LwIP/src/core/ipv4/etharp.c ****  * in the arp_table specified by the index 'arp_idx'.
 744:Middlewares/Third_Party/LwIP/src/core/ipv4/etharp.c ****  */
 745:Middlewares/Third_Party/LwIP/src/core/ipv4/etharp.c **** static err_t
 746:Middlewares/Third_Party/LwIP/src/core/ipv4/etharp.c **** etharp_output_to_arp_index(struct netif *netif, struct pbuf *q, u8_t arp_idx)
 747:Middlewares/Third_Party/LwIP/src/core/ipv4/etharp.c **** {
 748:Middlewares/Third_Party/LwIP/src/core/ipv4/etharp.c ****   LWIP_ASSERT("arp_table[arp_idx].state >= ETHARP_STATE_STABLE",
 749:Middlewares/Third_Party/LwIP/src/core/ipv4/etharp.c ****               arp_table[arp_idx].state >= ETHARP_STATE_STABLE);
 750:Middlewares/Third_Party/LwIP/src/core/ipv4/etharp.c ****   /* if arp table entry is about to expire: re-request it,
 751:Middlewares/Third_Party/LwIP/src/core/ipv4/etharp.c ****      but only if its state is ETHARP_STATE_STABLE to prevent flooding the
 752:Middlewares/Third_Party/LwIP/src/core/ipv4/etharp.c ****      network with ARP requests if this address is used frequently. */
 753:Middlewares/Third_Party/LwIP/src/core/ipv4/etharp.c ****   if (arp_table[arp_idx].state == ETHARP_STATE_STABLE) {
 754:Middlewares/Third_Party/LwIP/src/core/ipv4/etharp.c ****     if (arp_table[arp_idx].ctime >= ARP_AGE_REREQUEST_USED_BROADCAST) {
 755:Middlewares/Third_Party/LwIP/src/core/ipv4/etharp.c ****       /* issue a standard request using broadcast */
 756:Middlewares/Third_Party/LwIP/src/core/ipv4/etharp.c ****       if (etharp_request(netif, &arp_table[arp_idx].ipaddr) == ERR_OK) {
 757:Middlewares/Third_Party/LwIP/src/core/ipv4/etharp.c ****         arp_table[arp_idx].state = ETHARP_STATE_STABLE_REREQUESTING_1;
 758:Middlewares/Third_Party/LwIP/src/core/ipv4/etharp.c ****       }
 759:Middlewares/Third_Party/LwIP/src/core/ipv4/etharp.c ****     } else if (arp_table[arp_idx].ctime >= ARP_AGE_REREQUEST_USED_UNICAST) {
 760:Middlewares/Third_Party/LwIP/src/core/ipv4/etharp.c ****       /* issue a unicast request (for 15 seconds) to prevent unnecessary broadcast */
 761:Middlewares/Third_Party/LwIP/src/core/ipv4/etharp.c ****       if (etharp_request_dst(netif, &arp_table[arp_idx].ipaddr, &arp_table[arp_idx].ethaddr) == ERR
 762:Middlewares/Third_Party/LwIP/src/core/ipv4/etharp.c ****         arp_table[arp_idx].state = ETHARP_STATE_STABLE_REREQUESTING_1;
 763:Middlewares/Third_Party/LwIP/src/core/ipv4/etharp.c ****       }
 764:Middlewares/Third_Party/LwIP/src/core/ipv4/etharp.c ****     }
 765:Middlewares/Third_Party/LwIP/src/core/ipv4/etharp.c ****   }
 766:Middlewares/Third_Party/LwIP/src/core/ipv4/etharp.c **** 
 767:Middlewares/Third_Party/LwIP/src/core/ipv4/etharp.c ****   return ethernet_output(netif, q, (struct eth_addr*)(netif->hwaddr), &arp_table[arp_idx].ethaddr, 
 768:Middlewares/Third_Party/LwIP/src/core/ipv4/etharp.c **** }
 769:Middlewares/Third_Party/LwIP/src/core/ipv4/etharp.c **** 
ARM GAS  C:\Users\Student\AppData\Local\Temp\ccULT5Xy.s 			page 25


 770:Middlewares/Third_Party/LwIP/src/core/ipv4/etharp.c **** /**
 771:Middlewares/Third_Party/LwIP/src/core/ipv4/etharp.c ****  * Resolve and fill-in Ethernet address header for outgoing IP packet.
 772:Middlewares/Third_Party/LwIP/src/core/ipv4/etharp.c ****  *
 773:Middlewares/Third_Party/LwIP/src/core/ipv4/etharp.c ****  * For IP multicast and broadcast, corresponding Ethernet addresses
 774:Middlewares/Third_Party/LwIP/src/core/ipv4/etharp.c ****  * are selected and the packet is transmitted on the link.
 775:Middlewares/Third_Party/LwIP/src/core/ipv4/etharp.c ****  *
 776:Middlewares/Third_Party/LwIP/src/core/ipv4/etharp.c ****  * For unicast addresses, the packet is submitted to etharp_query(). In
 777:Middlewares/Third_Party/LwIP/src/core/ipv4/etharp.c ****  * case the IP address is outside the local network, the IP address of
 778:Middlewares/Third_Party/LwIP/src/core/ipv4/etharp.c ****  * the gateway is used.
 779:Middlewares/Third_Party/LwIP/src/core/ipv4/etharp.c ****  *
 780:Middlewares/Third_Party/LwIP/src/core/ipv4/etharp.c ****  * @param netif The lwIP network interface which the IP packet will be sent on.
 781:Middlewares/Third_Party/LwIP/src/core/ipv4/etharp.c ****  * @param q The pbuf(s) containing the IP packet to be sent.
 782:Middlewares/Third_Party/LwIP/src/core/ipv4/etharp.c ****  * @param ipaddr The IP address of the packet destination.
 783:Middlewares/Third_Party/LwIP/src/core/ipv4/etharp.c ****  *
 784:Middlewares/Third_Party/LwIP/src/core/ipv4/etharp.c ****  * @return
 785:Middlewares/Third_Party/LwIP/src/core/ipv4/etharp.c ****  * - ERR_RTE No route to destination (no gateway to external networks),
 786:Middlewares/Third_Party/LwIP/src/core/ipv4/etharp.c ****  * or the return type of either etharp_query() or ethernet_output().
 787:Middlewares/Third_Party/LwIP/src/core/ipv4/etharp.c ****  */
 788:Middlewares/Third_Party/LwIP/src/core/ipv4/etharp.c **** err_t
 789:Middlewares/Third_Party/LwIP/src/core/ipv4/etharp.c **** etharp_output(struct netif *netif, struct pbuf *q, const ip4_addr_t *ipaddr)
 790:Middlewares/Third_Party/LwIP/src/core/ipv4/etharp.c **** {
 791:Middlewares/Third_Party/LwIP/src/core/ipv4/etharp.c ****   const struct eth_addr *dest;
 792:Middlewares/Third_Party/LwIP/src/core/ipv4/etharp.c ****   struct eth_addr mcastaddr;
 793:Middlewares/Third_Party/LwIP/src/core/ipv4/etharp.c ****   const ip4_addr_t *dst_addr = ipaddr;
 794:Middlewares/Third_Party/LwIP/src/core/ipv4/etharp.c **** 
 795:Middlewares/Third_Party/LwIP/src/core/ipv4/etharp.c ****   LWIP_ASSERT("netif != NULL", netif != NULL);
 796:Middlewares/Third_Party/LwIP/src/core/ipv4/etharp.c ****   LWIP_ASSERT("q != NULL", q != NULL);
 797:Middlewares/Third_Party/LwIP/src/core/ipv4/etharp.c ****   LWIP_ASSERT("ipaddr != NULL", ipaddr != NULL);
 798:Middlewares/Third_Party/LwIP/src/core/ipv4/etharp.c **** 
 799:Middlewares/Third_Party/LwIP/src/core/ipv4/etharp.c ****   /* Determine on destination hardware address. Broadcasts and multicasts
 800:Middlewares/Third_Party/LwIP/src/core/ipv4/etharp.c ****    * are special, other IP addresses are looked up in the ARP table. */
 801:Middlewares/Third_Party/LwIP/src/core/ipv4/etharp.c **** 
 802:Middlewares/Third_Party/LwIP/src/core/ipv4/etharp.c ****   /* broadcast destination IP address? */
 803:Middlewares/Third_Party/LwIP/src/core/ipv4/etharp.c ****   if (ip4_addr_isbroadcast(ipaddr, netif)) {
 804:Middlewares/Third_Party/LwIP/src/core/ipv4/etharp.c ****     /* broadcast on Ethernet also */
 805:Middlewares/Third_Party/LwIP/src/core/ipv4/etharp.c ****     dest = (const struct eth_addr *)&ethbroadcast;
 806:Middlewares/Third_Party/LwIP/src/core/ipv4/etharp.c ****   /* multicast destination IP address? */
 807:Middlewares/Third_Party/LwIP/src/core/ipv4/etharp.c ****   } else if (ip4_addr_ismulticast(ipaddr)) {
 808:Middlewares/Third_Party/LwIP/src/core/ipv4/etharp.c ****     /* Hash IP multicast address to MAC address.*/
 809:Middlewares/Third_Party/LwIP/src/core/ipv4/etharp.c ****     mcastaddr.addr[0] = LL_IP4_MULTICAST_ADDR_0;
 810:Middlewares/Third_Party/LwIP/src/core/ipv4/etharp.c ****     mcastaddr.addr[1] = LL_IP4_MULTICAST_ADDR_1;
 811:Middlewares/Third_Party/LwIP/src/core/ipv4/etharp.c ****     mcastaddr.addr[2] = LL_IP4_MULTICAST_ADDR_2;
 812:Middlewares/Third_Party/LwIP/src/core/ipv4/etharp.c ****     mcastaddr.addr[3] = ip4_addr2(ipaddr) & 0x7f;
 813:Middlewares/Third_Party/LwIP/src/core/ipv4/etharp.c ****     mcastaddr.addr[4] = ip4_addr3(ipaddr);
 814:Middlewares/Third_Party/LwIP/src/core/ipv4/etharp.c ****     mcastaddr.addr[5] = ip4_addr4(ipaddr);
 815:Middlewares/Third_Party/LwIP/src/core/ipv4/etharp.c ****     /* destination Ethernet address is multicast */
 816:Middlewares/Third_Party/LwIP/src/core/ipv4/etharp.c ****     dest = &mcastaddr;
 817:Middlewares/Third_Party/LwIP/src/core/ipv4/etharp.c ****   /* unicast destination IP address? */
 818:Middlewares/Third_Party/LwIP/src/core/ipv4/etharp.c ****   } else {
 819:Middlewares/Third_Party/LwIP/src/core/ipv4/etharp.c ****     s8_t i;
 820:Middlewares/Third_Party/LwIP/src/core/ipv4/etharp.c ****     /* outside local network? if so, this can neither be a global broadcast nor
 821:Middlewares/Third_Party/LwIP/src/core/ipv4/etharp.c ****        a subnet broadcast. */
 822:Middlewares/Third_Party/LwIP/src/core/ipv4/etharp.c ****     if (!ip4_addr_netcmp(ipaddr, netif_ip4_addr(netif), netif_ip4_netmask(netif)) &&
 823:Middlewares/Third_Party/LwIP/src/core/ipv4/etharp.c ****         !ip4_addr_islinklocal(ipaddr)) {
 824:Middlewares/Third_Party/LwIP/src/core/ipv4/etharp.c **** #if LWIP_AUTOIP
 825:Middlewares/Third_Party/LwIP/src/core/ipv4/etharp.c ****       struct ip_hdr *iphdr = LWIP_ALIGNMENT_CAST(struct ip_hdr*, q->payload);
 826:Middlewares/Third_Party/LwIP/src/core/ipv4/etharp.c ****       /* According to RFC 3297, chapter 2.6.2 (Forwarding Rules), a packet with
ARM GAS  C:\Users\Student\AppData\Local\Temp\ccULT5Xy.s 			page 26


 827:Middlewares/Third_Party/LwIP/src/core/ipv4/etharp.c ****          a link-local source address must always be "directly to its destination
 828:Middlewares/Third_Party/LwIP/src/core/ipv4/etharp.c ****          on the same physical link. The host MUST NOT send the packet to any
 829:Middlewares/Third_Party/LwIP/src/core/ipv4/etharp.c ****          router for forwarding". */
 830:Middlewares/Third_Party/LwIP/src/core/ipv4/etharp.c ****       if (!ip4_addr_islinklocal(&iphdr->src))
 831:Middlewares/Third_Party/LwIP/src/core/ipv4/etharp.c **** #endif /* LWIP_AUTOIP */
 832:Middlewares/Third_Party/LwIP/src/core/ipv4/etharp.c ****       {
 833:Middlewares/Third_Party/LwIP/src/core/ipv4/etharp.c **** #ifdef LWIP_HOOK_ETHARP_GET_GW
 834:Middlewares/Third_Party/LwIP/src/core/ipv4/etharp.c ****         /* For advanced routing, a single default gateway might not be enough, so get
 835:Middlewares/Third_Party/LwIP/src/core/ipv4/etharp.c ****            the IP address of the gateway to handle the current destination address. */
 836:Middlewares/Third_Party/LwIP/src/core/ipv4/etharp.c ****         dst_addr = LWIP_HOOK_ETHARP_GET_GW(netif, ipaddr);
 837:Middlewares/Third_Party/LwIP/src/core/ipv4/etharp.c ****         if (dst_addr == NULL)
 838:Middlewares/Third_Party/LwIP/src/core/ipv4/etharp.c **** #endif /* LWIP_HOOK_ETHARP_GET_GW */
 839:Middlewares/Third_Party/LwIP/src/core/ipv4/etharp.c ****         {
 840:Middlewares/Third_Party/LwIP/src/core/ipv4/etharp.c ****           /* interface has default gateway? */
 841:Middlewares/Third_Party/LwIP/src/core/ipv4/etharp.c ****           if (!ip4_addr_isany_val(*netif_ip4_gw(netif))) {
 842:Middlewares/Third_Party/LwIP/src/core/ipv4/etharp.c ****             /* send to hardware address of default gateway IP address */
 843:Middlewares/Third_Party/LwIP/src/core/ipv4/etharp.c ****             dst_addr = netif_ip4_gw(netif);
 844:Middlewares/Third_Party/LwIP/src/core/ipv4/etharp.c ****           /* no default gateway available */
 845:Middlewares/Third_Party/LwIP/src/core/ipv4/etharp.c ****           } else {
 846:Middlewares/Third_Party/LwIP/src/core/ipv4/etharp.c ****             /* no route to destination error (default gateway missing) */
 847:Middlewares/Third_Party/LwIP/src/core/ipv4/etharp.c ****             return ERR_RTE;
 848:Middlewares/Third_Party/LwIP/src/core/ipv4/etharp.c ****           }
 849:Middlewares/Third_Party/LwIP/src/core/ipv4/etharp.c ****         }
 850:Middlewares/Third_Party/LwIP/src/core/ipv4/etharp.c ****       }
 851:Middlewares/Third_Party/LwIP/src/core/ipv4/etharp.c ****     }
 852:Middlewares/Third_Party/LwIP/src/core/ipv4/etharp.c **** #if LWIP_NETIF_HWADDRHINT
 853:Middlewares/Third_Party/LwIP/src/core/ipv4/etharp.c ****     if (netif->addr_hint != NULL) {
 854:Middlewares/Third_Party/LwIP/src/core/ipv4/etharp.c ****       /* per-pcb cached entry was given */
 855:Middlewares/Third_Party/LwIP/src/core/ipv4/etharp.c ****       u8_t etharp_cached_entry = *(netif->addr_hint);
 856:Middlewares/Third_Party/LwIP/src/core/ipv4/etharp.c ****       if (etharp_cached_entry < ARP_TABLE_SIZE) {
 857:Middlewares/Third_Party/LwIP/src/core/ipv4/etharp.c **** #endif /* LWIP_NETIF_HWADDRHINT */
 858:Middlewares/Third_Party/LwIP/src/core/ipv4/etharp.c ****         if ((arp_table[etharp_cached_entry].state >= ETHARP_STATE_STABLE) &&
 859:Middlewares/Third_Party/LwIP/src/core/ipv4/etharp.c **** #if ETHARP_TABLE_MATCH_NETIF
 860:Middlewares/Third_Party/LwIP/src/core/ipv4/etharp.c ****             (arp_table[etharp_cached_entry].netif == netif) &&
 861:Middlewares/Third_Party/LwIP/src/core/ipv4/etharp.c **** #endif
 862:Middlewares/Third_Party/LwIP/src/core/ipv4/etharp.c ****             (ip4_addr_cmp(dst_addr, &arp_table[etharp_cached_entry].ipaddr))) {
 863:Middlewares/Third_Party/LwIP/src/core/ipv4/etharp.c ****           /* the per-pcb-cached entry is stable and the right one! */
 864:Middlewares/Third_Party/LwIP/src/core/ipv4/etharp.c ****           ETHARP_STATS_INC(etharp.cachehit);
 865:Middlewares/Third_Party/LwIP/src/core/ipv4/etharp.c ****           return etharp_output_to_arp_index(netif, q, etharp_cached_entry);
 866:Middlewares/Third_Party/LwIP/src/core/ipv4/etharp.c ****         }
 867:Middlewares/Third_Party/LwIP/src/core/ipv4/etharp.c **** #if LWIP_NETIF_HWADDRHINT
 868:Middlewares/Third_Party/LwIP/src/core/ipv4/etharp.c ****       }
 869:Middlewares/Third_Party/LwIP/src/core/ipv4/etharp.c ****     }
 870:Middlewares/Third_Party/LwIP/src/core/ipv4/etharp.c **** #endif /* LWIP_NETIF_HWADDRHINT */
 871:Middlewares/Third_Party/LwIP/src/core/ipv4/etharp.c **** 
 872:Middlewares/Third_Party/LwIP/src/core/ipv4/etharp.c ****     /* find stable entry: do this here since this is a critical path for
 873:Middlewares/Third_Party/LwIP/src/core/ipv4/etharp.c ****        throughput and etharp_find_entry() is kind of slow */
 874:Middlewares/Third_Party/LwIP/src/core/ipv4/etharp.c ****     for (i = 0; i < ARP_TABLE_SIZE; i++) {
 875:Middlewares/Third_Party/LwIP/src/core/ipv4/etharp.c ****       if ((arp_table[i].state >= ETHARP_STATE_STABLE) &&
 876:Middlewares/Third_Party/LwIP/src/core/ipv4/etharp.c **** #if ETHARP_TABLE_MATCH_NETIF
 877:Middlewares/Third_Party/LwIP/src/core/ipv4/etharp.c ****           (arp_table[i].netif == netif) &&
 878:Middlewares/Third_Party/LwIP/src/core/ipv4/etharp.c **** #endif
 879:Middlewares/Third_Party/LwIP/src/core/ipv4/etharp.c ****           (ip4_addr_cmp(dst_addr, &arp_table[i].ipaddr))) {
 880:Middlewares/Third_Party/LwIP/src/core/ipv4/etharp.c ****         /* found an existing, stable entry */
 881:Middlewares/Third_Party/LwIP/src/core/ipv4/etharp.c ****         ETHARP_SET_HINT(netif, i);
 882:Middlewares/Third_Party/LwIP/src/core/ipv4/etharp.c ****         return etharp_output_to_arp_index(netif, q, i);
 883:Middlewares/Third_Party/LwIP/src/core/ipv4/etharp.c ****       }
ARM GAS  C:\Users\Student\AppData\Local\Temp\ccULT5Xy.s 			page 27


 884:Middlewares/Third_Party/LwIP/src/core/ipv4/etharp.c ****     }
 885:Middlewares/Third_Party/LwIP/src/core/ipv4/etharp.c ****     /* no stable entry found, use the (slower) query function:
 886:Middlewares/Third_Party/LwIP/src/core/ipv4/etharp.c ****        queue on destination Ethernet address belonging to ipaddr */
 887:Middlewares/Third_Party/LwIP/src/core/ipv4/etharp.c ****     return etharp_query(netif, dst_addr, q);
 888:Middlewares/Third_Party/LwIP/src/core/ipv4/etharp.c ****   }
 889:Middlewares/Third_Party/LwIP/src/core/ipv4/etharp.c **** 
 890:Middlewares/Third_Party/LwIP/src/core/ipv4/etharp.c ****   /* continuation for multicast/broadcast destinations */
 891:Middlewares/Third_Party/LwIP/src/core/ipv4/etharp.c ****   /* obtain source Ethernet address of the given interface */
 892:Middlewares/Third_Party/LwIP/src/core/ipv4/etharp.c ****   /* send packet directly on the link */
 893:Middlewares/Third_Party/LwIP/src/core/ipv4/etharp.c ****   return ethernet_output(netif, q, (struct eth_addr*)(netif->hwaddr), dest, ETHTYPE_IP);
 894:Middlewares/Third_Party/LwIP/src/core/ipv4/etharp.c **** }
 895:Middlewares/Third_Party/LwIP/src/core/ipv4/etharp.c **** 
 896:Middlewares/Third_Party/LwIP/src/core/ipv4/etharp.c **** /**
 897:Middlewares/Third_Party/LwIP/src/core/ipv4/etharp.c ****  * Send an ARP request for the given IP address and/or queue a packet.
 898:Middlewares/Third_Party/LwIP/src/core/ipv4/etharp.c ****  *
 899:Middlewares/Third_Party/LwIP/src/core/ipv4/etharp.c ****  * If the IP address was not yet in the cache, a pending ARP cache entry
 900:Middlewares/Third_Party/LwIP/src/core/ipv4/etharp.c ****  * is added and an ARP request is sent for the given address. The packet
 901:Middlewares/Third_Party/LwIP/src/core/ipv4/etharp.c ****  * is queued on this entry.
 902:Middlewares/Third_Party/LwIP/src/core/ipv4/etharp.c ****  *
 903:Middlewares/Third_Party/LwIP/src/core/ipv4/etharp.c ****  * If the IP address was already pending in the cache, a new ARP request
 904:Middlewares/Third_Party/LwIP/src/core/ipv4/etharp.c ****  * is sent for the given address. The packet is queued on this entry.
 905:Middlewares/Third_Party/LwIP/src/core/ipv4/etharp.c ****  *
 906:Middlewares/Third_Party/LwIP/src/core/ipv4/etharp.c ****  * If the IP address was already stable in the cache, and a packet is
 907:Middlewares/Third_Party/LwIP/src/core/ipv4/etharp.c ****  * given, it is directly sent and no ARP request is sent out.
 908:Middlewares/Third_Party/LwIP/src/core/ipv4/etharp.c ****  *
 909:Middlewares/Third_Party/LwIP/src/core/ipv4/etharp.c ****  * If the IP address was already stable in the cache, and no packet is
 910:Middlewares/Third_Party/LwIP/src/core/ipv4/etharp.c ****  * given, an ARP request is sent out.
 911:Middlewares/Third_Party/LwIP/src/core/ipv4/etharp.c ****  *
 912:Middlewares/Third_Party/LwIP/src/core/ipv4/etharp.c ****  * @param netif The lwIP network interface on which ipaddr
 913:Middlewares/Third_Party/LwIP/src/core/ipv4/etharp.c ****  * must be queried for.
 914:Middlewares/Third_Party/LwIP/src/core/ipv4/etharp.c ****  * @param ipaddr The IP address to be resolved.
 915:Middlewares/Third_Party/LwIP/src/core/ipv4/etharp.c ****  * @param q If non-NULL, a pbuf that must be delivered to the IP address.
 916:Middlewares/Third_Party/LwIP/src/core/ipv4/etharp.c ****  * q is not freed by this function.
 917:Middlewares/Third_Party/LwIP/src/core/ipv4/etharp.c ****  *
 918:Middlewares/Third_Party/LwIP/src/core/ipv4/etharp.c ****  * @note q must only be ONE packet, not a packet queue!
 919:Middlewares/Third_Party/LwIP/src/core/ipv4/etharp.c ****  *
 920:Middlewares/Third_Party/LwIP/src/core/ipv4/etharp.c ****  * @return
 921:Middlewares/Third_Party/LwIP/src/core/ipv4/etharp.c ****  * - ERR_BUF Could not make room for Ethernet header.
 922:Middlewares/Third_Party/LwIP/src/core/ipv4/etharp.c ****  * - ERR_MEM Hardware address unknown, and no more ARP entries available
 923:Middlewares/Third_Party/LwIP/src/core/ipv4/etharp.c ****  *   to query for address or queue the packet.
 924:Middlewares/Third_Party/LwIP/src/core/ipv4/etharp.c ****  * - ERR_MEM Could not queue packet due to memory shortage.
 925:Middlewares/Third_Party/LwIP/src/core/ipv4/etharp.c ****  * - ERR_RTE No route to destination (no gateway to external networks).
 926:Middlewares/Third_Party/LwIP/src/core/ipv4/etharp.c ****  * - ERR_ARG Non-unicast address given, those will not appear in ARP cache.
 927:Middlewares/Third_Party/LwIP/src/core/ipv4/etharp.c ****  *
 928:Middlewares/Third_Party/LwIP/src/core/ipv4/etharp.c ****  */
 929:Middlewares/Third_Party/LwIP/src/core/ipv4/etharp.c **** err_t
 930:Middlewares/Third_Party/LwIP/src/core/ipv4/etharp.c **** etharp_query(struct netif *netif, const ip4_addr_t *ipaddr, struct pbuf *q)
 931:Middlewares/Third_Party/LwIP/src/core/ipv4/etharp.c **** {
 932:Middlewares/Third_Party/LwIP/src/core/ipv4/etharp.c ****   struct eth_addr * srcaddr = (struct eth_addr *)netif->hwaddr;
 933:Middlewares/Third_Party/LwIP/src/core/ipv4/etharp.c ****   err_t result = ERR_MEM;
 934:Middlewares/Third_Party/LwIP/src/core/ipv4/etharp.c ****   int is_new_entry = 0;
 935:Middlewares/Third_Party/LwIP/src/core/ipv4/etharp.c ****   s8_t i; /* ARP entry index */
 936:Middlewares/Third_Party/LwIP/src/core/ipv4/etharp.c **** 
 937:Middlewares/Third_Party/LwIP/src/core/ipv4/etharp.c ****   /* non-unicast address? */
 938:Middlewares/Third_Party/LwIP/src/core/ipv4/etharp.c ****   if (ip4_addr_isbroadcast(ipaddr, netif) ||
 939:Middlewares/Third_Party/LwIP/src/core/ipv4/etharp.c ****       ip4_addr_ismulticast(ipaddr) ||
 940:Middlewares/Third_Party/LwIP/src/core/ipv4/etharp.c ****       ip4_addr_isany(ipaddr)) {
ARM GAS  C:\Users\Student\AppData\Local\Temp\ccULT5Xy.s 			page 28


 941:Middlewares/Third_Party/LwIP/src/core/ipv4/etharp.c ****     LWIP_DEBUGF(ETHARP_DEBUG | LWIP_DBG_TRACE, ("etharp_query: will not add non-unicast IP address 
 942:Middlewares/Third_Party/LwIP/src/core/ipv4/etharp.c ****     return ERR_ARG;
 943:Middlewares/Third_Party/LwIP/src/core/ipv4/etharp.c ****   }
 944:Middlewares/Third_Party/LwIP/src/core/ipv4/etharp.c **** 
 945:Middlewares/Third_Party/LwIP/src/core/ipv4/etharp.c ****   /* find entry in ARP cache, ask to create entry if queueing packet */
 946:Middlewares/Third_Party/LwIP/src/core/ipv4/etharp.c ****   i = etharp_find_entry(ipaddr, ETHARP_FLAG_TRY_HARD, netif);
 947:Middlewares/Third_Party/LwIP/src/core/ipv4/etharp.c **** 
 948:Middlewares/Third_Party/LwIP/src/core/ipv4/etharp.c ****   /* could not find or create entry? */
 949:Middlewares/Third_Party/LwIP/src/core/ipv4/etharp.c ****   if (i < 0) {
 950:Middlewares/Third_Party/LwIP/src/core/ipv4/etharp.c ****     LWIP_DEBUGF(ETHARP_DEBUG | LWIP_DBG_TRACE, ("etharp_query: could not create ARP entry\n"));
 951:Middlewares/Third_Party/LwIP/src/core/ipv4/etharp.c ****     if (q) {
 952:Middlewares/Third_Party/LwIP/src/core/ipv4/etharp.c ****       LWIP_DEBUGF(ETHARP_DEBUG | LWIP_DBG_TRACE, ("etharp_query: packet dropped\n"));
 953:Middlewares/Third_Party/LwIP/src/core/ipv4/etharp.c ****       ETHARP_STATS_INC(etharp.memerr);
 954:Middlewares/Third_Party/LwIP/src/core/ipv4/etharp.c ****     }
 955:Middlewares/Third_Party/LwIP/src/core/ipv4/etharp.c ****     return (err_t)i;
 956:Middlewares/Third_Party/LwIP/src/core/ipv4/etharp.c ****   }
 957:Middlewares/Third_Party/LwIP/src/core/ipv4/etharp.c **** 
 958:Middlewares/Third_Party/LwIP/src/core/ipv4/etharp.c ****   /* mark a fresh entry as pending (we just sent a request) */
 959:Middlewares/Third_Party/LwIP/src/core/ipv4/etharp.c ****   if (arp_table[i].state == ETHARP_STATE_EMPTY) {
 960:Middlewares/Third_Party/LwIP/src/core/ipv4/etharp.c ****     is_new_entry = 1;
 961:Middlewares/Third_Party/LwIP/src/core/ipv4/etharp.c ****     arp_table[i].state = ETHARP_STATE_PENDING;
 962:Middlewares/Third_Party/LwIP/src/core/ipv4/etharp.c ****     /* record network interface for re-sending arp request in etharp_tmr */
 963:Middlewares/Third_Party/LwIP/src/core/ipv4/etharp.c ****     arp_table[i].netif = netif;
 964:Middlewares/Third_Party/LwIP/src/core/ipv4/etharp.c ****   }
 965:Middlewares/Third_Party/LwIP/src/core/ipv4/etharp.c **** 
 966:Middlewares/Third_Party/LwIP/src/core/ipv4/etharp.c ****   /* { i is either a STABLE or (new or existing) PENDING entry } */
 967:Middlewares/Third_Party/LwIP/src/core/ipv4/etharp.c ****   LWIP_ASSERT("arp_table[i].state == PENDING or STABLE",
 968:Middlewares/Third_Party/LwIP/src/core/ipv4/etharp.c ****   ((arp_table[i].state == ETHARP_STATE_PENDING) ||
 969:Middlewares/Third_Party/LwIP/src/core/ipv4/etharp.c ****    (arp_table[i].state >= ETHARP_STATE_STABLE)));
 970:Middlewares/Third_Party/LwIP/src/core/ipv4/etharp.c **** 
 971:Middlewares/Third_Party/LwIP/src/core/ipv4/etharp.c ****   /* do we have a new entry? or an implicit query request? */
 972:Middlewares/Third_Party/LwIP/src/core/ipv4/etharp.c ****   if (is_new_entry || (q == NULL)) {
 973:Middlewares/Third_Party/LwIP/src/core/ipv4/etharp.c ****     /* try to resolve it; send out ARP request */
 974:Middlewares/Third_Party/LwIP/src/core/ipv4/etharp.c ****     result = etharp_request(netif, ipaddr);
 975:Middlewares/Third_Party/LwIP/src/core/ipv4/etharp.c ****     if (result != ERR_OK) {
 976:Middlewares/Third_Party/LwIP/src/core/ipv4/etharp.c ****       /* ARP request couldn't be sent */
 977:Middlewares/Third_Party/LwIP/src/core/ipv4/etharp.c ****       /* We don't re-send arp request in etharp_tmr, but we still queue packets,
 978:Middlewares/Third_Party/LwIP/src/core/ipv4/etharp.c ****          since this failure could be temporary, and the next packet calling
 979:Middlewares/Third_Party/LwIP/src/core/ipv4/etharp.c ****          etharp_query again could lead to sending the queued packets. */
 980:Middlewares/Third_Party/LwIP/src/core/ipv4/etharp.c ****     }
 981:Middlewares/Third_Party/LwIP/src/core/ipv4/etharp.c ****     if (q == NULL) {
 982:Middlewares/Third_Party/LwIP/src/core/ipv4/etharp.c ****       return result;
 983:Middlewares/Third_Party/LwIP/src/core/ipv4/etharp.c ****     }
 984:Middlewares/Third_Party/LwIP/src/core/ipv4/etharp.c ****   }
 985:Middlewares/Third_Party/LwIP/src/core/ipv4/etharp.c **** 
 986:Middlewares/Third_Party/LwIP/src/core/ipv4/etharp.c ****   /* packet given? */
 987:Middlewares/Third_Party/LwIP/src/core/ipv4/etharp.c ****   LWIP_ASSERT("q != NULL", q != NULL);
 988:Middlewares/Third_Party/LwIP/src/core/ipv4/etharp.c ****   /* stable entry? */
 989:Middlewares/Third_Party/LwIP/src/core/ipv4/etharp.c ****   if (arp_table[i].state >= ETHARP_STATE_STABLE) {
 990:Middlewares/Third_Party/LwIP/src/core/ipv4/etharp.c ****     /* we have a valid IP->Ethernet address mapping */
 991:Middlewares/Third_Party/LwIP/src/core/ipv4/etharp.c ****     ETHARP_SET_HINT(netif, i);
 992:Middlewares/Third_Party/LwIP/src/core/ipv4/etharp.c ****     /* send the packet */
 993:Middlewares/Third_Party/LwIP/src/core/ipv4/etharp.c ****     result = ethernet_output(netif, q, srcaddr, &(arp_table[i].ethaddr), ETHTYPE_IP);
 994:Middlewares/Third_Party/LwIP/src/core/ipv4/etharp.c ****   /* pending entry? (either just created or already pending */
 995:Middlewares/Third_Party/LwIP/src/core/ipv4/etharp.c ****   } else if (arp_table[i].state == ETHARP_STATE_PENDING) {
 996:Middlewares/Third_Party/LwIP/src/core/ipv4/etharp.c ****     /* entry is still pending, queue the given packet 'q' */
 997:Middlewares/Third_Party/LwIP/src/core/ipv4/etharp.c ****     struct pbuf *p;
ARM GAS  C:\Users\Student\AppData\Local\Temp\ccULT5Xy.s 			page 29


 998:Middlewares/Third_Party/LwIP/src/core/ipv4/etharp.c ****     int copy_needed = 0;
 999:Middlewares/Third_Party/LwIP/src/core/ipv4/etharp.c ****     /* IF q includes a PBUF_REF, PBUF_POOL or PBUF_RAM, we have no choice but
1000:Middlewares/Third_Party/LwIP/src/core/ipv4/etharp.c ****      * to copy the whole queue into a new PBUF_RAM (see bug #11400)
1001:Middlewares/Third_Party/LwIP/src/core/ipv4/etharp.c ****      * PBUF_ROMs can be left as they are, since ROM must not get changed. */
1002:Middlewares/Third_Party/LwIP/src/core/ipv4/etharp.c ****     p = q;
1003:Middlewares/Third_Party/LwIP/src/core/ipv4/etharp.c ****     while (p) {
1004:Middlewares/Third_Party/LwIP/src/core/ipv4/etharp.c ****       LWIP_ASSERT("no packet queues allowed!", (p->len != p->tot_len) || (p->next == 0));
1005:Middlewares/Third_Party/LwIP/src/core/ipv4/etharp.c ****       if (p->type != PBUF_ROM) {
1006:Middlewares/Third_Party/LwIP/src/core/ipv4/etharp.c ****         copy_needed = 1;
1007:Middlewares/Third_Party/LwIP/src/core/ipv4/etharp.c ****         break;
1008:Middlewares/Third_Party/LwIP/src/core/ipv4/etharp.c ****       }
1009:Middlewares/Third_Party/LwIP/src/core/ipv4/etharp.c ****       p = p->next;
1010:Middlewares/Third_Party/LwIP/src/core/ipv4/etharp.c ****     }
1011:Middlewares/Third_Party/LwIP/src/core/ipv4/etharp.c ****     if (copy_needed) {
1012:Middlewares/Third_Party/LwIP/src/core/ipv4/etharp.c ****       /* copy the whole packet into new pbufs */
1013:Middlewares/Third_Party/LwIP/src/core/ipv4/etharp.c ****       p = pbuf_alloc(PBUF_LINK, p->tot_len, PBUF_RAM);
1014:Middlewares/Third_Party/LwIP/src/core/ipv4/etharp.c ****       if (p != NULL) {
1015:Middlewares/Third_Party/LwIP/src/core/ipv4/etharp.c ****         if (pbuf_copy(p, q) != ERR_OK) {
1016:Middlewares/Third_Party/LwIP/src/core/ipv4/etharp.c ****           pbuf_free(p);
1017:Middlewares/Third_Party/LwIP/src/core/ipv4/etharp.c ****           p = NULL;
1018:Middlewares/Third_Party/LwIP/src/core/ipv4/etharp.c ****         }
1019:Middlewares/Third_Party/LwIP/src/core/ipv4/etharp.c ****       }
1020:Middlewares/Third_Party/LwIP/src/core/ipv4/etharp.c ****     } else {
1021:Middlewares/Third_Party/LwIP/src/core/ipv4/etharp.c ****       /* referencing the old pbuf is enough */
1022:Middlewares/Third_Party/LwIP/src/core/ipv4/etharp.c ****       p = q;
1023:Middlewares/Third_Party/LwIP/src/core/ipv4/etharp.c ****       pbuf_ref(p);
1024:Middlewares/Third_Party/LwIP/src/core/ipv4/etharp.c ****     }
1025:Middlewares/Third_Party/LwIP/src/core/ipv4/etharp.c ****     /* packet could be taken over? */
1026:Middlewares/Third_Party/LwIP/src/core/ipv4/etharp.c ****     if (p != NULL) {
1027:Middlewares/Third_Party/LwIP/src/core/ipv4/etharp.c ****       /* queue packet ... */
1028:Middlewares/Third_Party/LwIP/src/core/ipv4/etharp.c **** #if ARP_QUEUEING
1029:Middlewares/Third_Party/LwIP/src/core/ipv4/etharp.c ****       struct etharp_q_entry *new_entry;
1030:Middlewares/Third_Party/LwIP/src/core/ipv4/etharp.c ****       /* allocate a new arp queue entry */
1031:Middlewares/Third_Party/LwIP/src/core/ipv4/etharp.c ****       new_entry = (struct etharp_q_entry *)memp_malloc(MEMP_ARP_QUEUE);
1032:Middlewares/Third_Party/LwIP/src/core/ipv4/etharp.c ****       if (new_entry != NULL) {
1033:Middlewares/Third_Party/LwIP/src/core/ipv4/etharp.c ****         unsigned int qlen = 0;
1034:Middlewares/Third_Party/LwIP/src/core/ipv4/etharp.c ****         new_entry->next = 0;
1035:Middlewares/Third_Party/LwIP/src/core/ipv4/etharp.c ****         new_entry->p = p;
1036:Middlewares/Third_Party/LwIP/src/core/ipv4/etharp.c ****         if (arp_table[i].q != NULL) {
1037:Middlewares/Third_Party/LwIP/src/core/ipv4/etharp.c ****           /* queue was already existent, append the new entry to the end */
1038:Middlewares/Third_Party/LwIP/src/core/ipv4/etharp.c ****           struct etharp_q_entry *r;
1039:Middlewares/Third_Party/LwIP/src/core/ipv4/etharp.c ****           r = arp_table[i].q;
1040:Middlewares/Third_Party/LwIP/src/core/ipv4/etharp.c ****           qlen++;
1041:Middlewares/Third_Party/LwIP/src/core/ipv4/etharp.c ****           while (r->next != NULL) {
1042:Middlewares/Third_Party/LwIP/src/core/ipv4/etharp.c ****             r = r->next;
1043:Middlewares/Third_Party/LwIP/src/core/ipv4/etharp.c ****             qlen++;
1044:Middlewares/Third_Party/LwIP/src/core/ipv4/etharp.c ****           }
1045:Middlewares/Third_Party/LwIP/src/core/ipv4/etharp.c ****           r->next = new_entry;
1046:Middlewares/Third_Party/LwIP/src/core/ipv4/etharp.c ****         } else {
1047:Middlewares/Third_Party/LwIP/src/core/ipv4/etharp.c ****           /* queue did not exist, first item in queue */
1048:Middlewares/Third_Party/LwIP/src/core/ipv4/etharp.c ****           arp_table[i].q = new_entry;
1049:Middlewares/Third_Party/LwIP/src/core/ipv4/etharp.c ****         }
1050:Middlewares/Third_Party/LwIP/src/core/ipv4/etharp.c **** #if ARP_QUEUE_LEN
1051:Middlewares/Third_Party/LwIP/src/core/ipv4/etharp.c ****         if (qlen >= ARP_QUEUE_LEN) {
1052:Middlewares/Third_Party/LwIP/src/core/ipv4/etharp.c ****           struct etharp_q_entry *old;
1053:Middlewares/Third_Party/LwIP/src/core/ipv4/etharp.c ****           old = arp_table[i].q;
1054:Middlewares/Third_Party/LwIP/src/core/ipv4/etharp.c ****           arp_table[i].q = arp_table[i].q->next;
ARM GAS  C:\Users\Student\AppData\Local\Temp\ccULT5Xy.s 			page 30


1055:Middlewares/Third_Party/LwIP/src/core/ipv4/etharp.c ****           pbuf_free(old->p);
1056:Middlewares/Third_Party/LwIP/src/core/ipv4/etharp.c ****           memp_free(MEMP_ARP_QUEUE, old);
1057:Middlewares/Third_Party/LwIP/src/core/ipv4/etharp.c ****         }
1058:Middlewares/Third_Party/LwIP/src/core/ipv4/etharp.c **** #endif
1059:Middlewares/Third_Party/LwIP/src/core/ipv4/etharp.c ****         LWIP_DEBUGF(ETHARP_DEBUG | LWIP_DBG_TRACE, ("etharp_query: queued packet %p on ARP entry %"
1060:Middlewares/Third_Party/LwIP/src/core/ipv4/etharp.c ****         result = ERR_OK;
1061:Middlewares/Third_Party/LwIP/src/core/ipv4/etharp.c ****       } else {
1062:Middlewares/Third_Party/LwIP/src/core/ipv4/etharp.c ****         /* the pool MEMP_ARP_QUEUE is empty */
1063:Middlewares/Third_Party/LwIP/src/core/ipv4/etharp.c ****         pbuf_free(p);
1064:Middlewares/Third_Party/LwIP/src/core/ipv4/etharp.c ****         LWIP_DEBUGF(ETHARP_DEBUG | LWIP_DBG_TRACE, ("etharp_query: could not queue a copy of PBUF_R
1065:Middlewares/Third_Party/LwIP/src/core/ipv4/etharp.c ****         result = ERR_MEM;
1066:Middlewares/Third_Party/LwIP/src/core/ipv4/etharp.c ****       }
1067:Middlewares/Third_Party/LwIP/src/core/ipv4/etharp.c **** #else /* ARP_QUEUEING */
1068:Middlewares/Third_Party/LwIP/src/core/ipv4/etharp.c ****       /* always queue one packet per ARP request only, freeing a previously queued packet */
1069:Middlewares/Third_Party/LwIP/src/core/ipv4/etharp.c ****       if (arp_table[i].q != NULL) {
1070:Middlewares/Third_Party/LwIP/src/core/ipv4/etharp.c ****         LWIP_DEBUGF(ETHARP_DEBUG | LWIP_DBG_TRACE, ("etharp_query: dropped previously queued packet
1071:Middlewares/Third_Party/LwIP/src/core/ipv4/etharp.c ****         pbuf_free(arp_table[i].q);
1072:Middlewares/Third_Party/LwIP/src/core/ipv4/etharp.c ****       }
1073:Middlewares/Third_Party/LwIP/src/core/ipv4/etharp.c ****       arp_table[i].q = p;
1074:Middlewares/Third_Party/LwIP/src/core/ipv4/etharp.c ****       result = ERR_OK;
1075:Middlewares/Third_Party/LwIP/src/core/ipv4/etharp.c ****       LWIP_DEBUGF(ETHARP_DEBUG | LWIP_DBG_TRACE, ("etharp_query: queued packet %p on ARP entry %"S1
1076:Middlewares/Third_Party/LwIP/src/core/ipv4/etharp.c **** #endif /* ARP_QUEUEING */
1077:Middlewares/Third_Party/LwIP/src/core/ipv4/etharp.c ****     } else {
1078:Middlewares/Third_Party/LwIP/src/core/ipv4/etharp.c ****       ETHARP_STATS_INC(etharp.memerr);
1079:Middlewares/Third_Party/LwIP/src/core/ipv4/etharp.c ****       LWIP_DEBUGF(ETHARP_DEBUG | LWIP_DBG_TRACE, ("etharp_query: could not queue a copy of PBUF_REF
1080:Middlewares/Third_Party/LwIP/src/core/ipv4/etharp.c ****       result = ERR_MEM;
1081:Middlewares/Third_Party/LwIP/src/core/ipv4/etharp.c ****     }
1082:Middlewares/Third_Party/LwIP/src/core/ipv4/etharp.c ****   }
1083:Middlewares/Third_Party/LwIP/src/core/ipv4/etharp.c ****   return result;
1084:Middlewares/Third_Party/LwIP/src/core/ipv4/etharp.c **** }
1085:Middlewares/Third_Party/LwIP/src/core/ipv4/etharp.c **** 
1086:Middlewares/Third_Party/LwIP/src/core/ipv4/etharp.c **** /**
1087:Middlewares/Third_Party/LwIP/src/core/ipv4/etharp.c ****  * Send a raw ARP packet (opcode and all addresses can be modified)
1088:Middlewares/Third_Party/LwIP/src/core/ipv4/etharp.c ****  *
1089:Middlewares/Third_Party/LwIP/src/core/ipv4/etharp.c ****  * @param netif the lwip network interface on which to send the ARP packet
1090:Middlewares/Third_Party/LwIP/src/core/ipv4/etharp.c ****  * @param ethsrc_addr the source MAC address for the ethernet header
1091:Middlewares/Third_Party/LwIP/src/core/ipv4/etharp.c ****  * @param ethdst_addr the destination MAC address for the ethernet header
1092:Middlewares/Third_Party/LwIP/src/core/ipv4/etharp.c ****  * @param hwsrc_addr the source MAC address for the ARP protocol header
1093:Middlewares/Third_Party/LwIP/src/core/ipv4/etharp.c ****  * @param ipsrc_addr the source IP address for the ARP protocol header
1094:Middlewares/Third_Party/LwIP/src/core/ipv4/etharp.c ****  * @param hwdst_addr the destination MAC address for the ARP protocol header
1095:Middlewares/Third_Party/LwIP/src/core/ipv4/etharp.c ****  * @param ipdst_addr the destination IP address for the ARP protocol header
1096:Middlewares/Third_Party/LwIP/src/core/ipv4/etharp.c ****  * @param opcode the type of the ARP packet
1097:Middlewares/Third_Party/LwIP/src/core/ipv4/etharp.c ****  * @return ERR_OK if the ARP packet has been sent
1098:Middlewares/Third_Party/LwIP/src/core/ipv4/etharp.c ****  *         ERR_MEM if the ARP packet couldn't be allocated
1099:Middlewares/Third_Party/LwIP/src/core/ipv4/etharp.c ****  *         any other err_t on failure
1100:Middlewares/Third_Party/LwIP/src/core/ipv4/etharp.c ****  */
1101:Middlewares/Third_Party/LwIP/src/core/ipv4/etharp.c **** static err_t
1102:Middlewares/Third_Party/LwIP/src/core/ipv4/etharp.c **** etharp_raw(struct netif *netif, const struct eth_addr *ethsrc_addr,
1103:Middlewares/Third_Party/LwIP/src/core/ipv4/etharp.c ****            const struct eth_addr *ethdst_addr,
1104:Middlewares/Third_Party/LwIP/src/core/ipv4/etharp.c ****            const struct eth_addr *hwsrc_addr, const ip4_addr_t *ipsrc_addr,
1105:Middlewares/Third_Party/LwIP/src/core/ipv4/etharp.c ****            const struct eth_addr *hwdst_addr, const ip4_addr_t *ipdst_addr,
1106:Middlewares/Third_Party/LwIP/src/core/ipv4/etharp.c ****            const u16_t opcode)
1107:Middlewares/Third_Party/LwIP/src/core/ipv4/etharp.c **** {
 570              		.loc 1 1107 0
 571              		.cfi_startproc
 572              		@ args = 16, pretend = 0, frame = 0
 573              		@ frame_needed = 0, uses_anonymous_args = 0
ARM GAS  C:\Users\Student\AppData\Local\Temp\ccULT5Xy.s 			page 31


 574              	.LVL67:
 575 0000 2DE9F047 		push	{r4, r5, r6, r7, r8, r9, r10, lr}
 576              	.LCFI6:
 577              		.cfi_def_cfa_offset 32
 578              		.cfi_offset 4, -32
 579              		.cfi_offset 5, -28
 580              		.cfi_offset 6, -24
 581              		.cfi_offset 7, -20
 582              		.cfi_offset 8, -16
 583              		.cfi_offset 9, -12
 584              		.cfi_offset 10, -8
 585              		.cfi_offset 14, -4
 586 0004 82B0     		sub	sp, sp, #8
 587              	.LCFI7:
 588              		.cfi_def_cfa_offset 40
 589 0006 8946     		mov	r9, r1
 590 0008 9246     		mov	r10, r2
 591 000a 9846     		mov	r8, r3
 592 000c 0B9D     		ldr	r5, [sp, #44]
 593              	.LVL68:
1108:Middlewares/Third_Party/LwIP/src/core/ipv4/etharp.c ****   struct pbuf *p;
1109:Middlewares/Third_Party/LwIP/src/core/ipv4/etharp.c ****   err_t result = ERR_OK;
1110:Middlewares/Third_Party/LwIP/src/core/ipv4/etharp.c ****   struct etharp_hdr *hdr;
1111:Middlewares/Third_Party/LwIP/src/core/ipv4/etharp.c **** 
1112:Middlewares/Third_Party/LwIP/src/core/ipv4/etharp.c ****   LWIP_ASSERT("netif != NULL", netif != NULL);
 594              		.loc 1 1112 0
 595 000e 0746     		mov	r7, r0
 596 0010 0028     		cmp	r0, #0
 597 0012 48D0     		beq	.L56
 598              	.LVL69:
 599              	.L50:
1113:Middlewares/Third_Party/LwIP/src/core/ipv4/etharp.c **** 
1114:Middlewares/Third_Party/LwIP/src/core/ipv4/etharp.c ****   /* allocate a pbuf for the outgoing ARP request packet */
1115:Middlewares/Third_Party/LwIP/src/core/ipv4/etharp.c ****   p = pbuf_alloc(PBUF_LINK, SIZEOF_ETHARP_HDR, PBUF_RAM);
 600              		.loc 1 1115 0
 601 0014 0022     		movs	r2, #0
 602 0016 1C21     		movs	r1, #28
 603 0018 0220     		movs	r0, #2
 604 001a FFF7FEFF 		bl	pbuf_alloc
 605              	.LVL70:
1116:Middlewares/Third_Party/LwIP/src/core/ipv4/etharp.c ****   /* could allocate a pbuf for an ARP request? */
1117:Middlewares/Third_Party/LwIP/src/core/ipv4/etharp.c ****   if (p == NULL) {
 606              		.loc 1 1117 0
 607 001e 0646     		mov	r6, r0
 608 0020 0028     		cmp	r0, #0
 609 0022 50D0     		beq	.L54
1118:Middlewares/Third_Party/LwIP/src/core/ipv4/etharp.c ****     LWIP_DEBUGF(ETHARP_DEBUG | LWIP_DBG_TRACE | LWIP_DBG_LEVEL_SERIOUS,
1119:Middlewares/Third_Party/LwIP/src/core/ipv4/etharp.c ****       ("etharp_raw: could not allocate pbuf for ARP request.\n"));
1120:Middlewares/Third_Party/LwIP/src/core/ipv4/etharp.c ****     ETHARP_STATS_INC(etharp.memerr);
1121:Middlewares/Third_Party/LwIP/src/core/ipv4/etharp.c ****     return ERR_MEM;
1122:Middlewares/Third_Party/LwIP/src/core/ipv4/etharp.c ****   }
1123:Middlewares/Third_Party/LwIP/src/core/ipv4/etharp.c ****   LWIP_ASSERT("check that first pbuf can hold struct etharp_hdr",
 610              		.loc 1 1123 0
 611 0024 4389     		ldrh	r3, [r0, #10]
 612 0026 1B2B     		cmp	r3, #27
 613 0028 45D9     		bls	.L57
 614              	.LVL71:
ARM GAS  C:\Users\Student\AppData\Local\Temp\ccULT5Xy.s 			page 32


 615              	.L52:
1124:Middlewares/Third_Party/LwIP/src/core/ipv4/etharp.c ****               (p->len >= SIZEOF_ETHARP_HDR));
1125:Middlewares/Third_Party/LwIP/src/core/ipv4/etharp.c **** 
1126:Middlewares/Third_Party/LwIP/src/core/ipv4/etharp.c ****   hdr = (struct etharp_hdr *)p->payload;
 616              		.loc 1 1126 0
 617 002a 7468     		ldr	r4, [r6, #4]
 618              	.LVL72:
1127:Middlewares/Third_Party/LwIP/src/core/ipv4/etharp.c ****   LWIP_DEBUGF(ETHARP_DEBUG | LWIP_DBG_TRACE, ("etharp_raw: sending raw ARP packet.\n"));
1128:Middlewares/Third_Party/LwIP/src/core/ipv4/etharp.c ****   hdr->opcode = lwip_htons(opcode);
 619              		.loc 1 1128 0
 620 002c BDF83400 		ldrh	r0, [sp, #52]
 621 0030 FFF7FEFF 		bl	lwip_htons
 622              	.LVL73:
 623 0034 E080     		strh	r0, [r4, #6]	@ unaligned
1129:Middlewares/Third_Party/LwIP/src/core/ipv4/etharp.c **** 
1130:Middlewares/Third_Party/LwIP/src/core/ipv4/etharp.c ****   LWIP_ASSERT("netif->hwaddr_len must be the same as ETH_HWADDR_LEN for etharp!",
 624              		.loc 1 1130 0
 625 0036 97F82830 		ldrb	r3, [r7, #40]	@ zero_extendqisi2
 626 003a 062B     		cmp	r3, #6
 627 003c 06D0     		beq	.L53
 628              		.loc 1 1130 0 is_stmt 0 discriminator 1
 629 003e 234B     		ldr	r3, .L58
 630 0040 40F26B42 		movw	r2, #1131
 631 0044 2249     		ldr	r1, .L58+4
 632 0046 2348     		ldr	r0, .L58+8
 633 0048 FFF7FEFF 		bl	printf
 634              	.LVL74:
 635              	.L53:
1131:Middlewares/Third_Party/LwIP/src/core/ipv4/etharp.c ****               (netif->hwaddr_len == ETH_HWADDR_LEN));
1132:Middlewares/Third_Party/LwIP/src/core/ipv4/etharp.c **** 
1133:Middlewares/Third_Party/LwIP/src/core/ipv4/etharp.c ****   /* Write the ARP MAC-Addresses */
1134:Middlewares/Third_Party/LwIP/src/core/ipv4/etharp.c ****   ETHADDR16_COPY(&hdr->shwaddr, hwsrc_addr);
 636              		.loc 1 1134 0 is_stmt 1
 637 004c D8F80030 		ldr	r3, [r8]	@ unaligned
 638 0050 A360     		str	r3, [r4, #8]	@ unaligned
 639 0052 B8F80430 		ldrh	r3, [r8, #4]	@ unaligned
 640 0056 A381     		strh	r3, [r4, #12]	@ unaligned
1135:Middlewares/Third_Party/LwIP/src/core/ipv4/etharp.c ****   ETHADDR16_COPY(&hdr->dhwaddr, hwdst_addr);
 641              		.loc 1 1135 0
 642 0058 2B68     		ldr	r3, [r5]	@ unaligned
 643 005a C4F81230 		str	r3, [r4, #18]	@ unaligned
 644 005e AB88     		ldrh	r3, [r5, #4]	@ unaligned
 645 0060 E382     		strh	r3, [r4, #22]	@ unaligned
1136:Middlewares/Third_Party/LwIP/src/core/ipv4/etharp.c ****   /* Copy struct ip4_addr2 to aligned ip4_addr, to support compilers without
1137:Middlewares/Third_Party/LwIP/src/core/ipv4/etharp.c ****    * structure packing. */
1138:Middlewares/Third_Party/LwIP/src/core/ipv4/etharp.c ****   IPADDR2_COPY(&hdr->sipaddr, ipsrc_addr);
 646              		.loc 1 1138 0
 647 0062 0A9B     		ldr	r3, [sp, #40]
 648 0064 1B68     		ldr	r3, [r3]	@ unaligned
 649 0066 C4F80E30 		str	r3, [r4, #14]	@ unaligned
1139:Middlewares/Third_Party/LwIP/src/core/ipv4/etharp.c ****   IPADDR2_COPY(&hdr->dipaddr, ipdst_addr);
 650              		.loc 1 1139 0
 651 006a 0C9B     		ldr	r3, [sp, #48]
 652 006c 1B68     		ldr	r3, [r3]	@ unaligned
 653 006e A361     		str	r3, [r4, #24]	@ unaligned
1140:Middlewares/Third_Party/LwIP/src/core/ipv4/etharp.c **** 
1141:Middlewares/Third_Party/LwIP/src/core/ipv4/etharp.c ****   hdr->hwtype = PP_HTONS(HWTYPE_ETHERNET);
ARM GAS  C:\Users\Student\AppData\Local\Temp\ccULT5Xy.s 			page 33


 654              		.loc 1 1141 0
 655 0070 0025     		movs	r5, #0
 656 0072 2570     		strb	r5, [r4]
 657 0074 0123     		movs	r3, #1
 658 0076 6370     		strb	r3, [r4, #1]
1142:Middlewares/Third_Party/LwIP/src/core/ipv4/etharp.c ****   hdr->proto = PP_HTONS(ETHTYPE_IP);
 659              		.loc 1 1142 0
 660 0078 0823     		movs	r3, #8
 661 007a A370     		strb	r3, [r4, #2]
 662 007c E570     		strb	r5, [r4, #3]
1143:Middlewares/Third_Party/LwIP/src/core/ipv4/etharp.c ****   /* set hwlen and protolen */
1144:Middlewares/Third_Party/LwIP/src/core/ipv4/etharp.c ****   hdr->hwlen = ETH_HWADDR_LEN;
 663              		.loc 1 1144 0
 664 007e 0623     		movs	r3, #6
 665 0080 2371     		strb	r3, [r4, #4]
1145:Middlewares/Third_Party/LwIP/src/core/ipv4/etharp.c ****   hdr->protolen = sizeof(ip4_addr_t);
 666              		.loc 1 1145 0
 667 0082 0423     		movs	r3, #4
 668 0084 6371     		strb	r3, [r4, #5]
1146:Middlewares/Third_Party/LwIP/src/core/ipv4/etharp.c **** 
1147:Middlewares/Third_Party/LwIP/src/core/ipv4/etharp.c ****   /* send ARP query */
1148:Middlewares/Third_Party/LwIP/src/core/ipv4/etharp.c **** #if LWIP_AUTOIP
1149:Middlewares/Third_Party/LwIP/src/core/ipv4/etharp.c ****   /* If we are using Link-Local, all ARP packets that contain a Link-Local
1150:Middlewares/Third_Party/LwIP/src/core/ipv4/etharp.c ****    * 'sender IP address' MUST be sent using link-layer broadcast instead of
1151:Middlewares/Third_Party/LwIP/src/core/ipv4/etharp.c ****    * link-layer unicast. (See RFC3927 Section 2.5, last paragraph) */
1152:Middlewares/Third_Party/LwIP/src/core/ipv4/etharp.c ****   if(ip4_addr_islinklocal(ipsrc_addr)) {
1153:Middlewares/Third_Party/LwIP/src/core/ipv4/etharp.c ****     ethernet_output(netif, p, ethsrc_addr, &ethbroadcast, ETHTYPE_ARP);
1154:Middlewares/Third_Party/LwIP/src/core/ipv4/etharp.c ****   } else
1155:Middlewares/Third_Party/LwIP/src/core/ipv4/etharp.c **** #endif /* LWIP_AUTOIP */
1156:Middlewares/Third_Party/LwIP/src/core/ipv4/etharp.c ****   {
1157:Middlewares/Third_Party/LwIP/src/core/ipv4/etharp.c ****     ethernet_output(netif, p, ethsrc_addr, ethdst_addr, ETHTYPE_ARP);
 669              		.loc 1 1157 0
 670 0086 40F60603 		movw	r3, #2054
 671 008a 0093     		str	r3, [sp]
 672 008c 5346     		mov	r3, r10
 673 008e 4A46     		mov	r2, r9
 674 0090 3146     		mov	r1, r6
 675 0092 3846     		mov	r0, r7
 676 0094 FFF7FEFF 		bl	ethernet_output
 677              	.LVL75:
1158:Middlewares/Third_Party/LwIP/src/core/ipv4/etharp.c ****   }
1159:Middlewares/Third_Party/LwIP/src/core/ipv4/etharp.c **** 
1160:Middlewares/Third_Party/LwIP/src/core/ipv4/etharp.c ****   ETHARP_STATS_INC(etharp.xmit);
1161:Middlewares/Third_Party/LwIP/src/core/ipv4/etharp.c ****   /* free ARP query packet */
1162:Middlewares/Third_Party/LwIP/src/core/ipv4/etharp.c ****   pbuf_free(p);
 678              		.loc 1 1162 0
 679 0098 3046     		mov	r0, r6
 680 009a FFF7FEFF 		bl	pbuf_free
 681              	.LVL76:
1163:Middlewares/Third_Party/LwIP/src/core/ipv4/etharp.c ****   p = NULL;
1164:Middlewares/Third_Party/LwIP/src/core/ipv4/etharp.c ****   /* could not allocate pbuf for ARP request */
1165:Middlewares/Third_Party/LwIP/src/core/ipv4/etharp.c **** 
1166:Middlewares/Third_Party/LwIP/src/core/ipv4/etharp.c ****   return result;
 682              		.loc 1 1166 0
 683 009e 2846     		mov	r0, r5
 684              	.LVL77:
 685              	.L51:
ARM GAS  C:\Users\Student\AppData\Local\Temp\ccULT5Xy.s 			page 34


1167:Middlewares/Third_Party/LwIP/src/core/ipv4/etharp.c **** }
 686              		.loc 1 1167 0
 687 00a0 02B0     		add	sp, sp, #8
 688              	.LCFI8:
 689              		.cfi_remember_state
 690              		.cfi_def_cfa_offset 32
 691              		@ sp needed
 692 00a2 BDE8F087 		pop	{r4, r5, r6, r7, r8, r9, r10, pc}
 693              	.LVL78:
 694              	.L56:
 695              	.LCFI9:
 696              		.cfi_restore_state
1112:Middlewares/Third_Party/LwIP/src/core/ipv4/etharp.c **** 
 697              		.loc 1 1112 0 discriminator 1
 698 00a6 094B     		ldr	r3, .L58
 699              	.LVL79:
 700 00a8 4FF48B62 		mov	r2, #1112
 701              	.LVL80:
 702 00ac 0A49     		ldr	r1, .L58+12
 703              	.LVL81:
 704 00ae 0948     		ldr	r0, .L58+8
 705              	.LVL82:
 706 00b0 FFF7FEFF 		bl	printf
 707              	.LVL83:
 708 00b4 AEE7     		b	.L50
 709              	.LVL84:
 710              	.L57:
1123:Middlewares/Third_Party/LwIP/src/core/ipv4/etharp.c ****               (p->len >= SIZEOF_ETHARP_HDR));
 711              		.loc 1 1123 0 discriminator 1
 712 00b6 054B     		ldr	r3, .L58
 713 00b8 40F26442 		movw	r2, #1124
 714 00bc 0749     		ldr	r1, .L58+16
 715 00be 0548     		ldr	r0, .L58+8
 716              	.LVL85:
 717 00c0 FFF7FEFF 		bl	printf
 718              	.LVL86:
 719 00c4 B1E7     		b	.L52
 720              	.LVL87:
 721              	.L54:
1121:Middlewares/Third_Party/LwIP/src/core/ipv4/etharp.c ****   }
 722              		.loc 1 1121 0
 723 00c6 4FF0FF30 		mov	r0, #-1
 724              	.LVL88:
 725 00ca E9E7     		b	.L51
 726              	.L59:
 727              		.align	2
 728              	.L58:
 729 00cc 00000000 		.word	.LC0
 730 00d0 44000000 		.word	.LC8
 731 00d4 4C000000 		.word	.LC2
 732 00d8 00000000 		.word	.LC6
 733 00dc 10000000 		.word	.LC7
 734              		.cfi_endproc
 735              	.LFE163:
 737              		.section	.text.etharp_request_dst,"ax",%progbits
 738              		.align	1
 739              		.syntax unified
ARM GAS  C:\Users\Student\AppData\Local\Temp\ccULT5Xy.s 			page 35


 740              		.thumb
 741              		.thumb_func
 742              		.fpu fpv5-sp-d16
 744              	etharp_request_dst:
 745              	.LFB164:
1168:Middlewares/Third_Party/LwIP/src/core/ipv4/etharp.c **** 
1169:Middlewares/Third_Party/LwIP/src/core/ipv4/etharp.c **** /**
1170:Middlewares/Third_Party/LwIP/src/core/ipv4/etharp.c ****  * Send an ARP request packet asking for ipaddr to a specific eth address.
1171:Middlewares/Third_Party/LwIP/src/core/ipv4/etharp.c ****  * Used to send unicast request to refresh the ARP table just before an entry
1172:Middlewares/Third_Party/LwIP/src/core/ipv4/etharp.c ****  * times out
1173:Middlewares/Third_Party/LwIP/src/core/ipv4/etharp.c ****  *
1174:Middlewares/Third_Party/LwIP/src/core/ipv4/etharp.c ****  * @param netif the lwip network interface on which to send the request
1175:Middlewares/Third_Party/LwIP/src/core/ipv4/etharp.c ****  * @param ipaddr the IP address for which to ask
1176:Middlewares/Third_Party/LwIP/src/core/ipv4/etharp.c ****  * @param hw_dst_addr the ethernet address to send this packet to
1177:Middlewares/Third_Party/LwIP/src/core/ipv4/etharp.c ****  * @return ERR_OK if the request has been sent
1178:Middlewares/Third_Party/LwIP/src/core/ipv4/etharp.c ****  *         ERR_MEM if the ARP packet couldn't be allocated
1179:Middlewares/Third_Party/LwIP/src/core/ipv4/etharp.c ****  *         any other err_t on failure
1180:Middlewares/Third_Party/LwIP/src/core/ipv4/etharp.c ****  */
1181:Middlewares/Third_Party/LwIP/src/core/ipv4/etharp.c **** static err_t
1182:Middlewares/Third_Party/LwIP/src/core/ipv4/etharp.c **** etharp_request_dst(struct netif *netif, const ip4_addr_t *ipaddr, const struct eth_addr* hw_dst_add
1183:Middlewares/Third_Party/LwIP/src/core/ipv4/etharp.c **** {
 746              		.loc 1 1183 0
 747              		.cfi_startproc
 748              		@ args = 0, pretend = 0, frame = 0
 749              		@ frame_needed = 0, uses_anonymous_args = 0
 750              	.LVL89:
 751 0000 30B5     		push	{r4, r5, lr}
 752              	.LCFI10:
 753              		.cfi_def_cfa_offset 12
 754              		.cfi_offset 4, -12
 755              		.cfi_offset 5, -8
 756              		.cfi_offset 14, -4
 757 0002 85B0     		sub	sp, sp, #20
 758              	.LCFI11:
 759              		.cfi_def_cfa_offset 32
 760 0004 0346     		mov	r3, r0
1184:Middlewares/Third_Party/LwIP/src/core/ipv4/etharp.c ****   return etharp_raw(netif, (struct eth_addr *)netif->hwaddr, hw_dst_addr,
 761              		.loc 1 1184 0
 762 0006 00F12904 		add	r4, r0, #41
1185:Middlewares/Third_Party/LwIP/src/core/ipv4/etharp.c ****                     (struct eth_addr *)netif->hwaddr, netif_ip4_addr(netif), &ethzero,
 763              		.loc 1 1185 0
 764 000a 0433     		adds	r3, r3, #4
1184:Middlewares/Third_Party/LwIP/src/core/ipv4/etharp.c ****   return etharp_raw(netif, (struct eth_addr *)netif->hwaddr, hw_dst_addr,
 765              		.loc 1 1184 0
 766 000c 0125     		movs	r5, #1
 767 000e 0395     		str	r5, [sp, #12]
 768 0010 0291     		str	r1, [sp, #8]
 769 0012 0449     		ldr	r1, .L62
 770              	.LVL90:
 771 0014 0191     		str	r1, [sp, #4]
 772 0016 0093     		str	r3, [sp]
 773 0018 2346     		mov	r3, r4
 774 001a 2146     		mov	r1, r4
 775 001c FFF7FEFF 		bl	etharp_raw
 776              	.LVL91:
1186:Middlewares/Third_Party/LwIP/src/core/ipv4/etharp.c ****                     ipaddr, ARP_REQUEST);
1187:Middlewares/Third_Party/LwIP/src/core/ipv4/etharp.c **** }
ARM GAS  C:\Users\Student\AppData\Local\Temp\ccULT5Xy.s 			page 36


 777              		.loc 1 1187 0
 778 0020 05B0     		add	sp, sp, #20
 779              	.LCFI12:
 780              		.cfi_def_cfa_offset 12
 781              		@ sp needed
 782 0022 30BD     		pop	{r4, r5, pc}
 783              	.LVL92:
 784              	.L63:
 785              		.align	2
 786              	.L62:
 787 0024 00000000 		.word	ethzero
 788              		.cfi_endproc
 789              	.LFE164:
 791              		.section	.text.etharp_cleanup_netif,"ax",%progbits
 792              		.align	1
 793              		.global	etharp_cleanup_netif
 794              		.syntax unified
 795              		.thumb
 796              		.thumb_func
 797              		.fpu fpv5-sp-d16
 799              	etharp_cleanup_netif:
 800              	.LFB156:
 560:Middlewares/Third_Party/LwIP/src/core/ipv4/etharp.c ****   u8_t i;
 801              		.loc 1 560 0
 802              		.cfi_startproc
 803              		@ args = 0, pretend = 0, frame = 0
 804              		@ frame_needed = 0, uses_anonymous_args = 0
 805              	.LVL93:
 806 0000 38B5     		push	{r3, r4, r5, lr}
 807              	.LCFI13:
 808              		.cfi_def_cfa_offset 16
 809              		.cfi_offset 3, -16
 810              		.cfi_offset 4, -12
 811              		.cfi_offset 5, -8
 812              		.cfi_offset 14, -4
 813 0002 0546     		mov	r5, r0
 814              	.LVL94:
 563:Middlewares/Third_Party/LwIP/src/core/ipv4/etharp.c ****     u8_t state = arp_table[i].state;
 815              		.loc 1 563 0
 816 0004 0024     		movs	r4, #0
 817 0006 01E0     		b	.L65
 818              	.LVL95:
 819              	.L66:
 563:Middlewares/Third_Party/LwIP/src/core/ipv4/etharp.c ****     u8_t state = arp_table[i].state;
 820              		.loc 1 563 0 is_stmt 0 discriminator 2
 821 0008 0134     		adds	r4, r4, #1
 822              	.LVL96:
 823 000a E4B2     		uxtb	r4, r4
 824              	.LVL97:
 825              	.L65:
 563:Middlewares/Third_Party/LwIP/src/core/ipv4/etharp.c ****     u8_t state = arp_table[i].state;
 826              		.loc 1 563 0 discriminator 1
 827 000c 092C     		cmp	r4, #9
 828 000e 10D8     		bhi	.L69
 829              	.LBB5:
 564:Middlewares/Third_Party/LwIP/src/core/ipv4/etharp.c ****     if ((state != ETHARP_STATE_EMPTY) && (arp_table[i].netif == netif)) {
 830              		.loc 1 564 0 is_stmt 1
ARM GAS  C:\Users\Student\AppData\Local\Temp\ccULT5Xy.s 			page 37


 831 0010 2046     		mov	r0, r4
 832 0012 04EB4403 		add	r3, r4, r4, lsl #1
 833 0016 DA00     		lsls	r2, r3, #3
 834 0018 064B     		ldr	r3, .L70
 835 001a 1344     		add	r3, r3, r2
 836 001c 1B7D     		ldrb	r3, [r3, #20]	@ zero_extendqisi2
 837              	.LVL98:
 565:Middlewares/Third_Party/LwIP/src/core/ipv4/etharp.c ****       etharp_free_entry(i);
 838              		.loc 1 565 0
 839 001e 002B     		cmp	r3, #0
 840 0020 F2D0     		beq	.L66
 565:Middlewares/Third_Party/LwIP/src/core/ipv4/etharp.c ****       etharp_free_entry(i);
 841              		.loc 1 565 0 is_stmt 0 discriminator 1
 842 0022 044B     		ldr	r3, .L70
 843              	.LVL99:
 844 0024 1344     		add	r3, r3, r2
 845              	.LVL100:
 846 0026 9B68     		ldr	r3, [r3, #8]
 847              	.LVL101:
 848 0028 AB42     		cmp	r3, r5
 849 002a EDD1     		bne	.L66
 566:Middlewares/Third_Party/LwIP/src/core/ipv4/etharp.c ****     }
 850              		.loc 1 566 0 is_stmt 1
 851 002c FFF7FEFF 		bl	etharp_free_entry
 852              	.LVL102:
 853 0030 EAE7     		b	.L66
 854              	.L69:
 855              	.LBE5:
 569:Middlewares/Third_Party/LwIP/src/core/ipv4/etharp.c **** 
 856              		.loc 1 569 0
 857 0032 38BD     		pop	{r3, r4, r5, pc}
 858              	.LVL103:
 859              	.L71:
 860              		.align	2
 861              	.L70:
 862 0034 00000000 		.word	.LANCHOR0
 863              		.cfi_endproc
 864              	.LFE156:
 866              		.section	.text.etharp_find_addr,"ax",%progbits
 867              		.align	1
 868              		.global	etharp_find_addr
 869              		.syntax unified
 870              		.thumb
 871              		.thumb_func
 872              		.fpu fpv5-sp-d16
 874              	etharp_find_addr:
 875              	.LFB157:
 585:Middlewares/Third_Party/LwIP/src/core/ipv4/etharp.c ****   s8_t i;
 876              		.loc 1 585 0
 877              		.cfi_startproc
 878              		@ args = 0, pretend = 0, frame = 0
 879              		@ frame_needed = 0, uses_anonymous_args = 0
 880              	.LVL104:
 881 0000 F8B5     		push	{r3, r4, r5, r6, r7, lr}
 882              	.LCFI14:
 883              		.cfi_def_cfa_offset 24
 884              		.cfi_offset 3, -24
ARM GAS  C:\Users\Student\AppData\Local\Temp\ccULT5Xy.s 			page 38


 885              		.cfi_offset 4, -20
 886              		.cfi_offset 5, -16
 887              		.cfi_offset 6, -12
 888              		.cfi_offset 7, -8
 889              		.cfi_offset 14, -4
 890 0002 0746     		mov	r7, r0
 891 0004 0E46     		mov	r6, r1
 588:Middlewares/Third_Party/LwIP/src/core/ipv4/etharp.c ****     eth_ret != NULL && ip_ret != NULL);
 892              		.loc 1 588 0
 893 0006 1546     		mov	r5, r2
 894 0008 1C46     		mov	r4, r3
 895 000a 002B     		cmp	r3, #0
 896 000c 18BF     		it	ne
 897 000e 002A     		cmpne	r2, #0
 898 0010 1BD0     		beq	.L78
 899              	.LVL105:
 900              	.L73:
 593:Middlewares/Third_Party/LwIP/src/core/ipv4/etharp.c ****   if ((i >= 0) && (arp_table[i].state >= ETHARP_STATE_STABLE)) {
 901              		.loc 1 593 0
 902 0012 3A46     		mov	r2, r7
 903 0014 0221     		movs	r1, #2
 904 0016 3046     		mov	r0, r6
 905 0018 FFF7FEFF 		bl	etharp_find_entry
 906              	.LVL106:
 594:Middlewares/Third_Party/LwIP/src/core/ipv4/etharp.c ****       *eth_ret = &arp_table[i].ethaddr;
 907              		.loc 1 594 0
 908 001c 0028     		cmp	r0, #0
 909              	.LVL107:
 910 001e 1CDB     		blt	.L75
 594:Middlewares/Third_Party/LwIP/src/core/ipv4/etharp.c ****       *eth_ret = &arp_table[i].ethaddr;
 911              		.loc 1 594 0 is_stmt 0 discriminator 1
 912 0020 00EB4003 		add	r3, r0, r0, lsl #1
 913 0024 DA00     		lsls	r2, r3, #3
 914 0026 104B     		ldr	r3, .L79
 915 0028 1344     		add	r3, r3, r2
 916 002a 1B7D     		ldrb	r3, [r3, #20]	@ zero_extendqisi2
 917 002c 012B     		cmp	r3, #1
 918 002e 17D9     		bls	.L76
 595:Middlewares/Third_Party/LwIP/src/core/ipv4/etharp.c ****       *ip_ret = &arp_table[i].ipaddr;
 919              		.loc 1 595 0 is_stmt 1
 920 0030 0D4A     		ldr	r2, .L79
 921 0032 4100     		lsls	r1, r0, #1
 922 0034 0E18     		adds	r6, r1, r0
 923              	.LVL108:
 924 0036 F300     		lsls	r3, r6, #3
 925 0038 1E46     		mov	r6, r3
 926 003a 0833     		adds	r3, r3, #8
 927 003c 1344     		add	r3, r3, r2
 928 003e 0433     		adds	r3, r3, #4
 929 0040 2B60     		str	r3, [r5]
 596:Middlewares/Third_Party/LwIP/src/core/ipv4/etharp.c ****       return i;
 930              		.loc 1 596 0
 931 0042 3244     		add	r2, r2, r6
 932 0044 0432     		adds	r2, r2, #4
 933 0046 2260     		str	r2, [r4]
 597:Middlewares/Third_Party/LwIP/src/core/ipv4/etharp.c ****   }
 934              		.loc 1 597 0
ARM GAS  C:\Users\Student\AppData\Local\Temp\ccULT5Xy.s 			page 39


 935 0048 F8BD     		pop	{r3, r4, r5, r6, r7, pc}
 936              	.LVL109:
 937              	.L78:
 588:Middlewares/Third_Party/LwIP/src/core/ipv4/etharp.c ****     eth_ret != NULL && ip_ret != NULL);
 938              		.loc 1 588 0 discriminator 1
 939 004a 084B     		ldr	r3, .L79+4
 940              	.LVL110:
 941 004c 40F24D22 		movw	r2, #589
 942              	.LVL111:
 943 0050 0749     		ldr	r1, .L79+8
 944              	.LVL112:
 945 0052 0848     		ldr	r0, .L79+12
 946              	.LVL113:
 947 0054 FFF7FEFF 		bl	printf
 948              	.LVL114:
 949 0058 DBE7     		b	.L73
 950              	.L75:
 599:Middlewares/Third_Party/LwIP/src/core/ipv4/etharp.c **** }
 951              		.loc 1 599 0
 952 005a 4FF0FF30 		mov	r0, #-1
 953 005e F8BD     		pop	{r3, r4, r5, r6, r7, pc}
 954              	.LVL115:
 955              	.L76:
 956 0060 4FF0FF30 		mov	r0, #-1
 600:Middlewares/Third_Party/LwIP/src/core/ipv4/etharp.c **** 
 957              		.loc 1 600 0
 958 0064 F8BD     		pop	{r3, r4, r5, r6, r7, pc}
 959              	.LVL116:
 960              	.L80:
 961 0066 00BF     		.align	2
 962              	.L79:
 963 0068 00000000 		.word	.LANCHOR0
 964 006c 00000000 		.word	.LC0
 965 0070 00000000 		.word	.LC9
 966 0074 4C000000 		.word	.LC2
 967              		.cfi_endproc
 968              	.LFE157:
 970              		.section	.text.etharp_get_entry,"ax",%progbits
 971              		.align	1
 972              		.global	etharp_get_entry
 973              		.syntax unified
 974              		.thumb
 975              		.thumb_func
 976              		.fpu fpv5-sp-d16
 978              	etharp_get_entry:
 979              	.LFB158:
 613:Middlewares/Third_Party/LwIP/src/core/ipv4/etharp.c ****   LWIP_ASSERT("ipaddr != NULL", ipaddr != NULL);
 980              		.loc 1 613 0
 981              		.cfi_startproc
 982              		@ args = 0, pretend = 0, frame = 0
 983              		@ frame_needed = 0, uses_anonymous_args = 0
 984              	.LVL117:
 985 0000 F8B5     		push	{r3, r4, r5, r6, r7, lr}
 986              	.LCFI15:
 987              		.cfi_def_cfa_offset 24
 988              		.cfi_offset 3, -24
 989              		.cfi_offset 4, -20
ARM GAS  C:\Users\Student\AppData\Local\Temp\ccULT5Xy.s 			page 40


 990              		.cfi_offset 5, -16
 991              		.cfi_offset 6, -12
 992              		.cfi_offset 7, -8
 993              		.cfi_offset 14, -4
 994 0002 0446     		mov	r4, r0
 995 0004 1646     		mov	r6, r2
 996 0006 1D46     		mov	r5, r3
 614:Middlewares/Third_Party/LwIP/src/core/ipv4/etharp.c ****   LWIP_ASSERT("netif != NULL", netif != NULL);
 997              		.loc 1 614 0
 998 0008 0F46     		mov	r7, r1
 999 000a E1B1     		cbz	r1, .L89
 1000              	.LVL118:
 1001              	.L82:
 615:Middlewares/Third_Party/LwIP/src/core/ipv4/etharp.c ****   LWIP_ASSERT("eth_ret != NULL", eth_ret != NULL);
 1002              		.loc 1 615 0
 1003 000c 1EB3     		cbz	r6, .L90
 1004              	.L83:
 616:Middlewares/Third_Party/LwIP/src/core/ipv4/etharp.c **** 
 1005              		.loc 1 616 0
 1006 000e 55B3     		cbz	r5, .L91
 1007              	.L84:
 618:Middlewares/Third_Party/LwIP/src/core/ipv4/etharp.c ****     *ipaddr  = &arp_table[i].ipaddr;
 1008              		.loc 1 618 0
 1009 0010 092C     		cmp	r4, #9
 1010 0012 30D8     		bhi	.L86
 618:Middlewares/Third_Party/LwIP/src/core/ipv4/etharp.c ****     *ipaddr  = &arp_table[i].ipaddr;
 1011              		.loc 1 618 0 is_stmt 0 discriminator 1
 1012 0014 04EB4403 		add	r3, r4, r4, lsl #1
 1013 0018 DA00     		lsls	r2, r3, #3
 1014 001a 194B     		ldr	r3, .L92
 1015 001c 1344     		add	r3, r3, r2
 1016 001e 1B7D     		ldrb	r3, [r3, #20]	@ zero_extendqisi2
 1017 0020 012B     		cmp	r3, #1
 1018 0022 2AD9     		bls	.L87
 619:Middlewares/Third_Party/LwIP/src/core/ipv4/etharp.c ****     *netif   = arp_table[i].netif;
 1019              		.loc 1 619 0 is_stmt 1
 1020 0024 164B     		ldr	r3, .L92
 1021 0026 6200     		lsls	r2, r4, #1
 1022 0028 1019     		adds	r0, r2, r4
 1023 002a C100     		lsls	r1, r0, #3
 1024 002c 1944     		add	r1, r1, r3
 1025 002e 081D     		adds	r0, r1, #4
 1026 0030 3860     		str	r0, [r7]
 620:Middlewares/Third_Party/LwIP/src/core/ipv4/etharp.c ****     *eth_ret = &arp_table[i].ethaddr;
 1027              		.loc 1 620 0
 1028 0032 8968     		ldr	r1, [r1, #8]
 1029 0034 3160     		str	r1, [r6]
 621:Middlewares/Third_Party/LwIP/src/core/ipv4/etharp.c ****     return 1;
 1030              		.loc 1 621 0
 1031 0036 1444     		add	r4, r4, r2
 1032 0038 E200     		lsls	r2, r4, #3
 1033 003a 0832     		adds	r2, r2, #8
 1034 003c 1344     		add	r3, r3, r2
 1035 003e 0433     		adds	r3, r3, #4
 1036 0040 2B60     		str	r3, [r5]
 622:Middlewares/Third_Party/LwIP/src/core/ipv4/etharp.c ****   } else {
 1037              		.loc 1 622 0
ARM GAS  C:\Users\Student\AppData\Local\Temp\ccULT5Xy.s 			page 41


 1038 0042 0120     		movs	r0, #1
 1039 0044 F8BD     		pop	{r3, r4, r5, r6, r7, pc}
 1040              	.LVL119:
 1041              	.L89:
 614:Middlewares/Third_Party/LwIP/src/core/ipv4/etharp.c ****   LWIP_ASSERT("netif != NULL", netif != NULL);
 1042              		.loc 1 614 0 discriminator 1
 1043 0046 0F4B     		ldr	r3, .L92+4
 1044              	.LVL120:
 1045 0048 40F26622 		movw	r2, #614
 1046              	.LVL121:
 1047 004c 0E49     		ldr	r1, .L92+8
 1048              	.LVL122:
 1049 004e 0F48     		ldr	r0, .L92+12
 1050              	.LVL123:
 1051 0050 FFF7FEFF 		bl	printf
 1052              	.LVL124:
 1053 0054 DAE7     		b	.L82
 1054              	.L90:
 615:Middlewares/Third_Party/LwIP/src/core/ipv4/etharp.c ****   LWIP_ASSERT("eth_ret != NULL", eth_ret != NULL);
 1055              		.loc 1 615 0 discriminator 1
 1056 0056 0B4B     		ldr	r3, .L92+4
 1057 0058 40F26722 		movw	r2, #615
 1058 005c 0C49     		ldr	r1, .L92+16
 1059 005e 0B48     		ldr	r0, .L92+12
 1060 0060 FFF7FEFF 		bl	printf
 1061              	.LVL125:
 1062 0064 D3E7     		b	.L83
 1063              	.L91:
 616:Middlewares/Third_Party/LwIP/src/core/ipv4/etharp.c **** 
 1064              		.loc 1 616 0 discriminator 1
 1065 0066 074B     		ldr	r3, .L92+4
 1066 0068 4FF41A72 		mov	r2, #616
 1067 006c 0949     		ldr	r1, .L92+20
 1068 006e 0748     		ldr	r0, .L92+12
 1069 0070 FFF7FEFF 		bl	printf
 1070              	.LVL126:
 1071 0074 CCE7     		b	.L84
 1072              	.L86:
 624:Middlewares/Third_Party/LwIP/src/core/ipv4/etharp.c ****   }
 1073              		.loc 1 624 0
 1074 0076 0020     		movs	r0, #0
 1075 0078 F8BD     		pop	{r3, r4, r5, r6, r7, pc}
 1076              	.LVL127:
 1077              	.L87:
 1078 007a 0020     		movs	r0, #0
 626:Middlewares/Third_Party/LwIP/src/core/ipv4/etharp.c **** 
 1079              		.loc 1 626 0
 1080 007c F8BD     		pop	{r3, r4, r5, r6, r7, pc}
 1081              	.LVL128:
 1082              	.L93:
 1083 007e 00BF     		.align	2
 1084              	.L92:
 1085 0080 00000000 		.word	.LANCHOR0
 1086 0084 00000000 		.word	.LC0
 1087 0088 00000000 		.word	.LC10
 1088 008c 4C000000 		.word	.LC2
 1089 0090 00000000 		.word	.LC6
ARM GAS  C:\Users\Student\AppData\Local\Temp\ccULT5Xy.s 			page 42


 1090 0094 10000000 		.word	.LC11
 1091              		.cfi_endproc
 1092              	.LFE158:
 1094              		.section	.text.etharp_input,"ax",%progbits
 1095              		.align	1
 1096              		.global	etharp_input
 1097              		.syntax unified
 1098              		.thumb
 1099              		.thumb_func
 1100              		.fpu fpv5-sp-d16
 1102              	etharp_input:
 1103              	.LFB159:
 642:Middlewares/Third_Party/LwIP/src/core/ipv4/etharp.c ****   struct etharp_hdr *hdr;
 1104              		.loc 1 642 0
 1105              		.cfi_startproc
 1106              		@ args = 0, pretend = 0, frame = 8
 1107              		@ frame_needed = 0, uses_anonymous_args = 0
 1108              	.LVL129:
 1109 0000 2DE9F041 		push	{r4, r5, r6, r7, r8, lr}
 1110              	.LCFI16:
 1111              		.cfi_def_cfa_offset 24
 1112              		.cfi_offset 4, -24
 1113              		.cfi_offset 5, -20
 1114              		.cfi_offset 6, -16
 1115              		.cfi_offset 7, -12
 1116              		.cfi_offset 8, -8
 1117              		.cfi_offset 14, -4
 1118 0004 86B0     		sub	sp, sp, #24
 1119              	.LCFI17:
 1120              		.cfi_def_cfa_offset 48
 648:Middlewares/Third_Party/LwIP/src/core/ipv4/etharp.c **** 
 1121              		.loc 1 648 0
 1122 0006 61B1     		cbz	r1, .L108
 1123 0008 0446     		mov	r4, r0
 1124 000a 0E46     		mov	r6, r1
 650:Middlewares/Third_Party/LwIP/src/core/ipv4/etharp.c **** 
 1125              		.loc 1 650 0
 1126 000c 4568     		ldr	r5, [r0, #4]
 1127              	.LVL130:
 653:Middlewares/Third_Party/LwIP/src/core/ipv4/etharp.c ****       (hdr->hwlen != ETH_HWADDR_LEN) ||
 1128              		.loc 1 653 0
 1129 000e 2B88     		ldrh	r3, [r5]	@ unaligned
 1130 0010 B3F5807F 		cmp	r3, #256
 1131 0014 0DD0     		beq	.L109
 1132              	.L97:
 662:Middlewares/Third_Party/LwIP/src/core/ipv4/etharp.c ****     return;
 1133              		.loc 1 662 0
 1134 0016 2046     		mov	r0, r4
 1135              	.LVL131:
 1136 0018 FFF7FEFF 		bl	pbuf_free
 1137              	.LVL132:
 1138              	.L94:
 740:Middlewares/Third_Party/LwIP/src/core/ipv4/etharp.c **** 
 1139              		.loc 1 740 0
 1140 001c 06B0     		add	sp, sp, #24
 1141              	.LCFI18:
 1142              		.cfi_remember_state
ARM GAS  C:\Users\Student\AppData\Local\Temp\ccULT5Xy.s 			page 43


 1143              		.cfi_def_cfa_offset 24
 1144              		@ sp needed
 1145 001e BDE8F081 		pop	{r4, r5, r6, r7, r8, pc}
 1146              	.LVL133:
 1147              	.L108:
 1148              	.LCFI19:
 1149              		.cfi_restore_state
 648:Middlewares/Third_Party/LwIP/src/core/ipv4/etharp.c **** 
 1150              		.loc 1 648 0 discriminator 1
 1151 0022 254B     		ldr	r3, .L110
 1152 0024 4FF42272 		mov	r2, #648
 1153 0028 2449     		ldr	r1, .L110+4
 1154              	.LVL134:
 1155 002a 2548     		ldr	r0, .L110+8
 1156              	.LVL135:
 1157 002c FFF7FEFF 		bl	printf
 1158              	.LVL136:
 1159 0030 F4E7     		b	.L94
 1160              	.LVL137:
 1161              	.L109:
 654:Middlewares/Third_Party/LwIP/src/core/ipv4/etharp.c ****       (hdr->protolen != sizeof(ip4_addr_t)) ||
 1162              		.loc 1 654 0 discriminator 1
 1163 0032 2B79     		ldrb	r3, [r5, #4]	@ zero_extendqisi2
 653:Middlewares/Third_Party/LwIP/src/core/ipv4/etharp.c ****       (hdr->hwlen != ETH_HWADDR_LEN) ||
 1164              		.loc 1 653 0 discriminator 1
 1165 0034 062B     		cmp	r3, #6
 1166 0036 EED1     		bne	.L97
 655:Middlewares/Third_Party/LwIP/src/core/ipv4/etharp.c ****       (hdr->proto != PP_HTONS(ETHTYPE_IP)))  {
 1167              		.loc 1 655 0
 1168 0038 6B79     		ldrb	r3, [r5, #5]	@ zero_extendqisi2
 654:Middlewares/Third_Party/LwIP/src/core/ipv4/etharp.c ****       (hdr->protolen != sizeof(ip4_addr_t)) ||
 1169              		.loc 1 654 0
 1170 003a 042B     		cmp	r3, #4
 1171 003c EBD1     		bne	.L97
 656:Middlewares/Third_Party/LwIP/src/core/ipv4/etharp.c ****     LWIP_DEBUGF(ETHARP_DEBUG | LWIP_DBG_TRACE | LWIP_DBG_LEVEL_WARNING,
 1172              		.loc 1 656 0
 1173 003e 6B88     		ldrh	r3, [r5, #2]	@ unaligned
 655:Middlewares/Third_Party/LwIP/src/core/ipv4/etharp.c ****       (hdr->proto != PP_HTONS(ETHTYPE_IP)))  {
 1174              		.loc 1 655 0
 1175 0040 082B     		cmp	r3, #8
 1176 0042 E8D1     		bne	.L97
 676:Middlewares/Third_Party/LwIP/src/core/ipv4/etharp.c ****   IPADDR2_COPY(&dipaddr, &hdr->dipaddr);
 1177              		.loc 1 676 0
 1178 0044 D5F80E30 		ldr	r3, [r5, #14]	@ unaligned
 1179 0048 0593     		str	r3, [sp, #20]
 677:Middlewares/Third_Party/LwIP/src/core/ipv4/etharp.c **** 
 1180              		.loc 1 677 0
 1181 004a AF69     		ldr	r7, [r5, #24]	@ unaligned
 680:Middlewares/Third_Party/LwIP/src/core/ipv4/etharp.c ****     for_us = 0;
 1182              		.loc 1 680 0
 1183 004c 4B68     		ldr	r3, [r1, #4]
 1184 004e BBB1     		cbz	r3, .L105
 684:Middlewares/Third_Party/LwIP/src/core/ipv4/etharp.c ****   }
 1185              		.loc 1 684 0
 1186 0050 9F42     		cmp	r7, r3
 1187 0052 14BF     		ite	ne
 1188 0054 0027     		movne	r7, #0
ARM GAS  C:\Users\Student\AppData\Local\Temp\ccULT5Xy.s 			page 44


 1189 0056 0127     		moveq	r7, #1
 1190              	.LVL138:
 1191              	.L99:
 692:Middlewares/Third_Party/LwIP/src/core/ipv4/etharp.c ****                    for_us ? ETHARP_FLAG_TRY_HARD : ETHARP_FLAG_FIND_ONLY);
 1192              		.loc 1 692 0
 1193 0058 05F10808 		add	r8, r5, #8
 1194 005c 97B1     		cbz	r7, .L106
 1195 005e 0123     		movs	r3, #1
 1196              	.L100:
 692:Middlewares/Third_Party/LwIP/src/core/ipv4/etharp.c ****                    for_us ? ETHARP_FLAG_TRY_HARD : ETHARP_FLAG_FIND_ONLY);
 1197              		.loc 1 692 0 is_stmt 0 discriminator 4
 1198 0060 4246     		mov	r2, r8
 1199 0062 05A9     		add	r1, sp, #20
 1200              	.LVL139:
 1201 0064 3046     		mov	r0, r6
 1202              	.LVL140:
 1203 0066 FFF7FEFF 		bl	etharp_update_arp_entry
 1204              	.LVL141:
 696:Middlewares/Third_Party/LwIP/src/core/ipv4/etharp.c ****   /* ARP request? */
 1205              		.loc 1 696 0 is_stmt 1 discriminator 4
 1206 006a EB88     		ldrh	r3, [r5, #6]	@ unaligned
 1207 006c B3F5807F 		cmp	r3, #256
 1208 0070 0AD0     		beq	.L102
 1209 0072 B3F5007F 		cmp	r3, #512
 1210 0076 19D0     		beq	.L103
 1211              	.L101:
 739:Middlewares/Third_Party/LwIP/src/core/ipv4/etharp.c **** }
 1212              		.loc 1 739 0 discriminator 2
 1213 0078 2046     		mov	r0, r4
 1214 007a FFF7FEFF 		bl	pbuf_free
 1215              	.LVL142:
 1216 007e CDE7     		b	.L94
 1217              	.LVL143:
 1218              	.L105:
 681:Middlewares/Third_Party/LwIP/src/core/ipv4/etharp.c ****   } else {
 1219              		.loc 1 681 0
 1220 0080 0027     		movs	r7, #0
 1221 0082 E9E7     		b	.L99
 1222              	.LVL144:
 1223              	.L106:
 692:Middlewares/Third_Party/LwIP/src/core/ipv4/etharp.c ****                    for_us ? ETHARP_FLAG_TRY_HARD : ETHARP_FLAG_FIND_ONLY);
 1224              		.loc 1 692 0
 1225 0084 0223     		movs	r3, #2
 1226 0086 EBE7     		b	.L100
 1227              	.LVL145:
 1228              	.L102:
 705:Middlewares/Third_Party/LwIP/src/core/ipv4/etharp.c ****       /* send ARP response */
 1229              		.loc 1 705 0
 1230 0088 002F     		cmp	r7, #0
 1231 008a F5D0     		beq	.L101
 708:Middlewares/Third_Party/LwIP/src/core/ipv4/etharp.c ****                  (struct eth_addr *)netif->hwaddr, netif_ip4_addr(netif),
 1232              		.loc 1 708 0
 1233 008c 06F12901 		add	r1, r6, #41
 709:Middlewares/Third_Party/LwIP/src/core/ipv4/etharp.c ****                  &hdr->shwaddr, &sipaddr,
 1234              		.loc 1 709 0
 1235 0090 331D     		adds	r3, r6, #4
 707:Middlewares/Third_Party/LwIP/src/core/ipv4/etharp.c ****                  (struct eth_addr *)netif->hwaddr, &hdr->shwaddr,
ARM GAS  C:\Users\Student\AppData\Local\Temp\ccULT5Xy.s 			page 45


 1236              		.loc 1 707 0
 1237 0092 0222     		movs	r2, #2
 1238 0094 0392     		str	r2, [sp, #12]
 1239 0096 05AA     		add	r2, sp, #20
 1240 0098 0292     		str	r2, [sp, #8]
 1241 009a CDF80480 		str	r8, [sp, #4]
 1242 009e 0093     		str	r3, [sp]
 1243 00a0 0B46     		mov	r3, r1
 1244 00a2 4246     		mov	r2, r8
 1245 00a4 3046     		mov	r0, r6
 1246 00a6 FFF7FEFF 		bl	etharp_raw
 1247              	.LVL146:
 1248 00aa E5E7     		b	.L101
 1249              	.L103:
 730:Middlewares/Third_Party/LwIP/src/core/ipv4/etharp.c **** #endif /* (LWIP_DHCP && DHCP_DOES_ARP_CHECK) */
 1250              		.loc 1 730 0
 1251 00ac 05A9     		add	r1, sp, #20
 1252 00ae 3046     		mov	r0, r6
 1253 00b0 FFF7FEFF 		bl	dhcp_arp_reply
 1254              	.LVL147:
 732:Middlewares/Third_Party/LwIP/src/core/ipv4/etharp.c ****   default:
 1255              		.loc 1 732 0
 1256 00b4 E0E7     		b	.L101
 1257              	.L111:
 1258 00b6 00BF     		.align	2
 1259              	.L110:
 1260 00b8 00000000 		.word	.LC0
 1261 00bc 00000000 		.word	.LC6
 1262 00c0 4C000000 		.word	.LC2
 1263              		.cfi_endproc
 1264              	.LFE159:
 1266              		.section	.text.etharp_request,"ax",%progbits
 1267              		.align	1
 1268              		.global	etharp_request
 1269              		.syntax unified
 1270              		.thumb
 1271              		.thumb_func
 1272              		.fpu fpv5-sp-d16
 1274              	etharp_request:
 1275              	.LFB165:
1188:Middlewares/Third_Party/LwIP/src/core/ipv4/etharp.c **** 
1189:Middlewares/Third_Party/LwIP/src/core/ipv4/etharp.c **** /**
1190:Middlewares/Third_Party/LwIP/src/core/ipv4/etharp.c ****  * Send an ARP request packet asking for ipaddr.
1191:Middlewares/Third_Party/LwIP/src/core/ipv4/etharp.c ****  *
1192:Middlewares/Third_Party/LwIP/src/core/ipv4/etharp.c ****  * @param netif the lwip network interface on which to send the request
1193:Middlewares/Third_Party/LwIP/src/core/ipv4/etharp.c ****  * @param ipaddr the IP address for which to ask
1194:Middlewares/Third_Party/LwIP/src/core/ipv4/etharp.c ****  * @return ERR_OK if the request has been sent
1195:Middlewares/Third_Party/LwIP/src/core/ipv4/etharp.c ****  *         ERR_MEM if the ARP packet couldn't be allocated
1196:Middlewares/Third_Party/LwIP/src/core/ipv4/etharp.c ****  *         any other err_t on failure
1197:Middlewares/Third_Party/LwIP/src/core/ipv4/etharp.c ****  */
1198:Middlewares/Third_Party/LwIP/src/core/ipv4/etharp.c **** err_t
1199:Middlewares/Third_Party/LwIP/src/core/ipv4/etharp.c **** etharp_request(struct netif *netif, const ip4_addr_t *ipaddr)
1200:Middlewares/Third_Party/LwIP/src/core/ipv4/etharp.c **** {
 1276              		.loc 1 1200 0
 1277              		.cfi_startproc
 1278              		@ args = 0, pretend = 0, frame = 0
 1279              		@ frame_needed = 0, uses_anonymous_args = 0
ARM GAS  C:\Users\Student\AppData\Local\Temp\ccULT5Xy.s 			page 46


 1280              	.LVL148:
 1281 0000 08B5     		push	{r3, lr}
 1282              	.LCFI20:
 1283              		.cfi_def_cfa_offset 8
 1284              		.cfi_offset 3, -8
 1285              		.cfi_offset 14, -4
1201:Middlewares/Third_Party/LwIP/src/core/ipv4/etharp.c ****   LWIP_DEBUGF(ETHARP_DEBUG | LWIP_DBG_TRACE, ("etharp_request: sending ARP request.\n"));
1202:Middlewares/Third_Party/LwIP/src/core/ipv4/etharp.c ****   return etharp_request_dst(netif, ipaddr, &ethbroadcast);
 1286              		.loc 1 1202 0
 1287 0002 024A     		ldr	r2, .L114
 1288 0004 FFF7FEFF 		bl	etharp_request_dst
 1289              	.LVL149:
1203:Middlewares/Third_Party/LwIP/src/core/ipv4/etharp.c **** }
 1290              		.loc 1 1203 0
 1291 0008 08BD     		pop	{r3, pc}
 1292              	.L115:
 1293 000a 00BF     		.align	2
 1294              	.L114:
 1295 000c 00000000 		.word	ethbroadcast
 1296              		.cfi_endproc
 1297              	.LFE165:
 1299              		.section	.text.etharp_tmr,"ax",%progbits
 1300              		.align	1
 1301              		.global	etharp_tmr
 1302              		.syntax unified
 1303              		.thumb
 1304              		.thumb_func
 1305              		.fpu fpv5-sp-d16
 1307              	etharp_tmr:
 1308              	.LFB153:
 200:Middlewares/Third_Party/LwIP/src/core/ipv4/etharp.c ****   u8_t i;
 1309              		.loc 1 200 0
 1310              		.cfi_startproc
 1311              		@ args = 0, pretend = 0, frame = 0
 1312              		@ frame_needed = 0, uses_anonymous_args = 0
 1313 0000 38B5     		push	{r3, r4, r5, lr}
 1314              	.LCFI21:
 1315              		.cfi_def_cfa_offset 16
 1316              		.cfi_offset 3, -16
 1317              		.cfi_offset 4, -12
 1318              		.cfi_offset 5, -8
 1319              		.cfi_offset 14, -4
 1320              	.LVL150:
 205:Middlewares/Third_Party/LwIP/src/core/ipv4/etharp.c ****     u8_t state = arp_table[i].state;
 1321              		.loc 1 205 0
 1322 0002 0024     		movs	r4, #0
 1323 0004 05E0     		b	.L117
 1324              	.LVL151:
 1325              	.L126:
 1326              	.LBB6:
 214:Middlewares/Third_Party/LwIP/src/core/ipv4/etharp.c ****            (arp_table[i].ctime >= ARP_MAXPENDING))) {
 1327              		.loc 1 214 0
 1328 0006 042B     		cmp	r3, #4
 1329 0008 1DD9     		bls	.L120
 1330              	.LVL152:
 1331              	.L119:
 220:Middlewares/Third_Party/LwIP/src/core/ipv4/etharp.c ****       } else if (arp_table[i].state == ETHARP_STATE_STABLE_REREQUESTING_1) {
ARM GAS  C:\Users\Student\AppData\Local\Temp\ccULT5Xy.s 			page 47


 1332              		.loc 1 220 0
 1333 000a FFF7FEFF 		bl	etharp_free_entry
 1334              	.LVL153:
 1335              	.L118:
 1336              	.LBE6:
 205:Middlewares/Third_Party/LwIP/src/core/ipv4/etharp.c ****     u8_t state = arp_table[i].state;
 1337              		.loc 1 205 0 discriminator 2
 1338 000e 0134     		adds	r4, r4, #1
 1339              	.LVL154:
 1340 0010 E4B2     		uxtb	r4, r4
 1341              	.LVL155:
 1342              	.L117:
 205:Middlewares/Third_Party/LwIP/src/core/ipv4/etharp.c ****     u8_t state = arp_table[i].state;
 1343              		.loc 1 205 0 is_stmt 0 discriminator 1
 1344 0012 092C     		cmp	r4, #9
 1345 0014 38D8     		bhi	.L125
 1346              	.LBB7:
 206:Middlewares/Third_Party/LwIP/src/core/ipv4/etharp.c ****     if (state != ETHARP_STATE_EMPTY
 1347              		.loc 1 206 0 is_stmt 1
 1348 0016 2046     		mov	r0, r4
 1349 0018 04EB4403 		add	r3, r4, r4, lsl #1
 1350 001c DA00     		lsls	r2, r3, #3
 1351 001e 1B4B     		ldr	r3, .L129
 1352 0020 1344     		add	r3, r3, r2
 1353 0022 1B7D     		ldrb	r3, [r3, #20]	@ zero_extendqisi2
 1354              	.LVL156:
 207:Middlewares/Third_Party/LwIP/src/core/ipv4/etharp.c **** #if ETHARP_SUPPORT_STATIC_ENTRIES
 1355              		.loc 1 207 0
 1356 0024 002B     		cmp	r3, #0
 1357 0026 F2D0     		beq	.L118
 212:Middlewares/Third_Party/LwIP/src/core/ipv4/etharp.c ****       if ((arp_table[i].ctime >= ARP_MAXAGE) ||
 1358              		.loc 1 212 0
 1359 0028 1146     		mov	r1, r2
 1360 002a 184A     		ldr	r2, .L129
 1361 002c 0A44     		add	r2, r2, r1
 1362 002e 538A     		ldrh	r3, [r2, #18]
 1363              	.LVL157:
 1364 0030 0133     		adds	r3, r3, #1
 1365 0032 9BB2     		uxth	r3, r3
 1366 0034 5382     		strh	r3, [r2, #18]	@ movhi
 213:Middlewares/Third_Party/LwIP/src/core/ipv4/etharp.c ****           ((arp_table[i].state == ETHARP_STATE_PENDING)  &&
 1367              		.loc 1 213 0
 1368 0036 B3F5967F 		cmp	r3, #300
 1369 003a E6D2     		bcs	.L119
 214:Middlewares/Third_Party/LwIP/src/core/ipv4/etharp.c ****            (arp_table[i].ctime >= ARP_MAXPENDING))) {
 1370              		.loc 1 214 0 discriminator 1
 1371 003c 134A     		ldr	r2, .L129
 1372              	.LVL158:
 1373 003e 0A44     		add	r2, r2, r1
 1374              	.LVL159:
 1375 0040 127D     		ldrb	r2, [r2, #20]	@ zero_extendqisi2
 1376              	.LVL160:
 213:Middlewares/Third_Party/LwIP/src/core/ipv4/etharp.c ****           ((arp_table[i].state == ETHARP_STATE_PENDING)  &&
 1377              		.loc 1 213 0 discriminator 1
 1378 0042 012A     		cmp	r2, #1
 1379 0044 DFD0     		beq	.L126
 1380              	.L120:
ARM GAS  C:\Users\Student\AppData\Local\Temp\ccULT5Xy.s 			page 48


 221:Middlewares/Third_Party/LwIP/src/core/ipv4/etharp.c ****         /* Don't send more than one request every 2 seconds. */
 1381              		.loc 1 221 0
 1382 0046 032A     		cmp	r2, #3
 1383 0048 0ED0     		beq	.L127
 224:Middlewares/Third_Party/LwIP/src/core/ipv4/etharp.c ****         /* Reset state to stable, so that the next transmitted packet will
 1384              		.loc 1 224 0
 1385 004a 042A     		cmp	r2, #4
 1386 004c 14D0     		beq	.L128
 228:Middlewares/Third_Party/LwIP/src/core/ipv4/etharp.c ****         /* still pending, resend an ARP query */
 1387              		.loc 1 228 0
 1388 004e 012A     		cmp	r2, #1
 1389 0050 DDD1     		bne	.L118
 230:Middlewares/Third_Party/LwIP/src/core/ipv4/etharp.c ****       }
 1390              		.loc 1 230 0
 1391 0052 0E4A     		ldr	r2, .L129
 1392              	.LVL161:
 1393 0054 4300     		lsls	r3, r0, #1
 1394 0056 1D18     		adds	r5, r3, r0
 1395 0058 E900     		lsls	r1, r5, #3
 1396              	.LVL162:
 1397 005a 1144     		add	r1, r1, r2
 1398 005c 0A46     		mov	r2, r1
 1399              	.LVL163:
 1400 005e 0431     		adds	r1, r1, #4
 1401 0060 9068     		ldr	r0, [r2, #8]
 1402              	.LVL164:
 1403 0062 FFF7FEFF 		bl	etharp_request
 1404              	.LVL165:
 1405 0066 D2E7     		b	.L118
 1406              	.LVL166:
 1407              	.L127:
 223:Middlewares/Third_Party/LwIP/src/core/ipv4/etharp.c ****       } else if (arp_table[i].state == ETHARP_STATE_STABLE_REREQUESTING_2) {
 1408              		.loc 1 223 0
 1409 0068 00EB4000 		add	r0, r0, r0, lsl #1
 1410 006c C200     		lsls	r2, r0, #3
 1411              	.LVL167:
 1412 006e 074B     		ldr	r3, .L129
 1413              	.LVL168:
 1414 0070 1344     		add	r3, r3, r2
 1415              	.LVL169:
 1416 0072 0422     		movs	r2, #4
 1417 0074 1A75     		strb	r2, [r3, #20]
 1418              	.LVL170:
 1419 0076 CAE7     		b	.L118
 1420              	.LVL171:
 1421              	.L128:
 227:Middlewares/Third_Party/LwIP/src/core/ipv4/etharp.c ****       } else if (arp_table[i].state == ETHARP_STATE_PENDING) {
 1422              		.loc 1 227 0
 1423 0078 00EB4000 		add	r0, r0, r0, lsl #1
 1424 007c C200     		lsls	r2, r0, #3
 1425              	.LVL172:
 1426 007e 034B     		ldr	r3, .L129
 1427              	.LVL173:
 1428 0080 1344     		add	r3, r3, r2
 1429              	.LVL174:
 1430 0082 0222     		movs	r2, #2
 1431 0084 1A75     		strb	r2, [r3, #20]
ARM GAS  C:\Users\Student\AppData\Local\Temp\ccULT5Xy.s 			page 49


 1432              	.LVL175:
 1433 0086 C2E7     		b	.L118
 1434              	.L125:
 1435              	.LBE7:
 234:Middlewares/Third_Party/LwIP/src/core/ipv4/etharp.c **** 
 1436              		.loc 1 234 0
 1437 0088 38BD     		pop	{r3, r4, r5, pc}
 1438              	.LVL176:
 1439              	.L130:
 1440 008a 00BF     		.align	2
 1441              	.L129:
 1442 008c 00000000 		.word	.LANCHOR0
 1443              		.cfi_endproc
 1444              	.LFE153:
 1446              		.section	.text.etharp_output_to_arp_index,"ax",%progbits
 1447              		.align	1
 1448              		.syntax unified
 1449              		.thumb
 1450              		.thumb_func
 1451              		.fpu fpv5-sp-d16
 1453              	etharp_output_to_arp_index:
 1454              	.LFB160:
 747:Middlewares/Third_Party/LwIP/src/core/ipv4/etharp.c ****   LWIP_ASSERT("arp_table[arp_idx].state >= ETHARP_STATE_STABLE",
 1455              		.loc 1 747 0
 1456              		.cfi_startproc
 1457              		@ args = 0, pretend = 0, frame = 0
 1458              		@ frame_needed = 0, uses_anonymous_args = 0
 1459              	.LVL177:
 1460 0000 70B5     		push	{r4, r5, r6, lr}
 1461              	.LCFI22:
 1462              		.cfi_def_cfa_offset 16
 1463              		.cfi_offset 4, -16
 1464              		.cfi_offset 5, -12
 1465              		.cfi_offset 6, -8
 1466              		.cfi_offset 14, -4
 1467 0002 82B0     		sub	sp, sp, #8
 1468              	.LCFI23:
 1469              		.cfi_def_cfa_offset 24
 1470 0004 0546     		mov	r5, r0
 1471 0006 0E46     		mov	r6, r1
 1472 0008 1446     		mov	r4, r2
 748:Middlewares/Third_Party/LwIP/src/core/ipv4/etharp.c ****               arp_table[arp_idx].state >= ETHARP_STATE_STABLE);
 1473              		.loc 1 748 0
 1474 000a 02EB4203 		add	r3, r2, r2, lsl #1
 1475 000e DA00     		lsls	r2, r3, #3
 1476              	.LVL178:
 1477 0010 2C4B     		ldr	r3, .L139
 1478 0012 1344     		add	r3, r3, r2
 1479 0014 1B7D     		ldrb	r3, [r3, #20]	@ zero_extendqisi2
 1480 0016 012B     		cmp	r3, #1
 1481 0018 19D9     		bls	.L136
 1482              	.LVL179:
 1483              	.L132:
 753:Middlewares/Third_Party/LwIP/src/core/ipv4/etharp.c ****     if (arp_table[arp_idx].ctime >= ARP_AGE_REREQUEST_USED_BROADCAST) {
 1484              		.loc 1 753 0
 1485 001a 04EB4403 		add	r3, r4, r4, lsl #1
 1486 001e DA00     		lsls	r2, r3, #3
ARM GAS  C:\Users\Student\AppData\Local\Temp\ccULT5Xy.s 			page 50


 1487 0020 284B     		ldr	r3, .L139
 1488 0022 1344     		add	r3, r3, r2
 1489 0024 1B7D     		ldrb	r3, [r3, #20]	@ zero_extendqisi2
 1490 0026 022B     		cmp	r3, #2
 1491 0028 19D0     		beq	.L137
 1492              	.L133:
 767:Middlewares/Third_Party/LwIP/src/core/ipv4/etharp.c **** }
 1493              		.loc 1 767 0
 1494 002a 04EB4404 		add	r4, r4, r4, lsl #1
 1495 002e E300     		lsls	r3, r4, #3
 1496 0030 0833     		adds	r3, r3, #8
 1497 0032 244A     		ldr	r2, .L139
 1498 0034 1344     		add	r3, r3, r2
 1499 0036 4FF40062 		mov	r2, #2048
 1500 003a 0092     		str	r2, [sp]
 1501 003c 0433     		adds	r3, r3, #4
 1502 003e 05F12902 		add	r2, r5, #41
 1503 0042 3146     		mov	r1, r6
 1504 0044 2846     		mov	r0, r5
 1505 0046 FFF7FEFF 		bl	ethernet_output
 1506              	.LVL180:
 768:Middlewares/Third_Party/LwIP/src/core/ipv4/etharp.c **** 
 1507              		.loc 1 768 0
 1508 004a 02B0     		add	sp, sp, #8
 1509              	.LCFI24:
 1510              		.cfi_remember_state
 1511              		.cfi_def_cfa_offset 16
 1512              		@ sp needed
 1513 004c 70BD     		pop	{r4, r5, r6, pc}
 1514              	.LVL181:
 1515              	.L136:
 1516              	.LCFI25:
 1517              		.cfi_restore_state
 748:Middlewares/Third_Party/LwIP/src/core/ipv4/etharp.c ****               arp_table[arp_idx].state >= ETHARP_STATE_STABLE);
 1518              		.loc 1 748 0 discriminator 1
 1519 004e 1E4B     		ldr	r3, .L139+4
 1520 0050 40F2ED22 		movw	r2, #749
 1521 0054 1D49     		ldr	r1, .L139+8
 1522              	.LVL182:
 1523 0056 1E48     		ldr	r0, .L139+12
 1524              	.LVL183:
 1525 0058 FFF7FEFF 		bl	printf
 1526              	.LVL184:
 1527 005c DDE7     		b	.L132
 1528              	.L137:
 754:Middlewares/Third_Party/LwIP/src/core/ipv4/etharp.c ****       /* issue a standard request using broadcast */
 1529              		.loc 1 754 0
 1530 005e 194B     		ldr	r3, .L139
 1531 0060 1344     		add	r3, r3, r2
 1532 0062 5B8A     		ldrh	r3, [r3, #18]
 1533 0064 B3F58E7F 		cmp	r3, #284
 1534 0068 19D8     		bhi	.L138
 759:Middlewares/Third_Party/LwIP/src/core/ipv4/etharp.c ****       /* issue a unicast request (for 15 seconds) to prevent unnecessary broadcast */
 1535              		.loc 1 759 0
 1536 006a B3F5877F 		cmp	r3, #270
 1537 006e DCD3     		bcc	.L133
 761:Middlewares/Third_Party/LwIP/src/core/ipv4/etharp.c ****         arp_table[arp_idx].state = ETHARP_STATE_STABLE_REREQUESTING_1;
ARM GAS  C:\Users\Student\AppData\Local\Temp\ccULT5Xy.s 			page 51


 1538              		.loc 1 761 0
 1539 0070 144A     		ldr	r2, .L139
 1540 0072 6300     		lsls	r3, r4, #1
 1541 0074 1819     		adds	r0, r3, r4
 1542 0076 C100     		lsls	r1, r0, #3
 1543 0078 0846     		mov	r0, r1
 1544 007a 1144     		add	r1, r1, r2
 1545 007c 0830     		adds	r0, r0, #8
 1546 007e 0244     		add	r2, r2, r0
 1547 0080 0432     		adds	r2, r2, #4
 1548 0082 0431     		adds	r1, r1, #4
 1549 0084 2846     		mov	r0, r5
 1550 0086 FFF7FEFF 		bl	etharp_request_dst
 1551              	.LVL185:
 1552 008a 0028     		cmp	r0, #0
 1553 008c CDD1     		bne	.L133
 762:Middlewares/Third_Party/LwIP/src/core/ipv4/etharp.c ****       }
 1554              		.loc 1 762 0
 1555 008e 04EB4403 		add	r3, r4, r4, lsl #1
 1556 0092 DA00     		lsls	r2, r3, #3
 1557 0094 0B4B     		ldr	r3, .L139
 1558 0096 1344     		add	r3, r3, r2
 1559 0098 0322     		movs	r2, #3
 1560 009a 1A75     		strb	r2, [r3, #20]
 1561 009c C5E7     		b	.L133
 1562              	.L138:
 756:Middlewares/Third_Party/LwIP/src/core/ipv4/etharp.c ****         arp_table[arp_idx].state = ETHARP_STATE_STABLE_REREQUESTING_1;
 1563              		.loc 1 756 0
 1564 009e 04EB4402 		add	r2, r4, r4, lsl #1
 1565 00a2 D300     		lsls	r3, r2, #3
 1566 00a4 0749     		ldr	r1, .L139
 1567 00a6 1944     		add	r1, r1, r3
 1568 00a8 0431     		adds	r1, r1, #4
 1569 00aa 2846     		mov	r0, r5
 1570 00ac FFF7FEFF 		bl	etharp_request
 1571              	.LVL186:
 1572 00b0 0028     		cmp	r0, #0
 1573 00b2 BAD1     		bne	.L133
 757:Middlewares/Third_Party/LwIP/src/core/ipv4/etharp.c ****       }
 1574              		.loc 1 757 0
 1575 00b4 04EB4403 		add	r3, r4, r4, lsl #1
 1576 00b8 DA00     		lsls	r2, r3, #3
 1577 00ba 024B     		ldr	r3, .L139
 1578 00bc 1344     		add	r3, r3, r2
 1579 00be 0322     		movs	r2, #3
 1580 00c0 1A75     		strb	r2, [r3, #20]
 1581 00c2 B2E7     		b	.L133
 1582              	.L140:
 1583              		.align	2
 1584              	.L139:
 1585 00c4 00000000 		.word	.LANCHOR0
 1586 00c8 00000000 		.word	.LC0
 1587 00cc 00000000 		.word	.LC12
 1588 00d0 4C000000 		.word	.LC2
 1589              		.cfi_endproc
 1590              	.LFE160:
 1592              		.section	.text.etharp_query,"ax",%progbits
ARM GAS  C:\Users\Student\AppData\Local\Temp\ccULT5Xy.s 			page 52


 1593              		.align	1
 1594              		.global	etharp_query
 1595              		.syntax unified
 1596              		.thumb
 1597              		.thumb_func
 1598              		.fpu fpv5-sp-d16
 1600              	etharp_query:
 1601              	.LFB162:
 931:Middlewares/Third_Party/LwIP/src/core/ipv4/etharp.c ****   struct eth_addr * srcaddr = (struct eth_addr *)netif->hwaddr;
 1602              		.loc 1 931 0
 1603              		.cfi_startproc
 1604              		@ args = 0, pretend = 0, frame = 0
 1605              		@ frame_needed = 0, uses_anonymous_args = 0
 1606              	.LVL187:
 1607 0000 2DE9F043 		push	{r4, r5, r6, r7, r8, r9, lr}
 1608              	.LCFI26:
 1609              		.cfi_def_cfa_offset 28
 1610              		.cfi_offset 4, -28
 1611              		.cfi_offset 5, -24
 1612              		.cfi_offset 6, -20
 1613              		.cfi_offset 7, -16
 1614              		.cfi_offset 8, -12
 1615              		.cfi_offset 9, -8
 1616              		.cfi_offset 14, -4
 1617 0004 83B0     		sub	sp, sp, #12
 1618              	.LCFI27:
 1619              		.cfi_def_cfa_offset 40
 1620 0006 0646     		mov	r6, r0
 1621 0008 0C46     		mov	r4, r1
 1622 000a 9046     		mov	r8, r2
 932:Middlewares/Third_Party/LwIP/src/core/ipv4/etharp.c ****   err_t result = ERR_MEM;
 1623              		.loc 1 932 0
 1624 000c 00F12909 		add	r9, r0, #41
 1625              	.LVL188:
 938:Middlewares/Third_Party/LwIP/src/core/ipv4/etharp.c ****       ip4_addr_ismulticast(ipaddr) ||
 1626              		.loc 1 938 0
 1627 0010 0146     		mov	r1, r0
 1628              	.LVL189:
 1629 0012 2068     		ldr	r0, [r4]
 1630              	.LVL190:
 1631 0014 FFF7FEFF 		bl	ip4_addr_isbroadcast_u32
 1632              	.LVL191:
 1633 0018 0028     		cmp	r0, #0
 1634 001a 40F0AC80 		bne	.L155
 939:Middlewares/Third_Party/LwIP/src/core/ipv4/etharp.c ****       ip4_addr_isany(ipaddr)) {
 1635              		.loc 1 939 0 discriminator 1
 1636 001e 2368     		ldr	r3, [r4]
 1637 0020 03F0F002 		and	r2, r3, #240
 938:Middlewares/Third_Party/LwIP/src/core/ipv4/etharp.c ****       ip4_addr_ismulticast(ipaddr) ||
 1638              		.loc 1 938 0 discriminator 1
 1639 0024 E02A     		cmp	r2, #224
 1640 0026 00F0A980 		beq	.L156
 939:Middlewares/Third_Party/LwIP/src/core/ipv4/etharp.c ****       ip4_addr_isany(ipaddr)) {
 1641              		.loc 1 939 0
 1642 002a 002C     		cmp	r4, #0
 1643 002c 00F0A980 		beq	.L157
 940:Middlewares/Third_Party/LwIP/src/core/ipv4/etharp.c ****     LWIP_DEBUGF(ETHARP_DEBUG | LWIP_DBG_TRACE, ("etharp_query: will not add non-unicast IP address 
ARM GAS  C:\Users\Student\AppData\Local\Temp\ccULT5Xy.s 			page 53


 1644              		.loc 1 940 0
 1645 0030 002B     		cmp	r3, #0
 1646 0032 00F0A980 		beq	.L158
 946:Middlewares/Third_Party/LwIP/src/core/ipv4/etharp.c **** 
 1647              		.loc 1 946 0
 1648 0036 3246     		mov	r2, r6
 1649 0038 0121     		movs	r1, #1
 1650 003a 2046     		mov	r0, r4
 1651 003c FFF7FEFF 		bl	etharp_find_entry
 1652              	.LVL192:
 949:Middlewares/Third_Party/LwIP/src/core/ipv4/etharp.c ****     LWIP_DEBUGF(ETHARP_DEBUG | LWIP_DBG_TRACE, ("etharp_query: could not create ARP entry\n"));
 1653              		.loc 1 949 0
 1654 0040 051E     		subs	r5, r0, #0
 1655 0042 C0F2A480 		blt	.L159
 959:Middlewares/Third_Party/LwIP/src/core/ipv4/etharp.c ****     is_new_entry = 1;
 1656              		.loc 1 959 0
 1657 0046 05EB4503 		add	r3, r5, r5, lsl #1
 1658 004a DA00     		lsls	r2, r3, #3
 1659 004c 524B     		ldr	r3, .L171
 1660 004e 1344     		add	r3, r3, r2
 1661 0050 1B7D     		ldrb	r3, [r3, #20]	@ zero_extendqisi2
 1662 0052 2BBB     		cbnz	r3, .L160
 1663              	.LVL193:
 961:Middlewares/Third_Party/LwIP/src/core/ipv4/etharp.c ****     /* record network interface for re-sending arp request in etharp_tmr */
 1664              		.loc 1 961 0
 1665 0054 6A00     		lsls	r2, r5, #1
 1666 0056 2A44     		add	r2, r2, r5
 1667 0058 D100     		lsls	r1, r2, #3
 1668 005a 4F4B     		ldr	r3, .L171
 1669 005c 0B44     		add	r3, r3, r1
 1670 005e 0127     		movs	r7, #1
 1671 0060 1F75     		strb	r7, [r3, #20]
 963:Middlewares/Third_Party/LwIP/src/core/ipv4/etharp.c ****   }
 1672              		.loc 1 963 0
 1673 0062 9E60     		str	r6, [r3, #8]
 1674              	.LVL194:
 1675              	.L143:
 967:Middlewares/Third_Party/LwIP/src/core/ipv4/etharp.c ****   ((arp_table[i].state == ETHARP_STATE_PENDING) ||
 1676              		.loc 1 967 0
 1677 0064 05EB4503 		add	r3, r5, r5, lsl #1
 1678 0068 DA00     		lsls	r2, r3, #3
 1679 006a 4B4B     		ldr	r3, .L171
 1680 006c 1344     		add	r3, r3, r2
 1681 006e 1B7D     		ldrb	r3, [r3, #20]	@ zero_extendqisi2
 1682 0070 C3B1     		cbz	r3, .L166
 1683              	.LVL195:
 1684              	.L144:
 972:Middlewares/Third_Party/LwIP/src/core/ipv4/etharp.c ****     /* try to resolve it; send out ARP request */
 1685              		.loc 1 972 0
 1686 0072 B8F1000F 		cmp	r8, #0
 1687 0076 08BF     		it	eq
 1688 0078 47F00107 		orreq	r7, r7, #1
 1689              	.LVL196:
 1690 007c D7B9     		cbnz	r7, .L167
 933:Middlewares/Third_Party/LwIP/src/core/ipv4/etharp.c ****   int is_new_entry = 0;
 1691              		.loc 1 933 0
 1692 007e 4FF0FF34 		mov	r4, #-1
ARM GAS  C:\Users\Student\AppData\Local\Temp\ccULT5Xy.s 			page 54


 1693              	.LVL197:
 1694              	.L145:
 987:Middlewares/Third_Party/LwIP/src/core/ipv4/etharp.c ****   /* stable entry? */
 1695              		.loc 1 987 0
 1696 0082 B8F1000F 		cmp	r8, #0
 1697 0086 1ED0     		beq	.L168
 1698              	.L146:
 989:Middlewares/Third_Party/LwIP/src/core/ipv4/etharp.c ****     /* we have a valid IP->Ethernet address mapping */
 1699              		.loc 1 989 0
 1700 0088 05EB4503 		add	r3, r5, r5, lsl #1
 1701 008c DA00     		lsls	r2, r3, #3
 1702 008e 424B     		ldr	r3, .L171
 1703 0090 1344     		add	r3, r3, r2
 1704 0092 1B7D     		ldrb	r3, [r3, #20]	@ zero_extendqisi2
 1705 0094 012B     		cmp	r3, #1
 1706 0096 1ED8     		bhi	.L169
 995:Middlewares/Third_Party/LwIP/src/core/ipv4/etharp.c ****     /* entry is still pending, queue the given packet 'q' */
 1707              		.loc 1 995 0
 1708 0098 012B     		cmp	r3, #1
 1709 009a 2CD1     		bne	.L142
 1710 009c 4446     		mov	r4, r8
 1711              	.LVL198:
 1712 009e 32E0     		b	.L148
 1713              	.LVL199:
 1714              	.L160:
 934:Middlewares/Third_Party/LwIP/src/core/ipv4/etharp.c ****   s8_t i; /* ARP entry index */
 1715              		.loc 1 934 0
 1716 00a0 0027     		movs	r7, #0
 1717 00a2 DFE7     		b	.L143
 1718              	.LVL200:
 1719              	.L166:
 967:Middlewares/Third_Party/LwIP/src/core/ipv4/etharp.c ****   ((arp_table[i].state == ETHARP_STATE_PENDING) ||
 1720              		.loc 1 967 0 discriminator 1
 1721 00a4 3D4B     		ldr	r3, .L171+4
 1722 00a6 40F2C932 		movw	r2, #969
 1723 00aa 3D49     		ldr	r1, .L171+8
 1724 00ac 3D48     		ldr	r0, .L171+12
 1725              	.LVL201:
 1726 00ae FFF7FEFF 		bl	printf
 1727              	.LVL202:
 1728 00b2 DEE7     		b	.L144
 1729              	.LVL203:
 1730              	.L167:
 974:Middlewares/Third_Party/LwIP/src/core/ipv4/etharp.c ****     if (result != ERR_OK) {
 1731              		.loc 1 974 0
 1732 00b4 2146     		mov	r1, r4
 1733 00b6 3046     		mov	r0, r6
 1734 00b8 FFF7FEFF 		bl	etharp_request
 1735              	.LVL204:
 1736 00bc 0446     		mov	r4, r0
 1737              	.LVL205:
 981:Middlewares/Third_Party/LwIP/src/core/ipv4/etharp.c ****       return result;
 1738              		.loc 1 981 0
 1739 00be B8F1000F 		cmp	r8, #0
 1740 00c2 DED1     		bne	.L145
 1741 00c4 17E0     		b	.L142
 1742              	.L168:
ARM GAS  C:\Users\Student\AppData\Local\Temp\ccULT5Xy.s 			page 55


 987:Middlewares/Third_Party/LwIP/src/core/ipv4/etharp.c ****   /* stable entry? */
 1743              		.loc 1 987 0 discriminator 1
 1744 00c6 354B     		ldr	r3, .L171+4
 1745 00c8 40F2DB32 		movw	r2, #987
 1746 00cc 3649     		ldr	r1, .L171+16
 1747 00ce 3548     		ldr	r0, .L171+12
 1748 00d0 FFF7FEFF 		bl	printf
 1749              	.LVL206:
 1750 00d4 D8E7     		b	.L146
 1751              	.L169:
 991:Middlewares/Third_Party/LwIP/src/core/ipv4/etharp.c ****     /* send the packet */
 1752              		.loc 1 991 0
 1753 00d6 354B     		ldr	r3, .L171+20
 1754 00d8 1D70     		strb	r5, [r3]
 993:Middlewares/Third_Party/LwIP/src/core/ipv4/etharp.c ****   /* pending entry? (either just created or already pending */
 1755              		.loc 1 993 0
 1756 00da 1346     		mov	r3, r2
 1757 00dc 0833     		adds	r3, r3, #8
 1758 00de 2E4A     		ldr	r2, .L171
 1759 00e0 1344     		add	r3, r3, r2
 1760 00e2 4FF40062 		mov	r2, #2048
 1761 00e6 0092     		str	r2, [sp]
 1762 00e8 0433     		adds	r3, r3, #4
 1763 00ea 4A46     		mov	r2, r9
 1764 00ec 4146     		mov	r1, r8
 1765 00ee 3046     		mov	r0, r6
 1766 00f0 FFF7FEFF 		bl	ethernet_output
 1767              	.LVL207:
 1768 00f4 0446     		mov	r4, r0
 1769              	.LVL208:
 1770              	.L142:
1084:Middlewares/Third_Party/LwIP/src/core/ipv4/etharp.c **** 
 1771              		.loc 1 1084 0
 1772 00f6 2046     		mov	r0, r4
 1773 00f8 03B0     		add	sp, sp, #12
 1774              	.LCFI28:
 1775              		.cfi_remember_state
 1776              		.cfi_def_cfa_offset 28
 1777              		@ sp needed
 1778 00fa BDE8F083 		pop	{r4, r5, r6, r7, r8, r9, pc}
 1779              	.LVL209:
 1780              	.L149:
 1781              	.LCFI29:
 1782              		.cfi_restore_state
 1783              	.LBB8:
1005:Middlewares/Third_Party/LwIP/src/core/ipv4/etharp.c ****         copy_needed = 1;
 1784              		.loc 1 1005 0
 1785 00fe 237B     		ldrb	r3, [r4, #12]	@ zero_extendqisi2
 1786 0100 012B     		cmp	r3, #1
 1787 0102 22D1     		bne	.L163
1009:Middlewares/Third_Party/LwIP/src/core/ipv4/etharp.c ****     }
 1788              		.loc 1 1009 0
 1789 0104 2468     		ldr	r4, [r4]
 1790              	.LVL210:
 1791              	.L148:
1003:Middlewares/Third_Party/LwIP/src/core/ipv4/etharp.c ****       LWIP_ASSERT("no packet queues allowed!", (p->len != p->tot_len) || (p->next == 0));
 1792              		.loc 1 1003 0
ARM GAS  C:\Users\Student\AppData\Local\Temp\ccULT5Xy.s 			page 56


 1793 0106 74B1     		cbz	r4, .L170
1004:Middlewares/Third_Party/LwIP/src/core/ipv4/etharp.c ****       if (p->type != PBUF_ROM) {
 1794              		.loc 1 1004 0
 1795 0108 6289     		ldrh	r2, [r4, #10]
 1796 010a 2389     		ldrh	r3, [r4, #8]
 1797 010c 9A42     		cmp	r2, r3
 1798 010e F6D1     		bne	.L149
1004:Middlewares/Third_Party/LwIP/src/core/ipv4/etharp.c ****       if (p->type != PBUF_ROM) {
 1799              		.loc 1 1004 0 is_stmt 0 discriminator 1
 1800 0110 2368     		ldr	r3, [r4]
 1801 0112 002B     		cmp	r3, #0
 1802 0114 F3D0     		beq	.L149
1004:Middlewares/Third_Party/LwIP/src/core/ipv4/etharp.c ****       if (p->type != PBUF_ROM) {
 1803              		.loc 1 1004 0 discriminator 2
 1804 0116 214B     		ldr	r3, .L171+4
 1805 0118 4FF47B72 		mov	r2, #1004
 1806 011c 2449     		ldr	r1, .L171+24
 1807 011e 2148     		ldr	r0, .L171+12
 1808 0120 FFF7FEFF 		bl	printf
 1809              	.LVL211:
 1810 0124 EBE7     		b	.L149
 1811              	.L170:
 998:Middlewares/Third_Party/LwIP/src/core/ipv4/etharp.c ****     /* IF q includes a PBUF_REF, PBUF_POOL or PBUF_RAM, we have no choice but
 1812              		.loc 1 998 0 is_stmt 1
 1813 0126 0023     		movs	r3, #0
 1814              	.L150:
 1815              	.LVL212:
1011:Middlewares/Third_Party/LwIP/src/core/ipv4/etharp.c ****       /* copy the whole packet into new pbufs */
 1816              		.loc 1 1011 0
 1817 0128 8BB1     		cbz	r3, .L152
1013:Middlewares/Third_Party/LwIP/src/core/ipv4/etharp.c ****       if (p != NULL) {
 1818              		.loc 1 1013 0
 1819 012a 0022     		movs	r2, #0
 1820 012c 2189     		ldrh	r1, [r4, #8]
 1821 012e 0220     		movs	r0, #2
 1822 0130 FFF7FEFF 		bl	pbuf_alloc
 1823              	.LVL213:
1014:Middlewares/Third_Party/LwIP/src/core/ipv4/etharp.c ****         if (pbuf_copy(p, q) != ERR_OK) {
 1824              		.loc 1 1014 0
 1825 0134 0446     		mov	r4, r0
 1826 0136 70B1     		cbz	r0, .L153
1015:Middlewares/Third_Party/LwIP/src/core/ipv4/etharp.c ****           pbuf_free(p);
 1827              		.loc 1 1015 0
 1828 0138 4146     		mov	r1, r8
 1829 013a FFF7FEFF 		bl	pbuf_copy
 1830              	.LVL214:
 1831 013e 50B1     		cbz	r0, .L153
1016:Middlewares/Third_Party/LwIP/src/core/ipv4/etharp.c ****           p = NULL;
 1832              		.loc 1 1016 0
 1833 0140 2046     		mov	r0, r4
 1834 0142 FFF7FEFF 		bl	pbuf_free
 1835              	.LVL215:
1017:Middlewares/Third_Party/LwIP/src/core/ipv4/etharp.c ****         }
 1836              		.loc 1 1017 0
 1837 0146 0024     		movs	r4, #0
 1838 0148 05E0     		b	.L153
 1839              	.LVL216:
ARM GAS  C:\Users\Student\AppData\Local\Temp\ccULT5Xy.s 			page 57


 1840              	.L163:
1006:Middlewares/Third_Party/LwIP/src/core/ipv4/etharp.c ****         break;
 1841              		.loc 1 1006 0
 1842 014a 0123     		movs	r3, #1
 1843 014c ECE7     		b	.L150
 1844              	.LVL217:
 1845              	.L152:
1023:Middlewares/Third_Party/LwIP/src/core/ipv4/etharp.c ****     }
 1846              		.loc 1 1023 0
 1847 014e 4046     		mov	r0, r8
 1848 0150 FFF7FEFF 		bl	pbuf_ref
 1849              	.LVL218:
1022:Middlewares/Third_Party/LwIP/src/core/ipv4/etharp.c ****       pbuf_ref(p);
 1850              		.loc 1 1022 0
 1851 0154 4446     		mov	r4, r8
 1852              	.LVL219:
 1853              	.L153:
1026:Middlewares/Third_Party/LwIP/src/core/ipv4/etharp.c ****       /* queue packet ... */
 1854              		.loc 1 1026 0
 1855 0156 E4B1     		cbz	r4, .L164
1069:Middlewares/Third_Party/LwIP/src/core/ipv4/etharp.c ****         LWIP_DEBUGF(ETHARP_DEBUG | LWIP_DBG_TRACE, ("etharp_query: dropped previously queued packet
 1856              		.loc 1 1069 0
 1857 0158 05EB4502 		add	r2, r5, r5, lsl #1
 1858 015c D300     		lsls	r3, r2, #3
 1859 015e 0E4A     		ldr	r2, .L171
 1860 0160 D058     		ldr	r0, [r2, r3]
 1861 0162 08B1     		cbz	r0, .L154
1071:Middlewares/Third_Party/LwIP/src/core/ipv4/etharp.c ****       }
 1862              		.loc 1 1071 0
 1863 0164 FFF7FEFF 		bl	pbuf_free
 1864              	.LVL220:
 1865              	.L154:
1073:Middlewares/Third_Party/LwIP/src/core/ipv4/etharp.c ****       result = ERR_OK;
 1866              		.loc 1 1073 0
 1867 0168 05EB4505 		add	r5, r5, r5, lsl #1
 1868 016c EB00     		lsls	r3, r5, #3
 1869 016e 0A4A     		ldr	r2, .L171
 1870 0170 D450     		str	r4, [r2, r3]
 1871              	.LVL221:
1074:Middlewares/Third_Party/LwIP/src/core/ipv4/etharp.c ****       LWIP_DEBUGF(ETHARP_DEBUG | LWIP_DBG_TRACE, ("etharp_query: queued packet %p on ARP entry %"S1
 1872              		.loc 1 1074 0
 1873 0172 0024     		movs	r4, #0
 1874              	.LVL222:
 1875 0174 BFE7     		b	.L142
 1876              	.LVL223:
 1877              	.L155:
 1878              	.LBE8:
 942:Middlewares/Third_Party/LwIP/src/core/ipv4/etharp.c ****   }
 1879              		.loc 1 942 0
 1880 0176 6FF00F04 		mvn	r4, #15
 1881              	.LVL224:
 1882 017a BCE7     		b	.L142
 1883              	.LVL225:
 1884              	.L156:
 1885 017c 6FF00F04 		mvn	r4, #15
 1886              	.LVL226:
 1887 0180 B9E7     		b	.L142
ARM GAS  C:\Users\Student\AppData\Local\Temp\ccULT5Xy.s 			page 58


 1888              	.LVL227:
 1889              	.L157:
 1890 0182 6FF00F04 		mvn	r4, #15
 1891              	.LVL228:
 1892 0186 B6E7     		b	.L142
 1893              	.LVL229:
 1894              	.L158:
 1895 0188 6FF00F04 		mvn	r4, #15
 1896              	.LVL230:
 1897 018c B3E7     		b	.L142
 1898              	.LVL231:
 1899              	.L159:
 955:Middlewares/Third_Party/LwIP/src/core/ipv4/etharp.c ****   }
 1900              		.loc 1 955 0
 1901 018e 2C46     		mov	r4, r5
 1902              	.LVL232:
 1903 0190 B1E7     		b	.L142
 1904              	.LVL233:
 1905              	.L164:
 1906              	.LBB9:
1080:Middlewares/Third_Party/LwIP/src/core/ipv4/etharp.c ****     }
 1907              		.loc 1 1080 0
 1908 0192 4FF0FF34 		mov	r4, #-1
 1909              	.LVL234:
 1910 0196 AEE7     		b	.L142
 1911              	.L172:
 1912              		.align	2
 1913              	.L171:
 1914 0198 00000000 		.word	.LANCHOR0
 1915 019c 00000000 		.word	.LC0
 1916 01a0 00000000 		.word	.LC13
 1917 01a4 4C000000 		.word	.LC2
 1918 01a8 28000000 		.word	.LC14
 1919 01ac 00000000 		.word	.LANCHOR1
 1920 01b0 34000000 		.word	.LC15
 1921              	.LBE9:
 1922              		.cfi_endproc
 1923              	.LFE162:
 1925              		.section	.text.etharp_output,"ax",%progbits
 1926              		.align	1
 1927              		.global	etharp_output
 1928              		.syntax unified
 1929              		.thumb
 1930              		.thumb_func
 1931              		.fpu fpv5-sp-d16
 1933              	etharp_output:
 1934              	.LFB161:
 790:Middlewares/Third_Party/LwIP/src/core/ipv4/etharp.c ****   const struct eth_addr *dest;
 1935              		.loc 1 790 0
 1936              		.cfi_startproc
 1937              		@ args = 0, pretend = 0, frame = 8
 1938              		@ frame_needed = 0, uses_anonymous_args = 0
 1939              	.LVL235:
 1940 0000 70B5     		push	{r4, r5, r6, lr}
 1941              	.LCFI30:
 1942              		.cfi_def_cfa_offset 16
 1943              		.cfi_offset 4, -16
ARM GAS  C:\Users\Student\AppData\Local\Temp\ccULT5Xy.s 			page 59


 1944              		.cfi_offset 5, -12
 1945              		.cfi_offset 6, -8
 1946              		.cfi_offset 14, -4
 1947 0002 84B0     		sub	sp, sp, #16
 1948              	.LCFI31:
 1949              		.cfi_def_cfa_offset 32
 1950 0004 0E46     		mov	r6, r1
 1951 0006 1446     		mov	r4, r2
 1952              	.LVL236:
 795:Middlewares/Third_Party/LwIP/src/core/ipv4/etharp.c ****   LWIP_ASSERT("q != NULL", q != NULL);
 1953              		.loc 1 795 0
 1954 0008 0546     		mov	r5, r0
 1955 000a 0028     		cmp	r0, #0
 1956 000c 2FD0     		beq	.L189
 1957              	.LVL237:
 1958              	.L174:
 796:Middlewares/Third_Party/LwIP/src/core/ipv4/etharp.c ****   LWIP_ASSERT("ipaddr != NULL", ipaddr != NULL);
 1959              		.loc 1 796 0
 1960 000e 002E     		cmp	r6, #0
 1961 0010 35D0     		beq	.L190
 1962              	.L175:
 797:Middlewares/Third_Party/LwIP/src/core/ipv4/etharp.c **** 
 1963              		.loc 1 797 0
 1964 0012 002C     		cmp	r4, #0
 1965 0014 3BD0     		beq	.L191
 1966              	.L176:
 803:Middlewares/Third_Party/LwIP/src/core/ipv4/etharp.c ****     /* broadcast on Ethernet also */
 1967              		.loc 1 803 0
 1968 0016 2946     		mov	r1, r5
 1969 0018 2068     		ldr	r0, [r4]
 1970 001a FFF7FEFF 		bl	ip4_addr_isbroadcast_u32
 1971              	.LVL238:
 1972 001e 0028     		cmp	r0, #0
 1973 0020 7AD1     		bne	.L184
 807:Middlewares/Third_Party/LwIP/src/core/ipv4/etharp.c ****     /* Hash IP multicast address to MAC address.*/
 1974              		.loc 1 807 0
 1975 0022 2368     		ldr	r3, [r4]
 1976 0024 03F0F002 		and	r2, r3, #240
 1977 0028 E02A     		cmp	r2, #224
 1978 002a 38D0     		beq	.L192
 1979              	.LBB10:
 822:Middlewares/Third_Party/LwIP/src/core/ipv4/etharp.c ****         !ip4_addr_islinklocal(ipaddr)) {
 1980              		.loc 1 822 0
 1981 002c 6A68     		ldr	r2, [r5, #4]
 1982 002e A968     		ldr	r1, [r5, #8]
 1983 0030 5A40     		eors	r2, r2, r3
 1984 0032 0A42     		tst	r2, r1
 1985 0034 09D0     		beq	.L179
 823:Middlewares/Third_Party/LwIP/src/core/ipv4/etharp.c **** #if LWIP_AUTOIP
 1986              		.loc 1 823 0 discriminator 1
 1987 0036 9BB2     		uxth	r3, r3
 822:Middlewares/Third_Party/LwIP/src/core/ipv4/etharp.c ****         !ip4_addr_islinklocal(ipaddr)) {
 1988              		.loc 1 822 0 discriminator 1
 1989 0038 4FF6A962 		movw	r2, #65193
 1990 003c 9342     		cmp	r3, r2
 1991 003e 04D0     		beq	.L179
 841:Middlewares/Third_Party/LwIP/src/core/ipv4/etharp.c ****             /* send to hardware address of default gateway IP address */
ARM GAS  C:\Users\Student\AppData\Local\Temp\ccULT5Xy.s 			page 60


 1992              		.loc 1 841 0
 1993 0040 EB68     		ldr	r3, [r5, #12]
 1994 0042 002B     		cmp	r3, #0
 1995 0044 74D0     		beq	.L185
 843:Middlewares/Third_Party/LwIP/src/core/ipv4/etharp.c ****           /* no default gateway available */
 1996              		.loc 1 843 0
 1997 0046 05F10C04 		add	r4, r5, #12
 1998              	.LVL239:
 1999              	.L179:
 858:Middlewares/Third_Party/LwIP/src/core/ipv4/etharp.c **** #if ETHARP_TABLE_MATCH_NETIF
 2000              		.loc 1 858 0
 2001 004a 3B4B     		ldr	r3, .L195
 2002 004c 1A78     		ldrb	r2, [r3]	@ zero_extendqisi2
 2003 004e 02EB4203 		add	r3, r2, r2, lsl #1
 2004 0052 D900     		lsls	r1, r3, #3
 2005 0054 394B     		ldr	r3, .L195+4
 2006 0056 0B44     		add	r3, r3, r1
 2007 0058 1B7D     		ldrb	r3, [r3, #20]	@ zero_extendqisi2
 2008 005a 012B     		cmp	r3, #1
 2009 005c 54D9     		bls	.L186
 862:Middlewares/Third_Party/LwIP/src/core/ipv4/etharp.c ****           /* the per-pcb-cached entry is stable and the right one! */
 2010              		.loc 1 862 0 discriminator 1
 2011 005e 2068     		ldr	r0, [r4]
 2012 0060 364B     		ldr	r3, .L195+4
 2013 0062 0B44     		add	r3, r3, r1
 2014 0064 5B68     		ldr	r3, [r3, #4]
 858:Middlewares/Third_Party/LwIP/src/core/ipv4/etharp.c **** #if ETHARP_TABLE_MATCH_NETIF
 2015              		.loc 1 858 0 discriminator 1
 2016 0066 9842     		cmp	r0, r3
 2017 0068 2FD0     		beq	.L193
 2018 006a 0022     		movs	r2, #0
 2019 006c 34E0     		b	.L181
 2020              	.LVL240:
 2021              	.L189:
 2022              	.LBE10:
 795:Middlewares/Third_Party/LwIP/src/core/ipv4/etharp.c ****   LWIP_ASSERT("q != NULL", q != NULL);
 2023              		.loc 1 795 0 discriminator 1
 2024 006e 344B     		ldr	r3, .L195+8
 2025 0070 40F21B32 		movw	r2, #795
 2026              	.LVL241:
 2027 0074 3349     		ldr	r1, .L195+12
 2028              	.LVL242:
 2029 0076 3448     		ldr	r0, .L195+16
 2030              	.LVL243:
 2031 0078 FFF7FEFF 		bl	printf
 2032              	.LVL244:
 2033 007c C7E7     		b	.L174
 2034              	.L190:
 796:Middlewares/Third_Party/LwIP/src/core/ipv4/etharp.c ****   LWIP_ASSERT("ipaddr != NULL", ipaddr != NULL);
 2035              		.loc 1 796 0 discriminator 1
 2036 007e 304B     		ldr	r3, .L195+8
 2037 0080 4FF44772 		mov	r2, #796
 2038 0084 3149     		ldr	r1, .L195+20
 2039 0086 3048     		ldr	r0, .L195+16
 2040 0088 FFF7FEFF 		bl	printf
 2041              	.LVL245:
 2042 008c C1E7     		b	.L175
ARM GAS  C:\Users\Student\AppData\Local\Temp\ccULT5Xy.s 			page 61


 2043              	.L191:
 797:Middlewares/Third_Party/LwIP/src/core/ipv4/etharp.c **** 
 2044              		.loc 1 797 0 discriminator 1
 2045 008e 2C4B     		ldr	r3, .L195+8
 2046 0090 40F21D32 		movw	r2, #797
 2047 0094 2E49     		ldr	r1, .L195+24
 2048 0096 2C48     		ldr	r0, .L195+16
 2049 0098 FFF7FEFF 		bl	printf
 2050              	.LVL246:
 2051 009c BBE7     		b	.L176
 2052              	.L192:
 809:Middlewares/Third_Party/LwIP/src/core/ipv4/etharp.c ****     mcastaddr.addr[1] = LL_IP4_MULTICAST_ADDR_1;
 2053              		.loc 1 809 0
 2054 009e 0123     		movs	r3, #1
 2055 00a0 8DF80830 		strb	r3, [sp, #8]
 810:Middlewares/Third_Party/LwIP/src/core/ipv4/etharp.c ****     mcastaddr.addr[2] = LL_IP4_MULTICAST_ADDR_2;
 2056              		.loc 1 810 0
 2057 00a4 0023     		movs	r3, #0
 2058 00a6 8DF80930 		strb	r3, [sp, #9]
 811:Middlewares/Third_Party/LwIP/src/core/ipv4/etharp.c ****     mcastaddr.addr[3] = ip4_addr2(ipaddr) & 0x7f;
 2059              		.loc 1 811 0
 2060 00aa 5E23     		movs	r3, #94
 2061 00ac 8DF80A30 		strb	r3, [sp, #10]
 812:Middlewares/Third_Party/LwIP/src/core/ipv4/etharp.c ****     mcastaddr.addr[4] = ip4_addr3(ipaddr);
 2062              		.loc 1 812 0
 2063 00b0 6378     		ldrb	r3, [r4, #1]	@ zero_extendqisi2
 2064 00b2 03F07F03 		and	r3, r3, #127
 2065 00b6 8DF80B30 		strb	r3, [sp, #11]
 813:Middlewares/Third_Party/LwIP/src/core/ipv4/etharp.c ****     mcastaddr.addr[5] = ip4_addr4(ipaddr);
 2066              		.loc 1 813 0
 2067 00ba A378     		ldrb	r3, [r4, #2]	@ zero_extendqisi2
 2068 00bc 8DF80C30 		strb	r3, [sp, #12]
 814:Middlewares/Third_Party/LwIP/src/core/ipv4/etharp.c ****     /* destination Ethernet address is multicast */
 2069              		.loc 1 814 0
 2070 00c0 E378     		ldrb	r3, [r4, #3]	@ zero_extendqisi2
 2071 00c2 8DF80D30 		strb	r3, [sp, #13]
 2072              	.LVL247:
 816:Middlewares/Third_Party/LwIP/src/core/ipv4/etharp.c ****   /* unicast destination IP address? */
 2073              		.loc 1 816 0
 2074 00c6 02AB     		add	r3, sp, #8
 2075              	.LVL248:
 2076 00c8 27E0     		b	.L177
 2077              	.LVL249:
 2078              	.L193:
 2079              	.LBB11:
 865:Middlewares/Third_Party/LwIP/src/core/ipv4/etharp.c ****         }
 2080              		.loc 1 865 0
 2081 00ca 3146     		mov	r1, r6
 2082 00cc 2846     		mov	r0, r5
 2083 00ce FFF7FEFF 		bl	etharp_output_to_arp_index
 2084              	.LVL250:
 2085 00d2 2BE0     		b	.L180
 2086              	.LVL251:
 2087              	.L182:
 874:Middlewares/Third_Party/LwIP/src/core/ipv4/etharp.c ****       if ((arp_table[i].state >= ETHARP_STATE_STABLE) &&
 2088              		.loc 1 874 0 discriminator 2
 2089 00d4 0132     		adds	r2, r2, #1
ARM GAS  C:\Users\Student\AppData\Local\Temp\ccULT5Xy.s 			page 62


 2090              	.LVL252:
 2091 00d6 52B2     		sxtb	r2, r2
 2092              	.LVL253:
 2093              	.L181:
 874:Middlewares/Third_Party/LwIP/src/core/ipv4/etharp.c ****       if ((arp_table[i].state >= ETHARP_STATE_STABLE) &&
 2094              		.loc 1 874 0 is_stmt 0 discriminator 1
 2095 00d8 092A     		cmp	r2, #9
 2096 00da 17DC     		bgt	.L194
 875:Middlewares/Third_Party/LwIP/src/core/ipv4/etharp.c **** #if ETHARP_TABLE_MATCH_NETIF
 2097              		.loc 1 875 0 is_stmt 1
 2098 00dc 02EB4203 		add	r3, r2, r2, lsl #1
 2099 00e0 D900     		lsls	r1, r3, #3
 2100 00e2 164B     		ldr	r3, .L195+4
 2101 00e4 0B44     		add	r3, r3, r1
 2102 00e6 1B7D     		ldrb	r3, [r3, #20]	@ zero_extendqisi2
 2103 00e8 012B     		cmp	r3, #1
 2104 00ea F3D9     		bls	.L182
 879:Middlewares/Third_Party/LwIP/src/core/ipv4/etharp.c ****         /* found an existing, stable entry */
 2105              		.loc 1 879 0 discriminator 1
 2106 00ec 2068     		ldr	r0, [r4]
 2107 00ee 134B     		ldr	r3, .L195+4
 2108 00f0 0B44     		add	r3, r3, r1
 2109 00f2 5B68     		ldr	r3, [r3, #4]
 875:Middlewares/Third_Party/LwIP/src/core/ipv4/etharp.c **** #if ETHARP_TABLE_MATCH_NETIF
 2110              		.loc 1 875 0 discriminator 1
 2111 00f4 9842     		cmp	r0, r3
 2112 00f6 EDD1     		bne	.L182
 881:Middlewares/Third_Party/LwIP/src/core/ipv4/etharp.c ****         return etharp_output_to_arp_index(netif, q, i);
 2113              		.loc 1 881 0
 2114 00f8 D2B2     		uxtb	r2, r2
 2115 00fa 0F4B     		ldr	r3, .L195
 2116 00fc 1A70     		strb	r2, [r3]
 882:Middlewares/Third_Party/LwIP/src/core/ipv4/etharp.c ****       }
 2117              		.loc 1 882 0
 2118 00fe 3146     		mov	r1, r6
 2119 0100 2846     		mov	r0, r5
 2120 0102 FFF7FEFF 		bl	etharp_output_to_arp_index
 2121              	.LVL254:
 2122 0106 11E0     		b	.L180
 2123              	.L186:
 2124 0108 0022     		movs	r2, #0
 2125 010a E5E7     		b	.L181
 2126              	.LVL255:
 2127              	.L194:
 887:Middlewares/Third_Party/LwIP/src/core/ipv4/etharp.c ****   }
 2128              		.loc 1 887 0
 2129 010c 3246     		mov	r2, r6
 2130              	.LVL256:
 2131 010e 2146     		mov	r1, r4
 2132 0110 2846     		mov	r0, r5
 2133 0112 FFF7FEFF 		bl	etharp_query
 2134              	.LVL257:
 2135 0116 09E0     		b	.L180
 2136              	.LVL258:
 2137              	.L184:
 2138              	.LBE11:
 805:Middlewares/Third_Party/LwIP/src/core/ipv4/etharp.c ****   /* multicast destination IP address? */
ARM GAS  C:\Users\Student\AppData\Local\Temp\ccULT5Xy.s 			page 63


 2139              		.loc 1 805 0
 2140 0118 0E4B     		ldr	r3, .L195+28
 2141              	.L177:
 2142              	.LVL259:
 893:Middlewares/Third_Party/LwIP/src/core/ipv4/etharp.c **** }
 2143              		.loc 1 893 0
 2144 011a 4FF40062 		mov	r2, #2048
 2145 011e 0092     		str	r2, [sp]
 2146 0120 05F12902 		add	r2, r5, #41
 2147 0124 3146     		mov	r1, r6
 2148 0126 2846     		mov	r0, r5
 2149 0128 FFF7FEFF 		bl	ethernet_output
 2150              	.LVL260:
 2151              	.L180:
 894:Middlewares/Third_Party/LwIP/src/core/ipv4/etharp.c **** 
 2152              		.loc 1 894 0
 2153 012c 04B0     		add	sp, sp, #16
 2154              	.LCFI32:
 2155              		.cfi_remember_state
 2156              		.cfi_def_cfa_offset 16
 2157              		@ sp needed
 2158 012e 70BD     		pop	{r4, r5, r6, pc}
 2159              	.LVL261:
 2160              	.L185:
 2161              	.LCFI33:
 2162              		.cfi_restore_state
 2163              	.LBB12:
 847:Middlewares/Third_Party/LwIP/src/core/ipv4/etharp.c ****           }
 2164              		.loc 1 847 0
 2165 0130 6FF00300 		mvn	r0, #3
 2166 0134 FAE7     		b	.L180
 2167              	.L196:
 2168 0136 00BF     		.align	2
 2169              	.L195:
 2170 0138 00000000 		.word	.LANCHOR1
 2171 013c 00000000 		.word	.LANCHOR0
 2172 0140 00000000 		.word	.LC0
 2173 0144 00000000 		.word	.LC6
 2174 0148 4C000000 		.word	.LC2
 2175 014c 28000000 		.word	.LC14
 2176 0150 00000000 		.word	.LC10
 2177 0154 00000000 		.word	ethbroadcast
 2178              	.LBE12:
 2179              		.cfi_endproc
 2180              	.LFE161:
 2182              		.section	.bss.arp_table,"aw",%nobits
 2183              		.align	2
 2184              		.set	.LANCHOR0,. + 0
 2187              	arp_table:
 2188 0000 00000000 		.space	240
 2188      00000000 
 2188      00000000 
 2188      00000000 
 2188      00000000 
 2189              		.section	.bss.etharp_cached_entry,"aw",%nobits
 2190              		.set	.LANCHOR1,. + 0
 2193              	etharp_cached_entry:
ARM GAS  C:\Users\Student\AppData\Local\Temp\ccULT5Xy.s 			page 64


 2194 0000 00       		.space	1
 2195              		.section	.rodata.etharp_find_addr.str1.4,"aMS",%progbits,1
 2196              		.align	2
 2197              	.LC9:
 2198 0000 6574685F 		.ascii	"eth_ret != NULL && ip_ret != NULL\000"
 2198      72657420 
 2198      213D204E 
 2198      554C4C20 
 2198      26262069 
 2199              		.section	.rodata.etharp_find_entry.str1.4,"aMS",%progbits,1
 2200              		.align	2
 2201              	.LC0:
 2202 0000 4D696464 		.ascii	"Middlewares/Third_Party/LwIP/src/core/ipv4/etharp.c"
 2202      6C657761 
 2202      7265732F 
 2202      54686972 
 2202      645F5061 
 2203 0033 00       		.ascii	"\000"
 2204              	.LC1:
 2205 0034 6172705F 		.ascii	"arp_table[i].q == NULL\000"
 2205      7461626C 
 2205      655B695D 
 2205      2E71203D 
 2205      3D204E55 
 2206 004b 00       		.space	1
 2207              	.LC2:
 2208 004c 41737365 		.ascii	"Assertion \"%s\" failed at line %d in %s\012\000"
 2208      7274696F 
 2208      6E202225 
 2208      73222066 
 2208      61696C65 
 2209              	.LC3:
 2210 0074 69203C20 		.ascii	"i < ARP_TABLE_SIZE\000"
 2210      4152505F 
 2210      5441424C 
 2210      455F5349 
 2210      5A4500
 2211 0087 00       		.space	1
 2212              	.LC4:
 2213 0088 6172705F 		.ascii	"arp_table[i].state == ETHARP_STATE_EMPTY\000"
 2213      7461626C 
 2213      655B695D 
 2213      2E737461 
 2213      7465203D 
 2214              		.section	.rodata.etharp_get_entry.str1.4,"aMS",%progbits,1
 2215              		.align	2
 2216              	.LC10:
 2217 0000 69706164 		.ascii	"ipaddr != NULL\000"
 2217      64722021 
 2217      3D204E55 
 2217      4C4C00
 2218 000f 00       		.space	1
 2219              	.LC11:
 2220 0010 6574685F 		.ascii	"eth_ret != NULL\000"
 2220      72657420 
 2220      213D204E 
 2220      554C4C00 
ARM GAS  C:\Users\Student\AppData\Local\Temp\ccULT5Xy.s 			page 65


 2221              		.section	.rodata.etharp_output_to_arp_index.str1.4,"aMS",%progbits,1
 2222              		.align	2
 2223              	.LC12:
 2224 0000 6172705F 		.ascii	"arp_table[arp_idx].state >= ETHARP_STATE_STABLE\000"
 2224      7461626C 
 2224      655B6172 
 2224      705F6964 
 2224      785D2E73 
 2225              		.section	.rodata.etharp_query.str1.4,"aMS",%progbits,1
 2226              		.align	2
 2227              	.LC13:
 2228 0000 6172705F 		.ascii	"arp_table[i].state == PENDING or STABLE\000"
 2228      7461626C 
 2228      655B695D 
 2228      2E737461 
 2228      7465203D 
 2229              	.LC14:
 2230 0028 7120213D 		.ascii	"q != NULL\000"
 2230      204E554C 
 2230      4C00
 2231 0032 0000     		.space	2
 2232              	.LC15:
 2233 0034 6E6F2070 		.ascii	"no packet queues allowed!\000"
 2233      61636B65 
 2233      74207175 
 2233      65756573 
 2233      20616C6C 
 2234              		.section	.rodata.etharp_raw.str1.4,"aMS",%progbits,1
 2235              		.align	2
 2236              	.LC6:
 2237 0000 6E657469 		.ascii	"netif != NULL\000"
 2237      6620213D 
 2237      204E554C 
 2237      4C00
 2238 000e 0000     		.space	2
 2239              	.LC7:
 2240 0010 63686563 		.ascii	"check that first pbuf can hold struct etharp_hdr\000"
 2240      6B207468 
 2240      61742066 
 2240      69727374 
 2240      20706275 
 2241 0041 000000   		.space	3
 2242              	.LC8:
 2243 0044 6E657469 		.ascii	"netif->hwaddr_len must be the same as ETH_HWADDR_LE"
 2243      662D3E68 
 2243      77616464 
 2243      725F6C65 
 2243      6E206D75 
 2244 0077 4E20666F 		.ascii	"N for etharp!\000"
 2244      72206574 
 2244      68617270 
 2244      2100
 2245              		.section	.rodata.etharp_update_arp_entry.str1.4,"aMS",%progbits,1
 2246              		.align	2
 2247              	.LC5:
 2248 0000 6E657469 		.ascii	"netif->hwaddr_len == ETH_HWADDR_LEN\000"
 2248      662D3E68 
ARM GAS  C:\Users\Student\AppData\Local\Temp\ccULT5Xy.s 			page 66


 2248      77616464 
 2248      725F6C65 
 2248      6E203D3D 
 2249              		.text
 2250              	.Letext0:
 2251              		.file 2 "c:\\gcc_toolchain\\6_2017-q1-update\\arm-none-eabi\\include\\machine\\_default_types.h"
 2252              		.file 3 "c:\\gcc_toolchain\\6_2017-q1-update\\arm-none-eabi\\include\\sys\\_stdint.h"
 2253              		.file 4 "Drivers/CMSIS/Include/core_cm7.h"
 2254              		.file 5 "Drivers/CMSIS/Device/ST/STM32F7xx/Include/system_stm32f7xx.h"
 2255              		.file 6 "c:\\gcc_toolchain\\6_2017-q1-update\\arm-none-eabi\\include\\sys\\lock.h"
 2256              		.file 7 "c:\\gcc_toolchain\\6_2017-q1-update\\arm-none-eabi\\include\\sys\\_types.h"
 2257              		.file 8 "c:\\gcc_toolchain\\6_2017-q1-update\\lib\\gcc\\arm-none-eabi\\6.3.1\\include\\stddef.h"
 2258              		.file 9 "c:\\gcc_toolchain\\6_2017-q1-update\\arm-none-eabi\\include\\sys\\reent.h"
 2259              		.file 10 "c:\\gcc_toolchain\\6_2017-q1-update\\arm-none-eabi\\include\\stdlib.h"
 2260              		.file 11 "c:\\gcc_toolchain\\6_2017-q1-update\\arm-none-eabi\\include\\time.h"
 2261              		.file 12 "Middlewares/Third_Party/LwIP/src/include/lwip/arch.h"
 2262              		.file 13 "Middlewares/Third_Party/LwIP/src/include/lwip/err.h"
 2263              		.file 14 "Middlewares/Third_Party/LwIP/src/include/lwip/pbuf.h"
 2264              		.file 15 "Middlewares/Third_Party/LwIP/src/include/lwip/ip4_addr.h"
 2265              		.file 16 "Middlewares/Third_Party/LwIP/src/include/lwip/ip_addr.h"
 2266              		.file 17 "Middlewares/Third_Party/LwIP/src/include/lwip/memp.h"
 2267              		.file 18 "Middlewares/Third_Party/LwIP/src/include/lwip/priv/memp_priv.h"
 2268              		.file 19 "Middlewares/Third_Party/LwIP/src/include/lwip/netif.h"
 2269              		.file 20 "Middlewares/Third_Party/LwIP/src/include/lwip/prot/ip4.h"
 2270              		.file 21 "Middlewares/Third_Party/LwIP/src/include/lwip/prot/ethernet.h"
 2271              		.file 22 "Middlewares/Third_Party/LwIP/src/include/lwip/prot/etharp.h"
 2272              		.file 23 "Middlewares/Third_Party/LwIP/src/include/lwip/ip.h"
 2273              		.file 24 "Middlewares/Third_Party/LwIP/src/include/lwip/udp.h"
 2274              		.file 25 "Middlewares/Third_Party/LwIP/src/include/netif/ethernet.h"
 2275              		.file 26 "Middlewares/Third_Party/LwIP/src/include/lwip/def.h"
 2276              		.file 27 "c:\\gcc_toolchain\\6_2017-q1-update\\arm-none-eabi\\include\\stdio.h"
 2277              		.file 28 "Middlewares/Third_Party/LwIP/src/include/lwip/dhcp.h"
ARM GAS  C:\Users\Student\AppData\Local\Temp\ccULT5Xy.s 			page 67

