ARM GAS  C:\Users\Patryk\AppData\Local\Temp\ccHRD7E4.s 			page 1


   1              		.cpu cortex-m7
   2              		.eabi_attribute 27, 1
   3              		.eabi_attribute 28, 1
   4              		.eabi_attribute 20, 1
   5              		.eabi_attribute 21, 1
   6              		.eabi_attribute 23, 3
   7              		.eabi_attribute 24, 1
   8              		.eabi_attribute 25, 1
   9              		.eabi_attribute 26, 1
  10              		.eabi_attribute 30, 1
  11              		.eabi_attribute 34, 1
  12              		.eabi_attribute 18, 4
  13              		.file	"ft5336.c"
  14              		.text
  15              	.Ltext0:
  16              		.cfi_sections	.debug_frame
  17              		.section	.text.ft5336_Reset,"ax",%progbits
  18              		.align	1
  19              		.global	ft5336_Reset
  20              		.syntax unified
  21              		.thumb
  22              		.thumb_func
  23              		.fpu fpv5-sp-d16
  25              	ft5336_Reset:
  26              	.LFB1:
  27              		.file 1 "Drivers/BSP/Components/ft5336/ft5336.c"
   1:Drivers/BSP/Components/ft5336/ft5336.c **** /**
   2:Drivers/BSP/Components/ft5336/ft5336.c ****   ******************************************************************************
   3:Drivers/BSP/Components/ft5336/ft5336.c ****   * @file    ft5336.c
   4:Drivers/BSP/Components/ft5336/ft5336.c ****   * @author  MCD Application Team
   5:Drivers/BSP/Components/ft5336/ft5336.c ****   * @brief   This file provides a set of functions needed to manage the FT5336
   6:Drivers/BSP/Components/ft5336/ft5336.c ****   *          touch screen devices.
   7:Drivers/BSP/Components/ft5336/ft5336.c ****   ******************************************************************************
   8:Drivers/BSP/Components/ft5336/ft5336.c ****   * @attention
   9:Drivers/BSP/Components/ft5336/ft5336.c ****   *
  10:Drivers/BSP/Components/ft5336/ft5336.c ****   * <h2><center>&copy; COPYRIGHT(c) 2015 STMicroelectronics</center></h2>
  11:Drivers/BSP/Components/ft5336/ft5336.c ****   *
  12:Drivers/BSP/Components/ft5336/ft5336.c ****   * Redistribution and use in source and binary forms, with or without modification,
  13:Drivers/BSP/Components/ft5336/ft5336.c ****   * are permitted provided that the following conditions are met:
  14:Drivers/BSP/Components/ft5336/ft5336.c ****   *   1. Redistributions of source code must retain the above copyright notice,
  15:Drivers/BSP/Components/ft5336/ft5336.c ****   *      this list of conditions and the following disclaimer.
  16:Drivers/BSP/Components/ft5336/ft5336.c ****   *   2. Redistributions in binary form must reproduce the above copyright notice,
  17:Drivers/BSP/Components/ft5336/ft5336.c ****   *      this list of conditions and the following disclaimer in the documentation
  18:Drivers/BSP/Components/ft5336/ft5336.c ****   *      and/or other materials provided with the distribution.
  19:Drivers/BSP/Components/ft5336/ft5336.c ****   *   3. Neither the name of STMicroelectronics nor the names of its contributors
  20:Drivers/BSP/Components/ft5336/ft5336.c ****   *      may be used to endorse or promote products derived from this software
  21:Drivers/BSP/Components/ft5336/ft5336.c ****   *      without specific prior written permission.
  22:Drivers/BSP/Components/ft5336/ft5336.c ****   *
  23:Drivers/BSP/Components/ft5336/ft5336.c ****   * THIS SOFTWARE IS PROVIDED BY THE COPYRIGHT HOLDERS AND CONTRIBUTORS "AS IS"
  24:Drivers/BSP/Components/ft5336/ft5336.c ****   * AND ANY EXPRESS OR IMPLIED WARRANTIES, INCLUDING, BUT NOT LIMITED TO, THE
  25:Drivers/BSP/Components/ft5336/ft5336.c ****   * IMPLIED WARRANTIES OF MERCHANTABILITY AND FITNESS FOR A PARTICULAR PURPOSE ARE
  26:Drivers/BSP/Components/ft5336/ft5336.c ****   * DISCLAIMED. IN NO EVENT SHALL THE COPYRIGHT HOLDER OR CONTRIBUTORS BE LIABLE
  27:Drivers/BSP/Components/ft5336/ft5336.c ****   * FOR ANY DIRECT, INDIRECT, INCIDENTAL, SPECIAL, EXEMPLARY, OR CONSEQUENTIAL
  28:Drivers/BSP/Components/ft5336/ft5336.c ****   * DAMAGES (INCLUDING, BUT NOT LIMITED TO, PROCUREMENT OF SUBSTITUTE GOODS OR
  29:Drivers/BSP/Components/ft5336/ft5336.c ****   * SERVICES; LOSS OF USE, DATA, OR PROFITS; OR BUSINESS INTERRUPTION) HOWEVER
  30:Drivers/BSP/Components/ft5336/ft5336.c ****   * CAUSED AND ON ANY THEORY OF LIABILITY, WHETHER IN CONTRACT, STRICT LIABILITY,
  31:Drivers/BSP/Components/ft5336/ft5336.c ****   * OR TORT (INCLUDING NEGLIGENCE OR OTHERWISE) ARISING IN ANY WAY OUT OF THE USE
ARM GAS  C:\Users\Patryk\AppData\Local\Temp\ccHRD7E4.s 			page 2


  32:Drivers/BSP/Components/ft5336/ft5336.c ****   * OF THIS SOFTWARE, EVEN IF ADVISED OF THE POSSIBILITY OF SUCH DAMAGE.
  33:Drivers/BSP/Components/ft5336/ft5336.c ****   *
  34:Drivers/BSP/Components/ft5336/ft5336.c ****   ******************************************************************************
  35:Drivers/BSP/Components/ft5336/ft5336.c ****   */
  36:Drivers/BSP/Components/ft5336/ft5336.c **** 
  37:Drivers/BSP/Components/ft5336/ft5336.c **** /* Includes ------------------------------------------------------------------*/
  38:Drivers/BSP/Components/ft5336/ft5336.c **** #include "ft5336.h"
  39:Drivers/BSP/Components/ft5336/ft5336.c **** 
  40:Drivers/BSP/Components/ft5336/ft5336.c **** /** @addtogroup BSP
  41:Drivers/BSP/Components/ft5336/ft5336.c ****   * @{
  42:Drivers/BSP/Components/ft5336/ft5336.c ****   */
  43:Drivers/BSP/Components/ft5336/ft5336.c **** 
  44:Drivers/BSP/Components/ft5336/ft5336.c **** /** @addtogroup Component
  45:Drivers/BSP/Components/ft5336/ft5336.c ****   * @{
  46:Drivers/BSP/Components/ft5336/ft5336.c ****   */
  47:Drivers/BSP/Components/ft5336/ft5336.c **** 
  48:Drivers/BSP/Components/ft5336/ft5336.c **** /** @defgroup FT5336
  49:Drivers/BSP/Components/ft5336/ft5336.c ****   * @{
  50:Drivers/BSP/Components/ft5336/ft5336.c ****   */
  51:Drivers/BSP/Components/ft5336/ft5336.c **** 
  52:Drivers/BSP/Components/ft5336/ft5336.c **** /* Private typedef -----------------------------------------------------------*/
  53:Drivers/BSP/Components/ft5336/ft5336.c **** 
  54:Drivers/BSP/Components/ft5336/ft5336.c **** /** @defgroup FT5336_Private_Types_Definitions
  55:Drivers/BSP/Components/ft5336/ft5336.c ****   * @{
  56:Drivers/BSP/Components/ft5336/ft5336.c ****   */
  57:Drivers/BSP/Components/ft5336/ft5336.c **** 
  58:Drivers/BSP/Components/ft5336/ft5336.c **** /* Private define ------------------------------------------------------------*/
  59:Drivers/BSP/Components/ft5336/ft5336.c **** 
  60:Drivers/BSP/Components/ft5336/ft5336.c **** /** @defgroup FT5336_Private_Defines
  61:Drivers/BSP/Components/ft5336/ft5336.c ****   * @{
  62:Drivers/BSP/Components/ft5336/ft5336.c ****   */
  63:Drivers/BSP/Components/ft5336/ft5336.c **** 
  64:Drivers/BSP/Components/ft5336/ft5336.c **** /* Private macro -------------------------------------------------------------*/
  65:Drivers/BSP/Components/ft5336/ft5336.c **** 
  66:Drivers/BSP/Components/ft5336/ft5336.c **** /** @defgroup FT5336_Private_Macros
  67:Drivers/BSP/Components/ft5336/ft5336.c ****   * @{
  68:Drivers/BSP/Components/ft5336/ft5336.c ****   */
  69:Drivers/BSP/Components/ft5336/ft5336.c **** 
  70:Drivers/BSP/Components/ft5336/ft5336.c **** /* Private variables ---------------------------------------------------------*/
  71:Drivers/BSP/Components/ft5336/ft5336.c **** 
  72:Drivers/BSP/Components/ft5336/ft5336.c **** /** @defgroup FT5336_Private_Variables
  73:Drivers/BSP/Components/ft5336/ft5336.c ****   * @{
  74:Drivers/BSP/Components/ft5336/ft5336.c ****   */
  75:Drivers/BSP/Components/ft5336/ft5336.c **** 
  76:Drivers/BSP/Components/ft5336/ft5336.c **** /* Touch screen driver structure initialization */
  77:Drivers/BSP/Components/ft5336/ft5336.c **** TS_DrvTypeDef ft5336_ts_drv =
  78:Drivers/BSP/Components/ft5336/ft5336.c **** {
  79:Drivers/BSP/Components/ft5336/ft5336.c ****   ft5336_Init,
  80:Drivers/BSP/Components/ft5336/ft5336.c ****   ft5336_ReadID,
  81:Drivers/BSP/Components/ft5336/ft5336.c ****   ft5336_Reset,
  82:Drivers/BSP/Components/ft5336/ft5336.c **** 
  83:Drivers/BSP/Components/ft5336/ft5336.c ****   ft5336_TS_Start,
  84:Drivers/BSP/Components/ft5336/ft5336.c ****   ft5336_TS_DetectTouch,
  85:Drivers/BSP/Components/ft5336/ft5336.c ****   ft5336_TS_GetXY,
  86:Drivers/BSP/Components/ft5336/ft5336.c **** 
  87:Drivers/BSP/Components/ft5336/ft5336.c ****   ft5336_TS_EnableIT,
  88:Drivers/BSP/Components/ft5336/ft5336.c ****   ft5336_TS_ClearIT,
ARM GAS  C:\Users\Patryk\AppData\Local\Temp\ccHRD7E4.s 			page 3


  89:Drivers/BSP/Components/ft5336/ft5336.c ****   ft5336_TS_ITStatus,
  90:Drivers/BSP/Components/ft5336/ft5336.c ****   ft5336_TS_DisableIT
  91:Drivers/BSP/Components/ft5336/ft5336.c **** 
  92:Drivers/BSP/Components/ft5336/ft5336.c **** };
  93:Drivers/BSP/Components/ft5336/ft5336.c **** 
  94:Drivers/BSP/Components/ft5336/ft5336.c **** /* Global ft5336 handle */
  95:Drivers/BSP/Components/ft5336/ft5336.c **** static ft5336_handle_TypeDef ft5336_handle = { FT5336_I2C_NOT_INITIALIZED, 0, 0};
  96:Drivers/BSP/Components/ft5336/ft5336.c **** 
  97:Drivers/BSP/Components/ft5336/ft5336.c **** /**
  98:Drivers/BSP/Components/ft5336/ft5336.c ****   * @}
  99:Drivers/BSP/Components/ft5336/ft5336.c ****   */
 100:Drivers/BSP/Components/ft5336/ft5336.c **** 
 101:Drivers/BSP/Components/ft5336/ft5336.c **** /** @defgroup ft5336_Private_Function_Prototypes
 102:Drivers/BSP/Components/ft5336/ft5336.c ****   * @{
 103:Drivers/BSP/Components/ft5336/ft5336.c ****   */
 104:Drivers/BSP/Components/ft5336/ft5336.c **** 
 105:Drivers/BSP/Components/ft5336/ft5336.c **** /* Private functions prototypes-----------------------------------------------*/
 106:Drivers/BSP/Components/ft5336/ft5336.c **** 
 107:Drivers/BSP/Components/ft5336/ft5336.c **** /**
 108:Drivers/BSP/Components/ft5336/ft5336.c ****   * @brief  Return the status of I2C was initialized or not.
 109:Drivers/BSP/Components/ft5336/ft5336.c ****   * @param  None.
 110:Drivers/BSP/Components/ft5336/ft5336.c ****   * @retval : I2C initialization status.
 111:Drivers/BSP/Components/ft5336/ft5336.c ****   */
 112:Drivers/BSP/Components/ft5336/ft5336.c **** static uint8_t ft5336_Get_I2C_InitializedStatus(void);
 113:Drivers/BSP/Components/ft5336/ft5336.c **** 
 114:Drivers/BSP/Components/ft5336/ft5336.c **** /**
 115:Drivers/BSP/Components/ft5336/ft5336.c ****   * @brief  I2C initialize if needed.
 116:Drivers/BSP/Components/ft5336/ft5336.c ****   * @param  None.
 117:Drivers/BSP/Components/ft5336/ft5336.c ****   * @retval : None.
 118:Drivers/BSP/Components/ft5336/ft5336.c ****   */
 119:Drivers/BSP/Components/ft5336/ft5336.c **** static void ft5336_I2C_InitializeIfRequired(void);
 120:Drivers/BSP/Components/ft5336/ft5336.c **** 
 121:Drivers/BSP/Components/ft5336/ft5336.c **** /**
 122:Drivers/BSP/Components/ft5336/ft5336.c ****   * @brief  Basic static configuration of TouchScreen
 123:Drivers/BSP/Components/ft5336/ft5336.c ****   * @param  DeviceAddr: FT5336 Device address for communication on I2C Bus.
 124:Drivers/BSP/Components/ft5336/ft5336.c ****   * @retval Status FT5336_STATUS_OK or FT5336_STATUS_NOT_OK.
 125:Drivers/BSP/Components/ft5336/ft5336.c ****   */
 126:Drivers/BSP/Components/ft5336/ft5336.c **** static uint32_t ft5336_TS_Configure(uint16_t DeviceAddr);
 127:Drivers/BSP/Components/ft5336/ft5336.c **** 
 128:Drivers/BSP/Components/ft5336/ft5336.c **** /** @defgroup ft5336_Private_Functions
 129:Drivers/BSP/Components/ft5336/ft5336.c ****   * @{
 130:Drivers/BSP/Components/ft5336/ft5336.c ****   */
 131:Drivers/BSP/Components/ft5336/ft5336.c **** 
 132:Drivers/BSP/Components/ft5336/ft5336.c **** /** @defgroup ft5336_Public_Function_Body
 133:Drivers/BSP/Components/ft5336/ft5336.c ****   * @{
 134:Drivers/BSP/Components/ft5336/ft5336.c ****   */
 135:Drivers/BSP/Components/ft5336/ft5336.c **** 
 136:Drivers/BSP/Components/ft5336/ft5336.c **** /* Public functions bodies-----------------------------------------------*/
 137:Drivers/BSP/Components/ft5336/ft5336.c **** 
 138:Drivers/BSP/Components/ft5336/ft5336.c **** 
 139:Drivers/BSP/Components/ft5336/ft5336.c **** /**
 140:Drivers/BSP/Components/ft5336/ft5336.c ****   * @brief  Initialize the ft5336 communication bus
 141:Drivers/BSP/Components/ft5336/ft5336.c ****   *         from MCU to FT5336 : ie I2C channel initialization (if required).
 142:Drivers/BSP/Components/ft5336/ft5336.c ****   * @param  DeviceAddr: Device address on communication Bus (I2C slave address of FT5336).
 143:Drivers/BSP/Components/ft5336/ft5336.c ****   * @retval None
 144:Drivers/BSP/Components/ft5336/ft5336.c ****   */
 145:Drivers/BSP/Components/ft5336/ft5336.c **** void ft5336_Init(uint16_t DeviceAddr)
ARM GAS  C:\Users\Patryk\AppData\Local\Temp\ccHRD7E4.s 			page 4


 146:Drivers/BSP/Components/ft5336/ft5336.c **** {
 147:Drivers/BSP/Components/ft5336/ft5336.c ****   /* Wait at least 200ms after power up before accessing registers
 148:Drivers/BSP/Components/ft5336/ft5336.c ****    * Trsi timing (Time of starting to report point after resetting) from FT5336GQQ datasheet */
 149:Drivers/BSP/Components/ft5336/ft5336.c ****   TS_IO_Delay(200);
 150:Drivers/BSP/Components/ft5336/ft5336.c **** 
 151:Drivers/BSP/Components/ft5336/ft5336.c ****   /* Initialize I2C link if needed */
 152:Drivers/BSP/Components/ft5336/ft5336.c ****   ft5336_I2C_InitializeIfRequired();
 153:Drivers/BSP/Components/ft5336/ft5336.c **** }
 154:Drivers/BSP/Components/ft5336/ft5336.c **** 
 155:Drivers/BSP/Components/ft5336/ft5336.c **** /**
 156:Drivers/BSP/Components/ft5336/ft5336.c ****   * @brief  Software Reset the ft5336.
 157:Drivers/BSP/Components/ft5336/ft5336.c ****   *         @note : Not applicable to FT5336.
 158:Drivers/BSP/Components/ft5336/ft5336.c ****   * @param  DeviceAddr: Device address on communication Bus (I2C slave address of FT5336).
 159:Drivers/BSP/Components/ft5336/ft5336.c ****   * @retval None
 160:Drivers/BSP/Components/ft5336/ft5336.c ****   */
 161:Drivers/BSP/Components/ft5336/ft5336.c **** void ft5336_Reset(uint16_t DeviceAddr)
 162:Drivers/BSP/Components/ft5336/ft5336.c **** {
  28              		.loc 1 162 0
  29              		.cfi_startproc
  30              		@ args = 0, pretend = 0, frame = 0
  31              		@ frame_needed = 0, uses_anonymous_args = 0
  32              		@ link register save eliminated.
  33              	.LVL0:
 163:Drivers/BSP/Components/ft5336/ft5336.c ****   /* Do nothing */
 164:Drivers/BSP/Components/ft5336/ft5336.c ****   /* No software reset sequence available in FT5336 IC */
 165:Drivers/BSP/Components/ft5336/ft5336.c **** }
  34              		.loc 1 165 0
  35 0000 7047     		bx	lr
  36              		.cfi_endproc
  37              	.LFE1:
  39              		.section	.text.ft5336_TS_ITStatus,"ax",%progbits
  40              		.align	1
  41              		.global	ft5336_TS_ITStatus
  42              		.syntax unified
  43              		.thumb
  44              		.thumb_func
  45              		.fpu fpv5-sp-d16
  47              	ft5336_TS_ITStatus:
  48              	.LFB8:
 166:Drivers/BSP/Components/ft5336/ft5336.c **** 
 167:Drivers/BSP/Components/ft5336/ft5336.c **** /**
 168:Drivers/BSP/Components/ft5336/ft5336.c ****   * @brief  Read the ft5336 device ID, pre initialize I2C in case of need to be
 169:Drivers/BSP/Components/ft5336/ft5336.c ****   *         able to read the FT5336 device ID, and verify this is a FT5336.
 170:Drivers/BSP/Components/ft5336/ft5336.c ****   * @param  DeviceAddr: I2C FT5336 Slave address.
 171:Drivers/BSP/Components/ft5336/ft5336.c ****   * @retval The Device ID (two bytes).
 172:Drivers/BSP/Components/ft5336/ft5336.c ****   */
 173:Drivers/BSP/Components/ft5336/ft5336.c **** uint16_t ft5336_ReadID(uint16_t DeviceAddr)
 174:Drivers/BSP/Components/ft5336/ft5336.c **** {
 175:Drivers/BSP/Components/ft5336/ft5336.c ****   volatile uint8_t ucReadId = 0;
 176:Drivers/BSP/Components/ft5336/ft5336.c ****   uint8_t nbReadAttempts = 0;
 177:Drivers/BSP/Components/ft5336/ft5336.c ****   uint8_t bFoundDevice = 0; /* Device not found by default */
 178:Drivers/BSP/Components/ft5336/ft5336.c **** 
 179:Drivers/BSP/Components/ft5336/ft5336.c ****   /* Initialize I2C link if needed */
 180:Drivers/BSP/Components/ft5336/ft5336.c ****   ft5336_I2C_InitializeIfRequired();
 181:Drivers/BSP/Components/ft5336/ft5336.c **** 
 182:Drivers/BSP/Components/ft5336/ft5336.c ****   /* At maximum 4 attempts to read ID : exit at first finding of the searched device ID */
 183:Drivers/BSP/Components/ft5336/ft5336.c ****   for(nbReadAttempts = 0; ((nbReadAttempts < 3) && !(bFoundDevice)); nbReadAttempts++)
ARM GAS  C:\Users\Patryk\AppData\Local\Temp\ccHRD7E4.s 			page 5


 184:Drivers/BSP/Components/ft5336/ft5336.c ****   {
 185:Drivers/BSP/Components/ft5336/ft5336.c ****     /* Read register FT5336_CHIP_ID_REG as DeviceID detection */
 186:Drivers/BSP/Components/ft5336/ft5336.c ****     ucReadId = TS_IO_Read(DeviceAddr, FT5336_CHIP_ID_REG);
 187:Drivers/BSP/Components/ft5336/ft5336.c **** 
 188:Drivers/BSP/Components/ft5336/ft5336.c ****     /* Found the searched device ID ? */
 189:Drivers/BSP/Components/ft5336/ft5336.c ****     if(ucReadId == FT5336_ID_VALUE)
 190:Drivers/BSP/Components/ft5336/ft5336.c ****     {
 191:Drivers/BSP/Components/ft5336/ft5336.c ****       /* Set device as found */
 192:Drivers/BSP/Components/ft5336/ft5336.c ****       bFoundDevice = 1;
 193:Drivers/BSP/Components/ft5336/ft5336.c ****     }
 194:Drivers/BSP/Components/ft5336/ft5336.c ****   }
 195:Drivers/BSP/Components/ft5336/ft5336.c **** 
 196:Drivers/BSP/Components/ft5336/ft5336.c ****   /* Return the device ID value */
 197:Drivers/BSP/Components/ft5336/ft5336.c ****   return (ucReadId);
 198:Drivers/BSP/Components/ft5336/ft5336.c **** }
 199:Drivers/BSP/Components/ft5336/ft5336.c **** 
 200:Drivers/BSP/Components/ft5336/ft5336.c **** /**
 201:Drivers/BSP/Components/ft5336/ft5336.c ****   * @brief  Configures the touch Screen IC device to start detecting touches
 202:Drivers/BSP/Components/ft5336/ft5336.c ****   * @param  DeviceAddr: Device address on communication Bus (I2C slave address).
 203:Drivers/BSP/Components/ft5336/ft5336.c ****   * @retval None.
 204:Drivers/BSP/Components/ft5336/ft5336.c ****   */
 205:Drivers/BSP/Components/ft5336/ft5336.c **** void ft5336_TS_Start(uint16_t DeviceAddr)
 206:Drivers/BSP/Components/ft5336/ft5336.c **** {
 207:Drivers/BSP/Components/ft5336/ft5336.c ****   /* Minimum static configuration of FT5336 */
 208:Drivers/BSP/Components/ft5336/ft5336.c ****   FT5336_ASSERT(ft5336_TS_Configure(DeviceAddr));
 209:Drivers/BSP/Components/ft5336/ft5336.c **** 
 210:Drivers/BSP/Components/ft5336/ft5336.c ****   /* By default set FT5336 IC in Polling mode : no INT generation on FT5336 for new touch available
 211:Drivers/BSP/Components/ft5336/ft5336.c ****   /* Note TS_INT is active low                                                                     
 212:Drivers/BSP/Components/ft5336/ft5336.c ****   ft5336_TS_DisableIT(DeviceAddr);
 213:Drivers/BSP/Components/ft5336/ft5336.c **** }
 214:Drivers/BSP/Components/ft5336/ft5336.c **** 
 215:Drivers/BSP/Components/ft5336/ft5336.c **** /**
 216:Drivers/BSP/Components/ft5336/ft5336.c ****   * @brief  Return if there is touches detected or not.
 217:Drivers/BSP/Components/ft5336/ft5336.c ****   *         Try to detect new touches and forget the old ones (reset internal global
 218:Drivers/BSP/Components/ft5336/ft5336.c ****   *         variables).
 219:Drivers/BSP/Components/ft5336/ft5336.c ****   * @param  DeviceAddr: Device address on communication Bus.
 220:Drivers/BSP/Components/ft5336/ft5336.c ****   * @retval : Number of active touches detected (can be 0, 1 or 2).
 221:Drivers/BSP/Components/ft5336/ft5336.c ****   */
 222:Drivers/BSP/Components/ft5336/ft5336.c **** uint8_t ft5336_TS_DetectTouch(uint16_t DeviceAddr)
 223:Drivers/BSP/Components/ft5336/ft5336.c **** {
 224:Drivers/BSP/Components/ft5336/ft5336.c ****   volatile uint8_t nbTouch = 0;
 225:Drivers/BSP/Components/ft5336/ft5336.c **** 
 226:Drivers/BSP/Components/ft5336/ft5336.c ****   /* Read register FT5336_TD_STAT_REG to check number of touches detection */
 227:Drivers/BSP/Components/ft5336/ft5336.c ****   nbTouch = TS_IO_Read(DeviceAddr, FT5336_TD_STAT_REG);
 228:Drivers/BSP/Components/ft5336/ft5336.c ****   nbTouch &= FT5336_TD_STAT_MASK;
 229:Drivers/BSP/Components/ft5336/ft5336.c **** 
 230:Drivers/BSP/Components/ft5336/ft5336.c ****   if(nbTouch > FT5336_MAX_DETECTABLE_TOUCH)
 231:Drivers/BSP/Components/ft5336/ft5336.c ****   {
 232:Drivers/BSP/Components/ft5336/ft5336.c ****     /* If invalid number of touch detected, set it to zero */
 233:Drivers/BSP/Components/ft5336/ft5336.c ****     nbTouch = 0;
 234:Drivers/BSP/Components/ft5336/ft5336.c ****   }
 235:Drivers/BSP/Components/ft5336/ft5336.c **** 
 236:Drivers/BSP/Components/ft5336/ft5336.c ****   /* Update ft5336 driver internal global : current number of active touches */
 237:Drivers/BSP/Components/ft5336/ft5336.c ****   ft5336_handle.currActiveTouchNb = nbTouch;
 238:Drivers/BSP/Components/ft5336/ft5336.c **** 
 239:Drivers/BSP/Components/ft5336/ft5336.c ****   /* Reset current active touch index on which to work on */
 240:Drivers/BSP/Components/ft5336/ft5336.c ****   ft5336_handle.currActiveTouchIdx = 0;
ARM GAS  C:\Users\Patryk\AppData\Local\Temp\ccHRD7E4.s 			page 6


 241:Drivers/BSP/Components/ft5336/ft5336.c **** 
 242:Drivers/BSP/Components/ft5336/ft5336.c ****   return(nbTouch);
 243:Drivers/BSP/Components/ft5336/ft5336.c **** }
 244:Drivers/BSP/Components/ft5336/ft5336.c **** 
 245:Drivers/BSP/Components/ft5336/ft5336.c **** /**
 246:Drivers/BSP/Components/ft5336/ft5336.c ****   * @brief  Get the touch screen X and Y positions values
 247:Drivers/BSP/Components/ft5336/ft5336.c ****   *         Manage multi touch thanks to touch Index global
 248:Drivers/BSP/Components/ft5336/ft5336.c ****   *         variable 'ft5336_handle.currActiveTouchIdx'.
 249:Drivers/BSP/Components/ft5336/ft5336.c ****   * @param  DeviceAddr: Device address on communication Bus.
 250:Drivers/BSP/Components/ft5336/ft5336.c ****   * @param  X: Pointer to X position value
 251:Drivers/BSP/Components/ft5336/ft5336.c ****   * @param  Y: Pointer to Y position value
 252:Drivers/BSP/Components/ft5336/ft5336.c ****   * @retval None.
 253:Drivers/BSP/Components/ft5336/ft5336.c ****   */
 254:Drivers/BSP/Components/ft5336/ft5336.c **** void ft5336_TS_GetXY(uint16_t DeviceAddr, uint16_t *X, uint16_t *Y)
 255:Drivers/BSP/Components/ft5336/ft5336.c **** {
 256:Drivers/BSP/Components/ft5336/ft5336.c ****   volatile uint8_t ucReadData = 0;
 257:Drivers/BSP/Components/ft5336/ft5336.c ****   static uint16_t coord;
 258:Drivers/BSP/Components/ft5336/ft5336.c ****   uint8_t regAddressXLow = 0;
 259:Drivers/BSP/Components/ft5336/ft5336.c ****   uint8_t regAddressXHigh = 0;
 260:Drivers/BSP/Components/ft5336/ft5336.c ****   uint8_t regAddressYLow = 0;
 261:Drivers/BSP/Components/ft5336/ft5336.c ****   uint8_t regAddressYHigh = 0;
 262:Drivers/BSP/Components/ft5336/ft5336.c **** 
 263:Drivers/BSP/Components/ft5336/ft5336.c ****   if(ft5336_handle.currActiveTouchIdx < ft5336_handle.currActiveTouchNb)
 264:Drivers/BSP/Components/ft5336/ft5336.c ****   {
 265:Drivers/BSP/Components/ft5336/ft5336.c ****     switch(ft5336_handle.currActiveTouchIdx)
 266:Drivers/BSP/Components/ft5336/ft5336.c ****     {
 267:Drivers/BSP/Components/ft5336/ft5336.c ****     case 0 :
 268:Drivers/BSP/Components/ft5336/ft5336.c ****       regAddressXLow  = FT5336_P1_XL_REG;
 269:Drivers/BSP/Components/ft5336/ft5336.c ****       regAddressXHigh = FT5336_P1_XH_REG;
 270:Drivers/BSP/Components/ft5336/ft5336.c ****       regAddressYLow  = FT5336_P1_YL_REG;
 271:Drivers/BSP/Components/ft5336/ft5336.c ****       regAddressYHigh = FT5336_P1_YH_REG;
 272:Drivers/BSP/Components/ft5336/ft5336.c ****       break;
 273:Drivers/BSP/Components/ft5336/ft5336.c **** 
 274:Drivers/BSP/Components/ft5336/ft5336.c ****     case 1 :
 275:Drivers/BSP/Components/ft5336/ft5336.c ****       regAddressXLow  = FT5336_P2_XL_REG;
 276:Drivers/BSP/Components/ft5336/ft5336.c ****       regAddressXHigh = FT5336_P2_XH_REG;
 277:Drivers/BSP/Components/ft5336/ft5336.c ****       regAddressYLow  = FT5336_P2_YL_REG;
 278:Drivers/BSP/Components/ft5336/ft5336.c ****       regAddressYHigh = FT5336_P2_YH_REG;
 279:Drivers/BSP/Components/ft5336/ft5336.c ****       break;
 280:Drivers/BSP/Components/ft5336/ft5336.c **** 
 281:Drivers/BSP/Components/ft5336/ft5336.c ****     case 2 :
 282:Drivers/BSP/Components/ft5336/ft5336.c ****       regAddressXLow  = FT5336_P3_XL_REG;
 283:Drivers/BSP/Components/ft5336/ft5336.c ****       regAddressXHigh = FT5336_P3_XH_REG;
 284:Drivers/BSP/Components/ft5336/ft5336.c ****       regAddressYLow  = FT5336_P3_YL_REG;
 285:Drivers/BSP/Components/ft5336/ft5336.c ****       regAddressYHigh = FT5336_P3_YH_REG;
 286:Drivers/BSP/Components/ft5336/ft5336.c ****       break;
 287:Drivers/BSP/Components/ft5336/ft5336.c **** 
 288:Drivers/BSP/Components/ft5336/ft5336.c ****     case 3 :
 289:Drivers/BSP/Components/ft5336/ft5336.c ****       regAddressXLow  = FT5336_P4_XL_REG;
 290:Drivers/BSP/Components/ft5336/ft5336.c ****       regAddressXHigh = FT5336_P4_XH_REG;
 291:Drivers/BSP/Components/ft5336/ft5336.c ****       regAddressYLow  = FT5336_P4_YL_REG;
 292:Drivers/BSP/Components/ft5336/ft5336.c ****       regAddressYHigh = FT5336_P4_YH_REG;
 293:Drivers/BSP/Components/ft5336/ft5336.c ****       break;
 294:Drivers/BSP/Components/ft5336/ft5336.c **** 
 295:Drivers/BSP/Components/ft5336/ft5336.c ****     case 4 :
 296:Drivers/BSP/Components/ft5336/ft5336.c ****       regAddressXLow  = FT5336_P5_XL_REG;
 297:Drivers/BSP/Components/ft5336/ft5336.c ****       regAddressXHigh = FT5336_P5_XH_REG;
ARM GAS  C:\Users\Patryk\AppData\Local\Temp\ccHRD7E4.s 			page 7


 298:Drivers/BSP/Components/ft5336/ft5336.c ****       regAddressYLow  = FT5336_P5_YL_REG;
 299:Drivers/BSP/Components/ft5336/ft5336.c ****       regAddressYHigh = FT5336_P5_YH_REG;
 300:Drivers/BSP/Components/ft5336/ft5336.c ****       break;
 301:Drivers/BSP/Components/ft5336/ft5336.c **** 
 302:Drivers/BSP/Components/ft5336/ft5336.c ****     case 5 :
 303:Drivers/BSP/Components/ft5336/ft5336.c ****       regAddressXLow  = FT5336_P6_XL_REG;
 304:Drivers/BSP/Components/ft5336/ft5336.c ****       regAddressXHigh = FT5336_P6_XH_REG;
 305:Drivers/BSP/Components/ft5336/ft5336.c ****       regAddressYLow  = FT5336_P6_YL_REG;
 306:Drivers/BSP/Components/ft5336/ft5336.c ****       regAddressYHigh = FT5336_P6_YH_REG;
 307:Drivers/BSP/Components/ft5336/ft5336.c ****       break;
 308:Drivers/BSP/Components/ft5336/ft5336.c **** 
 309:Drivers/BSP/Components/ft5336/ft5336.c ****     case 6 :
 310:Drivers/BSP/Components/ft5336/ft5336.c ****       regAddressXLow  = FT5336_P7_XL_REG;
 311:Drivers/BSP/Components/ft5336/ft5336.c ****       regAddressXHigh = FT5336_P7_XH_REG;
 312:Drivers/BSP/Components/ft5336/ft5336.c ****       regAddressYLow  = FT5336_P7_YL_REG;
 313:Drivers/BSP/Components/ft5336/ft5336.c ****       regAddressYHigh = FT5336_P7_YH_REG;
 314:Drivers/BSP/Components/ft5336/ft5336.c ****       break;
 315:Drivers/BSP/Components/ft5336/ft5336.c **** 
 316:Drivers/BSP/Components/ft5336/ft5336.c ****     case 7 :
 317:Drivers/BSP/Components/ft5336/ft5336.c ****       regAddressXLow  = FT5336_P8_XL_REG;
 318:Drivers/BSP/Components/ft5336/ft5336.c ****       regAddressXHigh = FT5336_P8_XH_REG;
 319:Drivers/BSP/Components/ft5336/ft5336.c ****       regAddressYLow  = FT5336_P8_YL_REG;
 320:Drivers/BSP/Components/ft5336/ft5336.c ****       regAddressYHigh = FT5336_P8_YH_REG;
 321:Drivers/BSP/Components/ft5336/ft5336.c ****       break;
 322:Drivers/BSP/Components/ft5336/ft5336.c **** 
 323:Drivers/BSP/Components/ft5336/ft5336.c ****     case 8 :
 324:Drivers/BSP/Components/ft5336/ft5336.c ****       regAddressXLow  = FT5336_P9_XL_REG;
 325:Drivers/BSP/Components/ft5336/ft5336.c ****       regAddressXHigh = FT5336_P9_XH_REG;
 326:Drivers/BSP/Components/ft5336/ft5336.c ****       regAddressYLow  = FT5336_P9_YL_REG;
 327:Drivers/BSP/Components/ft5336/ft5336.c ****       regAddressYHigh = FT5336_P9_YH_REG;
 328:Drivers/BSP/Components/ft5336/ft5336.c ****       break;
 329:Drivers/BSP/Components/ft5336/ft5336.c **** 
 330:Drivers/BSP/Components/ft5336/ft5336.c ****     case 9 :
 331:Drivers/BSP/Components/ft5336/ft5336.c ****       regAddressXLow  = FT5336_P10_XL_REG;
 332:Drivers/BSP/Components/ft5336/ft5336.c ****       regAddressXHigh = FT5336_P10_XH_REG;
 333:Drivers/BSP/Components/ft5336/ft5336.c ****       regAddressYLow  = FT5336_P10_YL_REG;
 334:Drivers/BSP/Components/ft5336/ft5336.c ****       regAddressYHigh = FT5336_P10_YH_REG;
 335:Drivers/BSP/Components/ft5336/ft5336.c ****       break;
 336:Drivers/BSP/Components/ft5336/ft5336.c **** 
 337:Drivers/BSP/Components/ft5336/ft5336.c ****     default :
 338:Drivers/BSP/Components/ft5336/ft5336.c ****       break;
 339:Drivers/BSP/Components/ft5336/ft5336.c **** 
 340:Drivers/BSP/Components/ft5336/ft5336.c ****     } /* end switch(ft5336_handle.currActiveTouchIdx) */
 341:Drivers/BSP/Components/ft5336/ft5336.c **** 
 342:Drivers/BSP/Components/ft5336/ft5336.c ****     /* Read low part of X position */
 343:Drivers/BSP/Components/ft5336/ft5336.c ****     ucReadData = TS_IO_Read(DeviceAddr, regAddressXLow);
 344:Drivers/BSP/Components/ft5336/ft5336.c ****     coord = (ucReadData & FT5336_TOUCH_POS_LSB_MASK) >> FT5336_TOUCH_POS_LSB_SHIFT;
 345:Drivers/BSP/Components/ft5336/ft5336.c **** 
 346:Drivers/BSP/Components/ft5336/ft5336.c ****     /* Read high part of X position */
 347:Drivers/BSP/Components/ft5336/ft5336.c ****     ucReadData = TS_IO_Read(DeviceAddr, regAddressXHigh);
 348:Drivers/BSP/Components/ft5336/ft5336.c ****     coord |= ((ucReadData & FT5336_TOUCH_POS_MSB_MASK) >> FT5336_TOUCH_POS_MSB_SHIFT) << 8;
 349:Drivers/BSP/Components/ft5336/ft5336.c **** 
 350:Drivers/BSP/Components/ft5336/ft5336.c ****     /* Send back ready X position to caller */
 351:Drivers/BSP/Components/ft5336/ft5336.c ****     *X = coord;
 352:Drivers/BSP/Components/ft5336/ft5336.c **** 
 353:Drivers/BSP/Components/ft5336/ft5336.c ****     /* Read low part of Y position */
 354:Drivers/BSP/Components/ft5336/ft5336.c ****     ucReadData = TS_IO_Read(DeviceAddr, regAddressYLow);
ARM GAS  C:\Users\Patryk\AppData\Local\Temp\ccHRD7E4.s 			page 8


 355:Drivers/BSP/Components/ft5336/ft5336.c ****     coord = (ucReadData & FT5336_TOUCH_POS_LSB_MASK) >> FT5336_TOUCH_POS_LSB_SHIFT;
 356:Drivers/BSP/Components/ft5336/ft5336.c **** 
 357:Drivers/BSP/Components/ft5336/ft5336.c ****     /* Read high part of Y position */
 358:Drivers/BSP/Components/ft5336/ft5336.c ****     ucReadData = TS_IO_Read(DeviceAddr, regAddressYHigh);
 359:Drivers/BSP/Components/ft5336/ft5336.c ****     coord |= ((ucReadData & FT5336_TOUCH_POS_MSB_MASK) >> FT5336_TOUCH_POS_MSB_SHIFT) << 8;
 360:Drivers/BSP/Components/ft5336/ft5336.c **** 
 361:Drivers/BSP/Components/ft5336/ft5336.c ****     /* Send back ready Y position to caller */
 362:Drivers/BSP/Components/ft5336/ft5336.c ****     *Y = coord;
 363:Drivers/BSP/Components/ft5336/ft5336.c **** 
 364:Drivers/BSP/Components/ft5336/ft5336.c ****     ft5336_handle.currActiveTouchIdx++; /* next call will work on next touch */
 365:Drivers/BSP/Components/ft5336/ft5336.c **** 
 366:Drivers/BSP/Components/ft5336/ft5336.c ****   } /* of if(ft5336_handle.currActiveTouchIdx < ft5336_handle.currActiveTouchNb) */
 367:Drivers/BSP/Components/ft5336/ft5336.c **** }
 368:Drivers/BSP/Components/ft5336/ft5336.c **** 
 369:Drivers/BSP/Components/ft5336/ft5336.c **** /**
 370:Drivers/BSP/Components/ft5336/ft5336.c ****   * @brief  Configure the FT5336 device to generate IT on given INT pin
 371:Drivers/BSP/Components/ft5336/ft5336.c ****   *         connected to MCU as EXTI.
 372:Drivers/BSP/Components/ft5336/ft5336.c ****   * @param  DeviceAddr: Device address on communication Bus (Slave I2C address of FT5336).
 373:Drivers/BSP/Components/ft5336/ft5336.c ****   * @retval None
 374:Drivers/BSP/Components/ft5336/ft5336.c ****   */
 375:Drivers/BSP/Components/ft5336/ft5336.c **** void ft5336_TS_EnableIT(uint16_t DeviceAddr)
 376:Drivers/BSP/Components/ft5336/ft5336.c **** {
 377:Drivers/BSP/Components/ft5336/ft5336.c ****    uint8_t regValue = 0;
 378:Drivers/BSP/Components/ft5336/ft5336.c ****    regValue = (FT5336_G_MODE_INTERRUPT_TRIGGER & (FT5336_G_MODE_INTERRUPT_MASK >> FT5336_G_MODE_INT
 379:Drivers/BSP/Components/ft5336/ft5336.c **** 
 380:Drivers/BSP/Components/ft5336/ft5336.c ****    /* Set interrupt trigger mode in FT5336_GMODE_REG */
 381:Drivers/BSP/Components/ft5336/ft5336.c ****    TS_IO_Write(DeviceAddr, FT5336_GMODE_REG, regValue);
 382:Drivers/BSP/Components/ft5336/ft5336.c **** }
 383:Drivers/BSP/Components/ft5336/ft5336.c **** 
 384:Drivers/BSP/Components/ft5336/ft5336.c **** /**
 385:Drivers/BSP/Components/ft5336/ft5336.c ****   * @brief  Configure the FT5336 device to stop generating IT on the given INT pin
 386:Drivers/BSP/Components/ft5336/ft5336.c ****   *         connected to MCU as EXTI.
 387:Drivers/BSP/Components/ft5336/ft5336.c ****   * @param  DeviceAddr: Device address on communication Bus (Slave I2C address of FT5336).
 388:Drivers/BSP/Components/ft5336/ft5336.c ****   * @retval None
 389:Drivers/BSP/Components/ft5336/ft5336.c ****   */
 390:Drivers/BSP/Components/ft5336/ft5336.c **** void ft5336_TS_DisableIT(uint16_t DeviceAddr)
 391:Drivers/BSP/Components/ft5336/ft5336.c **** {
 392:Drivers/BSP/Components/ft5336/ft5336.c ****   uint8_t regValue = 0;
 393:Drivers/BSP/Components/ft5336/ft5336.c ****   regValue = (FT5336_G_MODE_INTERRUPT_POLLING & (FT5336_G_MODE_INTERRUPT_MASK >> FT5336_G_MODE_INTE
 394:Drivers/BSP/Components/ft5336/ft5336.c **** 
 395:Drivers/BSP/Components/ft5336/ft5336.c ****   /* Set interrupt polling mode in FT5336_GMODE_REG */
 396:Drivers/BSP/Components/ft5336/ft5336.c ****   TS_IO_Write(DeviceAddr, FT5336_GMODE_REG, regValue);
 397:Drivers/BSP/Components/ft5336/ft5336.c **** }
 398:Drivers/BSP/Components/ft5336/ft5336.c **** 
 399:Drivers/BSP/Components/ft5336/ft5336.c **** /**
 400:Drivers/BSP/Components/ft5336/ft5336.c ****   * @brief  Get IT status from FT5336 interrupt status registers
 401:Drivers/BSP/Components/ft5336/ft5336.c ****   *         Should be called Following an EXTI coming to the MCU to know the detailed
 402:Drivers/BSP/Components/ft5336/ft5336.c ****   *         reason of the interrupt.
 403:Drivers/BSP/Components/ft5336/ft5336.c ****   *         @note : This feature is not applicable to FT5336.
 404:Drivers/BSP/Components/ft5336/ft5336.c ****   * @param  DeviceAddr: Device address on communication Bus (I2C slave address of FT5336).
 405:Drivers/BSP/Components/ft5336/ft5336.c ****   * @retval TS interrupts status : always return 0 here
 406:Drivers/BSP/Components/ft5336/ft5336.c ****   */
 407:Drivers/BSP/Components/ft5336/ft5336.c **** uint8_t ft5336_TS_ITStatus(uint16_t DeviceAddr)
 408:Drivers/BSP/Components/ft5336/ft5336.c **** {
  49              		.loc 1 408 0
  50              		.cfi_startproc
  51              		@ args = 0, pretend = 0, frame = 0
ARM GAS  C:\Users\Patryk\AppData\Local\Temp\ccHRD7E4.s 			page 9


  52              		@ frame_needed = 0, uses_anonymous_args = 0
  53              		@ link register save eliminated.
  54              	.LVL1:
 409:Drivers/BSP/Components/ft5336/ft5336.c ****   /* Always return 0 as feature not applicable to FT5336 */
 410:Drivers/BSP/Components/ft5336/ft5336.c ****   return 0;
 411:Drivers/BSP/Components/ft5336/ft5336.c **** }
  55              		.loc 1 411 0
  56 0000 0020     		movs	r0, #0
  57              	.LVL2:
  58 0002 7047     		bx	lr
  59              		.cfi_endproc
  60              	.LFE8:
  62              		.section	.text.ft5336_TS_ClearIT,"ax",%progbits
  63              		.align	1
  64              		.global	ft5336_TS_ClearIT
  65              		.syntax unified
  66              		.thumb
  67              		.thumb_func
  68              		.fpu fpv5-sp-d16
  70              	ft5336_TS_ClearIT:
  71              	.LFB9:
 412:Drivers/BSP/Components/ft5336/ft5336.c **** 
 413:Drivers/BSP/Components/ft5336/ft5336.c **** /**
 414:Drivers/BSP/Components/ft5336/ft5336.c ****   * @brief  Clear IT status in FT5336 interrupt status clear registers
 415:Drivers/BSP/Components/ft5336/ft5336.c ****   *         Should be called Following an EXTI coming to the MCU.
 416:Drivers/BSP/Components/ft5336/ft5336.c ****   *         @note : This feature is not applicable to FT5336.
 417:Drivers/BSP/Components/ft5336/ft5336.c ****   * @param  DeviceAddr: Device address on communication Bus (I2C slave address of FT5336).
 418:Drivers/BSP/Components/ft5336/ft5336.c ****   * @retval None
 419:Drivers/BSP/Components/ft5336/ft5336.c ****   */
 420:Drivers/BSP/Components/ft5336/ft5336.c **** void ft5336_TS_ClearIT(uint16_t DeviceAddr)
 421:Drivers/BSP/Components/ft5336/ft5336.c **** {
  72              		.loc 1 421 0
  73              		.cfi_startproc
  74              		@ args = 0, pretend = 0, frame = 0
  75              		@ frame_needed = 0, uses_anonymous_args = 0
  76              		@ link register save eliminated.
  77              	.LVL3:
 422:Drivers/BSP/Components/ft5336/ft5336.c ****   /* Nothing to be done here for FT5336 */
 423:Drivers/BSP/Components/ft5336/ft5336.c **** }
  78              		.loc 1 423 0
  79 0000 7047     		bx	lr
  80              		.cfi_endproc
  81              	.LFE9:
  83              		.section	.text.ft5336_Get_I2C_InitializedStatus,"ax",%progbits
  84              		.align	1
  85              		.syntax unified
  86              		.thumb
  87              		.thumb_func
  88              		.fpu fpv5-sp-d16
  90              	ft5336_Get_I2C_InitializedStatus:
  91              	.LFB12:
 424:Drivers/BSP/Components/ft5336/ft5336.c **** 
 425:Drivers/BSP/Components/ft5336/ft5336.c **** /**** NEW FEATURES enabled when Multi-touch support is enabled ****/
 426:Drivers/BSP/Components/ft5336/ft5336.c **** 
 427:Drivers/BSP/Components/ft5336/ft5336.c **** #if (TS_MULTI_TOUCH_SUPPORTED == 1)
 428:Drivers/BSP/Components/ft5336/ft5336.c **** 
 429:Drivers/BSP/Components/ft5336/ft5336.c **** /**
ARM GAS  C:\Users\Patryk\AppData\Local\Temp\ccHRD7E4.s 			page 10


 430:Drivers/BSP/Components/ft5336/ft5336.c ****   * @brief  Get the last touch gesture identification (zoom, move up/down...).
 431:Drivers/BSP/Components/ft5336/ft5336.c ****   * @param  DeviceAddr: Device address on communication Bus (I2C slave address of FT5336).
 432:Drivers/BSP/Components/ft5336/ft5336.c ****   * @param  pGestureId : Pointer to get last touch gesture Identification.
 433:Drivers/BSP/Components/ft5336/ft5336.c ****   * @retval None.
 434:Drivers/BSP/Components/ft5336/ft5336.c ****   */
 435:Drivers/BSP/Components/ft5336/ft5336.c **** void ft5336_TS_GetGestureID(uint16_t DeviceAddr, uint32_t * pGestureId)
 436:Drivers/BSP/Components/ft5336/ft5336.c **** {
 437:Drivers/BSP/Components/ft5336/ft5336.c ****   volatile uint8_t ucReadData = 0;
 438:Drivers/BSP/Components/ft5336/ft5336.c **** 
 439:Drivers/BSP/Components/ft5336/ft5336.c ****   ucReadData = TS_IO_Read(DeviceAddr, FT5336_GEST_ID_REG);
 440:Drivers/BSP/Components/ft5336/ft5336.c **** 
 441:Drivers/BSP/Components/ft5336/ft5336.c ****   * pGestureId = ucReadData;
 442:Drivers/BSP/Components/ft5336/ft5336.c **** }
 443:Drivers/BSP/Components/ft5336/ft5336.c **** 
 444:Drivers/BSP/Components/ft5336/ft5336.c **** /**
 445:Drivers/BSP/Components/ft5336/ft5336.c ****   * @brief  Get the touch detailed informations on touch number 'touchIdx' (0..1)
 446:Drivers/BSP/Components/ft5336/ft5336.c ****   *         This touch detailed information contains :
 447:Drivers/BSP/Components/ft5336/ft5336.c ****   *         - weight that was applied to this touch
 448:Drivers/BSP/Components/ft5336/ft5336.c ****   *         - sub-area of the touch in the touch panel
 449:Drivers/BSP/Components/ft5336/ft5336.c ****   *         - event of linked to the touch (press down, lift up, ...)
 450:Drivers/BSP/Components/ft5336/ft5336.c ****   * @param  DeviceAddr: Device address on communication Bus (I2C slave address of FT5336).
 451:Drivers/BSP/Components/ft5336/ft5336.c ****   * @param  touchIdx : Passed index of the touch (0..1) on which we want to get the
 452:Drivers/BSP/Components/ft5336/ft5336.c ****   *                    detailed information.
 453:Drivers/BSP/Components/ft5336/ft5336.c ****   * @param  pWeight : Pointer to to get the weight information of 'touchIdx'.
 454:Drivers/BSP/Components/ft5336/ft5336.c ****   * @param  pArea   : Pointer to to get the sub-area information of 'touchIdx'.
 455:Drivers/BSP/Components/ft5336/ft5336.c ****   * @param  pEvent  : Pointer to to get the event information of 'touchIdx'.
 456:Drivers/BSP/Components/ft5336/ft5336.c **** 
 457:Drivers/BSP/Components/ft5336/ft5336.c ****   * @retval None.
 458:Drivers/BSP/Components/ft5336/ft5336.c ****   */
 459:Drivers/BSP/Components/ft5336/ft5336.c **** void ft5336_TS_GetTouchInfo(uint16_t   DeviceAddr,
 460:Drivers/BSP/Components/ft5336/ft5336.c ****                             uint32_t   touchIdx,
 461:Drivers/BSP/Components/ft5336/ft5336.c ****                             uint32_t * pWeight,
 462:Drivers/BSP/Components/ft5336/ft5336.c ****                             uint32_t * pArea,
 463:Drivers/BSP/Components/ft5336/ft5336.c ****                             uint32_t * pEvent)
 464:Drivers/BSP/Components/ft5336/ft5336.c **** {
 465:Drivers/BSP/Components/ft5336/ft5336.c ****   volatile uint8_t ucReadData = 0;
 466:Drivers/BSP/Components/ft5336/ft5336.c ****   uint8_t regAddressXHigh = 0;
 467:Drivers/BSP/Components/ft5336/ft5336.c ****   uint8_t regAddressPWeight = 0;
 468:Drivers/BSP/Components/ft5336/ft5336.c ****   uint8_t regAddressPMisc = 0;
 469:Drivers/BSP/Components/ft5336/ft5336.c **** 
 470:Drivers/BSP/Components/ft5336/ft5336.c ****   if(touchIdx < ft5336_handle.currActiveTouchNb)
 471:Drivers/BSP/Components/ft5336/ft5336.c ****   {
 472:Drivers/BSP/Components/ft5336/ft5336.c ****     switch(touchIdx)
 473:Drivers/BSP/Components/ft5336/ft5336.c ****     {
 474:Drivers/BSP/Components/ft5336/ft5336.c ****     case 0 :
 475:Drivers/BSP/Components/ft5336/ft5336.c ****       regAddressXHigh   = FT5336_P1_XH_REG;
 476:Drivers/BSP/Components/ft5336/ft5336.c ****       regAddressPWeight = FT5336_P1_WEIGHT_REG;
 477:Drivers/BSP/Components/ft5336/ft5336.c ****       regAddressPMisc   = FT5336_P1_MISC_REG;
 478:Drivers/BSP/Components/ft5336/ft5336.c ****       break;
 479:Drivers/BSP/Components/ft5336/ft5336.c **** 
 480:Drivers/BSP/Components/ft5336/ft5336.c ****     case 1 :
 481:Drivers/BSP/Components/ft5336/ft5336.c ****       regAddressXHigh   = FT5336_P2_XH_REG;
 482:Drivers/BSP/Components/ft5336/ft5336.c ****       regAddressPWeight = FT5336_P2_WEIGHT_REG;
 483:Drivers/BSP/Components/ft5336/ft5336.c ****       regAddressPMisc   = FT5336_P2_MISC_REG;
 484:Drivers/BSP/Components/ft5336/ft5336.c ****       break;
 485:Drivers/BSP/Components/ft5336/ft5336.c **** 
 486:Drivers/BSP/Components/ft5336/ft5336.c ****     case 2 :
ARM GAS  C:\Users\Patryk\AppData\Local\Temp\ccHRD7E4.s 			page 11


 487:Drivers/BSP/Components/ft5336/ft5336.c ****       regAddressXHigh   = FT5336_P3_XH_REG;
 488:Drivers/BSP/Components/ft5336/ft5336.c ****       regAddressPWeight = FT5336_P3_WEIGHT_REG;
 489:Drivers/BSP/Components/ft5336/ft5336.c ****       regAddressPMisc   = FT5336_P3_MISC_REG;
 490:Drivers/BSP/Components/ft5336/ft5336.c ****       break;
 491:Drivers/BSP/Components/ft5336/ft5336.c **** 
 492:Drivers/BSP/Components/ft5336/ft5336.c ****     case 3 :
 493:Drivers/BSP/Components/ft5336/ft5336.c ****       regAddressXHigh   = FT5336_P4_XH_REG;
 494:Drivers/BSP/Components/ft5336/ft5336.c ****       regAddressPWeight = FT5336_P4_WEIGHT_REG;
 495:Drivers/BSP/Components/ft5336/ft5336.c ****       regAddressPMisc   = FT5336_P4_MISC_REG;
 496:Drivers/BSP/Components/ft5336/ft5336.c ****       break;
 497:Drivers/BSP/Components/ft5336/ft5336.c **** 
 498:Drivers/BSP/Components/ft5336/ft5336.c ****     case 4 :
 499:Drivers/BSP/Components/ft5336/ft5336.c ****       regAddressXHigh   = FT5336_P5_XH_REG;
 500:Drivers/BSP/Components/ft5336/ft5336.c ****       regAddressPWeight = FT5336_P5_WEIGHT_REG;
 501:Drivers/BSP/Components/ft5336/ft5336.c ****       regAddressPMisc   = FT5336_P5_MISC_REG;
 502:Drivers/BSP/Components/ft5336/ft5336.c ****       break;
 503:Drivers/BSP/Components/ft5336/ft5336.c **** 
 504:Drivers/BSP/Components/ft5336/ft5336.c ****     case 5 :
 505:Drivers/BSP/Components/ft5336/ft5336.c ****       regAddressXHigh   = FT5336_P6_XH_REG;
 506:Drivers/BSP/Components/ft5336/ft5336.c ****       regAddressPWeight = FT5336_P6_WEIGHT_REG;
 507:Drivers/BSP/Components/ft5336/ft5336.c ****       regAddressPMisc   = FT5336_P6_MISC_REG;
 508:Drivers/BSP/Components/ft5336/ft5336.c ****       break;
 509:Drivers/BSP/Components/ft5336/ft5336.c **** 
 510:Drivers/BSP/Components/ft5336/ft5336.c ****     case 6 :
 511:Drivers/BSP/Components/ft5336/ft5336.c ****       regAddressXHigh   = FT5336_P7_XH_REG;
 512:Drivers/BSP/Components/ft5336/ft5336.c ****       regAddressPWeight = FT5336_P7_WEIGHT_REG;
 513:Drivers/BSP/Components/ft5336/ft5336.c ****       regAddressPMisc   = FT5336_P7_MISC_REG;
 514:Drivers/BSP/Components/ft5336/ft5336.c ****       break;
 515:Drivers/BSP/Components/ft5336/ft5336.c **** 
 516:Drivers/BSP/Components/ft5336/ft5336.c ****     case 7 :
 517:Drivers/BSP/Components/ft5336/ft5336.c ****       regAddressXHigh   = FT5336_P8_XH_REG;
 518:Drivers/BSP/Components/ft5336/ft5336.c ****       regAddressPWeight = FT5336_P8_WEIGHT_REG;
 519:Drivers/BSP/Components/ft5336/ft5336.c ****       regAddressPMisc   = FT5336_P8_MISC_REG;
 520:Drivers/BSP/Components/ft5336/ft5336.c ****       break;
 521:Drivers/BSP/Components/ft5336/ft5336.c **** 
 522:Drivers/BSP/Components/ft5336/ft5336.c ****     case 8 :
 523:Drivers/BSP/Components/ft5336/ft5336.c ****       regAddressXHigh   = FT5336_P9_XH_REG;
 524:Drivers/BSP/Components/ft5336/ft5336.c ****       regAddressPWeight = FT5336_P9_WEIGHT_REG;
 525:Drivers/BSP/Components/ft5336/ft5336.c ****       regAddressPMisc   = FT5336_P9_MISC_REG;
 526:Drivers/BSP/Components/ft5336/ft5336.c ****       break;
 527:Drivers/BSP/Components/ft5336/ft5336.c **** 
 528:Drivers/BSP/Components/ft5336/ft5336.c ****     case 9 :
 529:Drivers/BSP/Components/ft5336/ft5336.c ****       regAddressXHigh   = FT5336_P10_XH_REG;
 530:Drivers/BSP/Components/ft5336/ft5336.c ****       regAddressPWeight = FT5336_P10_WEIGHT_REG;
 531:Drivers/BSP/Components/ft5336/ft5336.c ****       regAddressPMisc   = FT5336_P10_MISC_REG;
 532:Drivers/BSP/Components/ft5336/ft5336.c ****       break;
 533:Drivers/BSP/Components/ft5336/ft5336.c **** 
 534:Drivers/BSP/Components/ft5336/ft5336.c ****     default :
 535:Drivers/BSP/Components/ft5336/ft5336.c ****       break;
 536:Drivers/BSP/Components/ft5336/ft5336.c **** 
 537:Drivers/BSP/Components/ft5336/ft5336.c ****     } /* end switch(touchIdx) */
 538:Drivers/BSP/Components/ft5336/ft5336.c **** 
 539:Drivers/BSP/Components/ft5336/ft5336.c ****     /* Read Event Id of touch index */
 540:Drivers/BSP/Components/ft5336/ft5336.c ****     ucReadData = TS_IO_Read(DeviceAddr, regAddressXHigh);
 541:Drivers/BSP/Components/ft5336/ft5336.c ****     * pEvent = (ucReadData & FT5336_TOUCH_EVT_FLAG_MASK) >> FT5336_TOUCH_EVT_FLAG_SHIFT;
 542:Drivers/BSP/Components/ft5336/ft5336.c **** 
 543:Drivers/BSP/Components/ft5336/ft5336.c ****     /* Read weight of touch index */
ARM GAS  C:\Users\Patryk\AppData\Local\Temp\ccHRD7E4.s 			page 12


 544:Drivers/BSP/Components/ft5336/ft5336.c ****     ucReadData = TS_IO_Read(DeviceAddr, regAddressPWeight);
 545:Drivers/BSP/Components/ft5336/ft5336.c ****     * pWeight = (ucReadData & FT5336_TOUCH_WEIGHT_MASK) >> FT5336_TOUCH_WEIGHT_SHIFT;
 546:Drivers/BSP/Components/ft5336/ft5336.c **** 
 547:Drivers/BSP/Components/ft5336/ft5336.c ****     /* Read area of touch index */
 548:Drivers/BSP/Components/ft5336/ft5336.c ****     ucReadData = TS_IO_Read(DeviceAddr, regAddressPMisc);
 549:Drivers/BSP/Components/ft5336/ft5336.c ****     * pArea = (ucReadData & FT5336_TOUCH_AREA_MASK) >> FT5336_TOUCH_AREA_SHIFT;
 550:Drivers/BSP/Components/ft5336/ft5336.c **** 
 551:Drivers/BSP/Components/ft5336/ft5336.c ****   } /* of if(touchIdx < ft5336_handle.currActiveTouchNb) */
 552:Drivers/BSP/Components/ft5336/ft5336.c **** }
 553:Drivers/BSP/Components/ft5336/ft5336.c **** 
 554:Drivers/BSP/Components/ft5336/ft5336.c **** #endif /* TS_MULTI_TOUCH_SUPPORTED == 1 */
 555:Drivers/BSP/Components/ft5336/ft5336.c **** 
 556:Drivers/BSP/Components/ft5336/ft5336.c **** /** @defgroup ft5336_Static_Function_Body
 557:Drivers/BSP/Components/ft5336/ft5336.c ****   * @{
 558:Drivers/BSP/Components/ft5336/ft5336.c ****   */
 559:Drivers/BSP/Components/ft5336/ft5336.c **** 
 560:Drivers/BSP/Components/ft5336/ft5336.c **** /* Static functions bodies-----------------------------------------------*/
 561:Drivers/BSP/Components/ft5336/ft5336.c **** 
 562:Drivers/BSP/Components/ft5336/ft5336.c **** 
 563:Drivers/BSP/Components/ft5336/ft5336.c **** /**
 564:Drivers/BSP/Components/ft5336/ft5336.c ****   * @brief  Return the status of I2C was initialized or not.
 565:Drivers/BSP/Components/ft5336/ft5336.c ****   * @param  None.
 566:Drivers/BSP/Components/ft5336/ft5336.c ****   * @retval : I2C initialization status.
 567:Drivers/BSP/Components/ft5336/ft5336.c ****   */
 568:Drivers/BSP/Components/ft5336/ft5336.c **** static uint8_t ft5336_Get_I2C_InitializedStatus(void)
 569:Drivers/BSP/Components/ft5336/ft5336.c **** {
  92              		.loc 1 569 0
  93              		.cfi_startproc
  94              		@ args = 0, pretend = 0, frame = 0
  95              		@ frame_needed = 0, uses_anonymous_args = 0
  96              		@ link register save eliminated.
 570:Drivers/BSP/Components/ft5336/ft5336.c ****   return(ft5336_handle.i2cInitialized);
 571:Drivers/BSP/Components/ft5336/ft5336.c **** }
  97              		.loc 1 571 0
  98 0000 014B     		ldr	r3, .L5
  99 0002 1878     		ldrb	r0, [r3]	@ zero_extendqisi2
 100 0004 7047     		bx	lr
 101              	.L6:
 102 0006 00BF     		.align	2
 103              	.L5:
 104 0008 00000000 		.word	.LANCHOR0
 105              		.cfi_endproc
 106              	.LFE12:
 108              		.section	.text.ft5336_I2C_InitializeIfRequired,"ax",%progbits
 109              		.align	1
 110              		.syntax unified
 111              		.thumb
 112              		.thumb_func
 113              		.fpu fpv5-sp-d16
 115              	ft5336_I2C_InitializeIfRequired:
 116              	.LFB13:
 572:Drivers/BSP/Components/ft5336/ft5336.c **** 
 573:Drivers/BSP/Components/ft5336/ft5336.c **** /**
 574:Drivers/BSP/Components/ft5336/ft5336.c ****   * @brief  I2C initialize if needed.
 575:Drivers/BSP/Components/ft5336/ft5336.c ****   * @param  None.
 576:Drivers/BSP/Components/ft5336/ft5336.c ****   * @retval : None.
 577:Drivers/BSP/Components/ft5336/ft5336.c ****   */
ARM GAS  C:\Users\Patryk\AppData\Local\Temp\ccHRD7E4.s 			page 13


 578:Drivers/BSP/Components/ft5336/ft5336.c **** static void ft5336_I2C_InitializeIfRequired(void)
 579:Drivers/BSP/Components/ft5336/ft5336.c **** {
 117              		.loc 1 579 0
 118              		.cfi_startproc
 119              		@ args = 0, pretend = 0, frame = 0
 120              		@ frame_needed = 0, uses_anonymous_args = 0
 121 0000 08B5     		push	{r3, lr}
 122              	.LCFI0:
 123              		.cfi_def_cfa_offset 8
 124              		.cfi_offset 3, -8
 125              		.cfi_offset 14, -4
 580:Drivers/BSP/Components/ft5336/ft5336.c ****   if(ft5336_Get_I2C_InitializedStatus() == FT5336_I2C_NOT_INITIALIZED)
 126              		.loc 1 580 0
 127 0002 FFF7FEFF 		bl	ft5336_Get_I2C_InitializedStatus
 128              	.LVL4:
 129 0006 00B1     		cbz	r0, .L10
 130              	.L7:
 581:Drivers/BSP/Components/ft5336/ft5336.c ****   {
 582:Drivers/BSP/Components/ft5336/ft5336.c ****     /* Initialize TS IO BUS layer (I2C) */
 583:Drivers/BSP/Components/ft5336/ft5336.c ****     TS_IO_Init();
 584:Drivers/BSP/Components/ft5336/ft5336.c **** 
 585:Drivers/BSP/Components/ft5336/ft5336.c ****     /* Set state to initialized */
 586:Drivers/BSP/Components/ft5336/ft5336.c ****     ft5336_handle.i2cInitialized = FT5336_I2C_INITIALIZED;
 587:Drivers/BSP/Components/ft5336/ft5336.c ****   }
 588:Drivers/BSP/Components/ft5336/ft5336.c **** }
 131              		.loc 1 588 0
 132 0008 08BD     		pop	{r3, pc}
 133              	.L10:
 583:Drivers/BSP/Components/ft5336/ft5336.c **** 
 134              		.loc 1 583 0
 135 000a FFF7FEFF 		bl	TS_IO_Init
 136              	.LVL5:
 586:Drivers/BSP/Components/ft5336/ft5336.c ****   }
 137              		.loc 1 586 0
 138 000e 024B     		ldr	r3, .L11
 139 0010 0122     		movs	r2, #1
 140 0012 1A70     		strb	r2, [r3]
 141              		.loc 1 588 0
 142 0014 F8E7     		b	.L7
 143              	.L12:
 144 0016 00BF     		.align	2
 145              	.L11:
 146 0018 00000000 		.word	.LANCHOR0
 147              		.cfi_endproc
 148              	.LFE13:
 150              		.section	.text.ft5336_Init,"ax",%progbits
 151              		.align	1
 152              		.global	ft5336_Init
 153              		.syntax unified
 154              		.thumb
 155              		.thumb_func
 156              		.fpu fpv5-sp-d16
 158              	ft5336_Init:
 159              	.LFB0:
 146:Drivers/BSP/Components/ft5336/ft5336.c ****   /* Wait at least 200ms after power up before accessing registers
 160              		.loc 1 146 0
 161              		.cfi_startproc
ARM GAS  C:\Users\Patryk\AppData\Local\Temp\ccHRD7E4.s 			page 14


 162              		@ args = 0, pretend = 0, frame = 0
 163              		@ frame_needed = 0, uses_anonymous_args = 0
 164              	.LVL6:
 165 0000 08B5     		push	{r3, lr}
 166              	.LCFI1:
 167              		.cfi_def_cfa_offset 8
 168              		.cfi_offset 3, -8
 169              		.cfi_offset 14, -4
 149:Drivers/BSP/Components/ft5336/ft5336.c **** 
 170              		.loc 1 149 0
 171 0002 C820     		movs	r0, #200
 172              	.LVL7:
 173 0004 FFF7FEFF 		bl	TS_IO_Delay
 174              	.LVL8:
 152:Drivers/BSP/Components/ft5336/ft5336.c **** }
 175              		.loc 1 152 0
 176 0008 FFF7FEFF 		bl	ft5336_I2C_InitializeIfRequired
 177              	.LVL9:
 153:Drivers/BSP/Components/ft5336/ft5336.c **** 
 178              		.loc 1 153 0
 179 000c 08BD     		pop	{r3, pc}
 180              		.cfi_endproc
 181              	.LFE0:
 183              		.section	.text.ft5336_ReadID,"ax",%progbits
 184              		.align	1
 185              		.global	ft5336_ReadID
 186              		.syntax unified
 187              		.thumb
 188              		.thumb_func
 189              		.fpu fpv5-sp-d16
 191              	ft5336_ReadID:
 192              	.LFB2:
 174:Drivers/BSP/Components/ft5336/ft5336.c ****   volatile uint8_t ucReadId = 0;
 193              		.loc 1 174 0
 194              		.cfi_startproc
 195              		@ args = 0, pretend = 0, frame = 8
 196              		@ frame_needed = 0, uses_anonymous_args = 0
 197              	.LVL10:
 198 0000 70B5     		push	{r4, r5, r6, lr}
 199              	.LCFI2:
 200              		.cfi_def_cfa_offset 16
 201              		.cfi_offset 4, -16
 202              		.cfi_offset 5, -12
 203              		.cfi_offset 6, -8
 204              		.cfi_offset 14, -4
 205 0002 82B0     		sub	sp, sp, #8
 206              	.LCFI3:
 207              		.cfi_def_cfa_offset 24
 208 0004 0646     		mov	r6, r0
 175:Drivers/BSP/Components/ft5336/ft5336.c ****   uint8_t nbReadAttempts = 0;
 209              		.loc 1 175 0
 210 0006 0024     		movs	r4, #0
 211 0008 8DF80740 		strb	r4, [sp, #7]
 212              	.LVL11:
 180:Drivers/BSP/Components/ft5336/ft5336.c **** 
 213              		.loc 1 180 0
 214 000c FFF7FEFF 		bl	ft5336_I2C_InitializeIfRequired
ARM GAS  C:\Users\Patryk\AppData\Local\Temp\ccHRD7E4.s 			page 15


 215              	.LVL12:
 177:Drivers/BSP/Components/ft5336/ft5336.c **** 
 216              		.loc 1 177 0
 217 0010 2546     		mov	r5, r4
 183:Drivers/BSP/Components/ft5336/ft5336.c ****   {
 218              		.loc 1 183 0
 219 0012 01E0     		b	.L16
 220              	.LVL13:
 221              	.L17:
 183:Drivers/BSP/Components/ft5336/ft5336.c ****   {
 222              		.loc 1 183 0 is_stmt 0 discriminator 2
 223 0014 0134     		adds	r4, r4, #1
 224              	.LVL14:
 225 0016 E4B2     		uxtb	r4, r4
 226              	.LVL15:
 227              	.L16:
 183:Drivers/BSP/Components/ft5336/ft5336.c ****   {
 228              		.loc 1 183 0 discriminator 1
 229 0018 85F00103 		eor	r3, r5, #1
 230 001c 022C     		cmp	r4, #2
 231 001e 8CBF     		ite	hi
 232 0020 0023     		movhi	r3, #0
 233 0022 03F00103 		andls	r3, r3, #1
 234 0026 63B1     		cbz	r3, .L21
 186:Drivers/BSP/Components/ft5336/ft5336.c **** 
 235              		.loc 1 186 0 is_stmt 1
 236 0028 A821     		movs	r1, #168
 237 002a F0B2     		uxtb	r0, r6
 238 002c FFF7FEFF 		bl	TS_IO_Read
 239              	.LVL16:
 240 0030 8DF80700 		strb	r0, [sp, #7]
 189:Drivers/BSP/Components/ft5336/ft5336.c ****     {
 241              		.loc 1 189 0
 242 0034 9DF80730 		ldrb	r3, [sp, #7]	@ zero_extendqisi2
 243 0038 DBB2     		uxtb	r3, r3
 244 003a 512B     		cmp	r3, #81
 245 003c EAD1     		bne	.L17
 192:Drivers/BSP/Components/ft5336/ft5336.c ****     }
 246              		.loc 1 192 0
 247 003e 0125     		movs	r5, #1
 248              	.LVL17:
 249 0040 E8E7     		b	.L17
 250              	.LVL18:
 251              	.L21:
 197:Drivers/BSP/Components/ft5336/ft5336.c **** }
 252              		.loc 1 197 0
 253 0042 9DF80700 		ldrb	r0, [sp, #7]	@ zero_extendqisi2
 198:Drivers/BSP/Components/ft5336/ft5336.c **** 
 254              		.loc 1 198 0
 255 0046 02B0     		add	sp, sp, #8
 256              	.LCFI4:
 257              		.cfi_def_cfa_offset 16
 258              		@ sp needed
 259 0048 70BD     		pop	{r4, r5, r6, pc}
 260              		.cfi_endproc
 261              	.LFE2:
 263              		.section	.text.ft5336_TS_DetectTouch,"ax",%progbits
ARM GAS  C:\Users\Patryk\AppData\Local\Temp\ccHRD7E4.s 			page 16


 264              		.align	1
 265              		.global	ft5336_TS_DetectTouch
 266              		.syntax unified
 267              		.thumb
 268              		.thumb_func
 269              		.fpu fpv5-sp-d16
 271              	ft5336_TS_DetectTouch:
 272              	.LFB4:
 223:Drivers/BSP/Components/ft5336/ft5336.c ****   volatile uint8_t nbTouch = 0;
 273              		.loc 1 223 0
 274              		.cfi_startproc
 275              		@ args = 0, pretend = 0, frame = 8
 276              		@ frame_needed = 0, uses_anonymous_args = 0
 277              	.LVL19:
 278 0000 00B5     		push	{lr}
 279              	.LCFI5:
 280              		.cfi_def_cfa_offset 4
 281              		.cfi_offset 14, -4
 282 0002 83B0     		sub	sp, sp, #12
 283              	.LCFI6:
 284              		.cfi_def_cfa_offset 16
 224:Drivers/BSP/Components/ft5336/ft5336.c **** 
 285              		.loc 1 224 0
 286 0004 0023     		movs	r3, #0
 287 0006 8DF80730 		strb	r3, [sp, #7]
 227:Drivers/BSP/Components/ft5336/ft5336.c ****   nbTouch &= FT5336_TD_STAT_MASK;
 288              		.loc 1 227 0
 289 000a 0221     		movs	r1, #2
 290 000c C0B2     		uxtb	r0, r0
 291              	.LVL20:
 292 000e FFF7FEFF 		bl	TS_IO_Read
 293              	.LVL21:
 294 0012 8DF80700 		strb	r0, [sp, #7]
 228:Drivers/BSP/Components/ft5336/ft5336.c **** 
 295              		.loc 1 228 0
 296 0016 9DF80730 		ldrb	r3, [sp, #7]	@ zero_extendqisi2
 297 001a 03F00F03 		and	r3, r3, #15
 298 001e 8DF80730 		strb	r3, [sp, #7]
 230:Drivers/BSP/Components/ft5336/ft5336.c ****   {
 299              		.loc 1 230 0
 300 0022 9DF80730 		ldrb	r3, [sp, #7]	@ zero_extendqisi2
 301 0026 DBB2     		uxtb	r3, r3
 302 0028 052B     		cmp	r3, #5
 303 002a 02D9     		bls	.L23
 233:Drivers/BSP/Components/ft5336/ft5336.c ****   }
 304              		.loc 1 233 0
 305 002c 0023     		movs	r3, #0
 306 002e 8DF80730 		strb	r3, [sp, #7]
 307              	.L23:
 237:Drivers/BSP/Components/ft5336/ft5336.c **** 
 308              		.loc 1 237 0
 309 0032 9DF80720 		ldrb	r2, [sp, #7]	@ zero_extendqisi2
 310 0036 044B     		ldr	r3, .L25
 311 0038 5A70     		strb	r2, [r3, #1]
 240:Drivers/BSP/Components/ft5336/ft5336.c **** 
 312              		.loc 1 240 0
 313 003a 0022     		movs	r2, #0
ARM GAS  C:\Users\Patryk\AppData\Local\Temp\ccHRD7E4.s 			page 17


 314 003c 9A70     		strb	r2, [r3, #2]
 242:Drivers/BSP/Components/ft5336/ft5336.c **** }
 315              		.loc 1 242 0
 316 003e 9DF80700 		ldrb	r0, [sp, #7]	@ zero_extendqisi2
 243:Drivers/BSP/Components/ft5336/ft5336.c **** 
 317              		.loc 1 243 0
 318 0042 03B0     		add	sp, sp, #12
 319              	.LCFI7:
 320              		.cfi_def_cfa_offset 4
 321              		@ sp needed
 322 0044 5DF804FB 		ldr	pc, [sp], #4
 323              	.L26:
 324              		.align	2
 325              	.L25:
 326 0048 00000000 		.word	.LANCHOR0
 327              		.cfi_endproc
 328              	.LFE4:
 330              		.section	.text.ft5336_TS_GetXY,"ax",%progbits
 331              		.align	1
 332              		.global	ft5336_TS_GetXY
 333              		.syntax unified
 334              		.thumb
 335              		.thumb_func
 336              		.fpu fpv5-sp-d16
 338              	ft5336_TS_GetXY:
 339              	.LFB5:
 255:Drivers/BSP/Components/ft5336/ft5336.c ****   volatile uint8_t ucReadData = 0;
 340              		.loc 1 255 0
 341              		.cfi_startproc
 342              		@ args = 0, pretend = 0, frame = 8
 343              		@ frame_needed = 0, uses_anonymous_args = 0
 344              	.LVL22:
 345 0000 2DE9F047 		push	{r4, r5, r6, r7, r8, r9, r10, lr}
 346              	.LCFI8:
 347              		.cfi_def_cfa_offset 32
 348              		.cfi_offset 4, -32
 349              		.cfi_offset 5, -28
 350              		.cfi_offset 6, -24
 351              		.cfi_offset 7, -20
 352              		.cfi_offset 8, -16
 353              		.cfi_offset 9, -12
 354              		.cfi_offset 10, -8
 355              		.cfi_offset 14, -4
 356 0004 82B0     		sub	sp, sp, #8
 357              	.LCFI9:
 358              		.cfi_def_cfa_offset 40
 256:Drivers/BSP/Components/ft5336/ft5336.c ****   static uint16_t coord;
 359              		.loc 1 256 0
 360 0006 0023     		movs	r3, #0
 361 0008 8DF80730 		strb	r3, [sp, #7]
 362              	.LVL23:
 263:Drivers/BSP/Components/ft5336/ft5336.c ****   {
 363              		.loc 1 263 0
 364 000c 4F4D     		ldr	r5, .L43
 365 000e AB78     		ldrb	r3, [r5, #2]	@ zero_extendqisi2
 366 0010 6C78     		ldrb	r4, [r5, #1]	@ zero_extendqisi2
 367 0012 A342     		cmp	r3, r4
ARM GAS  C:\Users\Patryk\AppData\Local\Temp\ccHRD7E4.s 			page 18


 368 0014 80F09680 		bcs	.L27
 265:Drivers/BSP/Components/ft5336/ft5336.c ****     {
 369              		.loc 1 265 0
 370 0018 092B     		cmp	r3, #9
 371 001a 06D8     		bhi	.L29
 372 001c DFE803F0 		tbb	[pc, r3]
 373              	.L31:
 374 0020 53       		.byte	(.L41-.L31)/2
 375 0021 0B       		.byte	(.L32-.L31)/2
 376 0022 13       		.byte	(.L33-.L31)/2
 377 0023 1B       		.byte	(.L34-.L31)/2
 378 0024 23       		.byte	(.L35-.L31)/2
 379 0025 2B       		.byte	(.L36-.L31)/2
 380 0026 33       		.byte	(.L37-.L31)/2
 381 0027 3B       		.byte	(.L38-.L31)/2
 382 0028 43       		.byte	(.L39-.L31)/2
 383 0029 4B       		.byte	(.L40-.L31)/2
 384              		.p2align 1
 385              	.L29:
 261:Drivers/BSP/Components/ft5336/ft5336.c **** 
 386              		.loc 1 261 0
 387 002a 4FF00008 		mov	r8, #0
 260:Drivers/BSP/Components/ft5336/ft5336.c ****   uint8_t regAddressYHigh = 0;
 388              		.loc 1 260 0
 389 002e C146     		mov	r9, r8
 259:Drivers/BSP/Components/ft5336/ft5336.c ****   uint8_t regAddressYLow = 0;
 390              		.loc 1 259 0
 391 0030 C246     		mov	r10, r8
 258:Drivers/BSP/Components/ft5336/ft5336.c ****   uint8_t regAddressXHigh = 0;
 392              		.loc 1 258 0
 393 0032 4346     		mov	r3, r8
 394 0034 4EE0     		b	.L30
 395              	.L32:
 396              	.LVL24:
 278:Drivers/BSP/Components/ft5336/ft5336.c ****       break;
 397              		.loc 1 278 0
 398 0036 4FF00B08 		mov	r8, #11
 277:Drivers/BSP/Components/ft5336/ft5336.c ****       regAddressYHigh = FT5336_P2_YH_REG;
 399              		.loc 1 277 0
 400 003a 4FF00C09 		mov	r9, #12
 276:Drivers/BSP/Components/ft5336/ft5336.c ****       regAddressYLow  = FT5336_P2_YL_REG;
 401              		.loc 1 276 0
 402 003e 4FF0090A 		mov	r10, #9
 275:Drivers/BSP/Components/ft5336/ft5336.c ****       regAddressXHigh = FT5336_P2_XH_REG;
 403              		.loc 1 275 0
 404 0042 0A23     		movs	r3, #10
 279:Drivers/BSP/Components/ft5336/ft5336.c **** 
 405              		.loc 1 279 0
 406 0044 46E0     		b	.L30
 407              	.LVL25:
 408              	.L33:
 285:Drivers/BSP/Components/ft5336/ft5336.c ****       break;
 409              		.loc 1 285 0
 410 0046 4FF01108 		mov	r8, #17
 284:Drivers/BSP/Components/ft5336/ft5336.c ****       regAddressYHigh = FT5336_P3_YH_REG;
 411              		.loc 1 284 0
 412 004a 4FF01209 		mov	r9, #18
ARM GAS  C:\Users\Patryk\AppData\Local\Temp\ccHRD7E4.s 			page 19


 283:Drivers/BSP/Components/ft5336/ft5336.c ****       regAddressYLow  = FT5336_P3_YL_REG;
 413              		.loc 1 283 0
 414 004e 4FF00F0A 		mov	r10, #15
 282:Drivers/BSP/Components/ft5336/ft5336.c ****       regAddressXHigh = FT5336_P3_XH_REG;
 415              		.loc 1 282 0
 416 0052 1023     		movs	r3, #16
 286:Drivers/BSP/Components/ft5336/ft5336.c **** 
 417              		.loc 1 286 0
 418 0054 3EE0     		b	.L30
 419              	.LVL26:
 420              	.L34:
 292:Drivers/BSP/Components/ft5336/ft5336.c ****       break;
 421              		.loc 1 292 0
 422 0056 4FF01708 		mov	r8, #23
 291:Drivers/BSP/Components/ft5336/ft5336.c ****       regAddressYHigh = FT5336_P4_YH_REG;
 423              		.loc 1 291 0
 424 005a 4FF01809 		mov	r9, #24
 290:Drivers/BSP/Components/ft5336/ft5336.c ****       regAddressYLow  = FT5336_P4_YL_REG;
 425              		.loc 1 290 0
 426 005e 4FF0150A 		mov	r10, #21
 289:Drivers/BSP/Components/ft5336/ft5336.c ****       regAddressXHigh = FT5336_P4_XH_REG;
 427              		.loc 1 289 0
 428 0062 1623     		movs	r3, #22
 293:Drivers/BSP/Components/ft5336/ft5336.c **** 
 429              		.loc 1 293 0
 430 0064 36E0     		b	.L30
 431              	.LVL27:
 432              	.L35:
 299:Drivers/BSP/Components/ft5336/ft5336.c ****       break;
 433              		.loc 1 299 0
 434 0066 4FF01D08 		mov	r8, #29
 298:Drivers/BSP/Components/ft5336/ft5336.c ****       regAddressYHigh = FT5336_P5_YH_REG;
 435              		.loc 1 298 0
 436 006a 4FF01E09 		mov	r9, #30
 297:Drivers/BSP/Components/ft5336/ft5336.c ****       regAddressYLow  = FT5336_P5_YL_REG;
 437              		.loc 1 297 0
 438 006e 4FF01B0A 		mov	r10, #27
 296:Drivers/BSP/Components/ft5336/ft5336.c ****       regAddressXHigh = FT5336_P5_XH_REG;
 439              		.loc 1 296 0
 440 0072 1C23     		movs	r3, #28
 300:Drivers/BSP/Components/ft5336/ft5336.c **** 
 441              		.loc 1 300 0
 442 0074 2EE0     		b	.L30
 443              	.LVL28:
 444              	.L36:
 306:Drivers/BSP/Components/ft5336/ft5336.c ****       break;
 445              		.loc 1 306 0
 446 0076 4FF02308 		mov	r8, #35
 305:Drivers/BSP/Components/ft5336/ft5336.c ****       regAddressYHigh = FT5336_P6_YH_REG;
 447              		.loc 1 305 0
 448 007a 4FF02409 		mov	r9, #36
 304:Drivers/BSP/Components/ft5336/ft5336.c ****       regAddressYLow  = FT5336_P6_YL_REG;
 449              		.loc 1 304 0
 450 007e 4FF0210A 		mov	r10, #33
 303:Drivers/BSP/Components/ft5336/ft5336.c ****       regAddressXHigh = FT5336_P6_XH_REG;
 451              		.loc 1 303 0
 452 0082 2223     		movs	r3, #34
ARM GAS  C:\Users\Patryk\AppData\Local\Temp\ccHRD7E4.s 			page 20


 307:Drivers/BSP/Components/ft5336/ft5336.c **** 
 453              		.loc 1 307 0
 454 0084 26E0     		b	.L30
 455              	.LVL29:
 456              	.L37:
 313:Drivers/BSP/Components/ft5336/ft5336.c ****       break;
 457              		.loc 1 313 0
 458 0086 4FF02908 		mov	r8, #41
 312:Drivers/BSP/Components/ft5336/ft5336.c ****       regAddressYHigh = FT5336_P7_YH_REG;
 459              		.loc 1 312 0
 460 008a 4FF02A09 		mov	r9, #42
 311:Drivers/BSP/Components/ft5336/ft5336.c ****       regAddressYLow  = FT5336_P7_YL_REG;
 461              		.loc 1 311 0
 462 008e 4FF0270A 		mov	r10, #39
 310:Drivers/BSP/Components/ft5336/ft5336.c ****       regAddressXHigh = FT5336_P7_XH_REG;
 463              		.loc 1 310 0
 464 0092 2823     		movs	r3, #40
 314:Drivers/BSP/Components/ft5336/ft5336.c **** 
 465              		.loc 1 314 0
 466 0094 1EE0     		b	.L30
 467              	.LVL30:
 468              	.L38:
 320:Drivers/BSP/Components/ft5336/ft5336.c ****       break;
 469              		.loc 1 320 0
 470 0096 4FF02F08 		mov	r8, #47
 319:Drivers/BSP/Components/ft5336/ft5336.c ****       regAddressYHigh = FT5336_P8_YH_REG;
 471              		.loc 1 319 0
 472 009a 4FF03009 		mov	r9, #48
 318:Drivers/BSP/Components/ft5336/ft5336.c ****       regAddressYLow  = FT5336_P8_YL_REG;
 473              		.loc 1 318 0
 474 009e 4FF02D0A 		mov	r10, #45
 317:Drivers/BSP/Components/ft5336/ft5336.c ****       regAddressXHigh = FT5336_P8_XH_REG;
 475              		.loc 1 317 0
 476 00a2 2E23     		movs	r3, #46
 321:Drivers/BSP/Components/ft5336/ft5336.c **** 
 477              		.loc 1 321 0
 478 00a4 16E0     		b	.L30
 479              	.LVL31:
 480              	.L39:
 327:Drivers/BSP/Components/ft5336/ft5336.c ****       break;
 481              		.loc 1 327 0
 482 00a6 4FF03508 		mov	r8, #53
 326:Drivers/BSP/Components/ft5336/ft5336.c ****       regAddressYHigh = FT5336_P9_YH_REG;
 483              		.loc 1 326 0
 484 00aa 4FF03609 		mov	r9, #54
 325:Drivers/BSP/Components/ft5336/ft5336.c ****       regAddressYLow  = FT5336_P9_YL_REG;
 485              		.loc 1 325 0
 486 00ae 4FF0330A 		mov	r10, #51
 324:Drivers/BSP/Components/ft5336/ft5336.c ****       regAddressXHigh = FT5336_P9_XH_REG;
 487              		.loc 1 324 0
 488 00b2 3423     		movs	r3, #52
 328:Drivers/BSP/Components/ft5336/ft5336.c **** 
 489              		.loc 1 328 0
 490 00b4 0EE0     		b	.L30
 491              	.LVL32:
 492              	.L40:
 334:Drivers/BSP/Components/ft5336/ft5336.c ****       break;
ARM GAS  C:\Users\Patryk\AppData\Local\Temp\ccHRD7E4.s 			page 21


 493              		.loc 1 334 0
 494 00b6 4FF03B08 		mov	r8, #59
 333:Drivers/BSP/Components/ft5336/ft5336.c ****       regAddressYHigh = FT5336_P10_YH_REG;
 495              		.loc 1 333 0
 496 00ba 4FF03C09 		mov	r9, #60
 332:Drivers/BSP/Components/ft5336/ft5336.c ****       regAddressYLow  = FT5336_P10_YL_REG;
 497              		.loc 1 332 0
 498 00be 4FF0390A 		mov	r10, #57
 331:Drivers/BSP/Components/ft5336/ft5336.c ****       regAddressXHigh = FT5336_P10_XH_REG;
 499              		.loc 1 331 0
 500 00c2 3A23     		movs	r3, #58
 335:Drivers/BSP/Components/ft5336/ft5336.c **** 
 501              		.loc 1 335 0
 502 00c4 06E0     		b	.L30
 503              	.LVL33:
 504              	.L41:
 271:Drivers/BSP/Components/ft5336/ft5336.c ****       break;
 505              		.loc 1 271 0
 506 00c6 4FF00508 		mov	r8, #5
 270:Drivers/BSP/Components/ft5336/ft5336.c ****       regAddressYHigh = FT5336_P1_YH_REG;
 507              		.loc 1 270 0
 508 00ca 4FF00609 		mov	r9, #6
 269:Drivers/BSP/Components/ft5336/ft5336.c ****       regAddressYLow  = FT5336_P1_YL_REG;
 509              		.loc 1 269 0
 510 00ce 4FF0030A 		mov	r10, #3
 268:Drivers/BSP/Components/ft5336/ft5336.c ****       regAddressXHigh = FT5336_P1_XH_REG;
 511              		.loc 1 268 0
 512 00d2 0423     		movs	r3, #4
 513              	.LVL34:
 514              	.L30:
 515 00d4 1646     		mov	r6, r2
 516 00d6 0F46     		mov	r7, r1
 517              	.LVL35:
 343:Drivers/BSP/Components/ft5336/ft5336.c ****     coord = (ucReadData & FT5336_TOUCH_POS_LSB_MASK) >> FT5336_TOUCH_POS_LSB_SHIFT;
 518              		.loc 1 343 0
 519 00d8 C4B2     		uxtb	r4, r0
 520 00da 1946     		mov	r1, r3
 521              	.LVL36:
 522 00dc 2046     		mov	r0, r4
 523              	.LVL37:
 524 00de FFF7FEFF 		bl	TS_IO_Read
 525              	.LVL38:
 526 00e2 8DF80700 		strb	r0, [sp, #7]
 344:Drivers/BSP/Components/ft5336/ft5336.c **** 
 527              		.loc 1 344 0
 528 00e6 9DF80730 		ldrb	r3, [sp, #7]	@ zero_extendqisi2
 529 00ea 194D     		ldr	r5, .L43+4
 530 00ec 2B80     		strh	r3, [r5]	@ movhi
 347:Drivers/BSP/Components/ft5336/ft5336.c ****     coord |= ((ucReadData & FT5336_TOUCH_POS_MSB_MASK) >> FT5336_TOUCH_POS_MSB_SHIFT) << 8;
 531              		.loc 1 347 0
 532 00ee 5146     		mov	r1, r10
 533 00f0 2046     		mov	r0, r4
 534 00f2 FFF7FEFF 		bl	TS_IO_Read
 535              	.LVL39:
 536 00f6 8DF80700 		strb	r0, [sp, #7]
 348:Drivers/BSP/Components/ft5336/ft5336.c **** 
 537              		.loc 1 348 0
ARM GAS  C:\Users\Patryk\AppData\Local\Temp\ccHRD7E4.s 			page 22


 538 00fa 9DF80730 		ldrb	r3, [sp, #7]	@ zero_extendqisi2
 539 00fe 1B02     		lsls	r3, r3, #8
 540 0100 03F47063 		and	r3, r3, #3840
 541 0104 2A88     		ldrh	r2, [r5]
 542 0106 1343     		orrs	r3, r3, r2
 543 0108 2B80     		strh	r3, [r5]	@ movhi
 351:Drivers/BSP/Components/ft5336/ft5336.c **** 
 544              		.loc 1 351 0
 545 010a 3B80     		strh	r3, [r7]	@ movhi
 354:Drivers/BSP/Components/ft5336/ft5336.c ****     coord = (ucReadData & FT5336_TOUCH_POS_LSB_MASK) >> FT5336_TOUCH_POS_LSB_SHIFT;
 546              		.loc 1 354 0
 547 010c 4946     		mov	r1, r9
 548 010e 2046     		mov	r0, r4
 549 0110 FFF7FEFF 		bl	TS_IO_Read
 550              	.LVL40:
 551 0114 8DF80700 		strb	r0, [sp, #7]
 355:Drivers/BSP/Components/ft5336/ft5336.c **** 
 552              		.loc 1 355 0
 553 0118 9DF80730 		ldrb	r3, [sp, #7]	@ zero_extendqisi2
 554 011c 2B80     		strh	r3, [r5]	@ movhi
 358:Drivers/BSP/Components/ft5336/ft5336.c ****     coord |= ((ucReadData & FT5336_TOUCH_POS_MSB_MASK) >> FT5336_TOUCH_POS_MSB_SHIFT) << 8;
 555              		.loc 1 358 0
 556 011e 4146     		mov	r1, r8
 557 0120 2046     		mov	r0, r4
 558 0122 FFF7FEFF 		bl	TS_IO_Read
 559              	.LVL41:
 560 0126 8DF80700 		strb	r0, [sp, #7]
 359:Drivers/BSP/Components/ft5336/ft5336.c **** 
 561              		.loc 1 359 0
 562 012a 9DF80730 		ldrb	r3, [sp, #7]	@ zero_extendqisi2
 563 012e 1B02     		lsls	r3, r3, #8
 564 0130 03F47063 		and	r3, r3, #3840
 565 0134 2A88     		ldrh	r2, [r5]
 566 0136 1343     		orrs	r3, r3, r2
 567 0138 2B80     		strh	r3, [r5]	@ movhi
 362:Drivers/BSP/Components/ft5336/ft5336.c **** 
 568              		.loc 1 362 0
 569 013a 3380     		strh	r3, [r6]	@ movhi
 364:Drivers/BSP/Components/ft5336/ft5336.c **** 
 570              		.loc 1 364 0
 571 013c 034A     		ldr	r2, .L43
 572 013e 9378     		ldrb	r3, [r2, #2]	@ zero_extendqisi2
 573 0140 0133     		adds	r3, r3, #1
 574 0142 9370     		strb	r3, [r2, #2]
 575              	.LVL42:
 576              	.L27:
 367:Drivers/BSP/Components/ft5336/ft5336.c **** 
 577              		.loc 1 367 0
 578 0144 02B0     		add	sp, sp, #8
 579              	.LCFI10:
 580              		.cfi_def_cfa_offset 32
 581              		@ sp needed
 582 0146 BDE8F087 		pop	{r4, r5, r6, r7, r8, r9, r10, pc}
 583              	.L44:
 584 014a 00BF     		.align	2
 585              	.L43:
 586 014c 00000000 		.word	.LANCHOR0
ARM GAS  C:\Users\Patryk\AppData\Local\Temp\ccHRD7E4.s 			page 23


 587 0150 00000000 		.word	.LANCHOR1
 588              		.cfi_endproc
 589              	.LFE5:
 591              		.section	.text.ft5336_TS_EnableIT,"ax",%progbits
 592              		.align	1
 593              		.global	ft5336_TS_EnableIT
 594              		.syntax unified
 595              		.thumb
 596              		.thumb_func
 597              		.fpu fpv5-sp-d16
 599              	ft5336_TS_EnableIT:
 600              	.LFB6:
 376:Drivers/BSP/Components/ft5336/ft5336.c ****    uint8_t regValue = 0;
 601              		.loc 1 376 0
 602              		.cfi_startproc
 603              		@ args = 0, pretend = 0, frame = 0
 604              		@ frame_needed = 0, uses_anonymous_args = 0
 605              	.LVL43:
 606 0000 08B5     		push	{r3, lr}
 607              	.LCFI11:
 608              		.cfi_def_cfa_offset 8
 609              		.cfi_offset 3, -8
 610              		.cfi_offset 14, -4
 611              	.LVL44:
 381:Drivers/BSP/Components/ft5336/ft5336.c **** }
 612              		.loc 1 381 0
 613 0002 0122     		movs	r2, #1
 614 0004 A421     		movs	r1, #164
 615 0006 C0B2     		uxtb	r0, r0
 616              	.LVL45:
 617 0008 FFF7FEFF 		bl	TS_IO_Write
 618              	.LVL46:
 382:Drivers/BSP/Components/ft5336/ft5336.c **** 
 619              		.loc 1 382 0
 620 000c 08BD     		pop	{r3, pc}
 621              		.cfi_endproc
 622              	.LFE6:
 624              		.section	.text.ft5336_TS_DisableIT,"ax",%progbits
 625              		.align	1
 626              		.global	ft5336_TS_DisableIT
 627              		.syntax unified
 628              		.thumb
 629              		.thumb_func
 630              		.fpu fpv5-sp-d16
 632              	ft5336_TS_DisableIT:
 633              	.LFB7:
 391:Drivers/BSP/Components/ft5336/ft5336.c ****   uint8_t regValue = 0;
 634              		.loc 1 391 0
 635              		.cfi_startproc
 636              		@ args = 0, pretend = 0, frame = 0
 637              		@ frame_needed = 0, uses_anonymous_args = 0
 638              	.LVL47:
 639 0000 08B5     		push	{r3, lr}
 640              	.LCFI12:
 641              		.cfi_def_cfa_offset 8
 642              		.cfi_offset 3, -8
 643              		.cfi_offset 14, -4
ARM GAS  C:\Users\Patryk\AppData\Local\Temp\ccHRD7E4.s 			page 24


 644              	.LVL48:
 396:Drivers/BSP/Components/ft5336/ft5336.c **** }
 645              		.loc 1 396 0
 646 0002 0022     		movs	r2, #0
 647 0004 A421     		movs	r1, #164
 648 0006 C0B2     		uxtb	r0, r0
 649              	.LVL49:
 650 0008 FFF7FEFF 		bl	TS_IO_Write
 651              	.LVL50:
 397:Drivers/BSP/Components/ft5336/ft5336.c **** 
 652              		.loc 1 397 0
 653 000c 08BD     		pop	{r3, pc}
 654              		.cfi_endproc
 655              	.LFE7:
 657              		.section	.text.ft5336_TS_Start,"ax",%progbits
 658              		.align	1
 659              		.global	ft5336_TS_Start
 660              		.syntax unified
 661              		.thumb
 662              		.thumb_func
 663              		.fpu fpv5-sp-d16
 665              	ft5336_TS_Start:
 666              	.LFB3:
 206:Drivers/BSP/Components/ft5336/ft5336.c ****   /* Minimum static configuration of FT5336 */
 667              		.loc 1 206 0
 668              		.cfi_startproc
 669              		@ args = 0, pretend = 0, frame = 0
 670              		@ frame_needed = 0, uses_anonymous_args = 0
 671              	.LVL51:
 672 0000 08B5     		push	{r3, lr}
 673              	.LCFI13:
 674              		.cfi_def_cfa_offset 8
 675              		.cfi_offset 3, -8
 676              		.cfi_offset 14, -4
 212:Drivers/BSP/Components/ft5336/ft5336.c **** }
 677              		.loc 1 212 0
 678 0002 FFF7FEFF 		bl	ft5336_TS_DisableIT
 679              	.LVL52:
 213:Drivers/BSP/Components/ft5336/ft5336.c **** 
 680              		.loc 1 213 0
 681 0006 08BD     		pop	{r3, pc}
 682              		.cfi_endproc
 683              	.LFE3:
 685              		.section	.text.ft5336_TS_GetGestureID,"ax",%progbits
 686              		.align	1
 687              		.global	ft5336_TS_GetGestureID
 688              		.syntax unified
 689              		.thumb
 690              		.thumb_func
 691              		.fpu fpv5-sp-d16
 693              	ft5336_TS_GetGestureID:
 694              	.LFB10:
 436:Drivers/BSP/Components/ft5336/ft5336.c ****   volatile uint8_t ucReadData = 0;
 695              		.loc 1 436 0
 696              		.cfi_startproc
 697              		@ args = 0, pretend = 0, frame = 8
 698              		@ frame_needed = 0, uses_anonymous_args = 0
ARM GAS  C:\Users\Patryk\AppData\Local\Temp\ccHRD7E4.s 			page 25


 699              	.LVL53:
 700 0000 10B5     		push	{r4, lr}
 701              	.LCFI14:
 702              		.cfi_def_cfa_offset 8
 703              		.cfi_offset 4, -8
 704              		.cfi_offset 14, -4
 705 0002 82B0     		sub	sp, sp, #8
 706              	.LCFI15:
 707              		.cfi_def_cfa_offset 16
 708 0004 0C46     		mov	r4, r1
 437:Drivers/BSP/Components/ft5336/ft5336.c **** 
 709              		.loc 1 437 0
 710 0006 0023     		movs	r3, #0
 711 0008 8DF80730 		strb	r3, [sp, #7]
 439:Drivers/BSP/Components/ft5336/ft5336.c **** 
 712              		.loc 1 439 0
 713 000c 0121     		movs	r1, #1
 714              	.LVL54:
 715 000e C0B2     		uxtb	r0, r0
 716              	.LVL55:
 717 0010 FFF7FEFF 		bl	TS_IO_Read
 718              	.LVL56:
 719 0014 8DF80700 		strb	r0, [sp, #7]
 441:Drivers/BSP/Components/ft5336/ft5336.c **** }
 720              		.loc 1 441 0
 721 0018 9DF80730 		ldrb	r3, [sp, #7]	@ zero_extendqisi2
 722 001c 2360     		str	r3, [r4]
 442:Drivers/BSP/Components/ft5336/ft5336.c **** 
 723              		.loc 1 442 0
 724 001e 02B0     		add	sp, sp, #8
 725              	.LCFI16:
 726              		.cfi_def_cfa_offset 8
 727              		@ sp needed
 728 0020 10BD     		pop	{r4, pc}
 729              		.cfi_endproc
 730              	.LFE10:
 732              		.section	.text.ft5336_TS_GetTouchInfo,"ax",%progbits
 733              		.align	1
 734              		.global	ft5336_TS_GetTouchInfo
 735              		.syntax unified
 736              		.thumb
 737              		.thumb_func
 738              		.fpu fpv5-sp-d16
 740              	ft5336_TS_GetTouchInfo:
 741              	.LFB11:
 464:Drivers/BSP/Components/ft5336/ft5336.c ****   volatile uint8_t ucReadData = 0;
 742              		.loc 1 464 0
 743              		.cfi_startproc
 744              		@ args = 4, pretend = 0, frame = 8
 745              		@ frame_needed = 0, uses_anonymous_args = 0
 746              	.LVL57:
 747 0000 2DE9F041 		push	{r4, r5, r6, r7, r8, lr}
 748              	.LCFI17:
 749              		.cfi_def_cfa_offset 24
 750              		.cfi_offset 4, -24
 751              		.cfi_offset 5, -20
 752              		.cfi_offset 6, -16
ARM GAS  C:\Users\Patryk\AppData\Local\Temp\ccHRD7E4.s 			page 26


 753              		.cfi_offset 7, -12
 754              		.cfi_offset 8, -8
 755              		.cfi_offset 14, -4
 756 0004 82B0     		sub	sp, sp, #8
 757              	.LCFI18:
 758              		.cfi_def_cfa_offset 32
 465:Drivers/BSP/Components/ft5336/ft5336.c ****   uint8_t regAddressXHigh = 0;
 759              		.loc 1 465 0
 760 0006 0024     		movs	r4, #0
 761 0008 8DF80740 		strb	r4, [sp, #7]
 762              	.LVL58:
 470:Drivers/BSP/Components/ft5336/ft5336.c ****   {
 763              		.loc 1 470 0
 764 000c 334C     		ldr	r4, .L69
 765 000e 6478     		ldrb	r4, [r4, #1]	@ zero_extendqisi2
 766 0010 8C42     		cmp	r4, r1
 767 0012 5FD9     		bls	.L53
 472:Drivers/BSP/Components/ft5336/ft5336.c ****     {
 768              		.loc 1 472 0
 769 0014 0929     		cmp	r1, #9
 770 0016 06D8     		bhi	.L55
 771 0018 DFE801F0 		tbb	[pc, r1]
 772              	.L57:
 773 001c 36       		.byte	(.L67-.L57)/2
 774 001d 09       		.byte	(.L58-.L57)/2
 775 001e 0E       		.byte	(.L59-.L57)/2
 776 001f 13       		.byte	(.L60-.L57)/2
 777 0020 18       		.byte	(.L61-.L57)/2
 778 0021 1D       		.byte	(.L62-.L57)/2
 779 0022 22       		.byte	(.L63-.L57)/2
 780 0023 27       		.byte	(.L64-.L57)/2
 781 0024 2C       		.byte	(.L65-.L57)/2
 782 0025 31       		.byte	(.L66-.L57)/2
 783              		.p2align 1
 784              	.L55:
 468:Drivers/BSP/Components/ft5336/ft5336.c **** 
 785              		.loc 1 468 0
 786 0026 0027     		movs	r7, #0
 467:Drivers/BSP/Components/ft5336/ft5336.c ****   uint8_t regAddressPMisc = 0;
 787              		.loc 1 467 0
 788 0028 B846     		mov	r8, r7
 466:Drivers/BSP/Components/ft5336/ft5336.c ****   uint8_t regAddressPWeight = 0;
 789              		.loc 1 466 0
 790 002a 3946     		mov	r1, r7
 791              	.LVL59:
 792 002c 30E0     		b	.L56
 793              	.LVL60:
 794              	.L58:
 483:Drivers/BSP/Components/ft5336/ft5336.c ****       break;
 795              		.loc 1 483 0
 796 002e 0E27     		movs	r7, #14
 482:Drivers/BSP/Components/ft5336/ft5336.c ****       regAddressPMisc   = FT5336_P2_MISC_REG;
 797              		.loc 1 482 0
 798 0030 4FF00D08 		mov	r8, #13
 481:Drivers/BSP/Components/ft5336/ft5336.c ****       regAddressPWeight = FT5336_P2_WEIGHT_REG;
 799              		.loc 1 481 0
 800 0034 0921     		movs	r1, #9
ARM GAS  C:\Users\Patryk\AppData\Local\Temp\ccHRD7E4.s 			page 27


 801              	.LVL61:
 484:Drivers/BSP/Components/ft5336/ft5336.c **** 
 802              		.loc 1 484 0
 803 0036 2BE0     		b	.L56
 804              	.LVL62:
 805              	.L59:
 489:Drivers/BSP/Components/ft5336/ft5336.c ****       break;
 806              		.loc 1 489 0
 807 0038 1427     		movs	r7, #20
 488:Drivers/BSP/Components/ft5336/ft5336.c ****       regAddressPMisc   = FT5336_P3_MISC_REG;
 808              		.loc 1 488 0
 809 003a 4FF01308 		mov	r8, #19
 487:Drivers/BSP/Components/ft5336/ft5336.c ****       regAddressPWeight = FT5336_P3_WEIGHT_REG;
 810              		.loc 1 487 0
 811 003e 0F21     		movs	r1, #15
 812              	.LVL63:
 490:Drivers/BSP/Components/ft5336/ft5336.c **** 
 813              		.loc 1 490 0
 814 0040 26E0     		b	.L56
 815              	.LVL64:
 816              	.L60:
 495:Drivers/BSP/Components/ft5336/ft5336.c ****       break;
 817              		.loc 1 495 0
 818 0042 1A27     		movs	r7, #26
 494:Drivers/BSP/Components/ft5336/ft5336.c ****       regAddressPMisc   = FT5336_P4_MISC_REG;
 819              		.loc 1 494 0
 820 0044 4FF01908 		mov	r8, #25
 493:Drivers/BSP/Components/ft5336/ft5336.c ****       regAddressPWeight = FT5336_P4_WEIGHT_REG;
 821              		.loc 1 493 0
 822 0048 1521     		movs	r1, #21
 823              	.LVL65:
 496:Drivers/BSP/Components/ft5336/ft5336.c **** 
 824              		.loc 1 496 0
 825 004a 21E0     		b	.L56
 826              	.LVL66:
 827              	.L61:
 501:Drivers/BSP/Components/ft5336/ft5336.c ****       break;
 828              		.loc 1 501 0
 829 004c 2027     		movs	r7, #32
 500:Drivers/BSP/Components/ft5336/ft5336.c ****       regAddressPMisc   = FT5336_P5_MISC_REG;
 830              		.loc 1 500 0
 831 004e 4FF01F08 		mov	r8, #31
 499:Drivers/BSP/Components/ft5336/ft5336.c ****       regAddressPWeight = FT5336_P5_WEIGHT_REG;
 832              		.loc 1 499 0
 833 0052 1B21     		movs	r1, #27
 834              	.LVL67:
 502:Drivers/BSP/Components/ft5336/ft5336.c **** 
 835              		.loc 1 502 0
 836 0054 1CE0     		b	.L56
 837              	.LVL68:
 838              	.L62:
 507:Drivers/BSP/Components/ft5336/ft5336.c ****       break;
 839              		.loc 1 507 0
 840 0056 2627     		movs	r7, #38
 506:Drivers/BSP/Components/ft5336/ft5336.c ****       regAddressPMisc   = FT5336_P6_MISC_REG;
 841              		.loc 1 506 0
 842 0058 4FF02508 		mov	r8, #37
ARM GAS  C:\Users\Patryk\AppData\Local\Temp\ccHRD7E4.s 			page 28


 505:Drivers/BSP/Components/ft5336/ft5336.c ****       regAddressPWeight = FT5336_P6_WEIGHT_REG;
 843              		.loc 1 505 0
 844 005c 2121     		movs	r1, #33
 845              	.LVL69:
 508:Drivers/BSP/Components/ft5336/ft5336.c **** 
 846              		.loc 1 508 0
 847 005e 17E0     		b	.L56
 848              	.LVL70:
 849              	.L63:
 513:Drivers/BSP/Components/ft5336/ft5336.c ****       break;
 850              		.loc 1 513 0
 851 0060 2C27     		movs	r7, #44
 512:Drivers/BSP/Components/ft5336/ft5336.c ****       regAddressPMisc   = FT5336_P7_MISC_REG;
 852              		.loc 1 512 0
 853 0062 4FF02B08 		mov	r8, #43
 511:Drivers/BSP/Components/ft5336/ft5336.c ****       regAddressPWeight = FT5336_P7_WEIGHT_REG;
 854              		.loc 1 511 0
 855 0066 2721     		movs	r1, #39
 856              	.LVL71:
 514:Drivers/BSP/Components/ft5336/ft5336.c **** 
 857              		.loc 1 514 0
 858 0068 12E0     		b	.L56
 859              	.LVL72:
 860              	.L64:
 519:Drivers/BSP/Components/ft5336/ft5336.c ****       break;
 861              		.loc 1 519 0
 862 006a 3227     		movs	r7, #50
 518:Drivers/BSP/Components/ft5336/ft5336.c ****       regAddressPMisc   = FT5336_P8_MISC_REG;
 863              		.loc 1 518 0
 864 006c 4FF03108 		mov	r8, #49
 517:Drivers/BSP/Components/ft5336/ft5336.c ****       regAddressPWeight = FT5336_P8_WEIGHT_REG;
 865              		.loc 1 517 0
 866 0070 2D21     		movs	r1, #45
 867              	.LVL73:
 520:Drivers/BSP/Components/ft5336/ft5336.c **** 
 868              		.loc 1 520 0
 869 0072 0DE0     		b	.L56
 870              	.LVL74:
 871              	.L65:
 525:Drivers/BSP/Components/ft5336/ft5336.c ****       break;
 872              		.loc 1 525 0
 873 0074 3827     		movs	r7, #56
 524:Drivers/BSP/Components/ft5336/ft5336.c ****       regAddressPMisc   = FT5336_P9_MISC_REG;
 874              		.loc 1 524 0
 875 0076 4FF03708 		mov	r8, #55
 523:Drivers/BSP/Components/ft5336/ft5336.c ****       regAddressPWeight = FT5336_P9_WEIGHT_REG;
 876              		.loc 1 523 0
 877 007a 3321     		movs	r1, #51
 878              	.LVL75:
 526:Drivers/BSP/Components/ft5336/ft5336.c **** 
 879              		.loc 1 526 0
 880 007c 08E0     		b	.L56
 881              	.LVL76:
 882              	.L66:
 531:Drivers/BSP/Components/ft5336/ft5336.c ****       break;
 883              		.loc 1 531 0
 884 007e 3E27     		movs	r7, #62
ARM GAS  C:\Users\Patryk\AppData\Local\Temp\ccHRD7E4.s 			page 29


 530:Drivers/BSP/Components/ft5336/ft5336.c ****       regAddressPMisc   = FT5336_P10_MISC_REG;
 885              		.loc 1 530 0
 886 0080 4FF03D08 		mov	r8, #61
 529:Drivers/BSP/Components/ft5336/ft5336.c ****       regAddressPWeight = FT5336_P10_WEIGHT_REG;
 887              		.loc 1 529 0
 888 0084 3921     		movs	r1, #57
 889              	.LVL77:
 532:Drivers/BSP/Components/ft5336/ft5336.c **** 
 890              		.loc 1 532 0
 891 0086 03E0     		b	.L56
 892              	.LVL78:
 893              	.L67:
 477:Drivers/BSP/Components/ft5336/ft5336.c ****       break;
 894              		.loc 1 477 0
 895 0088 0827     		movs	r7, #8
 476:Drivers/BSP/Components/ft5336/ft5336.c ****       regAddressPMisc   = FT5336_P1_MISC_REG;
 896              		.loc 1 476 0
 897 008a 4FF00708 		mov	r8, #7
 475:Drivers/BSP/Components/ft5336/ft5336.c ****       regAddressPWeight = FT5336_P1_WEIGHT_REG;
 898              		.loc 1 475 0
 899 008e 0321     		movs	r1, #3
 900              	.LVL79:
 901              	.L56:
 902 0090 1D46     		mov	r5, r3
 903 0092 1646     		mov	r6, r2
 904              	.LVL80:
 540:Drivers/BSP/Components/ft5336/ft5336.c ****     * pEvent = (ucReadData & FT5336_TOUCH_EVT_FLAG_MASK) >> FT5336_TOUCH_EVT_FLAG_SHIFT;
 905              		.loc 1 540 0
 906 0094 C4B2     		uxtb	r4, r0
 907 0096 2046     		mov	r0, r4
 908              	.LVL81:
 909 0098 FFF7FEFF 		bl	TS_IO_Read
 910              	.LVL82:
 911 009c 8DF80700 		strb	r0, [sp, #7]
 541:Drivers/BSP/Components/ft5336/ft5336.c **** 
 912              		.loc 1 541 0
 913 00a0 9DF80730 		ldrb	r3, [sp, #7]	@ zero_extendqisi2
 914 00a4 9B09     		lsrs	r3, r3, #6
 915 00a6 089A     		ldr	r2, [sp, #32]
 916 00a8 1360     		str	r3, [r2]
 544:Drivers/BSP/Components/ft5336/ft5336.c ****     * pWeight = (ucReadData & FT5336_TOUCH_WEIGHT_MASK) >> FT5336_TOUCH_WEIGHT_SHIFT;
 917              		.loc 1 544 0
 918 00aa 4146     		mov	r1, r8
 919 00ac 2046     		mov	r0, r4
 920 00ae FFF7FEFF 		bl	TS_IO_Read
 921              	.LVL83:
 922 00b2 8DF80700 		strb	r0, [sp, #7]
 545:Drivers/BSP/Components/ft5336/ft5336.c **** 
 923              		.loc 1 545 0
 924 00b6 9DF80730 		ldrb	r3, [sp, #7]	@ zero_extendqisi2
 925 00ba 3360     		str	r3, [r6]
 548:Drivers/BSP/Components/ft5336/ft5336.c ****     * pArea = (ucReadData & FT5336_TOUCH_AREA_MASK) >> FT5336_TOUCH_AREA_SHIFT;
 926              		.loc 1 548 0
 927 00bc 3946     		mov	r1, r7
 928 00be 2046     		mov	r0, r4
 929 00c0 FFF7FEFF 		bl	TS_IO_Read
 930              	.LVL84:
ARM GAS  C:\Users\Patryk\AppData\Local\Temp\ccHRD7E4.s 			page 30


 931 00c4 8DF80700 		strb	r0, [sp, #7]
 549:Drivers/BSP/Components/ft5336/ft5336.c **** 
 932              		.loc 1 549 0
 933 00c8 9DF80720 		ldrb	r2, [sp, #7]	@ zero_extendqisi2
 934 00cc 1209     		lsrs	r2, r2, #4
 935 00ce 02F00402 		and	r2, r2, #4
 936 00d2 2A60     		str	r2, [r5]
 937              	.LVL85:
 938              	.L53:
 552:Drivers/BSP/Components/ft5336/ft5336.c **** 
 939              		.loc 1 552 0
 940 00d4 02B0     		add	sp, sp, #8
 941              	.LCFI19:
 942              		.cfi_def_cfa_offset 24
 943              		@ sp needed
 944 00d6 BDE8F081 		pop	{r4, r5, r6, r7, r8, pc}
 945              	.LVL86:
 946              	.L70:
 947 00da 00BF     		.align	2
 948              	.L69:
 949 00dc 00000000 		.word	.LANCHOR0
 950              		.cfi_endproc
 951              	.LFE11:
 953              		.global	ft5336_ts_drv
 954              		.section	.bss.coord.5529,"aw",%nobits
 955              		.align	1
 956              		.set	.LANCHOR1,. + 0
 959              	coord.5529:
 960 0000 0000     		.space	2
 961              		.section	.bss.ft5336_handle,"aw",%nobits
 962              		.align	2
 963              		.set	.LANCHOR0,. + 0
 966              	ft5336_handle:
 967 0000 000000   		.space	3
 968              		.section	.data.ft5336_ts_drv,"aw",%progbits
 969              		.align	2
 972              	ft5336_ts_drv:
 973 0000 00000000 		.word	ft5336_Init
 974 0004 00000000 		.word	ft5336_ReadID
 975 0008 00000000 		.word	ft5336_Reset
 976 000c 00000000 		.word	ft5336_TS_Start
 977 0010 00000000 		.word	ft5336_TS_DetectTouch
 978 0014 00000000 		.word	ft5336_TS_GetXY
 979 0018 00000000 		.word	ft5336_TS_EnableIT
 980 001c 00000000 		.word	ft5336_TS_ClearIT
 981 0020 00000000 		.word	ft5336_TS_ITStatus
 982 0024 00000000 		.word	ft5336_TS_DisableIT
 983              		.text
 984              	.Letext0:
 985              		.file 2 "c:\\program files (x86)\\gnu\\7_2018-q2-update\\arm-none-eabi\\include\\machine\\_default
 986              		.file 3 "c:\\program files (x86)\\gnu\\7_2018-q2-update\\arm-none-eabi\\include\\sys\\_stdint.h"
 987              		.file 4 "Drivers/BSP/Components/ft5336/../Common/ts.h"
 988              		.file 5 "Drivers/BSP/Components/ft5336/ft5336.h"
ARM GAS  C:\Users\Patryk\AppData\Local\Temp\ccHRD7E4.s 			page 31


DEFINED SYMBOLS
                            *ABS*:00000000 ft5336.c
C:\Users\Patryk\AppData\Local\Temp\ccHRD7E4.s:18     .text.ft5336_Reset:00000000 $t
C:\Users\Patryk\AppData\Local\Temp\ccHRD7E4.s:25     .text.ft5336_Reset:00000000 ft5336_Reset
C:\Users\Patryk\AppData\Local\Temp\ccHRD7E4.s:40     .text.ft5336_TS_ITStatus:00000000 $t
C:\Users\Patryk\AppData\Local\Temp\ccHRD7E4.s:47     .text.ft5336_TS_ITStatus:00000000 ft5336_TS_ITStatus
C:\Users\Patryk\AppData\Local\Temp\ccHRD7E4.s:63     .text.ft5336_TS_ClearIT:00000000 $t
C:\Users\Patryk\AppData\Local\Temp\ccHRD7E4.s:70     .text.ft5336_TS_ClearIT:00000000 ft5336_TS_ClearIT
C:\Users\Patryk\AppData\Local\Temp\ccHRD7E4.s:84     .text.ft5336_Get_I2C_InitializedStatus:00000000 $t
C:\Users\Patryk\AppData\Local\Temp\ccHRD7E4.s:90     .text.ft5336_Get_I2C_InitializedStatus:00000000 ft5336_Get_I2C_InitializedStatus
C:\Users\Patryk\AppData\Local\Temp\ccHRD7E4.s:104    .text.ft5336_Get_I2C_InitializedStatus:00000008 $d
C:\Users\Patryk\AppData\Local\Temp\ccHRD7E4.s:109    .text.ft5336_I2C_InitializeIfRequired:00000000 $t
C:\Users\Patryk\AppData\Local\Temp\ccHRD7E4.s:115    .text.ft5336_I2C_InitializeIfRequired:00000000 ft5336_I2C_InitializeIfRequired
C:\Users\Patryk\AppData\Local\Temp\ccHRD7E4.s:146    .text.ft5336_I2C_InitializeIfRequired:00000018 $d
C:\Users\Patryk\AppData\Local\Temp\ccHRD7E4.s:151    .text.ft5336_Init:00000000 $t
C:\Users\Patryk\AppData\Local\Temp\ccHRD7E4.s:158    .text.ft5336_Init:00000000 ft5336_Init
C:\Users\Patryk\AppData\Local\Temp\ccHRD7E4.s:184    .text.ft5336_ReadID:00000000 $t
C:\Users\Patryk\AppData\Local\Temp\ccHRD7E4.s:191    .text.ft5336_ReadID:00000000 ft5336_ReadID
C:\Users\Patryk\AppData\Local\Temp\ccHRD7E4.s:264    .text.ft5336_TS_DetectTouch:00000000 $t
C:\Users\Patryk\AppData\Local\Temp\ccHRD7E4.s:271    .text.ft5336_TS_DetectTouch:00000000 ft5336_TS_DetectTouch
C:\Users\Patryk\AppData\Local\Temp\ccHRD7E4.s:326    .text.ft5336_TS_DetectTouch:00000048 $d
C:\Users\Patryk\AppData\Local\Temp\ccHRD7E4.s:331    .text.ft5336_TS_GetXY:00000000 $t
C:\Users\Patryk\AppData\Local\Temp\ccHRD7E4.s:338    .text.ft5336_TS_GetXY:00000000 ft5336_TS_GetXY
C:\Users\Patryk\AppData\Local\Temp\ccHRD7E4.s:374    .text.ft5336_TS_GetXY:00000020 $d
C:\Users\Patryk\AppData\Local\Temp\ccHRD7E4.s:384    .text.ft5336_TS_GetXY:0000002a $t
C:\Users\Patryk\AppData\Local\Temp\ccHRD7E4.s:586    .text.ft5336_TS_GetXY:0000014c $d
C:\Users\Patryk\AppData\Local\Temp\ccHRD7E4.s:592    .text.ft5336_TS_EnableIT:00000000 $t
C:\Users\Patryk\AppData\Local\Temp\ccHRD7E4.s:599    .text.ft5336_TS_EnableIT:00000000 ft5336_TS_EnableIT
C:\Users\Patryk\AppData\Local\Temp\ccHRD7E4.s:625    .text.ft5336_TS_DisableIT:00000000 $t
C:\Users\Patryk\AppData\Local\Temp\ccHRD7E4.s:632    .text.ft5336_TS_DisableIT:00000000 ft5336_TS_DisableIT
C:\Users\Patryk\AppData\Local\Temp\ccHRD7E4.s:658    .text.ft5336_TS_Start:00000000 $t
C:\Users\Patryk\AppData\Local\Temp\ccHRD7E4.s:665    .text.ft5336_TS_Start:00000000 ft5336_TS_Start
C:\Users\Patryk\AppData\Local\Temp\ccHRD7E4.s:686    .text.ft5336_TS_GetGestureID:00000000 $t
C:\Users\Patryk\AppData\Local\Temp\ccHRD7E4.s:693    .text.ft5336_TS_GetGestureID:00000000 ft5336_TS_GetGestureID
C:\Users\Patryk\AppData\Local\Temp\ccHRD7E4.s:733    .text.ft5336_TS_GetTouchInfo:00000000 $t
C:\Users\Patryk\AppData\Local\Temp\ccHRD7E4.s:740    .text.ft5336_TS_GetTouchInfo:00000000 ft5336_TS_GetTouchInfo
C:\Users\Patryk\AppData\Local\Temp\ccHRD7E4.s:773    .text.ft5336_TS_GetTouchInfo:0000001c $d
C:\Users\Patryk\AppData\Local\Temp\ccHRD7E4.s:783    .text.ft5336_TS_GetTouchInfo:00000026 $t
C:\Users\Patryk\AppData\Local\Temp\ccHRD7E4.s:949    .text.ft5336_TS_GetTouchInfo:000000dc $d
C:\Users\Patryk\AppData\Local\Temp\ccHRD7E4.s:972    .data.ft5336_ts_drv:00000000 ft5336_ts_drv
C:\Users\Patryk\AppData\Local\Temp\ccHRD7E4.s:955    .bss.coord.5529:00000000 $d
C:\Users\Patryk\AppData\Local\Temp\ccHRD7E4.s:959    .bss.coord.5529:00000000 coord.5529
C:\Users\Patryk\AppData\Local\Temp\ccHRD7E4.s:962    .bss.ft5336_handle:00000000 $d
C:\Users\Patryk\AppData\Local\Temp\ccHRD7E4.s:966    .bss.ft5336_handle:00000000 ft5336_handle
C:\Users\Patryk\AppData\Local\Temp\ccHRD7E4.s:969    .data.ft5336_ts_drv:00000000 $d

UNDEFINED SYMBOLS
TS_IO_Init
TS_IO_Delay
TS_IO_Read
TS_IO_Write
