ARM GAS  C:\Users\Patryk\AppData\Local\Temp\ccsBmcHg.s 			page 1


   1              		.cpu cortex-m7
   2              		.eabi_attribute 27, 1
   3              		.eabi_attribute 28, 1
   4              		.eabi_attribute 20, 1
   5              		.eabi_attribute 21, 1
   6              		.eabi_attribute 23, 3
   7              		.eabi_attribute 24, 1
   8              		.eabi_attribute 25, 1
   9              		.eabi_attribute 26, 1
  10              		.eabi_attribute 30, 1
  11              		.eabi_attribute 34, 1
  12              		.eabi_attribute 18, 4
  13              		.file	"icmp.c"
  14              		.text
  15              	.Ltext0:
  16              		.cfi_sections	.debug_frame
  17              		.section	.text.icmp_send_response,"ax",%progbits
  18              		.align	1
  19              		.syntax unified
  20              		.thumb
  21              		.thumb_func
  22              		.fpu fpv5-sp-d16
  24              	icmp_send_response:
  25              	.LFB157:
  26              		.file 1 "Middlewares/Third_Party/LwIP/src/core/ipv4/icmp.c"
   1:Middlewares/Third_Party/LwIP/src/core/ipv4/icmp.c **** /**
   2:Middlewares/Third_Party/LwIP/src/core/ipv4/icmp.c ****  * @file
   3:Middlewares/Third_Party/LwIP/src/core/ipv4/icmp.c ****  * ICMP - Internet Control Message Protocol
   4:Middlewares/Third_Party/LwIP/src/core/ipv4/icmp.c ****  *
   5:Middlewares/Third_Party/LwIP/src/core/ipv4/icmp.c ****  */
   6:Middlewares/Third_Party/LwIP/src/core/ipv4/icmp.c **** 
   7:Middlewares/Third_Party/LwIP/src/core/ipv4/icmp.c **** /*
   8:Middlewares/Third_Party/LwIP/src/core/ipv4/icmp.c ****  * Copyright (c) 2001-2004 Swedish Institute of Computer Science.
   9:Middlewares/Third_Party/LwIP/src/core/ipv4/icmp.c ****  * All rights reserved.
  10:Middlewares/Third_Party/LwIP/src/core/ipv4/icmp.c ****  *
  11:Middlewares/Third_Party/LwIP/src/core/ipv4/icmp.c ****  * Redistribution and use in source and binary forms, with or without modification,
  12:Middlewares/Third_Party/LwIP/src/core/ipv4/icmp.c ****  * are permitted provided that the following conditions are met:
  13:Middlewares/Third_Party/LwIP/src/core/ipv4/icmp.c ****  *
  14:Middlewares/Third_Party/LwIP/src/core/ipv4/icmp.c ****  * 1. Redistributions of source code must retain the above copyright notice,
  15:Middlewares/Third_Party/LwIP/src/core/ipv4/icmp.c ****  *    this list of conditions and the following disclaimer.
  16:Middlewares/Third_Party/LwIP/src/core/ipv4/icmp.c ****  * 2. Redistributions in binary form must reproduce the above copyright notice,
  17:Middlewares/Third_Party/LwIP/src/core/ipv4/icmp.c ****  *    this list of conditions and the following disclaimer in the documentation
  18:Middlewares/Third_Party/LwIP/src/core/ipv4/icmp.c ****  *    and/or other materials provided with the distribution.
  19:Middlewares/Third_Party/LwIP/src/core/ipv4/icmp.c ****  * 3. The name of the author may not be used to endorse or promote products
  20:Middlewares/Third_Party/LwIP/src/core/ipv4/icmp.c ****  *    derived from this software without specific prior written permission.
  21:Middlewares/Third_Party/LwIP/src/core/ipv4/icmp.c ****  *
  22:Middlewares/Third_Party/LwIP/src/core/ipv4/icmp.c ****  * THIS SOFTWARE IS PROVIDED BY THE AUTHOR ``AS IS'' AND ANY EXPRESS OR IMPLIED
  23:Middlewares/Third_Party/LwIP/src/core/ipv4/icmp.c ****  * WARRANTIES, INCLUDING, BUT NOT LIMITED TO, THE IMPLIED WARRANTIES OF
  24:Middlewares/Third_Party/LwIP/src/core/ipv4/icmp.c ****  * MERCHANTABILITY AND FITNESS FOR A PARTICULAR PURPOSE ARE DISCLAIMED. IN NO EVENT
  25:Middlewares/Third_Party/LwIP/src/core/ipv4/icmp.c ****  * SHALL THE AUTHOR BE LIABLE FOR ANY DIRECT, INDIRECT, INCIDENTAL, SPECIAL,
  26:Middlewares/Third_Party/LwIP/src/core/ipv4/icmp.c ****  * EXEMPLARY, OR CONSEQUENTIAL DAMAGES (INCLUDING, BUT NOT LIMITED TO, PROCUREMENT
  27:Middlewares/Third_Party/LwIP/src/core/ipv4/icmp.c ****  * OF SUBSTITUTE GOODS OR SERVICES; LOSS OF USE, DATA, OR PROFITS; OR BUSINESS
  28:Middlewares/Third_Party/LwIP/src/core/ipv4/icmp.c ****  * INTERRUPTION) HOWEVER CAUSED AND ON ANY THEORY OF LIABILITY, WHETHER IN
  29:Middlewares/Third_Party/LwIP/src/core/ipv4/icmp.c ****  * CONTRACT, STRICT LIABILITY, OR TORT (INCLUDING NEGLIGENCE OR OTHERWISE) ARISING
  30:Middlewares/Third_Party/LwIP/src/core/ipv4/icmp.c ****  * IN ANY WAY OUT OF THE USE OF THIS SOFTWARE, EVEN IF ADVISED OF THE POSSIBILITY
  31:Middlewares/Third_Party/LwIP/src/core/ipv4/icmp.c ****  * OF SUCH DAMAGE.
  32:Middlewares/Third_Party/LwIP/src/core/ipv4/icmp.c ****  *
ARM GAS  C:\Users\Patryk\AppData\Local\Temp\ccsBmcHg.s 			page 2


  33:Middlewares/Third_Party/LwIP/src/core/ipv4/icmp.c ****  * This file is part of the lwIP TCP/IP stack.
  34:Middlewares/Third_Party/LwIP/src/core/ipv4/icmp.c ****  *
  35:Middlewares/Third_Party/LwIP/src/core/ipv4/icmp.c ****  * Author: Adam Dunkels <adam@sics.se>
  36:Middlewares/Third_Party/LwIP/src/core/ipv4/icmp.c ****  *
  37:Middlewares/Third_Party/LwIP/src/core/ipv4/icmp.c ****  */
  38:Middlewares/Third_Party/LwIP/src/core/ipv4/icmp.c **** 
  39:Middlewares/Third_Party/LwIP/src/core/ipv4/icmp.c **** /* Some ICMP messages should be passed to the transport protocols. This
  40:Middlewares/Third_Party/LwIP/src/core/ipv4/icmp.c ****    is not implemented. */
  41:Middlewares/Third_Party/LwIP/src/core/ipv4/icmp.c **** 
  42:Middlewares/Third_Party/LwIP/src/core/ipv4/icmp.c **** #include "lwip/opt.h"
  43:Middlewares/Third_Party/LwIP/src/core/ipv4/icmp.c **** 
  44:Middlewares/Third_Party/LwIP/src/core/ipv4/icmp.c **** #if LWIP_IPV4 && LWIP_ICMP /* don't build if not configured for use in lwipopts.h */
  45:Middlewares/Third_Party/LwIP/src/core/ipv4/icmp.c **** 
  46:Middlewares/Third_Party/LwIP/src/core/ipv4/icmp.c **** #include "lwip/icmp.h"
  47:Middlewares/Third_Party/LwIP/src/core/ipv4/icmp.c **** #include "lwip/inet_chksum.h"
  48:Middlewares/Third_Party/LwIP/src/core/ipv4/icmp.c **** #include "lwip/ip.h"
  49:Middlewares/Third_Party/LwIP/src/core/ipv4/icmp.c **** #include "lwip/def.h"
  50:Middlewares/Third_Party/LwIP/src/core/ipv4/icmp.c **** #include "lwip/stats.h"
  51:Middlewares/Third_Party/LwIP/src/core/ipv4/icmp.c **** 
  52:Middlewares/Third_Party/LwIP/src/core/ipv4/icmp.c **** #include <string.h>
  53:Middlewares/Third_Party/LwIP/src/core/ipv4/icmp.c **** 
  54:Middlewares/Third_Party/LwIP/src/core/ipv4/icmp.c **** #ifdef LWIP_HOOK_FILENAME
  55:Middlewares/Third_Party/LwIP/src/core/ipv4/icmp.c **** #include LWIP_HOOK_FILENAME
  56:Middlewares/Third_Party/LwIP/src/core/ipv4/icmp.c **** #endif
  57:Middlewares/Third_Party/LwIP/src/core/ipv4/icmp.c **** 
  58:Middlewares/Third_Party/LwIP/src/core/ipv4/icmp.c **** /** Small optimization: set to 0 if incoming PBUF_POOL pbuf always can be
  59:Middlewares/Third_Party/LwIP/src/core/ipv4/icmp.c ****  * used to modify and send a response packet (and to 1 if this is not the case,
  60:Middlewares/Third_Party/LwIP/src/core/ipv4/icmp.c ****  * e.g. when link header is stripped of when receiving) */
  61:Middlewares/Third_Party/LwIP/src/core/ipv4/icmp.c **** #ifndef LWIP_ICMP_ECHO_CHECK_INPUT_PBUF_LEN
  62:Middlewares/Third_Party/LwIP/src/core/ipv4/icmp.c **** #define LWIP_ICMP_ECHO_CHECK_INPUT_PBUF_LEN 1
  63:Middlewares/Third_Party/LwIP/src/core/ipv4/icmp.c **** #endif /* LWIP_ICMP_ECHO_CHECK_INPUT_PBUF_LEN */
  64:Middlewares/Third_Party/LwIP/src/core/ipv4/icmp.c **** 
  65:Middlewares/Third_Party/LwIP/src/core/ipv4/icmp.c **** /* The amount of data from the original packet to return in a dest-unreachable */
  66:Middlewares/Third_Party/LwIP/src/core/ipv4/icmp.c **** #define ICMP_DEST_UNREACH_DATASIZE 8
  67:Middlewares/Third_Party/LwIP/src/core/ipv4/icmp.c **** 
  68:Middlewares/Third_Party/LwIP/src/core/ipv4/icmp.c **** static void icmp_send_response(struct pbuf *p, u8_t type, u8_t code);
  69:Middlewares/Third_Party/LwIP/src/core/ipv4/icmp.c **** 
  70:Middlewares/Third_Party/LwIP/src/core/ipv4/icmp.c **** /**
  71:Middlewares/Third_Party/LwIP/src/core/ipv4/icmp.c ****  * Processes ICMP input packets, called from ip_input().
  72:Middlewares/Third_Party/LwIP/src/core/ipv4/icmp.c ****  *
  73:Middlewares/Third_Party/LwIP/src/core/ipv4/icmp.c ****  * Currently only processes icmp echo requests and sends
  74:Middlewares/Third_Party/LwIP/src/core/ipv4/icmp.c ****  * out the echo response.
  75:Middlewares/Third_Party/LwIP/src/core/ipv4/icmp.c ****  *
  76:Middlewares/Third_Party/LwIP/src/core/ipv4/icmp.c ****  * @param p the icmp echo request packet, p->payload pointing to the icmp header
  77:Middlewares/Third_Party/LwIP/src/core/ipv4/icmp.c ****  * @param inp the netif on which this packet was received
  78:Middlewares/Third_Party/LwIP/src/core/ipv4/icmp.c ****  */
  79:Middlewares/Third_Party/LwIP/src/core/ipv4/icmp.c **** void
  80:Middlewares/Third_Party/LwIP/src/core/ipv4/icmp.c **** icmp_input(struct pbuf *p, struct netif *inp)
  81:Middlewares/Third_Party/LwIP/src/core/ipv4/icmp.c **** {
  82:Middlewares/Third_Party/LwIP/src/core/ipv4/icmp.c ****   u8_t type;
  83:Middlewares/Third_Party/LwIP/src/core/ipv4/icmp.c **** #ifdef LWIP_DEBUG
  84:Middlewares/Third_Party/LwIP/src/core/ipv4/icmp.c ****   u8_t code;
  85:Middlewares/Third_Party/LwIP/src/core/ipv4/icmp.c **** #endif /* LWIP_DEBUG */
  86:Middlewares/Third_Party/LwIP/src/core/ipv4/icmp.c ****   struct icmp_echo_hdr *iecho;
  87:Middlewares/Third_Party/LwIP/src/core/ipv4/icmp.c ****   const struct ip_hdr *iphdr_in;
  88:Middlewares/Third_Party/LwIP/src/core/ipv4/icmp.c ****   u16_t hlen;
  89:Middlewares/Third_Party/LwIP/src/core/ipv4/icmp.c ****   const ip4_addr_t* src;
ARM GAS  C:\Users\Patryk\AppData\Local\Temp\ccsBmcHg.s 			page 3


  90:Middlewares/Third_Party/LwIP/src/core/ipv4/icmp.c **** 
  91:Middlewares/Third_Party/LwIP/src/core/ipv4/icmp.c ****   ICMP_STATS_INC(icmp.recv);
  92:Middlewares/Third_Party/LwIP/src/core/ipv4/icmp.c ****   MIB2_STATS_INC(mib2.icmpinmsgs);
  93:Middlewares/Third_Party/LwIP/src/core/ipv4/icmp.c **** 
  94:Middlewares/Third_Party/LwIP/src/core/ipv4/icmp.c ****   iphdr_in = ip4_current_header();
  95:Middlewares/Third_Party/LwIP/src/core/ipv4/icmp.c ****   hlen = IPH_HL(iphdr_in) * 4;
  96:Middlewares/Third_Party/LwIP/src/core/ipv4/icmp.c ****   if (hlen < IP_HLEN) {
  97:Middlewares/Third_Party/LwIP/src/core/ipv4/icmp.c ****     LWIP_DEBUGF(ICMP_DEBUG, ("icmp_input: short IP header (%"S16_F" bytes) received\n", hlen));
  98:Middlewares/Third_Party/LwIP/src/core/ipv4/icmp.c ****     goto lenerr;
  99:Middlewares/Third_Party/LwIP/src/core/ipv4/icmp.c ****   }
 100:Middlewares/Third_Party/LwIP/src/core/ipv4/icmp.c ****   if (p->len < sizeof(u16_t)*2) {
 101:Middlewares/Third_Party/LwIP/src/core/ipv4/icmp.c ****     LWIP_DEBUGF(ICMP_DEBUG, ("icmp_input: short ICMP (%"U16_F" bytes) received\n", p->tot_len));
 102:Middlewares/Third_Party/LwIP/src/core/ipv4/icmp.c ****     goto lenerr;
 103:Middlewares/Third_Party/LwIP/src/core/ipv4/icmp.c ****   }
 104:Middlewares/Third_Party/LwIP/src/core/ipv4/icmp.c **** 
 105:Middlewares/Third_Party/LwIP/src/core/ipv4/icmp.c ****   type = *((u8_t *)p->payload);
 106:Middlewares/Third_Party/LwIP/src/core/ipv4/icmp.c **** #ifdef LWIP_DEBUG
 107:Middlewares/Third_Party/LwIP/src/core/ipv4/icmp.c ****   code = *(((u8_t *)p->payload)+1);
 108:Middlewares/Third_Party/LwIP/src/core/ipv4/icmp.c **** #endif /* LWIP_DEBUG */
 109:Middlewares/Third_Party/LwIP/src/core/ipv4/icmp.c ****   switch (type) {
 110:Middlewares/Third_Party/LwIP/src/core/ipv4/icmp.c ****   case ICMP_ER:
 111:Middlewares/Third_Party/LwIP/src/core/ipv4/icmp.c ****     /* This is OK, echo reply might have been parsed by a raw PCB
 112:Middlewares/Third_Party/LwIP/src/core/ipv4/icmp.c ****        (as obviously, an echo request has been sent, too). */
 113:Middlewares/Third_Party/LwIP/src/core/ipv4/icmp.c ****     MIB2_STATS_INC(mib2.icmpinechoreps);
 114:Middlewares/Third_Party/LwIP/src/core/ipv4/icmp.c ****     break;
 115:Middlewares/Third_Party/LwIP/src/core/ipv4/icmp.c ****   case ICMP_ECHO:
 116:Middlewares/Third_Party/LwIP/src/core/ipv4/icmp.c ****     MIB2_STATS_INC(mib2.icmpinechos);
 117:Middlewares/Third_Party/LwIP/src/core/ipv4/icmp.c ****     src = ip4_current_dest_addr();
 118:Middlewares/Third_Party/LwIP/src/core/ipv4/icmp.c ****     /* multicast destination address? */
 119:Middlewares/Third_Party/LwIP/src/core/ipv4/icmp.c ****     if (ip4_addr_ismulticast(ip4_current_dest_addr())) {
 120:Middlewares/Third_Party/LwIP/src/core/ipv4/icmp.c **** #if LWIP_MULTICAST_PING
 121:Middlewares/Third_Party/LwIP/src/core/ipv4/icmp.c ****       /* For multicast, use address of receiving interface as source address */
 122:Middlewares/Third_Party/LwIP/src/core/ipv4/icmp.c ****       src = netif_ip4_addr(inp);
 123:Middlewares/Third_Party/LwIP/src/core/ipv4/icmp.c **** #else /* LWIP_MULTICAST_PING */
 124:Middlewares/Third_Party/LwIP/src/core/ipv4/icmp.c ****       LWIP_DEBUGF(ICMP_DEBUG, ("icmp_input: Not echoing to multicast pings\n"));
 125:Middlewares/Third_Party/LwIP/src/core/ipv4/icmp.c ****       goto icmperr;
 126:Middlewares/Third_Party/LwIP/src/core/ipv4/icmp.c **** #endif /* LWIP_MULTICAST_PING */
 127:Middlewares/Third_Party/LwIP/src/core/ipv4/icmp.c ****     }
 128:Middlewares/Third_Party/LwIP/src/core/ipv4/icmp.c ****     /* broadcast destination address? */
 129:Middlewares/Third_Party/LwIP/src/core/ipv4/icmp.c ****     if (ip4_addr_isbroadcast(ip4_current_dest_addr(), ip_current_netif())) {
 130:Middlewares/Third_Party/LwIP/src/core/ipv4/icmp.c **** #if LWIP_BROADCAST_PING
 131:Middlewares/Third_Party/LwIP/src/core/ipv4/icmp.c ****       /* For broadcast, use address of receiving interface as source address */
 132:Middlewares/Third_Party/LwIP/src/core/ipv4/icmp.c ****       src = netif_ip4_addr(inp);
 133:Middlewares/Third_Party/LwIP/src/core/ipv4/icmp.c **** #else /* LWIP_BROADCAST_PING */
 134:Middlewares/Third_Party/LwIP/src/core/ipv4/icmp.c ****       LWIP_DEBUGF(ICMP_DEBUG, ("icmp_input: Not echoing to broadcast pings\n"));
 135:Middlewares/Third_Party/LwIP/src/core/ipv4/icmp.c ****       goto icmperr;
 136:Middlewares/Third_Party/LwIP/src/core/ipv4/icmp.c **** #endif /* LWIP_BROADCAST_PING */
 137:Middlewares/Third_Party/LwIP/src/core/ipv4/icmp.c ****     }
 138:Middlewares/Third_Party/LwIP/src/core/ipv4/icmp.c ****     LWIP_DEBUGF(ICMP_DEBUG, ("icmp_input: ping\n"));
 139:Middlewares/Third_Party/LwIP/src/core/ipv4/icmp.c ****     if (p->tot_len < sizeof(struct icmp_echo_hdr)) {
 140:Middlewares/Third_Party/LwIP/src/core/ipv4/icmp.c ****       LWIP_DEBUGF(ICMP_DEBUG, ("icmp_input: bad ICMP echo received\n"));
 141:Middlewares/Third_Party/LwIP/src/core/ipv4/icmp.c ****       goto lenerr;
 142:Middlewares/Third_Party/LwIP/src/core/ipv4/icmp.c ****     }
 143:Middlewares/Third_Party/LwIP/src/core/ipv4/icmp.c **** #if CHECKSUM_CHECK_ICMP
 144:Middlewares/Third_Party/LwIP/src/core/ipv4/icmp.c ****     IF__NETIF_CHECKSUM_ENABLED(inp, NETIF_CHECKSUM_CHECK_ICMP) {
 145:Middlewares/Third_Party/LwIP/src/core/ipv4/icmp.c ****       if (inet_chksum_pbuf(p) != 0) {
 146:Middlewares/Third_Party/LwIP/src/core/ipv4/icmp.c ****         LWIP_DEBUGF(ICMP_DEBUG, ("icmp_input: checksum failed for received ICMP echo\n"));
ARM GAS  C:\Users\Patryk\AppData\Local\Temp\ccsBmcHg.s 			page 4


 147:Middlewares/Third_Party/LwIP/src/core/ipv4/icmp.c ****         pbuf_free(p);
 148:Middlewares/Third_Party/LwIP/src/core/ipv4/icmp.c ****         ICMP_STATS_INC(icmp.chkerr);
 149:Middlewares/Third_Party/LwIP/src/core/ipv4/icmp.c ****         MIB2_STATS_INC(mib2.icmpinerrors);
 150:Middlewares/Third_Party/LwIP/src/core/ipv4/icmp.c ****         return;
 151:Middlewares/Third_Party/LwIP/src/core/ipv4/icmp.c ****       }
 152:Middlewares/Third_Party/LwIP/src/core/ipv4/icmp.c ****     }
 153:Middlewares/Third_Party/LwIP/src/core/ipv4/icmp.c **** #endif
 154:Middlewares/Third_Party/LwIP/src/core/ipv4/icmp.c **** #if LWIP_ICMP_ECHO_CHECK_INPUT_PBUF_LEN
 155:Middlewares/Third_Party/LwIP/src/core/ipv4/icmp.c ****     if (pbuf_header(p, (s16_t)(hlen + PBUF_LINK_HLEN + PBUF_LINK_ENCAPSULATION_HLEN))) {
 156:Middlewares/Third_Party/LwIP/src/core/ipv4/icmp.c ****       /* p is not big enough to contain link headers
 157:Middlewares/Third_Party/LwIP/src/core/ipv4/icmp.c ****        * allocate a new one and copy p into it
 158:Middlewares/Third_Party/LwIP/src/core/ipv4/icmp.c ****        */
 159:Middlewares/Third_Party/LwIP/src/core/ipv4/icmp.c ****       struct pbuf *r;
 160:Middlewares/Third_Party/LwIP/src/core/ipv4/icmp.c ****       /* allocate new packet buffer with space for link headers */
 161:Middlewares/Third_Party/LwIP/src/core/ipv4/icmp.c ****       r = pbuf_alloc(PBUF_LINK, p->tot_len + hlen, PBUF_RAM);
 162:Middlewares/Third_Party/LwIP/src/core/ipv4/icmp.c ****       if (r == NULL) {
 163:Middlewares/Third_Party/LwIP/src/core/ipv4/icmp.c ****         LWIP_DEBUGF(ICMP_DEBUG, ("icmp_input: allocating new pbuf failed\n"));
 164:Middlewares/Third_Party/LwIP/src/core/ipv4/icmp.c ****         goto icmperr;
 165:Middlewares/Third_Party/LwIP/src/core/ipv4/icmp.c ****       }
 166:Middlewares/Third_Party/LwIP/src/core/ipv4/icmp.c ****       if (r->len < hlen + sizeof(struct icmp_echo_hdr)) {
 167:Middlewares/Third_Party/LwIP/src/core/ipv4/icmp.c ****         LWIP_DEBUGF(ICMP_DEBUG | LWIP_DBG_LEVEL_SERIOUS, ("first pbuf cannot hold the ICMP header")
 168:Middlewares/Third_Party/LwIP/src/core/ipv4/icmp.c ****         pbuf_free(r);
 169:Middlewares/Third_Party/LwIP/src/core/ipv4/icmp.c ****         goto icmperr;
 170:Middlewares/Third_Party/LwIP/src/core/ipv4/icmp.c ****       }
 171:Middlewares/Third_Party/LwIP/src/core/ipv4/icmp.c ****       /* copy the ip header */
 172:Middlewares/Third_Party/LwIP/src/core/ipv4/icmp.c ****       MEMCPY(r->payload, iphdr_in, hlen);
 173:Middlewares/Third_Party/LwIP/src/core/ipv4/icmp.c ****       /* switch r->payload back to icmp header (cannot fail) */
 174:Middlewares/Third_Party/LwIP/src/core/ipv4/icmp.c ****       if (pbuf_header(r, (s16_t)-hlen)) {
 175:Middlewares/Third_Party/LwIP/src/core/ipv4/icmp.c ****         LWIP_ASSERT("icmp_input: moving r->payload to icmp header failed\n", 0);
 176:Middlewares/Third_Party/LwIP/src/core/ipv4/icmp.c ****         pbuf_free(r);
 177:Middlewares/Third_Party/LwIP/src/core/ipv4/icmp.c ****         goto icmperr;
 178:Middlewares/Third_Party/LwIP/src/core/ipv4/icmp.c ****       }
 179:Middlewares/Third_Party/LwIP/src/core/ipv4/icmp.c ****       /* copy the rest of the packet without ip header */
 180:Middlewares/Third_Party/LwIP/src/core/ipv4/icmp.c ****       if (pbuf_copy(r, p) != ERR_OK) {
 181:Middlewares/Third_Party/LwIP/src/core/ipv4/icmp.c ****         LWIP_DEBUGF(ICMP_DEBUG | LWIP_DBG_LEVEL_SERIOUS, ("icmp_input: copying to new pbuf failed")
 182:Middlewares/Third_Party/LwIP/src/core/ipv4/icmp.c ****         pbuf_free(r);
 183:Middlewares/Third_Party/LwIP/src/core/ipv4/icmp.c ****         goto icmperr;
 184:Middlewares/Third_Party/LwIP/src/core/ipv4/icmp.c ****       }
 185:Middlewares/Third_Party/LwIP/src/core/ipv4/icmp.c ****       /* free the original p */
 186:Middlewares/Third_Party/LwIP/src/core/ipv4/icmp.c ****       pbuf_free(p);
 187:Middlewares/Third_Party/LwIP/src/core/ipv4/icmp.c ****       /* we now have an identical copy of p that has room for link headers */
 188:Middlewares/Third_Party/LwIP/src/core/ipv4/icmp.c ****       p = r;
 189:Middlewares/Third_Party/LwIP/src/core/ipv4/icmp.c ****     } else {
 190:Middlewares/Third_Party/LwIP/src/core/ipv4/icmp.c ****       /* restore p->payload to point to icmp header (cannot fail) */
 191:Middlewares/Third_Party/LwIP/src/core/ipv4/icmp.c ****       if (pbuf_header(p, -(s16_t)(hlen + PBUF_LINK_HLEN + PBUF_LINK_ENCAPSULATION_HLEN))) {
 192:Middlewares/Third_Party/LwIP/src/core/ipv4/icmp.c ****         LWIP_ASSERT("icmp_input: restoring original p->payload failed\n", 0);
 193:Middlewares/Third_Party/LwIP/src/core/ipv4/icmp.c ****         goto icmperr;
 194:Middlewares/Third_Party/LwIP/src/core/ipv4/icmp.c ****       }
 195:Middlewares/Third_Party/LwIP/src/core/ipv4/icmp.c ****     }
 196:Middlewares/Third_Party/LwIP/src/core/ipv4/icmp.c **** #endif /* LWIP_ICMP_ECHO_CHECK_INPUT_PBUF_LEN */
 197:Middlewares/Third_Party/LwIP/src/core/ipv4/icmp.c ****     /* At this point, all checks are OK. */
 198:Middlewares/Third_Party/LwIP/src/core/ipv4/icmp.c ****     /* We generate an answer by switching the dest and src ip addresses,
 199:Middlewares/Third_Party/LwIP/src/core/ipv4/icmp.c ****      * setting the icmp type to ECHO_RESPONSE and updating the checksum. */
 200:Middlewares/Third_Party/LwIP/src/core/ipv4/icmp.c ****     iecho = (struct icmp_echo_hdr *)p->payload;
 201:Middlewares/Third_Party/LwIP/src/core/ipv4/icmp.c ****     if (pbuf_header(p, (s16_t)hlen)) {
 202:Middlewares/Third_Party/LwIP/src/core/ipv4/icmp.c ****       LWIP_DEBUGF(ICMP_DEBUG | LWIP_DBG_LEVEL_SERIOUS, ("Can't move over header in packet"));
 203:Middlewares/Third_Party/LwIP/src/core/ipv4/icmp.c ****     } else {
ARM GAS  C:\Users\Patryk\AppData\Local\Temp\ccsBmcHg.s 			page 5


 204:Middlewares/Third_Party/LwIP/src/core/ipv4/icmp.c ****       err_t ret;
 205:Middlewares/Third_Party/LwIP/src/core/ipv4/icmp.c ****       struct ip_hdr *iphdr = (struct ip_hdr*)p->payload;
 206:Middlewares/Third_Party/LwIP/src/core/ipv4/icmp.c ****       ip4_addr_copy(iphdr->src, *src);
 207:Middlewares/Third_Party/LwIP/src/core/ipv4/icmp.c ****       ip4_addr_copy(iphdr->dest, *ip4_current_src_addr());
 208:Middlewares/Third_Party/LwIP/src/core/ipv4/icmp.c ****       ICMPH_TYPE_SET(iecho, ICMP_ER);
 209:Middlewares/Third_Party/LwIP/src/core/ipv4/icmp.c **** #if CHECKSUM_GEN_ICMP
 210:Middlewares/Third_Party/LwIP/src/core/ipv4/icmp.c ****       IF__NETIF_CHECKSUM_ENABLED(inp, NETIF_CHECKSUM_GEN_ICMP) {
 211:Middlewares/Third_Party/LwIP/src/core/ipv4/icmp.c ****         /* adjust the checksum */
 212:Middlewares/Third_Party/LwIP/src/core/ipv4/icmp.c ****         if (iecho->chksum > PP_HTONS(0xffffU - (ICMP_ECHO << 8))) {
 213:Middlewares/Third_Party/LwIP/src/core/ipv4/icmp.c ****           iecho->chksum += PP_HTONS(ICMP_ECHO << 8) + 1;
 214:Middlewares/Third_Party/LwIP/src/core/ipv4/icmp.c ****         } else {
 215:Middlewares/Third_Party/LwIP/src/core/ipv4/icmp.c ****           iecho->chksum += PP_HTONS(ICMP_ECHO << 8);
 216:Middlewares/Third_Party/LwIP/src/core/ipv4/icmp.c ****         }
 217:Middlewares/Third_Party/LwIP/src/core/ipv4/icmp.c ****       }
 218:Middlewares/Third_Party/LwIP/src/core/ipv4/icmp.c **** #if LWIP_CHECKSUM_CTRL_PER_NETIF
 219:Middlewares/Third_Party/LwIP/src/core/ipv4/icmp.c ****       else {
 220:Middlewares/Third_Party/LwIP/src/core/ipv4/icmp.c ****         iecho->chksum = 0;
 221:Middlewares/Third_Party/LwIP/src/core/ipv4/icmp.c ****       }
 222:Middlewares/Third_Party/LwIP/src/core/ipv4/icmp.c **** #endif /* LWIP_CHECKSUM_CTRL_PER_NETIF */
 223:Middlewares/Third_Party/LwIP/src/core/ipv4/icmp.c **** #else /* CHECKSUM_GEN_ICMP */
 224:Middlewares/Third_Party/LwIP/src/core/ipv4/icmp.c ****       iecho->chksum = 0;
 225:Middlewares/Third_Party/LwIP/src/core/ipv4/icmp.c **** #endif /* CHECKSUM_GEN_ICMP */
 226:Middlewares/Third_Party/LwIP/src/core/ipv4/icmp.c **** 
 227:Middlewares/Third_Party/LwIP/src/core/ipv4/icmp.c ****       /* Set the correct TTL and recalculate the header checksum. */
 228:Middlewares/Third_Party/LwIP/src/core/ipv4/icmp.c ****       IPH_TTL_SET(iphdr, ICMP_TTL);
 229:Middlewares/Third_Party/LwIP/src/core/ipv4/icmp.c ****       IPH_CHKSUM_SET(iphdr, 0);
 230:Middlewares/Third_Party/LwIP/src/core/ipv4/icmp.c **** #if CHECKSUM_GEN_IP
 231:Middlewares/Third_Party/LwIP/src/core/ipv4/icmp.c ****       IF__NETIF_CHECKSUM_ENABLED(inp, NETIF_CHECKSUM_GEN_IP) {
 232:Middlewares/Third_Party/LwIP/src/core/ipv4/icmp.c ****         IPH_CHKSUM_SET(iphdr, inet_chksum(iphdr, hlen));
 233:Middlewares/Third_Party/LwIP/src/core/ipv4/icmp.c ****       }
 234:Middlewares/Third_Party/LwIP/src/core/ipv4/icmp.c **** #endif /* CHECKSUM_GEN_IP */
 235:Middlewares/Third_Party/LwIP/src/core/ipv4/icmp.c **** 
 236:Middlewares/Third_Party/LwIP/src/core/ipv4/icmp.c ****       ICMP_STATS_INC(icmp.xmit);
 237:Middlewares/Third_Party/LwIP/src/core/ipv4/icmp.c ****       /* increase number of messages attempted to send */
 238:Middlewares/Third_Party/LwIP/src/core/ipv4/icmp.c ****       MIB2_STATS_INC(mib2.icmpoutmsgs);
 239:Middlewares/Third_Party/LwIP/src/core/ipv4/icmp.c ****       /* increase number of echo replies attempted to send */
 240:Middlewares/Third_Party/LwIP/src/core/ipv4/icmp.c ****       MIB2_STATS_INC(mib2.icmpoutechoreps);
 241:Middlewares/Third_Party/LwIP/src/core/ipv4/icmp.c **** 
 242:Middlewares/Third_Party/LwIP/src/core/ipv4/icmp.c ****       /* send an ICMP packet */
 243:Middlewares/Third_Party/LwIP/src/core/ipv4/icmp.c ****       ret = ip4_output_if(p, src, LWIP_IP_HDRINCL,
 244:Middlewares/Third_Party/LwIP/src/core/ipv4/icmp.c ****                    ICMP_TTL, 0, IP_PROTO_ICMP, inp);
 245:Middlewares/Third_Party/LwIP/src/core/ipv4/icmp.c ****       if (ret != ERR_OK) {
 246:Middlewares/Third_Party/LwIP/src/core/ipv4/icmp.c ****         LWIP_DEBUGF(ICMP_DEBUG, ("icmp_input: ip_output_if returned an error: %s\n", lwip_strerr(re
 247:Middlewares/Third_Party/LwIP/src/core/ipv4/icmp.c ****       }
 248:Middlewares/Third_Party/LwIP/src/core/ipv4/icmp.c ****     }
 249:Middlewares/Third_Party/LwIP/src/core/ipv4/icmp.c ****     break;
 250:Middlewares/Third_Party/LwIP/src/core/ipv4/icmp.c ****   default:
 251:Middlewares/Third_Party/LwIP/src/core/ipv4/icmp.c ****     if (type == ICMP_DUR) {
 252:Middlewares/Third_Party/LwIP/src/core/ipv4/icmp.c ****       MIB2_STATS_INC(mib2.icmpindestunreachs);
 253:Middlewares/Third_Party/LwIP/src/core/ipv4/icmp.c ****     } else if (type == ICMP_TE) {
 254:Middlewares/Third_Party/LwIP/src/core/ipv4/icmp.c ****       MIB2_STATS_INC(mib2.icmpintimeexcds);
 255:Middlewares/Third_Party/LwIP/src/core/ipv4/icmp.c ****     } else if (type == ICMP_PP) {
 256:Middlewares/Third_Party/LwIP/src/core/ipv4/icmp.c ****       MIB2_STATS_INC(mib2.icmpinparmprobs);
 257:Middlewares/Third_Party/LwIP/src/core/ipv4/icmp.c ****     } else if (type == ICMP_SQ) {
 258:Middlewares/Third_Party/LwIP/src/core/ipv4/icmp.c ****       MIB2_STATS_INC(mib2.icmpinsrcquenchs);
 259:Middlewares/Third_Party/LwIP/src/core/ipv4/icmp.c ****     } else if (type == ICMP_RD) {
 260:Middlewares/Third_Party/LwIP/src/core/ipv4/icmp.c ****       MIB2_STATS_INC(mib2.icmpinredirects);
ARM GAS  C:\Users\Patryk\AppData\Local\Temp\ccsBmcHg.s 			page 6


 261:Middlewares/Third_Party/LwIP/src/core/ipv4/icmp.c ****     } else if (type == ICMP_TS) {
 262:Middlewares/Third_Party/LwIP/src/core/ipv4/icmp.c ****       MIB2_STATS_INC(mib2.icmpintimestamps);
 263:Middlewares/Third_Party/LwIP/src/core/ipv4/icmp.c ****     } else if (type == ICMP_TSR) {
 264:Middlewares/Third_Party/LwIP/src/core/ipv4/icmp.c ****       MIB2_STATS_INC(mib2.icmpintimestampreps);
 265:Middlewares/Third_Party/LwIP/src/core/ipv4/icmp.c ****     } else if (type == ICMP_AM) {
 266:Middlewares/Third_Party/LwIP/src/core/ipv4/icmp.c ****       MIB2_STATS_INC(mib2.icmpinaddrmasks);
 267:Middlewares/Third_Party/LwIP/src/core/ipv4/icmp.c ****     } else if (type == ICMP_AMR) {
 268:Middlewares/Third_Party/LwIP/src/core/ipv4/icmp.c ****       MIB2_STATS_INC(mib2.icmpinaddrmaskreps);
 269:Middlewares/Third_Party/LwIP/src/core/ipv4/icmp.c ****     }
 270:Middlewares/Third_Party/LwIP/src/core/ipv4/icmp.c ****     LWIP_DEBUGF(ICMP_DEBUG, ("icmp_input: ICMP type %"S16_F" code %"S16_F" not supported.\n",
 271:Middlewares/Third_Party/LwIP/src/core/ipv4/icmp.c ****                 (s16_t)type, (s16_t)code));
 272:Middlewares/Third_Party/LwIP/src/core/ipv4/icmp.c ****     ICMP_STATS_INC(icmp.proterr);
 273:Middlewares/Third_Party/LwIP/src/core/ipv4/icmp.c ****     ICMP_STATS_INC(icmp.drop);
 274:Middlewares/Third_Party/LwIP/src/core/ipv4/icmp.c ****   }
 275:Middlewares/Third_Party/LwIP/src/core/ipv4/icmp.c ****   pbuf_free(p);
 276:Middlewares/Third_Party/LwIP/src/core/ipv4/icmp.c ****   return;
 277:Middlewares/Third_Party/LwIP/src/core/ipv4/icmp.c **** lenerr:
 278:Middlewares/Third_Party/LwIP/src/core/ipv4/icmp.c ****   pbuf_free(p);
 279:Middlewares/Third_Party/LwIP/src/core/ipv4/icmp.c ****   ICMP_STATS_INC(icmp.lenerr);
 280:Middlewares/Third_Party/LwIP/src/core/ipv4/icmp.c ****   MIB2_STATS_INC(mib2.icmpinerrors);
 281:Middlewares/Third_Party/LwIP/src/core/ipv4/icmp.c ****   return;
 282:Middlewares/Third_Party/LwIP/src/core/ipv4/icmp.c **** #if LWIP_ICMP_ECHO_CHECK_INPUT_PBUF_LEN || !LWIP_MULTICAST_PING || !LWIP_BROADCAST_PING
 283:Middlewares/Third_Party/LwIP/src/core/ipv4/icmp.c **** icmperr:
 284:Middlewares/Third_Party/LwIP/src/core/ipv4/icmp.c ****   pbuf_free(p);
 285:Middlewares/Third_Party/LwIP/src/core/ipv4/icmp.c ****   ICMP_STATS_INC(icmp.err);
 286:Middlewares/Third_Party/LwIP/src/core/ipv4/icmp.c ****   MIB2_STATS_INC(mib2.icmpinerrors);
 287:Middlewares/Third_Party/LwIP/src/core/ipv4/icmp.c ****   return;
 288:Middlewares/Third_Party/LwIP/src/core/ipv4/icmp.c **** #endif /* LWIP_ICMP_ECHO_CHECK_INPUT_PBUF_LEN || !LWIP_MULTICAST_PING || !LWIP_BROADCAST_PING */
 289:Middlewares/Third_Party/LwIP/src/core/ipv4/icmp.c **** }
 290:Middlewares/Third_Party/LwIP/src/core/ipv4/icmp.c **** 
 291:Middlewares/Third_Party/LwIP/src/core/ipv4/icmp.c **** /**
 292:Middlewares/Third_Party/LwIP/src/core/ipv4/icmp.c ****  * Send an icmp 'destination unreachable' packet, called from ip_input() if
 293:Middlewares/Third_Party/LwIP/src/core/ipv4/icmp.c ****  * the transport layer protocol is unknown and from udp_input() if the local
 294:Middlewares/Third_Party/LwIP/src/core/ipv4/icmp.c ****  * port is not bound.
 295:Middlewares/Third_Party/LwIP/src/core/ipv4/icmp.c ****  *
 296:Middlewares/Third_Party/LwIP/src/core/ipv4/icmp.c ****  * @param p the input packet for which the 'unreachable' should be sent,
 297:Middlewares/Third_Party/LwIP/src/core/ipv4/icmp.c ****  *          p->payload pointing to the IP header
 298:Middlewares/Third_Party/LwIP/src/core/ipv4/icmp.c ****  * @param t type of the 'unreachable' packet
 299:Middlewares/Third_Party/LwIP/src/core/ipv4/icmp.c ****  */
 300:Middlewares/Third_Party/LwIP/src/core/ipv4/icmp.c **** void
 301:Middlewares/Third_Party/LwIP/src/core/ipv4/icmp.c **** icmp_dest_unreach(struct pbuf *p, enum icmp_dur_type t)
 302:Middlewares/Third_Party/LwIP/src/core/ipv4/icmp.c **** {
 303:Middlewares/Third_Party/LwIP/src/core/ipv4/icmp.c ****   MIB2_STATS_INC(mib2.icmpoutdestunreachs);
 304:Middlewares/Third_Party/LwIP/src/core/ipv4/icmp.c ****   icmp_send_response(p, ICMP_DUR, t);
 305:Middlewares/Third_Party/LwIP/src/core/ipv4/icmp.c **** }
 306:Middlewares/Third_Party/LwIP/src/core/ipv4/icmp.c **** 
 307:Middlewares/Third_Party/LwIP/src/core/ipv4/icmp.c **** #if IP_FORWARD || IP_REASSEMBLY
 308:Middlewares/Third_Party/LwIP/src/core/ipv4/icmp.c **** /**
 309:Middlewares/Third_Party/LwIP/src/core/ipv4/icmp.c ****  * Send a 'time exceeded' packet, called from ip_forward() if TTL is 0.
 310:Middlewares/Third_Party/LwIP/src/core/ipv4/icmp.c ****  *
 311:Middlewares/Third_Party/LwIP/src/core/ipv4/icmp.c ****  * @param p the input packet for which the 'time exceeded' should be sent,
 312:Middlewares/Third_Party/LwIP/src/core/ipv4/icmp.c ****  *          p->payload pointing to the IP header
 313:Middlewares/Third_Party/LwIP/src/core/ipv4/icmp.c ****  * @param t type of the 'time exceeded' packet
 314:Middlewares/Third_Party/LwIP/src/core/ipv4/icmp.c ****  */
 315:Middlewares/Third_Party/LwIP/src/core/ipv4/icmp.c **** void
 316:Middlewares/Third_Party/LwIP/src/core/ipv4/icmp.c **** icmp_time_exceeded(struct pbuf *p, enum icmp_te_type t)
 317:Middlewares/Third_Party/LwIP/src/core/ipv4/icmp.c **** {
ARM GAS  C:\Users\Patryk\AppData\Local\Temp\ccsBmcHg.s 			page 7


 318:Middlewares/Third_Party/LwIP/src/core/ipv4/icmp.c ****   MIB2_STATS_INC(mib2.icmpouttimeexcds);
 319:Middlewares/Third_Party/LwIP/src/core/ipv4/icmp.c ****   icmp_send_response(p, ICMP_TE, t);
 320:Middlewares/Third_Party/LwIP/src/core/ipv4/icmp.c **** }
 321:Middlewares/Third_Party/LwIP/src/core/ipv4/icmp.c **** 
 322:Middlewares/Third_Party/LwIP/src/core/ipv4/icmp.c **** #endif /* IP_FORWARD || IP_REASSEMBLY */
 323:Middlewares/Third_Party/LwIP/src/core/ipv4/icmp.c **** 
 324:Middlewares/Third_Party/LwIP/src/core/ipv4/icmp.c **** /**
 325:Middlewares/Third_Party/LwIP/src/core/ipv4/icmp.c ****  * Send an icmp packet in response to an incoming packet.
 326:Middlewares/Third_Party/LwIP/src/core/ipv4/icmp.c ****  *
 327:Middlewares/Third_Party/LwIP/src/core/ipv4/icmp.c ****  * @param p the input packet for which the 'unreachable' should be sent,
 328:Middlewares/Third_Party/LwIP/src/core/ipv4/icmp.c ****  *          p->payload pointing to the IP header
 329:Middlewares/Third_Party/LwIP/src/core/ipv4/icmp.c ****  * @param type Type of the ICMP header
 330:Middlewares/Third_Party/LwIP/src/core/ipv4/icmp.c ****  * @param code Code of the ICMP header
 331:Middlewares/Third_Party/LwIP/src/core/ipv4/icmp.c ****  */
 332:Middlewares/Third_Party/LwIP/src/core/ipv4/icmp.c **** static void
 333:Middlewares/Third_Party/LwIP/src/core/ipv4/icmp.c **** icmp_send_response(struct pbuf *p, u8_t type, u8_t code)
 334:Middlewares/Third_Party/LwIP/src/core/ipv4/icmp.c **** {
  27              		.loc 1 334 0
  28              		.cfi_startproc
  29              		@ args = 0, pretend = 0, frame = 8
  30              		@ frame_needed = 0, uses_anonymous_args = 0
  31              	.LVL0:
  32 0000 2DE9F041 		push	{r4, r5, r6, r7, r8, lr}
  33              	.LCFI0:
  34              		.cfi_def_cfa_offset 24
  35              		.cfi_offset 4, -24
  36              		.cfi_offset 5, -20
  37              		.cfi_offset 6, -16
  38              		.cfi_offset 7, -12
  39              		.cfi_offset 8, -8
  40              		.cfi_offset 14, -4
  41 0004 86B0     		sub	sp, sp, #24
  42              	.LCFI1:
  43              		.cfi_def_cfa_offset 48
  44 0006 0646     		mov	r6, r0
  45 0008 8846     		mov	r8, r1
  46 000a 1746     		mov	r7, r2
 335:Middlewares/Third_Party/LwIP/src/core/ipv4/icmp.c ****   struct pbuf *q;
 336:Middlewares/Third_Party/LwIP/src/core/ipv4/icmp.c ****   struct ip_hdr *iphdr;
 337:Middlewares/Third_Party/LwIP/src/core/ipv4/icmp.c ****   /* we can use the echo header here */
 338:Middlewares/Third_Party/LwIP/src/core/ipv4/icmp.c ****   struct icmp_echo_hdr *icmphdr;
 339:Middlewares/Third_Party/LwIP/src/core/ipv4/icmp.c ****   ip4_addr_t iphdr_src;
 340:Middlewares/Third_Party/LwIP/src/core/ipv4/icmp.c ****   struct netif *netif;
 341:Middlewares/Third_Party/LwIP/src/core/ipv4/icmp.c **** 
 342:Middlewares/Third_Party/LwIP/src/core/ipv4/icmp.c ****   /* increase number of messages attempted to send */
 343:Middlewares/Third_Party/LwIP/src/core/ipv4/icmp.c ****   MIB2_STATS_INC(mib2.icmpoutmsgs);
 344:Middlewares/Third_Party/LwIP/src/core/ipv4/icmp.c **** 
 345:Middlewares/Third_Party/LwIP/src/core/ipv4/icmp.c ****   /* ICMP header + IP header + 8 bytes of data */
 346:Middlewares/Third_Party/LwIP/src/core/ipv4/icmp.c ****   q = pbuf_alloc(PBUF_IP, sizeof(struct icmp_echo_hdr) + IP_HLEN + ICMP_DEST_UNREACH_DATASIZE,
  47              		.loc 1 346 0
  48 000c 0022     		movs	r2, #0
  49              	.LVL1:
  50 000e 2421     		movs	r1, #36
  51              	.LVL2:
  52 0010 0120     		movs	r0, #1
  53              	.LVL3:
  54 0012 FFF7FEFF 		bl	pbuf_alloc
ARM GAS  C:\Users\Patryk\AppData\Local\Temp\ccsBmcHg.s 			page 8


  55              	.LVL4:
 347:Middlewares/Third_Party/LwIP/src/core/ipv4/icmp.c ****                  PBUF_RAM);
 348:Middlewares/Third_Party/LwIP/src/core/ipv4/icmp.c ****   if (q == NULL) {
  56              		.loc 1 348 0
  57 0016 0028     		cmp	r0, #0
  58 0018 37D0     		beq	.L1
  59 001a 0546     		mov	r5, r0
 349:Middlewares/Third_Party/LwIP/src/core/ipv4/icmp.c ****     LWIP_DEBUGF(ICMP_DEBUG, ("icmp_time_exceeded: failed to allocate pbuf for ICMP packet.\n"));
 350:Middlewares/Third_Party/LwIP/src/core/ipv4/icmp.c ****     MIB2_STATS_INC(mib2.icmpouterrors);
 351:Middlewares/Third_Party/LwIP/src/core/ipv4/icmp.c ****     return;
 352:Middlewares/Third_Party/LwIP/src/core/ipv4/icmp.c ****   }
 353:Middlewares/Third_Party/LwIP/src/core/ipv4/icmp.c ****   LWIP_ASSERT("check that first pbuf can hold icmp message",
  60              		.loc 1 353 0
  61 001c 4389     		ldrh	r3, [r0, #10]
  62 001e 232B     		cmp	r3, #35
  63 0020 36D9     		bls	.L7
  64              	.LVL5:
  65              	.L3:
 354:Middlewares/Third_Party/LwIP/src/core/ipv4/icmp.c ****              (q->len >= (sizeof(struct icmp_echo_hdr) + IP_HLEN + ICMP_DEST_UNREACH_DATASIZE)));
 355:Middlewares/Third_Party/LwIP/src/core/ipv4/icmp.c **** 
 356:Middlewares/Third_Party/LwIP/src/core/ipv4/icmp.c ****   iphdr = (struct ip_hdr *)p->payload;
  66              		.loc 1 356 0
  67 0022 D6F804C0 		ldr	ip, [r6, #4]
  68              	.LVL6:
 357:Middlewares/Third_Party/LwIP/src/core/ipv4/icmp.c ****   LWIP_DEBUGF(ICMP_DEBUG, ("icmp_time_exceeded from "));
 358:Middlewares/Third_Party/LwIP/src/core/ipv4/icmp.c ****   ip4_addr_debug_print_val(ICMP_DEBUG, iphdr->src);
 359:Middlewares/Third_Party/LwIP/src/core/ipv4/icmp.c ****   LWIP_DEBUGF(ICMP_DEBUG, (" to "));
 360:Middlewares/Third_Party/LwIP/src/core/ipv4/icmp.c ****   ip4_addr_debug_print_val(ICMP_DEBUG, iphdr->dest);
 361:Middlewares/Third_Party/LwIP/src/core/ipv4/icmp.c ****   LWIP_DEBUGF(ICMP_DEBUG, ("\n"));
 362:Middlewares/Third_Party/LwIP/src/core/ipv4/icmp.c **** 
 363:Middlewares/Third_Party/LwIP/src/core/ipv4/icmp.c ****   icmphdr = (struct icmp_echo_hdr *)q->payload;
  69              		.loc 1 363 0
  70 0026 6C68     		ldr	r4, [r5, #4]
  71              	.LVL7:
 364:Middlewares/Third_Party/LwIP/src/core/ipv4/icmp.c ****   icmphdr->type = type;
  72              		.loc 1 364 0
  73 0028 84F80080 		strb	r8, [r4]
 365:Middlewares/Third_Party/LwIP/src/core/ipv4/icmp.c ****   icmphdr->code = code;
  74              		.loc 1 365 0
  75 002c 6770     		strb	r7, [r4, #1]
 366:Middlewares/Third_Party/LwIP/src/core/ipv4/icmp.c ****   icmphdr->id = 0;
  76              		.loc 1 366 0
  77 002e 0023     		movs	r3, #0
  78 0030 2371     		strb	r3, [r4, #4]
  79 0032 6371     		strb	r3, [r4, #5]
 367:Middlewares/Third_Party/LwIP/src/core/ipv4/icmp.c ****   icmphdr->seqno = 0;
  80              		.loc 1 367 0
  81 0034 A371     		strb	r3, [r4, #6]
  82 0036 E371     		strb	r3, [r4, #7]
 368:Middlewares/Third_Party/LwIP/src/core/ipv4/icmp.c **** 
 369:Middlewares/Third_Party/LwIP/src/core/ipv4/icmp.c ****   /* copy fields from original packet */
 370:Middlewares/Third_Party/LwIP/src/core/ipv4/icmp.c ****   SMEMCPY((u8_t *)q->payload + sizeof(struct icmp_echo_hdr), (u8_t *)p->payload,
  83              		.loc 1 370 0
  84 0038 6F68     		ldr	r7, [r5, #4]
  85 003a 7368     		ldr	r3, [r6, #4]
  86 003c 1E68     		ldr	r6, [r3]	@ unaligned
  87              	.LVL8:
ARM GAS  C:\Users\Patryk\AppData\Local\Temp\ccsBmcHg.s 			page 9


  88 003e 5868     		ldr	r0, [r3, #4]	@ unaligned
  89 0040 9968     		ldr	r1, [r3, #8]	@ unaligned
  90 0042 D3F80CE0 		ldr	lr, [r3, #12]	@ unaligned
  91 0046 BE60     		str	r6, [r7, #8]	@ unaligned
  92 0048 F860     		str	r0, [r7, #12]	@ unaligned
  93 004a 3961     		str	r1, [r7, #16]	@ unaligned
  94 004c C7F814E0 		str	lr, [r7, #20]	@ unaligned
  95 0050 1E69     		ldr	r6, [r3, #16]	@ unaligned
  96 0052 5869     		ldr	r0, [r3, #20]	@ unaligned
  97 0054 9969     		ldr	r1, [r3, #24]	@ unaligned
  98 0056 BE61     		str	r6, [r7, #24]	@ unaligned
  99 0058 F861     		str	r0, [r7, #28]	@ unaligned
 100 005a 3962     		str	r1, [r7, #32]	@ unaligned
 371:Middlewares/Third_Party/LwIP/src/core/ipv4/icmp.c ****           IP_HLEN + ICMP_DEST_UNREACH_DATASIZE);
 372:Middlewares/Third_Party/LwIP/src/core/ipv4/icmp.c **** 
 373:Middlewares/Third_Party/LwIP/src/core/ipv4/icmp.c ****   ip4_addr_copy(iphdr_src, iphdr->src);
 101              		.loc 1 373 0
 102 005c DCF80C30 		ldr	r3, [ip, #12]	@ unaligned
 103 0060 06A8     		add	r0, sp, #24
 104 0062 40F8043D 		str	r3, [r0, #-4]!
 374:Middlewares/Third_Party/LwIP/src/core/ipv4/icmp.c **** #ifdef LWIP_HOOK_IP4_ROUTE_SRC
 375:Middlewares/Third_Party/LwIP/src/core/ipv4/icmp.c ****   {
 376:Middlewares/Third_Party/LwIP/src/core/ipv4/icmp.c ****     ip4_addr_t iphdr_dst;
 377:Middlewares/Third_Party/LwIP/src/core/ipv4/icmp.c ****     ip4_addr_copy(iphdr_dst, iphdr->dest);
 378:Middlewares/Third_Party/LwIP/src/core/ipv4/icmp.c ****     netif = ip4_route_src(&iphdr_src, &iphdr_dst);
 379:Middlewares/Third_Party/LwIP/src/core/ipv4/icmp.c ****   }
 380:Middlewares/Third_Party/LwIP/src/core/ipv4/icmp.c **** #else
 381:Middlewares/Third_Party/LwIP/src/core/ipv4/icmp.c ****   netif = ip4_route(&iphdr_src);
 105              		.loc 1 381 0
 106 0066 FFF7FEFF 		bl	ip4_route
 107              	.LVL9:
 382:Middlewares/Third_Party/LwIP/src/core/ipv4/icmp.c **** #endif
 383:Middlewares/Third_Party/LwIP/src/core/ipv4/icmp.c ****   if (netif != NULL) {
 108              		.loc 1 383 0
 109 006a 58B1     		cbz	r0, .L4
 384:Middlewares/Third_Party/LwIP/src/core/ipv4/icmp.c ****     /* calculate checksum */
 385:Middlewares/Third_Party/LwIP/src/core/ipv4/icmp.c ****     icmphdr->chksum = 0;
 110              		.loc 1 385 0
 111 006c 0021     		movs	r1, #0
 112 006e A170     		strb	r1, [r4, #2]
 113 0070 E170     		strb	r1, [r4, #3]
 386:Middlewares/Third_Party/LwIP/src/core/ipv4/icmp.c **** #if CHECKSUM_GEN_ICMP
 387:Middlewares/Third_Party/LwIP/src/core/ipv4/icmp.c ****     IF__NETIF_CHECKSUM_ENABLED(netif, NETIF_CHECKSUM_GEN_ICMP) {
 388:Middlewares/Third_Party/LwIP/src/core/ipv4/icmp.c ****       icmphdr->chksum = inet_chksum(icmphdr, q->len);
 389:Middlewares/Third_Party/LwIP/src/core/ipv4/icmp.c ****     }
 390:Middlewares/Third_Party/LwIP/src/core/ipv4/icmp.c **** #endif
 391:Middlewares/Third_Party/LwIP/src/core/ipv4/icmp.c ****     ICMP_STATS_INC(icmp.xmit);
 392:Middlewares/Third_Party/LwIP/src/core/ipv4/icmp.c ****     ip4_output_if(q, NULL, &iphdr_src, ICMP_TTL, 0, IP_PROTO_ICMP, netif);
 114              		.loc 1 392 0
 115 0072 0290     		str	r0, [sp, #8]
 116 0074 0123     		movs	r3, #1
 117 0076 0193     		str	r3, [sp, #4]
 118 0078 0091     		str	r1, [sp]
 119 007a FF23     		movs	r3, #255
 120 007c 05AA     		add	r2, sp, #20
 121 007e 2846     		mov	r0, r5
 122              	.LVL10:
ARM GAS  C:\Users\Patryk\AppData\Local\Temp\ccsBmcHg.s 			page 10


 123 0080 FFF7FEFF 		bl	ip4_output_if
 124              	.LVL11:
 125              	.L4:
 393:Middlewares/Third_Party/LwIP/src/core/ipv4/icmp.c ****   }
 394:Middlewares/Third_Party/LwIP/src/core/ipv4/icmp.c ****   pbuf_free(q);
 126              		.loc 1 394 0
 127 0084 2846     		mov	r0, r5
 128 0086 FFF7FEFF 		bl	pbuf_free
 129              	.LVL12:
 130              	.L1:
 395:Middlewares/Third_Party/LwIP/src/core/ipv4/icmp.c **** }
 131              		.loc 1 395 0
 132 008a 06B0     		add	sp, sp, #24
 133              	.LCFI2:
 134              		.cfi_remember_state
 135              		.cfi_def_cfa_offset 24
 136              		@ sp needed
 137 008c BDE8F081 		pop	{r4, r5, r6, r7, r8, pc}
 138              	.LVL13:
 139              	.L7:
 140              	.LCFI3:
 141              		.cfi_restore_state
 353:Middlewares/Third_Party/LwIP/src/core/ipv4/icmp.c ****              (q->len >= (sizeof(struct icmp_echo_hdr) + IP_HLEN + ICMP_DEST_UNREACH_DATASIZE)));
 142              		.loc 1 353 0 discriminator 1
 143 0090 034B     		ldr	r3, .L8
 144 0092 4FF4B172 		mov	r2, #354
 145 0096 0349     		ldr	r1, .L8+4
 146 0098 0348     		ldr	r0, .L8+8
 147              	.LVL14:
 148 009a FFF7FEFF 		bl	printf
 149              	.LVL15:
 150 009e C0E7     		b	.L3
 151              	.L9:
 152              		.align	2
 153              	.L8:
 154 00a0 00000000 		.word	.LC0
 155 00a4 34000000 		.word	.LC1
 156 00a8 60000000 		.word	.LC2
 157              		.cfi_endproc
 158              	.LFE157:
 160              		.section	.text.icmp_input,"ax",%progbits
 161              		.align	1
 162              		.global	icmp_input
 163              		.syntax unified
 164              		.thumb
 165              		.thumb_func
 166              		.fpu fpv5-sp-d16
 168              	icmp_input:
 169              	.LFB154:
  81:Middlewares/Third_Party/LwIP/src/core/ipv4/icmp.c ****   u8_t type;
 170              		.loc 1 81 0
 171              		.cfi_startproc
 172              		@ args = 0, pretend = 0, frame = 0
 173              		@ frame_needed = 0, uses_anonymous_args = 0
 174              	.LVL16:
 175 0000 2DE9F041 		push	{r4, r5, r6, r7, r8, lr}
 176              	.LCFI4:
ARM GAS  C:\Users\Patryk\AppData\Local\Temp\ccsBmcHg.s 			page 11


 177              		.cfi_def_cfa_offset 24
 178              		.cfi_offset 4, -24
 179              		.cfi_offset 5, -20
 180              		.cfi_offset 6, -16
 181              		.cfi_offset 7, -12
 182              		.cfi_offset 8, -8
 183              		.cfi_offset 14, -4
 184 0004 84B0     		sub	sp, sp, #16
 185              	.LCFI5:
 186              		.cfi_def_cfa_offset 40
 187 0006 0546     		mov	r5, r0
  94:Middlewares/Third_Party/LwIP/src/core/ipv4/icmp.c ****   hlen = IPH_HL(iphdr_in) * 4;
 188              		.loc 1 94 0
 189 0008 474B     		ldr	r3, .L25
 190 000a 9E68     		ldr	r6, [r3, #8]
 191              	.LVL17:
  95:Middlewares/Third_Party/LwIP/src/core/ipv4/icmp.c ****   if (hlen < IP_HLEN) {
 192              		.loc 1 95 0
 193 000c 3478     		ldrb	r4, [r6]	@ zero_extendqisi2
 194 000e 04F00F04 		and	r4, r4, #15
 195 0012 A400     		lsls	r4, r4, #2
 196              	.LVL18:
  96:Middlewares/Third_Party/LwIP/src/core/ipv4/icmp.c ****     LWIP_DEBUGF(ICMP_DEBUG, ("icmp_input: short IP header (%"S16_F" bytes) received\n", hlen));
 197              		.loc 1 96 0
 198 0014 132C     		cmp	r4, #19
 199 0016 15D9     		bls	.L11
 200 0018 0F46     		mov	r7, r1
 100:Middlewares/Third_Party/LwIP/src/core/ipv4/icmp.c ****     LWIP_DEBUGF(ICMP_DEBUG, ("icmp_input: short ICMP (%"U16_F" bytes) received\n", p->tot_len));
 201              		.loc 1 100 0
 202 001a 4389     		ldrh	r3, [r0, #10]
 203 001c 032B     		cmp	r3, #3
 204 001e 11D9     		bls	.L11
 105:Middlewares/Third_Party/LwIP/src/core/ipv4/icmp.c **** #ifdef LWIP_DEBUG
 205              		.loc 1 105 0
 206 0020 4368     		ldr	r3, [r0, #4]
 207 0022 1B78     		ldrb	r3, [r3]	@ zero_extendqisi2
 208              	.LVL19:
 109:Middlewares/Third_Party/LwIP/src/core/ipv4/icmp.c ****   case ICMP_ER:
 209              		.loc 1 109 0
 210 0024 082B     		cmp	r3, #8
 211 0026 5DD1     		bne	.L12
 212              	.LVL20:
 119:Middlewares/Third_Party/LwIP/src/core/ipv4/icmp.c **** #if LWIP_MULTICAST_PING
 213              		.loc 1 119 0
 214 0028 3F4B     		ldr	r3, .L25
 215              	.LVL21:
 216 002a 5869     		ldr	r0, [r3, #20]
 217              	.LVL22:
 218 002c 00F0F003 		and	r3, r0, #240
 219 0030 E02B     		cmp	r3, #224
 220 0032 23D0     		beq	.L14
 129:Middlewares/Third_Party/LwIP/src/core/ipv4/icmp.c **** #if LWIP_BROADCAST_PING
 221              		.loc 1 129 0
 222 0034 3C4B     		ldr	r3, .L25
 223 0036 1968     		ldr	r1, [r3]
 224              	.LVL23:
 225 0038 FFF7FEFF 		bl	ip4_addr_isbroadcast_u32
ARM GAS  C:\Users\Patryk\AppData\Local\Temp\ccsBmcHg.s 			page 12


 226              	.LVL24:
 227 003c F0B9     		cbnz	r0, .L14
 139:Middlewares/Third_Party/LwIP/src/core/ipv4/icmp.c ****       LWIP_DEBUGF(ICMP_DEBUG, ("icmp_input: bad ICMP echo received\n"));
 228              		.loc 1 139 0
 229 003e 2B89     		ldrh	r3, [r5, #8]
 230 0040 072B     		cmp	r3, #7
 231 0042 05D8     		bhi	.L22
 232              	.LVL25:
 233              	.L11:
 278:Middlewares/Third_Party/LwIP/src/core/ipv4/icmp.c ****   ICMP_STATS_INC(icmp.lenerr);
 234              		.loc 1 278 0
 235 0044 2846     		mov	r0, r5
 236 0046 FFF7FEFF 		bl	pbuf_free
 237              	.LVL26:
 238              	.L10:
 289:Middlewares/Third_Party/LwIP/src/core/ipv4/icmp.c **** 
 239              		.loc 1 289 0
 240 004a 04B0     		add	sp, sp, #16
 241              	.LCFI6:
 242              		.cfi_remember_state
 243              		.cfi_def_cfa_offset 24
 244              		@ sp needed
 245 004c BDE8F081 		pop	{r4, r5, r6, r7, r8, pc}
 246              	.LVL27:
 247              	.L22:
 248              	.LCFI7:
 249              		.cfi_restore_state
 155:Middlewares/Third_Party/LwIP/src/core/ipv4/icmp.c ****       /* p is not big enough to contain link headers
 250              		.loc 1 155 0
 251 0050 04F10E01 		add	r1, r4, #14
 252 0054 2846     		mov	r0, r5
 253 0056 FFF7FEFF 		bl	pbuf_header
 254              	.LVL28:
 255 005a A8B3     		cbz	r0, .L15
 256              	.LBB2:
 161:Middlewares/Third_Party/LwIP/src/core/ipv4/icmp.c ****       if (r == NULL) {
 257              		.loc 1 161 0
 258 005c 2989     		ldrh	r1, [r5, #8]
 259 005e 2144     		add	r1, r1, r4
 260 0060 0022     		movs	r2, #0
 261 0062 89B2     		uxth	r1, r1
 262 0064 0220     		movs	r0, #2
 263 0066 FFF7FEFF 		bl	pbuf_alloc
 264              	.LVL29:
 162:Middlewares/Third_Party/LwIP/src/core/ipv4/icmp.c ****         LWIP_DEBUGF(ICMP_DEBUG, ("icmp_input: allocating new pbuf failed\n"));
 265              		.loc 1 162 0
 266 006a 8046     		mov	r8, r0
 267 006c 30B1     		cbz	r0, .L14
 166:Middlewares/Third_Party/LwIP/src/core/ipv4/icmp.c ****         LWIP_DEBUGF(ICMP_DEBUG | LWIP_DBG_LEVEL_SERIOUS, ("first pbuf cannot hold the ICMP header")
 268              		.loc 1 166 0
 269 006e 4289     		ldrh	r2, [r0, #10]
 270 0070 04F10803 		add	r3, r4, #8
 271 0074 9A42     		cmp	r2, r3
 272 0076 05D2     		bcs	.L16
 168:Middlewares/Third_Party/LwIP/src/core/ipv4/icmp.c ****         goto icmperr;
 273              		.loc 1 168 0
 274 0078 FFF7FEFF 		bl	pbuf_free
ARM GAS  C:\Users\Patryk\AppData\Local\Temp\ccsBmcHg.s 			page 13


 275              	.LVL30:
 276              	.L14:
 277              	.LBE2:
 284:Middlewares/Third_Party/LwIP/src/core/ipv4/icmp.c ****   ICMP_STATS_INC(icmp.err);
 278              		.loc 1 284 0
 279 007c 2846     		mov	r0, r5
 280 007e FFF7FEFF 		bl	pbuf_free
 281              	.LVL31:
 287:Middlewares/Third_Party/LwIP/src/core/ipv4/icmp.c **** #endif /* LWIP_ICMP_ECHO_CHECK_INPUT_PBUF_LEN || !LWIP_MULTICAST_PING || !LWIP_BROADCAST_PING */
 282              		.loc 1 287 0
 283 0082 E2E7     		b	.L10
 284              	.LVL32:
 285              	.L16:
 286              	.LBB3:
 172:Middlewares/Third_Party/LwIP/src/core/ipv4/icmp.c ****       /* switch r->payload back to icmp header (cannot fail) */
 287              		.loc 1 172 0
 288 0084 2246     		mov	r2, r4
 289 0086 3146     		mov	r1, r6
 290 0088 4068     		ldr	r0, [r0, #4]
 291              	.LVL33:
 292 008a FFF7FEFF 		bl	memcpy
 293              	.LVL34:
 174:Middlewares/Third_Party/LwIP/src/core/ipv4/icmp.c ****         LWIP_ASSERT("icmp_input: moving r->payload to icmp header failed\n", 0);
 294              		.loc 1 174 0
 295 008e 6142     		negs	r1, r4
 296 0090 4046     		mov	r0, r8
 297 0092 FFF7FEFF 		bl	pbuf_header
 298              	.LVL35:
 299 0096 48B1     		cbz	r0, .L17
 175:Middlewares/Third_Party/LwIP/src/core/ipv4/icmp.c ****         pbuf_free(r);
 300              		.loc 1 175 0 discriminator 1
 301 0098 244B     		ldr	r3, .L25+4
 302 009a AF22     		movs	r2, #175
 303 009c 2449     		ldr	r1, .L25+8
 304 009e 2548     		ldr	r0, .L25+12
 305 00a0 FFF7FEFF 		bl	printf
 306              	.LVL36:
 176:Middlewares/Third_Party/LwIP/src/core/ipv4/icmp.c ****         goto icmperr;
 307              		.loc 1 176 0 discriminator 1
 308 00a4 4046     		mov	r0, r8
 309 00a6 FFF7FEFF 		bl	pbuf_free
 310              	.LVL37:
 177:Middlewares/Third_Party/LwIP/src/core/ipv4/icmp.c ****       }
 311              		.loc 1 177 0 discriminator 1
 312 00aa E7E7     		b	.L14
 313              	.L17:
 180:Middlewares/Third_Party/LwIP/src/core/ipv4/icmp.c ****         LWIP_DEBUGF(ICMP_DEBUG | LWIP_DBG_LEVEL_SERIOUS, ("icmp_input: copying to new pbuf failed")
 314              		.loc 1 180 0
 315 00ac 2946     		mov	r1, r5
 316 00ae 4046     		mov	r0, r8
 317 00b0 FFF7FEFF 		bl	pbuf_copy
 318              	.LVL38:
 319 00b4 18B1     		cbz	r0, .L18
 182:Middlewares/Third_Party/LwIP/src/core/ipv4/icmp.c ****         goto icmperr;
 320              		.loc 1 182 0
 321 00b6 4046     		mov	r0, r8
 322 00b8 FFF7FEFF 		bl	pbuf_free
ARM GAS  C:\Users\Patryk\AppData\Local\Temp\ccsBmcHg.s 			page 14


 323              	.LVL39:
 183:Middlewares/Third_Party/LwIP/src/core/ipv4/icmp.c ****       }
 324              		.loc 1 183 0
 325 00bc DEE7     		b	.L14
 326              	.L18:
 186:Middlewares/Third_Party/LwIP/src/core/ipv4/icmp.c ****       /* we now have an identical copy of p that has room for link headers */
 327              		.loc 1 186 0
 328 00be 2846     		mov	r0, r5
 329 00c0 FFF7FEFF 		bl	pbuf_free
 330              	.LVL40:
 188:Middlewares/Third_Party/LwIP/src/core/ipv4/icmp.c ****     } else {
 331              		.loc 1 188 0
 332 00c4 4546     		mov	r5, r8
 333              	.LBE3:
 334 00c6 07E0     		b	.L19
 335              	.LVL41:
 336              	.L15:
 191:Middlewares/Third_Party/LwIP/src/core/ipv4/icmp.c ****         LWIP_ASSERT("icmp_input: restoring original p->payload failed\n", 0);
 337              		.loc 1 191 0
 338 00c8 4FF6F271 		movw	r1, #65522
 339 00cc 091B     		subs	r1, r1, r4
 340 00ce 09B2     		sxth	r1, r1
 341 00d0 2846     		mov	r0, r5
 342 00d2 FFF7FEFF 		bl	pbuf_header
 343              	.LVL42:
 344 00d6 48B9     		cbnz	r0, .L23
 345              	.L19:
 200:Middlewares/Third_Party/LwIP/src/core/ipv4/icmp.c ****     if (pbuf_header(p, (s16_t)hlen)) {
 346              		.loc 1 200 0
 347 00d8 6E68     		ldr	r6, [r5, #4]
 348              	.LVL43:
 201:Middlewares/Third_Party/LwIP/src/core/ipv4/icmp.c ****       LWIP_DEBUGF(ICMP_DEBUG | LWIP_DBG_LEVEL_SERIOUS, ("Can't move over header in packet"));
 349              		.loc 1 201 0
 350 00da 2146     		mov	r1, r4
 351 00dc 2846     		mov	r0, r5
 352 00de FFF7FEFF 		bl	pbuf_header
 353              	.LVL44:
 354 00e2 50B1     		cbz	r0, .L24
 355              	.LVL45:
 356              	.L12:
 275:Middlewares/Third_Party/LwIP/src/core/ipv4/icmp.c ****   return;
 357              		.loc 1 275 0
 358 00e4 2846     		mov	r0, r5
 359 00e6 FFF7FEFF 		bl	pbuf_free
 360              	.LVL46:
 276:Middlewares/Third_Party/LwIP/src/core/ipv4/icmp.c **** lenerr:
 361              		.loc 1 276 0
 362 00ea AEE7     		b	.L10
 363              	.LVL47:
 364              	.L23:
 192:Middlewares/Third_Party/LwIP/src/core/ipv4/icmp.c ****         goto icmperr;
 365              		.loc 1 192 0 discriminator 1
 366 00ec 0F4B     		ldr	r3, .L25+4
 367 00ee C022     		movs	r2, #192
 368 00f0 1149     		ldr	r1, .L25+16
 369 00f2 1048     		ldr	r0, .L25+12
 370 00f4 FFF7FEFF 		bl	printf
ARM GAS  C:\Users\Patryk\AppData\Local\Temp\ccsBmcHg.s 			page 15


 371              	.LVL48:
 193:Middlewares/Third_Party/LwIP/src/core/ipv4/icmp.c ****       }
 372              		.loc 1 193 0 discriminator 1
 373 00f8 C0E7     		b	.L14
 374              	.LVL49:
 375              	.L24:
 376              	.LBB4:
 205:Middlewares/Third_Party/LwIP/src/core/ipv4/icmp.c ****       ip4_addr_copy(iphdr->src, *src);
 377              		.loc 1 205 0
 378 00fa 6868     		ldr	r0, [r5, #4]
 379              	.LVL50:
 206:Middlewares/Third_Party/LwIP/src/core/ipv4/icmp.c ****       ip4_addr_copy(iphdr->dest, *ip4_current_src_addr());
 380              		.loc 1 206 0
 381 00fc 0A49     		ldr	r1, .L25
 382 00fe 4B69     		ldr	r3, [r1, #20]
 383 0100 C360     		str	r3, [r0, #12]	@ unaligned
 207:Middlewares/Third_Party/LwIP/src/core/ipv4/icmp.c ****       ICMPH_TYPE_SET(iecho, ICMP_ER);
 384              		.loc 1 207 0
 385 0102 0B69     		ldr	r3, [r1, #16]
 386 0104 0361     		str	r3, [r0, #16]	@ unaligned
 208:Middlewares/Third_Party/LwIP/src/core/ipv4/icmp.c **** #if CHECKSUM_GEN_ICMP
 387              		.loc 1 208 0
 388 0106 0022     		movs	r2, #0
 389 0108 3270     		strb	r2, [r6]
 224:Middlewares/Third_Party/LwIP/src/core/ipv4/icmp.c **** #endif /* CHECKSUM_GEN_ICMP */
 390              		.loc 1 224 0
 391 010a B270     		strb	r2, [r6, #2]
 392 010c F270     		strb	r2, [r6, #3]
 228:Middlewares/Third_Party/LwIP/src/core/ipv4/icmp.c ****       IPH_CHKSUM_SET(iphdr, 0);
 393              		.loc 1 228 0
 394 010e FF23     		movs	r3, #255
 395 0110 0372     		strb	r3, [r0, #8]
 229:Middlewares/Third_Party/LwIP/src/core/ipv4/icmp.c **** #if CHECKSUM_GEN_IP
 396              		.loc 1 229 0
 397 0112 8272     		strb	r2, [r0, #10]
 398 0114 C272     		strb	r2, [r0, #11]
 243:Middlewares/Third_Party/LwIP/src/core/ipv4/icmp.c ****                    ICMP_TTL, 0, IP_PROTO_ICMP, inp);
 399              		.loc 1 243 0
 400 0116 0297     		str	r7, [sp, #8]
 401 0118 0120     		movs	r0, #1
 402              	.LVL51:
 403 011a 0190     		str	r0, [sp, #4]
 404 011c 0092     		str	r2, [sp]
 405 011e 1431     		adds	r1, r1, #20
 406 0120 2846     		mov	r0, r5
 407 0122 FFF7FEFF 		bl	ip4_output_if
 408              	.LVL52:
 409 0126 DDE7     		b	.L12
 410              	.L26:
 411              		.align	2
 412              	.L25:
 413 0128 00000000 		.word	ip_data
 414 012c 00000000 		.word	.LC0
 415 0130 00000000 		.word	.LC3
 416 0134 60000000 		.word	.LC2
 417 0138 38000000 		.word	.LC4
 418              	.LBE4:
ARM GAS  C:\Users\Patryk\AppData\Local\Temp\ccsBmcHg.s 			page 16


 419              		.cfi_endproc
 420              	.LFE154:
 422              		.section	.text.icmp_dest_unreach,"ax",%progbits
 423              		.align	1
 424              		.global	icmp_dest_unreach
 425              		.syntax unified
 426              		.thumb
 427              		.thumb_func
 428              		.fpu fpv5-sp-d16
 430              	icmp_dest_unreach:
 431              	.LFB155:
 302:Middlewares/Third_Party/LwIP/src/core/ipv4/icmp.c ****   MIB2_STATS_INC(mib2.icmpoutdestunreachs);
 432              		.loc 1 302 0
 433              		.cfi_startproc
 434              		@ args = 0, pretend = 0, frame = 0
 435              		@ frame_needed = 0, uses_anonymous_args = 0
 436              	.LVL53:
 437 0000 08B5     		push	{r3, lr}
 438              	.LCFI8:
 439              		.cfi_def_cfa_offset 8
 440              		.cfi_offset 3, -8
 441              		.cfi_offset 14, -4
 304:Middlewares/Third_Party/LwIP/src/core/ipv4/icmp.c **** }
 442              		.loc 1 304 0
 443 0002 0A46     		mov	r2, r1
 444 0004 0321     		movs	r1, #3
 445              	.LVL54:
 446 0006 FFF7FEFF 		bl	icmp_send_response
 447              	.LVL55:
 305:Middlewares/Third_Party/LwIP/src/core/ipv4/icmp.c **** 
 448              		.loc 1 305 0
 449 000a 08BD     		pop	{r3, pc}
 450              		.cfi_endproc
 451              	.LFE155:
 453              		.section	.text.icmp_time_exceeded,"ax",%progbits
 454              		.align	1
 455              		.global	icmp_time_exceeded
 456              		.syntax unified
 457              		.thumb
 458              		.thumb_func
 459              		.fpu fpv5-sp-d16
 461              	icmp_time_exceeded:
 462              	.LFB156:
 317:Middlewares/Third_Party/LwIP/src/core/ipv4/icmp.c ****   MIB2_STATS_INC(mib2.icmpouttimeexcds);
 463              		.loc 1 317 0
 464              		.cfi_startproc
 465              		@ args = 0, pretend = 0, frame = 0
 466              		@ frame_needed = 0, uses_anonymous_args = 0
 467              	.LVL56:
 468 0000 08B5     		push	{r3, lr}
 469              	.LCFI9:
 470              		.cfi_def_cfa_offset 8
 471              		.cfi_offset 3, -8
 472              		.cfi_offset 14, -4
 319:Middlewares/Third_Party/LwIP/src/core/ipv4/icmp.c **** }
 473              		.loc 1 319 0
 474 0002 0A46     		mov	r2, r1
ARM GAS  C:\Users\Patryk\AppData\Local\Temp\ccsBmcHg.s 			page 17


 475 0004 0B21     		movs	r1, #11
 476              	.LVL57:
 477 0006 FFF7FEFF 		bl	icmp_send_response
 478              	.LVL58:
 320:Middlewares/Third_Party/LwIP/src/core/ipv4/icmp.c **** 
 479              		.loc 1 320 0
 480 000a 08BD     		pop	{r3, pc}
 481              		.cfi_endproc
 482              	.LFE156:
 484              		.section	.rodata.icmp_input.str1.4,"aMS",%progbits,1
 485              		.align	2
 486              	.LC3:
 487 0000 69636D70 		.ascii	"icmp_input: moving r->payload to icmp header failed"
 487      5F696E70 
 487      75743A20 
 487      6D6F7669 
 487      6E672072 
 488 0033 0A00     		.ascii	"\012\000"
 489 0035 000000   		.space	3
 490              	.LC4:
 491 0038 69636D70 		.ascii	"icmp_input: restoring original p->payload failed\012"
 491      5F696E70 
 491      75743A20 
 491      72657374 
 491      6F72696E 
 492 0069 00       		.ascii	"\000"
 493              		.section	.rodata.icmp_send_response.str1.4,"aMS",%progbits,1
 494              		.align	2
 495              	.LC0:
 496 0000 4D696464 		.ascii	"Middlewares/Third_Party/LwIP/src/core/ipv4/icmp.c\000"
 496      6C657761 
 496      7265732F 
 496      54686972 
 496      645F5061 
 497 0032 0000     		.space	2
 498              	.LC1:
 499 0034 63686563 		.ascii	"check that first pbuf can hold icmp message\000"
 499      6B207468 
 499      61742066 
 499      69727374 
 499      20706275 
 500              	.LC2:
 501 0060 41737365 		.ascii	"Assertion \"%s\" failed at line %d in %s\012\000"
 501      7274696F 
 501      6E202225 
 501      73222066 
 501      61696C65 
 502              		.text
 503              	.Letext0:
 504              		.file 2 "c:\\program files (x86)\\gnu\\7_2018-q2-update\\arm-none-eabi\\include\\machine\\_default
 505              		.file 3 "c:\\program files (x86)\\gnu\\7_2018-q2-update\\arm-none-eabi\\include\\sys\\_stdint.h"
 506              		.file 4 "Drivers/CMSIS/Include/core_cm7.h"
 507              		.file 5 "Drivers/CMSIS/Device/ST/STM32F7xx/Include/system_stm32f7xx.h"
 508              		.file 6 "c:\\program files (x86)\\gnu\\7_2018-q2-update\\arm-none-eabi\\include\\sys\\lock.h"
 509              		.file 7 "c:\\program files (x86)\\gnu\\7_2018-q2-update\\arm-none-eabi\\include\\sys\\_types.h"
 510              		.file 8 "c:\\program files (x86)\\gnu\\7_2018-q2-update\\lib\\gcc\\arm-none-eabi\\7.3.1\\include\\
 511              		.file 9 "c:\\program files (x86)\\gnu\\7_2018-q2-update\\arm-none-eabi\\include\\sys\\reent.h"
ARM GAS  C:\Users\Patryk\AppData\Local\Temp\ccsBmcHg.s 			page 18


 512              		.file 10 "c:\\program files (x86)\\gnu\\7_2018-q2-update\\arm-none-eabi\\include\\stdlib.h"
 513              		.file 11 "c:\\program files (x86)\\gnu\\7_2018-q2-update\\arm-none-eabi\\include\\time.h"
 514              		.file 12 "Middlewares/Third_Party/LwIP/src/include/lwip/arch.h"
 515              		.file 13 "Middlewares/Third_Party/LwIP/src/include/lwip/err.h"
 516              		.file 14 "Middlewares/Third_Party/LwIP/src/include/lwip/pbuf.h"
 517              		.file 15 "Middlewares/Third_Party/LwIP/src/include/lwip/ip4_addr.h"
 518              		.file 16 "Middlewares/Third_Party/LwIP/src/include/lwip/ip_addr.h"
 519              		.file 17 "Middlewares/Third_Party/LwIP/src/include/lwip/priv/memp_priv.h"
 520              		.file 18 "Middlewares/Third_Party/LwIP/src/include/lwip/memp.h"
 521              		.file 19 "Middlewares/Third_Party/LwIP/src/include/lwip/netif.h"
 522              		.file 20 "Middlewares/Third_Party/LwIP/src/include/lwip/prot/icmp.h"
 523              		.file 21 "Middlewares/Third_Party/LwIP/src/include/lwip/icmp.h"
 524              		.file 22 "Middlewares/Third_Party/LwIP/src/include/lwip/prot/ip4.h"
 525              		.file 23 "Middlewares/Third_Party/LwIP/src/include/lwip/ip.h"
 526              		.file 24 "Middlewares/Third_Party/LwIP/src/include/lwip/ip4.h"
 527              		.file 25 "c:\\program files (x86)\\gnu\\7_2018-q2-update\\arm-none-eabi\\include\\stdio.h"
 528              		.file 26 "<built-in>"
ARM GAS  C:\Users\Patryk\AppData\Local\Temp\ccsBmcHg.s 			page 19

