ARM GAS  C:\Users\Patryk\AppData\Local\Temp\ccHDsNa9.s 			page 1


   1              		.cpu cortex-m7
   2              		.eabi_attribute 27, 1
   3              		.eabi_attribute 28, 1
   4              		.eabi_attribute 20, 1
   5              		.eabi_attribute 21, 1
   6              		.eabi_attribute 23, 3
   7              		.eabi_attribute 24, 1
   8              		.eabi_attribute 25, 1
   9              		.eabi_attribute 26, 1
  10              		.eabi_attribute 30, 1
  11              		.eabi_attribute 34, 1
  12              		.eabi_attribute 18, 4
  13              		.file	"imdct.c"
  14              		.text
  15              	.Ltext0:
  16              		.cfi_sections	.debug_frame
  17              		.section	.text.AntiAlias,"ax",%progbits
  18              		.align	1
  19              		.syntax unified
  20              		.thumb
  21              		.thumb_func
  22              		.fpu fpv5-sp-d16
  24              	AntiAlias:
  25              	.LFB5:
  26              		.file 1 "lib/helix/real/imdct.c"
   1:lib/helix/real/imdct.c **** /* ***** BEGIN LICENSE BLOCK ***** 
   2:lib/helix/real/imdct.c ****  * Version: RCSL 1.0/RPSL 1.0 
   3:lib/helix/real/imdct.c ****  *  
   4:lib/helix/real/imdct.c ****  * Portions Copyright (c) 1995-2002 RealNetworks, Inc. All Rights Reserved. 
   5:lib/helix/real/imdct.c ****  *      
   6:lib/helix/real/imdct.c ****  * The contents of this file, and the files included with this file, are 
   7:lib/helix/real/imdct.c ****  * subject to the current version of the RealNetworks Public Source License 
   8:lib/helix/real/imdct.c ****  * Version 1.0 (the "RPSL") available at 
   9:lib/helix/real/imdct.c ****  * http://www.helixcommunity.org/content/rpsl unless you have licensed 
  10:lib/helix/real/imdct.c ****  * the file under the RealNetworks Community Source License Version 1.0 
  11:lib/helix/real/imdct.c ****  * (the "RCSL") available at http://www.helixcommunity.org/content/rcsl, 
  12:lib/helix/real/imdct.c ****  * in which case the RCSL will apply. You may also obtain the license terms 
  13:lib/helix/real/imdct.c ****  * directly from RealNetworks.  You may not use this file except in 
  14:lib/helix/real/imdct.c ****  * compliance with the RPSL or, if you have a valid RCSL with RealNetworks 
  15:lib/helix/real/imdct.c ****  * applicable to this file, the RCSL.  Please see the applicable RPSL or 
  16:lib/helix/real/imdct.c ****  * RCSL for the rights, obligations and limitations governing use of the 
  17:lib/helix/real/imdct.c ****  * contents of the file.  
  18:lib/helix/real/imdct.c ****  *  
  19:lib/helix/real/imdct.c ****  * This file is part of the Helix DNA Technology. RealNetworks is the 
  20:lib/helix/real/imdct.c ****  * developer of the Original Code and owns the copyrights in the portions 
  21:lib/helix/real/imdct.c ****  * it created. 
  22:lib/helix/real/imdct.c ****  *  
  23:lib/helix/real/imdct.c ****  * This file, and the files included with this file, is distributed and made 
  24:lib/helix/real/imdct.c ****  * available on an 'AS IS' basis, WITHOUT WARRANTY OF ANY KIND, EITHER 
  25:lib/helix/real/imdct.c ****  * EXPRESS OR IMPLIED, AND REALNETWORKS HEREBY DISCLAIMS ALL SUCH WARRANTIES, 
  26:lib/helix/real/imdct.c ****  * INCLUDING WITHOUT LIMITATION, ANY WARRANTIES OF MERCHANTABILITY, FITNESS 
  27:lib/helix/real/imdct.c ****  * FOR A PARTICULAR PURPOSE, QUIET ENJOYMENT OR NON-INFRINGEMENT. 
  28:lib/helix/real/imdct.c ****  * 
  29:lib/helix/real/imdct.c ****  * Technology Compatibility Kit Test Suite(s) Location: 
  30:lib/helix/real/imdct.c ****  *    http://www.helixcommunity.org/content/tck 
  31:lib/helix/real/imdct.c ****  * 
  32:lib/helix/real/imdct.c ****  * Contributor(s): 
ARM GAS  C:\Users\Patryk\AppData\Local\Temp\ccHDsNa9.s 			page 2


  33:lib/helix/real/imdct.c ****  *  
  34:lib/helix/real/imdct.c ****  * ***** END LICENSE BLOCK ***** */ 
  35:lib/helix/real/imdct.c **** 
  36:lib/helix/real/imdct.c **** /**************************************************************************************
  37:lib/helix/real/imdct.c ****  * Fixed-point MP3 decoder
  38:lib/helix/real/imdct.c ****  * Jon Recker (jrecker@real.com), Ken Cooke (kenc@real.com)
  39:lib/helix/real/imdct.c ****  * June 2003
  40:lib/helix/real/imdct.c ****  *
  41:lib/helix/real/imdct.c ****  * imdct.c - antialias, inverse transform (short/long/mixed), windowing, 
  42:lib/helix/real/imdct.c ****  *             overlap-add, frequency inversion
  43:lib/helix/real/imdct.c ****  **************************************************************************************/
  44:lib/helix/real/imdct.c **** 
  45:lib/helix/real/imdct.c **** #include "coder.h"
  46:lib/helix/real/imdct.c **** #include "assembly.h"
  47:lib/helix/real/imdct.c **** 
  48:lib/helix/real/imdct.c **** /**************************************************************************************
  49:lib/helix/real/imdct.c ****  * Function:    AntiAlias
  50:lib/helix/real/imdct.c ****  *
  51:lib/helix/real/imdct.c ****  * Description: smooth transition across DCT block boundaries (every 18 coefficients)
  52:lib/helix/real/imdct.c ****  *
  53:lib/helix/real/imdct.c ****  * Inputs:      vector of dequantized coefficients, length = (nBfly+1) * 18
  54:lib/helix/real/imdct.c ****  *              number of "butterflies" to perform (one butterfly means one
  55:lib/helix/real/imdct.c ****  *                inter-block smoothing operation)
  56:lib/helix/real/imdct.c ****  *
  57:lib/helix/real/imdct.c ****  * Outputs:     updated coefficient vector x
  58:lib/helix/real/imdct.c ****  *
  59:lib/helix/real/imdct.c ****  * Return:      none
  60:lib/helix/real/imdct.c ****  *
  61:lib/helix/real/imdct.c ****  * Notes:       weighted average of opposite bands (pairwise) from the 8 samples 
  62:lib/helix/real/imdct.c ****  *                before and after each block boundary
  63:lib/helix/real/imdct.c ****  *              nBlocks = (nonZeroBound + 7) / 18, since nZB is the first ZERO sample 
  64:lib/helix/real/imdct.c ****  *                above which all other samples are also zero
  65:lib/helix/real/imdct.c ****  *              max gain per sample = 1.372
  66:lib/helix/real/imdct.c ****  *                MAX(i) (abs(csa[i][0]) + abs(csa[i][1]))
  67:lib/helix/real/imdct.c ****  *              bits gained = 0
  68:lib/helix/real/imdct.c ****  *              assume at least 1 guard bit in x[] to avoid overflow
  69:lib/helix/real/imdct.c ****  *                (should be guaranteed from dequant, and max gain from stproc * max 
  70:lib/helix/real/imdct.c ****  *                 gain from AntiAlias < 2.0)
  71:lib/helix/real/imdct.c ****  **************************************************************************************/
  72:lib/helix/real/imdct.c **** static void AntiAlias(int *x, int nBfly)
  73:lib/helix/real/imdct.c **** {
  27              		.loc 1 73 0
  28              		.cfi_startproc
  29              		@ args = 0, pretend = 0, frame = 0
  30              		@ frame_needed = 0, uses_anonymous_args = 0
  31              	.LVL0:
  74:lib/helix/real/imdct.c **** 	int k, a0, b0, c0, c1;
  75:lib/helix/real/imdct.c **** 	const int *c;
  76:lib/helix/real/imdct.c **** 
  77:lib/helix/real/imdct.c **** 	/* csa = Q31 */
  78:lib/helix/real/imdct.c **** 	for (k = nBfly; k > 0; k--) {
  32              		.loc 1 78 0
  33 0000 0029     		cmp	r1, #0
  34 0002 40F3CF80 		ble	.L7
  73:lib/helix/real/imdct.c **** 	int k, a0, b0, c0, c1;
  35              		.loc 1 73 0
  36 0006 F0B5     		push	{r4, r5, r6, r7, lr}
ARM GAS  C:\Users\Patryk\AppData\Local\Temp\ccHDsNa9.s 			page 3


  37              	.LCFI0:
  38              		.cfi_def_cfa_offset 20
  39              		.cfi_offset 4, -20
  40              		.cfi_offset 5, -16
  41              		.cfi_offset 6, -12
  42              		.cfi_offset 7, -8
  43              		.cfi_offset 14, -4
  44              	.LVL1:
  45              	.L3:
  79:lib/helix/real/imdct.c **** 		c = csa[0];
  80:lib/helix/real/imdct.c **** 		x += 18;
  46              		.loc 1 80 0 discriminator 3
  47 0008 4830     		adds	r0, r0, #72
  48              	.LVL2:
  81:lib/helix/real/imdct.c **** 
  82:lib/helix/real/imdct.c **** 		a0 = x[-1];			c0 = *c;	c++;	b0 = x[0];		c1 = *c;	c++;
  49              		.loc 1 82 0 discriminator 3
  50 000a 50F8047C 		ldr	r7, [r0, #-4]
  51              	.LVL3:
  52 000e 664B     		ldr	r3, .L8
  53 0010 1E68     		ldr	r6, [r3]
  54              	.LVL4:
  55 0012 D0F800C0 		ldr	ip, [r0]
  56              	.LVL5:
  57 0016 5D68     		ldr	r5, [r3, #4]
  58              	.LVL6:
  59              	.LBB200:
  60              	.LBB201:
  61              		.file 2 "lib/helix/real/assembly.h"
   1:lib/helix/real/assembly.h **** /* ***** BEGIN LICENSE BLOCK ***** 
   2:lib/helix/real/assembly.h ****  * Version: RCSL 1.0/RPSL 1.0 
   3:lib/helix/real/assembly.h ****  *  
   4:lib/helix/real/assembly.h ****  * Portions Copyright (c) 1995-2002 RealNetworks, Inc. All Rights Reserved. 
   5:lib/helix/real/assembly.h ****  *      
   6:lib/helix/real/assembly.h ****  * The contents of this file, and the files included with this file, are 
   7:lib/helix/real/assembly.h ****  * subject to the current version of the RealNetworks Public Source License 
   8:lib/helix/real/assembly.h ****  * Version 1.0 (the "RPSL") available at 
   9:lib/helix/real/assembly.h ****  * http://www.helixcommunity.org/content/rpsl unless you have licensed 
  10:lib/helix/real/assembly.h ****  * the file under the RealNetworks Community Source License Version 1.0 
  11:lib/helix/real/assembly.h ****  * (the "RCSL") available at http://www.helixcommunity.org/content/rcsl, 
  12:lib/helix/real/assembly.h ****  * in which case the RCSL will apply. You may also obtain the license terms 
  13:lib/helix/real/assembly.h ****  * directly from RealNetworks.  You may not use this file except in 
  14:lib/helix/real/assembly.h ****  * compliance with the RPSL or, if you have a valid RCSL with RealNetworks 
  15:lib/helix/real/assembly.h ****  * applicable to this file, the RCSL.  Please see the applicable RPSL or 
  16:lib/helix/real/assembly.h ****  * RCSL for the rights, obligations and limitations governing use of the 
  17:lib/helix/real/assembly.h ****  * contents of the file.  
  18:lib/helix/real/assembly.h ****  *  
  19:lib/helix/real/assembly.h ****  * This file is part of the Helix DNA Technology. RealNetworks is the 
  20:lib/helix/real/assembly.h ****  * developer of the Original Code and owns the copyrights in the portions 
  21:lib/helix/real/assembly.h ****  * it created. 
  22:lib/helix/real/assembly.h ****  *  
  23:lib/helix/real/assembly.h ****  * This file, and the files included with this file, is distributed and made 
  24:lib/helix/real/assembly.h ****  * available on an 'AS IS' basis, WITHOUT WARRANTY OF ANY KIND, EITHER 
  25:lib/helix/real/assembly.h ****  * EXPRESS OR IMPLIED, AND REALNETWORKS HEREBY DISCLAIMS ALL SUCH WARRANTIES, 
  26:lib/helix/real/assembly.h ****  * INCLUDING WITHOUT LIMITATION, ANY WARRANTIES OF MERCHANTABILITY, FITNESS 
  27:lib/helix/real/assembly.h ****  * FOR A PARTICULAR PURPOSE, QUIET ENJOYMENT OR NON-INFRINGEMENT. 
  28:lib/helix/real/assembly.h ****  * 
ARM GAS  C:\Users\Patryk\AppData\Local\Temp\ccHDsNa9.s 			page 4


  29:lib/helix/real/assembly.h ****  * Technology Compatibility Kit Test Suite(s) Location: 
  30:lib/helix/real/assembly.h ****  *    http://www.helixcommunity.org/content/tck 
  31:lib/helix/real/assembly.h ****  * 
  32:lib/helix/real/assembly.h ****  * Contributor(s): 
  33:lib/helix/real/assembly.h ****  *  
  34:lib/helix/real/assembly.h ****  * ***** END LICENSE BLOCK ***** */ 
  35:lib/helix/real/assembly.h **** 
  36:lib/helix/real/assembly.h **** /**************************************************************************************
  37:lib/helix/real/assembly.h ****  * Fixed-point MP3 decoder
  38:lib/helix/real/assembly.h ****  * Jon Recker (jrecker@real.com), Ken Cooke (kenc@real.com)
  39:lib/helix/real/assembly.h ****  * June 2003
  40:lib/helix/real/assembly.h ****  *
  41:lib/helix/real/assembly.h ****  * assembly.h - assembly language functions and prototypes for supported platforms
  42:lib/helix/real/assembly.h ****  *
  43:lib/helix/real/assembly.h ****  * - inline rountines with access to 64-bit multiply results 
  44:lib/helix/real/assembly.h ****  * - x86 (_WIN32) and ARM (ARM_ADS, _WIN32_WCE) versions included
  45:lib/helix/real/assembly.h ****  * - some inline functions are mix of asm and C for speed
  46:lib/helix/real/assembly.h ****  * - some functions are in native asm files, so only the prototype is given here
  47:lib/helix/real/assembly.h ****  *
  48:lib/helix/real/assembly.h ****  * MULSHIFT32(x, y)    signed multiply of two 32-bit integers (x and y), returns top 32 bits of 64-
  49:lib/helix/real/assembly.h ****  * FASTABS(x)          branchless absolute value of signed integer x
  50:lib/helix/real/assembly.h ****  * CLZ(x)              count leading zeros in x
  51:lib/helix/real/assembly.h ****  * MADD64(sum, x, y)   (Windows only) sum [64-bit] += x [32-bit] * y [32-bit]
  52:lib/helix/real/assembly.h ****  * SHL64(sum, x, y)    (Windows only) 64-bit left shift using __int64
  53:lib/helix/real/assembly.h ****  * SAR64(sum, x, y)    (Windows only) 64-bit right shift using __int64
  54:lib/helix/real/assembly.h ****  */
  55:lib/helix/real/assembly.h **** 
  56:lib/helix/real/assembly.h **** #ifndef _ASSEMBLY_H
  57:lib/helix/real/assembly.h **** #define _ASSEMBLY_H
  58:lib/helix/real/assembly.h **** 
  59:lib/helix/real/assembly.h **** #include "../platform.h"
  60:lib/helix/real/assembly.h **** 
  61:lib/helix/real/assembly.h **** #if (defined _WIN32 && !defined _WIN32_WCE) || (defined __WINS__ && defined _SYMBIAN) || defined(_O
  62:lib/helix/real/assembly.h **** 
  63:lib/helix/real/assembly.h **** #pragma warning( disable : 4035 )	/* complains about inline asm not returning a value */
  64:lib/helix/real/assembly.h **** 
  65:lib/helix/real/assembly.h **** static __inline int MULSHIFT32(int x, int y)	
  66:lib/helix/real/assembly.h **** {
  67:lib/helix/real/assembly.h ****     __asm {
  68:lib/helix/real/assembly.h **** 		mov		eax, x
  69:lib/helix/real/assembly.h **** 	    imul	y
  70:lib/helix/real/assembly.h **** 	    mov		eax, edx
  71:lib/helix/real/assembly.h **** 	}
  72:lib/helix/real/assembly.h **** }
  73:lib/helix/real/assembly.h **** 
  74:lib/helix/real/assembly.h **** static __inline int FASTABS(int x) 
  75:lib/helix/real/assembly.h **** {
  76:lib/helix/real/assembly.h **** 	int sign;
  77:lib/helix/real/assembly.h **** 
  78:lib/helix/real/assembly.h **** 	sign = x >> (sizeof(int) * 8 - 1);
  79:lib/helix/real/assembly.h **** 	x ^= sign;
  80:lib/helix/real/assembly.h **** 	x -= sign;
  81:lib/helix/real/assembly.h **** 
  82:lib/helix/real/assembly.h **** 	return x;
  83:lib/helix/real/assembly.h **** }
  84:lib/helix/real/assembly.h **** 
  85:lib/helix/real/assembly.h **** static __inline int CLZ(int x)
ARM GAS  C:\Users\Patryk\AppData\Local\Temp\ccHDsNa9.s 			page 5


  86:lib/helix/real/assembly.h **** {
  87:lib/helix/real/assembly.h **** 	int numZeros;
  88:lib/helix/real/assembly.h **** 
  89:lib/helix/real/assembly.h **** 	if (!x)
  90:lib/helix/real/assembly.h **** 		return (sizeof(int) * 8);
  91:lib/helix/real/assembly.h **** 
  92:lib/helix/real/assembly.h **** 	numZeros = 0;
  93:lib/helix/real/assembly.h **** 	while (!(x & 0x80000000)) {
  94:lib/helix/real/assembly.h **** 		numZeros++;
  95:lib/helix/real/assembly.h **** 		x <<= 1;
  96:lib/helix/real/assembly.h **** 	} 
  97:lib/helix/real/assembly.h **** 
  98:lib/helix/real/assembly.h **** 	return numZeros;
  99:lib/helix/real/assembly.h **** }
 100:lib/helix/real/assembly.h **** 
 101:lib/helix/real/assembly.h **** /* MADD64, SHL64, SAR64:
 102:lib/helix/real/assembly.h ****  * write in assembly to avoid dependency on run-time lib for 64-bit shifts, muls
 103:lib/helix/real/assembly.h ****  *  (sometimes compiler thunks to function calls instead of code generating)
 104:lib/helix/real/assembly.h ****  * required for Symbian emulator
 105:lib/helix/real/assembly.h ****  */
 106:lib/helix/real/assembly.h **** #ifdef __CW32__
 107:lib/helix/real/assembly.h **** typedef long long Word64;
 108:lib/helix/real/assembly.h **** #else
 109:lib/helix/real/assembly.h **** typedef __int64 Word64;
 110:lib/helix/real/assembly.h **** #endif
 111:lib/helix/real/assembly.h **** 
 112:lib/helix/real/assembly.h **** static __inline Word64 MADD64(Word64 sum, int x, int y)
 113:lib/helix/real/assembly.h **** {
 114:lib/helix/real/assembly.h **** 	unsigned int sumLo = ((unsigned int *)&sum)[0];
 115:lib/helix/real/assembly.h **** 	int sumHi = ((int *)&sum)[1];
 116:lib/helix/real/assembly.h **** 
 117:lib/helix/real/assembly.h **** 	__asm {
 118:lib/helix/real/assembly.h **** 		mov		eax, x
 119:lib/helix/real/assembly.h **** 		imul	y
 120:lib/helix/real/assembly.h **** 		add		eax, sumLo
 121:lib/helix/real/assembly.h **** 		adc		edx, sumHi
 122:lib/helix/real/assembly.h **** 	}
 123:lib/helix/real/assembly.h **** 
 124:lib/helix/real/assembly.h **** 	/* equivalent to return (sum + ((__int64)x * y)); */
 125:lib/helix/real/assembly.h **** }
 126:lib/helix/real/assembly.h **** 
 127:lib/helix/real/assembly.h **** static __inline Word64 SHL64(Word64 x, int n)
 128:lib/helix/real/assembly.h **** {
 129:lib/helix/real/assembly.h **** 	unsigned int xLo = ((unsigned int *)&x)[0];
 130:lib/helix/real/assembly.h **** 	int xHi = ((int *)&x)[1];
 131:lib/helix/real/assembly.h **** 	unsigned char nb = (unsigned char)n;
 132:lib/helix/real/assembly.h **** 
 133:lib/helix/real/assembly.h **** 	if (n < 32) {
 134:lib/helix/real/assembly.h **** 		__asm {
 135:lib/helix/real/assembly.h **** 			mov		edx, xHi
 136:lib/helix/real/assembly.h **** 			mov		eax, xLo
 137:lib/helix/real/assembly.h **** 			mov		cl, nb
 138:lib/helix/real/assembly.h **** 			shld    edx, eax, cl
 139:lib/helix/real/assembly.h **** 			shl     eax, cl
 140:lib/helix/real/assembly.h **** 		}
 141:lib/helix/real/assembly.h **** 	} else if (n < 64) {
 142:lib/helix/real/assembly.h **** 		/* shl masks cl to 0x1f */
ARM GAS  C:\Users\Patryk\AppData\Local\Temp\ccHDsNa9.s 			page 6


 143:lib/helix/real/assembly.h **** 		__asm {
 144:lib/helix/real/assembly.h **** 			mov		edx, xLo
 145:lib/helix/real/assembly.h **** 			mov		cl, nb
 146:lib/helix/real/assembly.h **** 			xor     eax, eax
 147:lib/helix/real/assembly.h **** 			shl     edx, cl
 148:lib/helix/real/assembly.h **** 		}
 149:lib/helix/real/assembly.h **** 	} else {
 150:lib/helix/real/assembly.h **** 		__asm {
 151:lib/helix/real/assembly.h **** 			xor		edx, edx
 152:lib/helix/real/assembly.h **** 			xor		eax, eax
 153:lib/helix/real/assembly.h **** 		}
 154:lib/helix/real/assembly.h **** 	}
 155:lib/helix/real/assembly.h **** }
 156:lib/helix/real/assembly.h **** 
 157:lib/helix/real/assembly.h **** static __inline Word64 SAR64(Word64 x, int n)
 158:lib/helix/real/assembly.h **** {
 159:lib/helix/real/assembly.h **** 	unsigned int xLo = ((unsigned int *)&x)[0];
 160:lib/helix/real/assembly.h **** 	int xHi = ((int *)&x)[1];
 161:lib/helix/real/assembly.h **** 	unsigned char nb = (unsigned char)n;
 162:lib/helix/real/assembly.h **** 
 163:lib/helix/real/assembly.h **** 	if (n < 32) {
 164:lib/helix/real/assembly.h **** 		__asm {
 165:lib/helix/real/assembly.h **** 			mov		edx, xHi
 166:lib/helix/real/assembly.h **** 			mov		eax, xLo
 167:lib/helix/real/assembly.h **** 			mov		cl, nb
 168:lib/helix/real/assembly.h **** 			shrd	eax, edx, cl
 169:lib/helix/real/assembly.h **** 			sar		edx, cl
 170:lib/helix/real/assembly.h **** 		}
 171:lib/helix/real/assembly.h **** 	} else if (n < 64) {
 172:lib/helix/real/assembly.h **** 		/* sar masks cl to 0x1f */
 173:lib/helix/real/assembly.h **** 		__asm {
 174:lib/helix/real/assembly.h **** 			mov		edx, xHi
 175:lib/helix/real/assembly.h **** 			mov		eax, xHi
 176:lib/helix/real/assembly.h **** 			mov		cl, nb
 177:lib/helix/real/assembly.h **** 			sar		edx, 31
 178:lib/helix/real/assembly.h **** 			sar		eax, cl
 179:lib/helix/real/assembly.h **** 		}
 180:lib/helix/real/assembly.h **** 	} else {
 181:lib/helix/real/assembly.h **** 		__asm {
 182:lib/helix/real/assembly.h **** 			sar		xHi, 31
 183:lib/helix/real/assembly.h **** 			mov		eax, xHi
 184:lib/helix/real/assembly.h **** 			mov		edx, xHi
 185:lib/helix/real/assembly.h **** 		}
 186:lib/helix/real/assembly.h **** 	}
 187:lib/helix/real/assembly.h **** }
 188:lib/helix/real/assembly.h **** 
 189:lib/helix/real/assembly.h **** #elif (defined _WIN32) && (defined _WIN32_WCE)
 190:lib/helix/real/assembly.h **** 
 191:lib/helix/real/assembly.h **** /* use asm function for now (EVC++ 3.0 does horrible job compiling __int64 version) */
 192:lib/helix/real/assembly.h **** #define MULSHIFT32	xmp3_MULSHIFT32
 193:lib/helix/real/assembly.h **** int MULSHIFT32(int x, int y);
 194:lib/helix/real/assembly.h **** 
 195:lib/helix/real/assembly.h **** static __inline int FASTABS(int x) 
 196:lib/helix/real/assembly.h **** {
 197:lib/helix/real/assembly.h **** 	int sign;
 198:lib/helix/real/assembly.h **** 
 199:lib/helix/real/assembly.h **** 	sign = x >> (sizeof(int) * 8 - 1);
ARM GAS  C:\Users\Patryk\AppData\Local\Temp\ccHDsNa9.s 			page 7


 200:lib/helix/real/assembly.h **** 	x ^= sign;
 201:lib/helix/real/assembly.h **** 	x -= sign;
 202:lib/helix/real/assembly.h **** 
 203:lib/helix/real/assembly.h **** 	return x;
 204:lib/helix/real/assembly.h **** }
 205:lib/helix/real/assembly.h **** 
 206:lib/helix/real/assembly.h **** static __inline int CLZ(int x)
 207:lib/helix/real/assembly.h **** {
 208:lib/helix/real/assembly.h **** 	int numZeros;
 209:lib/helix/real/assembly.h **** 
 210:lib/helix/real/assembly.h **** 	if (!x)
 211:lib/helix/real/assembly.h **** 		return (sizeof(int) * 8);
 212:lib/helix/real/assembly.h **** 
 213:lib/helix/real/assembly.h **** 	numZeros = 0;
 214:lib/helix/real/assembly.h **** 	while (!(x & 0x80000000)) {
 215:lib/helix/real/assembly.h **** 		numZeros++;
 216:lib/helix/real/assembly.h **** 		x <<= 1;
 217:lib/helix/real/assembly.h **** 	} 
 218:lib/helix/real/assembly.h **** 
 219:lib/helix/real/assembly.h **** 	return numZeros;
 220:lib/helix/real/assembly.h **** }
 221:lib/helix/real/assembly.h **** 
 222:lib/helix/real/assembly.h **** #elif defined ARM_ADS
 223:lib/helix/real/assembly.h **** 
 224:lib/helix/real/assembly.h **** static __inline int MULSHIFT32(int x, int y)
 225:lib/helix/real/assembly.h **** {
 226:lib/helix/real/assembly.h ****     /* important rules for smull RdLo, RdHi, Rm, Rs:
 227:lib/helix/real/assembly.h ****      *     RdHi and Rm can't be the same register
 228:lib/helix/real/assembly.h ****      *     RdLo and Rm can't be the same register
 229:lib/helix/real/assembly.h ****      *     RdHi and RdLo can't be the same register
 230:lib/helix/real/assembly.h ****      * Note: Rs determines early termination (leading sign bits) so if you want to specify
 231:lib/helix/real/assembly.h ****      *   which operand is Rs, put it in the SECOND argument (y)
 232:lib/helix/real/assembly.h **** 	 * For inline assembly, x and y are not assumed to be R0, R1 so it shouldn't matter
 233:lib/helix/real/assembly.h **** 	 *   which one is returned. (If this were a function call, returning y (R1) would 
 234:lib/helix/real/assembly.h **** 	 *   require an extra "mov r0, r1")
 235:lib/helix/real/assembly.h ****      */
 236:lib/helix/real/assembly.h ****     int zlow;
 237:lib/helix/real/assembly.h ****     __asm {
 238:lib/helix/real/assembly.h ****     	smull zlow,y,x,y
 239:lib/helix/real/assembly.h ****    	}
 240:lib/helix/real/assembly.h **** 
 241:lib/helix/real/assembly.h ****     return y;
 242:lib/helix/real/assembly.h **** }
 243:lib/helix/real/assembly.h **** 
 244:lib/helix/real/assembly.h **** static __inline int FASTABS(int x) 
 245:lib/helix/real/assembly.h **** {
 246:lib/helix/real/assembly.h **** 	int t=0; /*Really is not necessary to initialiaze only to avoid warning*/
 247:lib/helix/real/assembly.h **** 
 248:lib/helix/real/assembly.h **** 	__asm {
 249:lib/helix/real/assembly.h **** 		eor	t, x, x, asr #31
 250:lib/helix/real/assembly.h **** 		sub	t, t, x, asr #31
 251:lib/helix/real/assembly.h **** 	}
 252:lib/helix/real/assembly.h **** 
 253:lib/helix/real/assembly.h **** 	return t;
 254:lib/helix/real/assembly.h **** }
 255:lib/helix/real/assembly.h **** 
 256:lib/helix/real/assembly.h **** static __inline int CLZ(int x)
ARM GAS  C:\Users\Patryk\AppData\Local\Temp\ccHDsNa9.s 			page 8


 257:lib/helix/real/assembly.h **** {
 258:lib/helix/real/assembly.h **** 	int numZeros;
 259:lib/helix/real/assembly.h **** 
 260:lib/helix/real/assembly.h **** 	if (!x)
 261:lib/helix/real/assembly.h **** 		return (sizeof(int) * 8);
 262:lib/helix/real/assembly.h **** 
 263:lib/helix/real/assembly.h **** 	numZeros = 0;
 264:lib/helix/real/assembly.h **** 	while (!(x & 0x80000000)) {
 265:lib/helix/real/assembly.h **** 		numZeros++;
 266:lib/helix/real/assembly.h **** 		x <<= 1;
 267:lib/helix/real/assembly.h **** 	} 
 268:lib/helix/real/assembly.h **** 
 269:lib/helix/real/assembly.h **** 	return numZeros;
 270:lib/helix/real/assembly.h **** }
 271:lib/helix/real/assembly.h **** 
 272:lib/helix/real/assembly.h **** #elif defined(__GNUC__) && defined(ARM)
 273:lib/helix/real/assembly.h **** 
 274:lib/helix/real/assembly.h **** static __inline int MULSHIFT32(int x, int y)
 275:lib/helix/real/assembly.h **** {
 276:lib/helix/real/assembly.h ****     /* important rules for smull RdLo, RdHi, Rm, Rs:
 277:lib/helix/real/assembly.h ****      *     RdHi and Rm can't be the same register
 278:lib/helix/real/assembly.h ****      *     RdLo and Rm can't be the same register
 279:lib/helix/real/assembly.h ****      *     RdHi and RdLo can't be the same register
 280:lib/helix/real/assembly.h ****      * Note: Rs determines early termination (leading sign bits) so if you want to specify
 281:lib/helix/real/assembly.h ****      *   which operand is Rs, put it in the SECOND argument (y)
 282:lib/helix/real/assembly.h **** 	 * For inline assembly, x and y are not assumed to be R0, R1 so it shouldn't matter
 283:lib/helix/real/assembly.h **** 	 *   which one is returned. (If this were a function call, returning y (R1) would 
 284:lib/helix/real/assembly.h **** 	 *   require an extra "mov r0, r1")
 285:lib/helix/real/assembly.h ****      */
 286:lib/helix/real/assembly.h ****     int zlow;
 287:lib/helix/real/assembly.h ****     __asm__ volatile ("smull %0,%1,%2,%3" : "=&r" (zlow), "=r" (y) : "r" (x), "1" (y)) ;
 288:lib/helix/real/assembly.h **** 
 289:lib/helix/real/assembly.h ****     return y;
 290:lib/helix/real/assembly.h **** }
 291:lib/helix/real/assembly.h **** 
 292:lib/helix/real/assembly.h **** static __inline int FASTABS(int x) 
 293:lib/helix/real/assembly.h **** {
 294:lib/helix/real/assembly.h **** 	int t=0; /*Really is not necessary to initialiaze only to avoid warning*/
 295:lib/helix/real/assembly.h **** 
 296:lib/helix/real/assembly.h **** 	__asm__ volatile (
 297:lib/helix/real/assembly.h **** 		"eor %0,%2,%2, asr #31;"
 298:lib/helix/real/assembly.h **** 		"sub %0,%1,%2, asr #31;"
 299:lib/helix/real/assembly.h **** 		: "=&r" (t) 
 300:lib/helix/real/assembly.h **** 		: "0" (t), "r" (x)
 301:lib/helix/real/assembly.h **** 	 );
 302:lib/helix/real/assembly.h **** 
 303:lib/helix/real/assembly.h **** 	return t;
 304:lib/helix/real/assembly.h **** }
 305:lib/helix/real/assembly.h **** 
 306:lib/helix/real/assembly.h **** static __inline int CLZ(int x)
 307:lib/helix/real/assembly.h **** {
 308:lib/helix/real/assembly.h **** 	int numZeros;
 309:lib/helix/real/assembly.h **** 
 310:lib/helix/real/assembly.h **** 	if (!x)
 311:lib/helix/real/assembly.h **** 		return (sizeof(int) * 8);
 312:lib/helix/real/assembly.h **** 
 313:lib/helix/real/assembly.h **** 	numZeros = 0;
ARM GAS  C:\Users\Patryk\AppData\Local\Temp\ccHDsNa9.s 			page 9


 314:lib/helix/real/assembly.h **** 	while (!(x & 0x80000000)) {
 315:lib/helix/real/assembly.h **** 		numZeros++;
 316:lib/helix/real/assembly.h **** 		x <<= 1;
 317:lib/helix/real/assembly.h **** 	} 
 318:lib/helix/real/assembly.h **** 
 319:lib/helix/real/assembly.h **** 	return numZeros;
 320:lib/helix/real/assembly.h **** }
 321:lib/helix/real/assembly.h **** 
 322:lib/helix/real/assembly.h **** #elif defined(ARM_TEST)
 323:lib/helix/real/assembly.h **** static __inline__ int MULSHIFT32(int x, int y)
 324:lib/helix/real/assembly.h **** {
 325:lib/helix/real/assembly.h **** 	int zlow;
 326:lib/helix/real/assembly.h **** 	__asm__ volatile ("smull %0,%1,%2,%3" : "=&r" (zlow), "=r" (y) : "r" (x), "1" (y) : "cc");
  62              		.loc 2 326 0 discriminator 3
  63 0018 3A46     		mov	r2, r7
  64              		.syntax unified
  65              	@ 326 "lib/helix/real/assembly.h" 1
  66 001a 86FB0242 		smull r4,r2,r6,r2
  67              	@ 0 "" 2
  68              	.LVL7:
  69              		.thumb
  70              		.syntax unified
  71              	.LBE201:
  72              	.LBE200:
  73              	.LBB202:
  74              	.LBB203:
  75 001e 6446     		mov	r4, ip
  76              		.syntax unified
  77              	@ 326 "lib/helix/real/assembly.h" 1
  78 0020 85FB04E4 		smull lr,r4,r5,r4
  79              	@ 0 "" 2
  80              	.LVL8:
  81              		.thumb
  82              		.syntax unified
  83              	.LBE203:
  84              	.LBE202:
  83:lib/helix/real/imdct.c **** 		x[-1] = (MULSHIFT32(c0, a0) - MULSHIFT32(c1, b0)) << 1;	
  85              		.loc 1 83 0 discriminator 3
  86 0024 121B     		subs	r2, r2, r4
  87 0026 5200     		lsls	r2, r2, #1
  88 0028 40F8042C 		str	r2, [r0, #-4]
  89              	.LVL9:
  90              	.LBB204:
  91              	.LBB205:
  92              		.loc 2 326 0 discriminator 3
  93 002c 6446     		mov	r4, ip
  94              		.syntax unified
  95              	@ 326 "lib/helix/real/assembly.h" 1
  96 002e 86FB0424 		smull r2,r4,r6,r4
  97              	@ 0 "" 2
  98              	.LVL10:
  99              		.thumb
 100              		.syntax unified
 101              	.LBE205:
 102              	.LBE204:
 103              	.LBB206:
 104              	.LBB207:
ARM GAS  C:\Users\Patryk\AppData\Local\Temp\ccHDsNa9.s 			page 10


 105 0032 3A46     		mov	r2, r7
 106              		.syntax unified
 107              	@ 326 "lib/helix/real/assembly.h" 1
 108 0034 85FB0262 		smull r6,r2,r5,r2
 109              	@ 0 "" 2
 110              	.LVL11:
 111              		.thumb
 112              		.syntax unified
 113              	.LBE207:
 114              	.LBE206:
  84:lib/helix/real/imdct.c **** 		x[0] =  (MULSHIFT32(c0, b0) + MULSHIFT32(c1, a0)) << 1;
 115              		.loc 1 84 0 discriminator 3
 116 0038 2244     		add	r2, r2, r4
 117 003a 5200     		lsls	r2, r2, #1
 118 003c 0260     		str	r2, [r0]
  85:lib/helix/real/imdct.c **** 
  86:lib/helix/real/imdct.c **** 		a0 = x[-2];			c0 = *c;	c++;	b0 = x[1];		c1 = *c;	c++;
 119              		.loc 1 86 0 discriminator 3
 120 003e 50F8087C 		ldr	r7, [r0, #-8]
 121              	.LVL12:
 122 0042 9E68     		ldr	r6, [r3, #8]
 123              	.LVL13:
 124 0044 D0F804C0 		ldr	ip, [r0, #4]
 125              	.LVL14:
 126 0048 DD68     		ldr	r5, [r3, #12]
 127              	.LVL15:
 128              	.LBB208:
 129              	.LBB209:
 130              		.loc 2 326 0 discriminator 3
 131 004a 3A46     		mov	r2, r7
 132              		.syntax unified
 133              	@ 326 "lib/helix/real/assembly.h" 1
 134 004c 86FB0242 		smull r4,r2,r6,r2
 135              	@ 0 "" 2
 136              	.LVL16:
 137              		.thumb
 138              		.syntax unified
 139              	.LBE209:
 140              	.LBE208:
 141              	.LBB210:
 142              	.LBB211:
 143 0050 6446     		mov	r4, ip
 144              		.syntax unified
 145              	@ 326 "lib/helix/real/assembly.h" 1
 146 0052 85FB04E4 		smull lr,r4,r5,r4
 147              	@ 0 "" 2
 148              	.LVL17:
 149              		.thumb
 150              		.syntax unified
 151              	.LBE211:
 152              	.LBE210:
  87:lib/helix/real/imdct.c **** 		x[-2] = (MULSHIFT32(c0, a0) - MULSHIFT32(c1, b0)) << 1;	
 153              		.loc 1 87 0 discriminator 3
 154 0056 121B     		subs	r2, r2, r4
 155 0058 5200     		lsls	r2, r2, #1
 156 005a 40F8082C 		str	r2, [r0, #-8]
 157              	.LVL18:
ARM GAS  C:\Users\Patryk\AppData\Local\Temp\ccHDsNa9.s 			page 11


 158              	.LBB212:
 159              	.LBB213:
 160              		.loc 2 326 0 discriminator 3
 161 005e 6446     		mov	r4, ip
 162              		.syntax unified
 163              	@ 326 "lib/helix/real/assembly.h" 1
 164 0060 86FB0424 		smull r2,r4,r6,r4
 165              	@ 0 "" 2
 166              	.LVL19:
 167              		.thumb
 168              		.syntax unified
 169              	.LBE213:
 170              	.LBE212:
 171              	.LBB214:
 172              	.LBB215:
 173 0064 3A46     		mov	r2, r7
 174              		.syntax unified
 175              	@ 326 "lib/helix/real/assembly.h" 1
 176 0066 85FB0262 		smull r6,r2,r5,r2
 177              	@ 0 "" 2
 178              	.LVL20:
 179              		.thumb
 180              		.syntax unified
 181              	.LBE215:
 182              	.LBE214:
  88:lib/helix/real/imdct.c **** 		x[1] =  (MULSHIFT32(c0, b0) + MULSHIFT32(c1, a0)) << 1;
 183              		.loc 1 88 0 discriminator 3
 184 006a 2244     		add	r2, r2, r4
 185 006c 5200     		lsls	r2, r2, #1
 186 006e 4260     		str	r2, [r0, #4]
  89:lib/helix/real/imdct.c **** 		
  90:lib/helix/real/imdct.c **** 		a0 = x[-3];			c0 = *c;	c++;	b0 = x[2];		c1 = *c;	c++;
 187              		.loc 1 90 0 discriminator 3
 188 0070 50F80C7C 		ldr	r7, [r0, #-12]
 189              	.LVL21:
 190 0074 1E69     		ldr	r6, [r3, #16]
 191              	.LVL22:
 192 0076 D0F808C0 		ldr	ip, [r0, #8]
 193              	.LVL23:
 194 007a 5D69     		ldr	r5, [r3, #20]
 195              	.LVL24:
 196              	.LBB216:
 197              	.LBB217:
 198              		.loc 2 326 0 discriminator 3
 199 007c 3A46     		mov	r2, r7
 200              		.syntax unified
 201              	@ 326 "lib/helix/real/assembly.h" 1
 202 007e 86FB0242 		smull r4,r2,r6,r2
 203              	@ 0 "" 2
 204              	.LVL25:
 205              		.thumb
 206              		.syntax unified
 207              	.LBE217:
 208              	.LBE216:
 209              	.LBB218:
 210              	.LBB219:
 211 0082 6446     		mov	r4, ip
ARM GAS  C:\Users\Patryk\AppData\Local\Temp\ccHDsNa9.s 			page 12


 212              		.syntax unified
 213              	@ 326 "lib/helix/real/assembly.h" 1
 214 0084 85FB04E4 		smull lr,r4,r5,r4
 215              	@ 0 "" 2
 216              	.LVL26:
 217              		.thumb
 218              		.syntax unified
 219              	.LBE219:
 220              	.LBE218:
  91:lib/helix/real/imdct.c **** 		x[-3] = (MULSHIFT32(c0, a0) - MULSHIFT32(c1, b0)) << 1;	
 221              		.loc 1 91 0 discriminator 3
 222 0088 121B     		subs	r2, r2, r4
 223 008a 5200     		lsls	r2, r2, #1
 224 008c 40F80C2C 		str	r2, [r0, #-12]
 225              	.LVL27:
 226              	.LBB220:
 227              	.LBB221:
 228              		.loc 2 326 0 discriminator 3
 229 0090 6446     		mov	r4, ip
 230              		.syntax unified
 231              	@ 326 "lib/helix/real/assembly.h" 1
 232 0092 86FB0424 		smull r2,r4,r6,r4
 233              	@ 0 "" 2
 234              	.LVL28:
 235              		.thumb
 236              		.syntax unified
 237              	.LBE221:
 238              	.LBE220:
 239              	.LBB222:
 240              	.LBB223:
 241 0096 3A46     		mov	r2, r7
 242              		.syntax unified
 243              	@ 326 "lib/helix/real/assembly.h" 1
 244 0098 85FB0262 		smull r6,r2,r5,r2
 245              	@ 0 "" 2
 246              	.LVL29:
 247              		.thumb
 248              		.syntax unified
 249              	.LBE223:
 250              	.LBE222:
  92:lib/helix/real/imdct.c **** 		x[2] =  (MULSHIFT32(c0, b0) + MULSHIFT32(c1, a0)) << 1;
 251              		.loc 1 92 0 discriminator 3
 252 009c 2244     		add	r2, r2, r4
 253 009e 5200     		lsls	r2, r2, #1
 254 00a0 8260     		str	r2, [r0, #8]
  93:lib/helix/real/imdct.c **** 
  94:lib/helix/real/imdct.c **** 		a0 = x[-4];			c0 = *c;	c++;	b0 = x[3];		c1 = *c;	c++;
 255              		.loc 1 94 0 discriminator 3
 256 00a2 50F8107C 		ldr	r7, [r0, #-16]
 257              	.LVL30:
 258 00a6 9E69     		ldr	r6, [r3, #24]
 259              	.LVL31:
 260 00a8 D0F80CC0 		ldr	ip, [r0, #12]
 261              	.LVL32:
 262 00ac DD69     		ldr	r5, [r3, #28]
 263              	.LVL33:
 264              	.LBB224:
ARM GAS  C:\Users\Patryk\AppData\Local\Temp\ccHDsNa9.s 			page 13


 265              	.LBB225:
 266              		.loc 2 326 0 discriminator 3
 267 00ae 3A46     		mov	r2, r7
 268              		.syntax unified
 269              	@ 326 "lib/helix/real/assembly.h" 1
 270 00b0 86FB0242 		smull r4,r2,r6,r2
 271              	@ 0 "" 2
 272              	.LVL34:
 273              		.thumb
 274              		.syntax unified
 275              	.LBE225:
 276              	.LBE224:
 277              	.LBB226:
 278              	.LBB227:
 279 00b4 6446     		mov	r4, ip
 280              		.syntax unified
 281              	@ 326 "lib/helix/real/assembly.h" 1
 282 00b6 85FB04E4 		smull lr,r4,r5,r4
 283              	@ 0 "" 2
 284              	.LVL35:
 285              		.thumb
 286              		.syntax unified
 287              	.LBE227:
 288              	.LBE226:
  95:lib/helix/real/imdct.c **** 		x[-4] = (MULSHIFT32(c0, a0) - MULSHIFT32(c1, b0)) << 1;	
 289              		.loc 1 95 0 discriminator 3
 290 00ba 121B     		subs	r2, r2, r4
 291 00bc 5200     		lsls	r2, r2, #1
 292 00be 40F8102C 		str	r2, [r0, #-16]
 293              	.LVL36:
 294              	.LBB228:
 295              	.LBB229:
 296              		.loc 2 326 0 discriminator 3
 297 00c2 6446     		mov	r4, ip
 298              		.syntax unified
 299              	@ 326 "lib/helix/real/assembly.h" 1
 300 00c4 86FB0424 		smull r2,r4,r6,r4
 301              	@ 0 "" 2
 302              	.LVL37:
 303              		.thumb
 304              		.syntax unified
 305              	.LBE229:
 306              	.LBE228:
 307              	.LBB230:
 308              	.LBB231:
 309 00c8 3A46     		mov	r2, r7
 310              		.syntax unified
 311              	@ 326 "lib/helix/real/assembly.h" 1
 312 00ca 85FB0262 		smull r6,r2,r5,r2
 313              	@ 0 "" 2
 314              	.LVL38:
 315              		.thumb
 316              		.syntax unified
 317              	.LBE231:
 318              	.LBE230:
  96:lib/helix/real/imdct.c **** 		x[3] =  (MULSHIFT32(c0, b0) + MULSHIFT32(c1, a0)) << 1;
 319              		.loc 1 96 0 discriminator 3
ARM GAS  C:\Users\Patryk\AppData\Local\Temp\ccHDsNa9.s 			page 14


 320 00ce 2244     		add	r2, r2, r4
 321 00d0 5200     		lsls	r2, r2, #1
 322 00d2 C260     		str	r2, [r0, #12]
  97:lib/helix/real/imdct.c **** 
  98:lib/helix/real/imdct.c **** 		a0 = x[-5];			c0 = *c;	c++;	b0 = x[4];		c1 = *c;	c++;
 323              		.loc 1 98 0 discriminator 3
 324 00d4 50F8147C 		ldr	r7, [r0, #-20]
 325              	.LVL39:
 326 00d8 1E6A     		ldr	r6, [r3, #32]
 327              	.LVL40:
 328 00da D0F810C0 		ldr	ip, [r0, #16]
 329              	.LVL41:
 330 00de 5D6A     		ldr	r5, [r3, #36]
 331              	.LVL42:
 332              	.LBB232:
 333              	.LBB233:
 334              		.loc 2 326 0 discriminator 3
 335 00e0 3A46     		mov	r2, r7
 336              		.syntax unified
 337              	@ 326 "lib/helix/real/assembly.h" 1
 338 00e2 86FB0242 		smull r4,r2,r6,r2
 339              	@ 0 "" 2
 340              	.LVL43:
 341              		.thumb
 342              		.syntax unified
 343              	.LBE233:
 344              	.LBE232:
 345              	.LBB234:
 346              	.LBB235:
 347 00e6 6446     		mov	r4, ip
 348              		.syntax unified
 349              	@ 326 "lib/helix/real/assembly.h" 1
 350 00e8 85FB04E4 		smull lr,r4,r5,r4
 351              	@ 0 "" 2
 352              	.LVL44:
 353              		.thumb
 354              		.syntax unified
 355              	.LBE235:
 356              	.LBE234:
  99:lib/helix/real/imdct.c **** 		x[-5] = (MULSHIFT32(c0, a0) - MULSHIFT32(c1, b0)) << 1;	
 357              		.loc 1 99 0 discriminator 3
 358 00ec 121B     		subs	r2, r2, r4
 359 00ee 5200     		lsls	r2, r2, #1
 360 00f0 40F8142C 		str	r2, [r0, #-20]
 361              	.LVL45:
 362              	.LBB236:
 363              	.LBB237:
 364              		.loc 2 326 0 discriminator 3
 365 00f4 6446     		mov	r4, ip
 366              		.syntax unified
 367              	@ 326 "lib/helix/real/assembly.h" 1
 368 00f6 86FB0424 		smull r2,r4,r6,r4
 369              	@ 0 "" 2
 370              	.LVL46:
 371              		.thumb
 372              		.syntax unified
 373              	.LBE237:
ARM GAS  C:\Users\Patryk\AppData\Local\Temp\ccHDsNa9.s 			page 15


 374              	.LBE236:
 375              	.LBB238:
 376              	.LBB239:
 377 00fa 3A46     		mov	r2, r7
 378              		.syntax unified
 379              	@ 326 "lib/helix/real/assembly.h" 1
 380 00fc 85FB0262 		smull r6,r2,r5,r2
 381              	@ 0 "" 2
 382              	.LVL47:
 383              		.thumb
 384              		.syntax unified
 385              	.LBE239:
 386              	.LBE238:
 100:lib/helix/real/imdct.c **** 		x[4] =  (MULSHIFT32(c0, b0) + MULSHIFT32(c1, a0)) << 1;
 387              		.loc 1 100 0 discriminator 3
 388 0100 2244     		add	r2, r2, r4
 389 0102 5200     		lsls	r2, r2, #1
 390 0104 0261     		str	r2, [r0, #16]
 101:lib/helix/real/imdct.c **** 
 102:lib/helix/real/imdct.c **** 		a0 = x[-6];			c0 = *c;	c++;	b0 = x[5];		c1 = *c;	c++;
 391              		.loc 1 102 0 discriminator 3
 392 0106 50F8187C 		ldr	r7, [r0, #-24]
 393              	.LVL48:
 394 010a 9E6A     		ldr	r6, [r3, #40]
 395              	.LVL49:
 396 010c D0F814C0 		ldr	ip, [r0, #20]
 397              	.LVL50:
 398 0110 DD6A     		ldr	r5, [r3, #44]
 399              	.LVL51:
 400              	.LBB240:
 401              	.LBB241:
 402              		.loc 2 326 0 discriminator 3
 403 0112 3A46     		mov	r2, r7
 404              		.syntax unified
 405              	@ 326 "lib/helix/real/assembly.h" 1
 406 0114 86FB0242 		smull r4,r2,r6,r2
 407              	@ 0 "" 2
 408              	.LVL52:
 409              		.thumb
 410              		.syntax unified
 411              	.LBE241:
 412              	.LBE240:
 413              	.LBB242:
 414              	.LBB243:
 415 0118 6446     		mov	r4, ip
 416              		.syntax unified
 417              	@ 326 "lib/helix/real/assembly.h" 1
 418 011a 85FB04E4 		smull lr,r4,r5,r4
 419              	@ 0 "" 2
 420              	.LVL53:
 421              		.thumb
 422              		.syntax unified
 423              	.LBE243:
 424              	.LBE242:
 103:lib/helix/real/imdct.c **** 		x[-6] = (MULSHIFT32(c0, a0) - MULSHIFT32(c1, b0)) << 1;	
 425              		.loc 1 103 0 discriminator 3
 426 011e 121B     		subs	r2, r2, r4
ARM GAS  C:\Users\Patryk\AppData\Local\Temp\ccHDsNa9.s 			page 16


 427 0120 5200     		lsls	r2, r2, #1
 428 0122 40F8182C 		str	r2, [r0, #-24]
 429              	.LVL54:
 430              	.LBB244:
 431              	.LBB245:
 432              		.loc 2 326 0 discriminator 3
 433 0126 6446     		mov	r4, ip
 434              		.syntax unified
 435              	@ 326 "lib/helix/real/assembly.h" 1
 436 0128 86FB0424 		smull r2,r4,r6,r4
 437              	@ 0 "" 2
 438              	.LVL55:
 439              		.thumb
 440              		.syntax unified
 441              	.LBE245:
 442              	.LBE244:
 443              	.LBB246:
 444              	.LBB247:
 445 012c 3A46     		mov	r2, r7
 446              		.syntax unified
 447              	@ 326 "lib/helix/real/assembly.h" 1
 448 012e 85FB0262 		smull r6,r2,r5,r2
 449              	@ 0 "" 2
 450              	.LVL56:
 451              		.thumb
 452              		.syntax unified
 453              	.LBE247:
 454              	.LBE246:
 104:lib/helix/real/imdct.c **** 		x[5] =  (MULSHIFT32(c0, b0) + MULSHIFT32(c1, a0)) << 1;
 455              		.loc 1 104 0 discriminator 3
 456 0132 2244     		add	r2, r2, r4
 457 0134 5200     		lsls	r2, r2, #1
 458 0136 4261     		str	r2, [r0, #20]
 105:lib/helix/real/imdct.c **** 
 106:lib/helix/real/imdct.c **** 		a0 = x[-7];			c0 = *c;	c++;	b0 = x[6];		c1 = *c;	c++;
 459              		.loc 1 106 0 discriminator 3
 460 0138 50F81C7C 		ldr	r7, [r0, #-28]
 461              	.LVL57:
 462 013c 1E6B     		ldr	r6, [r3, #48]
 463              	.LVL58:
 464 013e D0F818C0 		ldr	ip, [r0, #24]
 465              	.LVL59:
 466 0142 5D6B     		ldr	r5, [r3, #52]
 467              	.LVL60:
 468              	.LBB248:
 469              	.LBB249:
 470              		.loc 2 326 0 discriminator 3
 471 0144 3A46     		mov	r2, r7
 472              		.syntax unified
 473              	@ 326 "lib/helix/real/assembly.h" 1
 474 0146 86FB0242 		smull r4,r2,r6,r2
 475              	@ 0 "" 2
 476              	.LVL61:
 477              		.thumb
 478              		.syntax unified
 479              	.LBE249:
 480              	.LBE248:
ARM GAS  C:\Users\Patryk\AppData\Local\Temp\ccHDsNa9.s 			page 17


 481              	.LBB250:
 482              	.LBB251:
 483 014a 6446     		mov	r4, ip
 484              		.syntax unified
 485              	@ 326 "lib/helix/real/assembly.h" 1
 486 014c 85FB04E4 		smull lr,r4,r5,r4
 487              	@ 0 "" 2
 488              	.LVL62:
 489              		.thumb
 490              		.syntax unified
 491              	.LBE251:
 492              	.LBE250:
 107:lib/helix/real/imdct.c **** 		x[-7] = (MULSHIFT32(c0, a0) - MULSHIFT32(c1, b0)) << 1;	
 493              		.loc 1 107 0 discriminator 3
 494 0150 121B     		subs	r2, r2, r4
 495 0152 5200     		lsls	r2, r2, #1
 496 0154 40F81C2C 		str	r2, [r0, #-28]
 497              	.LVL63:
 498              	.LBB252:
 499              	.LBB253:
 500              		.loc 2 326 0 discriminator 3
 501 0158 6446     		mov	r4, ip
 502              		.syntax unified
 503              	@ 326 "lib/helix/real/assembly.h" 1
 504 015a 86FB0424 		smull r2,r4,r6,r4
 505              	@ 0 "" 2
 506              	.LVL64:
 507              		.thumb
 508              		.syntax unified
 509              	.LBE253:
 510              	.LBE252:
 511              	.LBB254:
 512              	.LBB255:
 513 015e 3A46     		mov	r2, r7
 514              		.syntax unified
 515              	@ 326 "lib/helix/real/assembly.h" 1
 516 0160 85FB0262 		smull r6,r2,r5,r2
 517              	@ 0 "" 2
 518              	.LVL65:
 519              		.thumb
 520              		.syntax unified
 521              	.LBE255:
 522              	.LBE254:
 108:lib/helix/real/imdct.c **** 		x[6] =  (MULSHIFT32(c0, b0) + MULSHIFT32(c1, a0)) << 1;
 523              		.loc 1 108 0 discriminator 3
 524 0164 2244     		add	r2, r2, r4
 525 0166 5200     		lsls	r2, r2, #1
 526 0168 8261     		str	r2, [r0, #24]
 109:lib/helix/real/imdct.c **** 
 110:lib/helix/real/imdct.c **** 		a0 = x[-8];			c0 = *c;	c++;	b0 = x[7];		c1 = *c;	c++;
 527              		.loc 1 110 0 discriminator 3
 528 016a 50F8206C 		ldr	r6, [r0, #-32]
 529              	.LVL66:
 530 016e 9D6B     		ldr	r5, [r3, #56]
 531              	.LVL67:
 532 0170 C769     		ldr	r7, [r0, #28]
 533              	.LVL68:
ARM GAS  C:\Users\Patryk\AppData\Local\Temp\ccHDsNa9.s 			page 18


 534 0172 DC6B     		ldr	r4, [r3, #60]
 535              	.LVL69:
 536              	.LBB256:
 537              	.LBB257:
 538              		.loc 2 326 0 discriminator 3
 539 0174 3346     		mov	r3, r6
 540              		.syntax unified
 541              	@ 326 "lib/helix/real/assembly.h" 1
 542 0176 85FB0323 		smull r2,r3,r5,r3
 543              	@ 0 "" 2
 544              	.LVL70:
 545              		.thumb
 546              		.syntax unified
 547              	.LBE257:
 548              	.LBE256:
 549              	.LBB258:
 550              	.LBB259:
 551 017a 3A46     		mov	r2, r7
 552              		.syntax unified
 553              	@ 326 "lib/helix/real/assembly.h" 1
 554 017c 84FB02C2 		smull ip,r2,r4,r2
 555              	@ 0 "" 2
 556              	.LVL71:
 557              		.thumb
 558              		.syntax unified
 559              	.LBE259:
 560              	.LBE258:
 111:lib/helix/real/imdct.c **** 		x[-8] = (MULSHIFT32(c0, a0) - MULSHIFT32(c1, b0)) << 1;	
 561              		.loc 1 111 0 discriminator 3
 562 0180 9B1A     		subs	r3, r3, r2
 563 0182 5B00     		lsls	r3, r3, #1
 564 0184 40F8203C 		str	r3, [r0, #-32]
 565              	.LVL72:
 566              	.LBB260:
 567              	.LBB261:
 568              		.loc 2 326 0 discriminator 3
 569 0188 3A46     		mov	r2, r7
 570              		.syntax unified
 571              	@ 326 "lib/helix/real/assembly.h" 1
 572 018a 85FB0232 		smull r3,r2,r5,r2
 573              	@ 0 "" 2
 574              	.LVL73:
 575              		.thumb
 576              		.syntax unified
 577              	.LBE261:
 578              	.LBE260:
 579              	.LBB262:
 580              	.LBB263:
 581 018e 3346     		mov	r3, r6
 582              		.syntax unified
 583              	@ 326 "lib/helix/real/assembly.h" 1
 584 0190 84FB0353 		smull r5,r3,r4,r3
 585              	@ 0 "" 2
 586              	.LVL74:
 587              		.thumb
 588              		.syntax unified
 589              	.LBE263:
ARM GAS  C:\Users\Patryk\AppData\Local\Temp\ccHDsNa9.s 			page 19


 590              	.LBE262:
 112:lib/helix/real/imdct.c **** 		x[7] =  (MULSHIFT32(c0, b0) + MULSHIFT32(c1, a0)) << 1;
 591              		.loc 1 112 0 discriminator 3
 592 0194 1344     		add	r3, r3, r2
 593 0196 5B00     		lsls	r3, r3, #1
 594 0198 C361     		str	r3, [r0, #28]
  78:lib/helix/real/imdct.c **** 		c = csa[0];
 595              		.loc 1 78 0 discriminator 3
 596 019a 0139     		subs	r1, r1, #1
 597              	.LVL75:
 598 019c 0029     		cmp	r1, #0
 599 019e 3FF733AF 		bgt	.L3
 113:lib/helix/real/imdct.c **** 	}
 114:lib/helix/real/imdct.c **** }
 600              		.loc 1 114 0
 601 01a2 F0BD     		pop	{r4, r5, r6, r7, pc}
 602              	.LVL76:
 603              	.L7:
 604              	.LCFI1:
 605              		.cfi_def_cfa_offset 0
 606              		.cfi_restore 4
 607              		.cfi_restore 5
 608              		.cfi_restore 6
 609              		.cfi_restore 7
 610              		.cfi_restore 14
 611 01a4 7047     		bx	lr
 612              	.L9:
 613 01a6 00BF     		.align	2
 614              	.L8:
 615 01a8 00000000 		.word	xmp3fixpt_csa
 616              		.cfi_endproc
 617              	.LFE5:
 619              		.section	.text.WinPrevious,"ax",%progbits
 620              		.align	1
 621              		.syntax unified
 622              		.thumb
 623              		.thumb_func
 624              		.fpu fpv5-sp-d16
 626              	WinPrevious:
 627              	.LFB6:
 115:lib/helix/real/imdct.c **** 
 116:lib/helix/real/imdct.c **** /**************************************************************************************
 117:lib/helix/real/imdct.c ****  * Function:    WinPrevious
 118:lib/helix/real/imdct.c ****  *
 119:lib/helix/real/imdct.c ****  * Description: apply specified window to second half of previous IMDCT (overlap part)
 120:lib/helix/real/imdct.c ****  *
 121:lib/helix/real/imdct.c ****  * Inputs:      vector of 9 coefficients (xPrev)
 122:lib/helix/real/imdct.c ****  *
 123:lib/helix/real/imdct.c ****  * Outputs:     18 windowed output coefficients (gain 1 integer bit)
 124:lib/helix/real/imdct.c ****  *              window type (0, 1, 2, 3)
 125:lib/helix/real/imdct.c ****  *
 126:lib/helix/real/imdct.c ****  * Return:      none
 127:lib/helix/real/imdct.c ****  * 
 128:lib/helix/real/imdct.c ****  * Notes:       produces 9 output samples from 18 input samples via symmetry
 129:lib/helix/real/imdct.c ****  *              all blocks gain at least 1 guard bit via window (long blocks get extra
 130:lib/helix/real/imdct.c ****  *                sign bit, short blocks can have one addition but max gain < 1.0)
 131:lib/helix/real/imdct.c ****  **************************************************************************************/
ARM GAS  C:\Users\Patryk\AppData\Local\Temp\ccHDsNa9.s 			page 20


 132:lib/helix/real/imdct.c **** static void WinPrevious(int *xPrev, int *xPrevWin, int btPrev)
 133:lib/helix/real/imdct.c **** {
 628              		.loc 1 133 0
 629              		.cfi_startproc
 630              		@ args = 0, pretend = 0, frame = 0
 631              		@ frame_needed = 0, uses_anonymous_args = 0
 632              	.LVL77:
 633 0000 2DE9F043 		push	{r4, r5, r6, r7, r8, r9, lr}
 634              	.LCFI2:
 635              		.cfi_def_cfa_offset 28
 636              		.cfi_offset 4, -28
 637              		.cfi_offset 5, -24
 638              		.cfi_offset 6, -20
 639              		.cfi_offset 7, -16
 640              		.cfi_offset 8, -12
 641              		.cfi_offset 9, -8
 642              		.cfi_offset 14, -4
 643              	.LVL78:
 134:lib/helix/real/imdct.c **** 	int i, x, *xp, *xpwLo, *xpwHi, wLo, wHi;
 135:lib/helix/real/imdct.c **** 	const int *wpLo, *wpHi;
 136:lib/helix/real/imdct.c **** 
 137:lib/helix/real/imdct.c **** 	xp = xPrev;
 138:lib/helix/real/imdct.c **** 	/* mapping (see IMDCT12x3): xPrev[0-2] = sum[6-8], xPrev[3-8] = sum[12-17] */
 139:lib/helix/real/imdct.c **** 	if (btPrev == 2) {
 644              		.loc 1 139 0
 645 0004 022A     		cmp	r2, #2
 646 0006 0BD0     		beq	.L16
 140:lib/helix/real/imdct.c **** 		/* this could be reordered for minimum loads/stores */
 141:lib/helix/real/imdct.c **** 		wpLo = imdctWin[btPrev];
 142:lib/helix/real/imdct.c **** 		xPrevWin[ 0] = MULSHIFT32(wpLo[ 6], xPrev[2]) + MULSHIFT32(wpLo[0], xPrev[6]);
 143:lib/helix/real/imdct.c **** 		xPrevWin[ 1] = MULSHIFT32(wpLo[ 7], xPrev[1]) + MULSHIFT32(wpLo[1], xPrev[7]);
 144:lib/helix/real/imdct.c **** 		xPrevWin[ 2] = MULSHIFT32(wpLo[ 8], xPrev[0]) + MULSHIFT32(wpLo[2], xPrev[8]);
 145:lib/helix/real/imdct.c **** 		xPrevWin[ 3] = MULSHIFT32(wpLo[ 9], xPrev[0]) + MULSHIFT32(wpLo[3], xPrev[8]);
 146:lib/helix/real/imdct.c **** 		xPrevWin[ 4] = MULSHIFT32(wpLo[10], xPrev[1]) + MULSHIFT32(wpLo[4], xPrev[7]);
 147:lib/helix/real/imdct.c **** 		xPrevWin[ 5] = MULSHIFT32(wpLo[11], xPrev[2]) + MULSHIFT32(wpLo[5], xPrev[6]);
 148:lib/helix/real/imdct.c **** 		xPrevWin[ 6] = MULSHIFT32(wpLo[ 6], xPrev[5]);
 149:lib/helix/real/imdct.c **** 		xPrevWin[ 7] = MULSHIFT32(wpLo[ 7], xPrev[4]);
 150:lib/helix/real/imdct.c **** 		xPrevWin[ 8] = MULSHIFT32(wpLo[ 8], xPrev[3]);
 151:lib/helix/real/imdct.c **** 		xPrevWin[ 9] = MULSHIFT32(wpLo[ 9], xPrev[3]);
 152:lib/helix/real/imdct.c **** 		xPrevWin[10] = MULSHIFT32(wpLo[10], xPrev[4]);
 153:lib/helix/real/imdct.c **** 		xPrevWin[11] = MULSHIFT32(wpLo[11], xPrev[5]);
 154:lib/helix/real/imdct.c **** 		xPrevWin[12] = xPrevWin[13] = xPrevWin[14] = xPrevWin[15] = xPrevWin[16] = xPrevWin[17] = 0;
 155:lib/helix/real/imdct.c **** 	} else {
 156:lib/helix/real/imdct.c **** 		/* use ARM-style pointers (*ptr++) so that ADS compiles well */
 157:lib/helix/real/imdct.c **** 		wpLo = imdctWin[btPrev] + 18;
 647              		.loc 1 157 0
 648 0008 02EBC202 		add	r2, r2, r2, lsl #3
 649              	.LVL79:
 650 000c 1301     		lsls	r3, r2, #4
 651 000e 4F4A     		ldr	r2, .L17
 652 0010 1344     		add	r3, r3, r2
 653 0012 03F14806 		add	r6, r3, #72
 654              	.LVL80:
 158:lib/helix/real/imdct.c **** 		wpHi = wpLo + 17;
 655              		.loc 1 158 0
 656 0016 8C33     		adds	r3, r3, #140
 657              	.LVL81:
ARM GAS  C:\Users\Patryk\AppData\Local\Temp\ccHDsNa9.s 			page 21


 159:lib/helix/real/imdct.c **** 		xpwLo = xPrevWin;
 160:lib/helix/real/imdct.c **** 		xpwHi = xPrevWin + 17;
 658              		.loc 1 160 0
 659 0018 01F14405 		add	r5, r1, #68
 660              	.LVL82:
 161:lib/helix/real/imdct.c **** 		for (i = 9; i > 0; i--) {
 661              		.loc 1 161 0
 662 001c 0924     		movs	r4, #9
 663 001e 91E0     		b	.L13
 664              	.LVL83:
 665              	.L16:
 141:lib/helix/real/imdct.c **** 		xPrevWin[ 0] = MULSHIFT32(wpLo[ 6], xPrev[2]) + MULSHIFT32(wpLo[0], xPrev[6]);
 666              		.loc 1 141 0
 667 0020 02EBC202 		add	r2, r2, r2, lsl #3
 668              	.LVL84:
 669 0024 1501     		lsls	r5, r2, #4
 670 0026 494A     		ldr	r2, .L17
 671 0028 AB18     		adds	r3, r5, r2
 672              	.LVL85:
 142:lib/helix/real/imdct.c **** 		xPrevWin[ 1] = MULSHIFT32(wpLo[ 7], xPrev[1]) + MULSHIFT32(wpLo[1], xPrev[7]);
 673              		.loc 1 142 0
 674 002a 9F69     		ldr	r7, [r3, #24]
 675 002c 8668     		ldr	r6, [r0, #8]
 676              	.LVL86:
 677              	.LBB264:
 678              	.LBB265:
 679              		.loc 2 326 0
 680 002e 3446     		mov	r4, r6
 681              		.syntax unified
 682              	@ 326 "lib/helix/real/assembly.h" 1
 683 0030 87FB0464 		smull r6,r4,r7,r4
 684              	@ 0 "" 2
 685              	.LVL87:
 686              		.thumb
 687              		.syntax unified
 688              	.LBE265:
 689              	.LBE264:
 142:lib/helix/real/imdct.c **** 		xPrevWin[ 1] = MULSHIFT32(wpLo[ 7], xPrev[1]) + MULSHIFT32(wpLo[1], xPrev[7]);
 690              		.loc 1 142 0
 691 0034 AE58     		ldr	r6, [r5, r2]
 692 0036 8569     		ldr	r5, [r0, #24]
 693              	.LVL88:
 694              	.LBB266:
 695              	.LBB267:
 696              		.loc 2 326 0
 697 0038 2A46     		mov	r2, r5
 698              		.syntax unified
 699              	@ 326 "lib/helix/real/assembly.h" 1
 700 003a 86FB0252 		smull r5,r2,r6,r2
 701              	@ 0 "" 2
 702              	.LVL89:
 703              		.thumb
 704              		.syntax unified
 705              	.LBE267:
 706              	.LBE266:
 142:lib/helix/real/imdct.c **** 		xPrevWin[ 1] = MULSHIFT32(wpLo[ 7], xPrev[1]) + MULSHIFT32(wpLo[1], xPrev[7]);
 707              		.loc 1 142 0
ARM GAS  C:\Users\Patryk\AppData\Local\Temp\ccHDsNa9.s 			page 22


 708 003e 2244     		add	r2, r2, r4
 709 0040 0A60     		str	r2, [r1]
 143:lib/helix/real/imdct.c **** 		xPrevWin[ 2] = MULSHIFT32(wpLo[ 8], xPrev[0]) + MULSHIFT32(wpLo[2], xPrev[8]);
 710              		.loc 1 143 0
 711 0042 DD69     		ldr	r5, [r3, #28]
 712 0044 4268     		ldr	r2, [r0, #4]
 713              	.LVL90:
 714              	.LBB268:
 715              	.LBB269:
 716              		.loc 2 326 0
 717 0046 1446     		mov	r4, r2
 718              		.syntax unified
 719              	@ 326 "lib/helix/real/assembly.h" 1
 720 0048 85FB0424 		smull r2,r4,r5,r4
 721              	@ 0 "" 2
 722              	.LVL91:
 723              		.thumb
 724              		.syntax unified
 725              	.LBE269:
 726              	.LBE268:
 143:lib/helix/real/imdct.c **** 		xPrevWin[ 2] = MULSHIFT32(wpLo[ 8], xPrev[0]) + MULSHIFT32(wpLo[2], xPrev[8]);
 727              		.loc 1 143 0
 728 004c 5E68     		ldr	r6, [r3, #4]
 729 004e C569     		ldr	r5, [r0, #28]
 730              	.LVL92:
 731              	.LBB270:
 732              	.LBB271:
 733              		.loc 2 326 0
 734 0050 2A46     		mov	r2, r5
 735              		.syntax unified
 736              	@ 326 "lib/helix/real/assembly.h" 1
 737 0052 86FB0252 		smull r5,r2,r6,r2
 738              	@ 0 "" 2
 739              	.LVL93:
 740              		.thumb
 741              		.syntax unified
 742              	.LBE271:
 743              	.LBE270:
 143:lib/helix/real/imdct.c **** 		xPrevWin[ 2] = MULSHIFT32(wpLo[ 8], xPrev[0]) + MULSHIFT32(wpLo[2], xPrev[8]);
 744              		.loc 1 143 0
 745 0056 2244     		add	r2, r2, r4
 746 0058 4A60     		str	r2, [r1, #4]
 144:lib/helix/real/imdct.c **** 		xPrevWin[ 3] = MULSHIFT32(wpLo[ 9], xPrev[0]) + MULSHIFT32(wpLo[3], xPrev[8]);
 747              		.loc 1 144 0
 748 005a 1D6A     		ldr	r5, [r3, #32]
 749 005c 0268     		ldr	r2, [r0]
 750              	.LVL94:
 751              	.LBB272:
 752              	.LBB273:
 753              		.loc 2 326 0
 754 005e 1446     		mov	r4, r2
 755              		.syntax unified
 756              	@ 326 "lib/helix/real/assembly.h" 1
 757 0060 85FB0424 		smull r2,r4,r5,r4
 758              	@ 0 "" 2
 759              	.LVL95:
 760              		.thumb
ARM GAS  C:\Users\Patryk\AppData\Local\Temp\ccHDsNa9.s 			page 23


 761              		.syntax unified
 762              	.LBE273:
 763              	.LBE272:
 144:lib/helix/real/imdct.c **** 		xPrevWin[ 3] = MULSHIFT32(wpLo[ 9], xPrev[0]) + MULSHIFT32(wpLo[3], xPrev[8]);
 764              		.loc 1 144 0
 765 0064 9E68     		ldr	r6, [r3, #8]
 766 0066 056A     		ldr	r5, [r0, #32]
 767              	.LVL96:
 768              	.LBB274:
 769              	.LBB275:
 770              		.loc 2 326 0
 771 0068 2A46     		mov	r2, r5
 772              		.syntax unified
 773              	@ 326 "lib/helix/real/assembly.h" 1
 774 006a 86FB0252 		smull r5,r2,r6,r2
 775              	@ 0 "" 2
 776              	.LVL97:
 777              		.thumb
 778              		.syntax unified
 779              	.LBE275:
 780              	.LBE274:
 144:lib/helix/real/imdct.c **** 		xPrevWin[ 3] = MULSHIFT32(wpLo[ 9], xPrev[0]) + MULSHIFT32(wpLo[3], xPrev[8]);
 781              		.loc 1 144 0
 782 006e 2244     		add	r2, r2, r4
 783 0070 8A60     		str	r2, [r1, #8]
 145:lib/helix/real/imdct.c **** 		xPrevWin[ 4] = MULSHIFT32(wpLo[10], xPrev[1]) + MULSHIFT32(wpLo[4], xPrev[7]);
 784              		.loc 1 145 0
 785 0072 5D6A     		ldr	r5, [r3, #36]
 786 0074 0268     		ldr	r2, [r0]
 787              	.LVL98:
 788              	.LBB276:
 789              	.LBB277:
 790              		.loc 2 326 0
 791 0076 1446     		mov	r4, r2
 792              		.syntax unified
 793              	@ 326 "lib/helix/real/assembly.h" 1
 794 0078 85FB0424 		smull r2,r4,r5,r4
 795              	@ 0 "" 2
 796              	.LVL99:
 797              		.thumb
 798              		.syntax unified
 799              	.LBE277:
 800              	.LBE276:
 145:lib/helix/real/imdct.c **** 		xPrevWin[ 4] = MULSHIFT32(wpLo[10], xPrev[1]) + MULSHIFT32(wpLo[4], xPrev[7]);
 801              		.loc 1 145 0
 802 007c DE68     		ldr	r6, [r3, #12]
 803 007e 056A     		ldr	r5, [r0, #32]
 804              	.LVL100:
 805              	.LBB278:
 806              	.LBB279:
 807              		.loc 2 326 0
 808 0080 2A46     		mov	r2, r5
 809              		.syntax unified
 810              	@ 326 "lib/helix/real/assembly.h" 1
 811 0082 86FB0252 		smull r5,r2,r6,r2
 812              	@ 0 "" 2
 813              	.LVL101:
ARM GAS  C:\Users\Patryk\AppData\Local\Temp\ccHDsNa9.s 			page 24


 814              		.thumb
 815              		.syntax unified
 816              	.LBE279:
 817              	.LBE278:
 145:lib/helix/real/imdct.c **** 		xPrevWin[ 4] = MULSHIFT32(wpLo[10], xPrev[1]) + MULSHIFT32(wpLo[4], xPrev[7]);
 818              		.loc 1 145 0
 819 0086 2244     		add	r2, r2, r4
 820 0088 CA60     		str	r2, [r1, #12]
 146:lib/helix/real/imdct.c **** 		xPrevWin[ 5] = MULSHIFT32(wpLo[11], xPrev[2]) + MULSHIFT32(wpLo[5], xPrev[6]);
 821              		.loc 1 146 0
 822 008a 9D6A     		ldr	r5, [r3, #40]
 823 008c 4268     		ldr	r2, [r0, #4]
 824              	.LVL102:
 825              	.LBB280:
 826              	.LBB281:
 827              		.loc 2 326 0
 828 008e 1446     		mov	r4, r2
 829              		.syntax unified
 830              	@ 326 "lib/helix/real/assembly.h" 1
 831 0090 85FB0424 		smull r2,r4,r5,r4
 832              	@ 0 "" 2
 833              	.LVL103:
 834              		.thumb
 835              		.syntax unified
 836              	.LBE281:
 837              	.LBE280:
 146:lib/helix/real/imdct.c **** 		xPrevWin[ 5] = MULSHIFT32(wpLo[11], xPrev[2]) + MULSHIFT32(wpLo[5], xPrev[6]);
 838              		.loc 1 146 0
 839 0094 1E69     		ldr	r6, [r3, #16]
 840 0096 C569     		ldr	r5, [r0, #28]
 841              	.LVL104:
 842              	.LBB282:
 843              	.LBB283:
 844              		.loc 2 326 0
 845 0098 2A46     		mov	r2, r5
 846              		.syntax unified
 847              	@ 326 "lib/helix/real/assembly.h" 1
 848 009a 86FB0252 		smull r5,r2,r6,r2
 849              	@ 0 "" 2
 850              	.LVL105:
 851              		.thumb
 852              		.syntax unified
 853              	.LBE283:
 854              	.LBE282:
 146:lib/helix/real/imdct.c **** 		xPrevWin[ 5] = MULSHIFT32(wpLo[11], xPrev[2]) + MULSHIFT32(wpLo[5], xPrev[6]);
 855              		.loc 1 146 0
 856 009e 2244     		add	r2, r2, r4
 857 00a0 0A61     		str	r2, [r1, #16]
 147:lib/helix/real/imdct.c **** 		xPrevWin[ 6] = MULSHIFT32(wpLo[ 6], xPrev[5]);
 858              		.loc 1 147 0
 859 00a2 DD6A     		ldr	r5, [r3, #44]
 860 00a4 8268     		ldr	r2, [r0, #8]
 861              	.LVL106:
 862              	.LBB284:
 863              	.LBB285:
 864              		.loc 2 326 0
 865 00a6 1446     		mov	r4, r2
ARM GAS  C:\Users\Patryk\AppData\Local\Temp\ccHDsNa9.s 			page 25


 866              		.syntax unified
 867              	@ 326 "lib/helix/real/assembly.h" 1
 868 00a8 85FB0424 		smull r2,r4,r5,r4
 869              	@ 0 "" 2
 870              	.LVL107:
 871              		.thumb
 872              		.syntax unified
 873              	.LBE285:
 874              	.LBE284:
 147:lib/helix/real/imdct.c **** 		xPrevWin[ 6] = MULSHIFT32(wpLo[ 6], xPrev[5]);
 875              		.loc 1 147 0
 876 00ac 5E69     		ldr	r6, [r3, #20]
 877 00ae 8569     		ldr	r5, [r0, #24]
 878              	.LVL108:
 879              	.LBB286:
 880              	.LBB287:
 881              		.loc 2 326 0
 882 00b0 2A46     		mov	r2, r5
 883              		.syntax unified
 884              	@ 326 "lib/helix/real/assembly.h" 1
 885 00b2 86FB0252 		smull r5,r2,r6,r2
 886              	@ 0 "" 2
 887              	.LVL109:
 888              		.thumb
 889              		.syntax unified
 890              	.LBE287:
 891              	.LBE286:
 147:lib/helix/real/imdct.c **** 		xPrevWin[ 6] = MULSHIFT32(wpLo[ 6], xPrev[5]);
 892              		.loc 1 147 0
 893 00b6 2244     		add	r2, r2, r4
 894 00b8 4A61     		str	r2, [r1, #20]
 148:lib/helix/real/imdct.c **** 		xPrevWin[ 7] = MULSHIFT32(wpLo[ 7], xPrev[4]);
 895              		.loc 1 148 0
 896 00ba 9D69     		ldr	r5, [r3, #24]
 897 00bc 4469     		ldr	r4, [r0, #20]
 898              	.LVL110:
 899              	.LBB288:
 900              	.LBB289:
 901              		.loc 2 326 0
 902 00be 2246     		mov	r2, r4
 903              		.syntax unified
 904              	@ 326 "lib/helix/real/assembly.h" 1
 905 00c0 85FB0242 		smull r4,r2,r5,r2
 906              	@ 0 "" 2
 907              	.LVL111:
 908              		.thumb
 909              		.syntax unified
 910              	.LBE289:
 911              	.LBE288:
 148:lib/helix/real/imdct.c **** 		xPrevWin[ 7] = MULSHIFT32(wpLo[ 7], xPrev[4]);
 912              		.loc 1 148 0
 913 00c4 8A61     		str	r2, [r1, #24]
 149:lib/helix/real/imdct.c **** 		xPrevWin[ 8] = MULSHIFT32(wpLo[ 8], xPrev[3]);
 914              		.loc 1 149 0
 915 00c6 DD69     		ldr	r5, [r3, #28]
 916 00c8 0469     		ldr	r4, [r0, #16]
 917              	.LVL112:
ARM GAS  C:\Users\Patryk\AppData\Local\Temp\ccHDsNa9.s 			page 26


 918              	.LBB290:
 919              	.LBB291:
 920              		.loc 2 326 0
 921 00ca 2246     		mov	r2, r4
 922              		.syntax unified
 923              	@ 326 "lib/helix/real/assembly.h" 1
 924 00cc 85FB0242 		smull r4,r2,r5,r2
 925              	@ 0 "" 2
 926              	.LVL113:
 927              		.thumb
 928              		.syntax unified
 929              	.LBE291:
 930              	.LBE290:
 149:lib/helix/real/imdct.c **** 		xPrevWin[ 8] = MULSHIFT32(wpLo[ 8], xPrev[3]);
 931              		.loc 1 149 0
 932 00d0 CA61     		str	r2, [r1, #28]
 150:lib/helix/real/imdct.c **** 		xPrevWin[ 9] = MULSHIFT32(wpLo[ 9], xPrev[3]);
 933              		.loc 1 150 0
 934 00d2 1D6A     		ldr	r5, [r3, #32]
 935 00d4 C468     		ldr	r4, [r0, #12]
 936              	.LVL114:
 937              	.LBB292:
 938              	.LBB293:
 939              		.loc 2 326 0
 940 00d6 2246     		mov	r2, r4
 941              		.syntax unified
 942              	@ 326 "lib/helix/real/assembly.h" 1
 943 00d8 85FB0242 		smull r4,r2,r5,r2
 944              	@ 0 "" 2
 945              	.LVL115:
 946              		.thumb
 947              		.syntax unified
 948              	.LBE293:
 949              	.LBE292:
 150:lib/helix/real/imdct.c **** 		xPrevWin[ 9] = MULSHIFT32(wpLo[ 9], xPrev[3]);
 950              		.loc 1 150 0
 951 00dc 0A62     		str	r2, [r1, #32]
 151:lib/helix/real/imdct.c **** 		xPrevWin[10] = MULSHIFT32(wpLo[10], xPrev[4]);
 952              		.loc 1 151 0
 953 00de 5D6A     		ldr	r5, [r3, #36]
 954 00e0 C468     		ldr	r4, [r0, #12]
 955              	.LVL116:
 956              	.LBB294:
 957              	.LBB295:
 958              		.loc 2 326 0
 959 00e2 2246     		mov	r2, r4
 960              		.syntax unified
 961              	@ 326 "lib/helix/real/assembly.h" 1
 962 00e4 85FB0242 		smull r4,r2,r5,r2
 963              	@ 0 "" 2
 964              	.LVL117:
 965              		.thumb
 966              		.syntax unified
 967              	.LBE295:
 968              	.LBE294:
 151:lib/helix/real/imdct.c **** 		xPrevWin[10] = MULSHIFT32(wpLo[10], xPrev[4]);
 969              		.loc 1 151 0
ARM GAS  C:\Users\Patryk\AppData\Local\Temp\ccHDsNa9.s 			page 27


 970 00e8 4A62     		str	r2, [r1, #36]
 152:lib/helix/real/imdct.c **** 		xPrevWin[11] = MULSHIFT32(wpLo[11], xPrev[5]);
 971              		.loc 1 152 0
 972 00ea 9D6A     		ldr	r5, [r3, #40]
 973 00ec 0469     		ldr	r4, [r0, #16]
 974              	.LVL118:
 975              	.LBB296:
 976              	.LBB297:
 977              		.loc 2 326 0
 978 00ee 2246     		mov	r2, r4
 979              		.syntax unified
 980              	@ 326 "lib/helix/real/assembly.h" 1
 981 00f0 85FB0242 		smull r4,r2,r5,r2
 982              	@ 0 "" 2
 983              	.LVL119:
 984              		.thumb
 985              		.syntax unified
 986              	.LBE297:
 987              	.LBE296:
 152:lib/helix/real/imdct.c **** 		xPrevWin[11] = MULSHIFT32(wpLo[11], xPrev[5]);
 988              		.loc 1 152 0
 989 00f4 8A62     		str	r2, [r1, #40]
 153:lib/helix/real/imdct.c **** 		xPrevWin[12] = xPrevWin[13] = xPrevWin[14] = xPrevWin[15] = xPrevWin[16] = xPrevWin[17] = 0;
 990              		.loc 1 153 0
 991 00f6 DC6A     		ldr	r4, [r3, #44]
 992 00f8 4269     		ldr	r2, [r0, #20]
 993              	.LVL120:
 994              	.LBB298:
 995              	.LBB299:
 996              		.loc 2 326 0
 997 00fa 1346     		mov	r3, r2
 998              	.LVL121:
 999              		.syntax unified
 1000              	@ 326 "lib/helix/real/assembly.h" 1
 1001 00fc 84FB0323 		smull r2,r3,r4,r3
 1002              	@ 0 "" 2
 1003              	.LVL122:
 1004              		.thumb
 1005              		.syntax unified
 1006              	.LBE299:
 1007              	.LBE298:
 153:lib/helix/real/imdct.c **** 		xPrevWin[12] = xPrevWin[13] = xPrevWin[14] = xPrevWin[15] = xPrevWin[16] = xPrevWin[17] = 0;
 1008              		.loc 1 153 0
 1009 0100 CB62     		str	r3, [r1, #44]
 154:lib/helix/real/imdct.c **** 	} else {
 1010              		.loc 1 154 0
 1011 0102 0023     		movs	r3, #0
 1012 0104 4B64     		str	r3, [r1, #68]
 1013 0106 0B64     		str	r3, [r1, #64]
 1014 0108 CB63     		str	r3, [r1, #60]
 1015 010a 8B63     		str	r3, [r1, #56]
 1016 010c 4B63     		str	r3, [r1, #52]
 1017 010e 0B63     		str	r3, [r1, #48]
 1018 0110 1AE0     		b	.L10
 1019              	.LVL123:
 1020              	.L14:
 162:lib/helix/real/imdct.c **** 			x = *xp++;	wLo = *wpLo++;	wHi = *wpHi--;
ARM GAS  C:\Users\Patryk\AppData\Local\Temp\ccHDsNa9.s 			page 28


 1021              		.loc 1 162 0 discriminator 3
 1022 0112 071D     		adds	r7, r0, #4
 1023              	.LVL124:
 1024 0114 0268     		ldr	r2, [r0]
 1025              	.LVL125:
 1026 0116 06F1040E 		add	lr, r6, #4
 1027              	.LVL126:
 1028 011a 3668     		ldr	r6, [r6]
 1029              	.LVL127:
 1030 011c A3F10408 		sub	r8, r3, #4
 1031              	.LVL128:
 1032 0120 1868     		ldr	r0, [r3]
 1033              	.LVL129:
 163:lib/helix/real/imdct.c **** 			*xpwLo++ = MULSHIFT32(wLo, x);
 1034              		.loc 1 163 0 discriminator 3
 1035 0122 01F1040C 		add	ip, r1, #4
 1036              	.LVL130:
 1037              	.LBB300:
 1038              	.LBB301:
 1039              		.loc 2 326 0 discriminator 3
 1040 0126 1346     		mov	r3, r2
 1041              		.syntax unified
 1042              	@ 326 "lib/helix/real/assembly.h" 1
 1043 0128 86FB0393 		smull r9,r3,r6,r3
 1044              	@ 0 "" 2
 1045              	.LVL131:
 1046              		.thumb
 1047              		.syntax unified
 1048              	.LBE301:
 1049              	.LBE300:
 1050              		.loc 1 163 0 discriminator 3
 1051 012c 0B60     		str	r3, [r1]
 164:lib/helix/real/imdct.c **** 			*xpwHi-- = MULSHIFT32(wHi, x);
 1052              		.loc 1 164 0 discriminator 3
 1053 012e 291F     		subs	r1, r5, #4
 1054              	.LVL132:
 1055              	.LBB302:
 1056              	.LBB303:
 1057              		.loc 2 326 0 discriminator 3
 1058 0130 1346     		mov	r3, r2
 1059              		.syntax unified
 1060              	@ 326 "lib/helix/real/assembly.h" 1
 1061 0132 80FB0323 		smull r2,r3,r0,r3
 1062              	@ 0 "" 2
 1063              	.LVL133:
 1064              		.thumb
 1065              		.syntax unified
 1066              	.LBE303:
 1067              	.LBE302:
 1068              		.loc 1 164 0 discriminator 3
 1069 0136 2B60     		str	r3, [r5]
 161:lib/helix/real/imdct.c **** 			x = *xp++;	wLo = *wpLo++;	wHi = *wpHi--;
 1070              		.loc 1 161 0 discriminator 3
 1071 0138 013C     		subs	r4, r4, #1
 1072              	.LVL134:
 162:lib/helix/real/imdct.c **** 			*xpwLo++ = MULSHIFT32(wLo, x);
 1073              		.loc 1 162 0 discriminator 3
ARM GAS  C:\Users\Patryk\AppData\Local\Temp\ccHDsNa9.s 			page 29


 1074 013a 4346     		mov	r3, r8
 1075 013c 7646     		mov	r6, lr
 1076              	.LVL135:
 1077              		.loc 1 164 0 discriminator 3
 1078 013e 0D46     		mov	r5, r1
 163:lib/helix/real/imdct.c **** 			*xpwHi-- = MULSHIFT32(wHi, x);
 1079              		.loc 1 163 0 discriminator 3
 1080 0140 6146     		mov	r1, ip
 1081              	.LVL136:
 162:lib/helix/real/imdct.c **** 			*xpwLo++ = MULSHIFT32(wLo, x);
 1082              		.loc 1 162 0 discriminator 3
 1083 0142 3846     		mov	r0, r7
 1084              	.LVL137:
 1085              	.L13:
 161:lib/helix/real/imdct.c **** 			x = *xp++;	wLo = *wpLo++;	wHi = *wpHi--;
 1086              		.loc 1 161 0 discriminator 1
 1087 0144 002C     		cmp	r4, #0
 1088 0146 E4DC     		bgt	.L14
 1089              	.LVL138:
 1090              	.L10:
 165:lib/helix/real/imdct.c **** 		}
 166:lib/helix/real/imdct.c **** 	}
 167:lib/helix/real/imdct.c **** }
 1091              		.loc 1 167 0
 1092 0148 BDE8F083 		pop	{r4, r5, r6, r7, r8, r9, pc}
 1093              	.L18:
 1094              		.align	2
 1095              	.L17:
 1096 014c 00000000 		.word	xmp3fixpt_imdctWin
 1097              		.cfi_endproc
 1098              	.LFE6:
 1100              		.section	.text.FreqInvertRescale,"ax",%progbits
 1101              		.align	1
 1102              		.syntax unified
 1103              		.thumb
 1104              		.thumb_func
 1105              		.fpu fpv5-sp-d16
 1107              	FreqInvertRescale:
 1108              	.LFB7:
 168:lib/helix/real/imdct.c **** 
 169:lib/helix/real/imdct.c **** /**************************************************************************************
 170:lib/helix/real/imdct.c ****  * Function:    FreqInvertRescale
 171:lib/helix/real/imdct.c ****  *
 172:lib/helix/real/imdct.c ****  * Description: do frequency inversion (odd samples of odd blocks) and rescale 
 173:lib/helix/real/imdct.c ****  *                if necessary (extra guard bits added before IMDCT)
 174:lib/helix/real/imdct.c ****  *
 175:lib/helix/real/imdct.c ****  * Inputs:      output vector y (18 new samples, spaced NBANDS apart)
 176:lib/helix/real/imdct.c ****  *              previous sample vector xPrev (9 samples)
 177:lib/helix/real/imdct.c ****  *              index of current block
 178:lib/helix/real/imdct.c ****  *              number of extra shifts added before IMDCT (usually 0)
 179:lib/helix/real/imdct.c ****  *
 180:lib/helix/real/imdct.c ****  * Outputs:     inverted and rescaled (as necessary) outputs
 181:lib/helix/real/imdct.c ****  *              rescaled (as necessary) previous samples
 182:lib/helix/real/imdct.c ****  *
 183:lib/helix/real/imdct.c ****  * Return:      updated mOut (from new outputs y)
 184:lib/helix/real/imdct.c ****  **************************************************************************************/
 185:lib/helix/real/imdct.c **** static int FreqInvertRescale(int *y, int *xPrev, int blockIdx, int es)
ARM GAS  C:\Users\Patryk\AppData\Local\Temp\ccHDsNa9.s 			page 30


 186:lib/helix/real/imdct.c **** {
 1109              		.loc 1 186 0
 1110              		.cfi_startproc
 1111              		@ args = 0, pretend = 0, frame = 0
 1112              		@ frame_needed = 0, uses_anonymous_args = 0
 1113              		@ link register save eliminated.
 1114              	.LVL139:
 1115 0000 F0B4     		push	{r4, r5, r6, r7}
 1116              	.LCFI3:
 1117              		.cfi_def_cfa_offset 16
 1118              		.cfi_offset 4, -16
 1119              		.cfi_offset 5, -12
 1120              		.cfi_offset 6, -8
 1121              		.cfi_offset 7, -4
 187:lib/helix/real/imdct.c **** 	int i, d, mOut;
 188:lib/helix/real/imdct.c **** 	int y0, y1, y2, y3, y4, y5, y6, y7, y8;
 189:lib/helix/real/imdct.c **** 
 190:lib/helix/real/imdct.c **** 	if (es == 0) {
 1122              		.loc 1 190 0
 1123 0002 9C46     		mov	ip, r3
 1124 0004 9BBB     		cbnz	r3, .L20
 191:lib/helix/real/imdct.c **** 		/* fast case - frequency invert only (no rescaling) - can fuse into overlap-add for speed, if des
 192:lib/helix/real/imdct.c **** 		if (blockIdx & 0x01) {
 1125              		.loc 1 192 0
 1126 0006 12F00102 		ands	r2, r2, #1
 1127              	.LVL140:
 1128 000a 2DD0     		beq	.L19
 1129              	.LVL141:
 193:lib/helix/real/imdct.c **** 			y += NBANDS;
 194:lib/helix/real/imdct.c **** 			y0 = *y;	y += 2*NBANDS;
 1130              		.loc 1 194 0
 1131 000c D0F88030 		ldr	r3, [r0, #128]
 1132              	.LVL142:
 195:lib/helix/real/imdct.c **** 			y1 = *y;	y += 2*NBANDS;
 1133              		.loc 1 195 0
 1134 0010 D0F88071 		ldr	r7, [r0, #384]
 1135              	.LVL143:
 196:lib/helix/real/imdct.c **** 			y2 = *y;	y += 2*NBANDS;
 1136              		.loc 1 196 0
 1137 0014 D0F88062 		ldr	r6, [r0, #640]
 1138              	.LVL144:
 197:lib/helix/real/imdct.c **** 			y3 = *y;	y += 2*NBANDS;
 1139              		.loc 1 197 0
 1140 0018 D0F88053 		ldr	r5, [r0, #896]
 1141              	.LVL145:
 198:lib/helix/real/imdct.c **** 			y4 = *y;	y += 2*NBANDS;
 1142              		.loc 1 198 0
 1143 001c D0F88044 		ldr	r4, [r0, #1152]
 1144              	.LVL146:
 199:lib/helix/real/imdct.c **** 			y5 = *y;	y += 2*NBANDS;
 1145              		.loc 1 199 0
 1146 0020 D0F88015 		ldr	r1, [r0, #1408]
 1147              	.LVL147:
 200:lib/helix/real/imdct.c **** 			y6 = *y;	y += 2*NBANDS;
 1148              		.loc 1 200 0
 1149 0024 D0F88026 		ldr	r2, [r0, #1664]
 1150              	.LVL148:
ARM GAS  C:\Users\Patryk\AppData\Local\Temp\ccHDsNa9.s 			page 31


 201:lib/helix/real/imdct.c **** 			y7 = *y;	y += 2*NBANDS;
 202:lib/helix/real/imdct.c **** 			y8 = *y;	y += 2*NBANDS;
 203:lib/helix/real/imdct.c **** 
 204:lib/helix/real/imdct.c **** 			y -= 18*NBANDS;
 205:lib/helix/real/imdct.c **** 			*y = -y0;	y += 2*NBANDS;
 1151              		.loc 1 205 0
 1152 0028 5B42     		negs	r3, r3
 1153              	.LVL149:
 1154 002a C0F88030 		str	r3, [r0, #128]
 1155              	.LVL150:
 206:lib/helix/real/imdct.c **** 			*y = -y1;	y += 2*NBANDS;
 1156              		.loc 1 206 0
 1157 002e 7F42     		negs	r7, r7
 1158              	.LVL151:
 1159 0030 C0F88071 		str	r7, [r0, #384]
 1160              	.LVL152:
 207:lib/helix/real/imdct.c **** 			*y = -y2;	y += 2*NBANDS;
 1161              		.loc 1 207 0
 1162 0034 7642     		negs	r6, r6
 1163              	.LVL153:
 1164 0036 C0F88062 		str	r6, [r0, #640]
 1165              	.LVL154:
 208:lib/helix/real/imdct.c **** 			*y = -y3;	y += 2*NBANDS;
 1166              		.loc 1 208 0
 1167 003a 6D42     		negs	r5, r5
 1168              	.LVL155:
 1169 003c C0F88053 		str	r5, [r0, #896]
 1170              	.LVL156:
 209:lib/helix/real/imdct.c **** 			*y = -y4;	y += 2*NBANDS;
 1171              		.loc 1 209 0
 1172 0040 6442     		negs	r4, r4
 1173              	.LVL157:
 1174 0042 C0F88044 		str	r4, [r0, #1152]
 1175              	.LVL158:
 210:lib/helix/real/imdct.c **** 			*y = -y5;	y += 2*NBANDS;
 1176              		.loc 1 210 0
 1177 0046 4942     		negs	r1, r1
 1178              	.LVL159:
 1179 0048 C0F88015 		str	r1, [r0, #1408]
 1180              	.LVL160:
 211:lib/helix/real/imdct.c **** 			*y = -y6;	y += 2*NBANDS;
 1181              		.loc 1 211 0
 1182 004c 5242     		negs	r2, r2
 1183              	.LVL161:
 1184 004e C0F88026 		str	r2, [r0, #1664]
 1185              	.LVL162:
 212:lib/helix/real/imdct.c **** 			*y = -y7;	y += 2*NBANDS;
 1186              		.loc 1 212 0
 1187 0052 D0F88037 		ldr	r3, [r0, #1920]
 1188              	.LVL163:
 1189 0056 5B42     		negs	r3, r3
 1190 0058 C0F88037 		str	r3, [r0, #1920]
 1191              	.LVL164:
 213:lib/helix/real/imdct.c **** 			*y = -y8;	y += 2*NBANDS;
 1192              		.loc 1 213 0
 1193 005c D0F88038 		ldr	r3, [r0, #2176]
 1194              	.LVL165:
ARM GAS  C:\Users\Patryk\AppData\Local\Temp\ccHDsNa9.s 			page 32


 1195 0060 5B42     		negs	r3, r3
 1196 0062 C0F88038 		str	r3, [r0, #2176]
 1197              	.LVL166:
 214:lib/helix/real/imdct.c **** 		}
 215:lib/helix/real/imdct.c **** 		return 0;
 1198              		.loc 1 215 0
 1199 0066 6246     		mov	r2, ip
 1200              	.LVL167:
 1201              	.L19:
 216:lib/helix/real/imdct.c **** 	} else {
 217:lib/helix/real/imdct.c **** 		/* undo pre-IMDCT scaling, clipping if necessary */
 218:lib/helix/real/imdct.c **** 		mOut = 0;
 219:lib/helix/real/imdct.c **** 		if (blockIdx & 0x01) {
 220:lib/helix/real/imdct.c **** 			/* frequency invert */
 221:lib/helix/real/imdct.c **** 			for (i = 0; i < 18; i+=2) {
 222:lib/helix/real/imdct.c **** 				d = *y;		CLIP_2N(d, 31 - es);	*y = d << es;	mOut |= FASTABS(*y);	y += NBANDS;
 223:lib/helix/real/imdct.c **** 				d = -*y;	CLIP_2N(d, 31 - es);	*y = d << es;	mOut |= FASTABS(*y);	y += NBANDS;
 224:lib/helix/real/imdct.c **** 				d = *xPrev;	CLIP_2N(d, 31 - es);	*xPrev++ = d << es;
 225:lib/helix/real/imdct.c **** 			}
 226:lib/helix/real/imdct.c **** 		} else {
 227:lib/helix/real/imdct.c **** 			for (i = 0; i < 18; i+=2) {
 228:lib/helix/real/imdct.c **** 				d = *y;		CLIP_2N(d, 31 - es);	*y = d << es;	mOut |= FASTABS(*y);	y += NBANDS;
 229:lib/helix/real/imdct.c **** 				d = *y;		CLIP_2N(d, 31 - es);	*y = d << es;	mOut |= FASTABS(*y);	y += NBANDS;
 230:lib/helix/real/imdct.c **** 				d = *xPrev;	CLIP_2N(d, 31 - es);	*xPrev++ = d << es;
 231:lib/helix/real/imdct.c **** 			}
 232:lib/helix/real/imdct.c **** 		}
 233:lib/helix/real/imdct.c **** 		return mOut;
 234:lib/helix/real/imdct.c **** 	}
 235:lib/helix/real/imdct.c **** }
 1202              		.loc 1 235 0
 1203 0068 1046     		mov	r0, r2
 1204 006a F0BC     		pop	{r4, r5, r6, r7}
 1205              	.LCFI4:
 1206              		.cfi_remember_state
 1207              		.cfi_restore 7
 1208              		.cfi_restore 6
 1209              		.cfi_restore 5
 1210              		.cfi_restore 4
 1211              		.cfi_def_cfa_offset 0
 1212 006c 7047     		bx	lr
 1213              	.LVL168:
 1214              	.L20:
 1215              	.LCFI5:
 1216              		.cfi_restore_state
 219:lib/helix/real/imdct.c **** 			/* frequency invert */
 1217              		.loc 1 219 0
 1218 006e 12F00105 		ands	r5, r2, #1
 1219 0072 3CD1     		bne	.L32
 218:lib/helix/real/imdct.c **** 		if (blockIdx & 0x01) {
 1220              		.loc 1 218 0
 1221 0074 2A46     		mov	r2, r5
 1222              	.LVL169:
 1223 0076 42E0     		b	.L23
 1224              	.LVL170:
 1225              	.L26:
 224:lib/helix/real/imdct.c **** 			}
 1226              		.loc 1 224 0 discriminator 3
ARM GAS  C:\Users\Patryk\AppData\Local\Temp\ccHDsNa9.s 			page 33


 1227 0078 03FA0CF3 		lsl	r3, r3, ip
 1228              	.LVL171:
 1229 007c 0B60     		str	r3, [r1]
 221:lib/helix/real/imdct.c **** 				d = *y;		CLIP_2N(d, 31 - es);	*y = d << es;	mOut |= FASTABS(*y);	y += NBANDS;
 1230              		.loc 1 221 0 discriminator 3
 1231 007e 0235     		adds	r5, r5, #2
 1232              	.LVL172:
 224:lib/helix/real/imdct.c **** 			}
 1233              		.loc 1 224 0 discriminator 3
 1234 0080 0431     		adds	r1, r1, #4
 1235              	.LVL173:
 1236              	.L22:
 221:lib/helix/real/imdct.c **** 				d = *y;		CLIP_2N(d, 31 - es);	*y = d << es;	mOut |= FASTABS(*y);	y += NBANDS;
 1237              		.loc 1 221 0 discriminator 2
 1238 0082 112D     		cmp	r5, #17
 1239 0084 F0DC     		bgt	.L19
 222:lib/helix/real/imdct.c **** 				d = -*y;	CLIP_2N(d, 31 - es);	*y = d << es;	mOut |= FASTABS(*y);	y += NBANDS;
 1240              		.loc 1 222 0
 1241 0086 0368     		ldr	r3, [r0]
 1242              	.LVL174:
 1243              	.LBB304:
 1244 0088 DE17     		asrs	r6, r3, #31
 1245              	.LVL175:
 1246 008a CCF11F04 		rsb	r4, ip, #31
 1247 008e 43FA04F7 		asr	r7, r3, r4
 1248 0092 B742     		cmp	r7, r6
 1249 0094 03D0     		beq	.L24
 222:lib/helix/real/imdct.c **** 				d = -*y;	CLIP_2N(d, 31 - es);	*y = d << es;	mOut |= FASTABS(*y);	y += NBANDS;
 1250              		.loc 1 222 0 is_stmt 0 discriminator 1
 1251 0096 0123     		movs	r3, #1
 1252              	.LVL176:
 1253 0098 A340     		lsls	r3, r3, r4
 1254 009a 013B     		subs	r3, r3, #1
 1255 009c 7340     		eors	r3, r3, r6
 1256              	.LVL177:
 1257              	.L24:
 1258              	.LBE304:
 222:lib/helix/real/imdct.c **** 				d = -*y;	CLIP_2N(d, 31 - es);	*y = d << es;	mOut |= FASTABS(*y);	y += NBANDS;
 1259              		.loc 1 222 0 discriminator 3
 1260 009e 03FA0CF3 		lsl	r3, r3, ip
 1261              	.LVL178:
 1262 00a2 0360     		str	r3, [r0]
 1263              	.LVL179:
 1264              	.LBB305:
 1265              	.LBB306:
 327:lib/helix/real/assembly.h **** 	return y;
 328:lib/helix/real/assembly.h **** }
 329:lib/helix/real/assembly.h **** 
 330:lib/helix/real/assembly.h **** static __inline int FASTABS(int x)
 331:lib/helix/real/assembly.h **** {
 332:lib/helix/real/assembly.h **** 	int sign;
 333:lib/helix/real/assembly.h **** 
 334:lib/helix/real/assembly.h **** 	sign = x >> (sizeof(int) * 8 - 1);
 1266              		.loc 2 334 0 is_stmt 1 discriminator 3
 1267 00a4 DE17     		asrs	r6, r3, #31
 1268              	.LVL180:
 335:lib/helix/real/assembly.h **** 	x ^= sign;
ARM GAS  C:\Users\Patryk\AppData\Local\Temp\ccHDsNa9.s 			page 34


 1269              		.loc 2 335 0 discriminator 3
 1270 00a6 7340     		eors	r3, r3, r6
 1271              	.LVL181:
 336:lib/helix/real/assembly.h **** 	x -= sign;
 1272              		.loc 2 336 0 discriminator 3
 1273 00a8 9E1B     		subs	r6, r3, r6
 1274              	.LVL182:
 1275              	.LBE306:
 1276              	.LBE305:
 222:lib/helix/real/imdct.c **** 				d = -*y;	CLIP_2N(d, 31 - es);	*y = d << es;	mOut |= FASTABS(*y);	y += NBANDS;
 1277              		.loc 1 222 0 discriminator 3
 1278 00aa 1643     		orrs	r6, r6, r2
 1279              	.LVL183:
 223:lib/helix/real/imdct.c **** 				d = *xPrev;	CLIP_2N(d, 31 - es);	*xPrev++ = d << es;
 1280              		.loc 1 223 0 discriminator 3
 1281 00ac D0F88030 		ldr	r3, [r0, #128]
 1282 00b0 5B42     		negs	r3, r3
 1283              	.LVL184:
 1284              	.LBB307:
 1285 00b2 DA17     		asrs	r2, r3, #31
 1286              	.LVL185:
 1287 00b4 43FA04F7 		asr	r7, r3, r4
 1288 00b8 9742     		cmp	r7, r2
 1289 00ba 03D0     		beq	.L25
 223:lib/helix/real/imdct.c **** 				d = *xPrev;	CLIP_2N(d, 31 - es);	*xPrev++ = d << es;
 1290              		.loc 1 223 0 is_stmt 0 discriminator 1
 1291 00bc 0123     		movs	r3, #1
 1292              	.LVL186:
 1293 00be A340     		lsls	r3, r3, r4
 1294 00c0 013B     		subs	r3, r3, #1
 1295 00c2 5340     		eors	r3, r3, r2
 1296              	.LVL187:
 1297              	.L25:
 1298              	.LBE307:
 223:lib/helix/real/imdct.c **** 				d = *xPrev;	CLIP_2N(d, 31 - es);	*xPrev++ = d << es;
 1299              		.loc 1 223 0 discriminator 3
 1300 00c4 03FA0CF3 		lsl	r3, r3, ip
 1301              	.LVL188:
 1302 00c8 C0F88030 		str	r3, [r0, #128]
 1303              	.LVL189:
 1304              	.LBB308:
 1305              	.LBB309:
 334:lib/helix/real/assembly.h **** 	x ^= sign;
 1306              		.loc 2 334 0 is_stmt 1 discriminator 3
 1307 00cc DA17     		asrs	r2, r3, #31
 1308              	.LVL190:
 335:lib/helix/real/assembly.h **** 	x -= sign;
 1309              		.loc 2 335 0 discriminator 3
 1310 00ce 5340     		eors	r3, r3, r2
 1311              	.LVL191:
 1312              		.loc 2 336 0 discriminator 3
 1313 00d0 9A1A     		subs	r2, r3, r2
 1314              	.LVL192:
 1315              	.LBE309:
 1316              	.LBE308:
 223:lib/helix/real/imdct.c **** 				d = *xPrev;	CLIP_2N(d, 31 - es);	*xPrev++ = d << es;
 1317              		.loc 1 223 0 discriminator 3
ARM GAS  C:\Users\Patryk\AppData\Local\Temp\ccHDsNa9.s 			page 35


 1318 00d2 3243     		orrs	r2, r2, r6
 1319              	.LVL193:
 1320 00d4 00F58070 		add	r0, r0, #256
 1321              	.LVL194:
 224:lib/helix/real/imdct.c **** 			}
 1322              		.loc 1 224 0 discriminator 3
 1323 00d8 0B68     		ldr	r3, [r1]
 1324              	.LVL195:
 1325              	.LBB310:
 1326 00da DE17     		asrs	r6, r3, #31
 1327              	.LVL196:
 1328 00dc 43FA04F7 		asr	r7, r3, r4
 1329 00e0 B742     		cmp	r7, r6
 1330 00e2 C9D0     		beq	.L26
 224:lib/helix/real/imdct.c **** 			}
 1331              		.loc 1 224 0 is_stmt 0 discriminator 1
 1332 00e4 0123     		movs	r3, #1
 1333              	.LVL197:
 1334 00e6 A340     		lsls	r3, r3, r4
 1335 00e8 013B     		subs	r3, r3, #1
 1336 00ea 7340     		eors	r3, r3, r6
 1337              	.LVL198:
 1338 00ec C4E7     		b	.L26
 1339              	.LVL199:
 1340              	.L32:
 1341              	.LBE310:
 218:lib/helix/real/imdct.c **** 		if (blockIdx & 0x01) {
 1342              		.loc 1 218 0 is_stmt 1
 1343 00ee 0022     		movs	r2, #0
 1344              	.LVL200:
 221:lib/helix/real/imdct.c **** 				d = *y;		CLIP_2N(d, 31 - es);	*y = d << es;	mOut |= FASTABS(*y);	y += NBANDS;
 1345              		.loc 1 221 0
 1346 00f0 1546     		mov	r5, r2
 1347 00f2 C6E7     		b	.L22
 1348              	.LVL201:
 1349              	.L30:
 230:lib/helix/real/imdct.c **** 			}
 1350              		.loc 1 230 0 discriminator 3
 1351 00f4 03FA0CF3 		lsl	r3, r3, ip
 1352              	.LVL202:
 1353 00f8 0B60     		str	r3, [r1]
 227:lib/helix/real/imdct.c **** 				d = *y;		CLIP_2N(d, 31 - es);	*y = d << es;	mOut |= FASTABS(*y);	y += NBANDS;
 1354              		.loc 1 227 0 discriminator 3
 1355 00fa 0235     		adds	r5, r5, #2
 1356              	.LVL203:
 230:lib/helix/real/imdct.c **** 			}
 1357              		.loc 1 230 0 discriminator 3
 1358 00fc 0431     		adds	r1, r1, #4
 1359              	.LVL204:
 1360              	.L23:
 227:lib/helix/real/imdct.c **** 				d = *y;		CLIP_2N(d, 31 - es);	*y = d << es;	mOut |= FASTABS(*y);	y += NBANDS;
 1361              		.loc 1 227 0 discriminator 2
 1362 00fe 112D     		cmp	r5, #17
 1363 0100 B2DC     		bgt	.L19
 228:lib/helix/real/imdct.c **** 				d = *y;		CLIP_2N(d, 31 - es);	*y = d << es;	mOut |= FASTABS(*y);	y += NBANDS;
 1364              		.loc 1 228 0
 1365 0102 0368     		ldr	r3, [r0]
ARM GAS  C:\Users\Patryk\AppData\Local\Temp\ccHDsNa9.s 			page 36


 1366              	.LVL205:
 1367              	.LBB311:
 1368 0104 DE17     		asrs	r6, r3, #31
 1369              	.LVL206:
 1370 0106 CCF11F04 		rsb	r4, ip, #31
 1371 010a 43FA04F7 		asr	r7, r3, r4
 1372 010e B742     		cmp	r7, r6
 1373 0110 03D0     		beq	.L28
 228:lib/helix/real/imdct.c **** 				d = *y;		CLIP_2N(d, 31 - es);	*y = d << es;	mOut |= FASTABS(*y);	y += NBANDS;
 1374              		.loc 1 228 0 is_stmt 0 discriminator 1
 1375 0112 0123     		movs	r3, #1
 1376              	.LVL207:
 1377 0114 A340     		lsls	r3, r3, r4
 1378 0116 013B     		subs	r3, r3, #1
 1379 0118 7340     		eors	r3, r3, r6
 1380              	.LVL208:
 1381              	.L28:
 1382              	.LBE311:
 228:lib/helix/real/imdct.c **** 				d = *y;		CLIP_2N(d, 31 - es);	*y = d << es;	mOut |= FASTABS(*y);	y += NBANDS;
 1383              		.loc 1 228 0 discriminator 3
 1384 011a 03FA0CF3 		lsl	r3, r3, ip
 1385              	.LVL209:
 1386 011e 0360     		str	r3, [r0]
 1387              	.LVL210:
 1388              	.LBB312:
 1389              	.LBB313:
 334:lib/helix/real/assembly.h **** 	x ^= sign;
 1390              		.loc 2 334 0 is_stmt 1 discriminator 3
 1391 0120 DE17     		asrs	r6, r3, #31
 1392              	.LVL211:
 335:lib/helix/real/assembly.h **** 	x -= sign;
 1393              		.loc 2 335 0 discriminator 3
 1394 0122 7340     		eors	r3, r3, r6
 1395              	.LVL212:
 1396              		.loc 2 336 0 discriminator 3
 1397 0124 9B1B     		subs	r3, r3, r6
 1398              	.LVL213:
 1399              	.LBE313:
 1400              	.LBE312:
 228:lib/helix/real/imdct.c **** 				d = *y;		CLIP_2N(d, 31 - es);	*y = d << es;	mOut |= FASTABS(*y);	y += NBANDS;
 1401              		.loc 1 228 0 discriminator 3
 1402 0126 1A43     		orrs	r2, r2, r3
 1403              	.LVL214:
 229:lib/helix/real/imdct.c **** 				d = *xPrev;	CLIP_2N(d, 31 - es);	*xPrev++ = d << es;
 1404              		.loc 1 229 0 discriminator 3
 1405 0128 D0F88030 		ldr	r3, [r0, #128]
 1406              	.LVL215:
 1407              	.LBB314:
 1408 012c DE17     		asrs	r6, r3, #31
 1409              	.LVL216:
 1410 012e 43FA04F7 		asr	r7, r3, r4
 1411 0132 B742     		cmp	r7, r6
 1412 0134 03D0     		beq	.L29
 229:lib/helix/real/imdct.c **** 				d = *xPrev;	CLIP_2N(d, 31 - es);	*xPrev++ = d << es;
 1413              		.loc 1 229 0 is_stmt 0 discriminator 1
 1414 0136 0123     		movs	r3, #1
 1415              	.LVL217:
ARM GAS  C:\Users\Patryk\AppData\Local\Temp\ccHDsNa9.s 			page 37


 1416 0138 A340     		lsls	r3, r3, r4
 1417 013a 013B     		subs	r3, r3, #1
 1418 013c 7340     		eors	r3, r3, r6
 1419              	.LVL218:
 1420              	.L29:
 1421              	.LBE314:
 229:lib/helix/real/imdct.c **** 				d = *xPrev;	CLIP_2N(d, 31 - es);	*xPrev++ = d << es;
 1422              		.loc 1 229 0 discriminator 3
 1423 013e 03FA0CF3 		lsl	r3, r3, ip
 1424              	.LVL219:
 1425 0142 C0F88030 		str	r3, [r0, #128]
 1426              	.LVL220:
 1427              	.LBB315:
 1428              	.LBB316:
 334:lib/helix/real/assembly.h **** 	x ^= sign;
 1429              		.loc 2 334 0 is_stmt 1 discriminator 3
 1430 0146 DE17     		asrs	r6, r3, #31
 1431              	.LVL221:
 335:lib/helix/real/assembly.h **** 	x -= sign;
 1432              		.loc 2 335 0 discriminator 3
 1433 0148 7340     		eors	r3, r3, r6
 1434              	.LVL222:
 1435              		.loc 2 336 0 discriminator 3
 1436 014a 9B1B     		subs	r3, r3, r6
 1437              	.LVL223:
 1438              	.LBE316:
 1439              	.LBE315:
 229:lib/helix/real/imdct.c **** 				d = *xPrev;	CLIP_2N(d, 31 - es);	*xPrev++ = d << es;
 1440              		.loc 1 229 0 discriminator 3
 1441 014c 1A43     		orrs	r2, r2, r3
 1442              	.LVL224:
 1443 014e 00F58070 		add	r0, r0, #256
 1444              	.LVL225:
 230:lib/helix/real/imdct.c **** 			}
 1445              		.loc 1 230 0 discriminator 3
 1446 0152 0B68     		ldr	r3, [r1]
 1447              	.LVL226:
 1448              	.LBB317:
 1449 0154 DE17     		asrs	r6, r3, #31
 1450              	.LVL227:
 1451 0156 43FA04F7 		asr	r7, r3, r4
 1452 015a B742     		cmp	r7, r6
 1453 015c CAD0     		beq	.L30
 230:lib/helix/real/imdct.c **** 			}
 1454              		.loc 1 230 0 is_stmt 0 discriminator 1
 1455 015e 0123     		movs	r3, #1
 1456              	.LVL228:
 1457 0160 A340     		lsls	r3, r3, r4
 1458 0162 013B     		subs	r3, r3, #1
 1459 0164 7340     		eors	r3, r3, r6
 1460              	.LVL229:
 1461 0166 C5E7     		b	.L30
 1462              	.LBE317:
 1463              		.cfi_endproc
 1464              	.LFE7:
 1466              		.section	.text.IMDCT12x3,"ax",%progbits
 1467              		.align	1
ARM GAS  C:\Users\Patryk\AppData\Local\Temp\ccHDsNa9.s 			page 38


 1468              		.syntax unified
 1469              		.thumb
 1470              		.thumb_func
 1471              		.fpu fpv5-sp-d16
 1473              	IMDCT12x3:
 1474              	.LFB11:
 236:lib/helix/real/imdct.c **** 
 237:lib/helix/real/imdct.c **** /* format = Q31
 238:lib/helix/real/imdct.c ****  * #define M_PI 3.14159265358979323846
 239:lib/helix/real/imdct.c ****  * double u = 2.0 * M_PI / 9.0;
 240:lib/helix/real/imdct.c ****  * float c0 = sqrt(3.0) / 2.0; 
 241:lib/helix/real/imdct.c ****  * float c1 = cos(u);          
 242:lib/helix/real/imdct.c ****  * float c2 = cos(2*u);        
 243:lib/helix/real/imdct.c ****  * float c3 = sin(u);          
 244:lib/helix/real/imdct.c ****  * float c4 = sin(2*u);
 245:lib/helix/real/imdct.c ****  */
 246:lib/helix/real/imdct.c **** static const int c9_0 = 0x6ed9eba1;
 247:lib/helix/real/imdct.c **** static const int c9_1 = 0x620dbe8b;
 248:lib/helix/real/imdct.c **** static const int c9_2 = 0x163a1a7e;
 249:lib/helix/real/imdct.c **** static const int c9_3 = 0x5246dd49;
 250:lib/helix/real/imdct.c **** static const int c9_4 = 0x7e0e2e32;
 251:lib/helix/real/imdct.c **** 
 252:lib/helix/real/imdct.c **** /* format = Q31
 253:lib/helix/real/imdct.c ****  * cos(((0:8) + 0.5) * (pi/18)) 
 254:lib/helix/real/imdct.c ****  */
 255:lib/helix/real/imdct.c **** static const int c18[9] = {
 256:lib/helix/real/imdct.c **** 	0x7f834ed0, 0x7ba3751d, 0x7401e4c1, 0x68d9f964, 0x5a82799a, 0x496af3e2, 0x36185aee, 0x2120fb83, 0x
 257:lib/helix/real/imdct.c **** };
 258:lib/helix/real/imdct.c **** 
 259:lib/helix/real/imdct.c **** /* require at least 3 guard bits in x[] to ensure no overflow */
 260:lib/helix/real/imdct.c **** static __inline void idct9(int *x)
 261:lib/helix/real/imdct.c **** {
 262:lib/helix/real/imdct.c **** 	int a1, a2, a3, a4, a5, a6, a7, a8, a9;
 263:lib/helix/real/imdct.c **** 	int a10, a11, a12, a13, a14, a15, a16, a17, a18;
 264:lib/helix/real/imdct.c **** 	int a19, a20, a21, a22, a23, a24, a25, a26, a27;
 265:lib/helix/real/imdct.c **** 	int m1, m3, m5, m6, m7, m8, m9, m10, m11, m12;
 266:lib/helix/real/imdct.c **** 	int x0, x1, x2, x3, x4, x5, x6, x7, x8;
 267:lib/helix/real/imdct.c **** 
 268:lib/helix/real/imdct.c **** 	x0 = x[0]; x1 = x[1]; x2 = x[2]; x3 = x[3]; x4 = x[4];
 269:lib/helix/real/imdct.c **** 	x5 = x[5]; x6 = x[6]; x7 = x[7]; x8 = x[8];
 270:lib/helix/real/imdct.c **** 
 271:lib/helix/real/imdct.c **** 	a1 = x0 - x6;
 272:lib/helix/real/imdct.c **** 	a2 = x1 - x5;
 273:lib/helix/real/imdct.c **** 	a3 = x1 + x5;
 274:lib/helix/real/imdct.c **** 	a4 = x2 - x4;
 275:lib/helix/real/imdct.c **** 	a5 = x2 + x4;
 276:lib/helix/real/imdct.c **** 	a6 = x2 + x8;
 277:lib/helix/real/imdct.c **** 	a7 = x1 + x7;
 278:lib/helix/real/imdct.c **** 
 279:lib/helix/real/imdct.c **** 	a8 = a6 - a5;		/* ie x[8] - x[4] */
 280:lib/helix/real/imdct.c **** 	a9 = a3 - a7;		/* ie x[5] - x[7] */
 281:lib/helix/real/imdct.c **** 	a10 = a2 - x7;		/* ie x[1] - x[5] - x[7] */
 282:lib/helix/real/imdct.c **** 	a11 = a4 - x8;		/* ie x[2] - x[4] - x[8] */
 283:lib/helix/real/imdct.c **** 
 284:lib/helix/real/imdct.c **** 	/* do the << 1 as constant shifts where mX is actually used (free, no stall or extra inst.) */
 285:lib/helix/real/imdct.c **** 	m1 =  MULSHIFT32(c9_0, x3);
 286:lib/helix/real/imdct.c **** 	m3 =  MULSHIFT32(c9_0, a10);
ARM GAS  C:\Users\Patryk\AppData\Local\Temp\ccHDsNa9.s 			page 39


 287:lib/helix/real/imdct.c **** 	m5 =  MULSHIFT32(c9_1, a5);
 288:lib/helix/real/imdct.c **** 	m6 =  MULSHIFT32(c9_2, a6);
 289:lib/helix/real/imdct.c **** 	m7 =  MULSHIFT32(c9_1, a8);
 290:lib/helix/real/imdct.c **** 	m8 =  MULSHIFT32(c9_2, a5);
 291:lib/helix/real/imdct.c **** 	m9 =  MULSHIFT32(c9_3, a9);
 292:lib/helix/real/imdct.c **** 	m10 = MULSHIFT32(c9_4, a7);
 293:lib/helix/real/imdct.c **** 	m11 = MULSHIFT32(c9_3, a3);
 294:lib/helix/real/imdct.c **** 	m12 = MULSHIFT32(c9_4, a9);
 295:lib/helix/real/imdct.c **** 
 296:lib/helix/real/imdct.c **** 	a12 = x[0] +  (x[6] >> 1);
 297:lib/helix/real/imdct.c **** 	a13 = a12  +  (  m1 << 1);
 298:lib/helix/real/imdct.c **** 	a14 = a12  -  (  m1 << 1);
 299:lib/helix/real/imdct.c **** 	a15 = a1   +  ( a11 >> 1);
 300:lib/helix/real/imdct.c **** 	a16 = ( m5 << 1) + (m6 << 1);
 301:lib/helix/real/imdct.c **** 	a17 = ( m7 << 1) - (m8 << 1);
 302:lib/helix/real/imdct.c **** 	a18 = a16 + a17;
 303:lib/helix/real/imdct.c **** 	a19 = ( m9 << 1) + (m10 << 1);
 304:lib/helix/real/imdct.c **** 	a20 = (m11 << 1) - (m12 << 1);
 305:lib/helix/real/imdct.c **** 
 306:lib/helix/real/imdct.c **** 	a21 = a20 - a19;
 307:lib/helix/real/imdct.c **** 	a22 = a13 + a16;
 308:lib/helix/real/imdct.c **** 	a23 = a14 + a16;
 309:lib/helix/real/imdct.c **** 	a24 = a14 + a17;
 310:lib/helix/real/imdct.c **** 	a25 = a13 + a17;
 311:lib/helix/real/imdct.c **** 	a26 = a14 - a18;
 312:lib/helix/real/imdct.c **** 	a27 = a13 - a18;
 313:lib/helix/real/imdct.c **** 
 314:lib/helix/real/imdct.c **** 	x0 = a22 + a19;			x[0] = x0;
 315:lib/helix/real/imdct.c **** 	x1 = a15 + (m3 << 1);	x[1] = x1;
 316:lib/helix/real/imdct.c **** 	x2 = a24 + a20;			x[2] = x2;
 317:lib/helix/real/imdct.c **** 	x3 = a26 - a21;			x[3] = x3;
 318:lib/helix/real/imdct.c **** 	x4 = a1 - a11;			x[4] = x4;
 319:lib/helix/real/imdct.c **** 	x5 = a27 + a21;			x[5] = x5;
 320:lib/helix/real/imdct.c **** 	x6 = a25 - a20;			x[6] = x6;
 321:lib/helix/real/imdct.c **** 	x7 = a15 - (m3 << 1);	x[7] = x7;
 322:lib/helix/real/imdct.c **** 	x8 = a23 - a19;			x[8] = x8;
 323:lib/helix/real/imdct.c **** }
 324:lib/helix/real/imdct.c **** 
 325:lib/helix/real/imdct.c **** /* let c(j) = cos(M_PI/36 * ((j)+0.5)), s(j) = sin(M_PI/36 * ((j)+0.5))
 326:lib/helix/real/imdct.c ****  * then fastWin[2*j+0] = c(j)*(s(j) + c(j)), j = [0, 8]
 327:lib/helix/real/imdct.c ****  *      fastWin[2*j+1] = c(j)*(s(j) - c(j))
 328:lib/helix/real/imdct.c ****  * format = Q30
 329:lib/helix/real/imdct.c ****  */
 330:lib/helix/real/imdct.c **** static const int fastWin36[18] = {
 331:lib/helix/real/imdct.c **** 	0x42aace8b, 0xc2e92724, 0x47311c28, 0xc95f619a, 0x4a868feb, 0xd0859d8c,
 332:lib/helix/real/imdct.c **** 	0x4c913b51, 0xd8243ea0, 0x4d413ccc, 0xe0000000, 0x4c913b51, 0xe7dbc161,
 333:lib/helix/real/imdct.c **** 	0x4a868feb, 0xef7a6275, 0x47311c28, 0xf6a09e67, 0x42aace8b, 0xfd16d8dd,
 334:lib/helix/real/imdct.c **** };
 335:lib/helix/real/imdct.c **** 
 336:lib/helix/real/imdct.c **** /**************************************************************************************
 337:lib/helix/real/imdct.c ****  * Function:    IMDCT36
 338:lib/helix/real/imdct.c ****  *
 339:lib/helix/real/imdct.c ****  * Description: 36-point modified DCT, with windowing and overlap-add (50% overlap)
 340:lib/helix/real/imdct.c ****  *
 341:lib/helix/real/imdct.c ****  * Inputs:      vector of 18 coefficients (N/2 inputs produces N outputs, by symmetry)
 342:lib/helix/real/imdct.c ****  *              overlap part of last IMDCT (9 samples - see output comments)
 343:lib/helix/real/imdct.c ****  *              window type (0,1,2,3) of current and previous block
ARM GAS  C:\Users\Patryk\AppData\Local\Temp\ccHDsNa9.s 			page 40


 344:lib/helix/real/imdct.c ****  *              current block index (for deciding whether to do frequency inversion)
 345:lib/helix/real/imdct.c ****  *              number of guard bits in input vector
 346:lib/helix/real/imdct.c ****  *
 347:lib/helix/real/imdct.c ****  * Outputs:     18 output samples, after windowing and overlap-add with last frame
 348:lib/helix/real/imdct.c ****  *              second half of (unwindowed) 36-point IMDCT - save for next time
 349:lib/helix/real/imdct.c ****  *                only save 9 xPrev samples, using symmetry (see WinPrevious())
 350:lib/helix/real/imdct.c ****  *
 351:lib/helix/real/imdct.c ****  * Notes:       this is Ken's hyper-fast algorithm, including symmetric sin window
 352:lib/helix/real/imdct.c ****  *                optimization, if applicable
 353:lib/helix/real/imdct.c ****  *              total number of multiplies, general case: 
 354:lib/helix/real/imdct.c ****  *                2*10 (idct9) + 9 (last stage imdct) + 36 (for windowing) = 65
 355:lib/helix/real/imdct.c ****  *              total number of multiplies, btCurr == 0 && btPrev == 0:
 356:lib/helix/real/imdct.c ****  *                2*10 (idct9) + 9 (last stage imdct) + 18 (for windowing) = 47
 357:lib/helix/real/imdct.c ****  *
 358:lib/helix/real/imdct.c ****  *              blockType == 0 is by far the most common case, so it should be
 359:lib/helix/real/imdct.c ****  *                possible to use the fast path most of the time
 360:lib/helix/real/imdct.c ****  *              this is the fastest known algorithm for performing 
 361:lib/helix/real/imdct.c ****  *                long IMDCT + windowing + overlap-add in MP3
 362:lib/helix/real/imdct.c ****  *
 363:lib/helix/real/imdct.c ****  * Return:      mOut (OR of abs(y) for all y calculated here)
 364:lib/helix/real/imdct.c ****  *
 365:lib/helix/real/imdct.c ****  * TODO:        optimize for ARM (reorder window coefs, ARM-style pointers in C, 
 366:lib/helix/real/imdct.c ****  *                inline asm may or may not be helpful)
 367:lib/helix/real/imdct.c ****  **************************************************************************************/
 368:lib/helix/real/imdct.c **** static int IMDCT36(int *xCurr, int *xPrev, int *y, int btCurr, int btPrev, int blockIdx, int gb)
 369:lib/helix/real/imdct.c **** {
 370:lib/helix/real/imdct.c **** 	int i, es, xBuf[18], xPrevWin[18];
 371:lib/helix/real/imdct.c **** 	int acc1, acc2, s, d, t, mOut;
 372:lib/helix/real/imdct.c **** 	int xo, xe, c, *xp, yLo, yHi;
 373:lib/helix/real/imdct.c **** 	const int *cp, *wp;
 374:lib/helix/real/imdct.c **** 
 375:lib/helix/real/imdct.c **** 	acc1 = acc2 = 0;
 376:lib/helix/real/imdct.c **** 	xCurr += 17;
 377:lib/helix/real/imdct.c **** 
 378:lib/helix/real/imdct.c **** 	/* 7 gb is always adequate for antialias + accumulator loop + idct9 */
 379:lib/helix/real/imdct.c **** 	if (gb < 7) {
 380:lib/helix/real/imdct.c **** 		/* rarely triggered - 5% to 10% of the time on normal clips (with Q25 input) */
 381:lib/helix/real/imdct.c **** 		es = 7 - gb;
 382:lib/helix/real/imdct.c **** 		for (i = 8; i >= 0; i--) {	
 383:lib/helix/real/imdct.c **** 			acc1 = ((*xCurr--) >> es) - acc1;
 384:lib/helix/real/imdct.c **** 			acc2 = acc1 - acc2;
 385:lib/helix/real/imdct.c **** 			acc1 = ((*xCurr--) >> es) - acc1;
 386:lib/helix/real/imdct.c **** 			xBuf[i+9] = acc2;	/* odd */
 387:lib/helix/real/imdct.c **** 			xBuf[i+0] = acc1;	/* even */
 388:lib/helix/real/imdct.c **** 			xPrev[i] >>= es;
 389:lib/helix/real/imdct.c **** 		}
 390:lib/helix/real/imdct.c **** 	} else {
 391:lib/helix/real/imdct.c **** 		es = 0;
 392:lib/helix/real/imdct.c **** 		/* max gain = 18, assume adequate guard bits */
 393:lib/helix/real/imdct.c **** 		for (i = 8; i >= 0; i--) {	
 394:lib/helix/real/imdct.c **** 			acc1 = (*xCurr--) - acc1;
 395:lib/helix/real/imdct.c **** 			acc2 = acc1 - acc2;
 396:lib/helix/real/imdct.c **** 			acc1 = (*xCurr--) - acc1;
 397:lib/helix/real/imdct.c **** 			xBuf[i+9] = acc2;	/* odd */
 398:lib/helix/real/imdct.c **** 			xBuf[i+0] = acc1;	/* even */
 399:lib/helix/real/imdct.c **** 		}
 400:lib/helix/real/imdct.c **** 	}
ARM GAS  C:\Users\Patryk\AppData\Local\Temp\ccHDsNa9.s 			page 41


 401:lib/helix/real/imdct.c **** 	/* xEven[0] and xOdd[0] scaled by 0.5 */
 402:lib/helix/real/imdct.c **** 	xBuf[9] >>= 1;
 403:lib/helix/real/imdct.c **** 	xBuf[0] >>= 1;
 404:lib/helix/real/imdct.c **** 
 405:lib/helix/real/imdct.c **** 	/* do 9-point IDCT on even and odd */
 406:lib/helix/real/imdct.c **** 	idct9(xBuf+0);	/* even */
 407:lib/helix/real/imdct.c **** 	idct9(xBuf+9);	/* odd */
 408:lib/helix/real/imdct.c **** 
 409:lib/helix/real/imdct.c **** 	xp = xBuf + 8;
 410:lib/helix/real/imdct.c **** 	cp = c18 + 8;
 411:lib/helix/real/imdct.c **** 	mOut = 0;
 412:lib/helix/real/imdct.c **** 	if (btPrev == 0 && btCurr == 0) {
 413:lib/helix/real/imdct.c **** 		/* fast path - use symmetry of sin window to reduce windowing multiplies to 18 (N/2) */
 414:lib/helix/real/imdct.c **** 		wp = fastWin36;
 415:lib/helix/real/imdct.c **** 		for (i = 0; i < 9; i++) {
 416:lib/helix/real/imdct.c **** 			/* do ARM-style pointer arithmetic (i still needed for y[] indexing - compiler spills if 2 y poi
 417:lib/helix/real/imdct.c **** 			c = *cp--;	xo = *(xp + 9);		xe = *xp--;
 418:lib/helix/real/imdct.c **** 			/* gain 2 int bits here */
 419:lib/helix/real/imdct.c **** 			xo = MULSHIFT32(c, xo);			/* 2*c18*xOdd (mul by 2 implicit in scaling)  */
 420:lib/helix/real/imdct.c **** 			xe >>= 2;
 421:lib/helix/real/imdct.c **** 
 422:lib/helix/real/imdct.c **** 			s = -(*xPrev);		/* sum from last block (always at least 2 guard bits) */
 423:lib/helix/real/imdct.c **** 			d = -(xe - xo);		/* gain 2 int bits, don't shift xo (effective << 1 to eat sign bit, << 1 for mu
 424:lib/helix/real/imdct.c **** 			(*xPrev++) = xe + xo;			/* symmetry - xPrev[i] = xPrev[17-i] for long blocks */
 425:lib/helix/real/imdct.c **** 			t = s - d;
 426:lib/helix/real/imdct.c **** 
 427:lib/helix/real/imdct.c **** 			yLo = (d + (MULSHIFT32(t, *wp++) << 2));
 428:lib/helix/real/imdct.c **** 			yHi = (s + (MULSHIFT32(t, *wp++) << 2));
 429:lib/helix/real/imdct.c **** 			y[(i)*NBANDS]    = 	yLo;
 430:lib/helix/real/imdct.c **** 			y[(17-i)*NBANDS] =  yHi;
 431:lib/helix/real/imdct.c **** 			mOut |= FASTABS(yLo);
 432:lib/helix/real/imdct.c **** 			mOut |= FASTABS(yHi);
 433:lib/helix/real/imdct.c **** 		}
 434:lib/helix/real/imdct.c **** 	} else {
 435:lib/helix/real/imdct.c **** 		/* slower method - either prev or curr is using window type != 0 so do full 36-point window 
 436:lib/helix/real/imdct.c **** 		 * output xPrevWin has at least 3 guard bits (xPrev has 2, gain 1 in WinPrevious)
 437:lib/helix/real/imdct.c **** 		 */
 438:lib/helix/real/imdct.c **** 		WinPrevious(xPrev, xPrevWin, btPrev);
 439:lib/helix/real/imdct.c **** 
 440:lib/helix/real/imdct.c **** 		wp = imdctWin[btCurr];
 441:lib/helix/real/imdct.c **** 		for (i = 0; i < 9; i++) {
 442:lib/helix/real/imdct.c **** 			c = *cp--;	xo = *(xp + 9);		xe = *xp--;
 443:lib/helix/real/imdct.c **** 			/* gain 2 int bits here */
 444:lib/helix/real/imdct.c **** 			xo = MULSHIFT32(c, xo);			/* 2*c18*xOdd (mul by 2 implicit in scaling)  */
 445:lib/helix/real/imdct.c **** 			xe >>= 2;
 446:lib/helix/real/imdct.c **** 
 447:lib/helix/real/imdct.c **** 			d = xe - xo;
 448:lib/helix/real/imdct.c **** 			(*xPrev++) = xe + xo;	/* symmetry - xPrev[i] = xPrev[17-i] for long blocks */
 449:lib/helix/real/imdct.c **** 			
 450:lib/helix/real/imdct.c **** 			yLo = (xPrevWin[i]    + MULSHIFT32(d, wp[i])) << 2;
 451:lib/helix/real/imdct.c **** 			yHi = (xPrevWin[17-i] + MULSHIFT32(d, wp[17-i])) << 2;
 452:lib/helix/real/imdct.c **** 			y[(i)*NBANDS]    = yLo;
 453:lib/helix/real/imdct.c **** 			y[(17-i)*NBANDS] = yHi;
 454:lib/helix/real/imdct.c **** 			mOut |= FASTABS(yLo);
 455:lib/helix/real/imdct.c **** 			mOut |= FASTABS(yHi);
 456:lib/helix/real/imdct.c **** 		}
 457:lib/helix/real/imdct.c **** 	}
ARM GAS  C:\Users\Patryk\AppData\Local\Temp\ccHDsNa9.s 			page 42


 458:lib/helix/real/imdct.c **** 
 459:lib/helix/real/imdct.c **** 	xPrev -= 9;
 460:lib/helix/real/imdct.c **** 	mOut |= FreqInvertRescale(y, xPrev, blockIdx, es);
 461:lib/helix/real/imdct.c **** 
 462:lib/helix/real/imdct.c **** 	return mOut;
 463:lib/helix/real/imdct.c **** }
 464:lib/helix/real/imdct.c **** 
 465:lib/helix/real/imdct.c **** static const int c3_0 = 0x6ed9eba1;	/* format = Q31, cos(pi/6) */
 466:lib/helix/real/imdct.c **** static const int c6[3] = { 0x7ba3751d, 0x5a82799a, 0x2120fb83 };	/* format = Q31, cos(((0:2) + 0.5)
 467:lib/helix/real/imdct.c **** 
 468:lib/helix/real/imdct.c **** /* 12-point inverse DCT, used in IMDCT12x3() 
 469:lib/helix/real/imdct.c ****  * 4 input guard bits will ensure no overflow
 470:lib/helix/real/imdct.c ****  */
 471:lib/helix/real/imdct.c **** static __inline void imdct12 (int *x, int *out)
 472:lib/helix/real/imdct.c **** {
 473:lib/helix/real/imdct.c **** 	int a0, a1, a2;
 474:lib/helix/real/imdct.c **** 	int x0, x1, x2, x3, x4, x5;
 475:lib/helix/real/imdct.c **** 
 476:lib/helix/real/imdct.c **** 	x0 = *x;	x+=3;	x1 = *x;	x+=3;
 477:lib/helix/real/imdct.c **** 	x2 = *x;	x+=3;	x3 = *x;	x+=3;
 478:lib/helix/real/imdct.c **** 	x4 = *x;	x+=3;	x5 = *x;	x+=3;
 479:lib/helix/real/imdct.c **** 
 480:lib/helix/real/imdct.c **** 	x4 -= x5;
 481:lib/helix/real/imdct.c **** 	x3 -= x4;
 482:lib/helix/real/imdct.c **** 	x2 -= x3;
 483:lib/helix/real/imdct.c **** 	x3 -= x5;
 484:lib/helix/real/imdct.c **** 	x1 -= x2;
 485:lib/helix/real/imdct.c **** 	x0 -= x1;
 486:lib/helix/real/imdct.c **** 	x1 -= x3;
 487:lib/helix/real/imdct.c **** 
 488:lib/helix/real/imdct.c **** 	x0 >>= 1;
 489:lib/helix/real/imdct.c **** 	x1 >>= 1;
 490:lib/helix/real/imdct.c **** 
 491:lib/helix/real/imdct.c **** 	a0 = MULSHIFT32(c3_0, x2) << 1;
 492:lib/helix/real/imdct.c **** 	a1 = x0 + (x4 >> 1);
 493:lib/helix/real/imdct.c **** 	a2 = x0 - x4;
 494:lib/helix/real/imdct.c **** 	x0 = a1 + a0;
 495:lib/helix/real/imdct.c **** 	x2 = a2;
 496:lib/helix/real/imdct.c **** 	x4 = a1 - a0;
 497:lib/helix/real/imdct.c **** 
 498:lib/helix/real/imdct.c **** 	a0 = MULSHIFT32(c3_0, x3) << 1;
 499:lib/helix/real/imdct.c **** 	a1 = x1 + (x5 >> 1);
 500:lib/helix/real/imdct.c **** 	a2 = x1 - x5;
 501:lib/helix/real/imdct.c **** 
 502:lib/helix/real/imdct.c **** 	/* cos window odd samples, mul by 2, eat sign bit */
 503:lib/helix/real/imdct.c **** 	x1 = MULSHIFT32(c6[0], a1 + a0) << 2;			
 504:lib/helix/real/imdct.c **** 	x3 = MULSHIFT32(c6[1], a2) << 2;
 505:lib/helix/real/imdct.c **** 	x5 = MULSHIFT32(c6[2], a1 - a0) << 2;
 506:lib/helix/real/imdct.c **** 
 507:lib/helix/real/imdct.c **** 	*out = x0 + x1;	out++;
 508:lib/helix/real/imdct.c **** 	*out = x2 + x3;	out++;
 509:lib/helix/real/imdct.c **** 	*out = x4 + x5;	out++;
 510:lib/helix/real/imdct.c **** 	*out = x4 - x5;	out++;
 511:lib/helix/real/imdct.c **** 	*out = x2 - x3;	out++;
 512:lib/helix/real/imdct.c **** 	*out = x0 - x1;
 513:lib/helix/real/imdct.c **** }
 514:lib/helix/real/imdct.c **** 
ARM GAS  C:\Users\Patryk\AppData\Local\Temp\ccHDsNa9.s 			page 43


 515:lib/helix/real/imdct.c **** /**************************************************************************************
 516:lib/helix/real/imdct.c ****  * Function:    IMDCT12x3
 517:lib/helix/real/imdct.c ****  *
 518:lib/helix/real/imdct.c ****  * Description: three 12-point modified DCT's for short blocks, with windowing,
 519:lib/helix/real/imdct.c ****  *                short block concatenation, and overlap-add
 520:lib/helix/real/imdct.c ****  *
 521:lib/helix/real/imdct.c ****  * Inputs:      3 interleaved vectors of 6 samples each 
 522:lib/helix/real/imdct.c ****  *                (block0[0], block1[0], block2[0], block0[1], block1[1]....)
 523:lib/helix/real/imdct.c ****  *              overlap part of last IMDCT (9 samples - see output comments)
 524:lib/helix/real/imdct.c ****  *              window type (0,1,2,3) of previous block
 525:lib/helix/real/imdct.c ****  *              current block index (for deciding whether to do frequency inversion)
 526:lib/helix/real/imdct.c ****  *              number of guard bits in input vector
 527:lib/helix/real/imdct.c ****  *
 528:lib/helix/real/imdct.c ****  * Outputs:     updated sample vector x, net gain of 1 integer bit
 529:lib/helix/real/imdct.c ****  *              second half of (unwindowed) IMDCT's - save for next time
 530:lib/helix/real/imdct.c ****  *                only save 9 xPrev samples, using symmetry (see WinPrevious())
 531:lib/helix/real/imdct.c ****  *
 532:lib/helix/real/imdct.c ****  * Return:      mOut (OR of abs(y) for all y calculated here)
 533:lib/helix/real/imdct.c ****  *
 534:lib/helix/real/imdct.c ****  * TODO:        optimize for ARM
 535:lib/helix/real/imdct.c ****  **************************************************************************************/
 536:lib/helix/real/imdct.c **** static int IMDCT12x3(int *xCurr, int *xPrev, int *y, int btPrev, int blockIdx, int gb)
 537:lib/helix/real/imdct.c **** {
 1475              		.loc 1 537 0 is_stmt 1
 1476              		.cfi_startproc
 1477              		@ args = 8, pretend = 0, frame = 160
 1478              		@ frame_needed = 0, uses_anonymous_args = 0
 1479              	.LVL230:
 1480 0000 2DE9F04F 		push	{r4, r5, r6, r7, r8, r9, r10, fp, lr}
 1481              	.LCFI6:
 1482              		.cfi_def_cfa_offset 36
 1483              		.cfi_offset 4, -36
 1484              		.cfi_offset 5, -32
 1485              		.cfi_offset 6, -28
 1486              		.cfi_offset 7, -24
 1487              		.cfi_offset 8, -20
 1488              		.cfi_offset 9, -16
 1489              		.cfi_offset 10, -12
 1490              		.cfi_offset 11, -8
 1491              		.cfi_offset 14, -4
 1492 0004 A9B0     		sub	sp, sp, #164
 1493              	.LCFI7:
 1494              		.cfi_def_cfa_offset 200
 1495 0006 0C46     		mov	r4, r1
 1496 0008 0192     		str	r2, [sp, #4]
 1497 000a 0393     		str	r3, [sp, #12]
 1498 000c 339B     		ldr	r3, [sp, #204]
 1499              	.LVL231:
 538:lib/helix/real/imdct.c **** 	int i, es, mOut, yLo, xBuf[18], xPrevWin[18];	/* need temp buffer for reordering short blocks */
 539:lib/helix/real/imdct.c **** 	const int *wp;
 540:lib/helix/real/imdct.c **** 
 541:lib/helix/real/imdct.c **** 	es = 0;
 542:lib/helix/real/imdct.c **** 	/* 7 gb is always adequate for accumulator loop + idct12 + window + overlap */
 543:lib/helix/real/imdct.c **** 	if (gb < 7) {
 1500              		.loc 1 543 0
 1501 000e 062B     		cmp	r3, #6
 1502 0010 00F30E81 		bgt	.L44
ARM GAS  C:\Users\Patryk\AppData\Local\Temp\ccHDsNa9.s 			page 44


 544:lib/helix/real/imdct.c **** 		es = 7 - gb;
 1503              		.loc 1 544 0
 1504 0014 C3F10701 		rsb	r1, r3, #7
 1505              	.LVL232:
 1506 0018 0291     		str	r1, [sp, #8]
 1507              	.LVL233:
 545:lib/helix/real/imdct.c **** 		for (i = 0; i < 18; i+=2) {
 1508              		.loc 1 545 0
 1509 001a 0023     		movs	r3, #0
 1510 001c 1546     		mov	r5, r2
 1511 001e 0FE0     		b	.L36
 1512              	.LVL234:
 1513              	.L37:
 546:lib/helix/real/imdct.c **** 			xCurr[i+0] >>= es;
 1514              		.loc 1 546 0 discriminator 3
 1515 0020 50F82320 		ldr	r2, [r0, r3, lsl #2]
 1516 0024 0A41     		asrs	r2, r2, r1
 1517 0026 40F82320 		str	r2, [r0, r3, lsl #2]
 547:lib/helix/real/imdct.c **** 			xCurr[i+1] >>= es;
 1518              		.loc 1 547 0 discriminator 3
 1519 002a 5E1C     		adds	r6, r3, #1
 1520 002c 50F82620 		ldr	r2, [r0, r6, lsl #2]
 1521 0030 0A41     		asrs	r2, r2, r1
 1522 0032 40F82620 		str	r2, [r0, r6, lsl #2]
 1523              	.LVL235:
 548:lib/helix/real/imdct.c **** 			*xPrev++ >>= es;
 1524              		.loc 1 548 0 discriminator 3
 1525 0036 2268     		ldr	r2, [r4]
 1526 0038 0A41     		asrs	r2, r2, r1
 1527 003a 2260     		str	r2, [r4]
 545:lib/helix/real/imdct.c **** 			xCurr[i+0] >>= es;
 1528              		.loc 1 545 0 discriminator 3
 1529 003c 0233     		adds	r3, r3, #2
 1530              	.LVL236:
 1531              		.loc 1 548 0 discriminator 3
 1532 003e 0434     		adds	r4, r4, #4
 1533              	.LVL237:
 1534              	.L36:
 545:lib/helix/real/imdct.c **** 			xCurr[i+0] >>= es;
 1535              		.loc 1 545 0 discriminator 1
 1536 0040 112B     		cmp	r3, #17
 1537 0042 EDDD     		ble	.L37
 1538 0044 0195     		str	r5, [sp, #4]
 549:lib/helix/real/imdct.c **** 		}
 550:lib/helix/real/imdct.c **** 		xPrev -= 9;
 1539              		.loc 1 550 0
 1540 0046 243C     		subs	r4, r4, #36
 1541              	.LVL238:
 1542              	.L35:
 1543              	.LBB378:
 1544              	.LBB379:
 476:lib/helix/real/imdct.c **** 	x2 = *x;	x+=3;	x3 = *x;	x+=3;
 1545              		.loc 1 476 0
 1546 0048 0268     		ldr	r2, [r0]
 1547              	.LVL239:
 1548 004a C368     		ldr	r3, [r0, #12]
 1549              	.LVL240:
ARM GAS  C:\Users\Patryk\AppData\Local\Temp\ccHDsNa9.s 			page 45


 477:lib/helix/real/imdct.c **** 	x4 = *x;	x+=3;	x5 = *x;	x+=3;
 1550              		.loc 1 477 0
 1551 004c 8769     		ldr	r7, [r0, #24]
 1552              	.LVL241:
 1553 004e 416A     		ldr	r1, [r0, #36]
 1554              	.LVL242:
 478:lib/helix/real/imdct.c **** 
 1555              		.loc 1 478 0
 1556 0050 066B     		ldr	r6, [r0, #48]
 1557              	.LVL243:
 1558 0052 D0F83CE0 		ldr	lr, [r0, #60]
 1559              	.LVL244:
 480:lib/helix/real/imdct.c **** 	x3 -= x4;
 1560              		.loc 1 480 0
 1561 0056 A6EB0E06 		sub	r6, r6, lr
 1562              	.LVL245:
 481:lib/helix/real/imdct.c **** 	x2 -= x3;
 1563              		.loc 1 481 0
 1564 005a 891B     		subs	r1, r1, r6
 1565              	.LVL246:
 482:lib/helix/real/imdct.c **** 	x3 -= x5;
 1566              		.loc 1 482 0
 1567 005c 7F1A     		subs	r7, r7, r1
 1568              	.LVL247:
 483:lib/helix/real/imdct.c **** 	x1 -= x2;
 1569              		.loc 1 483 0
 1570 005e A1EB0E09 		sub	r9, r1, lr
 1571              	.LVL248:
 484:lib/helix/real/imdct.c **** 	x0 -= x1;
 1572              		.loc 1 484 0
 1573 0062 DB1B     		subs	r3, r3, r7
 1574              	.LVL249:
 485:lib/helix/real/imdct.c **** 	x1 -= x3;
 1575              		.loc 1 485 0
 1576 0064 D21A     		subs	r2, r2, r3
 1577              	.LVL250:
 486:lib/helix/real/imdct.c **** 
 1578              		.loc 1 486 0
 1579 0066 A3EB0901 		sub	r1, r3, r9
 1580              	.LVL251:
 488:lib/helix/real/imdct.c **** 	x1 >>= 1;
 1581              		.loc 1 488 0
 1582 006a 5210     		asrs	r2, r2, #1
 1583              	.LVL252:
 489:lib/helix/real/imdct.c **** 
 1584              		.loc 1 489 0
 1585 006c 4910     		asrs	r1, r1, #1
 1586              	.LVL253:
 1587              	.LBB380:
 1588              	.LBB381:
 326:lib/helix/real/assembly.h **** 	return y;
 1589              		.loc 2 326 0
 1590 006e DA4B     		ldr	r3, .L46
 1591 0070 BC46     		mov	ip, r7
 1592              		.syntax unified
 1593              	@ 326 "lib/helix/real/assembly.h" 1
 1594 0072 83FB0C7C 		smull r7,ip,r3,ip
ARM GAS  C:\Users\Patryk\AppData\Local\Temp\ccHDsNa9.s 			page 46


 1595              	@ 0 "" 2
 1596              	.LVL254:
 1597              		.thumb
 1598              		.syntax unified
 1599              	.LBE381:
 1600              	.LBE380:
 491:lib/helix/real/imdct.c **** 	a1 = x0 + (x4 >> 1);
 1601              		.loc 1 491 0
 1602 0076 4FEA4C07 		lsl	r7, ip, #1
 1603              	.LVL255:
 492:lib/helix/real/imdct.c **** 	a2 = x0 - x4;
 1604              		.loc 1 492 0
 1605 007a 02EB660C 		add	ip, r2, r6, asr #1
 1606              	.LVL256:
 493:lib/helix/real/imdct.c **** 	x0 = a1 + a0;
 1607              		.loc 1 493 0
 1608 007e 961B     		subs	r6, r2, r6
 1609              	.LVL257:
 494:lib/helix/real/imdct.c **** 	x2 = a2;
 1610              		.loc 1 494 0
 1611 0080 07EB0C08 		add	r8, r7, ip
 1612              	.LVL258:
 496:lib/helix/real/imdct.c **** 
 1613              		.loc 1 496 0
 1614 0084 ACEB070C 		sub	ip, ip, r7
 1615              	.LVL259:
 1616              	.LBB382:
 1617              	.LBB383:
 326:lib/helix/real/assembly.h **** 	return y;
 1618              		.loc 2 326 0
 1619 0088 4A46     		mov	r2, r9
 1620              	.LVL260:
 1621              		.syntax unified
 1622              	@ 326 "lib/helix/real/assembly.h" 1
 1623 008a 83FB0272 		smull r7,r2,r3,r2
 1624              	@ 0 "" 2
 1625              	.LVL261:
 1626              		.thumb
 1627              		.syntax unified
 1628              	.LBE383:
 1629              	.LBE382:
 498:lib/helix/real/imdct.c **** 	a1 = x1 + (x5 >> 1);
 1630              		.loc 1 498 0
 1631 008e 5200     		lsls	r2, r2, #1
 1632              	.LVL262:
 499:lib/helix/real/imdct.c **** 	a2 = x1 - x5;
 1633              		.loc 1 499 0
 1634 0090 01EB6E09 		add	r9, r1, lr, asr #1
 1635              	.LVL263:
 500:lib/helix/real/imdct.c **** 
 1636              		.loc 1 500 0
 1637 0094 A1EB0E01 		sub	r1, r1, lr
 1638              	.LVL264:
 503:lib/helix/real/imdct.c **** 	x3 = MULSHIFT32(c6[1], a2) << 2;
 1639              		.loc 1 503 0
 1640 0098 02EB090E 		add	lr, r2, r9
 1641              	.LVL265:
ARM GAS  C:\Users\Patryk\AppData\Local\Temp\ccHDsNa9.s 			page 47


 1642              	.LBB384:
 1643              	.LBB385:
 326:lib/helix/real/assembly.h **** 	return y;
 1644              		.loc 2 326 0
 1645 009c 7746     		mov	r7, lr
 1646 009e CF4D     		ldr	r5, .L46+4
 1647              		.syntax unified
 1648              	@ 326 "lib/helix/real/assembly.h" 1
 1649 00a0 85FB07E7 		smull lr,r7,r5,r7
 1650              	@ 0 "" 2
 1651              	.LVL266:
 1652              		.thumb
 1653              		.syntax unified
 1654              	.LBE385:
 1655              	.LBE384:
 503:lib/helix/real/imdct.c **** 	x3 = MULSHIFT32(c6[1], a2) << 2;
 1656              		.loc 1 503 0
 1657 00a4 BF00     		lsls	r7, r7, #2
 1658              	.LVL267:
 1659              	.LBB386:
 1660              	.LBB387:
 326:lib/helix/real/assembly.h **** 	return y;
 1661              		.loc 2 326 0
 1662 00a6 DFF83CB3 		ldr	fp, .L46+12
 1663 00aa 8E46     		mov	lr, r1
 1664              		.syntax unified
 1665              	@ 326 "lib/helix/real/assembly.h" 1
 1666 00ac 8BFB0E1E 		smull r1,lr,fp,lr
 1667              	@ 0 "" 2
 1668              	.LVL268:
 1669              		.thumb
 1670              		.syntax unified
 1671              	.LBE387:
 1672              	.LBE386:
 504:lib/helix/real/imdct.c **** 	x5 = MULSHIFT32(c6[2], a1 - a0) << 2;
 1673              		.loc 1 504 0
 1674 00b0 4FEA8E01 		lsl	r1, lr, #2
 1675              	.LVL269:
 505:lib/helix/real/imdct.c **** 
 1676              		.loc 1 505 0
 1677 00b4 A9EB0202 		sub	r2, r9, r2
 1678              	.LVL270:
 1679              	.LBB388:
 1680              	.LBB389:
 326:lib/helix/real/assembly.h **** 	return y;
 1681              		.loc 2 326 0
 1682 00b8 DFF82CE3 		ldr	lr, .L46+16
 1683 00bc 9246     		mov	r10, r2
 1684              		.syntax unified
 1685              	@ 326 "lib/helix/real/assembly.h" 1
 1686 00be 8EFB0A2A 		smull r2,r10,lr,r10
 1687              	@ 0 "" 2
 1688              	.LVL271:
 1689              		.thumb
 1690              		.syntax unified
 1691              	.LBE389:
 1692              	.LBE388:
ARM GAS  C:\Users\Patryk\AppData\Local\Temp\ccHDsNa9.s 			page 48


 505:lib/helix/real/imdct.c **** 
 1693              		.loc 1 505 0
 1694 00c2 4FEA8A0A 		lsl	r10, r10, #2
 1695              	.LVL272:
 507:lib/helix/real/imdct.c **** 	*out = x2 + x3;	out++;
 1696              		.loc 1 507 0
 1697 00c6 08EB0702 		add	r2, r8, r7
 1698 00ca 1692     		str	r2, [sp, #88]
 1699              	.LVL273:
 508:lib/helix/real/imdct.c **** 	*out = x4 + x5;	out++;
 1700              		.loc 1 508 0
 1701 00cc 7218     		adds	r2, r6, r1
 1702 00ce 1792     		str	r2, [sp, #92]
 1703              	.LVL274:
 509:lib/helix/real/imdct.c **** 	*out = x4 - x5;	out++;
 1704              		.loc 1 509 0
 1705 00d0 0CEB0A02 		add	r2, ip, r10
 1706 00d4 1892     		str	r2, [sp, #96]
 1707              	.LVL275:
 510:lib/helix/real/imdct.c **** 	*out = x2 - x3;	out++;
 1708              		.loc 1 510 0
 1709 00d6 ACEB0A02 		sub	r2, ip, r10
 1710 00da 1992     		str	r2, [sp, #100]
 1711              	.LVL276:
 511:lib/helix/real/imdct.c **** 	*out = x0 - x1;
 1712              		.loc 1 511 0
 1713 00dc 761A     		subs	r6, r6, r1
 1714              	.LVL277:
 1715 00de 1A96     		str	r6, [sp, #104]
 1716              	.LVL278:
 512:lib/helix/real/imdct.c **** }
 1717              		.loc 1 512 0
 1718 00e0 A8EB0707 		sub	r7, r8, r7
 1719              	.LVL279:
 1720 00e4 1B97     		str	r7, [sp, #108]
 1721              	.LVL280:
 1722              	.LBE379:
 1723              	.LBE378:
 1724              	.LBB390:
 1725              	.LBB391:
 476:lib/helix/real/imdct.c **** 	x2 = *x;	x+=3;	x3 = *x;	x+=3;
 1726              		.loc 1 476 0
 1727 00e6 0169     		ldr	r1, [r0, #16]
 1728              	.LVL281:
 477:lib/helix/real/imdct.c **** 	x4 = *x;	x+=3;	x5 = *x;	x+=3;
 1729              		.loc 1 477 0
 1730 00e8 C769     		ldr	r7, [r0, #28]
 1731              	.LVL282:
 1732 00ea 866A     		ldr	r6, [r0, #40]
 1733              	.LVL283:
 478:lib/helix/real/imdct.c **** 
 1734              		.loc 1 478 0
 1735 00ec D0F83490 		ldr	r9, [r0, #52]
 1736              	.LVL284:
 1737 00f0 026C     		ldr	r2, [r0, #64]
 1738              	.LVL285:
 480:lib/helix/real/imdct.c **** 	x3 -= x4;
ARM GAS  C:\Users\Patryk\AppData\Local\Temp\ccHDsNa9.s 			page 49


 1739              		.loc 1 480 0
 1740 00f2 A9EB0209 		sub	r9, r9, r2
 1741              	.LVL286:
 481:lib/helix/real/imdct.c **** 	x2 -= x3;
 1742              		.loc 1 481 0
 1743 00f6 A6EB0908 		sub	r8, r6, r9
 1744              	.LVL287:
 482:lib/helix/real/imdct.c **** 	x3 -= x5;
 1745              		.loc 1 482 0
 1746 00fa A7EB0807 		sub	r7, r7, r8
 1747              	.LVL288:
 483:lib/helix/real/imdct.c **** 	x1 -= x2;
 1748              		.loc 1 483 0
 1749 00fe A8EB0208 		sub	r8, r8, r2
 1750              	.LVL289:
 484:lib/helix/real/imdct.c **** 	x0 -= x1;
 1751              		.loc 1 484 0
 1752 0102 A1EB070A 		sub	r10, r1, r7
 1753              	.LVL290:
 485:lib/helix/real/imdct.c **** 	x1 -= x3;
 1754              		.loc 1 485 0
 1755 0106 4168     		ldr	r1, [r0, #4]
 1756 0108 A1EB0A01 		sub	r1, r1, r10
 1757              	.LVL291:
 486:lib/helix/real/imdct.c **** 
 1758              		.loc 1 486 0
 1759 010c AAEB080A 		sub	r10, r10, r8
 1760              	.LVL292:
 488:lib/helix/real/imdct.c **** 	x1 >>= 1;
 1761              		.loc 1 488 0
 1762 0110 4910     		asrs	r1, r1, #1
 1763              	.LVL293:
 489:lib/helix/real/imdct.c **** 
 1764              		.loc 1 489 0
 1765 0112 4FEA6A0A 		asr	r10, r10, #1
 1766              	.LVL294:
 1767              	.LBB392:
 1768              	.LBB393:
 326:lib/helix/real/assembly.h **** 	return y;
 1769              		.loc 2 326 0
 1770 0116 BC46     		mov	ip, r7
 1771              		.syntax unified
 1772              	@ 326 "lib/helix/real/assembly.h" 1
 1773 0118 83FB0C6C 		smull r6,ip,r3,ip
 1774              	@ 0 "" 2
 1775              	.LVL295:
 1776              		.thumb
 1777              		.syntax unified
 1778              	.LBE393:
 1779              	.LBE392:
 491:lib/helix/real/imdct.c **** 	a1 = x0 + (x4 >> 1);
 1780              		.loc 1 491 0
 1781 011c 4FEA4C07 		lsl	r7, ip, #1
 1782              	.LVL296:
 492:lib/helix/real/imdct.c **** 	a2 = x0 - x4;
 1783              		.loc 1 492 0
 1784 0120 01EB690C 		add	ip, r1, r9, asr #1
ARM GAS  C:\Users\Patryk\AppData\Local\Temp\ccHDsNa9.s 			page 50


 1785              	.LVL297:
 493:lib/helix/real/imdct.c **** 	x0 = a1 + a0;
 1786              		.loc 1 493 0
 1787 0124 A1EB0901 		sub	r1, r1, r9
 1788              	.LVL298:
 494:lib/helix/real/imdct.c **** 	x2 = a2;
 1789              		.loc 1 494 0
 1790 0128 07EB0C09 		add	r9, r7, ip
 1791              	.LVL299:
 496:lib/helix/real/imdct.c **** 
 1792              		.loc 1 496 0
 1793 012c ACEB070C 		sub	ip, ip, r7
 1794              	.LVL300:
 1795              	.LBB394:
 1796              	.LBB395:
 326:lib/helix/real/assembly.h **** 	return y;
 1797              		.loc 2 326 0
 1798 0130 4746     		mov	r7, r8
 1799              	.LVL301:
 1800              		.syntax unified
 1801              	@ 326 "lib/helix/real/assembly.h" 1
 1802 0132 83FB0767 		smull r6,r7,r3,r7
 1803              	@ 0 "" 2
 1804              	.LVL302:
 1805              		.thumb
 1806              		.syntax unified
 1807              	.LBE395:
 1808              	.LBE394:
 498:lib/helix/real/imdct.c **** 	a1 = x1 + (x5 >> 1);
 1809              		.loc 1 498 0
 1810 0136 7F00     		lsls	r7, r7, #1
 1811              	.LVL303:
 499:lib/helix/real/imdct.c **** 	a2 = x1 - x5;
 1812              		.loc 1 499 0
 1813 0138 0AEB6208 		add	r8, r10, r2, asr #1
 1814              	.LVL304:
 500:lib/helix/real/imdct.c **** 
 1815              		.loc 1 500 0
 1816 013c AAEB0202 		sub	r2, r10, r2
 1817              	.LVL305:
 503:lib/helix/real/imdct.c **** 	x3 = MULSHIFT32(c6[1], a2) << 2;
 1818              		.loc 1 503 0
 1819 0140 07EB080A 		add	r10, r7, r8
 1820              	.LVL306:
 1821              	.LBB396:
 1822              	.LBB397:
 326:lib/helix/real/assembly.h **** 	return y;
 1823              		.loc 2 326 0
 1824 0144 5646     		mov	r6, r10
 1825              		.syntax unified
 1826              	@ 326 "lib/helix/real/assembly.h" 1
 1827 0146 85FB06A6 		smull r10,r6,r5,r6
 1828              	@ 0 "" 2
 1829              	.LVL307:
 1830              		.thumb
 1831              		.syntax unified
 1832              	.LBE397:
ARM GAS  C:\Users\Patryk\AppData\Local\Temp\ccHDsNa9.s 			page 51


 1833              	.LBE396:
 503:lib/helix/real/imdct.c **** 	x3 = MULSHIFT32(c6[1], a2) << 2;
 1834              		.loc 1 503 0
 1835 014a B600     		lsls	r6, r6, #2
 1836              	.LVL308:
 1837              	.LBB398:
 1838              	.LBB399:
 326:lib/helix/real/assembly.h **** 	return y;
 1839              		.loc 2 326 0
 1840 014c 9246     		mov	r10, r2
 1841              		.syntax unified
 1842              	@ 326 "lib/helix/real/assembly.h" 1
 1843 014e 8BFB0A2A 		smull r2,r10,fp,r10
 1844              	@ 0 "" 2
 1845              	.LVL309:
 1846              		.thumb
 1847              		.syntax unified
 1848              	.LBE399:
 1849              	.LBE398:
 504:lib/helix/real/imdct.c **** 	x5 = MULSHIFT32(c6[2], a1 - a0) << 2;
 1850              		.loc 1 504 0
 1851 0152 4FEA8A0A 		lsl	r10, r10, #2
 1852              	.LVL310:
 505:lib/helix/real/imdct.c **** 
 1853              		.loc 1 505 0
 1854 0156 A8EB0707 		sub	r7, r8, r7
 1855              	.LVL311:
 1856              	.LBB400:
 1857              	.LBB401:
 326:lib/helix/real/assembly.h **** 	return y;
 1858              		.loc 2 326 0
 1859 015a 3A46     		mov	r2, r7
 1860              		.syntax unified
 1861              	@ 326 "lib/helix/real/assembly.h" 1
 1862 015c 8EFB0272 		smull r7,r2,lr,r2
 1863              	@ 0 "" 2
 1864              	.LVL312:
 1865              		.thumb
 1866              		.syntax unified
 1867              	.LBE401:
 1868              	.LBE400:
 505:lib/helix/real/imdct.c **** 
 1869              		.loc 1 505 0
 1870 0160 9200     		lsls	r2, r2, #2
 1871              	.LVL313:
 507:lib/helix/real/imdct.c **** 	*out = x2 + x3;	out++;
 1872              		.loc 1 507 0
 1873 0162 09EB0607 		add	r7, r9, r6
 1874 0166 1C97     		str	r7, [sp, #112]
 1875              	.LVL314:
 508:lib/helix/real/imdct.c **** 	*out = x4 + x5;	out++;
 1876              		.loc 1 508 0
 1877 0168 01EB0A07 		add	r7, r1, r10
 1878 016c 1D97     		str	r7, [sp, #116]
 1879              	.LVL315:
 509:lib/helix/real/imdct.c **** 	*out = x4 - x5;	out++;
 1880              		.loc 1 509 0
ARM GAS  C:\Users\Patryk\AppData\Local\Temp\ccHDsNa9.s 			page 52


 1881 016e 0CEB0207 		add	r7, ip, r2
 1882 0172 1E97     		str	r7, [sp, #120]
 1883              	.LVL316:
 510:lib/helix/real/imdct.c **** 	*out = x2 - x3;	out++;
 1884              		.loc 1 510 0
 1885 0174 ACEB0202 		sub	r2, ip, r2
 1886              	.LVL317:
 1887 0178 1F92     		str	r2, [sp, #124]
 1888              	.LVL318:
 511:lib/helix/real/imdct.c **** 	*out = x0 - x1;
 1889              		.loc 1 511 0
 1890 017a A1EB0A01 		sub	r1, r1, r10
 1891              	.LVL319:
 1892 017e 2091     		str	r1, [sp, #128]
 1893              	.LVL320:
 512:lib/helix/real/imdct.c **** }
 1894              		.loc 1 512 0
 1895 0180 A9EB0606 		sub	r6, r9, r6
 1896              	.LVL321:
 1897 0184 2196     		str	r6, [sp, #132]
 1898              	.LVL322:
 1899              	.LBE391:
 1900              	.LBE390:
 551:lib/helix/real/imdct.c **** 	}
 552:lib/helix/real/imdct.c **** 
 553:lib/helix/real/imdct.c **** 	/* requires 4 input guard bits for each imdct12 */
 554:lib/helix/real/imdct.c **** 	imdct12(xCurr + 0, xBuf + 0);
 555:lib/helix/real/imdct.c **** 	imdct12(xCurr + 1, xBuf + 6);
 556:lib/helix/real/imdct.c **** 	imdct12(xCurr + 2, xBuf + 12);
 1901              		.loc 1 556 0
 1902 0186 00F1080C 		add	ip, r0, #8
 1903              	.LVL323:
 1904              	.LBB402:
 1905              	.LBB403:
 476:lib/helix/real/imdct.c **** 	x2 = *x;	x+=3;	x3 = *x;	x+=3;
 1906              		.loc 1 476 0
 1907 018a 8268     		ldr	r2, [r0, #8]
 1908              	.LVL324:
 1909 018c 4169     		ldr	r1, [r0, #20]
 1910              	.LVL325:
 477:lib/helix/real/imdct.c **** 	x4 = *x;	x+=3;	x5 = *x;	x+=3;
 1911              		.loc 1 477 0
 1912 018e 006A     		ldr	r0, [r0, #32]
 1913              	.LVL326:
 1914 0190 DCF82460 		ldr	r6, [ip, #36]
 1915              	.LVL327:
 478:lib/helix/real/imdct.c **** 
 1916              		.loc 1 478 0
 1917 0194 DCF83070 		ldr	r7, [ip, #48]
 1918              	.LVL328:
 1919 0198 DCF83CC0 		ldr	ip, [ip, #60]
 1920              	.LVL329:
 480:lib/helix/real/imdct.c **** 	x3 -= x4;
 1921              		.loc 1 480 0
 1922 019c A7EB0C07 		sub	r7, r7, ip
 1923              	.LVL330:
 481:lib/helix/real/imdct.c **** 	x2 -= x3;
ARM GAS  C:\Users\Patryk\AppData\Local\Temp\ccHDsNa9.s 			page 53


 1924              		.loc 1 481 0
 1925 01a0 F61B     		subs	r6, r6, r7
 1926              	.LVL331:
 482:lib/helix/real/imdct.c **** 	x3 -= x5;
 1927              		.loc 1 482 0
 1928 01a2 A0EB0608 		sub	r8, r0, r6
 1929              	.LVL332:
 483:lib/helix/real/imdct.c **** 	x1 -= x2;
 1930              		.loc 1 483 0
 1931 01a6 A6EB0C06 		sub	r6, r6, ip
 1932              	.LVL333:
 484:lib/helix/real/imdct.c **** 	x0 -= x1;
 1933              		.loc 1 484 0
 1934 01aa A1EB0801 		sub	r1, r1, r8
 1935              	.LVL334:
 485:lib/helix/real/imdct.c **** 	x1 -= x3;
 1936              		.loc 1 485 0
 1937 01ae 501A     		subs	r0, r2, r1
 1938              	.LVL335:
 486:lib/helix/real/imdct.c **** 
 1939              		.loc 1 486 0
 1940 01b0 891B     		subs	r1, r1, r6
 1941              	.LVL336:
 488:lib/helix/real/imdct.c **** 	x1 >>= 1;
 1942              		.loc 1 488 0
 1943 01b2 4010     		asrs	r0, r0, #1
 1944              	.LVL337:
 489:lib/helix/real/imdct.c **** 
 1945              		.loc 1 489 0
 1946 01b4 4910     		asrs	r1, r1, #1
 1947              	.LVL338:
 1948              	.LBB404:
 1949              	.LBB405:
 326:lib/helix/real/assembly.h **** 	return y;
 1950              		.loc 2 326 0
 1951 01b6 4246     		mov	r2, r8
 1952              		.syntax unified
 1953              	@ 326 "lib/helix/real/assembly.h" 1
 1954 01b8 83FB0282 		smull r8,r2,r3,r2
 1955              	@ 0 "" 2
 1956              	.LVL339:
 1957              		.thumb
 1958              		.syntax unified
 1959              	.LBE405:
 1960              	.LBE404:
 491:lib/helix/real/imdct.c **** 	a1 = x0 + (x4 >> 1);
 1961              		.loc 1 491 0
 1962 01bc 5200     		lsls	r2, r2, #1
 1963              	.LVL340:
 492:lib/helix/real/imdct.c **** 	a2 = x0 - x4;
 1964              		.loc 1 492 0
 1965 01be 00EB6708 		add	r8, r0, r7, asr #1
 1966              	.LVL341:
 493:lib/helix/real/imdct.c **** 	x0 = a1 + a0;
 1967              		.loc 1 493 0
 1968 01c2 C01B     		subs	r0, r0, r7
 1969              	.LVL342:
ARM GAS  C:\Users\Patryk\AppData\Local\Temp\ccHDsNa9.s 			page 54


 494:lib/helix/real/imdct.c **** 	x2 = a2;
 1970              		.loc 1 494 0
 1971 01c4 02EB0807 		add	r7, r2, r8
 1972              	.LVL343:
 496:lib/helix/real/imdct.c **** 
 1973              		.loc 1 496 0
 1974 01c8 A8EB0202 		sub	r2, r8, r2
 1975              	.LVL344:
 1976              	.LBB406:
 1977              	.LBB407:
 326:lib/helix/real/assembly.h **** 	return y;
 1978              		.loc 2 326 0
 1979 01cc B046     		mov	r8, r6
 1980              	.LVL345:
 1981              		.syntax unified
 1982              	@ 326 "lib/helix/real/assembly.h" 1
 1983 01ce 83FB0868 		smull r6,r8,r3,r8
 1984              	@ 0 "" 2
 1985              	.LVL346:
 1986              		.thumb
 1987              		.syntax unified
 1988              	.LBE407:
 1989              	.LBE406:
 498:lib/helix/real/imdct.c **** 	a1 = x1 + (x5 >> 1);
 1990              		.loc 1 498 0
 1991 01d2 4FEA4808 		lsl	r8, r8, #1
 1992              	.LVL347:
 499:lib/helix/real/imdct.c **** 	a2 = x1 - x5;
 1993              		.loc 1 499 0
 1994 01d6 01EB6C06 		add	r6, r1, ip, asr #1
 1995              	.LVL348:
 500:lib/helix/real/imdct.c **** 
 1996              		.loc 1 500 0
 1997 01da A1EB0C01 		sub	r1, r1, ip
 1998              	.LVL349:
 503:lib/helix/real/imdct.c **** 	x3 = MULSHIFT32(c6[1], a2) << 2;
 1999              		.loc 1 503 0
 2000 01de 08EB060C 		add	ip, r8, r6
 2001              	.LVL350:
 2002              	.LBB408:
 2003              	.LBB409:
 326:lib/helix/real/assembly.h **** 	return y;
 2004              		.loc 2 326 0
 2005 01e2 6346     		mov	r3, ip
 2006              		.syntax unified
 2007              	@ 326 "lib/helix/real/assembly.h" 1
 2008 01e4 85FB03C3 		smull ip,r3,r5,r3
 2009              	@ 0 "" 2
 2010              	.LVL351:
 2011              		.thumb
 2012              		.syntax unified
 2013              	.LBE409:
 2014              	.LBE408:
 503:lib/helix/real/imdct.c **** 	x3 = MULSHIFT32(c6[1], a2) << 2;
 2015              		.loc 1 503 0
 2016 01e8 9B00     		lsls	r3, r3, #2
 2017              	.LVL352:
ARM GAS  C:\Users\Patryk\AppData\Local\Temp\ccHDsNa9.s 			page 55


 2018              	.LBB410:
 2019              	.LBB411:
 326:lib/helix/real/assembly.h **** 	return y;
 2020              		.loc 2 326 0
 2021 01ea 8C46     		mov	ip, r1
 2022              		.syntax unified
 2023              	@ 326 "lib/helix/real/assembly.h" 1
 2024 01ec 8BFB0C1C 		smull r1,ip,fp,ip
 2025              	@ 0 "" 2
 2026              	.LVL353:
 2027              		.thumb
 2028              		.syntax unified
 2029              	.LBE411:
 2030              	.LBE410:
 504:lib/helix/real/imdct.c **** 	x5 = MULSHIFT32(c6[2], a1 - a0) << 2;
 2031              		.loc 1 504 0
 2032 01f0 4FEA8C0C 		lsl	ip, ip, #2
 2033              	.LVL354:
 505:lib/helix/real/imdct.c **** 
 2034              		.loc 1 505 0
 2035 01f4 A6EB0808 		sub	r8, r6, r8
 2036              	.LVL355:
 2037              	.LBB412:
 2038              	.LBB413:
 326:lib/helix/real/assembly.h **** 	return y;
 2039              		.loc 2 326 0
 2040 01f8 4146     		mov	r1, r8
 2041              		.syntax unified
 2042              	@ 326 "lib/helix/real/assembly.h" 1
 2043 01fa 8EFB0161 		smull r6,r1,lr,r1
 2044              	@ 0 "" 2
 2045              	.LVL356:
 2046              		.thumb
 2047              		.syntax unified
 2048              	.LBE413:
 2049              	.LBE412:
 505:lib/helix/real/imdct.c **** 
 2050              		.loc 1 505 0
 2051 01fe 8900     		lsls	r1, r1, #2
 2052              	.LVL357:
 507:lib/helix/real/imdct.c **** 	*out = x2 + x3;	out++;
 2053              		.loc 1 507 0
 2054 0200 FE18     		adds	r6, r7, r3
 2055 0202 2296     		str	r6, [sp, #136]
 2056              	.LVL358:
 508:lib/helix/real/imdct.c **** 	*out = x4 + x5;	out++;
 2057              		.loc 1 508 0
 2058 0204 00EB0C06 		add	r6, r0, ip
 2059 0208 2396     		str	r6, [sp, #140]
 2060              	.LVL359:
 509:lib/helix/real/imdct.c **** 	*out = x4 - x5;	out++;
 2061              		.loc 1 509 0
 2062 020a 5618     		adds	r6, r2, r1
 2063 020c 2496     		str	r6, [sp, #144]
 2064              	.LVL360:
 510:lib/helix/real/imdct.c **** 	*out = x2 - x3;	out++;
 2065              		.loc 1 510 0
ARM GAS  C:\Users\Patryk\AppData\Local\Temp\ccHDsNa9.s 			page 56


 2066 020e 521A     		subs	r2, r2, r1
 2067              	.LVL361:
 2068 0210 2592     		str	r2, [sp, #148]
 2069              	.LVL362:
 511:lib/helix/real/imdct.c **** 	*out = x0 - x1;
 2070              		.loc 1 511 0
 2071 0212 A0EB0C00 		sub	r0, r0, ip
 2072              	.LVL363:
 2073 0216 2690     		str	r0, [sp, #152]
 2074              	.LVL364:
 512:lib/helix/real/imdct.c **** }
 2075              		.loc 1 512 0
 2076 0218 FB1A     		subs	r3, r7, r3
 2077              	.LVL365:
 2078 021a 2793     		str	r3, [sp, #156]
 2079              	.LVL366:
 2080              	.LBE403:
 2081              	.LBE402:
 557:lib/helix/real/imdct.c **** 
 558:lib/helix/real/imdct.c **** 	/* window previous from last time */
 559:lib/helix/real/imdct.c **** 	WinPrevious(xPrev, xPrevWin, btPrev);
 2082              		.loc 1 559 0
 2083 021c 039A     		ldr	r2, [sp, #12]
 2084 021e 04A9     		add	r1, sp, #16
 2085 0220 2046     		mov	r0, r4
 2086 0222 FFF7FEFF 		bl	WinPrevious
 2087              	.LVL367:
 560:lib/helix/real/imdct.c **** 
 561:lib/helix/real/imdct.c **** 	/* could unroll this for speed, minimum loads (short blocks usually rare, so doesn't make much ove
 562:lib/helix/real/imdct.c **** 	 * xPrevWin[i] << 2 still has 1 gb always, max gain of windowed xBuf stuff also < 1.0 and gain the
 563:lib/helix/real/imdct.c **** 	 * so y calculations won't overflow
 564:lib/helix/real/imdct.c **** 	 */
 565:lib/helix/real/imdct.c **** 	wp = imdctWin[2];
 566:lib/helix/real/imdct.c **** 	mOut = 0;
 2088              		.loc 1 566 0
 2089 0226 0026     		movs	r6, #0
 567:lib/helix/real/imdct.c **** 	for (i = 0; i < 3; i++) {
 2090              		.loc 1 567 0
 2091 0228 3146     		mov	r1, r6
 2092 022a 0394     		str	r4, [sp, #12]
 2093              	.LVL368:
 2094 022c 019D     		ldr	r5, [sp, #4]
 2095 022e A6E0     		b	.L38
 2096              	.LVL369:
 2097              	.L44:
 541:lib/helix/real/imdct.c **** 	/* 7 gb is always adequate for accumulator loop + idct12 + window + overlap */
 2098              		.loc 1 541 0
 2099 0230 0023     		movs	r3, #0
 2100 0232 0293     		str	r3, [sp, #8]
 2101 0234 08E7     		b	.L35
 2102              	.LVL370:
 2103              	.L39:
 568:lib/helix/real/imdct.c **** 		yLo = (xPrevWin[ 0+i] << 2);
 2104              		.loc 1 568 0 discriminator 3
 2105 0236 28AB     		add	r3, sp, #160
 2106 0238 03EB810E 		add	lr, r3, r1, lsl #2
 2107 023c 5EF8902C 		ldr	r2, [lr, #-144]
ARM GAS  C:\Users\Patryk\AppData\Local\Temp\ccHDsNa9.s 			page 57


 2108 0240 9200     		lsls	r2, r2, #2
 2109              	.LVL371:
 2110              	.LBB414:
 2111              	.LBB415:
 334:lib/helix/real/assembly.h **** 	x ^= sign;
 2112              		.loc 2 334 0 discriminator 3
 2113 0242 D017     		asrs	r0, r2, #31
 2114              	.LVL372:
 335:lib/helix/real/assembly.h **** 	x -= sign;
 2115              		.loc 2 335 0 discriminator 3
 2116 0244 82EA0003 		eor	r3, r2, r0
 2117              	.LVL373:
 2118              		.loc 2 336 0 discriminator 3
 2119 0248 1B1A     		subs	r3, r3, r0
 2120              	.LVL374:
 2121              	.LBE415:
 2122              	.LBE414:
 569:lib/helix/real/imdct.c **** 		mOut |= FASTABS(yLo);	y[( 0+i)*NBANDS] = yLo;
 2123              		.loc 1 569 0 discriminator 3
 2124 024a 1E43     		orrs	r6, r6, r3
 2125              	.LVL375:
 2126 024c CB01     		lsls	r3, r1, #7
 2127 024e EA50     		str	r2, [r5, r3]
 570:lib/helix/real/imdct.c **** 		yLo = (xPrevWin[ 3+i] << 2);
 2128              		.loc 1 570 0 discriminator 3
 2129 0250 CF1C     		adds	r7, r1, #3
 2130 0252 28AB     		add	r3, sp, #160
 2131 0254 03EB870C 		add	ip, r3, r7, lsl #2
 2132 0258 5CF8902C 		ldr	r2, [ip, #-144]
 2133              	.LVL376:
 2134 025c 9200     		lsls	r2, r2, #2
 2135              	.LVL377:
 2136              	.LBB416:
 2137              	.LBB417:
 334:lib/helix/real/assembly.h **** 	x ^= sign;
 2138              		.loc 2 334 0 discriminator 3
 2139 025e D017     		asrs	r0, r2, #31
 2140              	.LVL378:
 335:lib/helix/real/assembly.h **** 	x -= sign;
 2141              		.loc 2 335 0 discriminator 3
 2142 0260 82EA0003 		eor	r3, r2, r0
 2143              	.LVL379:
 2144              		.loc 2 336 0 discriminator 3
 2145 0264 1B1A     		subs	r3, r3, r0
 2146              	.LVL380:
 2147              	.LBE417:
 2148              	.LBE416:
 571:lib/helix/real/imdct.c **** 		mOut |= FASTABS(yLo);	y[( 3+i)*NBANDS] = yLo;
 2149              		.loc 1 571 0 discriminator 3
 2150 0266 1E43     		orrs	r6, r6, r3
 2151              	.LVL381:
 2152 0268 FB01     		lsls	r3, r7, #7
 2153 026a EA50     		str	r2, [r5, r3]
 572:lib/helix/real/imdct.c **** 		yLo = (xPrevWin[ 6+i] << 2) + (MULSHIFT32(wp[0+i], xBuf[3+i]));	
 2154              		.loc 1 572 0 discriminator 3
 2155 026c 01F1060B 		add	fp, r1, #6
 2156 0270 28AB     		add	r3, sp, #160
ARM GAS  C:\Users\Patryk\AppData\Local\Temp\ccHDsNa9.s 			page 58


 2157 0272 03EB8B03 		add	r3, r3, fp, lsl #2
 2158 0276 53F8902C 		ldr	r2, [r3, #-144]
 2159              	.LVL382:
 2160 027a 9200     		lsls	r2, r2, #2
 2161 027c 5848     		ldr	r0, .L46+8
 2162              	.LVL383:
 2163 027e 5CF848CC 		ldr	ip, [ip, #-72]
 2164              	.LVL384:
 2165              	.LBB418:
 2166              	.LBB419:
 326:lib/helix/real/assembly.h **** 	return y;
 2167              		.loc 2 326 0 discriminator 3
 2168 0282 6346     		mov	r3, ip
 2169 0284 50F82140 		ldr	r4, [r0, r1, lsl #2]
 2170              		.syntax unified
 2171              	@ 326 "lib/helix/real/assembly.h" 1
 2172 0288 84FB03C3 		smull ip,r3,r4,r3
 2173              	@ 0 "" 2
 2174              	.LVL385:
 2175              		.thumb
 2176              		.syntax unified
 2177              	.LBE419:
 2178              	.LBE418:
 2179              		.loc 1 572 0 discriminator 3
 2180 028c 1A44     		add	r2, r2, r3
 2181              	.LVL386:
 2182              	.LBB420:
 2183              	.LBB421:
 334:lib/helix/real/assembly.h **** 	x ^= sign;
 2184              		.loc 2 334 0 discriminator 3
 2185 028e 4FEAE27C 		asr	ip, r2, #31
 2186              	.LVL387:
 335:lib/helix/real/assembly.h **** 	x -= sign;
 2187              		.loc 2 335 0 discriminator 3
 2188 0292 82EA0C03 		eor	r3, r2, ip
 2189              	.LVL388:
 2190              		.loc 2 336 0 discriminator 3
 2191 0296 A3EB0C03 		sub	r3, r3, ip
 2192              	.LVL389:
 2193              	.LBE421:
 2194              	.LBE420:
 573:lib/helix/real/imdct.c **** 		mOut |= FASTABS(yLo);	y[( 6+i)*NBANDS] = yLo;
 2195              		.loc 1 573 0 discriminator 3
 2196 029a 1E43     		orrs	r6, r6, r3
 2197              	.LVL390:
 2198 029c 4FEACB13 		lsl	r3, fp, #7
 2199 02a0 EA50     		str	r2, [r5, r3]
 574:lib/helix/real/imdct.c **** 		yLo = (xPrevWin[ 9+i] << 2) + (MULSHIFT32(wp[3+i], xBuf[5-i]));	
 2200              		.loc 1 574 0 discriminator 3
 2201 02a2 01F10908 		add	r8, r1, #9
 2202 02a6 28AB     		add	r3, sp, #160
 2203 02a8 03EB880A 		add	r10, r3, r8, lsl #2
 2204 02ac 5AF8902C 		ldr	r2, [r10, #-144]
 2205              	.LVL391:
 2206 02b0 9200     		lsls	r2, r2, #2
 2207 02b2 C1F1050C 		rsb	ip, r1, #5
 2208 02b6 03EB8C0C 		add	ip, r3, ip, lsl #2
ARM GAS  C:\Users\Patryk\AppData\Local\Temp\ccHDsNa9.s 			page 59


 2209 02ba 5CF848CC 		ldr	ip, [ip, #-72]
 2210              	.LVL392:
 2211              	.LBB422:
 2212              	.LBB423:
 326:lib/helix/real/assembly.h **** 	return y;
 2213              		.loc 2 326 0 discriminator 3
 2214 02be 6346     		mov	r3, ip
 2215 02c0 50F82740 		ldr	r4, [r0, r7, lsl #2]
 2216              		.syntax unified
 2217              	@ 326 "lib/helix/real/assembly.h" 1
 2218 02c4 84FB03C3 		smull ip,r3,r4,r3
 2219              	@ 0 "" 2
 2220              	.LVL393:
 2221              		.thumb
 2222              		.syntax unified
 2223              	.LBE423:
 2224              	.LBE422:
 2225              		.loc 1 574 0 discriminator 3
 2226 02c8 1A44     		add	r2, r2, r3
 2227              	.LVL394:
 2228              	.LBB424:
 2229              	.LBB425:
 334:lib/helix/real/assembly.h **** 	x ^= sign;
 2230              		.loc 2 334 0 discriminator 3
 2231 02ca 4FEAE27C 		asr	ip, r2, #31
 2232              	.LVL395:
 335:lib/helix/real/assembly.h **** 	x -= sign;
 2233              		.loc 2 335 0 discriminator 3
 2234 02ce 82EA0C03 		eor	r3, r2, ip
 2235              	.LVL396:
 2236              		.loc 2 336 0 discriminator 3
 2237 02d2 A3EB0C03 		sub	r3, r3, ip
 2238              	.LVL397:
 2239              	.LBE425:
 2240              	.LBE424:
 575:lib/helix/real/imdct.c **** 		mOut |= FASTABS(yLo);	y[( 9+i)*NBANDS] = yLo;
 2241              		.loc 1 575 0 discriminator 3
 2242 02d6 3343     		orrs	r3, r3, r6
 2243              	.LVL398:
 2244 02d8 4FEAC816 		lsl	r6, r8, #7
 2245 02dc AA51     		str	r2, [r5, r6]
 576:lib/helix/real/imdct.c **** 		yLo = (xPrevWin[12+i] << 2) + (MULSHIFT32(wp[6+i], xBuf[2-i]) + MULSHIFT32(wp[0+i], xBuf[(6+3)+i]
 2246              		.loc 1 576 0 discriminator 3
 2247 02de 01F10C0C 		add	ip, r1, #12
 2248 02e2 28AA     		add	r2, sp, #160
 2249              	.LVL399:
 2250 02e4 02EB8C02 		add	r2, r2, ip, lsl #2
 2251 02e8 52F8902C 		ldr	r2, [r2, #-144]
 2252 02ec 4FEA8209 		lsl	r9, r2, #2
 2253 02f0 50F82B60 		ldr	r6, [r0, fp, lsl #2]
 2254              	.LVL400:
 2255 02f4 C1F10202 		rsb	r2, r1, #2
 2256 02f8 28AC     		add	r4, sp, #160
 2257 02fa 04EB8202 		add	r2, r4, r2, lsl #2
 2258 02fe 52F8482C 		ldr	r2, [r2, #-72]
 2259              	.LVL401:
 2260              	.LBB426:
ARM GAS  C:\Users\Patryk\AppData\Local\Temp\ccHDsNa9.s 			page 60


 2261              	.LBB427:
 326:lib/helix/real/assembly.h **** 	return y;
 2262              		.loc 2 326 0 discriminator 3
 2263 0302 9346     		mov	fp, r2
 2264              		.syntax unified
 2265              	@ 326 "lib/helix/real/assembly.h" 1
 2266 0304 86FB0B2B 		smull r2,fp,r6,fp
 2267              	@ 0 "" 2
 2268              	.LVL402:
 2269              		.thumb
 2270              		.syntax unified
 2271              	.LBE427:
 2272              	.LBE426:
 2273              		.loc 1 576 0 discriminator 3
 2274 0308 5AF8486C 		ldr	r6, [r10, #-72]
 2275              	.LVL403:
 2276              	.LBB428:
 2277              	.LBB429:
 326:lib/helix/real/assembly.h **** 	return y;
 2278              		.loc 2 326 0 discriminator 3
 2279 030c 3246     		mov	r2, r6
 2280 030e 50F82140 		ldr	r4, [r0, r1, lsl #2]
 2281              		.syntax unified
 2282              	@ 326 "lib/helix/real/assembly.h" 1
 2283 0312 84FB02A2 		smull r10,r2,r4,r2
 2284              	@ 0 "" 2
 2285              	.LVL404:
 2286              		.thumb
 2287              		.syntax unified
 2288              	.LBE429:
 2289              	.LBE428:
 2290              		.loc 1 576 0 discriminator 3
 2291 0316 5A44     		add	r2, r2, fp
 2292 0318 4A44     		add	r2, r2, r9
 2293              	.LVL405:
 2294              	.LBB430:
 2295              	.LBB431:
 334:lib/helix/real/assembly.h **** 	x ^= sign;
 2296              		.loc 2 334 0 discriminator 3
 2297 031a 4FEAE279 		asr	r9, r2, #31
 2298              	.LVL406:
 335:lib/helix/real/assembly.h **** 	x -= sign;
 2299              		.loc 2 335 0 discriminator 3
 2300 031e 82EA0906 		eor	r6, r2, r9
 2301              	.LVL407:
 2302              		.loc 2 336 0 discriminator 3
 2303 0322 A6EB0906 		sub	r6, r6, r9
 2304              	.LVL408:
 2305              	.LBE431:
 2306              	.LBE430:
 577:lib/helix/real/imdct.c **** 		mOut |= FASTABS(yLo);	y[(12+i)*NBANDS] = yLo;
 2307              		.loc 1 577 0 discriminator 3
 2308 0326 3343     		orrs	r3, r3, r6
 2309              	.LVL409:
 2310 0328 4FEACC1C 		lsl	ip, ip, #7
 2311 032c 45F80C20 		str	r2, [r5, ip]
 578:lib/helix/real/imdct.c **** 		yLo = (xPrevWin[15+i] << 2) + (MULSHIFT32(wp[9+i], xBuf[0+i]) + MULSHIFT32(wp[3+i], xBuf[(6+5)-i]
ARM GAS  C:\Users\Patryk\AppData\Local\Temp\ccHDsNa9.s 			page 61


 2312              		.loc 1 578 0 discriminator 3
 2313 0330 01F10F0C 		add	ip, r1, #15
 2314 0334 28AA     		add	r2, sp, #160
 2315              	.LVL410:
 2316 0336 02EB8C02 		add	r2, r2, ip, lsl #2
 2317 033a 52F8906C 		ldr	r6, [r2, #-144]
 2318 033e B600     		lsls	r6, r6, #2
 2319 0340 50F82880 		ldr	r8, [r0, r8, lsl #2]
 2320 0344 5EF8482C 		ldr	r2, [lr, #-72]
 2321              	.LVL411:
 2322              	.LBB432:
 2323              	.LBB433:
 326:lib/helix/real/assembly.h **** 	return y;
 2324              		.loc 2 326 0 discriminator 3
 2325 0348 9646     		mov	lr, r2
 2326              		.syntax unified
 2327              	@ 326 "lib/helix/real/assembly.h" 1
 2328 034a 88FB0E2E 		smull r2,lr,r8,lr
 2329              	@ 0 "" 2
 2330              	.LVL412:
 2331              		.thumb
 2332              		.syntax unified
 2333              	.LBE433:
 2334              	.LBE432:
 2335              		.loc 1 578 0 discriminator 3
 2336 034e 50F82770 		ldr	r7, [r0, r7, lsl #2]
 2337 0352 C1F10B02 		rsb	r2, r1, #11
 2338 0356 28A8     		add	r0, sp, #160
 2339              	.LVL413:
 2340 0358 00EB8202 		add	r2, r0, r2, lsl #2
 2341 035c 52F8480C 		ldr	r0, [r2, #-72]
 2342              	.LVL414:
 2343              	.LBB434:
 2344              	.LBB435:
 326:lib/helix/real/assembly.h **** 	return y;
 2345              		.loc 2 326 0 discriminator 3
 2346 0360 0246     		mov	r2, r0
 2347              		.syntax unified
 2348              	@ 326 "lib/helix/real/assembly.h" 1
 2349 0362 87FB0202 		smull r0,r2,r7,r2
 2350              	@ 0 "" 2
 2351              	.LVL415:
 2352              		.thumb
 2353              		.syntax unified
 2354              	.LBE435:
 2355              	.LBE434:
 2356              		.loc 1 578 0 discriminator 3
 2357 0366 7244     		add	r2, r2, lr
 2358 0368 3244     		add	r2, r2, r6
 2359              	.LVL416:
 2360              	.LBB436:
 2361              	.LBB437:
 334:lib/helix/real/assembly.h **** 	x ^= sign;
 2362              		.loc 2 334 0 discriminator 3
 2363 036a D017     		asrs	r0, r2, #31
 2364              	.LVL417:
 335:lib/helix/real/assembly.h **** 	x -= sign;
ARM GAS  C:\Users\Patryk\AppData\Local\Temp\ccHDsNa9.s 			page 62


 2365              		.loc 2 335 0 discriminator 3
 2366 036c 82EA0006 		eor	r6, r2, r0
 2367              	.LVL418:
 2368              		.loc 2 336 0 discriminator 3
 2369 0370 361A     		subs	r6, r6, r0
 2370              	.LVL419:
 2371              	.LBE437:
 2372              	.LBE436:
 579:lib/helix/real/imdct.c **** 		mOut |= FASTABS(yLo);	y[(15+i)*NBANDS] = yLo;
 2373              		.loc 1 579 0 discriminator 3
 2374 0372 1E43     		orrs	r6, r6, r3
 2375              	.LVL420:
 2376 0374 4FEACC1C 		lsl	ip, ip, #7
 2377 0378 45F80C20 		str	r2, [r5, ip]
 567:lib/helix/real/imdct.c **** 		yLo = (xPrevWin[ 0+i] << 2);
 2378              		.loc 1 567 0 discriminator 3
 2379 037c 0131     		adds	r1, r1, #1
 2380              	.LVL421:
 2381              	.L38:
 567:lib/helix/real/imdct.c **** 		yLo = (xPrevWin[ 0+i] << 2);
 2382              		.loc 1 567 0 is_stmt 0 discriminator 1
 2383 037e 0229     		cmp	r1, #2
 2384 0380 7FF759AF 		ble	.L39
 2385 0384 039C     		ldr	r4, [sp, #12]
 2386 0386 0195     		str	r5, [sp, #4]
 2387              	.LVL422:
 580:lib/helix/real/imdct.c **** 	}
 581:lib/helix/real/imdct.c **** 
 582:lib/helix/real/imdct.c **** 	/* save previous (unwindowed) for overlap - only need samples 6-8, 12-17 */
 583:lib/helix/real/imdct.c **** 	for (i = 6; i < 9; i++)
 2388              		.loc 1 583 0 is_stmt 1
 2389 0388 0623     		movs	r3, #6
 2390 038a 08E0     		b	.L40
 2391              	.LVL423:
 2392              	.L41:
 584:lib/helix/real/imdct.c **** 		*xPrev++ = xBuf[i] >> 2;
 2393              		.loc 1 584 0 discriminator 3
 2394 038c 28AA     		add	r2, sp, #160
 2395 038e 02EB8302 		add	r2, r2, r3, lsl #2
 2396 0392 52F8482C 		ldr	r2, [r2, #-72]
 2397              	.LVL424:
 2398 0396 9210     		asrs	r2, r2, #2
 2399 0398 2260     		str	r2, [r4]
 583:lib/helix/real/imdct.c **** 		*xPrev++ = xBuf[i] >> 2;
 2400              		.loc 1 583 0 discriminator 3
 2401 039a 0133     		adds	r3, r3, #1
 2402              	.LVL425:
 2403              		.loc 1 584 0 discriminator 3
 2404 039c 0434     		adds	r4, r4, #4
 2405              	.LVL426:
 2406              	.L40:
 583:lib/helix/real/imdct.c **** 		*xPrev++ = xBuf[i] >> 2;
 2407              		.loc 1 583 0 discriminator 1
 2408 039e 082B     		cmp	r3, #8
 2409 03a0 F4DD     		ble	.L41
 2410 03a2 0195     		str	r5, [sp, #4]
 585:lib/helix/real/imdct.c **** 	for (i = 12; i < 18; i++)
ARM GAS  C:\Users\Patryk\AppData\Local\Temp\ccHDsNa9.s 			page 63


 2411              		.loc 1 585 0
 2412 03a4 0C23     		movs	r3, #12
 2413              	.LVL427:
 2414 03a6 08E0     		b	.L42
 2415              	.LVL428:
 2416              	.L43:
 586:lib/helix/real/imdct.c **** 		*xPrev++ = xBuf[i] >> 2;
 2417              		.loc 1 586 0 discriminator 3
 2418 03a8 28AA     		add	r2, sp, #160
 2419 03aa 02EB8302 		add	r2, r2, r3, lsl #2
 2420 03ae 52F8482C 		ldr	r2, [r2, #-72]
 2421              	.LVL429:
 2422 03b2 9210     		asrs	r2, r2, #2
 2423 03b4 2260     		str	r2, [r4]
 585:lib/helix/real/imdct.c **** 	for (i = 12; i < 18; i++)
 2424              		.loc 1 585 0 discriminator 3
 2425 03b6 0133     		adds	r3, r3, #1
 2426              	.LVL430:
 2427              		.loc 1 586 0 discriminator 3
 2428 03b8 0434     		adds	r4, r4, #4
 2429              	.LVL431:
 2430              	.L42:
 585:lib/helix/real/imdct.c **** 	for (i = 12; i < 18; i++)
 2431              		.loc 1 585 0 discriminator 1
 2432 03ba 112B     		cmp	r3, #17
 2433 03bc F4DD     		ble	.L43
 2434 03be 0195     		str	r5, [sp, #4]
 2435              	.LVL432:
 587:lib/helix/real/imdct.c **** 
 588:lib/helix/real/imdct.c **** 	xPrev -= 9;
 589:lib/helix/real/imdct.c **** 	mOut |= FreqInvertRescale(y, xPrev, blockIdx, es);
 2436              		.loc 1 589 0
 2437 03c0 029B     		ldr	r3, [sp, #8]
 2438              	.LVL433:
 2439 03c2 329A     		ldr	r2, [sp, #200]
 2440 03c4 A4F12401 		sub	r1, r4, #36
 2441              	.LVL434:
 2442 03c8 2846     		mov	r0, r5
 2443 03ca FFF7FEFF 		bl	FreqInvertRescale
 2444              	.LVL435:
 590:lib/helix/real/imdct.c **** 
 591:lib/helix/real/imdct.c **** 	return mOut;
 592:lib/helix/real/imdct.c **** }
 2445              		.loc 1 592 0
 2446 03ce 3043     		orrs	r0, r0, r6
 2447              	.LVL436:
 2448 03d0 29B0     		add	sp, sp, #164
 2449              	.LCFI8:
 2450              		.cfi_def_cfa_offset 36
 2451              		@ sp needed
 2452 03d2 BDE8F08F 		pop	{r4, r5, r6, r7, r8, r9, r10, fp, pc}
 2453              	.LVL437:
 2454              	.L47:
 2455 03d6 00BF     		.align	2
 2456              	.L46:
 2457 03d8 A1EBD96E 		.word	1859775393
 2458 03dc 1D75A37B 		.word	2074309917
ARM GAS  C:\Users\Patryk\AppData\Local\Temp\ccHDsNa9.s 			page 64


 2459 03e0 20010000 		.word	xmp3fixpt_imdctWin+288
 2460 03e4 9A79825A 		.word	1518500250
 2461 03e8 83FB2021 		.word	555809667
 2462              		.cfi_endproc
 2463              	.LFE11:
 2465              		.section	.text.IMDCT36,"ax",%progbits
 2466              		.align	1
 2467              		.syntax unified
 2468              		.thumb
 2469              		.thumb_func
 2470              		.fpu fpv5-sp-d16
 2472              	IMDCT36:
 2473              	.LFB9:
 369:lib/helix/real/imdct.c **** 	int i, es, xBuf[18], xPrevWin[18];
 2474              		.loc 1 369 0
 2475              		.cfi_startproc
 2476              		@ args = 12, pretend = 0, frame = 184
 2477              		@ frame_needed = 0, uses_anonymous_args = 0
 2478              	.LVL438:
 2479 0000 2DE9F04F 		push	{r4, r5, r6, r7, r8, r9, r10, fp, lr}
 2480              	.LCFI9:
 2481              		.cfi_def_cfa_offset 36
 2482              		.cfi_offset 4, -36
 2483              		.cfi_offset 5, -32
 2484              		.cfi_offset 6, -28
 2485              		.cfi_offset 7, -24
 2486              		.cfi_offset 8, -20
 2487              		.cfi_offset 9, -16
 2488              		.cfi_offset 10, -12
 2489              		.cfi_offset 11, -8
 2490              		.cfi_offset 14, -4
 2491 0004 AFB0     		sub	sp, sp, #188
 2492              	.LCFI10:
 2493              		.cfi_def_cfa_offset 224
 2494 0006 0191     		str	r1, [sp, #4]
 2495 0008 0292     		str	r2, [sp, #8]
 2496 000a 0593     		str	r3, [sp, #20]
 2497 000c 3A9E     		ldr	r6, [sp, #232]
 2498              	.LVL439:
 376:lib/helix/real/imdct.c **** 
 2499              		.loc 1 376 0
 2500 000e 4430     		adds	r0, r0, #68
 2501              	.LVL440:
 379:lib/helix/real/imdct.c **** 		/* rarely triggered - 5% to 10% of the time on normal clips (with Q25 input) */
 2502              		.loc 1 379 0
 2503 0010 062E     		cmp	r6, #6
 2504 0012 00F35181 		bgt	.L60
 2505 0016 0C46     		mov	r4, r1
 2506 0018 1546     		mov	r5, r2
 381:lib/helix/real/imdct.c **** 		for (i = 8; i >= 0; i--) {	
 2507              		.loc 1 381 0
 2508 001a C6F10706 		rsb	r6, r6, #7
 2509              	.LVL441:
 375:lib/helix/real/imdct.c **** 	xCurr += 17;
 2510              		.loc 1 375 0
 2511 001e 4FF0000C 		mov	ip, #0
 2512 0022 6346     		mov	r3, ip
ARM GAS  C:\Users\Patryk\AppData\Local\Temp\ccHDsNa9.s 			page 65


 2513              	.LVL442:
 382:lib/helix/real/imdct.c **** 			acc1 = ((*xCurr--) >> es) - acc1;
 2514              		.loc 1 382 0
 2515 0024 0821     		movs	r1, #8
 2516              	.LVL443:
 2517 0026 8446     		mov	ip, r0
 2518 0028 1846     		mov	r0, r3
 2519              	.LVL444:
 2520              	.L50:
 382:lib/helix/real/imdct.c **** 			acc1 = ((*xCurr--) >> es) - acc1;
 2521              		.loc 1 382 0 is_stmt 0 discriminator 1
 2522 002a 0029     		cmp	r1, #0
 2523 002c 1DDB     		blt	.L64
 2524              	.LVL445:
 383:lib/helix/real/imdct.c **** 			acc2 = acc1 - acc2;
 2525              		.loc 1 383 0 is_stmt 1 discriminator 3
 2526 002e 6746     		mov	r7, ip
 2527 0030 57F80829 		ldr	r2, [r7], #-8
 2528 0034 3241     		asrs	r2, r2, r6
 2529 0036 D31A     		subs	r3, r2, r3
 2530              	.LVL446:
 384:lib/helix/real/imdct.c **** 			acc1 = ((*xCurr--) >> es) - acc1;
 2531              		.loc 1 384 0 discriminator 3
 2532 0038 181A     		subs	r0, r3, r0
 2533              	.LVL447:
 385:lib/helix/real/imdct.c **** 			xBuf[i+9] = acc2;	/* odd */
 2534              		.loc 1 385 0 discriminator 3
 2535 003a 5CF8042C 		ldr	r2, [ip, #-4]
 2536 003e 3241     		asrs	r2, r2, r6
 2537 0040 D31A     		subs	r3, r2, r3
 2538              	.LVL448:
 386:lib/helix/real/imdct.c **** 			xBuf[i+0] = acc1;	/* even */
 2539              		.loc 1 386 0 discriminator 3
 2540 0042 01F10902 		add	r2, r1, #9
 2541 0046 0DF1B80C 		add	ip, sp, #184
 2542 004a 0CEB8202 		add	r2, ip, r2, lsl #2
 2543 004e 42F8480C 		str	r0, [r2, #-72]
 387:lib/helix/real/imdct.c **** 			xPrev[i] >>= es;
 2544              		.loc 1 387 0 discriminator 3
 2545 0052 0CEB8102 		add	r2, ip, r1, lsl #2
 2546 0056 42F8483C 		str	r3, [r2, #-72]
 388:lib/helix/real/imdct.c **** 		}
 2547              		.loc 1 388 0 discriminator 3
 2548 005a 54F82120 		ldr	r2, [r4, r1, lsl #2]
 2549 005e 3241     		asrs	r2, r2, r6
 2550 0060 44F82120 		str	r2, [r4, r1, lsl #2]
 382:lib/helix/real/imdct.c **** 			acc1 = ((*xCurr--) >> es) - acc1;
 2551              		.loc 1 382 0 discriminator 3
 2552 0064 0139     		subs	r1, r1, #1
 2553              	.LVL449:
 385:lib/helix/real/imdct.c **** 			xBuf[i+9] = acc2;	/* odd */
 2554              		.loc 1 385 0 discriminator 3
 2555 0066 BC46     		mov	ip, r7
 2556 0068 DFE7     		b	.L50
 2557              	.LVL450:
 2558              	.L64:
 2559 006a 0396     		str	r6, [sp, #12]
ARM GAS  C:\Users\Patryk\AppData\Local\Temp\ccHDsNa9.s 			page 66


 2560 006c 0194     		str	r4, [sp, #4]
 2561 006e 0295     		str	r5, [sp, #8]
 2562              	.LVL451:
 2563              	.L52:
 402:lib/helix/real/imdct.c **** 	xBuf[0] >>= 1;
 2564              		.loc 1 402 0
 2565 0070 259F     		ldr	r7, [sp, #148]
 2566 0072 7B10     		asrs	r3, r7, #1
 2567 0074 0493     		str	r3, [sp, #16]
 403:lib/helix/real/imdct.c **** 
 2568              		.loc 1 403 0
 2569 0076 1C9A     		ldr	r2, [sp, #112]
 2570 0078 4FEA620B 		asr	fp, r2, #1
 2571              	.LVL452:
 2572              	.LBB502:
 2573              	.LBB503:
 268:lib/helix/real/imdct.c **** 	x5 = x[5]; x6 = x[6]; x7 = x[7]; x8 = x[8];
 2574              		.loc 1 268 0
 2575 007c 1D99     		ldr	r1, [sp, #116]
 2576              	.LVL453:
 2577 007e 1E9B     		ldr	r3, [sp, #120]
 2578              	.LVL454:
 2579 0080 209A     		ldr	r2, [sp, #128]
 2580              	.LVL455:
 269:lib/helix/real/imdct.c **** 
 2581              		.loc 1 269 0
 2582 0082 219F     		ldr	r7, [sp, #132]
 2583              	.LVL456:
 2584 0084 DDF88CC0 		ldr	ip, [sp, #140]
 2585              	.LVL457:
 2586 0088 2498     		ldr	r0, [sp, #144]
 2587              	.LVL458:
 271:lib/helix/real/imdct.c **** 	a2 = x1 - x5;
 2588              		.loc 1 271 0
 2589 008a 229E     		ldr	r6, [sp, #136]
 2590 008c ABEB0606 		sub	r6, fp, r6
 2591 0090 0696     		str	r6, [sp, #24]
 2592              	.LVL459:
 272:lib/helix/real/imdct.c **** 	a3 = x1 + x5;
 2593              		.loc 1 272 0
 2594 0092 A1EB070A 		sub	r10, r1, r7
 2595              	.LVL460:
 273:lib/helix/real/imdct.c **** 	a4 = x2 - x4;
 2596              		.loc 1 273 0
 2597 0096 0F44     		add	r7, r7, r1
 2598              	.LVL461:
 274:lib/helix/real/imdct.c **** 	a5 = x2 + x4;
 2599              		.loc 1 274 0
 2600 0098 A3EB020E 		sub	lr, r3, r2
 2601              	.LVL462:
 275:lib/helix/real/imdct.c **** 	a6 = x2 + x8;
 2602              		.loc 1 275 0
 2603 009c 03EB0208 		add	r8, r3, r2
 2604              	.LVL463:
 276:lib/helix/real/imdct.c **** 	a7 = x1 + x7;
 2605              		.loc 1 276 0
 2606 00a0 0344     		add	r3, r3, r0
ARM GAS  C:\Users\Patryk\AppData\Local\Temp\ccHDsNa9.s 			page 67


 2607              	.LVL464:
 277:lib/helix/real/imdct.c **** 
 2608              		.loc 1 277 0
 2609 00a2 6144     		add	r1, r1, ip
 2610              	.LVL465:
 279:lib/helix/real/imdct.c **** 	a9 = a3 - a7;		/* ie x[5] - x[7] */
 2611              		.loc 1 279 0
 2612 00a4 A3EB0802 		sub	r2, r3, r8
 2613              	.LVL466:
 280:lib/helix/real/imdct.c **** 	a10 = a2 - x7;		/* ie x[1] - x[5] - x[7] */
 2614              		.loc 1 280 0
 2615 00a8 7E1A     		subs	r6, r7, r1
 2616              	.LVL467:
 2617 00aa 0796     		str	r6, [sp, #28]
 2618              	.LVL468:
 281:lib/helix/real/imdct.c **** 	a11 = a4 - x8;		/* ie x[2] - x[4] - x[8] */
 2619              		.loc 1 281 0
 2620 00ac AAEB0C0C 		sub	ip, r10, ip
 2621              	.LVL469:
 282:lib/helix/real/imdct.c **** 
 2622              		.loc 1 282 0
 2623 00b0 AEEB0000 		sub	r0, lr, r0
 2624              	.LVL470:
 2625 00b4 0890     		str	r0, [sp, #32]
 2626              	.LVL471:
 2627              	.LBB504:
 2628              	.LBB505:
 326:lib/helix/real/assembly.h **** 	return y;
 2629              		.loc 2 326 0
 2630 00b6 1F98     		ldr	r0, [sp, #124]
 2631              	.LVL472:
 2632 00b8 C24E     		ldr	r6, .L67
 2633              	.LVL473:
 2634              		.syntax unified
 2635              	@ 326 "lib/helix/real/assembly.h" 1
 2636 00ba 86FB00E0 		smull lr,r0,r6,r0
 2637              	@ 0 "" 2
 2638              	.LVL474:
 2639              		.thumb
 2640              		.syntax unified
 2641              	.LBE505:
 2642              	.LBE504:
 2643              	.LBB506:
 2644              	.LBB507:
 2645 00be 6446     		mov	r4, ip
 2646              		.syntax unified
 2647              	@ 326 "lib/helix/real/assembly.h" 1
 2648 00c0 86FB04C4 		smull ip,r4,r6,r4
 2649              	@ 0 "" 2
 2650              	.LVL475:
 2651              		.thumb
 2652              		.syntax unified
 2653 00c4 0994     		str	r4, [sp, #36]
 2654              	.LVL476:
 2655              	.LBE507:
 2656              	.LBE506:
 2657              	.LBB508:
ARM GAS  C:\Users\Patryk\AppData\Local\Temp\ccHDsNa9.s 			page 68


 2658              	.LBB509:
 2659 00c6 4446     		mov	r4, r8
 2660 00c8 BF4E     		ldr	r6, .L67+4
 2661              		.syntax unified
 2662              	@ 326 "lib/helix/real/assembly.h" 1
 2663 00ca 86FB04C4 		smull ip,r4,r6,r4
 2664              	@ 0 "" 2
 2665              	.LVL477:
 2666              		.thumb
 2667              		.syntax unified
 2668              	.LBE509:
 2669              	.LBE508:
 2670              	.LBB510:
 2671              	.LBB511:
 2672 00ce BF4D     		ldr	r5, .L67+8
 2673              		.syntax unified
 2674              	@ 326 "lib/helix/real/assembly.h" 1
 2675 00d0 85FB03C3 		smull ip,r3,r5,r3
 2676              	@ 0 "" 2
 2677              	.LVL478:
 2678              		.thumb
 2679              		.syntax unified
 2680              	.LBE511:
 2681              	.LBE510:
 2682              	.LBB512:
 2683              	.LBB513:
 2684 00d4 9246     		mov	r10, r2
 2685              	.LVL479:
 2686              		.syntax unified
 2687              	@ 326 "lib/helix/real/assembly.h" 1
 2688 00d6 86FB0A2A 		smull r2,r10,r6,r10
 2689              	@ 0 "" 2
 2690              	.LVL480:
 2691              		.thumb
 2692              		.syntax unified
 2693              	.LBE513:
 2694              	.LBE512:
 2695              	.LBB514:
 2696              	.LBB515:
 2697              		.syntax unified
 2698              	@ 326 "lib/helix/real/assembly.h" 1
 2699 00da 85FB0828 		smull r2,r8,r5,r8
 2700              	@ 0 "" 2
 2701              	.LVL481:
 2702              		.thumb
 2703              		.syntax unified
 2704              	.LBE515:
 2705              	.LBE514:
 2706              	.LBB516:
 2707              	.LBB517:
 2708 00de DDF81CC0 		ldr	ip, [sp, #28]
 2709 00e2 E146     		mov	r9, ip
 2710 00e4 05F17055 		add	r5, r5, #1006632960
 2711 00e8 05F54C25 		add	r5, r5, #835584
 2712 00ec 05F2CB25 		addw	r5, r5, #715
 2713              		.syntax unified
 2714              	@ 326 "lib/helix/real/assembly.h" 1
ARM GAS  C:\Users\Patryk\AppData\Local\Temp\ccHDsNa9.s 			page 69


 2715 00f0 85FB0929 		smull r2,r9,r5,r9
 2716              	@ 0 "" 2
 2717              	.LVL482:
 2718              		.thumb
 2719              		.syntax unified
 2720              	.LBE517:
 2721              	.LBE516:
 2722              	.LBB518:
 2723              	.LBB519:
 2724 00f4 B64E     		ldr	r6, .L67+12
 2725              		.syntax unified
 2726              	@ 326 "lib/helix/real/assembly.h" 1
 2727 00f6 86FB0121 		smull r2,r1,r6,r1
 2728              	@ 0 "" 2
 2729              	.LVL483:
 2730              		.thumb
 2731              		.syntax unified
 2732              	.LBE519:
 2733              	.LBE518:
 2734              	.LBB520:
 2735              	.LBB521:
 2736 00fa BE46     		mov	lr, r7
 2737              		.syntax unified
 2738              	@ 326 "lib/helix/real/assembly.h" 1
 2739 00fc 85FB0E2E 		smull r2,lr,r5,lr
 2740              	@ 0 "" 2
 2741              	.LVL484:
 2742              		.thumb
 2743              		.syntax unified
 2744              	.LBE521:
 2745              	.LBE520:
 2746              	.LBB522:
 2747              	.LBB523:
 2748 0100 6746     		mov	r7, ip
 2749              	.LVL485:
 2750              		.syntax unified
 2751              	@ 326 "lib/helix/real/assembly.h" 1
 2752 0102 86FB0727 		smull r2,r7,r6,r7
 2753              	@ 0 "" 2
 2754              	.LVL486:
 2755              		.thumb
 2756              		.syntax unified
 2757              	.LBE523:
 2758              	.LBE522:
 296:lib/helix/real/imdct.c **** 	a13 = a12  +  (  m1 << 1);
 2759              		.loc 1 296 0
 2760 0106 229A     		ldr	r2, [sp, #136]
 2761 0108 0BEB6202 		add	r2, fp, r2, asr #1
 2762              	.LVL487:
 297:lib/helix/real/imdct.c **** 	a14 = a12  -  (  m1 << 1);
 2763              		.loc 1 297 0
 2764 010c 4000     		lsls	r0, r0, #1
 2765 010e 02EB000B 		add	fp, r2, r0
 2766              	.LVL488:
 298:lib/helix/real/imdct.c **** 	a15 = a1   +  ( a11 >> 1);
 2767              		.loc 1 298 0
 2768 0112 101A     		subs	r0, r2, r0
ARM GAS  C:\Users\Patryk\AppData\Local\Temp\ccHDsNa9.s 			page 70


 2769              	.LVL489:
 299:lib/helix/real/imdct.c **** 	a16 = ( m5 << 1) + (m6 << 1);
 2770              		.loc 1 299 0
 2771 0114 069D     		ldr	r5, [sp, #24]
 2772 0116 089E     		ldr	r6, [sp, #32]
 2773 0118 05EB660C 		add	ip, r5, r6, asr #1
 2774              	.LVL490:
 300:lib/helix/real/imdct.c **** 	a17 = ( m7 << 1) - (m8 << 1);
 2775              		.loc 1 300 0
 2776 011c 5B00     		lsls	r3, r3, #1
 2777 011e 03EB4403 		add	r3, r3, r4, lsl #1
 2778              	.LVL491:
 301:lib/helix/real/imdct.c **** 	a18 = a16 + a17;
 2779              		.loc 1 301 0
 2780 0122 4FEA4802 		lsl	r2, r8, #1
 2781              	.LVL492:
 2782 0126 C2EB4A02 		rsb	r2, r2, r10, lsl #1
 2783              	.LVL493:
 302:lib/helix/real/imdct.c **** 	a19 = ( m9 << 1) + (m10 << 1);
 2784              		.loc 1 302 0
 2785 012a 03EB0208 		add	r8, r3, r2
 2786              	.LVL494:
 303:lib/helix/real/imdct.c **** 	a20 = (m11 << 1) - (m12 << 1);
 2787              		.loc 1 303 0
 2788 012e 4900     		lsls	r1, r1, #1
 2789 0130 01EB4901 		add	r1, r1, r9, lsl #1
 2790              	.LVL495:
 304:lib/helix/real/imdct.c **** 
 2791              		.loc 1 304 0
 2792 0134 7F00     		lsls	r7, r7, #1
 2793 0136 C7EB4E07 		rsb	r7, r7, lr, lsl #1
 2794              	.LVL496:
 306:lib/helix/real/imdct.c **** 	a22 = a13 + a16;
 2795              		.loc 1 306 0
 2796 013a A7EB010E 		sub	lr, r7, r1
 2797              	.LVL497:
 307:lib/helix/real/imdct.c **** 	a23 = a14 + a16;
 2798              		.loc 1 307 0
 2799 013e 0BEB030A 		add	r10, fp, r3
 2800              	.LVL498:
 308:lib/helix/real/imdct.c **** 	a24 = a14 + a17;
 2801              		.loc 1 308 0
 2802 0142 0344     		add	r3, r3, r0
 2803              	.LVL499:
 309:lib/helix/real/imdct.c **** 	a25 = a13 + a17;
 2804              		.loc 1 309 0
 2805 0144 00EB0209 		add	r9, r0, r2
 2806              	.LVL500:
 310:lib/helix/real/imdct.c **** 	a26 = a14 - a18;
 2807              		.loc 1 310 0
 2808 0148 5A44     		add	r2, r2, fp
 2809              	.LVL501:
 311:lib/helix/real/imdct.c **** 	a27 = a13 - a18;
 2810              		.loc 1 311 0
 2811 014a A0EB0800 		sub	r0, r0, r8
 2812              	.LVL502:
 312:lib/helix/real/imdct.c **** 
ARM GAS  C:\Users\Patryk\AppData\Local\Temp\ccHDsNa9.s 			page 71


 2813              		.loc 1 312 0
 2814 014e ABEB0808 		sub	r8, fp, r8
 2815              	.LVL503:
 314:lib/helix/real/imdct.c **** 	x1 = a15 + (m3 << 1);	x[1] = x1;
 2816              		.loc 1 314 0
 2817 0152 8A44     		add	r10, r10, r1
 2818              	.LVL504:
 2819 0154 CDF870A0 		str	r10, [sp, #112]
 2820              	.LVL505:
 315:lib/helix/real/imdct.c **** 	x2 = a24 + a20;			x[2] = x2;
 2821              		.loc 1 315 0
 2822 0158 099C     		ldr	r4, [sp, #36]
 2823 015a 4FEA440A 		lsl	r10, r4, #1
 2824              	.LVL506:
 2825 015e 0CEB0A0B 		add	fp, ip, r10
 2826              	.LVL507:
 2827 0162 CDF874B0 		str	fp, [sp, #116]
 2828              	.LVL508:
 316:lib/helix/real/imdct.c **** 	x3 = a26 - a21;			x[3] = x3;
 2829              		.loc 1 316 0
 2830 0166 B944     		add	r9, r9, r7
 2831              	.LVL509:
 2832 0168 CDF87890 		str	r9, [sp, #120]
 2833              	.LVL510:
 317:lib/helix/real/imdct.c **** 	x4 = a1 - a11;			x[4] = x4;
 2834              		.loc 1 317 0
 2835 016c A0EB0E00 		sub	r0, r0, lr
 2836              	.LVL511:
 2837 0170 1F90     		str	r0, [sp, #124]
 318:lib/helix/real/imdct.c **** 	x5 = a27 + a21;			x[5] = x5;
 2838              		.loc 1 318 0
 2839 0172 2846     		mov	r0, r5
 2840              	.LVL512:
 2841 0174 801B     		subs	r0, r0, r6
 2842              	.LVL513:
 2843 0176 2090     		str	r0, [sp, #128]
 319:lib/helix/real/imdct.c **** 	x6 = a25 - a20;			x[6] = x6;
 2844              		.loc 1 319 0
 2845 0178 0EEB0800 		add	r0, lr, r8
 2846              	.LVL514:
 2847 017c 2190     		str	r0, [sp, #132]
 320:lib/helix/real/imdct.c **** 	x7 = a15 - (m3 << 1);	x[7] = x7;
 2848              		.loc 1 320 0
 2849 017e D21B     		subs	r2, r2, r7
 2850              	.LVL515:
 2851 0180 2292     		str	r2, [sp, #136]
 321:lib/helix/real/imdct.c **** 	x8 = a23 - a19;			x[8] = x8;
 2852              		.loc 1 321 0
 2853 0182 ACEB0A02 		sub	r2, ip, r10
 2854              	.LVL516:
 2855 0186 2392     		str	r2, [sp, #140]
 322:lib/helix/real/imdct.c **** }
 2856              		.loc 1 322 0
 2857 0188 5B1A     		subs	r3, r3, r1
 2858              	.LVL517:
 2859 018a 2493     		str	r3, [sp, #144]
 2860              	.LVL518:
ARM GAS  C:\Users\Patryk\AppData\Local\Temp\ccHDsNa9.s 			page 72


 2861              	.LBE503:
 2862              	.LBE502:
 2863              	.LBB524:
 2864              	.LBB525:
 268:lib/helix/real/imdct.c **** 	x5 = x[5]; x6 = x[6]; x7 = x[7]; x8 = x[8];
 2865              		.loc 1 268 0
 2866 018c 2699     		ldr	r1, [sp, #152]
 2867              	.LVL519:
 2868 018e 279B     		ldr	r3, [sp, #156]
 2869              	.LVL520:
 2870 0190 299A     		ldr	r2, [sp, #164]
 2871              	.LVL521:
 269:lib/helix/real/imdct.c **** 
 2872              		.loc 1 269 0
 2873 0192 2A98     		ldr	r0, [sp, #168]
 2874              	.LVL522:
 2875 0194 DDF8ACB0 		ldr	fp, [sp, #172]
 2876              	.LVL523:
 2877 0198 DDF8B0C0 		ldr	ip, [sp, #176]
 2878              	.LVL524:
 2879 019c 2D9F     		ldr	r7, [sp, #180]
 2880              	.LVL525:
 271:lib/helix/real/imdct.c **** 	a2 = x1 - x5;
 2881              		.loc 1 271 0
 2882 019e 049D     		ldr	r5, [sp, #16]
 2883 01a0 A5EB0B04 		sub	r4, r5, fp
 2884 01a4 0694     		str	r4, [sp, #24]
 2885              	.LVL526:
 272:lib/helix/real/imdct.c **** 	a3 = x1 + x5;
 2886              		.loc 1 272 0
 2887 01a6 A1EB000A 		sub	r10, r1, r0
 2888              	.LVL527:
 273:lib/helix/real/imdct.c **** 	a4 = x2 - x4;
 2889              		.loc 1 273 0
 2890 01aa 01EB000E 		add	lr, r1, r0
 2891              	.LVL528:
 274:lib/helix/real/imdct.c **** 	a5 = x2 + x4;
 2892              		.loc 1 274 0
 2893 01ae A3EB0209 		sub	r9, r3, r2
 2894              	.LVL529:
 275:lib/helix/real/imdct.c **** 	a6 = x2 + x8;
 2895              		.loc 1 275 0
 2896 01b2 03EB0208 		add	r8, r3, r2
 2897              	.LVL530:
 276:lib/helix/real/imdct.c **** 	a7 = x1 + x7;
 2898              		.loc 1 276 0
 2899 01b6 3B44     		add	r3, r3, r7
 2900              	.LVL531:
 277:lib/helix/real/imdct.c **** 
 2901              		.loc 1 277 0
 2902 01b8 6144     		add	r1, r1, ip
 2903              	.LVL532:
 279:lib/helix/real/imdct.c **** 	a9 = a3 - a7;		/* ie x[5] - x[7] */
 2904              		.loc 1 279 0
 2905 01ba A3EB0802 		sub	r2, r3, r8
 2906              	.LVL533:
 280:lib/helix/real/imdct.c **** 	a10 = a2 - x7;		/* ie x[1] - x[5] - x[7] */
ARM GAS  C:\Users\Patryk\AppData\Local\Temp\ccHDsNa9.s 			page 73


 2907              		.loc 1 280 0
 2908 01be AEEB0100 		sub	r0, lr, r1
 2909              	.LVL534:
 281:lib/helix/real/imdct.c **** 	a11 = a4 - x8;		/* ie x[2] - x[4] - x[8] */
 2910              		.loc 1 281 0
 2911 01c2 AAEB0C0A 		sub	r10, r10, ip
 2912              	.LVL535:
 282:lib/helix/real/imdct.c **** 
 2913              		.loc 1 282 0
 2914 01c6 A9EB0707 		sub	r7, r9, r7
 2915              	.LVL536:
 2916 01ca 0797     		str	r7, [sp, #28]
 2917              	.LVL537:
 2918              	.LBB526:
 2919              	.LBB527:
 326:lib/helix/real/assembly.h **** 	return y;
 2920              		.loc 2 326 0
 2921 01cc 289F     		ldr	r7, [sp, #160]
 2922              	.LVL538:
 2923 01ce 7D4E     		ldr	r6, .L67
 2924              		.syntax unified
 2925              	@ 326 "lib/helix/real/assembly.h" 1
 2926 01d0 86FB07C7 		smull ip,r7,r6,r7
 2927              	@ 0 "" 2
 2928              	.LVL539:
 2929              		.thumb
 2930              		.syntax unified
 2931              	.LBE527:
 2932              	.LBE526:
 2933              	.LBB528:
 2934              	.LBB529:
 2935 01d4 5446     		mov	r4, r10
 2936              	.LVL540:
 2937              		.syntax unified
 2938              	@ 326 "lib/helix/real/assembly.h" 1
 2939 01d6 86FB04C4 		smull ip,r4,r6,r4
 2940              	@ 0 "" 2
 2941              	.LVL541:
 2942              		.thumb
 2943              		.syntax unified
 2944              	.LBE529:
 2945              	.LBE528:
 2946              	.LBB530:
 2947              	.LBB531:
 2948 01da C146     		mov	r9, r8
 2949              	.LVL542:
 2950 01dc 7A4E     		ldr	r6, .L67+4
 2951              		.syntax unified
 2952              	@ 326 "lib/helix/real/assembly.h" 1
 2953 01de 86FB09C9 		smull ip,r9,r6,r9
 2954              	@ 0 "" 2
 2955              	.LVL543:
 2956              		.thumb
 2957              		.syntax unified
 2958 01e2 CDF82090 		str	r9, [sp, #32]
 2959              	.LVL544:
 2960              	.LBE531:
ARM GAS  C:\Users\Patryk\AppData\Local\Temp\ccHDsNa9.s 			page 74


 2961              	.LBE530:
 2962              	.LBB532:
 2963              	.LBB533:
 2964 01e6 794D     		ldr	r5, .L67+8
 2965              		.syntax unified
 2966              	@ 326 "lib/helix/real/assembly.h" 1
 2967 01e8 85FB03C3 		smull ip,r3,r5,r3
 2968              	@ 0 "" 2
 2969              	.LVL545:
 2970              		.thumb
 2971              		.syntax unified
 2972              	.LBE533:
 2973              	.LBE532:
 2974              	.LBB534:
 2975              	.LBB535:
 2976 01ec 9246     		mov	r10, r2
 2977              	.LVL546:
 2978              		.syntax unified
 2979              	@ 326 "lib/helix/real/assembly.h" 1
 2980 01ee 86FB0A2A 		smull r2,r10,r6,r10
 2981              	@ 0 "" 2
 2982              	.LVL547:
 2983              		.thumb
 2984              		.syntax unified
 2985              	.LBE535:
 2986              	.LBE534:
 2987              	.LBB536:
 2988              	.LBB537:
 2989              		.syntax unified
 2990              	@ 326 "lib/helix/real/assembly.h" 1
 2991 01f2 85FB0828 		smull r2,r8,r5,r8
 2992              	@ 0 "" 2
 2993              	.LVL548:
 2994              		.thumb
 2995              		.syntax unified
 2996              	.LBE537:
 2997              	.LBE536:
 2998              	.LBB538:
 2999              	.LBB539:
 3000 01f6 8146     		mov	r9, r0
 3001 01f8 05F17055 		add	r5, r5, #1006632960
 3002 01fc 05F54C25 		add	r5, r5, #835584
 3003 0200 05F2CB25 		addw	r5, r5, #715
 3004              		.syntax unified
 3005              	@ 326 "lib/helix/real/assembly.h" 1
 3006 0204 85FB0929 		smull r2,r9,r5,r9
 3007              	@ 0 "" 2
 3008              	.LVL549:
 3009              		.thumb
 3010              		.syntax unified
 3011              	.LBE539:
 3012              	.LBE538:
 3013              	.LBB540:
 3014              	.LBB541:
 3015 0208 714E     		ldr	r6, .L67+12
 3016              		.syntax unified
 3017              	@ 326 "lib/helix/real/assembly.h" 1
ARM GAS  C:\Users\Patryk\AppData\Local\Temp\ccHDsNa9.s 			page 75


 3018 020a 86FB0121 		smull r2,r1,r6,r1
 3019              	@ 0 "" 2
 3020              	.LVL550:
 3021              		.thumb
 3022              		.syntax unified
 3023              	.LBE541:
 3024              	.LBE540:
 3025              	.LBB542:
 3026              	.LBB543:
 3027              		.syntax unified
 3028              	@ 326 "lib/helix/real/assembly.h" 1
 3029 020e 85FB0E2E 		smull r2,lr,r5,lr
 3030              	@ 0 "" 2
 3031              	.LVL551:
 3032              		.thumb
 3033              		.syntax unified
 3034              	.LBE543:
 3035              	.LBE542:
 3036              	.LBB544:
 3037              	.LBB545:
 3038              		.syntax unified
 3039              	@ 326 "lib/helix/real/assembly.h" 1
 3040 0212 86FB0020 		smull r2,r0,r6,r0
 3041              	@ 0 "" 2
 3042              	.LVL552:
 3043              		.thumb
 3044              		.syntax unified
 3045              	.LBE545:
 3046              	.LBE544:
 296:lib/helix/real/imdct.c **** 	a13 = a12  +  (  m1 << 1);
 3047              		.loc 1 296 0
 3048 0216 049D     		ldr	r5, [sp, #16]
 3049 0218 05EB6B0C 		add	ip, r5, fp, asr #1
 3050              	.LVL553:
 297:lib/helix/real/imdct.c **** 	a14 = a12  -  (  m1 << 1);
 3051              		.loc 1 297 0
 3052 021c 7A00     		lsls	r2, r7, #1
 3053 021e 0CEB020B 		add	fp, ip, r2
 3054              	.LVL554:
 298:lib/helix/real/imdct.c **** 	a15 = a1   +  ( a11 >> 1);
 3055              		.loc 1 298 0
 3056 0222 ACEB0207 		sub	r7, ip, r2
 3057              	.LVL555:
 299:lib/helix/real/imdct.c **** 	a16 = ( m5 << 1) + (m6 << 1);
 3058              		.loc 1 299 0
 3059 0226 069D     		ldr	r5, [sp, #24]
 3060 0228 079E     		ldr	r6, [sp, #28]
 3061 022a 05EB660C 		add	ip, r5, r6, asr #1
 3062              	.LVL556:
 300:lib/helix/real/imdct.c **** 	a17 = ( m7 << 1) - (m8 << 1);
 3063              		.loc 1 300 0
 3064 022e 5B00     		lsls	r3, r3, #1
 3065 0230 089A     		ldr	r2, [sp, #32]
 3066 0232 03EB4203 		add	r3, r3, r2, lsl #1
 3067              	.LVL557:
 301:lib/helix/real/imdct.c **** 	a18 = a16 + a17;
 3068              		.loc 1 301 0
ARM GAS  C:\Users\Patryk\AppData\Local\Temp\ccHDsNa9.s 			page 76


 3069 0236 4FEA4802 		lsl	r2, r8, #1
 3070 023a C2EB4A02 		rsb	r2, r2, r10, lsl #1
 3071              	.LVL558:
 302:lib/helix/real/imdct.c **** 	a19 = ( m9 << 1) + (m10 << 1);
 3072              		.loc 1 302 0
 3073 023e 03EB0208 		add	r8, r3, r2
 3074              	.LVL559:
 303:lib/helix/real/imdct.c **** 	a20 = (m11 << 1) - (m12 << 1);
 3075              		.loc 1 303 0
 3076 0242 4900     		lsls	r1, r1, #1
 3077 0244 01EB4901 		add	r1, r1, r9, lsl #1
 3078              	.LVL560:
 304:lib/helix/real/imdct.c **** 
 3079              		.loc 1 304 0
 3080 0248 4000     		lsls	r0, r0, #1
 3081 024a C0EB4E00 		rsb	r0, r0, lr, lsl #1
 3082              	.LVL561:
 306:lib/helix/real/imdct.c **** 	a22 = a13 + a16;
 3083              		.loc 1 306 0
 3084 024e A0EB010E 		sub	lr, r0, r1
 3085              	.LVL562:
 307:lib/helix/real/imdct.c **** 	a23 = a14 + a16;
 3086              		.loc 1 307 0
 3087 0252 0BEB030A 		add	r10, fp, r3
 3088              	.LVL563:
 308:lib/helix/real/imdct.c **** 	a24 = a14 + a17;
 3089              		.loc 1 308 0
 3090 0256 3B44     		add	r3, r3, r7
 3091              	.LVL564:
 309:lib/helix/real/imdct.c **** 	a25 = a13 + a17;
 3092              		.loc 1 309 0
 3093 0258 07EB0209 		add	r9, r7, r2
 3094              	.LVL565:
 310:lib/helix/real/imdct.c **** 	a26 = a14 - a18;
 3095              		.loc 1 310 0
 3096 025c 5A44     		add	r2, r2, fp
 3097              	.LVL566:
 311:lib/helix/real/imdct.c **** 	a27 = a13 - a18;
 3098              		.loc 1 311 0
 3099 025e A7EB0807 		sub	r7, r7, r8
 3100              	.LVL567:
 312:lib/helix/real/imdct.c **** 
 3101              		.loc 1 312 0
 3102 0262 ABEB0808 		sub	r8, fp, r8
 3103              	.LVL568:
 314:lib/helix/real/imdct.c **** 	x1 = a15 + (m3 << 1);	x[1] = x1;
 3104              		.loc 1 314 0
 3105 0266 8A44     		add	r10, r10, r1
 3106              	.LVL569:
 3107 0268 CDF894A0 		str	r10, [sp, #148]
 315:lib/helix/real/imdct.c **** 	x2 = a24 + a20;			x[2] = x2;
 3108              		.loc 1 315 0
 3109 026c 4FEA440A 		lsl	r10, r4, #1
 3110              	.LVL570:
 3111 0270 0CEB0A0B 		add	fp, ip, r10
 3112              	.LVL571:
 3113 0274 CDF898B0 		str	fp, [sp, #152]
ARM GAS  C:\Users\Patryk\AppData\Local\Temp\ccHDsNa9.s 			page 77


 3114              	.LVL572:
 316:lib/helix/real/imdct.c **** 	x3 = a26 - a21;			x[3] = x3;
 3115              		.loc 1 316 0
 3116 0278 8144     		add	r9, r9, r0
 3117              	.LVL573:
 3118 027a CDF89C90 		str	r9, [sp, #156]
 3119              	.LVL574:
 317:lib/helix/real/imdct.c **** 	x4 = a1 - a11;			x[4] = x4;
 3120              		.loc 1 317 0
 3121 027e A7EB0E07 		sub	r7, r7, lr
 3122              	.LVL575:
 3123 0282 2897     		str	r7, [sp, #160]
 318:lib/helix/real/imdct.c **** 	x5 = a27 + a21;			x[5] = x5;
 3124              		.loc 1 318 0
 3125 0284 AF1B     		subs	r7, r5, r6
 3126              	.LVL576:
 3127 0286 2997     		str	r7, [sp, #164]
 319:lib/helix/real/imdct.c **** 	x6 = a25 - a20;			x[6] = x6;
 3128              		.loc 1 319 0
 3129 0288 0EEB0807 		add	r7, lr, r8
 3130              	.LVL577:
 3131 028c 2A97     		str	r7, [sp, #168]
 320:lib/helix/real/imdct.c **** 	x7 = a15 - (m3 << 1);	x[7] = x7;
 3132              		.loc 1 320 0
 3133 028e 121A     		subs	r2, r2, r0
 3134              	.LVL578:
 3135 0290 2B92     		str	r2, [sp, #172]
 3136              	.LVL579:
 321:lib/helix/real/imdct.c **** 	x8 = a23 - a19;			x[8] = x8;
 3137              		.loc 1 321 0
 3138 0292 ACEB0A02 		sub	r2, ip, r10
 3139              	.LVL580:
 3140 0296 2C92     		str	r2, [sp, #176]
 322:lib/helix/real/imdct.c **** }
 3141              		.loc 1 322 0
 3142 0298 5B1A     		subs	r3, r3, r1
 3143              	.LVL581:
 3144 029a 2D93     		str	r3, [sp, #180]
 3145              	.LVL582:
 3146              	.LBE525:
 3147              	.LBE524:
 412:lib/helix/real/imdct.c **** 		/* fast path - use symmetry of sin window to reduce windowing multiplies to 18 (N/2) */
 3148              		.loc 1 412 0
 3149 029c 389B     		ldr	r3, [sp, #224]
 3150 029e 059A     		ldr	r2, [sp, #20]
 3151 02a0 53EA0201 		orrs	r1, r3, r2
 3152 02a4 7AD1     		bne	.L65
 411:lib/helix/real/imdct.c **** 	if (btPrev == 0 && btCurr == 0) {
 3153              		.loc 1 411 0
 3154 02a6 0F46     		mov	r7, r1
 414:lib/helix/real/imdct.c **** 		for (i = 0; i < 9; i++) {
 3155              		.loc 1 414 0
 3156 02a8 DFF83081 		ldr	r8, .L67+24
 410:lib/helix/real/imdct.c **** 	mOut = 0;
 3157              		.loc 1 410 0
 3158 02ac 494B     		ldr	r3, .L67+16
 409:lib/helix/real/imdct.c **** 	cp = c18 + 8;
ARM GAS  C:\Users\Patryk\AppData\Local\Temp\ccHDsNa9.s 			page 78


 3159              		.loc 1 409 0
 3160 02ae 24AA     		add	r2, sp, #144
 3161              	.LVL583:
 3162 02b0 039E     		ldr	r6, [sp, #12]
 3163 02b2 019C     		ldr	r4, [sp, #4]
 3164 02b4 029D     		ldr	r5, [sp, #8]
 3165 02b6 61E0     		b	.L54
 3166              	.LVL584:
 3167              	.L60:
 375:lib/helix/real/imdct.c **** 	xCurr += 17;
 3168              		.loc 1 375 0
 3169 02b8 0027     		movs	r7, #0
 3170 02ba 3B46     		mov	r3, r7
 3171              	.LVL585:
 393:lib/helix/real/imdct.c **** 			acc1 = (*xCurr--) - acc1;
 3172              		.loc 1 393 0
 3173 02bc 0821     		movs	r1, #8
 3174              	.LVL586:
 3175 02be 019C     		ldr	r4, [sp, #4]
 3176 02c0 029D     		ldr	r5, [sp, #8]
 3177              	.LVL587:
 3178              	.L49:
 393:lib/helix/real/imdct.c **** 			acc1 = (*xCurr--) - acc1;
 3179              		.loc 1 393 0 is_stmt 0 discriminator 1
 3180 02c2 0029     		cmp	r1, #0
 3181 02c4 15DB     		blt	.L66
 3182              	.LVL588:
 394:lib/helix/real/imdct.c **** 			acc2 = acc1 - acc2;
 3183              		.loc 1 394 0 is_stmt 1 discriminator 3
 3184 02c6 0246     		mov	r2, r0
 3185 02c8 52F80869 		ldr	r6, [r2], #-8
 3186 02cc F31A     		subs	r3, r6, r3
 3187              	.LVL589:
 395:lib/helix/real/imdct.c **** 			acc1 = (*xCurr--) - acc1;
 3188              		.loc 1 395 0 discriminator 3
 3189 02ce DF1B     		subs	r7, r3, r7
 3190              	.LVL590:
 396:lib/helix/real/imdct.c **** 			xBuf[i+9] = acc2;	/* odd */
 3191              		.loc 1 396 0 discriminator 3
 3192 02d0 50F8040C 		ldr	r0, [r0, #-4]
 3193 02d4 C31A     		subs	r3, r0, r3
 3194              	.LVL591:
 397:lib/helix/real/imdct.c **** 			xBuf[i+0] = acc1;	/* even */
 3195              		.loc 1 397 0 discriminator 3
 3196 02d6 01F10900 		add	r0, r1, #9
 3197 02da 2EAE     		add	r6, sp, #184
 3198 02dc 06EB8000 		add	r0, r6, r0, lsl #2
 3199 02e0 40F8487C 		str	r7, [r0, #-72]
 398:lib/helix/real/imdct.c **** 		}
 3200              		.loc 1 398 0 discriminator 3
 3201 02e4 06EB8100 		add	r0, r6, r1, lsl #2
 3202 02e8 40F8483C 		str	r3, [r0, #-72]
 393:lib/helix/real/imdct.c **** 			acc1 = (*xCurr--) - acc1;
 3203              		.loc 1 393 0 discriminator 3
 3204 02ec 0139     		subs	r1, r1, #1
 3205              	.LVL592:
 396:lib/helix/real/imdct.c **** 			xBuf[i+9] = acc2;	/* odd */
ARM GAS  C:\Users\Patryk\AppData\Local\Temp\ccHDsNa9.s 			page 79


 3206              		.loc 1 396 0 discriminator 3
 3207 02ee 1046     		mov	r0, r2
 3208 02f0 E7E7     		b	.L49
 3209              	.LVL593:
 3210              	.L66:
 3211 02f2 0194     		str	r4, [sp, #4]
 3212              	.LVL594:
 3213 02f4 0295     		str	r5, [sp, #8]
 3214              	.LVL595:
 391:lib/helix/real/imdct.c **** 		/* max gain = 18, assume adequate guard bits */
 3215              		.loc 1 391 0
 3216 02f6 0023     		movs	r3, #0
 3217              	.LVL596:
 3218 02f8 0393     		str	r3, [sp, #12]
 3219 02fa B9E6     		b	.L52
 3220              	.LVL597:
 3221              	.L56:
 417:lib/helix/real/imdct.c **** 			/* gain 2 int bits here */
 3222              		.loc 1 417 0 discriminator 3
 3223 02fc A3F1040E 		sub	lr, r3, #4
 3224              	.LVL598:
 3225 0300 1868     		ldr	r0, [r3]
 3226              	.LVL599:
 3227 0302 D2F82490 		ldr	r9, [r2, #36]
 3228              	.LVL600:
 3229 0306 A2F1040C 		sub	ip, r2, #4
 3230              	.LVL601:
 3231 030a 1368     		ldr	r3, [r2]
 3232              	.LVL602:
 3233              	.LBB546:
 3234              	.LBB547:
 326:lib/helix/real/assembly.h **** 	return y;
 3235              		.loc 2 326 0 discriminator 3
 3236              		.syntax unified
 3237              	@ 326 "lib/helix/real/assembly.h" 1
 3238 030c 80FB0929 		smull r2,r9,r0,r9
 3239              	@ 0 "" 2
 3240              	.LVL603:
 3241              		.thumb
 3242              		.syntax unified
 3243              	.LBE547:
 3244              	.LBE546:
 420:lib/helix/real/imdct.c **** 
 3245              		.loc 1 420 0 discriminator 3
 3246 0310 9B10     		asrs	r3, r3, #2
 3247              	.LVL604:
 422:lib/helix/real/imdct.c **** 			d = -(xe - xo);		/* gain 2 int bits, don't shift xo (effective << 1 to eat sign bit, << 1 for mu
 3248              		.loc 1 422 0 discriminator 3
 3249 0312 2046     		mov	r0, r4
 3250              	.LVL605:
 3251 0314 50F804AB 		ldr	r10, [r0], #4
 3252 0318 CAF1000B 		rsb	fp, r10, #0
 3253              	.LVL606:
 423:lib/helix/real/imdct.c **** 			(*xPrev++) = xe + xo;			/* symmetry - xPrev[i] = xPrev[17-i] for long blocks */
 3254              		.loc 1 423 0 discriminator 3
 3255 031c A9EB0302 		sub	r2, r9, r3
 3256              	.LVL607:
ARM GAS  C:\Users\Patryk\AppData\Local\Temp\ccHDsNa9.s 			page 80


 424:lib/helix/real/imdct.c **** 			t = s - d;
 3257              		.loc 1 424 0 discriminator 3
 3258 0320 4B44     		add	r3, r3, r9
 3259              	.LVL608:
 3260 0322 2360     		str	r3, [r4]
 3261              	.LVL609:
 425:lib/helix/real/imdct.c **** 
 3262              		.loc 1 425 0 discriminator 3
 3263 0324 ABEB0209 		sub	r9, fp, r2
 3264              	.LVL610:
 427:lib/helix/real/imdct.c **** 			yHi = (s + (MULSHIFT32(t, *wp++) << 2));
 3265              		.loc 1 427 0 discriminator 3
 3266 0328 4446     		mov	r4, r8
 3267 032a 54F8083B 		ldr	r3, [r4], #8
 3268              	.LVL611:
 3269              	.LBB548:
 3270              	.LBB549:
 326:lib/helix/real/assembly.h **** 	return y;
 3271              		.loc 2 326 0 discriminator 3
 3272              		.syntax unified
 3273              	@ 326 "lib/helix/real/assembly.h" 1
 3274 032e 89FB03B3 		smull fp,r3,r9,r3
 3275              	@ 0 "" 2
 3276              	.LVL612:
 3277              		.thumb
 3278              		.syntax unified
 3279              	.LBE549:
 3280              	.LBE548:
 427:lib/helix/real/imdct.c **** 			yHi = (s + (MULSHIFT32(t, *wp++) << 2));
 3281              		.loc 1 427 0 discriminator 3
 3282 0332 02EB8303 		add	r3, r2, r3, lsl #2
 3283              	.LVL613:
 428:lib/helix/real/imdct.c **** 			y[(i)*NBANDS]    = 	yLo;
 3284              		.loc 1 428 0 discriminator 3
 3285 0336 D8F80420 		ldr	r2, [r8, #4]
 3286              	.LVL614:
 3287              	.LBB550:
 3288              	.LBB551:
 326:lib/helix/real/assembly.h **** 	return y;
 3289              		.loc 2 326 0 discriminator 3
 3290              		.syntax unified
 3291              	@ 326 "lib/helix/real/assembly.h" 1
 3292 033a 89FB0282 		smull r8,r2,r9,r2
 3293              	@ 0 "" 2
 3294              	.LVL615:
 3295              		.thumb
 3296              		.syntax unified
 3297 033e CAEB8202 		rsb	r2, r10, r2, lsl #2
 3298              	.LVL616:
 3299              	.LBE551:
 3300              	.LBE550:
 429:lib/helix/real/imdct.c **** 			y[(17-i)*NBANDS] =  yHi;
 3301              		.loc 1 429 0 discriminator 3
 3302 0342 4FEAC118 		lsl	r8, r1, #7
 3303 0346 45F80830 		str	r3, [r5, r8]
 430:lib/helix/real/imdct.c **** 			mOut |= FASTABS(yLo);
 3304              		.loc 1 430 0 discriminator 3
ARM GAS  C:\Users\Patryk\AppData\Local\Temp\ccHDsNa9.s 			page 81


 3305 034a C1F11108 		rsb	r8, r1, #17
 3306 034e 4FEAC818 		lsl	r8, r8, #7
 3307 0352 45F80820 		str	r2, [r5, r8]
 3308              	.LVL617:
 3309              	.LBB552:
 3310              	.LBB553:
 334:lib/helix/real/assembly.h **** 	x ^= sign;
 3311              		.loc 2 334 0 discriminator 3
 3312 0356 4FEAE378 		asr	r8, r3, #31
 3313              	.LVL618:
 335:lib/helix/real/assembly.h **** 	x -= sign;
 3314              		.loc 2 335 0 discriminator 3
 3315 035a 83EA0803 		eor	r3, r3, r8
 3316              	.LVL619:
 3317              		.loc 2 336 0 discriminator 3
 3318 035e A3EB0803 		sub	r3, r3, r8
 3319              	.LVL620:
 3320              	.LBE553:
 3321              	.LBE552:
 431:lib/helix/real/imdct.c **** 			mOut |= FASTABS(yHi);
 3322              		.loc 1 431 0 discriminator 3
 3323 0362 1F43     		orrs	r7, r7, r3
 3324              	.LVL621:
 3325              	.LBB554:
 3326              	.LBB555:
 334:lib/helix/real/assembly.h **** 	x ^= sign;
 3327              		.loc 2 334 0 discriminator 3
 3328 0364 4FEAE278 		asr	r8, r2, #31
 3329              	.LVL622:
 335:lib/helix/real/assembly.h **** 	x -= sign;
 3330              		.loc 2 335 0 discriminator 3
 3331 0368 82EA0803 		eor	r3, r2, r8
 3332              	.LVL623:
 3333              		.loc 2 336 0 discriminator 3
 3334 036c A3EB0803 		sub	r3, r3, r8
 3335              	.LVL624:
 3336              	.LBE555:
 3337              	.LBE554:
 432:lib/helix/real/imdct.c **** 		}
 3338              		.loc 1 432 0 discriminator 3
 3339 0370 1F43     		orrs	r7, r7, r3
 3340              	.LVL625:
 415:lib/helix/real/imdct.c **** 			/* do ARM-style pointer arithmetic (i still needed for y[] indexing - compiler spills if 2 y poi
 3341              		.loc 1 415 0 discriminator 3
 3342 0372 0131     		adds	r1, r1, #1
 3343              	.LVL626:
 428:lib/helix/real/imdct.c **** 			y[(i)*NBANDS]    = 	yLo;
 3344              		.loc 1 428 0 discriminator 3
 3345 0374 A046     		mov	r8, r4
 417:lib/helix/real/imdct.c **** 			/* gain 2 int bits here */
 3346              		.loc 1 417 0 discriminator 3
 3347 0376 7346     		mov	r3, lr
 3348 0378 6246     		mov	r2, ip
 3349              	.LVL627:
 424:lib/helix/real/imdct.c **** 			t = s - d;
 3350              		.loc 1 424 0 discriminator 3
 3351 037a 0446     		mov	r4, r0
ARM GAS  C:\Users\Patryk\AppData\Local\Temp\ccHDsNa9.s 			page 82


 3352              	.LVL628:
 3353              	.L54:
 415:lib/helix/real/imdct.c **** 			/* do ARM-style pointer arithmetic (i still needed for y[] indexing - compiler spills if 2 y poi
 3354              		.loc 1 415 0 discriminator 1
 3355 037c 0829     		cmp	r1, #8
 3356 037e BDDD     		ble	.L56
 3357 0380 0396     		str	r6, [sp, #12]
 3358 0382 0194     		str	r4, [sp, #4]
 3359 0384 0295     		str	r5, [sp, #8]
 3360              	.LVL629:
 3361              	.L57:
 460:lib/helix/real/imdct.c **** 
 3362              		.loc 1 460 0
 3363 0386 039B     		ldr	r3, [sp, #12]
 3364              	.LVL630:
 3365 0388 399A     		ldr	r2, [sp, #228]
 3366              	.LVL631:
 3367 038a 0199     		ldr	r1, [sp, #4]
 3368              	.LVL632:
 3369 038c 2439     		subs	r1, r1, #36
 3370              	.LVL633:
 3371 038e 0298     		ldr	r0, [sp, #8]
 3372 0390 FFF7FEFF 		bl	FreqInvertRescale
 3373              	.LVL634:
 463:lib/helix/real/imdct.c **** 
 3374              		.loc 1 463 0
 3375 0394 3843     		orrs	r0, r0, r7
 3376              	.LVL635:
 3377 0396 2FB0     		add	sp, sp, #188
 3378              	.LCFI11:
 3379              		.cfi_remember_state
 3380              		.cfi_def_cfa_offset 36
 3381              		@ sp needed
 3382 0398 BDE8F08F 		pop	{r4, r5, r6, r7, r8, r9, r10, fp, pc}
 3383              	.LVL636:
 3384              	.L65:
 3385              	.LCFI12:
 3386              		.cfi_restore_state
 438:lib/helix/real/imdct.c **** 
 3387              		.loc 1 438 0
 3388 039c 389A     		ldr	r2, [sp, #224]
 3389 039e 0AA9     		add	r1, sp, #40
 3390 03a0 019C     		ldr	r4, [sp, #4]
 3391 03a2 2046     		mov	r0, r4
 3392 03a4 FFF7FEFF 		bl	WinPrevious
 3393              	.LVL637:
 440:lib/helix/real/imdct.c **** 		for (i = 0; i < 9; i++) {
 3394              		.loc 1 440 0
 3395 03a8 059B     		ldr	r3, [sp, #20]
 3396 03aa 03EBC303 		add	r3, r3, r3, lsl #3
 3397 03ae 0A48     		ldr	r0, .L67+20
 3398 03b0 00EB0310 		add	r0, r0, r3, lsl #4
 3399              	.LVL638:
 410:lib/helix/real/imdct.c **** 	mOut = 0;
 3400              		.loc 1 410 0
 3401 03b4 074B     		ldr	r3, .L67+16
 409:lib/helix/real/imdct.c **** 	cp = c18 + 8;
ARM GAS  C:\Users\Patryk\AppData\Local\Temp\ccHDsNa9.s 			page 83


 3402              		.loc 1 409 0
 3403 03b6 24AA     		add	r2, sp, #144
 3404              	.LVL639:
 411:lib/helix/real/imdct.c **** 	if (btPrev == 0 && btCurr == 0) {
 3405              		.loc 1 411 0
 3406 03b8 0027     		movs	r7, #0
 441:lib/helix/real/imdct.c **** 			c = *cp--;	xo = *(xp + 9);		xe = *xp--;
 3407              		.loc 1 441 0
 3408 03ba 3946     		mov	r1, r7
 3409 03bc 039E     		ldr	r6, [sp, #12]
 3410 03be 029D     		ldr	r5, [sp, #8]
 3411 03c0 4BE0     		b	.L58
 3412              	.L68:
 3413 03c2 00BF     		.align	2
 3414              	.L67:
 3415 03c4 A1EBD96E 		.word	1859775393
 3416 03c8 8BBE0D62 		.word	1645067915
 3417 03cc 7E1A3A16 		.word	372906622
 3418 03d0 322E0E7E 		.word	2114858546
 3419 03d4 20000000 		.word	.LANCHOR1+32
 3420 03d8 00000000 		.word	xmp3fixpt_imdctWin
 3421 03dc 00000000 		.word	.LANCHOR0
 3422              	.LVL640:
 3423              	.L59:
 442:lib/helix/real/imdct.c **** 			/* gain 2 int bits here */
 3424              		.loc 1 442 0 discriminator 3
 3425 03e0 A3F10408 		sub	r8, r3, #4
 3426              	.LVL641:
 3427 03e4 D3F800C0 		ldr	ip, [r3]
 3428              	.LVL642:
 3429 03e8 D2F82490 		ldr	r9, [r2, #36]
 3430              	.LVL643:
 3431 03ec A2F1040E 		sub	lr, r2, #4
 3432              	.LVL644:
 3433 03f0 1368     		ldr	r3, [r2]
 3434              	.LVL645:
 3435              	.LBB556:
 3436              	.LBB557:
 326:lib/helix/real/assembly.h **** 	return y;
 3437              		.loc 2 326 0 discriminator 3
 3438              		.syntax unified
 3439              	@ 326 "lib/helix/real/assembly.h" 1
 3440 03f2 8CFB0929 		smull r2,r9,ip,r9
 3441              	@ 0 "" 2
 3442              	.LVL646:
 3443              		.thumb
 3444              		.syntax unified
 3445              	.LBE557:
 3446              	.LBE556:
 445:lib/helix/real/imdct.c **** 
 3447              		.loc 1 445 0 discriminator 3
 3448 03f6 9B10     		asrs	r3, r3, #2
 3449              	.LVL647:
 447:lib/helix/real/imdct.c **** 			(*xPrev++) = xe + xo;	/* symmetry - xPrev[i] = xPrev[17-i] for long blocks */
 3450              		.loc 1 447 0 discriminator 3
 3451 03f8 A3EB090A 		sub	r10, r3, r9
 3452              	.LVL648:
ARM GAS  C:\Users\Patryk\AppData\Local\Temp\ccHDsNa9.s 			page 84


 448:lib/helix/real/imdct.c **** 			
 3453              		.loc 1 448 0 discriminator 3
 3454 03fc 04F1040C 		add	ip, r4, #4
 3455              	.LVL649:
 3456 0400 4B44     		add	r3, r3, r9
 3457              	.LVL650:
 3458 0402 2360     		str	r3, [r4]
 3459              	.LVL651:
 450:lib/helix/real/imdct.c **** 			yHi = (xPrevWin[17-i] + MULSHIFT32(d, wp[17-i])) << 2;
 3460              		.loc 1 450 0 discriminator 3
 3461 0404 2EAB     		add	r3, sp, #184
 3462 0406 03EB8103 		add	r3, r3, r1, lsl #2
 3463 040a 53F8902C 		ldr	r2, [r3, #-144]
 3464              	.LVL652:
 3465              	.LBB558:
 3466              	.LBB559:
 326:lib/helix/real/assembly.h **** 	return y;
 3467              		.loc 2 326 0 discriminator 3
 3468 040e 50F82130 		ldr	r3, [r0, r1, lsl #2]
 3469              		.syntax unified
 3470              	@ 326 "lib/helix/real/assembly.h" 1
 3471 0412 8AFB0343 		smull r4,r3,r10,r3
 3472              	@ 0 "" 2
 3473              	.LVL653:
 3474              		.thumb
 3475              		.syntax unified
 3476              	.LBE559:
 3477              	.LBE558:
 450:lib/helix/real/imdct.c **** 			yHi = (xPrevWin[17-i] + MULSHIFT32(d, wp[17-i])) << 2;
 3478              		.loc 1 450 0 discriminator 3
 3479 0416 1344     		add	r3, r3, r2
 3480 0418 9B00     		lsls	r3, r3, #2
 3481              	.LVL654:
 451:lib/helix/real/imdct.c **** 			y[(i)*NBANDS]    = yLo;
 3482              		.loc 1 451 0 discriminator 3
 3483 041a C1F11109 		rsb	r9, r1, #17
 3484 041e 2EAA     		add	r2, sp, #184
 3485 0420 02EB8902 		add	r2, r2, r9, lsl #2
 3486 0424 52F8902C 		ldr	r2, [r2, #-144]
 3487              	.LVL655:
 3488              	.LBB560:
 3489              	.LBB561:
 326:lib/helix/real/assembly.h **** 	return y;
 3490              		.loc 2 326 0 discriminator 3
 3491 0428 50F82940 		ldr	r4, [r0, r9, lsl #2]
 3492              		.syntax unified
 3493              	@ 326 "lib/helix/real/assembly.h" 1
 3494 042c 8AFB04B4 		smull fp,r4,r10,r4
 3495              	@ 0 "" 2
 3496              	.LVL656:
 3497              		.thumb
 3498              		.syntax unified
 3499              	.LBE561:
 3500              	.LBE560:
 451:lib/helix/real/imdct.c **** 			y[(i)*NBANDS]    = yLo;
 3501              		.loc 1 451 0 discriminator 3
 3502 0430 2244     		add	r2, r2, r4
ARM GAS  C:\Users\Patryk\AppData\Local\Temp\ccHDsNa9.s 			page 85


 3503 0432 9200     		lsls	r2, r2, #2
 3504              	.LVL657:
 452:lib/helix/real/imdct.c **** 			y[(17-i)*NBANDS] = yHi;
 3505              		.loc 1 452 0 discriminator 3
 3506 0434 CC01     		lsls	r4, r1, #7
 3507 0436 2B51     		str	r3, [r5, r4]
 453:lib/helix/real/imdct.c **** 			mOut |= FASTABS(yLo);
 3508              		.loc 1 453 0 discriminator 3
 3509 0438 4FEAC919 		lsl	r9, r9, #7
 3510 043c 45F80920 		str	r2, [r5, r9]
 3511              	.LVL658:
 3512              	.LBB562:
 3513              	.LBB563:
 334:lib/helix/real/assembly.h **** 	x ^= sign;
 3514              		.loc 2 334 0 discriminator 3
 3515 0440 DC17     		asrs	r4, r3, #31
 3516              	.LVL659:
 335:lib/helix/real/assembly.h **** 	x -= sign;
 3517              		.loc 2 335 0 discriminator 3
 3518 0442 6340     		eors	r3, r3, r4
 3519              	.LVL660:
 3520              		.loc 2 336 0 discriminator 3
 3521 0444 1B1B     		subs	r3, r3, r4
 3522              	.LVL661:
 3523              	.LBE563:
 3524              	.LBE562:
 454:lib/helix/real/imdct.c **** 			mOut |= FASTABS(yHi);
 3525              		.loc 1 454 0 discriminator 3
 3526 0446 3B43     		orrs	r3, r3, r7
 3527              	.LVL662:
 3528              	.LBB564:
 3529              	.LBB565:
 334:lib/helix/real/assembly.h **** 	x ^= sign;
 3530              		.loc 2 334 0 discriminator 3
 3531 0448 D417     		asrs	r4, r2, #31
 3532              	.LVL663:
 335:lib/helix/real/assembly.h **** 	x -= sign;
 3533              		.loc 2 335 0 discriminator 3
 3534 044a 6240     		eors	r2, r2, r4
 3535              	.LVL664:
 3536              		.loc 2 336 0 discriminator 3
 3537 044c 121B     		subs	r2, r2, r4
 3538              	.LVL665:
 3539              	.LBE565:
 3540              	.LBE564:
 455:lib/helix/real/imdct.c **** 		}
 3541              		.loc 1 455 0 discriminator 3
 3542 044e 43EA0207 		orr	r7, r3, r2
 3543              	.LVL666:
 441:lib/helix/real/imdct.c **** 			c = *cp--;	xo = *(xp + 9);		xe = *xp--;
 3544              		.loc 1 441 0 discriminator 3
 3545 0452 0131     		adds	r1, r1, #1
 3546              	.LVL667:
 442:lib/helix/real/imdct.c **** 			/* gain 2 int bits here */
 3547              		.loc 1 442 0 discriminator 3
 3548 0454 4346     		mov	r3, r8
 3549 0456 7246     		mov	r2, lr
ARM GAS  C:\Users\Patryk\AppData\Local\Temp\ccHDsNa9.s 			page 86


 448:lib/helix/real/imdct.c **** 			
 3550              		.loc 1 448 0 discriminator 3
 3551 0458 6446     		mov	r4, ip
 3552              	.LVL668:
 3553              	.L58:
 441:lib/helix/real/imdct.c **** 			c = *cp--;	xo = *(xp + 9);		xe = *xp--;
 3554              		.loc 1 441 0 discriminator 1
 3555 045a 0829     		cmp	r1, #8
 3556 045c C0DD     		ble	.L59
 3557 045e 0396     		str	r6, [sp, #12]
 3558              	.LVL669:
 3559 0460 0194     		str	r4, [sp, #4]
 3560 0462 0295     		str	r5, [sp, #8]
 3561 0464 8FE7     		b	.L57
 3562              		.cfi_endproc
 3563              	.LFE9:
 3565 0466 00BF     		.section	.text.HybridTransform,"ax",%progbits
 3566              		.align	1
 3567              		.syntax unified
 3568              		.thumb
 3569              		.thumb_func
 3570              		.fpu fpv5-sp-d16
 3572              	HybridTransform:
 3573              	.LFB12:
 593:lib/helix/real/imdct.c **** 
 594:lib/helix/real/imdct.c **** /**************************************************************************************
 595:lib/helix/real/imdct.c ****  * Function:    HybridTransform
 596:lib/helix/real/imdct.c ****  *
 597:lib/helix/real/imdct.c ****  * Description: IMDCT's, windowing, and overlap-add on long/short/mixed blocks
 598:lib/helix/real/imdct.c ****  *
 599:lib/helix/real/imdct.c ****  * Inputs:      vector of input coefficients, length = nBlocksTotal * 18)
 600:lib/helix/real/imdct.c ****  *              vector of overlap samples from last time, length = nBlocksPrev * 9)
 601:lib/helix/real/imdct.c ****  *              buffer for output samples, length = MAXNSAMP
 602:lib/helix/real/imdct.c ****  *              SideInfoSub struct for this granule/channel
 603:lib/helix/real/imdct.c ****  *              BlockCount struct with necessary info
 604:lib/helix/real/imdct.c ****  *                number of non-zero input and overlap blocks
 605:lib/helix/real/imdct.c ****  *                number of long blocks in input vector (rest assumed to be short blocks)
 606:lib/helix/real/imdct.c ****  *                number of blocks which use long window (type) 0 in case of mixed block
 607:lib/helix/real/imdct.c ****  *                  (bc->currWinSwitch, 0 for non-mixed blocks)
 608:lib/helix/real/imdct.c ****  *
 609:lib/helix/real/imdct.c ****  * Outputs:     transformed, windowed, and overlapped sample buffer
 610:lib/helix/real/imdct.c ****  *              does frequency inversion on odd blocks
 611:lib/helix/real/imdct.c ****  *              updated buffer of samples for overlap
 612:lib/helix/real/imdct.c ****  *
 613:lib/helix/real/imdct.c ****  * Return:      number of non-zero IMDCT blocks calculated in this call
 614:lib/helix/real/imdct.c ****  *                (including overlap-add)
 615:lib/helix/real/imdct.c ****  *
 616:lib/helix/real/imdct.c ****  * TODO:        examine mixedBlock/winSwitch logic carefully (test he_mode.bit)
 617:lib/helix/real/imdct.c ****  **************************************************************************************/
 618:lib/helix/real/imdct.c **** static int HybridTransform(int *xCurr, int *xPrev, int y[BLOCK_SIZE][NBANDS], SideInfoSub *sis, Blo
 619:lib/helix/real/imdct.c **** {
 3574              		.loc 1 619 0
 3575              		.cfi_startproc
 3576              		@ args = 4, pretend = 0, frame = 72
 3577              		@ frame_needed = 0, uses_anonymous_args = 0
 3578              	.LVL670:
 3579 0000 2DE9F047 		push	{r4, r5, r6, r7, r8, r9, r10, lr}
ARM GAS  C:\Users\Patryk\AppData\Local\Temp\ccHDsNa9.s 			page 87


 3580              	.LCFI13:
 3581              		.cfi_def_cfa_offset 32
 3582              		.cfi_offset 4, -32
 3583              		.cfi_offset 5, -28
 3584              		.cfi_offset 6, -24
 3585              		.cfi_offset 7, -20
 3586              		.cfi_offset 8, -16
 3587              		.cfi_offset 9, -12
 3588              		.cfi_offset 10, -8
 3589              		.cfi_offset 14, -4
 3590 0004 96B0     		sub	sp, sp, #88
 3591              	.LCFI14:
 3592              		.cfi_def_cfa_offset 120
 3593 0006 8146     		mov	r9, r0
 3594 0008 0F46     		mov	r7, r1
 3595 000a 1646     		mov	r6, r2
 3596 000c 9A46     		mov	r10, r3
 3597 000e DDF87880 		ldr	r8, [sp, #120]
 3598              	.LVL671:
 620:lib/helix/real/imdct.c **** 	int xPrevWin[18], currWinIdx, prevWinIdx;
 621:lib/helix/real/imdct.c **** 	int i, j, nBlocksOut, nonZero, mOut;
 622:lib/helix/real/imdct.c **** 	int fiBit, xp;
 623:lib/helix/real/imdct.c **** 
 624:lib/helix/real/imdct.c **** 	ASSERT(bc->nBlocksLong  <= NBANDS);
 625:lib/helix/real/imdct.c **** 	ASSERT(bc->nBlocksTotal <= NBANDS);
 626:lib/helix/real/imdct.c **** 	ASSERT(bc->nBlocksPrev  <= NBANDS);
 627:lib/helix/real/imdct.c **** 
 628:lib/helix/real/imdct.c **** 	mOut = 0;
 3599              		.loc 1 628 0
 3600 0012 0024     		movs	r4, #0
 629:lib/helix/real/imdct.c **** 
 630:lib/helix/real/imdct.c **** 	/* do long blocks, if any */
 631:lib/helix/real/imdct.c **** 	for(i = 0; i < bc->nBlocksLong; i++) {
 3601              		.loc 1 631 0
 3602 0014 2546     		mov	r5, r4
 3603 0016 16E0     		b	.L70
 3604              	.LVL672:
 3605              	.L71:
 632:lib/helix/real/imdct.c **** 		/* currWinIdx picks the right window for long blocks (if mixed, long blocks use window type 0) */
 633:lib/helix/real/imdct.c **** 		currWinIdx = sis->blockType;
 634:lib/helix/real/imdct.c **** 		if (sis->mixedBlock && i < bc->currWinSwitch) 
 635:lib/helix/real/imdct.c **** 			currWinIdx = 0;
 636:lib/helix/real/imdct.c **** 
 637:lib/helix/real/imdct.c **** 		prevWinIdx = bc->prevType;
 3606              		.loc 1 637 0
 3607 0018 D8F80C20 		ldr	r2, [r8, #12]
 3608              	.LVL673:
 638:lib/helix/real/imdct.c **** 		if (i < bc->prevWinSwitch)
 3609              		.loc 1 638 0
 3610 001c D8F81010 		ldr	r1, [r8, #16]
 3611 0020 A942     		cmp	r1, r5
 3612 0022 00DD     		ble	.L72
 639:lib/helix/real/imdct.c **** 			 prevWinIdx = 0;
 3613              		.loc 1 639 0
 3614 0024 0022     		movs	r2, #0
 3615              	.LVL674:
 3616              	.L72:
ARM GAS  C:\Users\Patryk\AppData\Local\Temp\ccHDsNa9.s 			page 88


 640:lib/helix/real/imdct.c **** 
 641:lib/helix/real/imdct.c **** 		/* do 36-point IMDCT, including windowing and overlap-add */
 642:lib/helix/real/imdct.c **** 		mOut |= IMDCT36(xCurr, xPrev, &(y[0][i]), currWinIdx, prevWinIdx, i, bc->gbIn);
 3617              		.loc 1 642 0 discriminator 2
 3618 0026 D8F81810 		ldr	r1, [r8, #24]
 3619 002a 0291     		str	r1, [sp, #8]
 3620 002c 0195     		str	r5, [sp, #4]
 3621 002e 0092     		str	r2, [sp]
 3622 0030 06EB8502 		add	r2, r6, r5, lsl #2
 3623              	.LVL675:
 3624 0034 3946     		mov	r1, r7
 3625 0036 4846     		mov	r0, r9
 3626 0038 FFF7FEFF 		bl	IMDCT36
 3627              	.LVL676:
 3628 003c 0443     		orrs	r4, r4, r0
 3629              	.LVL677:
 643:lib/helix/real/imdct.c **** 		xCurr += 18;
 3630              		.loc 1 643 0 discriminator 2
 3631 003e 09F14809 		add	r9, r9, #72
 3632              	.LVL678:
 644:lib/helix/real/imdct.c **** 		xPrev += 9;
 3633              		.loc 1 644 0 discriminator 2
 3634 0042 2437     		adds	r7, r7, #36
 3635              	.LVL679:
 631:lib/helix/real/imdct.c **** 		/* currWinIdx picks the right window for long blocks (if mixed, long blocks use window type 0) */
 3636              		.loc 1 631 0 discriminator 2
 3637 0044 0135     		adds	r5, r5, #1
 3638              	.LVL680:
 3639              	.L70:
 631:lib/helix/real/imdct.c **** 		/* currWinIdx picks the right window for long blocks (if mixed, long blocks use window type 0) */
 3640              		.loc 1 631 0 is_stmt 0 discriminator 1
 3641 0046 D8F80030 		ldr	r3, [r8]
 3642 004a AB42     		cmp	r3, r5
 3643 004c 1ADD     		ble	.L74
 633:lib/helix/real/imdct.c **** 		if (sis->mixedBlock && i < bc->currWinSwitch) 
 3644              		.loc 1 633 0 is_stmt 1
 3645 004e DAF81430 		ldr	r3, [r10, #20]
 3646              	.LVL681:
 634:lib/helix/real/imdct.c **** 			currWinIdx = 0;
 3647              		.loc 1 634 0
 3648 0052 DAF81820 		ldr	r2, [r10, #24]
 3649 0056 002A     		cmp	r2, #0
 3650 0058 DED0     		beq	.L71
 634:lib/helix/real/imdct.c **** 			currWinIdx = 0;
 3651              		.loc 1 634 0 is_stmt 0 discriminator 1
 3652 005a D8F81420 		ldr	r2, [r8, #20]
 3653 005e AA42     		cmp	r2, r5
 3654 0060 DADD     		ble	.L71
 635:lib/helix/real/imdct.c **** 
 3655              		.loc 1 635 0 is_stmt 1
 3656 0062 0023     		movs	r3, #0
 3657              	.LVL682:
 3658 0064 D8E7     		b	.L71
 3659              	.LVL683:
 3660              	.L75:
 645:lib/helix/real/imdct.c **** 	}
 646:lib/helix/real/imdct.c **** 
ARM GAS  C:\Users\Patryk\AppData\Local\Temp\ccHDsNa9.s 			page 89


 647:lib/helix/real/imdct.c **** 	/* do short blocks (if any) */
 648:lib/helix/real/imdct.c **** 	for (   ; i < bc->nBlocksTotal; i++) {
 649:lib/helix/real/imdct.c **** 		ASSERT(sis->blockType == 2);
 650:lib/helix/real/imdct.c **** 
 651:lib/helix/real/imdct.c **** 		prevWinIdx = bc->prevType;
 652:lib/helix/real/imdct.c **** 		if (i < bc->prevWinSwitch)
 653:lib/helix/real/imdct.c **** 			 prevWinIdx = 0;
 654:lib/helix/real/imdct.c **** 		
 655:lib/helix/real/imdct.c **** 		mOut |= IMDCT12x3(xCurr, xPrev, &(y[0][i]), prevWinIdx, i, bc->gbIn);
 3661              		.loc 1 655 0
 3662 0066 D8F81820 		ldr	r2, [r8, #24]
 3663 006a 0192     		str	r2, [sp, #4]
 3664 006c 0095     		str	r5, [sp]
 3665 006e 06EB8502 		add	r2, r6, r5, lsl #2
 3666 0072 3946     		mov	r1, r7
 3667 0074 4846     		mov	r0, r9
 3668 0076 FFF7FEFF 		bl	IMDCT12x3
 3669              	.LVL684:
 3670 007a 0443     		orrs	r4, r4, r0
 3671              	.LVL685:
 656:lib/helix/real/imdct.c **** 		xCurr += 18;
 3672              		.loc 1 656 0
 3673 007c 09F14809 		add	r9, r9, #72
 3674              	.LVL686:
 657:lib/helix/real/imdct.c **** 		xPrev += 9;
 3675              		.loc 1 657 0
 3676 0080 2437     		adds	r7, r7, #36
 3677              	.LVL687:
 648:lib/helix/real/imdct.c **** 		ASSERT(sis->blockType == 2);
 3678              		.loc 1 648 0
 3679 0082 0135     		adds	r5, r5, #1
 3680              	.LVL688:
 3681              	.L74:
 648:lib/helix/real/imdct.c **** 		ASSERT(sis->blockType == 2);
 3682              		.loc 1 648 0 is_stmt 0 discriminator 1
 3683 0084 D8F80430 		ldr	r3, [r8, #4]
 3684 0088 AB42     		cmp	r3, r5
 3685 008a 07DD     		ble	.L93
 651:lib/helix/real/imdct.c **** 		if (i < bc->prevWinSwitch)
 3686              		.loc 1 651 0 is_stmt 1
 3687 008c D8F80C30 		ldr	r3, [r8, #12]
 3688              	.LVL689:
 652:lib/helix/real/imdct.c **** 			 prevWinIdx = 0;
 3689              		.loc 1 652 0
 3690 0090 D8F81020 		ldr	r2, [r8, #16]
 3691 0094 AA42     		cmp	r2, r5
 3692 0096 E6DD     		ble	.L75
 653:lib/helix/real/imdct.c **** 		
 3693              		.loc 1 653 0
 3694 0098 0023     		movs	r3, #0
 3695              	.LVL690:
 3696 009a E4E7     		b	.L75
 3697              	.LVL691:
 3698              	.L93:
 658:lib/helix/real/imdct.c **** 	}
 659:lib/helix/real/imdct.c **** 	nBlocksOut = i;
 3699              		.loc 1 659 0
ARM GAS  C:\Users\Patryk\AppData\Local\Temp\ccHDsNa9.s 			page 90


 3700 009c A946     		mov	r9, r5
 3701              	.LVL692:
 3702 009e 39E0     		b	.L77
 3703              	.LVL693:
 3704              	.L80:
 660:lib/helix/real/imdct.c **** 	
 661:lib/helix/real/imdct.c **** 	/* window and overlap prev if prev longer that current */
 662:lib/helix/real/imdct.c **** 	for (   ; i < bc->nBlocksPrev; i++) {
 663:lib/helix/real/imdct.c **** 		prevWinIdx = bc->prevType;
 664:lib/helix/real/imdct.c **** 		if (i < bc->prevWinSwitch)
 665:lib/helix/real/imdct.c **** 			 prevWinIdx = 0;
 666:lib/helix/real/imdct.c **** 		WinPrevious(xPrev, xPrevWin, prevWinIdx);
 667:lib/helix/real/imdct.c **** 
 668:lib/helix/real/imdct.c **** 		nonZero = 0;
 669:lib/helix/real/imdct.c **** 		fiBit = i << 31;
 670:lib/helix/real/imdct.c **** 		for (j = 0; j < 9; j++) {
 671:lib/helix/real/imdct.c **** 			xp = xPrevWin[2*j+0] << 2;	/* << 2 temp for scaling */
 3705              		.loc 1 671 0 discriminator 3
 3706 00a0 4FEA420E 		lsl	lr, r2, #1
 3707 00a4 16AB     		add	r3, sp, #88
 3708 00a6 03EBC203 		add	r3, r3, r2, lsl #3
 3709 00aa 53F8483C 		ldr	r3, [r3, #-72]
 3710 00ae 9B00     		lsls	r3, r3, #2
 3711              	.LVL694:
 672:lib/helix/real/imdct.c **** 			nonZero |= xp;
 3712              		.loc 1 672 0 discriminator 3
 3713 00b0 1943     		orrs	r1, r1, r3
 3714              	.LVL695:
 673:lib/helix/real/imdct.c **** 			y[2*j+0][i] = xp;
 3715              		.loc 1 673 0 discriminator 3
 3716 00b2 4FEA022C 		lsl	ip, r2, #8
 3717 00b6 06EB0C0A 		add	r10, r6, ip
 3718 00ba 4AF82530 		str	r3, [r10, r5, lsl #2]
 3719              	.LVL696:
 3720              	.LBB566:
 3721              	.LBB567:
 334:lib/helix/real/assembly.h **** 	x ^= sign;
 3722              		.loc 2 334 0 discriminator 3
 3723 00be 4FEAE37A 		asr	r10, r3, #31
 3724              	.LVL697:
 335:lib/helix/real/assembly.h **** 	x -= sign;
 3725              		.loc 2 335 0 discriminator 3
 3726 00c2 83EA0A03 		eor	r3, r3, r10
 3727              	.LVL698:
 3728              		.loc 2 336 0 discriminator 3
 3729 00c6 A3EB0A03 		sub	r3, r3, r10
 3730              	.LVL699:
 3731              	.LBE567:
 3732              	.LBE566:
 674:lib/helix/real/imdct.c **** 			mOut |= FASTABS(xp);
 3733              		.loc 1 674 0 discriminator 3
 3734 00ca 1C43     		orrs	r4, r4, r3
 3735              	.LVL700:
 675:lib/helix/real/imdct.c **** 
 676:lib/helix/real/imdct.c **** 			/* frequency inversion on odd blocks/odd samples (flip sign if i odd, j odd) */
 677:lib/helix/real/imdct.c **** 			xp = xPrevWin[2*j+1] << 2;
 3736              		.loc 1 677 0 discriminator 3
ARM GAS  C:\Users\Patryk\AppData\Local\Temp\ccHDsNa9.s 			page 91


 3737 00cc 0EF1010E 		add	lr, lr, #1
 3738 00d0 16AB     		add	r3, sp, #88
 3739 00d2 03EB8E0E 		add	lr, r3, lr, lsl #2
 3740 00d6 5EF848EC 		ldr	lr, [lr, #-72]
 3741              	.LVL701:
 678:lib/helix/real/imdct.c **** 			xp = (xp ^ (fiBit >> 31)) + (i & 0x01);	
 3742              		.loc 1 678 0 discriminator 3
 3743 00da C317     		asrs	r3, r0, #31
 3744 00dc 83EA8E03 		eor	r3, r3, lr, lsl #2
 3745 00e0 05F0010E 		and	lr, r5, #1
 3746              	.LVL702:
 3747 00e4 7344     		add	r3, r3, lr
 3748              	.LVL703:
 679:lib/helix/real/imdct.c **** 			nonZero |= xp;
 3749              		.loc 1 679 0 discriminator 3
 3750 00e6 1943     		orrs	r1, r1, r3
 3751              	.LVL704:
 680:lib/helix/real/imdct.c **** 			y[2*j+1][i] = xp;
 3752              		.loc 1 680 0 discriminator 3
 3753 00e8 0CF1800C 		add	ip, ip, #128
 3754 00ec B444     		add	ip, ip, r6
 3755 00ee 4CF82530 		str	r3, [ip, r5, lsl #2]
 3756              	.LVL705:
 3757              	.LBB568:
 3758              	.LBB569:
 334:lib/helix/real/assembly.h **** 	x ^= sign;
 3759              		.loc 2 334 0 discriminator 3
 3760 00f2 4FEAE37C 		asr	ip, r3, #31
 3761              	.LVL706:
 335:lib/helix/real/assembly.h **** 	x -= sign;
 3762              		.loc 2 335 0 discriminator 3
 3763 00f6 8CEA0303 		eor	r3, ip, r3
 3764              	.LVL707:
 3765              		.loc 2 336 0 discriminator 3
 3766 00fa A3EB0C03 		sub	r3, r3, ip
 3767              	.LVL708:
 3768              	.LBE569:
 3769              	.LBE568:
 681:lib/helix/real/imdct.c **** 			mOut |= FASTABS(xp);
 3770              		.loc 1 681 0 discriminator 3
 3771 00fe 1C43     		orrs	r4, r4, r3
 3772              	.LVL709:
 682:lib/helix/real/imdct.c **** 
 683:lib/helix/real/imdct.c **** 			xPrev[j] = 0;
 3773              		.loc 1 683 0 discriminator 3
 3774 0100 0023     		movs	r3, #0
 3775 0102 47F82230 		str	r3, [r7, r2, lsl #2]
 3776              	.LVL710:
 670:lib/helix/real/imdct.c **** 			xp = xPrevWin[2*j+0] << 2;	/* << 2 temp for scaling */
 3777              		.loc 1 670 0 discriminator 3
 3778 0106 0132     		adds	r2, r2, #1
 3779              	.LVL711:
 3780              	.L79:
 670:lib/helix/real/imdct.c **** 			xp = xPrevWin[2*j+0] << 2;	/* << 2 temp for scaling */
 3781              		.loc 1 670 0 is_stmt 0 discriminator 1
 3782 0108 082A     		cmp	r2, #8
 3783 010a C9DD     		ble	.L80
ARM GAS  C:\Users\Patryk\AppData\Local\Temp\ccHDsNa9.s 			page 92


 684:lib/helix/real/imdct.c **** 		}
 685:lib/helix/real/imdct.c **** 		xPrev += 9;
 3784              		.loc 1 685 0 is_stmt 1
 3785 010c 2437     		adds	r7, r7, #36
 3786              	.LVL712:
 686:lib/helix/real/imdct.c **** 		if (nonZero)
 3787              		.loc 1 686 0
 3788 010e 01B1     		cbz	r1, .L81
 687:lib/helix/real/imdct.c **** 			nBlocksOut = i;
 3789              		.loc 1 687 0
 3790 0110 A946     		mov	r9, r5
 3791              	.LVL713:
 3792              	.L81:
 662:lib/helix/real/imdct.c **** 		prevWinIdx = bc->prevType;
 3793              		.loc 1 662 0
 3794 0112 0135     		adds	r5, r5, #1
 3795              	.LVL714:
 3796              	.L77:
 662:lib/helix/real/imdct.c **** 		prevWinIdx = bc->prevType;
 3797              		.loc 1 662 0 is_stmt 0 discriminator 1
 3798 0114 D8F80830 		ldr	r3, [r8, #8]
 3799 0118 AB42     		cmp	r3, r5
 3800 011a 17DD     		ble	.L83
 663:lib/helix/real/imdct.c **** 		if (i < bc->prevWinSwitch)
 3801              		.loc 1 663 0 is_stmt 1
 3802 011c D8F80C20 		ldr	r2, [r8, #12]
 3803              	.LVL715:
 664:lib/helix/real/imdct.c **** 			 prevWinIdx = 0;
 3804              		.loc 1 664 0
 3805 0120 D8F81030 		ldr	r3, [r8, #16]
 3806 0124 AB42     		cmp	r3, r5
 3807 0126 00DD     		ble	.L78
 665:lib/helix/real/imdct.c **** 		WinPrevious(xPrev, xPrevWin, prevWinIdx);
 3808              		.loc 1 665 0
 3809 0128 0022     		movs	r2, #0
 3810              	.LVL716:
 3811              	.L78:
 666:lib/helix/real/imdct.c **** 
 3812              		.loc 1 666 0
 3813 012a 04A9     		add	r1, sp, #16
 3814 012c 3846     		mov	r0, r7
 3815 012e FFF7FEFF 		bl	WinPrevious
 3816              	.LVL717:
 669:lib/helix/real/imdct.c **** 		for (j = 0; j < 9; j++) {
 3817              		.loc 1 669 0
 3818 0132 E807     		lsls	r0, r5, #31
 3819              	.LVL718:
 668:lib/helix/real/imdct.c **** 		fiBit = i << 31;
 3820              		.loc 1 668 0
 3821 0134 0021     		movs	r1, #0
 670:lib/helix/real/imdct.c **** 			xp = xPrevWin[2*j+0] << 2;	/* << 2 temp for scaling */
 3822              		.loc 1 670 0
 3823 0136 0A46     		mov	r2, r1
 3824 0138 E6E7     		b	.L79
 3825              	.LVL719:
 3826              	.L84:
 688:lib/helix/real/imdct.c **** 	}
ARM GAS  C:\Users\Patryk\AppData\Local\Temp\ccHDsNa9.s 			page 93


 689:lib/helix/real/imdct.c **** 	
 690:lib/helix/real/imdct.c **** 	/* clear rest of blocks */
 691:lib/helix/real/imdct.c **** 	for (   ; i < 32; i++) {
 692:lib/helix/real/imdct.c **** 		for (j = 0; j < 18; j++) 
 693:lib/helix/real/imdct.c **** 			y[j][i] = 0;
 3827              		.loc 1 693 0 discriminator 3
 3828 013a 06EBC312 		add	r2, r6, r3, lsl #7
 3829 013e 0021     		movs	r1, #0
 3830 0140 42F82510 		str	r1, [r2, r5, lsl #2]
 692:lib/helix/real/imdct.c **** 			y[j][i] = 0;
 3831              		.loc 1 692 0 discriminator 3
 3832 0144 0133     		adds	r3, r3, #1
 3833              	.LVL720:
 3834              	.L85:
 692:lib/helix/real/imdct.c **** 			y[j][i] = 0;
 3835              		.loc 1 692 0 is_stmt 0 discriminator 1
 3836 0146 112B     		cmp	r3, #17
 3837 0148 F7DD     		ble	.L84
 691:lib/helix/real/imdct.c **** 		for (j = 0; j < 18; j++) 
 3838              		.loc 1 691 0 is_stmt 1
 3839 014a 0135     		adds	r5, r5, #1
 3840              	.LVL721:
 3841              	.L83:
 691:lib/helix/real/imdct.c **** 		for (j = 0; j < 18; j++) 
 3842              		.loc 1 691 0 is_stmt 0 discriminator 1
 3843 014c 1F2D     		cmp	r5, #31
 3844 014e 01DC     		bgt	.L94
 692:lib/helix/real/imdct.c **** 			y[j][i] = 0;
 3845              		.loc 1 692 0 is_stmt 1
 3846 0150 0023     		movs	r3, #0
 3847 0152 F8E7     		b	.L85
 3848              	.L94:
 3849              	.LVL722:
 3850              	.LBB570:
 3851              	.LBB571:
 337:lib/helix/real/assembly.h **** 
 338:lib/helix/real/assembly.h **** 	return x;
 339:lib/helix/real/assembly.h **** }
 340:lib/helix/real/assembly.h **** 
 341:lib/helix/real/assembly.h **** static __inline int CLZ(int x)
 342:lib/helix/real/assembly.h **** {
 343:lib/helix/real/assembly.h **** 	int numZeros;
 344:lib/helix/real/assembly.h **** 
 345:lib/helix/real/assembly.h **** 	/*if (!x)
 346:lib/helix/real/assembly.h **** return (sizeof(int) * 8);
 347:lib/helix/real/assembly.h **** 
 348:lib/helix/real/assembly.h **** numZeros = 0;
 349:lib/helix/real/assembly.h **** while (!(x & 0x80000000)) {
 350:lib/helix/real/assembly.h **** numZeros++;
 351:lib/helix/real/assembly.h **** x <
 352:lib/helix/real/assembly.h **** }*/
 353:lib/helix/real/assembly.h **** 
 354:lib/helix/real/assembly.h **** 	__asm__ ("clz %0, %1" : "=r" (numZeros) : "r" (x) : "cc");
 3852              		.loc 2 354 0
 3853              		.syntax unified
 3854              	@ 354 "lib/helix/real/assembly.h" 1
 3855 0154 B4FA84F3 		clz r3, r4
ARM GAS  C:\Users\Patryk\AppData\Local\Temp\ccHDsNa9.s 			page 94


 3856              	@ 0 "" 2
 3857              	.LVL723:
 3858              		.thumb
 3859              		.syntax unified
 3860              	.LBE571:
 3861              	.LBE570:
 694:lib/helix/real/imdct.c **** 	}
 695:lib/helix/real/imdct.c **** 
 696:lib/helix/real/imdct.c **** 	bc->gbOut = CLZ(mOut) - 1;
 3862              		.loc 1 696 0
 3863 0158 013B     		subs	r3, r3, #1
 3864 015a C8F81C30 		str	r3, [r8, #28]
 697:lib/helix/real/imdct.c **** 
 698:lib/helix/real/imdct.c **** 	return nBlocksOut;
 699:lib/helix/real/imdct.c **** }
 3865              		.loc 1 699 0
 3866 015e 4846     		mov	r0, r9
 3867 0160 16B0     		add	sp, sp, #88
 3868              	.LCFI15:
 3869              		.cfi_def_cfa_offset 32
 3870              		@ sp needed
 3871 0162 BDE8F087 		pop	{r4, r5, r6, r7, r8, r9, r10, pc}
 3872              		.cfi_endproc
 3873              	.LFE12:
 3875              		.section	.text.xmp3fixpt_IMDCT,"ax",%progbits
 3876              		.align	1
 3877              		.global	xmp3fixpt_IMDCT
 3878              		.syntax unified
 3879              		.thumb
 3880              		.thumb_func
 3881              		.fpu fpv5-sp-d16
 3883              	xmp3fixpt_IMDCT:
 3884              	.LFB13:
 700:lib/helix/real/imdct.c **** 
 701:lib/helix/real/imdct.c **** /**************************************************************************************
 702:lib/helix/real/imdct.c ****  * Function:    IMDCT
 703:lib/helix/real/imdct.c ****  *
 704:lib/helix/real/imdct.c ****  * Description: do alias reduction, inverse MDCT, overlap-add, and frequency inversion
 705:lib/helix/real/imdct.c ****  *
 706:lib/helix/real/imdct.c ****  * Inputs:      MP3DecInfo structure filled by UnpackFrameHeader(), UnpackSideInfo(),
 707:lib/helix/real/imdct.c ****  *                UnpackScaleFactors(), and DecodeHuffman() (for this granule, channel)
 708:lib/helix/real/imdct.c ****  *                includes PCM samples in overBuf (from last call to IMDCT) for OLA
 709:lib/helix/real/imdct.c ****  *              index of current granule and channel
 710:lib/helix/real/imdct.c ****  *
 711:lib/helix/real/imdct.c ****  * Outputs:     PCM samples in outBuf, for input to subband transform
 712:lib/helix/real/imdct.c ****  *              PCM samples in overBuf, for OLA next time
 713:lib/helix/real/imdct.c ****  *              updated hi->nonZeroBound index for this channel
 714:lib/helix/real/imdct.c ****  *
 715:lib/helix/real/imdct.c ****  * Return:      0 on success,  -1 if null input pointers
 716:lib/helix/real/imdct.c ****  **************************************************************************************/
 717:lib/helix/real/imdct.c **** int IMDCT(MP3DecInfo *mp3DecInfo, int gr, int ch)
 718:lib/helix/real/imdct.c **** {
 3885              		.loc 1 718 0
 3886              		.cfi_startproc
 3887              		@ args = 0, pretend = 0, frame = 40
 3888              		@ frame_needed = 0, uses_anonymous_args = 0
 3889              	.LVL724:
ARM GAS  C:\Users\Patryk\AppData\Local\Temp\ccHDsNa9.s 			page 95


 719:lib/helix/real/imdct.c **** 	int nBfly, blockCutoff;
 720:lib/helix/real/imdct.c **** 	FrameHeader *fh;
 721:lib/helix/real/imdct.c **** 	SideInfo *si;
 722:lib/helix/real/imdct.c **** 	HuffmanInfo *hi;
 723:lib/helix/real/imdct.c **** 	IMDCTInfo *mi;
 724:lib/helix/real/imdct.c **** 	BlockCount bc;
 725:lib/helix/real/imdct.c **** 
 726:lib/helix/real/imdct.c **** 	/* validate pointers */
 727:lib/helix/real/imdct.c **** 	if (!mp3DecInfo || !mp3DecInfo->FrameHeaderPS || !mp3DecInfo->SideInfoPS || 
 3890              		.loc 1 727 0
 3891 0000 0028     		cmp	r0, #0
 3892 0002 00F0D180 		beq	.L102
 3893 0006 0346     		mov	r3, r0
 3894              		.loc 1 727 0 is_stmt 0 discriminator 1
 3895 0008 0068     		ldr	r0, [r0]
 3896              	.LVL725:
 3897 000a 0028     		cmp	r0, #0
 3898 000c 00F0CF80 		beq	.L103
 718:lib/helix/real/imdct.c **** 	int nBfly, blockCutoff;
 3899              		.loc 1 718 0 is_stmt 1 discriminator 2
 3900 0010 2DE9F04F 		push	{r4, r5, r6, r7, r8, r9, r10, fp, lr}
 3901              	.LCFI16:
 3902              		.cfi_def_cfa_offset 36
 3903              		.cfi_offset 4, -36
 3904              		.cfi_offset 5, -32
 3905              		.cfi_offset 6, -28
 3906              		.cfi_offset 7, -24
 3907              		.cfi_offset 8, -20
 3908              		.cfi_offset 9, -16
 3909              		.cfi_offset 10, -12
 3910              		.cfi_offset 11, -8
 3911              		.cfi_offset 14, -4
 3912 0014 8DB0     		sub	sp, sp, #52
 3913              	.LCFI17:
 3914              		.cfi_def_cfa_offset 88
 3915              		.loc 1 727 0 discriminator 2
 3916 0016 D3F80480 		ldr	r8, [r3, #4]
 3917 001a B8F1000F 		cmp	r8, #0
 3918 001e 00F0C980 		beq	.L104
 728:lib/helix/real/imdct.c **** 		!mp3DecInfo->HuffmanInfoPS || !mp3DecInfo->IMDCTInfoPS)
 3919              		.loc 1 728 0 discriminator 3
 3920 0022 D3F80C90 		ldr	r9, [r3, #12]
 727:lib/helix/real/imdct.c **** 		!mp3DecInfo->HuffmanInfoPS || !mp3DecInfo->IMDCTInfoPS)
 3921              		.loc 1 727 0 discriminator 3
 3922 0026 B9F1000F 		cmp	r9, #0
 3923 002a 00F0C680 		beq	.L105
 3924              		.loc 1 728 0
 3925 002e 5E69     		ldr	r6, [r3, #20]
 3926 0030 002E     		cmp	r6, #0
 3927 0032 00F0C580 		beq	.L106
 3928              	.LVL726:
 729:lib/helix/real/imdct.c **** 		return -1;
 730:lib/helix/real/imdct.c **** 
 731:lib/helix/real/imdct.c **** 	/* si is an array of up to 4 structs, stored as gr0ch0, gr0ch1, gr1ch0, gr1ch1 */
 732:lib/helix/real/imdct.c **** 	fh = (FrameHeader *)(mp3DecInfo->FrameHeaderPS);
 733:lib/helix/real/imdct.c **** 	si = (SideInfo *)(mp3DecInfo->SideInfoPS);
 734:lib/helix/real/imdct.c **** 	hi = (HuffmanInfo*)(mp3DecInfo->HuffmanInfoPS);
ARM GAS  C:\Users\Patryk\AppData\Local\Temp\ccHDsNa9.s 			page 96


 735:lib/helix/real/imdct.c **** 	mi = (IMDCTInfo *)(mp3DecInfo->IMDCTInfoPS);
 736:lib/helix/real/imdct.c **** 
 737:lib/helix/real/imdct.c **** 	/* anti-aliasing done on whole long blocks only
 738:lib/helix/real/imdct.c **** 	 * for mixed blocks, nBfly always 1, except 3 for 8 kHz MPEG 2.5 (see sfBandTab) 
 739:lib/helix/real/imdct.c ****      *   nLongBlocks = number of blocks with (possibly) non-zero power 
 740:lib/helix/real/imdct.c **** 	 *   nBfly = number of butterflies to do (nLongBlocks - 1, unless no long blocks)
 741:lib/helix/real/imdct.c **** 	 */
 742:lib/helix/real/imdct.c **** 	blockCutoff = fh->sfBand->l[(fh->ver == MPEG1 ? 8 : 6)] / 18;	/* same as 3* num short sfb's in spe
 3929              		.loc 1 742 0
 3930 0036 436B     		ldr	r3, [r0, #52]
 3931              	.LVL727:
 3932 0038 0078     		ldrb	r0, [r0]	@ zero_extendqisi2
 3933              	.LVL728:
 3934 003a 0028     		cmp	r0, #0
 3935 003c 40F0A180 		bne	.L107
 3936 0040 0820     		movs	r0, #8
 3937              	.L97:
 3938              		.loc 1 742 0 is_stmt 0 discriminator 4
 3939 0042 33F91030 		ldrsh	r3, [r3, r0, lsl #1]
 3940 0046 6048     		ldr	r0, .L112
 3941 0048 80FB0340 		smull	r4, r0, r0, r3
 3942 004c DB17     		asrs	r3, r3, #31
 3943 004e C3EBA003 		rsb	r3, r3, r0, asr #2
 3944 0052 1BB2     		sxth	r3, r3
 3945 0054 0393     		str	r3, [sp, #12]
 3946              	.LVL729:
 743:lib/helix/real/imdct.c **** 	if (si->sis[gr][ch].blockType != 2) {
 3947              		.loc 1 743 0 is_stmt 1 discriminator 4
 3948 0056 02EBC200 		add	r0, r2, r2, lsl #3
 3949 005a C300     		lsls	r3, r0, #3
 3950              	.LVL730:
 3951 005c 01EBC104 		add	r4, r1, r1, lsl #3
 3952 0060 2001     		lsls	r0, r4, #4
 3953 0062 0344     		add	r3, r3, r0
 3954 0064 4344     		add	r3, r3, r8
 3955 0066 DB6B     		ldr	r3, [r3, #60]
 3956 0068 022B     		cmp	r3, #2
 3957 006a 00F08C80 		beq	.L98
 744:lib/helix/real/imdct.c **** 		/* all long transforms */
 745:lib/helix/real/imdct.c **** 		bc.nBlocksLong = MIN((hi->nonZeroBound[ch] + 7) / 18 + 1, 32);	
 3958              		.loc 1 745 0
 3959 006e 02F59063 		add	r3, r2, #1152
 3960 0072 59F82330 		ldr	r3, [r9, r3, lsl #2]
 3961 0076 0733     		adds	r3, r3, #7
 3962 0078 5348     		ldr	r0, .L112
 3963 007a 80FB0340 		smull	r4, r0, r0, r3
 3964 007e DD17     		asrs	r5, r3, #31
 3965 0080 C5EBA005 		rsb	r5, r5, r0, asr #2
 3966 0084 0135     		adds	r5, r5, #1
 3967 0086 202D     		cmp	r5, #32
 3968 0088 A8BF     		it	ge
 3969 008a 2025     		movge	r5, #32
 3970 008c 0495     		str	r5, [sp, #16]
 3971              	.LVL731:
 746:lib/helix/real/imdct.c **** 		nBfly = bc.nBlocksLong - 1;
 3972              		.loc 1 746 0
 3973 008e 013D     		subs	r5, r5, #1
ARM GAS  C:\Users\Patryk\AppData\Local\Temp\ccHDsNa9.s 			page 97


 3974              	.LVL732:
 3975              	.L99:
 3976 0090 1446     		mov	r4, r2
 3977 0092 0F46     		mov	r7, r1
 3978              	.LVL733:
 747:lib/helix/real/imdct.c **** 	} else if (si->sis[gr][ch].blockType == 2 && si->sis[gr][ch].mixedBlock) {
 748:lib/helix/real/imdct.c **** 		/* mixed block - long transforms until cutoff, then short transforms */
 749:lib/helix/real/imdct.c **** 		bc.nBlocksLong = blockCutoff;	
 750:lib/helix/real/imdct.c **** 		nBfly = bc.nBlocksLong - 1;
 751:lib/helix/real/imdct.c **** 	} else {
 752:lib/helix/real/imdct.c **** 		/* all short transforms */
 753:lib/helix/real/imdct.c **** 		bc.nBlocksLong = 0;
 754:lib/helix/real/imdct.c **** 		nBfly = 0;
 755:lib/helix/real/imdct.c **** 	}
 756:lib/helix/real/imdct.c ****  
 757:lib/helix/real/imdct.c **** 	AntiAlias(hi->huffDecBuf[ch], nBfly);
 3979              		.loc 1 757 0
 3980 0094 4FEAC20B 		lsl	fp, r2, #3
 3981 0098 0BEB0203 		add	r3, fp, r2
 3982 009c 4FEA032A 		lsl	r10, r3, #8
 3983 00a0 CA44     		add	r10, r10, r9
 3984 00a2 2946     		mov	r1, r5
 3985              	.LVL734:
 3986 00a4 5046     		mov	r0, r10
 3987 00a6 FFF7FEFF 		bl	AntiAlias
 3988              	.LVL735:
 758:lib/helix/real/imdct.c **** 	hi->nonZeroBound[ch] = MAX(hi->nonZeroBound[ch], (nBfly * 18) + 8);
 3989              		.loc 1 758 0
 3990 00aa 05EBC505 		add	r5, r5, r5, lsl #3
 3991              	.LVL736:
 3992 00ae 6B00     		lsls	r3, r5, #1
 3993 00b0 0833     		adds	r3, r3, #8
 3994 00b2 04F59062 		add	r2, r4, #1152
 3995 00b6 59F82210 		ldr	r1, [r9, r2, lsl #2]
 3996 00ba 8B42     		cmp	r3, r1
 3997 00bc B8BF     		it	lt
 3998 00be 0B46     		movlt	r3, r1
 3999 00c0 49F82230 		str	r3, [r9, r2, lsl #2]
 759:lib/helix/real/imdct.c **** 
 760:lib/helix/real/imdct.c **** 	ASSERT(hi->nonZeroBound[ch] <= MAX_NSAMP);
 761:lib/helix/real/imdct.c **** 
 762:lib/helix/real/imdct.c **** 	/* for readability, use a struct instead of passing a million parameters to HybridTransform() */
 763:lib/helix/real/imdct.c **** 	bc.nBlocksTotal = (hi->nonZeroBound[ch] + 17) / 18;
 4000              		.loc 1 763 0
 4001 00c4 1133     		adds	r3, r3, #17
 4002 00c6 404A     		ldr	r2, .L112
 4003 00c8 82FB0312 		smull	r1, r2, r2, r3
 4004 00cc DB17     		asrs	r3, r3, #31
 4005 00ce C3EBA203 		rsb	r3, r3, r2, asr #2
 4006 00d2 0593     		str	r3, [sp, #20]
 764:lib/helix/real/imdct.c **** 	bc.nBlocksPrev = mi->numPrevIMDCT[ch];
 4007              		.loc 1 764 0
 4008 00d4 04F5D863 		add	r3, r4, #1728
 4009 00d8 56F82330 		ldr	r3, [r6, r3, lsl #2]
 4010 00dc 0693     		str	r3, [sp, #24]
 765:lib/helix/real/imdct.c **** 	bc.prevType = mi->prevType[ch];
 4011              		.loc 1 765 0
ARM GAS  C:\Users\Patryk\AppData\Local\Temp\ccHDsNa9.s 			page 98


 4012 00de 04F2C263 		addw	r3, r4, #1730
 4013 00e2 56F82330 		ldr	r3, [r6, r3, lsl #2]
 4014 00e6 0793     		str	r3, [sp, #28]
 766:lib/helix/real/imdct.c **** 	bc.prevWinSwitch = mi->prevWinSwitch[ch];
 4015              		.loc 1 766 0
 4016 00e8 04F2C463 		addw	r3, r4, #1732
 4017 00ec 56F82330 		ldr	r3, [r6, r3, lsl #2]
 4018 00f0 0893     		str	r3, [sp, #32]
 767:lib/helix/real/imdct.c **** 	bc.currWinSwitch = (si->sis[gr][ch].mixedBlock ? blockCutoff : 0);	/* where WINDOW switches (not n
 4019              		.loc 1 767 0
 4020 00f2 A344     		add	fp, fp, r4
 4021 00f4 4FEACB03 		lsl	r3, fp, #3
 4022 00f8 07EBC701 		add	r1, r7, r7, lsl #3
 4023 00fc 0A01     		lsls	r2, r1, #4
 4024 00fe 1344     		add	r3, r3, r2
 4025 0100 4344     		add	r3, r3, r8
 4026 0102 1B6C     		ldr	r3, [r3, #64]
 4027 0104 03B1     		cbz	r3, .L101
 4028 0106 039B     		ldr	r3, [sp, #12]
 4029              	.L101:
 4030              		.loc 1 767 0 is_stmt 0 discriminator 4
 4031 0108 0993     		str	r3, [sp, #36]
 768:lib/helix/real/imdct.c **** 	bc.gbIn = hi->gb[ch];
 4032              		.loc 1 768 0 is_stmt 1 discriminator 4
 4033 010a 04F28243 		addw	r3, r4, #1154
 4034 010e 59F82330 		ldr	r3, [r9, r3, lsl #2]
 4035 0112 0A93     		str	r3, [sp, #40]
 769:lib/helix/real/imdct.c **** 
 770:lib/helix/real/imdct.c **** 	mi->numPrevIMDCT[ch] = HybridTransform(hi->huffDecBuf[ch], mi->overBuf[ch], mi->outBuf[ch], &si->s
 4036              		.loc 1 770 0 discriminator 4
 4037 0114 E500     		lsls	r5, r4, #3
 4038 0116 2B19     		adds	r3, r5, r4
 4039 0118 D901     		lsls	r1, r3, #7
 4040 011a 01F59051 		add	r1, r1, #4608
 4041 011e 2B19     		adds	r3, r5, r4
 4042 0120 1A02     		lsls	r2, r3, #8
 4043 0122 2819     		adds	r0, r5, r4
 4044 0124 C300     		lsls	r3, r0, #3
 4045 0126 4FEAC709 		lsl	r9, r7, #3
 4046              	.LVL737:
 4047 012a 09EB070C 		add	ip, r9, r7
 4048 012e 4FEA0C10 		lsl	r0, ip, #4
 4049 0132 0344     		add	r3, r3, r0
 4050 0134 2833     		adds	r3, r3, #40
 4051 0136 04A8     		add	r0, sp, #16
 4052 0138 0090     		str	r0, [sp]
 4053 013a 4344     		add	r3, r3, r8
 4054 013c 3244     		add	r2, r2, r6
 4055 013e 3144     		add	r1, r1, r6
 4056 0140 5046     		mov	r0, r10
 4057 0142 FFF7FEFF 		bl	HybridTransform
 4058              	.LVL738:
 4059 0146 04F5D863 		add	r3, r4, #1728
 4060 014a 46F82300 		str	r0, [r6, r3, lsl #2]
 771:lib/helix/real/imdct.c **** 	mi->prevType[ch] = si->sis[gr][ch].blockType;
 4061              		.loc 1 771 0 discriminator 4
 4062 014e 2544     		add	r5, r5, r4
ARM GAS  C:\Users\Patryk\AppData\Local\Temp\ccHDsNa9.s 			page 99


 4063 0150 EB00     		lsls	r3, r5, #3
 4064 0152 4F44     		add	r7, r7, r9
 4065              	.LVL739:
 4066 0154 3A01     		lsls	r2, r7, #4
 4067 0156 1344     		add	r3, r3, r2
 4068 0158 9844     		add	r8, r8, r3
 4069              	.LVL740:
 4070 015a D8F83C20 		ldr	r2, [r8, #60]
 4071 015e 04F2C263 		addw	r3, r4, #1730
 4072 0162 46F82320 		str	r2, [r6, r3, lsl #2]
 772:lib/helix/real/imdct.c **** 	mi->prevWinSwitch[ch] = bc.currWinSwitch;		/* 0 means not a mixed block (either all short or all l
 4073              		.loc 1 772 0 discriminator 4
 4074 0166 04F2C463 		addw	r3, r4, #1732
 4075 016a 099A     		ldr	r2, [sp, #36]
 4076 016c 46F82320 		str	r2, [r6, r3, lsl #2]
 773:lib/helix/real/imdct.c **** 	mi->gb[ch] = bc.gbOut;
 4077              		.loc 1 773 0 discriminator 4
 4078 0170 04F2C664 		addw	r4, r4, #1734
 4079              	.LVL741:
 4080 0174 0B9B     		ldr	r3, [sp, #44]
 4081 0176 46F82430 		str	r3, [r6, r4, lsl #2]
 774:lib/helix/real/imdct.c **** 
 775:lib/helix/real/imdct.c **** 	ASSERT(mi->numPrevIMDCT[ch] <= NBANDS);
 776:lib/helix/real/imdct.c **** 
 777:lib/helix/real/imdct.c **** 	/* output has gained 2 int bits */
 778:lib/helix/real/imdct.c **** 	return 0;
 4082              		.loc 1 778 0 discriminator 4
 4083 017a 0020     		movs	r0, #0
 4084              	.LVL742:
 4085              	.L95:
 779:lib/helix/real/imdct.c **** }
 4086              		.loc 1 779 0
 4087 017c 0DB0     		add	sp, sp, #52
 4088              	.LCFI18:
