ARM GAS  C:\Users\Student\AppData\Local\Temp\ccQqpwRY.s 			page 1


   1              		.cpu cortex-m7
   2              		.eabi_attribute 27, 1
   3              		.eabi_attribute 28, 1
   4              		.eabi_attribute 20, 1
   5              		.eabi_attribute 21, 1
   6              		.eabi_attribute 23, 3
   7              		.eabi_attribute 24, 1
   8              		.eabi_attribute 25, 1
   9              		.eabi_attribute 26, 1
  10              		.eabi_attribute 30, 1
  11              		.eabi_attribute 34, 1
  12              		.eabi_attribute 18, 4
  13              		.file	"lwip.c"
  14              		.text
  15              	.Ltext0:
  16              		.cfi_sections	.debug_frame
  17              		.section	.text.MX_LWIP_Init,"ax",%progbits
  18              		.align	1
  19              		.global	MX_LWIP_Init
  20              		.syntax unified
  21              		.thumb
  22              		.thumb_func
  23              		.fpu fpv5-sp-d16
  25              	MX_LWIP_Init:
  26              	.LFB157:
  27              		.file 1 "Src/lwip.c"
   1:Src/lwip.c    **** /**
   2:Src/lwip.c    ****  ******************************************************************************
   3:Src/lwip.c    ****   * File Name          : LWIP.c
   4:Src/lwip.c    ****   * Description        : This file provides initialization code for LWIP
   5:Src/lwip.c    ****   *                      middleWare.
   6:Src/lwip.c    ****   ******************************************************************************
   7:Src/lwip.c    ****   * This notice applies to any and all portions of this file
   8:Src/lwip.c    ****   * that are not between comment pairs USER CODE BEGIN and
   9:Src/lwip.c    ****   * USER CODE END. Other portions of this file, whether 
  10:Src/lwip.c    ****   * inserted by the user or by software development tools
  11:Src/lwip.c    ****   * are owned by their respective copyright owners.
  12:Src/lwip.c    ****   *
  13:Src/lwip.c    ****   * Copyright (c) 2018 STMicroelectronics International N.V. 
  14:Src/lwip.c    ****   * All rights reserved.
  15:Src/lwip.c    ****   *
  16:Src/lwip.c    ****   * Redistribution and use in source and binary forms, with or without 
  17:Src/lwip.c    ****   * modification, are permitted, provided that the following conditions are met:
  18:Src/lwip.c    ****   *
  19:Src/lwip.c    ****   * 1. Redistribution of source code must retain the above copyright notice, 
  20:Src/lwip.c    ****   *    this list of conditions and the following disclaimer.
  21:Src/lwip.c    ****   * 2. Redistributions in binary form must reproduce the above copyright notice,
  22:Src/lwip.c    ****   *    this list of conditions and the following disclaimer in the documentation
  23:Src/lwip.c    ****   *    and/or other materials provided with the distribution.
  24:Src/lwip.c    ****   * 3. Neither the name of STMicroelectronics nor the names of other 
  25:Src/lwip.c    ****   *    contributors to this software may be used to endorse or promote products 
  26:Src/lwip.c    ****   *    derived from this software without specific written permission.
  27:Src/lwip.c    ****   * 4. This software, including modifications and/or derivative works of this 
  28:Src/lwip.c    ****   *    software, must execute solely and exclusively on microcontroller or
  29:Src/lwip.c    ****   *    microprocessor devices manufactured by or for STMicroelectronics.
  30:Src/lwip.c    ****   * 5. Redistribution and use of this software other than as permitted under 
  31:Src/lwip.c    ****   *    this license is void and will automatically terminate your rights under 
ARM GAS  C:\Users\Student\AppData\Local\Temp\ccQqpwRY.s 			page 2


  32:Src/lwip.c    ****   *    this license. 
  33:Src/lwip.c    ****   *
  34:Src/lwip.c    ****   * THIS SOFTWARE IS PROVIDED BY STMICROELECTRONICS AND CONTRIBUTORS "AS IS" 
  35:Src/lwip.c    ****   * AND ANY EXPRESS, IMPLIED OR STATUTORY WARRANTIES, INCLUDING, BUT NOT 
  36:Src/lwip.c    ****   * LIMITED TO, THE IMPLIED WARRANTIES OF MERCHANTABILITY, FITNESS FOR A 
  37:Src/lwip.c    ****   * PARTICULAR PURPOSE AND NON-INFRINGEMENT OF THIRD PARTY INTELLECTUAL PROPERTY
  38:Src/lwip.c    ****   * RIGHTS ARE DISCLAIMED TO THE FULLEST EXTENT PERMITTED BY LAW. IN NO EVENT 
  39:Src/lwip.c    ****   * SHALL STMICROELECTRONICS OR CONTRIBUTORS BE LIABLE FOR ANY DIRECT, INDIRECT,
  40:Src/lwip.c    ****   * INCIDENTAL, SPECIAL, EXEMPLARY, OR CONSEQUENTIAL DAMAGES (INCLUDING, BUT NOT
  41:Src/lwip.c    ****   * LIMITED TO, PROCUREMENT OF SUBSTITUTE GOODS OR SERVICES; LOSS OF USE, DATA, 
  42:Src/lwip.c    ****   * OR PROFITS; OR BUSINESS INTERRUPTION) HOWEVER CAUSED AND ON ANY THEORY OF 
  43:Src/lwip.c    ****   * LIABILITY, WHETHER IN CONTRACT, STRICT LIABILITY, OR TORT (INCLUDING 
  44:Src/lwip.c    ****   * NEGLIGENCE OR OTHERWISE) ARISING IN ANY WAY OUT OF THE USE OF THIS SOFTWARE,
  45:Src/lwip.c    ****   * EVEN IF ADVISED OF THE POSSIBILITY OF SUCH DAMAGE.
  46:Src/lwip.c    ****   *
  47:Src/lwip.c    ****   ******************************************************************************
  48:Src/lwip.c    ****   */
  49:Src/lwip.c    ****   
  50:Src/lwip.c    **** /* Includes ------------------------------------------------------------------*/
  51:Src/lwip.c    **** #include "lwip.h"
  52:Src/lwip.c    **** #include "lwip/init.h"
  53:Src/lwip.c    **** #include "lwip/netif.h"
  54:Src/lwip.c    **** #if defined ( __CC_ARM )  /* MDK ARM Compiler */
  55:Src/lwip.c    **** #include "lwip/sio.h"
  56:Src/lwip.c    **** #endif /* MDK ARM Compiler */
  57:Src/lwip.c    **** 
  58:Src/lwip.c    **** /* USER CODE BEGIN 0 */
  59:Src/lwip.c    **** 
  60:Src/lwip.c    **** /* USER CODE END 0 */
  61:Src/lwip.c    **** /* Private function prototypes -----------------------------------------------*/
  62:Src/lwip.c    **** /* ETH Variables initialization ----------------------------------------------*/
  63:Src/lwip.c    **** void _Error_Handler(char * file, int line);
  64:Src/lwip.c    **** 
  65:Src/lwip.c    **** /* USER CODE BEGIN 1 */
  66:Src/lwip.c    **** 
  67:Src/lwip.c    **** /* USER CODE END 1 */
  68:Src/lwip.c    **** 
  69:Src/lwip.c    **** /* Variables Initialization */
  70:Src/lwip.c    **** struct netif gnetif;
  71:Src/lwip.c    **** ip4_addr_t ipaddr;
  72:Src/lwip.c    **** ip4_addr_t netmask;
  73:Src/lwip.c    **** ip4_addr_t gw;
  74:Src/lwip.c    **** 
  75:Src/lwip.c    **** /* USER CODE BEGIN 2 */
  76:Src/lwip.c    **** 
  77:Src/lwip.c    **** /* USER CODE END 2 */
  78:Src/lwip.c    **** 
  79:Src/lwip.c    **** /**
  80:Src/lwip.c    ****   * LwIP initialization function
  81:Src/lwip.c    ****   */
  82:Src/lwip.c    **** void MX_LWIP_Init(void)
  83:Src/lwip.c    **** {
  28              		.loc 1 83 0
  29              		.cfi_startproc
  30              		@ args = 0, pretend = 0, frame = 0
  31              		@ frame_needed = 0, uses_anonymous_args = 0
  32 0000 30B5     		push	{r4, r5, lr}
ARM GAS  C:\Users\Student\AppData\Local\Temp\ccQqpwRY.s 			page 3


  33              	.LCFI0:
  34              		.cfi_def_cfa_offset 12
  35              		.cfi_offset 4, -12
  36              		.cfi_offset 5, -8
  37              		.cfi_offset 14, -4
  38 0002 85B0     		sub	sp, sp, #20
  39              	.LCFI1:
  40              		.cfi_def_cfa_offset 32
  84:Src/lwip.c    ****   /* Initilialize the LwIP stack with RTOS */
  85:Src/lwip.c    ****   tcpip_init( NULL, NULL );
  41              		.loc 1 85 0
  42 0004 0021     		movs	r1, #0
  43 0006 0846     		mov	r0, r1
  44 0008 FFF7FEFF 		bl	tcpip_init
  45              	.LVL0:
  86:Src/lwip.c    **** 
  87:Src/lwip.c    ****   /* IP addresses initialization with DHCP (IPv4) */
  88:Src/lwip.c    ****   ipaddr.addr = 0;
  46              		.loc 1 88 0
  47 000c 1149     		ldr	r1, .L6
  48 000e 0020     		movs	r0, #0
  49 0010 0860     		str	r0, [r1]
  89:Src/lwip.c    ****   netmask.addr = 0;
  50              		.loc 1 89 0
  51 0012 114A     		ldr	r2, .L6+4
  52 0014 1060     		str	r0, [r2]
  90:Src/lwip.c    ****   gw.addr = 0;
  53              		.loc 1 90 0
  54 0016 114B     		ldr	r3, .L6+8
  55 0018 1860     		str	r0, [r3]
  91:Src/lwip.c    **** 
  92:Src/lwip.c    ****   /* add the network interface (IPv4/IPv6) with RTOS */
  93:Src/lwip.c    ****   netif_add(&gnetif, &ipaddr, &netmask, &gw, NULL, &ethernetif_init, &tcpip_input);
  56              		.loc 1 93 0
  57 001a 114C     		ldr	r4, .L6+12
  58 001c 114D     		ldr	r5, .L6+16
  59 001e 0295     		str	r5, [sp, #8]
  60 0020 114D     		ldr	r5, .L6+20
  61 0022 0195     		str	r5, [sp, #4]
  62 0024 0090     		str	r0, [sp]
  63 0026 2046     		mov	r0, r4
  64 0028 FFF7FEFF 		bl	netif_add
  65              	.LVL1:
  94:Src/lwip.c    **** 
  95:Src/lwip.c    ****   /* Registers the default network interface */
  96:Src/lwip.c    ****   netif_set_default(&gnetif);
  66              		.loc 1 96 0
  67 002c 2046     		mov	r0, r4
  68 002e FFF7FEFF 		bl	netif_set_default
  69              	.LVL2:
  97:Src/lwip.c    **** 
  98:Src/lwip.c    ****   if (netif_is_link_up(&gnetif))
  70              		.loc 1 98 0
  71 0032 94F82F30 		ldrb	r3, [r4, #47]	@ zero_extendqisi2
  72 0036 13F0040F 		tst	r3, #4
  73 003a 07D1     		bne	.L5
  99:Src/lwip.c    ****   {
ARM GAS  C:\Users\Student\AppData\Local\Temp\ccQqpwRY.s 			page 4


 100:Src/lwip.c    ****     /* When the netif is fully configured this function must be called */
 101:Src/lwip.c    ****     netif_set_up(&gnetif);
 102:Src/lwip.c    ****   }
 103:Src/lwip.c    ****   else
 104:Src/lwip.c    ****   {
 105:Src/lwip.c    ****     /* When the netif link is down this function must be called */
 106:Src/lwip.c    ****     netif_set_down(&gnetif);
  74              		.loc 1 106 0
  75 003c 0848     		ldr	r0, .L6+12
  76 003e FFF7FEFF 		bl	netif_set_down
  77              	.LVL3:
  78              	.L3:
 107:Src/lwip.c    ****   }
 108:Src/lwip.c    **** 
 109:Src/lwip.c    ****   /* Start DHCP negotiation for a network interface (IPv4) */
 110:Src/lwip.c    ****   dhcp_start(&gnetif);
  79              		.loc 1 110 0
  80 0042 0748     		ldr	r0, .L6+12
  81 0044 FFF7FEFF 		bl	dhcp_start
  82              	.LVL4:
 111:Src/lwip.c    **** 
 112:Src/lwip.c    **** /* USER CODE BEGIN 3 */
 113:Src/lwip.c    **** 
 114:Src/lwip.c    **** /* USER CODE END 3 */
 115:Src/lwip.c    **** }
  83              		.loc 1 115 0
  84 0048 05B0     		add	sp, sp, #20
  85              	.LCFI2:
  86              		.cfi_remember_state
  87              		.cfi_def_cfa_offset 12
  88              		@ sp needed
  89 004a 30BD     		pop	{r4, r5, pc}
  90              	.L5:
  91              	.LCFI3:
  92              		.cfi_restore_state
 101:Src/lwip.c    ****   }
  93              		.loc 1 101 0
  94 004c 2046     		mov	r0, r4
  95 004e FFF7FEFF 		bl	netif_set_up
  96              	.LVL5:
  97 0052 F6E7     		b	.L3
  98              	.L7:
  99              		.align	2
 100              	.L6:
 101 0054 00000000 		.word	ipaddr
 102 0058 00000000 		.word	netmask
 103 005c 00000000 		.word	gw
 104 0060 00000000 		.word	gnetif
 105 0064 00000000 		.word	tcpip_input
 106 0068 00000000 		.word	ethernetif_init
 107              		.cfi_endproc
 108              	.LFE157:
 110              		.comm	gw,4,4
 111              		.comm	netmask,4,4
 112              		.comm	ipaddr,4,4
 113              		.comm	gnetif,52,4
 114              		.text
ARM GAS  C:\Users\Student\AppData\Local\Temp\ccQqpwRY.s 			page 5


 115              	.Letext0:
 116              		.file 2 "c:\\gcc_toolchain\\6_2017-q1-update\\arm-none-eabi\\include\\machine\\_default_types.h"
 117              		.file 3 "c:\\gcc_toolchain\\6_2017-q1-update\\arm-none-eabi\\include\\sys\\_stdint.h"
 118              		.file 4 "Drivers/CMSIS/Include/core_cm7.h"
 119              		.file 5 "Drivers/CMSIS/Device/ST/STM32F7xx/Include/system_stm32f7xx.h"
 120              		.file 6 "Drivers/CMSIS/Device/ST/STM32F7xx/Include/stm32f746xx.h"
 121              		.file 7 "c:\\gcc_toolchain\\6_2017-q1-update\\arm-none-eabi\\include\\sys\\lock.h"
 122              		.file 8 "c:\\gcc_toolchain\\6_2017-q1-update\\arm-none-eabi\\include\\sys\\_types.h"
 123              		.file 9 "c:\\gcc_toolchain\\6_2017-q1-update\\lib\\gcc\\arm-none-eabi\\6.3.1\\include\\stddef.h"
 124              		.file 10 "c:\\gcc_toolchain\\6_2017-q1-update\\arm-none-eabi\\include\\sys\\reent.h"
 125              		.file 11 "Drivers/STM32F7xx_HAL_Driver/Inc/stm32f7xx_hal_def.h"
 126              		.file 12 "Drivers/STM32F7xx_HAL_Driver/Inc/stm32f7xx_hal_eth.h"
 127              		.file 13 "c:\\gcc_toolchain\\6_2017-q1-update\\arm-none-eabi\\include\\stdlib.h"
 128              		.file 14 "c:\\gcc_toolchain\\6_2017-q1-update\\arm-none-eabi\\include\\time.h"
 129              		.file 15 "Middlewares/Third_Party/LwIP/src/include/lwip/arch.h"
 130              		.file 16 "Middlewares/Third_Party/LwIP/src/include/lwip/memp.h"
 131              		.file 17 "Middlewares/Third_Party/LwIP/src/include/lwip/priv/memp_priv.h"
 132              		.file 18 "Middlewares/Third_Party/LwIP/src/include/lwip/err.h"
 133              		.file 19 "Middlewares/Third_Party/LwIP/src/include/lwip/pbuf.h"
 134              		.file 20 "Middlewares/Third_Party/LwIP/src/include/lwip/ip4_addr.h"
 135              		.file 21 "Middlewares/Third_Party/LwIP/src/include/lwip/ip_addr.h"
 136              		.file 22 "Middlewares/Third_Party/LwIP/src/include/lwip/netif.h"
 137              		.file 23 "Middlewares/Third_Party/LwIP/src/include/lwip/prot/ip4.h"
 138              		.file 24 "Middlewares/Third_Party/LwIP/src/include/lwip/prot/ethernet.h"
 139              		.file 25 "Middlewares/Third_Party/LwIP/src/include/netif/ethernet.h"
 140              		.file 26 "Middlewares/Third_Party/LwIP/src/include/lwip/ip.h"
 141              		.file 27 "Middlewares/Third_Party/LwIP/src/include/lwip/udp.h"
 142              		.file 28 "Middlewares/Third_Party/FreeRTOS/Source/include/queue.h"
 143              		.file 29 "Middlewares/Third_Party/FreeRTOS/Source/include/semphr.h"
 144              		.file 30 "Middlewares/Third_Party/FreeRTOS/Source/CMSIS_RTOS/cmsis_os.h"
 145              		.file 31 "Middlewares/Third_Party/LwIP/system/arch/sys_arch.h"
 146              		.file 32 "Middlewares/Third_Party/LwIP/src/include/lwip/timeouts.h"
 147              		.file 33 "Middlewares/Third_Party/LwIP/src/include/lwip/tcpip.h"
 148              		.file 34 "Inc/lwip.h"
 149              		.file 35 "Middlewares/Third_Party/LwIP/src/include/lwip/dhcp.h"
ARM GAS  C:\Users\Student\AppData\Local\Temp\ccQqpwRY.s 			page 6

