ARM GAS  C:\Users\Student\AppData\Local\Temp\cccLiz1I.s 			page 1


   1              		.cpu cortex-m7
   2              		.eabi_attribute 27, 1
   3              		.eabi_attribute 28, 1
   4              		.eabi_attribute 20, 1
   5              		.eabi_attribute 21, 1
   6              		.eabi_attribute 23, 3
   7              		.eabi_attribute 24, 1
   8              		.eabi_attribute 25, 1
   9              		.eabi_attribute 26, 1
  10              		.eabi_attribute 30, 1
  11              		.eabi_attribute 34, 1
  12              		.eabi_attribute 18, 4
  13              		.file	"memp.c"
  14              		.text
  15              	.Ltext0:
  16              		.cfi_sections	.debug_frame
  17              		.section	.text.do_memp_malloc_pool,"ax",%progbits
  18              		.align	1
  19              		.syntax unified
  20              		.thumb
  21              		.thumb_func
  22              		.fpu fpv5-sp-d16
  24              	do_memp_malloc_pool:
  25              	.LFB159:
  26              		.file 1 "Middlewares/Third_Party/LwIP/src/core/memp.c"
   1:Middlewares/Third_Party/LwIP/src/core/memp.c **** /**
   2:Middlewares/Third_Party/LwIP/src/core/memp.c ****  * @file
   3:Middlewares/Third_Party/LwIP/src/core/memp.c ****  * Dynamic pool memory manager
   4:Middlewares/Third_Party/LwIP/src/core/memp.c ****  *
   5:Middlewares/Third_Party/LwIP/src/core/memp.c ****  * lwIP has dedicated pools for many structures (netconn, protocol control blocks,
   6:Middlewares/Third_Party/LwIP/src/core/memp.c ****  * packet buffers, ...). All these pools are managed here.
   7:Middlewares/Third_Party/LwIP/src/core/memp.c ****  *
   8:Middlewares/Third_Party/LwIP/src/core/memp.c ****  * @defgroup mempool Memory pools
   9:Middlewares/Third_Party/LwIP/src/core/memp.c ****  * @ingroup infrastructure
  10:Middlewares/Third_Party/LwIP/src/core/memp.c ****  * Custom memory pools
  11:Middlewares/Third_Party/LwIP/src/core/memp.c **** 
  12:Middlewares/Third_Party/LwIP/src/core/memp.c ****  */
  13:Middlewares/Third_Party/LwIP/src/core/memp.c **** 
  14:Middlewares/Third_Party/LwIP/src/core/memp.c **** /*
  15:Middlewares/Third_Party/LwIP/src/core/memp.c ****  * Copyright (c) 2001-2004 Swedish Institute of Computer Science.
  16:Middlewares/Third_Party/LwIP/src/core/memp.c ****  * All rights reserved.
  17:Middlewares/Third_Party/LwIP/src/core/memp.c ****  *
  18:Middlewares/Third_Party/LwIP/src/core/memp.c ****  * Redistribution and use in source and binary forms, with or without modification,
  19:Middlewares/Third_Party/LwIP/src/core/memp.c ****  * are permitted provided that the following conditions are met:
  20:Middlewares/Third_Party/LwIP/src/core/memp.c ****  *
  21:Middlewares/Third_Party/LwIP/src/core/memp.c ****  * 1. Redistributions of source code must retain the above copyright notice,
  22:Middlewares/Third_Party/LwIP/src/core/memp.c ****  *    this list of conditions and the following disclaimer.
  23:Middlewares/Third_Party/LwIP/src/core/memp.c ****  * 2. Redistributions in binary form must reproduce the above copyright notice,
  24:Middlewares/Third_Party/LwIP/src/core/memp.c ****  *    this list of conditions and the following disclaimer in the documentation
  25:Middlewares/Third_Party/LwIP/src/core/memp.c ****  *    and/or other materials provided with the distribution.
  26:Middlewares/Third_Party/LwIP/src/core/memp.c ****  * 3. The name of the author may not be used to endorse or promote products
  27:Middlewares/Third_Party/LwIP/src/core/memp.c ****  *    derived from this software without specific prior written permission.
  28:Middlewares/Third_Party/LwIP/src/core/memp.c ****  *
  29:Middlewares/Third_Party/LwIP/src/core/memp.c ****  * THIS SOFTWARE IS PROVIDED BY THE AUTHOR ``AS IS'' AND ANY EXPRESS OR IMPLIED
  30:Middlewares/Third_Party/LwIP/src/core/memp.c ****  * WARRANTIES, INCLUDING, BUT NOT LIMITED TO, THE IMPLIED WARRANTIES OF
  31:Middlewares/Third_Party/LwIP/src/core/memp.c ****  * MERCHANTABILITY AND FITNESS FOR A PARTICULAR PURPOSE ARE DISCLAIMED. IN NO EVENT
  32:Middlewares/Third_Party/LwIP/src/core/memp.c ****  * SHALL THE AUTHOR BE LIABLE FOR ANY DIRECT, INDIRECT, INCIDENTAL, SPECIAL,
ARM GAS  C:\Users\Student\AppData\Local\Temp\cccLiz1I.s 			page 2


  33:Middlewares/Third_Party/LwIP/src/core/memp.c ****  * EXEMPLARY, OR CONSEQUENTIAL DAMAGES (INCLUDING, BUT NOT LIMITED TO, PROCUREMENT
  34:Middlewares/Third_Party/LwIP/src/core/memp.c ****  * OF SUBSTITUTE GOODS OR SERVICES; LOSS OF USE, DATA, OR PROFITS; OR BUSINESS
  35:Middlewares/Third_Party/LwIP/src/core/memp.c ****  * INTERRUPTION) HOWEVER CAUSED AND ON ANY THEORY OF LIABILITY, WHETHER IN
  36:Middlewares/Third_Party/LwIP/src/core/memp.c ****  * CONTRACT, STRICT LIABILITY, OR TORT (INCLUDING NEGLIGENCE OR OTHERWISE) ARISING
  37:Middlewares/Third_Party/LwIP/src/core/memp.c ****  * IN ANY WAY OUT OF THE USE OF THIS SOFTWARE, EVEN IF ADVISED OF THE POSSIBILITY
  38:Middlewares/Third_Party/LwIP/src/core/memp.c ****  * OF SUCH DAMAGE.
  39:Middlewares/Third_Party/LwIP/src/core/memp.c ****  *
  40:Middlewares/Third_Party/LwIP/src/core/memp.c ****  * This file is part of the lwIP TCP/IP stack.
  41:Middlewares/Third_Party/LwIP/src/core/memp.c ****  *
  42:Middlewares/Third_Party/LwIP/src/core/memp.c ****  * Author: Adam Dunkels <adam@sics.se>
  43:Middlewares/Third_Party/LwIP/src/core/memp.c ****  *
  44:Middlewares/Third_Party/LwIP/src/core/memp.c ****  */
  45:Middlewares/Third_Party/LwIP/src/core/memp.c **** 
  46:Middlewares/Third_Party/LwIP/src/core/memp.c **** #include "lwip/opt.h"
  47:Middlewares/Third_Party/LwIP/src/core/memp.c **** 
  48:Middlewares/Third_Party/LwIP/src/core/memp.c **** #include "lwip/memp.h"
  49:Middlewares/Third_Party/LwIP/src/core/memp.c **** #include "lwip/sys.h"
  50:Middlewares/Third_Party/LwIP/src/core/memp.c **** #include "lwip/stats.h"
  51:Middlewares/Third_Party/LwIP/src/core/memp.c **** 
  52:Middlewares/Third_Party/LwIP/src/core/memp.c **** #include <string.h>
  53:Middlewares/Third_Party/LwIP/src/core/memp.c **** 
  54:Middlewares/Third_Party/LwIP/src/core/memp.c **** /* Make sure we include everything we need for size calculation required by memp_std.h */
  55:Middlewares/Third_Party/LwIP/src/core/memp.c **** #include "lwip/pbuf.h"
  56:Middlewares/Third_Party/LwIP/src/core/memp.c **** #include "lwip/raw.h"
  57:Middlewares/Third_Party/LwIP/src/core/memp.c **** #include "lwip/udp.h"
  58:Middlewares/Third_Party/LwIP/src/core/memp.c **** #include "lwip/tcp.h"
  59:Middlewares/Third_Party/LwIP/src/core/memp.c **** #include "lwip/priv/tcp_priv.h"
  60:Middlewares/Third_Party/LwIP/src/core/memp.c **** #include "lwip/ip4_frag.h"
  61:Middlewares/Third_Party/LwIP/src/core/memp.c **** #include "lwip/netbuf.h"
  62:Middlewares/Third_Party/LwIP/src/core/memp.c **** #include "lwip/api.h"
  63:Middlewares/Third_Party/LwIP/src/core/memp.c **** #include "lwip/priv/tcpip_priv.h"
  64:Middlewares/Third_Party/LwIP/src/core/memp.c **** #include "lwip/priv/api_msg.h"
  65:Middlewares/Third_Party/LwIP/src/core/memp.c **** #include "lwip/sockets.h"
  66:Middlewares/Third_Party/LwIP/src/core/memp.c **** #include "lwip/netifapi.h"
  67:Middlewares/Third_Party/LwIP/src/core/memp.c **** #include "lwip/etharp.h"
  68:Middlewares/Third_Party/LwIP/src/core/memp.c **** #include "lwip/igmp.h"
  69:Middlewares/Third_Party/LwIP/src/core/memp.c **** #include "lwip/timeouts.h"
  70:Middlewares/Third_Party/LwIP/src/core/memp.c **** /* needed by default MEMP_NUM_SYS_TIMEOUT */
  71:Middlewares/Third_Party/LwIP/src/core/memp.c **** #include "netif/ppp/ppp_opts.h"
  72:Middlewares/Third_Party/LwIP/src/core/memp.c **** #include "lwip/netdb.h"
  73:Middlewares/Third_Party/LwIP/src/core/memp.c **** #include "lwip/dns.h"
  74:Middlewares/Third_Party/LwIP/src/core/memp.c **** #include "lwip/priv/nd6_priv.h"
  75:Middlewares/Third_Party/LwIP/src/core/memp.c **** #include "lwip/ip6_frag.h"
  76:Middlewares/Third_Party/LwIP/src/core/memp.c **** #include "lwip/mld6.h"
  77:Middlewares/Third_Party/LwIP/src/core/memp.c **** 
  78:Middlewares/Third_Party/LwIP/src/core/memp.c **** #define LWIP_MEMPOOL(name,num,size,desc) LWIP_MEMPOOL_DECLARE(name,num,size,desc)
  79:Middlewares/Third_Party/LwIP/src/core/memp.c **** #include "lwip/priv/memp_std.h"
  80:Middlewares/Third_Party/LwIP/src/core/memp.c **** 
  81:Middlewares/Third_Party/LwIP/src/core/memp.c **** const struct memp_desc* const memp_pools[MEMP_MAX] = {
  82:Middlewares/Third_Party/LwIP/src/core/memp.c **** #define LWIP_MEMPOOL(name,num,size,desc) &memp_ ## name,
  83:Middlewares/Third_Party/LwIP/src/core/memp.c **** #include "lwip/priv/memp_std.h"
  84:Middlewares/Third_Party/LwIP/src/core/memp.c **** };
  85:Middlewares/Third_Party/LwIP/src/core/memp.c **** 
  86:Middlewares/Third_Party/LwIP/src/core/memp.c **** #ifdef LWIP_HOOK_FILENAME
  87:Middlewares/Third_Party/LwIP/src/core/memp.c **** #include LWIP_HOOK_FILENAME
  88:Middlewares/Third_Party/LwIP/src/core/memp.c **** #endif
  89:Middlewares/Third_Party/LwIP/src/core/memp.c **** 
ARM GAS  C:\Users\Student\AppData\Local\Temp\cccLiz1I.s 			page 3


  90:Middlewares/Third_Party/LwIP/src/core/memp.c **** #if MEMP_MEM_MALLOC && MEMP_OVERFLOW_CHECK >= 2
  91:Middlewares/Third_Party/LwIP/src/core/memp.c **** #undef MEMP_OVERFLOW_CHECK
  92:Middlewares/Third_Party/LwIP/src/core/memp.c **** /* MEMP_OVERFLOW_CHECK >= 2 does not work with MEMP_MEM_MALLOC, use 1 instead */
  93:Middlewares/Third_Party/LwIP/src/core/memp.c **** #define MEMP_OVERFLOW_CHECK 1
  94:Middlewares/Third_Party/LwIP/src/core/memp.c **** #endif
  95:Middlewares/Third_Party/LwIP/src/core/memp.c **** 
  96:Middlewares/Third_Party/LwIP/src/core/memp.c **** #if MEMP_SANITY_CHECK && !MEMP_MEM_MALLOC
  97:Middlewares/Third_Party/LwIP/src/core/memp.c **** /**
  98:Middlewares/Third_Party/LwIP/src/core/memp.c ****  * Check that memp-lists don't form a circle, using "Floyd's cycle-finding algorithm".
  99:Middlewares/Third_Party/LwIP/src/core/memp.c ****  */
 100:Middlewares/Third_Party/LwIP/src/core/memp.c **** static int
 101:Middlewares/Third_Party/LwIP/src/core/memp.c **** memp_sanity(const struct memp_desc *desc)
 102:Middlewares/Third_Party/LwIP/src/core/memp.c **** {
 103:Middlewares/Third_Party/LwIP/src/core/memp.c ****   struct memp *t, *h;
 104:Middlewares/Third_Party/LwIP/src/core/memp.c **** 
 105:Middlewares/Third_Party/LwIP/src/core/memp.c ****   t = *desc->tab;
 106:Middlewares/Third_Party/LwIP/src/core/memp.c ****   if (t != NULL) {
 107:Middlewares/Third_Party/LwIP/src/core/memp.c ****     for (h = t->next; (t != NULL) && (h != NULL); t = t->next,
 108:Middlewares/Third_Party/LwIP/src/core/memp.c ****       h = ((h->next != NULL) ? h->next->next : NULL)) {
 109:Middlewares/Third_Party/LwIP/src/core/memp.c ****       if (t == h) {
 110:Middlewares/Third_Party/LwIP/src/core/memp.c ****         return 0;
 111:Middlewares/Third_Party/LwIP/src/core/memp.c ****       }
 112:Middlewares/Third_Party/LwIP/src/core/memp.c ****     }
 113:Middlewares/Third_Party/LwIP/src/core/memp.c ****   }
 114:Middlewares/Third_Party/LwIP/src/core/memp.c **** 
 115:Middlewares/Third_Party/LwIP/src/core/memp.c ****   return 1;
 116:Middlewares/Third_Party/LwIP/src/core/memp.c **** }
 117:Middlewares/Third_Party/LwIP/src/core/memp.c **** #endif /* MEMP_SANITY_CHECK && !MEMP_MEM_MALLOC */
 118:Middlewares/Third_Party/LwIP/src/core/memp.c **** 
 119:Middlewares/Third_Party/LwIP/src/core/memp.c **** #if MEMP_OVERFLOW_CHECK
 120:Middlewares/Third_Party/LwIP/src/core/memp.c **** /**
 121:Middlewares/Third_Party/LwIP/src/core/memp.c ****  * Check if a memp element was victim of an overflow
 122:Middlewares/Third_Party/LwIP/src/core/memp.c ****  * (e.g. the restricted area after it has been altered)
 123:Middlewares/Third_Party/LwIP/src/core/memp.c ****  *
 124:Middlewares/Third_Party/LwIP/src/core/memp.c ****  * @param p the memp element to check
 125:Middlewares/Third_Party/LwIP/src/core/memp.c ****  * @param desc the pool p comes from
 126:Middlewares/Third_Party/LwIP/src/core/memp.c ****  */
 127:Middlewares/Third_Party/LwIP/src/core/memp.c **** static void
 128:Middlewares/Third_Party/LwIP/src/core/memp.c **** memp_overflow_check_element_overflow(struct memp *p, const struct memp_desc *desc)
 129:Middlewares/Third_Party/LwIP/src/core/memp.c **** {
 130:Middlewares/Third_Party/LwIP/src/core/memp.c **** #if MEMP_SANITY_REGION_AFTER_ALIGNED > 0
 131:Middlewares/Third_Party/LwIP/src/core/memp.c ****   u16_t k;
 132:Middlewares/Third_Party/LwIP/src/core/memp.c ****   u8_t *m;
 133:Middlewares/Third_Party/LwIP/src/core/memp.c ****   m = (u8_t*)p + MEMP_SIZE + desc->size;
 134:Middlewares/Third_Party/LwIP/src/core/memp.c ****   for (k = 0; k < MEMP_SANITY_REGION_AFTER_ALIGNED; k++) {
 135:Middlewares/Third_Party/LwIP/src/core/memp.c ****     if (m[k] != 0xcd) {
 136:Middlewares/Third_Party/LwIP/src/core/memp.c ****       char errstr[128] = "detected memp overflow in pool ";
 137:Middlewares/Third_Party/LwIP/src/core/memp.c ****       strcat(errstr, desc->desc);
 138:Middlewares/Third_Party/LwIP/src/core/memp.c ****       LWIP_ASSERT(errstr, 0);
 139:Middlewares/Third_Party/LwIP/src/core/memp.c ****     }
 140:Middlewares/Third_Party/LwIP/src/core/memp.c ****   }
 141:Middlewares/Third_Party/LwIP/src/core/memp.c **** #else /* MEMP_SANITY_REGION_AFTER_ALIGNED > 0 */
 142:Middlewares/Third_Party/LwIP/src/core/memp.c ****   LWIP_UNUSED_ARG(p);
 143:Middlewares/Third_Party/LwIP/src/core/memp.c ****   LWIP_UNUSED_ARG(desc);
 144:Middlewares/Third_Party/LwIP/src/core/memp.c **** #endif /* MEMP_SANITY_REGION_AFTER_ALIGNED > 0 */
 145:Middlewares/Third_Party/LwIP/src/core/memp.c **** }
 146:Middlewares/Third_Party/LwIP/src/core/memp.c **** 
ARM GAS  C:\Users\Student\AppData\Local\Temp\cccLiz1I.s 			page 4


 147:Middlewares/Third_Party/LwIP/src/core/memp.c **** /**
 148:Middlewares/Third_Party/LwIP/src/core/memp.c ****  * Check if a memp element was victim of an underflow
 149:Middlewares/Third_Party/LwIP/src/core/memp.c ****  * (e.g. the restricted area before it has been altered)
 150:Middlewares/Third_Party/LwIP/src/core/memp.c ****  *
 151:Middlewares/Third_Party/LwIP/src/core/memp.c ****  * @param p the memp element to check
 152:Middlewares/Third_Party/LwIP/src/core/memp.c ****  * @param desc the pool p comes from
 153:Middlewares/Third_Party/LwIP/src/core/memp.c ****  */
 154:Middlewares/Third_Party/LwIP/src/core/memp.c **** static void
 155:Middlewares/Third_Party/LwIP/src/core/memp.c **** memp_overflow_check_element_underflow(struct memp *p, const struct memp_desc *desc)
 156:Middlewares/Third_Party/LwIP/src/core/memp.c **** {
 157:Middlewares/Third_Party/LwIP/src/core/memp.c **** #if MEMP_SANITY_REGION_BEFORE_ALIGNED > 0
 158:Middlewares/Third_Party/LwIP/src/core/memp.c ****   u16_t k;
 159:Middlewares/Third_Party/LwIP/src/core/memp.c ****   u8_t *m;
 160:Middlewares/Third_Party/LwIP/src/core/memp.c ****   m = (u8_t*)p + MEMP_SIZE - MEMP_SANITY_REGION_BEFORE_ALIGNED;
 161:Middlewares/Third_Party/LwIP/src/core/memp.c ****   for (k = 0; k < MEMP_SANITY_REGION_BEFORE_ALIGNED; k++) {
 162:Middlewares/Third_Party/LwIP/src/core/memp.c ****     if (m[k] != 0xcd) {
 163:Middlewares/Third_Party/LwIP/src/core/memp.c ****       char errstr[128] = "detected memp underflow in pool ";
 164:Middlewares/Third_Party/LwIP/src/core/memp.c ****       strcat(errstr, desc->desc);
 165:Middlewares/Third_Party/LwIP/src/core/memp.c ****       LWIP_ASSERT(errstr, 0);
 166:Middlewares/Third_Party/LwIP/src/core/memp.c ****     }
 167:Middlewares/Third_Party/LwIP/src/core/memp.c ****   }
 168:Middlewares/Third_Party/LwIP/src/core/memp.c **** #else /* MEMP_SANITY_REGION_BEFORE_ALIGNED > 0 */
 169:Middlewares/Third_Party/LwIP/src/core/memp.c ****   LWIP_UNUSED_ARG(p);
 170:Middlewares/Third_Party/LwIP/src/core/memp.c ****   LWIP_UNUSED_ARG(desc);
 171:Middlewares/Third_Party/LwIP/src/core/memp.c **** #endif /* MEMP_SANITY_REGION_BEFORE_ALIGNED > 0 */
 172:Middlewares/Third_Party/LwIP/src/core/memp.c **** }
 173:Middlewares/Third_Party/LwIP/src/core/memp.c **** 
 174:Middlewares/Third_Party/LwIP/src/core/memp.c **** /**
 175:Middlewares/Third_Party/LwIP/src/core/memp.c ****  * Initialize the restricted area of on memp element.
 176:Middlewares/Third_Party/LwIP/src/core/memp.c ****  */
 177:Middlewares/Third_Party/LwIP/src/core/memp.c **** static void
 178:Middlewares/Third_Party/LwIP/src/core/memp.c **** memp_overflow_init_element(struct memp *p, const struct memp_desc *desc)
 179:Middlewares/Third_Party/LwIP/src/core/memp.c **** {
 180:Middlewares/Third_Party/LwIP/src/core/memp.c **** #if MEMP_SANITY_REGION_BEFORE_ALIGNED > 0 || MEMP_SANITY_REGION_AFTER_ALIGNED > 0
 181:Middlewares/Third_Party/LwIP/src/core/memp.c ****   u8_t *m;
 182:Middlewares/Third_Party/LwIP/src/core/memp.c **** #if MEMP_SANITY_REGION_BEFORE_ALIGNED > 0
 183:Middlewares/Third_Party/LwIP/src/core/memp.c ****   m = (u8_t*)p + MEMP_SIZE - MEMP_SANITY_REGION_BEFORE_ALIGNED;
 184:Middlewares/Third_Party/LwIP/src/core/memp.c ****   memset(m, 0xcd, MEMP_SANITY_REGION_BEFORE_ALIGNED);
 185:Middlewares/Third_Party/LwIP/src/core/memp.c **** #endif
 186:Middlewares/Third_Party/LwIP/src/core/memp.c **** #if MEMP_SANITY_REGION_AFTER_ALIGNED > 0
 187:Middlewares/Third_Party/LwIP/src/core/memp.c ****   m = (u8_t*)p + MEMP_SIZE + desc->size;
 188:Middlewares/Third_Party/LwIP/src/core/memp.c ****   memset(m, 0xcd, MEMP_SANITY_REGION_AFTER_ALIGNED);
 189:Middlewares/Third_Party/LwIP/src/core/memp.c **** #endif
 190:Middlewares/Third_Party/LwIP/src/core/memp.c **** #else /* MEMP_SANITY_REGION_BEFORE_ALIGNED > 0 || MEMP_SANITY_REGION_AFTER_ALIGNED > 0 */
 191:Middlewares/Third_Party/LwIP/src/core/memp.c ****   LWIP_UNUSED_ARG(p);
 192:Middlewares/Third_Party/LwIP/src/core/memp.c ****   LWIP_UNUSED_ARG(desc);
 193:Middlewares/Third_Party/LwIP/src/core/memp.c **** #endif /* MEMP_SANITY_REGION_BEFORE_ALIGNED > 0 || MEMP_SANITY_REGION_AFTER_ALIGNED > 0 */
 194:Middlewares/Third_Party/LwIP/src/core/memp.c **** }
 195:Middlewares/Third_Party/LwIP/src/core/memp.c **** 
 196:Middlewares/Third_Party/LwIP/src/core/memp.c **** #if MEMP_OVERFLOW_CHECK >= 2
 197:Middlewares/Third_Party/LwIP/src/core/memp.c **** /**
 198:Middlewares/Third_Party/LwIP/src/core/memp.c ****  * Do an overflow check for all elements in every pool.
 199:Middlewares/Third_Party/LwIP/src/core/memp.c ****  *
 200:Middlewares/Third_Party/LwIP/src/core/memp.c ****  * @see memp_overflow_check_element for a description of the check
 201:Middlewares/Third_Party/LwIP/src/core/memp.c ****  */
 202:Middlewares/Third_Party/LwIP/src/core/memp.c **** static void
 203:Middlewares/Third_Party/LwIP/src/core/memp.c **** memp_overflow_check_all(void)
ARM GAS  C:\Users\Student\AppData\Local\Temp\cccLiz1I.s 			page 5


 204:Middlewares/Third_Party/LwIP/src/core/memp.c **** {
 205:Middlewares/Third_Party/LwIP/src/core/memp.c ****   u16_t i, j;
 206:Middlewares/Third_Party/LwIP/src/core/memp.c ****   struct memp *p;
 207:Middlewares/Third_Party/LwIP/src/core/memp.c ****   SYS_ARCH_DECL_PROTECT(old_level);
 208:Middlewares/Third_Party/LwIP/src/core/memp.c ****   SYS_ARCH_PROTECT(old_level);
 209:Middlewares/Third_Party/LwIP/src/core/memp.c **** 
 210:Middlewares/Third_Party/LwIP/src/core/memp.c ****   for (i = 0; i < MEMP_MAX; ++i) {
 211:Middlewares/Third_Party/LwIP/src/core/memp.c ****     p = (struct memp*)LWIP_MEM_ALIGN(memp_pools[i]->base);
 212:Middlewares/Third_Party/LwIP/src/core/memp.c ****     for (j = 0; j < memp_pools[i]->num; ++j) {
 213:Middlewares/Third_Party/LwIP/src/core/memp.c ****       memp_overflow_check_element_overflow(p, memp_pools[i]);
 214:Middlewares/Third_Party/LwIP/src/core/memp.c ****       memp_overflow_check_element_underflow(p, memp_pools[i]);
 215:Middlewares/Third_Party/LwIP/src/core/memp.c ****       p = LWIP_ALIGNMENT_CAST(struct memp*, ((u8_t*)p + MEMP_SIZE + memp_pools[i]->size + MEMP_SANI
 216:Middlewares/Third_Party/LwIP/src/core/memp.c ****     }
 217:Middlewares/Third_Party/LwIP/src/core/memp.c ****   }
 218:Middlewares/Third_Party/LwIP/src/core/memp.c ****   SYS_ARCH_UNPROTECT(old_level);
 219:Middlewares/Third_Party/LwIP/src/core/memp.c **** }
 220:Middlewares/Third_Party/LwIP/src/core/memp.c **** #endif /* MEMP_OVERFLOW_CHECK >= 2 */
 221:Middlewares/Third_Party/LwIP/src/core/memp.c **** #endif /* MEMP_OVERFLOW_CHECK */
 222:Middlewares/Third_Party/LwIP/src/core/memp.c **** 
 223:Middlewares/Third_Party/LwIP/src/core/memp.c **** /**
 224:Middlewares/Third_Party/LwIP/src/core/memp.c ****  * Initialize custom memory pool.
 225:Middlewares/Third_Party/LwIP/src/core/memp.c ****  * Related functions: memp_malloc_pool, memp_free_pool
 226:Middlewares/Third_Party/LwIP/src/core/memp.c ****  *
 227:Middlewares/Third_Party/LwIP/src/core/memp.c ****  * @param desc pool to initialize
 228:Middlewares/Third_Party/LwIP/src/core/memp.c ****  */
 229:Middlewares/Third_Party/LwIP/src/core/memp.c **** void
 230:Middlewares/Third_Party/LwIP/src/core/memp.c **** memp_init_pool(const struct memp_desc *desc)
 231:Middlewares/Third_Party/LwIP/src/core/memp.c **** {
 232:Middlewares/Third_Party/LwIP/src/core/memp.c **** #if MEMP_MEM_MALLOC
 233:Middlewares/Third_Party/LwIP/src/core/memp.c ****   LWIP_UNUSED_ARG(desc);
 234:Middlewares/Third_Party/LwIP/src/core/memp.c **** #else
 235:Middlewares/Third_Party/LwIP/src/core/memp.c ****   int i;
 236:Middlewares/Third_Party/LwIP/src/core/memp.c ****   struct memp *memp;
 237:Middlewares/Third_Party/LwIP/src/core/memp.c **** 
 238:Middlewares/Third_Party/LwIP/src/core/memp.c ****   *desc->tab = NULL;
 239:Middlewares/Third_Party/LwIP/src/core/memp.c ****   memp = (struct memp*)LWIP_MEM_ALIGN(desc->base);
 240:Middlewares/Third_Party/LwIP/src/core/memp.c ****   /* create a linked list of memp elements */
 241:Middlewares/Third_Party/LwIP/src/core/memp.c ****   for (i = 0; i < desc->num; ++i) {
 242:Middlewares/Third_Party/LwIP/src/core/memp.c ****     memp->next = *desc->tab;
 243:Middlewares/Third_Party/LwIP/src/core/memp.c ****     *desc->tab = memp;
 244:Middlewares/Third_Party/LwIP/src/core/memp.c **** #if MEMP_OVERFLOW_CHECK
 245:Middlewares/Third_Party/LwIP/src/core/memp.c ****     memp_overflow_init_element(memp, desc);
 246:Middlewares/Third_Party/LwIP/src/core/memp.c **** #endif /* MEMP_OVERFLOW_CHECK */
 247:Middlewares/Third_Party/LwIP/src/core/memp.c ****    /* cast through void* to get rid of alignment warnings */
 248:Middlewares/Third_Party/LwIP/src/core/memp.c ****    memp = (struct memp *)(void *)((u8_t *)memp + MEMP_SIZE + desc->size
 249:Middlewares/Third_Party/LwIP/src/core/memp.c **** #if MEMP_OVERFLOW_CHECK
 250:Middlewares/Third_Party/LwIP/src/core/memp.c ****       + MEMP_SANITY_REGION_AFTER_ALIGNED
 251:Middlewares/Third_Party/LwIP/src/core/memp.c **** #endif
 252:Middlewares/Third_Party/LwIP/src/core/memp.c ****     );
 253:Middlewares/Third_Party/LwIP/src/core/memp.c ****   }
 254:Middlewares/Third_Party/LwIP/src/core/memp.c **** #if MEMP_STATS
 255:Middlewares/Third_Party/LwIP/src/core/memp.c ****   desc->stats->avail = desc->num;
 256:Middlewares/Third_Party/LwIP/src/core/memp.c **** #endif /* MEMP_STATS */
 257:Middlewares/Third_Party/LwIP/src/core/memp.c **** #endif /* !MEMP_MEM_MALLOC */
 258:Middlewares/Third_Party/LwIP/src/core/memp.c **** 
 259:Middlewares/Third_Party/LwIP/src/core/memp.c **** #if MEMP_STATS && (defined(LWIP_DEBUG) || LWIP_STATS_DISPLAY)
 260:Middlewares/Third_Party/LwIP/src/core/memp.c ****   desc->stats->name  = desc->desc;
ARM GAS  C:\Users\Student\AppData\Local\Temp\cccLiz1I.s 			page 6


 261:Middlewares/Third_Party/LwIP/src/core/memp.c **** #endif /* MEMP_STATS && (defined(LWIP_DEBUG) || LWIP_STATS_DISPLAY) */
 262:Middlewares/Third_Party/LwIP/src/core/memp.c **** }
 263:Middlewares/Third_Party/LwIP/src/core/memp.c **** 
 264:Middlewares/Third_Party/LwIP/src/core/memp.c **** /**
 265:Middlewares/Third_Party/LwIP/src/core/memp.c ****  * Initializes lwIP built-in pools.
 266:Middlewares/Third_Party/LwIP/src/core/memp.c ****  * Related functions: memp_malloc, memp_free
 267:Middlewares/Third_Party/LwIP/src/core/memp.c ****  *
 268:Middlewares/Third_Party/LwIP/src/core/memp.c ****  * Carves out memp_memory into linked lists for each pool-type.
 269:Middlewares/Third_Party/LwIP/src/core/memp.c ****  */
 270:Middlewares/Third_Party/LwIP/src/core/memp.c **** void
 271:Middlewares/Third_Party/LwIP/src/core/memp.c **** memp_init(void)
 272:Middlewares/Third_Party/LwIP/src/core/memp.c **** {
 273:Middlewares/Third_Party/LwIP/src/core/memp.c ****   u16_t i;
 274:Middlewares/Third_Party/LwIP/src/core/memp.c **** 
 275:Middlewares/Third_Party/LwIP/src/core/memp.c ****   /* for every pool: */
 276:Middlewares/Third_Party/LwIP/src/core/memp.c ****   for (i = 0; i < LWIP_ARRAYSIZE(memp_pools); i++) {
 277:Middlewares/Third_Party/LwIP/src/core/memp.c ****     memp_init_pool(memp_pools[i]);
 278:Middlewares/Third_Party/LwIP/src/core/memp.c **** 
 279:Middlewares/Third_Party/LwIP/src/core/memp.c **** #if LWIP_STATS && MEMP_STATS
 280:Middlewares/Third_Party/LwIP/src/core/memp.c ****     lwip_stats.memp[i] = memp_pools[i]->stats;
 281:Middlewares/Third_Party/LwIP/src/core/memp.c **** #endif
 282:Middlewares/Third_Party/LwIP/src/core/memp.c ****   }
 283:Middlewares/Third_Party/LwIP/src/core/memp.c **** 
 284:Middlewares/Third_Party/LwIP/src/core/memp.c **** #if MEMP_OVERFLOW_CHECK >= 2
 285:Middlewares/Third_Party/LwIP/src/core/memp.c ****   /* check everything a first time to see if it worked */
 286:Middlewares/Third_Party/LwIP/src/core/memp.c ****   memp_overflow_check_all();
 287:Middlewares/Third_Party/LwIP/src/core/memp.c **** #endif /* MEMP_OVERFLOW_CHECK >= 2 */
 288:Middlewares/Third_Party/LwIP/src/core/memp.c **** }
 289:Middlewares/Third_Party/LwIP/src/core/memp.c **** 
 290:Middlewares/Third_Party/LwIP/src/core/memp.c **** static void*
 291:Middlewares/Third_Party/LwIP/src/core/memp.c **** #if !MEMP_OVERFLOW_CHECK
 292:Middlewares/Third_Party/LwIP/src/core/memp.c **** do_memp_malloc_pool(const struct memp_desc *desc)
 293:Middlewares/Third_Party/LwIP/src/core/memp.c **** #else
 294:Middlewares/Third_Party/LwIP/src/core/memp.c **** do_memp_malloc_pool_fn(const struct memp_desc *desc, const char* file, const int line)
 295:Middlewares/Third_Party/LwIP/src/core/memp.c **** #endif
 296:Middlewares/Third_Party/LwIP/src/core/memp.c **** {
  27              		.loc 1 296 0
  28              		.cfi_startproc
  29              		@ args = 0, pretend = 0, frame = 0
  30              		@ frame_needed = 0, uses_anonymous_args = 0
  31              	.LVL0:
  32 0000 38B5     		push	{r3, r4, r5, lr}
  33              	.LCFI0:
  34              		.cfi_def_cfa_offset 16
  35              		.cfi_offset 3, -16
  36              		.cfi_offset 4, -12
  37              		.cfi_offset 5, -8
  38              		.cfi_offset 14, -4
  39 0002 0446     		mov	r4, r0
 297:Middlewares/Third_Party/LwIP/src/core/memp.c ****   struct memp *memp;
 298:Middlewares/Third_Party/LwIP/src/core/memp.c ****   SYS_ARCH_DECL_PROTECT(old_level);
 299:Middlewares/Third_Party/LwIP/src/core/memp.c **** 
 300:Middlewares/Third_Party/LwIP/src/core/memp.c **** #if MEMP_MEM_MALLOC
 301:Middlewares/Third_Party/LwIP/src/core/memp.c ****   memp = (struct memp *)mem_malloc(MEMP_SIZE + MEMP_ALIGN_SIZE(desc->size));
 302:Middlewares/Third_Party/LwIP/src/core/memp.c ****   SYS_ARCH_PROTECT(old_level);
 303:Middlewares/Third_Party/LwIP/src/core/memp.c **** #else /* MEMP_MEM_MALLOC */
 304:Middlewares/Third_Party/LwIP/src/core/memp.c ****   SYS_ARCH_PROTECT(old_level);
ARM GAS  C:\Users\Student\AppData\Local\Temp\cccLiz1I.s 			page 7


  40              		.loc 1 304 0
  41 0004 FFF7FEFF 		bl	sys_arch_protect
  42              	.LVL1:
  43 0008 0546     		mov	r5, r0
  44              	.LVL2:
 305:Middlewares/Third_Party/LwIP/src/core/memp.c **** 
 306:Middlewares/Third_Party/LwIP/src/core/memp.c ****   memp = *desc->tab;
  45              		.loc 1 306 0
  46 000a A368     		ldr	r3, [r4, #8]
  47 000c 1C68     		ldr	r4, [r3]
  48              	.LVL3:
 307:Middlewares/Third_Party/LwIP/src/core/memp.c **** #endif /* MEMP_MEM_MALLOC */
 308:Middlewares/Third_Party/LwIP/src/core/memp.c **** 
 309:Middlewares/Third_Party/LwIP/src/core/memp.c ****   if (memp != NULL) {
  49              		.loc 1 309 0
  50 000e 8CB1     		cbz	r4, .L2
 310:Middlewares/Third_Party/LwIP/src/core/memp.c **** #if !MEMP_MEM_MALLOC
 311:Middlewares/Third_Party/LwIP/src/core/memp.c **** #if MEMP_OVERFLOW_CHECK == 1
 312:Middlewares/Third_Party/LwIP/src/core/memp.c ****     memp_overflow_check_element_overflow(memp, desc);
 313:Middlewares/Third_Party/LwIP/src/core/memp.c ****     memp_overflow_check_element_underflow(memp, desc);
 314:Middlewares/Third_Party/LwIP/src/core/memp.c **** #endif /* MEMP_OVERFLOW_CHECK */
 315:Middlewares/Third_Party/LwIP/src/core/memp.c **** 
 316:Middlewares/Third_Party/LwIP/src/core/memp.c ****     *desc->tab = memp->next;
  51              		.loc 1 316 0
  52 0010 2268     		ldr	r2, [r4]
  53 0012 1A60     		str	r2, [r3]
 317:Middlewares/Third_Party/LwIP/src/core/memp.c **** #if MEMP_OVERFLOW_CHECK
 318:Middlewares/Third_Party/LwIP/src/core/memp.c ****     memp->next = NULL;
 319:Middlewares/Third_Party/LwIP/src/core/memp.c **** #endif /* MEMP_OVERFLOW_CHECK */
 320:Middlewares/Third_Party/LwIP/src/core/memp.c **** #endif /* !MEMP_MEM_MALLOC */
 321:Middlewares/Third_Party/LwIP/src/core/memp.c **** #if MEMP_OVERFLOW_CHECK
 322:Middlewares/Third_Party/LwIP/src/core/memp.c ****     memp->file = file;
 323:Middlewares/Third_Party/LwIP/src/core/memp.c ****     memp->line = line;
 324:Middlewares/Third_Party/LwIP/src/core/memp.c **** #if MEMP_MEM_MALLOC
 325:Middlewares/Third_Party/LwIP/src/core/memp.c ****     memp_overflow_init_element(memp, desc);
 326:Middlewares/Third_Party/LwIP/src/core/memp.c **** #endif /* MEMP_MEM_MALLOC */
 327:Middlewares/Third_Party/LwIP/src/core/memp.c **** #endif /* MEMP_OVERFLOW_CHECK */
 328:Middlewares/Third_Party/LwIP/src/core/memp.c ****     LWIP_ASSERT("memp_malloc: memp properly aligned",
  54              		.loc 1 328 0
  55 0014 14F0030F 		tst	r4, #3
  56 0018 04D1     		bne	.L6
  57              	.LVL4:
  58              	.L3:
 329:Middlewares/Third_Party/LwIP/src/core/memp.c ****                 ((mem_ptr_t)memp % MEM_ALIGNMENT) == 0);
 330:Middlewares/Third_Party/LwIP/src/core/memp.c **** #if MEMP_STATS
 331:Middlewares/Third_Party/LwIP/src/core/memp.c ****     desc->stats->used++;
 332:Middlewares/Third_Party/LwIP/src/core/memp.c ****     if (desc->stats->used > desc->stats->max) {
 333:Middlewares/Third_Party/LwIP/src/core/memp.c ****       desc->stats->max = desc->stats->used;
 334:Middlewares/Third_Party/LwIP/src/core/memp.c ****     }
 335:Middlewares/Third_Party/LwIP/src/core/memp.c **** #endif
 336:Middlewares/Third_Party/LwIP/src/core/memp.c ****     SYS_ARCH_UNPROTECT(old_level);
  59              		.loc 1 336 0
  60 001a 2846     		mov	r0, r5
  61 001c FFF7FEFF 		bl	sys_arch_unprotect
  62              	.LVL5:
 337:Middlewares/Third_Party/LwIP/src/core/memp.c ****     /* cast through u8_t* to get rid of alignment warnings */
 338:Middlewares/Third_Party/LwIP/src/core/memp.c ****     return ((u8_t*)memp + MEMP_SIZE);
ARM GAS  C:\Users\Student\AppData\Local\Temp\cccLiz1I.s 			page 8


  63              		.loc 1 338 0
  64 0020 2046     		mov	r0, r4
  65 0022 38BD     		pop	{r3, r4, r5, pc}
  66              	.LVL6:
  67              	.L6:
 328:Middlewares/Third_Party/LwIP/src/core/memp.c ****                 ((mem_ptr_t)memp % MEM_ALIGNMENT) == 0);
  68              		.loc 1 328 0 discriminator 1
  69 0024 054B     		ldr	r3, .L7
  70 0026 40F24912 		movw	r2, #329
  71 002a 0549     		ldr	r1, .L7+4
  72 002c 0548     		ldr	r0, .L7+8
  73              	.LVL7:
  74 002e FFF7FEFF 		bl	printf
  75              	.LVL8:
  76 0032 F2E7     		b	.L3
  77              	.LVL9:
  78              	.L2:
 339:Middlewares/Third_Party/LwIP/src/core/memp.c ****   } else {
 340:Middlewares/Third_Party/LwIP/src/core/memp.c ****     LWIP_DEBUGF(MEMP_DEBUG | LWIP_DBG_LEVEL_SERIOUS, ("memp_malloc: out of memory in pool %s\n", de
 341:Middlewares/Third_Party/LwIP/src/core/memp.c **** #if MEMP_STATS
 342:Middlewares/Third_Party/LwIP/src/core/memp.c ****     desc->stats->err++;
 343:Middlewares/Third_Party/LwIP/src/core/memp.c **** #endif
 344:Middlewares/Third_Party/LwIP/src/core/memp.c ****   }
 345:Middlewares/Third_Party/LwIP/src/core/memp.c **** 
 346:Middlewares/Third_Party/LwIP/src/core/memp.c ****   SYS_ARCH_UNPROTECT(old_level);
  79              		.loc 1 346 0
  80 0034 FFF7FEFF 		bl	sys_arch_unprotect
  81              	.LVL10:
 347:Middlewares/Third_Party/LwIP/src/core/memp.c ****   return NULL;
  82              		.loc 1 347 0
  83 0038 0020     		movs	r0, #0
 348:Middlewares/Third_Party/LwIP/src/core/memp.c **** }
  84              		.loc 1 348 0
  85 003a 38BD     		pop	{r3, r4, r5, pc}
  86              	.LVL11:
  87              	.L8:
  88              		.align	2
  89              	.L7:
  90 003c 00000000 		.word	.LC0
  91 0040 30000000 		.word	.LC1
  92 0044 54000000 		.word	.LC2
  93              		.cfi_endproc
  94              	.LFE159:
  96              		.section	.text.do_memp_free_pool,"ax",%progbits
  97              		.align	1
  98              		.syntax unified
  99              		.thumb
 100              		.thumb_func
 101              		.fpu fpv5-sp-d16
 103              	do_memp_free_pool:
 104              	.LFB162:
 349:Middlewares/Third_Party/LwIP/src/core/memp.c **** 
 350:Middlewares/Third_Party/LwIP/src/core/memp.c **** /**
 351:Middlewares/Third_Party/LwIP/src/core/memp.c ****  * Get an element from a custom pool.
 352:Middlewares/Third_Party/LwIP/src/core/memp.c ****  *
 353:Middlewares/Third_Party/LwIP/src/core/memp.c ****  * @param desc the pool to get an element from
 354:Middlewares/Third_Party/LwIP/src/core/memp.c ****  *
ARM GAS  C:\Users\Student\AppData\Local\Temp\cccLiz1I.s 			page 9


 355:Middlewares/Third_Party/LwIP/src/core/memp.c ****  * @return a pointer to the allocated memory or a NULL pointer on error
 356:Middlewares/Third_Party/LwIP/src/core/memp.c ****  */
 357:Middlewares/Third_Party/LwIP/src/core/memp.c **** void *
 358:Middlewares/Third_Party/LwIP/src/core/memp.c **** #if !MEMP_OVERFLOW_CHECK
 359:Middlewares/Third_Party/LwIP/src/core/memp.c **** memp_malloc_pool(const struct memp_desc *desc)
 360:Middlewares/Third_Party/LwIP/src/core/memp.c **** #else
 361:Middlewares/Third_Party/LwIP/src/core/memp.c **** memp_malloc_pool_fn(const struct memp_desc *desc, const char* file, const int line)
 362:Middlewares/Third_Party/LwIP/src/core/memp.c **** #endif
 363:Middlewares/Third_Party/LwIP/src/core/memp.c **** {
 364:Middlewares/Third_Party/LwIP/src/core/memp.c ****   LWIP_ASSERT("invalid pool desc", desc != NULL);
 365:Middlewares/Third_Party/LwIP/src/core/memp.c ****   if (desc == NULL) {
 366:Middlewares/Third_Party/LwIP/src/core/memp.c ****     return NULL;
 367:Middlewares/Third_Party/LwIP/src/core/memp.c ****   }
 368:Middlewares/Third_Party/LwIP/src/core/memp.c **** 
 369:Middlewares/Third_Party/LwIP/src/core/memp.c **** #if !MEMP_OVERFLOW_CHECK
 370:Middlewares/Third_Party/LwIP/src/core/memp.c ****   return do_memp_malloc_pool(desc);
 371:Middlewares/Third_Party/LwIP/src/core/memp.c **** #else
 372:Middlewares/Third_Party/LwIP/src/core/memp.c ****   return do_memp_malloc_pool_fn(desc, file, line);
 373:Middlewares/Third_Party/LwIP/src/core/memp.c **** #endif
 374:Middlewares/Third_Party/LwIP/src/core/memp.c **** }
 375:Middlewares/Third_Party/LwIP/src/core/memp.c **** 
 376:Middlewares/Third_Party/LwIP/src/core/memp.c **** /**
 377:Middlewares/Third_Party/LwIP/src/core/memp.c ****  * Get an element from a specific pool.
 378:Middlewares/Third_Party/LwIP/src/core/memp.c ****  *
 379:Middlewares/Third_Party/LwIP/src/core/memp.c ****  * @param type the pool to get an element from
 380:Middlewares/Third_Party/LwIP/src/core/memp.c ****  *
 381:Middlewares/Third_Party/LwIP/src/core/memp.c ****  * @return a pointer to the allocated memory or a NULL pointer on error
 382:Middlewares/Third_Party/LwIP/src/core/memp.c ****  */
 383:Middlewares/Third_Party/LwIP/src/core/memp.c **** void *
 384:Middlewares/Third_Party/LwIP/src/core/memp.c **** #if !MEMP_OVERFLOW_CHECK
 385:Middlewares/Third_Party/LwIP/src/core/memp.c **** memp_malloc(memp_t type)
 386:Middlewares/Third_Party/LwIP/src/core/memp.c **** #else
 387:Middlewares/Third_Party/LwIP/src/core/memp.c **** memp_malloc_fn(memp_t type, const char* file, const int line)
 388:Middlewares/Third_Party/LwIP/src/core/memp.c **** #endif
 389:Middlewares/Third_Party/LwIP/src/core/memp.c **** {
 390:Middlewares/Third_Party/LwIP/src/core/memp.c ****   void *memp;
 391:Middlewares/Third_Party/LwIP/src/core/memp.c ****   LWIP_ERROR("memp_malloc: type < MEMP_MAX", (type < MEMP_MAX), return NULL;);
 392:Middlewares/Third_Party/LwIP/src/core/memp.c **** 
 393:Middlewares/Third_Party/LwIP/src/core/memp.c **** #if MEMP_OVERFLOW_CHECK >= 2
 394:Middlewares/Third_Party/LwIP/src/core/memp.c ****   memp_overflow_check_all();
 395:Middlewares/Third_Party/LwIP/src/core/memp.c **** #endif /* MEMP_OVERFLOW_CHECK >= 2 */
 396:Middlewares/Third_Party/LwIP/src/core/memp.c **** 
 397:Middlewares/Third_Party/LwIP/src/core/memp.c **** #if !MEMP_OVERFLOW_CHECK
 398:Middlewares/Third_Party/LwIP/src/core/memp.c ****   memp = do_memp_malloc_pool(memp_pools[type]);
 399:Middlewares/Third_Party/LwIP/src/core/memp.c **** #else
 400:Middlewares/Third_Party/LwIP/src/core/memp.c ****   memp = do_memp_malloc_pool_fn(memp_pools[type], file, line);
 401:Middlewares/Third_Party/LwIP/src/core/memp.c **** #endif
 402:Middlewares/Third_Party/LwIP/src/core/memp.c **** 
 403:Middlewares/Third_Party/LwIP/src/core/memp.c ****   return memp;
 404:Middlewares/Third_Party/LwIP/src/core/memp.c **** }
 405:Middlewares/Third_Party/LwIP/src/core/memp.c **** 
 406:Middlewares/Third_Party/LwIP/src/core/memp.c **** static void
 407:Middlewares/Third_Party/LwIP/src/core/memp.c **** do_memp_free_pool(const struct memp_desc* desc, void *mem)
 408:Middlewares/Third_Party/LwIP/src/core/memp.c **** {
 105              		.loc 1 408 0
 106              		.cfi_startproc
 107              		@ args = 0, pretend = 0, frame = 0
ARM GAS  C:\Users\Student\AppData\Local\Temp\cccLiz1I.s 			page 10


 108              		@ frame_needed = 0, uses_anonymous_args = 0
 109              	.LVL12:
 110 0000 38B5     		push	{r3, r4, r5, lr}
 111              	.LCFI1:
 112              		.cfi_def_cfa_offset 16
 113              		.cfi_offset 3, -16
 114              		.cfi_offset 4, -12
 115              		.cfi_offset 5, -8
 116              		.cfi_offset 14, -4
 117 0002 0546     		mov	r5, r0
 118 0004 0C46     		mov	r4, r1
 409:Middlewares/Third_Party/LwIP/src/core/memp.c ****   struct memp *memp;
 410:Middlewares/Third_Party/LwIP/src/core/memp.c ****   SYS_ARCH_DECL_PROTECT(old_level);
 411:Middlewares/Third_Party/LwIP/src/core/memp.c **** 
 412:Middlewares/Third_Party/LwIP/src/core/memp.c ****   LWIP_ASSERT("memp_free: mem properly aligned",
 119              		.loc 1 412 0
 120 0006 11F0030F 		tst	r1, #3
 121 000a 09D1     		bne	.L12
 122              	.LVL13:
 123              	.L10:
 413:Middlewares/Third_Party/LwIP/src/core/memp.c ****                 ((mem_ptr_t)mem % MEM_ALIGNMENT) == 0);
 414:Middlewares/Third_Party/LwIP/src/core/memp.c **** 
 415:Middlewares/Third_Party/LwIP/src/core/memp.c ****   /* cast through void* to get rid of alignment warnings */
 416:Middlewares/Third_Party/LwIP/src/core/memp.c ****   memp = (struct memp *)(void *)((u8_t*)mem - MEMP_SIZE);
 417:Middlewares/Third_Party/LwIP/src/core/memp.c **** 
 418:Middlewares/Third_Party/LwIP/src/core/memp.c ****   SYS_ARCH_PROTECT(old_level);
 124              		.loc 1 418 0
 125 000c FFF7FEFF 		bl	sys_arch_protect
 126              	.LVL14:
 419:Middlewares/Third_Party/LwIP/src/core/memp.c **** 
 420:Middlewares/Third_Party/LwIP/src/core/memp.c **** #if MEMP_OVERFLOW_CHECK == 1
 421:Middlewares/Third_Party/LwIP/src/core/memp.c ****   memp_overflow_check_element_overflow(memp, desc);
 422:Middlewares/Third_Party/LwIP/src/core/memp.c ****   memp_overflow_check_element_underflow(memp, desc);
 423:Middlewares/Third_Party/LwIP/src/core/memp.c **** #endif /* MEMP_OVERFLOW_CHECK */
 424:Middlewares/Third_Party/LwIP/src/core/memp.c **** 
 425:Middlewares/Third_Party/LwIP/src/core/memp.c **** #if MEMP_STATS
 426:Middlewares/Third_Party/LwIP/src/core/memp.c ****   desc->stats->used--;
 427:Middlewares/Third_Party/LwIP/src/core/memp.c **** #endif
 428:Middlewares/Third_Party/LwIP/src/core/memp.c **** 
 429:Middlewares/Third_Party/LwIP/src/core/memp.c **** #if MEMP_MEM_MALLOC
 430:Middlewares/Third_Party/LwIP/src/core/memp.c ****   LWIP_UNUSED_ARG(desc);
 431:Middlewares/Third_Party/LwIP/src/core/memp.c ****   SYS_ARCH_UNPROTECT(old_level);
 432:Middlewares/Third_Party/LwIP/src/core/memp.c ****   mem_free(memp);
 433:Middlewares/Third_Party/LwIP/src/core/memp.c **** #else /* MEMP_MEM_MALLOC */
 434:Middlewares/Third_Party/LwIP/src/core/memp.c ****   memp->next = *desc->tab;
 127              		.loc 1 434 0
 128 0010 AB68     		ldr	r3, [r5, #8]
 129 0012 1B68     		ldr	r3, [r3]
 130 0014 2360     		str	r3, [r4]
 435:Middlewares/Third_Party/LwIP/src/core/memp.c ****   *desc->tab = memp;
 131              		.loc 1 435 0
 132 0016 AB68     		ldr	r3, [r5, #8]
 133 0018 1C60     		str	r4, [r3]
 436:Middlewares/Third_Party/LwIP/src/core/memp.c **** 
 437:Middlewares/Third_Party/LwIP/src/core/memp.c **** #if MEMP_SANITY_CHECK
 438:Middlewares/Third_Party/LwIP/src/core/memp.c ****   LWIP_ASSERT("memp sanity", memp_sanity(desc));
 439:Middlewares/Third_Party/LwIP/src/core/memp.c **** #endif /* MEMP_SANITY_CHECK */
ARM GAS  C:\Users\Student\AppData\Local\Temp\cccLiz1I.s 			page 11


 440:Middlewares/Third_Party/LwIP/src/core/memp.c **** 
 441:Middlewares/Third_Party/LwIP/src/core/memp.c ****   SYS_ARCH_UNPROTECT(old_level);
 134              		.loc 1 441 0
 135 001a FFF7FEFF 		bl	sys_arch_unprotect
 136              	.LVL15:
 137 001e 38BD     		pop	{r3, r4, r5, pc}
 138              	.LVL16:
 139              	.L12:
 412:Middlewares/Third_Party/LwIP/src/core/memp.c ****                 ((mem_ptr_t)mem % MEM_ALIGNMENT) == 0);
 140              		.loc 1 412 0 discriminator 1
 141 0020 034B     		ldr	r3, .L13
 142 0022 40F29D12 		movw	r2, #413
 143 0026 0349     		ldr	r1, .L13+4
 144              	.LVL17:
 145 0028 0348     		ldr	r0, .L13+8
 146              	.LVL18:
 147 002a FFF7FEFF 		bl	printf
 148              	.LVL19:
 149 002e EDE7     		b	.L10
 150              	.L14:
 151              		.align	2
 152              	.L13:
 153 0030 00000000 		.word	.LC0
 154 0034 00000000 		.word	.LC3
 155 0038 54000000 		.word	.LC2
 156              		.cfi_endproc
 157              	.LFE162:
 159              		.section	.text.memp_init_pool,"ax",%progbits
 160              		.align	1
 161              		.global	memp_init_pool
 162              		.syntax unified
 163              		.thumb
 164              		.thumb_func
 165              		.fpu fpv5-sp-d16
 167              	memp_init_pool:
 168              	.LFB157:
 231:Middlewares/Third_Party/LwIP/src/core/memp.c **** #if MEMP_MEM_MALLOC
 169              		.loc 1 231 0
 170              		.cfi_startproc
 171              		@ args = 0, pretend = 0, frame = 0
 172              		@ frame_needed = 0, uses_anonymous_args = 0
 173              		@ link register save eliminated.
 174              	.LVL20:
 238:Middlewares/Third_Party/LwIP/src/core/memp.c ****   memp = (struct memp*)LWIP_MEM_ALIGN(desc->base);
 175              		.loc 1 238 0
 176 0000 8368     		ldr	r3, [r0, #8]
 177 0002 0022     		movs	r2, #0
 178 0004 1A60     		str	r2, [r3]
 239:Middlewares/Third_Party/LwIP/src/core/memp.c ****   /* create a linked list of memp elements */
 179              		.loc 1 239 0
 180 0006 4368     		ldr	r3, [r0, #4]
 181 0008 0333     		adds	r3, r3, #3
 182 000a 23F00303 		bic	r3, r3, #3
 183              	.LVL21:
 241:Middlewares/Third_Party/LwIP/src/core/memp.c ****     memp->next = *desc->tab;
 184              		.loc 1 241 0
 185 000e 07E0     		b	.L16
ARM GAS  C:\Users\Student\AppData\Local\Temp\cccLiz1I.s 			page 12


 186              	.LVL22:
 187              	.L17:
 242:Middlewares/Third_Party/LwIP/src/core/memp.c ****     *desc->tab = memp;
 188              		.loc 1 242 0 discriminator 3
 189 0010 8168     		ldr	r1, [r0, #8]
 190 0012 0968     		ldr	r1, [r1]
 191 0014 1960     		str	r1, [r3]
 243:Middlewares/Third_Party/LwIP/src/core/memp.c **** #if MEMP_OVERFLOW_CHECK
 192              		.loc 1 243 0 discriminator 3
 193 0016 8168     		ldr	r1, [r0, #8]
 194 0018 0B60     		str	r3, [r1]
 248:Middlewares/Third_Party/LwIP/src/core/memp.c **** #if MEMP_OVERFLOW_CHECK
 195              		.loc 1 248 0 discriminator 3
 196 001a 0188     		ldrh	r1, [r0]
 197 001c 0B44     		add	r3, r3, r1
 198              	.LVL23:
 241:Middlewares/Third_Party/LwIP/src/core/memp.c ****     memp->next = *desc->tab;
 199              		.loc 1 241 0 discriminator 3
 200 001e 0132     		adds	r2, r2, #1
 201              	.LVL24:
 202              	.L16:
 241:Middlewares/Third_Party/LwIP/src/core/memp.c ****     memp->next = *desc->tab;
 203              		.loc 1 241 0 is_stmt 0 discriminator 1
 204 0020 4188     		ldrh	r1, [r0, #2]
 205 0022 8A42     		cmp	r2, r1
 206 0024 F4DB     		blt	.L17
 262:Middlewares/Third_Party/LwIP/src/core/memp.c **** 
 207              		.loc 1 262 0 is_stmt 1
 208 0026 7047     		bx	lr
 209              		.cfi_endproc
 210              	.LFE157:
 212              		.section	.text.memp_init,"ax",%progbits
 213              		.align	1
 214              		.global	memp_init
 215              		.syntax unified
 216              		.thumb
 217              		.thumb_func
 218              		.fpu fpv5-sp-d16
 220              	memp_init:
 221              	.LFB158:
 272:Middlewares/Third_Party/LwIP/src/core/memp.c ****   u16_t i;
 222              		.loc 1 272 0
 223              		.cfi_startproc
 224              		@ args = 0, pretend = 0, frame = 0
 225              		@ frame_needed = 0, uses_anonymous_args = 0
 226 0000 10B5     		push	{r4, lr}
 227              	.LCFI2:
 228              		.cfi_def_cfa_offset 8
 229              		.cfi_offset 4, -8
 230              		.cfi_offset 14, -4
 231              	.LVL25:
 276:Middlewares/Third_Party/LwIP/src/core/memp.c ****     memp_init_pool(memp_pools[i]);
 232              		.loc 1 276 0
 233 0002 0024     		movs	r4, #0
 234 0004 06E0     		b	.L19
 235              	.LVL26:
 236              	.L20:
ARM GAS  C:\Users\Student\AppData\Local\Temp\cccLiz1I.s 			page 13


 277:Middlewares/Third_Party/LwIP/src/core/memp.c **** 
 237              		.loc 1 277 0 discriminator 3
 238 0006 054B     		ldr	r3, .L22
 239 0008 53F82400 		ldr	r0, [r3, r4, lsl #2]
 240 000c FFF7FEFF 		bl	memp_init_pool
 241              	.LVL27:
 276:Middlewares/Third_Party/LwIP/src/core/memp.c ****     memp_init_pool(memp_pools[i]);
 242              		.loc 1 276 0 discriminator 3
 243 0010 0134     		adds	r4, r4, #1
 244              	.LVL28:
 245 0012 A4B2     		uxth	r4, r4
 246              	.LVL29:
 247              	.L19:
 276:Middlewares/Third_Party/LwIP/src/core/memp.c ****     memp_init_pool(memp_pools[i]);
 248              		.loc 1 276 0 is_stmt 0 discriminator 1
 249 0014 0D2C     		cmp	r4, #13
 250 0016 F6D9     		bls	.L20
 288:Middlewares/Third_Party/LwIP/src/core/memp.c **** 
 251              		.loc 1 288 0 is_stmt 1
 252 0018 10BD     		pop	{r4, pc}
 253              	.LVL30:
 254              	.L23:
 255 001a 00BF     		.align	2
 256              	.L22:
 257 001c 00000000 		.word	.LANCHOR0
 258              		.cfi_endproc
 259              	.LFE158:
 261              		.section	.text.memp_malloc_pool,"ax",%progbits
 262              		.align	1
 263              		.global	memp_malloc_pool
 264              		.syntax unified
 265              		.thumb
 266              		.thumb_func
 267              		.fpu fpv5-sp-d16
 269              	memp_malloc_pool:
 270              	.LFB160:
 363:Middlewares/Third_Party/LwIP/src/core/memp.c ****   LWIP_ASSERT("invalid pool desc", desc != NULL);
 271              		.loc 1 363 0
 272              		.cfi_startproc
 273              		@ args = 0, pretend = 0, frame = 0
 274              		@ frame_needed = 0, uses_anonymous_args = 0
 275              	.LVL31:
 276 0000 10B5     		push	{r4, lr}
 277              	.LCFI3:
 278              		.cfi_def_cfa_offset 8
 279              		.cfi_offset 4, -8
 280              		.cfi_offset 14, -4
 364:Middlewares/Third_Party/LwIP/src/core/memp.c ****   if (desc == NULL) {
 281              		.loc 1 364 0
 282 0002 0446     		mov	r4, r0
 283 0004 20B1     		cbz	r0, .L29
 284              	.LVL32:
 285              	.L25:
 365:Middlewares/Third_Party/LwIP/src/core/memp.c ****     return NULL;
 286              		.loc 1 365 0
 287 0006 5CB1     		cbz	r4, .L27
 370:Middlewares/Third_Party/LwIP/src/core/memp.c **** #else
ARM GAS  C:\Users\Student\AppData\Local\Temp\cccLiz1I.s 			page 14


 288              		.loc 1 370 0
 289 0008 2046     		mov	r0, r4
 290 000a FFF7FEFF 		bl	do_memp_malloc_pool
 291              	.LVL33:
 292 000e 10BD     		pop	{r4, pc}
 293              	.LVL34:
 294              	.L29:
 364:Middlewares/Third_Party/LwIP/src/core/memp.c ****   if (desc == NULL) {
 295              		.loc 1 364 0 discriminator 1
 296 0010 044B     		ldr	r3, .L30
 297 0012 4FF4B672 		mov	r2, #364
 298 0016 0449     		ldr	r1, .L30+4
 299 0018 0448     		ldr	r0, .L30+8
 300              	.LVL35:
 301 001a FFF7FEFF 		bl	printf
 302              	.LVL36:
 303 001e F2E7     		b	.L25
 304              	.L27:
 366:Middlewares/Third_Party/LwIP/src/core/memp.c ****   }
 305              		.loc 1 366 0
 306 0020 0020     		movs	r0, #0
 374:Middlewares/Third_Party/LwIP/src/core/memp.c **** 
 307              		.loc 1 374 0
 308 0022 10BD     		pop	{r4, pc}
 309              	.LVL37:
 310              	.L31:
 311              		.align	2
 312              	.L30:
 313 0024 00000000 		.word	.LC0
 314 0028 00000000 		.word	.LC4
 315 002c 54000000 		.word	.LC2
 316              		.cfi_endproc
 317              	.LFE160:
 319              		.section	.text.memp_malloc,"ax",%progbits
 320              		.align	1
 321              		.global	memp_malloc
 322              		.syntax unified
 323              		.thumb
 324              		.thumb_func
 325              		.fpu fpv5-sp-d16
 327              	memp_malloc:
 328              	.LFB161:
 389:Middlewares/Third_Party/LwIP/src/core/memp.c ****   void *memp;
 329              		.loc 1 389 0
 330              		.cfi_startproc
 331              		@ args = 0, pretend = 0, frame = 0
 332              		@ frame_needed = 0, uses_anonymous_args = 0
 333              	.LVL38:
 334 0000 08B5     		push	{r3, lr}
 335              	.LCFI4:
 336              		.cfi_def_cfa_offset 8
 337              		.cfi_offset 3, -8
 338              		.cfi_offset 14, -4
 391:Middlewares/Third_Party/LwIP/src/core/memp.c **** 
 339              		.loc 1 391 0
 340 0002 0D28     		cmp	r0, #13
 341 0004 05D8     		bhi	.L36
ARM GAS  C:\Users\Student\AppData\Local\Temp\cccLiz1I.s 			page 15


 398:Middlewares/Third_Party/LwIP/src/core/memp.c **** #else
 342              		.loc 1 398 0
 343 0006 074B     		ldr	r3, .L37
 344 0008 53F82000 		ldr	r0, [r3, r0, lsl #2]
 345              	.LVL39:
 346 000c FFF7FEFF 		bl	do_memp_malloc_pool
 347              	.LVL40:
 404:Middlewares/Third_Party/LwIP/src/core/memp.c **** 
 348              		.loc 1 404 0
 349 0010 08BD     		pop	{r3, pc}
 350              	.LVL41:
 351              	.L36:
 391:Middlewares/Third_Party/LwIP/src/core/memp.c **** 
 352              		.loc 1 391 0 discriminator 1
 353 0012 054B     		ldr	r3, .L37+4
 354 0014 40F28712 		movw	r2, #391
 355 0018 0449     		ldr	r1, .L37+8
 356 001a 0548     		ldr	r0, .L37+12
 357              	.LVL42:
 358 001c FFF7FEFF 		bl	printf
 359              	.LVL43:
 360 0020 0020     		movs	r0, #0
 361 0022 08BD     		pop	{r3, pc}
 362              	.L38:
 363              		.align	2
 364              	.L37:
 365 0024 00000000 		.word	.LANCHOR0
 366 0028 00000000 		.word	.LC0
 367 002c 00000000 		.word	.LC5
 368 0030 54000000 		.word	.LC2
 369              		.cfi_endproc
 370              	.LFE161:
 372              		.section	.text.memp_free_pool,"ax",%progbits
 373              		.align	1
 374              		.global	memp_free_pool
 375              		.syntax unified
 376              		.thumb
 377              		.thumb_func
 378              		.fpu fpv5-sp-d16
 380              	memp_free_pool:
 381              	.LFB163:
 442:Middlewares/Third_Party/LwIP/src/core/memp.c **** #endif /* !MEMP_MEM_MALLOC */
 443:Middlewares/Third_Party/LwIP/src/core/memp.c **** }
 444:Middlewares/Third_Party/LwIP/src/core/memp.c **** 
 445:Middlewares/Third_Party/LwIP/src/core/memp.c **** /**
 446:Middlewares/Third_Party/LwIP/src/core/memp.c ****  * Put a custom pool element back into its pool.
 447:Middlewares/Third_Party/LwIP/src/core/memp.c ****  *
 448:Middlewares/Third_Party/LwIP/src/core/memp.c ****  * @param desc the pool where to put mem
 449:Middlewares/Third_Party/LwIP/src/core/memp.c ****  * @param mem the memp element to free
 450:Middlewares/Third_Party/LwIP/src/core/memp.c ****  */
 451:Middlewares/Third_Party/LwIP/src/core/memp.c **** void
 452:Middlewares/Third_Party/LwIP/src/core/memp.c **** memp_free_pool(const struct memp_desc* desc, void *mem)
 453:Middlewares/Third_Party/LwIP/src/core/memp.c **** {
 382              		.loc 1 453 0
 383              		.cfi_startproc
 384              		@ args = 0, pretend = 0, frame = 0
 385              		@ frame_needed = 0, uses_anonymous_args = 0
ARM GAS  C:\Users\Student\AppData\Local\Temp\cccLiz1I.s 			page 16


 386              	.LVL44:
 387 0000 38B5     		push	{r3, r4, r5, lr}
 388              	.LCFI5:
 389              		.cfi_def_cfa_offset 16
 390              		.cfi_offset 3, -16
 391              		.cfi_offset 4, -12
 392              		.cfi_offset 5, -8
 393              		.cfi_offset 14, -4
 394 0002 0D46     		mov	r5, r1
 454:Middlewares/Third_Party/LwIP/src/core/memp.c ****   LWIP_ASSERT("invalid pool desc", desc != NULL);
 395              		.loc 1 454 0
 396 0004 0446     		mov	r4, r0
 397 0006 20B1     		cbz	r0, .L43
 398              	.LVL45:
 399              	.L40:
 455:Middlewares/Third_Party/LwIP/src/core/memp.c ****   if ((desc == NULL) || (mem == NULL)) {
 400              		.loc 1 455 0
 401 0008 002D     		cmp	r5, #0
 402 000a 18BF     		it	ne
 403 000c 002C     		cmpne	r4, #0
 404 000e 08D1     		bne	.L44
 405              	.L39:
 406 0010 38BD     		pop	{r3, r4, r5, pc}
 407              	.LVL46:
 408              	.L43:
 454:Middlewares/Third_Party/LwIP/src/core/memp.c ****   LWIP_ASSERT("invalid pool desc", desc != NULL);
 409              		.loc 1 454 0 discriminator 1
 410 0012 064B     		ldr	r3, .L45
 411 0014 4FF4E372 		mov	r2, #454
 412 0018 0549     		ldr	r1, .L45+4
 413              	.LVL47:
 414 001a 0648     		ldr	r0, .L45+8
 415              	.LVL48:
 416 001c FFF7FEFF 		bl	printf
 417              	.LVL49:
 418 0020 F2E7     		b	.L40
 419              	.L44:
 456:Middlewares/Third_Party/LwIP/src/core/memp.c ****     return;
 457:Middlewares/Third_Party/LwIP/src/core/memp.c ****   }
 458:Middlewares/Third_Party/LwIP/src/core/memp.c **** 
 459:Middlewares/Third_Party/LwIP/src/core/memp.c ****   do_memp_free_pool(desc, mem);
 420              		.loc 1 459 0
 421 0022 2946     		mov	r1, r5
 422 0024 2046     		mov	r0, r4
 423 0026 FFF7FEFF 		bl	do_memp_free_pool
 424              	.LVL50:
 425 002a F1E7     		b	.L39
 426              	.L46:
 427              		.align	2
 428              	.L45:
 429 002c 00000000 		.word	.LC0
 430 0030 00000000 		.word	.LC4
 431 0034 54000000 		.word	.LC2
 432              		.cfi_endproc
 433              	.LFE163:
 435              		.section	.text.memp_free,"ax",%progbits
 436              		.align	1
ARM GAS  C:\Users\Student\AppData\Local\Temp\cccLiz1I.s 			page 17


 437              		.global	memp_free
 438              		.syntax unified
 439              		.thumb
 440              		.thumb_func
 441              		.fpu fpv5-sp-d16
 443              	memp_free:
 444              	.LFB164:
 460:Middlewares/Third_Party/LwIP/src/core/memp.c **** }
 461:Middlewares/Third_Party/LwIP/src/core/memp.c **** 
 462:Middlewares/Third_Party/LwIP/src/core/memp.c **** /**
 463:Middlewares/Third_Party/LwIP/src/core/memp.c ****  * Put an element back into its pool.
 464:Middlewares/Third_Party/LwIP/src/core/memp.c ****  *
 465:Middlewares/Third_Party/LwIP/src/core/memp.c ****  * @param type the pool where to put mem
 466:Middlewares/Third_Party/LwIP/src/core/memp.c ****  * @param mem the memp element to free
 467:Middlewares/Third_Party/LwIP/src/core/memp.c ****  */
 468:Middlewares/Third_Party/LwIP/src/core/memp.c **** void
 469:Middlewares/Third_Party/LwIP/src/core/memp.c **** memp_free(memp_t type, void *mem)
 470:Middlewares/Third_Party/LwIP/src/core/memp.c **** {
 445              		.loc 1 470 0
 446              		.cfi_startproc
 447              		@ args = 0, pretend = 0, frame = 0
 448              		@ frame_needed = 0, uses_anonymous_args = 0
 449              	.LVL51:
 450 0000 08B5     		push	{r3, lr}
 451              	.LCFI6:
 452              		.cfi_def_cfa_offset 8
 453              		.cfi_offset 3, -8
 454              		.cfi_offset 14, -4
 471:Middlewares/Third_Party/LwIP/src/core/memp.c **** #ifdef LWIP_HOOK_MEMP_AVAILABLE
 472:Middlewares/Third_Party/LwIP/src/core/memp.c ****   struct memp *old_first;
 473:Middlewares/Third_Party/LwIP/src/core/memp.c **** #endif
 474:Middlewares/Third_Party/LwIP/src/core/memp.c **** 
 475:Middlewares/Third_Party/LwIP/src/core/memp.c ****   LWIP_ERROR("memp_free: type < MEMP_MAX", (type < MEMP_MAX), return;);
 455              		.loc 1 475 0
 456 0002 0D28     		cmp	r0, #13
 457 0004 06D8     		bhi	.L51
 476:Middlewares/Third_Party/LwIP/src/core/memp.c **** 
 477:Middlewares/Third_Party/LwIP/src/core/memp.c ****   if (mem == NULL) {
 458              		.loc 1 477 0
 459 0006 21B1     		cbz	r1, .L47
 478:Middlewares/Third_Party/LwIP/src/core/memp.c ****     return;
 479:Middlewares/Third_Party/LwIP/src/core/memp.c ****   }
 480:Middlewares/Third_Party/LwIP/src/core/memp.c **** 
 481:Middlewares/Third_Party/LwIP/src/core/memp.c **** #if MEMP_OVERFLOW_CHECK >= 2
 482:Middlewares/Third_Party/LwIP/src/core/memp.c ****   memp_overflow_check_all();
 483:Middlewares/Third_Party/LwIP/src/core/memp.c **** #endif /* MEMP_OVERFLOW_CHECK >= 2 */
 484:Middlewares/Third_Party/LwIP/src/core/memp.c **** 
 485:Middlewares/Third_Party/LwIP/src/core/memp.c **** #ifdef LWIP_HOOK_MEMP_AVAILABLE
 486:Middlewares/Third_Party/LwIP/src/core/memp.c ****   old_first = *memp_pools[type]->tab;
 487:Middlewares/Third_Party/LwIP/src/core/memp.c **** #endif
 488:Middlewares/Third_Party/LwIP/src/core/memp.c **** 
 489:Middlewares/Third_Party/LwIP/src/core/memp.c ****   do_memp_free_pool(memp_pools[type], mem);
 460              		.loc 1 489 0
 461 0008 064B     		ldr	r3, .L52
 462 000a 53F82000 		ldr	r0, [r3, r0, lsl #2]
 463              	.LVL52:
 464 000e FFF7FEFF 		bl	do_memp_free_pool
ARM GAS  C:\Users\Student\AppData\Local\Temp\cccLiz1I.s 			page 18


 465              	.LVL53:
 466              	.L47:
 467 0012 08BD     		pop	{r3, pc}
 468              	.LVL54:
 469              	.L51:
 475:Middlewares/Third_Party/LwIP/src/core/memp.c **** 
 470              		.loc 1 475 0 discriminator 1
 471 0014 044B     		ldr	r3, .L52+4
 472 0016 40F2DB12 		movw	r2, #475
 473 001a 0449     		ldr	r1, .L52+8
 474              	.LVL55:
 475 001c 0448     		ldr	r0, .L52+12
 476              	.LVL56:
 477 001e FFF7FEFF 		bl	printf
 478              	.LVL57:
 479 0022 08BD     		pop	{r3, pc}
 480              	.L53:
 481              		.align	2
 482              	.L52:
 483 0024 00000000 		.word	.LANCHOR0
 484 0028 00000000 		.word	.LC0
 485 002c 00000000 		.word	.LC6
 486 0030 54000000 		.word	.LC2
 487              		.cfi_endproc
 488              	.LFE164:
 490              		.global	memp_pools
 491              		.global	memp_PBUF_POOL
 492              		.comm	memp_memory_PBUF_POOL_base,9731,4
 493              		.global	memp_PBUF
 494              		.comm	memp_memory_PBUF_base,259,4
 495              		.global	memp_NETDB
 496              		.comm	memp_memory_NETDB_base,311,4
 497              		.global	memp_SYS_TIMEOUT
 498              		.comm	memp_memory_SYS_TIMEOUT_base,99,4
 499              		.global	memp_TCPIP_MSG_INPKT
 500              		.comm	memp_memory_TCPIP_MSG_INPKT_base,131,4
 501              		.global	memp_TCPIP_MSG_API
 502              		.comm	memp_memory_TCPIP_MSG_API_base,131,4
 503              		.global	memp_NETCONN
 504              		.comm	memp_memory_NETCONN_base,179,4
 505              		.global	memp_NETBUF
 506              		.comm	memp_memory_NETBUF_base,35,4
 507              		.global	memp_FRAG_PBUF
 508              		.comm	memp_memory_FRAG_PBUF_base,363,4
 509              		.global	memp_REASSDATA
 510              		.comm	memp_memory_REASSDATA_base,163,4
 511              		.global	memp_TCP_SEG
 512              		.comm	memp_memory_TCP_SEG_base,259,4
 513              		.global	memp_TCP_PCB_LISTEN
 514              		.comm	memp_memory_TCP_PCB_LISTEN_base,227,4
 515              		.global	memp_TCP_PCB
 516              		.comm	memp_memory_TCP_PCB_base,763,4
 517              		.global	memp_UDP_PCB
 518              		.comm	memp_memory_UDP_PCB_base,131,4
 519              		.section	.bss.memp_tab_FRAG_PBUF,"aw",%nobits
 520              		.align	2
 523              	memp_tab_FRAG_PBUF:
ARM GAS  C:\Users\Student\AppData\Local\Temp\cccLiz1I.s 			page 19


 524 0000 00000000 		.space	4
 525              		.section	.bss.memp_tab_NETBUF,"aw",%nobits
 526              		.align	2
 529              	memp_tab_NETBUF:
 530 0000 00000000 		.space	4
 531              		.section	.bss.memp_tab_NETCONN,"aw",%nobits
 532              		.align	2
 535              	memp_tab_NETCONN:
 536 0000 00000000 		.space	4
 537              		.section	.bss.memp_tab_NETDB,"aw",%nobits
 538              		.align	2
 541              	memp_tab_NETDB:
 542 0000 00000000 		.space	4
 543              		.section	.bss.memp_tab_PBUF,"aw",%nobits
 544              		.align	2
 547              	memp_tab_PBUF:
 548 0000 00000000 		.space	4
 549              		.section	.bss.memp_tab_PBUF_POOL,"aw",%nobits
 550              		.align	2
 553              	memp_tab_PBUF_POOL:
 554 0000 00000000 		.space	4
 555              		.section	.bss.memp_tab_REASSDATA,"aw",%nobits
 556              		.align	2
 559              	memp_tab_REASSDATA:
 560 0000 00000000 		.space	4
 561              		.section	.bss.memp_tab_SYS_TIMEOUT,"aw",%nobits
 562              		.align	2
 565              	memp_tab_SYS_TIMEOUT:
 566 0000 00000000 		.space	4
 567              		.section	.bss.memp_tab_TCPIP_MSG_API,"aw",%nobits
 568              		.align	2
 571              	memp_tab_TCPIP_MSG_API:
 572 0000 00000000 		.space	4
 573              		.section	.bss.memp_tab_TCPIP_MSG_INPKT,"aw",%nobits
 574              		.align	2
 577              	memp_tab_TCPIP_MSG_INPKT:
 578 0000 00000000 		.space	4
 579              		.section	.bss.memp_tab_TCP_PCB,"aw",%nobits
 580              		.align	2
 583              	memp_tab_TCP_PCB:
 584 0000 00000000 		.space	4
 585              		.section	.bss.memp_tab_TCP_PCB_LISTEN,"aw",%nobits
 586              		.align	2
 589              	memp_tab_TCP_PCB_LISTEN:
 590 0000 00000000 		.space	4
 591              		.section	.bss.memp_tab_TCP_SEG,"aw",%nobits
 592              		.align	2
 595              	memp_tab_TCP_SEG:
 596 0000 00000000 		.space	4
 597              		.section	.bss.memp_tab_UDP_PCB,"aw",%nobits
 598              		.align	2
 601              	memp_tab_UDP_PCB:
 602 0000 00000000 		.space	4
 603              		.section	.rodata.do_memp_free_pool.str1.4,"aMS",%progbits,1
 604              		.align	2
 605              	.LC3:
 606 0000 6D656D70 		.ascii	"memp_free: mem properly aligned\000"
ARM GAS  C:\Users\Student\AppData\Local\Temp\cccLiz1I.s 			page 20


 606      5F667265 
 606      653A206D 
 606      656D2070 
 606      726F7065 
 607              		.section	.rodata.do_memp_malloc_pool.str1.4,"aMS",%progbits,1
 608              		.align	2
 609              	.LC0:
 610 0000 4D696464 		.ascii	"Middlewares/Third_Party/LwIP/src/core/memp.c\000"
 610      6C657761 
 610      7265732F 
 610      54686972 
 610      645F5061 
 611 002d 000000   		.space	3
 612              	.LC1:
 613 0030 6D656D70 		.ascii	"memp_malloc: memp properly aligned\000"
 613      5F6D616C 
 613      6C6F633A 
 613      206D656D 
 613      70207072 
 614 0053 00       		.space	1
 615              	.LC2:
 616 0054 41737365 		.ascii	"Assertion \"%s\" failed at line %d in %s\012\000"
 616      7274696F 
 616      6E202225 
 616      73222066 
 616      61696C65 
 617              		.section	.rodata.memp_FRAG_PBUF,"a",%progbits
 618              		.align	2
 621              	memp_FRAG_PBUF:
 622 0000 1800     		.short	24
 623 0002 0F00     		.short	15
 624 0004 00000000 		.word	memp_memory_FRAG_PBUF_base
 625 0008 00000000 		.word	memp_tab_FRAG_PBUF
 626              		.section	.rodata.memp_NETBUF,"a",%progbits
 627              		.align	2
 630              	memp_NETBUF:
 631 0000 1000     		.short	16
 632 0002 0200     		.short	2
 633 0004 00000000 		.word	memp_memory_NETBUF_base
 634 0008 00000000 		.word	memp_tab_NETBUF
 635              		.section	.rodata.memp_NETCONN,"a",%progbits
 636              		.align	2
 639              	memp_NETCONN:
 640 0000 2C00     		.short	44
 641 0002 0400     		.short	4
 642 0004 00000000 		.word	memp_memory_NETCONN_base
 643 0008 00000000 		.word	memp_tab_NETCONN
 644              		.section	.rodata.memp_NETDB,"a",%progbits
 645              		.align	2
 648              	memp_NETDB:
 649 0000 3401     		.short	308
 650 0002 0100     		.short	1
 651 0004 00000000 		.word	memp_memory_NETDB_base
 652 0008 00000000 		.word	memp_tab_NETDB
 653              		.section	.rodata.memp_PBUF,"a",%progbits
 654              		.align	2
 657              	memp_PBUF:
ARM GAS  C:\Users\Student\AppData\Local\Temp\cccLiz1I.s 			page 21


 658 0000 1000     		.short	16
 659 0002 1000     		.short	16
 660 0004 00000000 		.word	memp_memory_PBUF_base
 661 0008 00000000 		.word	memp_tab_PBUF
 662              		.section	.rodata.memp_PBUF_POOL,"a",%progbits
 663              		.align	2
 666              	memp_PBUF_POOL:
 667 0000 6002     		.short	608
 668 0002 1000     		.short	16
 669 0004 00000000 		.word	memp_memory_PBUF_POOL_base
 670 0008 00000000 		.word	memp_tab_PBUF_POOL
 671              		.section	.rodata.memp_REASSDATA,"a",%progbits
 672              		.align	2
 675              	memp_REASSDATA:
 676 0000 2000     		.short	32
 677 0002 0500     		.short	5
 678 0004 00000000 		.word	memp_memory_REASSDATA_base
 679 0008 00000000 		.word	memp_tab_REASSDATA
 680              		.section	.rodata.memp_SYS_TIMEOUT,"a",%progbits
 681              		.align	2
 684              	memp_SYS_TIMEOUT:
 685 0000 1000     		.short	16
 686 0002 0600     		.short	6
 687 0004 00000000 		.word	memp_memory_SYS_TIMEOUT_base
 688 0008 00000000 		.word	memp_tab_SYS_TIMEOUT
 689              		.section	.rodata.memp_TCPIP_MSG_API,"a",%progbits
 690              		.align	2
 693              	memp_TCPIP_MSG_API:
 694 0000 1000     		.short	16
 695 0002 0800     		.short	8
 696 0004 00000000 		.word	memp_memory_TCPIP_MSG_API_base
 697 0008 00000000 		.word	memp_tab_TCPIP_MSG_API
 698              		.section	.rodata.memp_TCPIP_MSG_INPKT,"a",%progbits
 699              		.align	2
 702              	memp_TCPIP_MSG_INPKT:
 703 0000 1000     		.short	16
 704 0002 0800     		.short	8
 705 0004 00000000 		.word	memp_memory_TCPIP_MSG_INPKT_base
 706 0008 00000000 		.word	memp_tab_TCPIP_MSG_INPKT
 707              		.section	.rodata.memp_TCP_PCB,"a",%progbits
 708              		.align	2
 711              	memp_TCP_PCB:
 712 0000 9800     		.short	152
 713 0002 0500     		.short	5
 714 0004 00000000 		.word	memp_memory_TCP_PCB_base
 715 0008 00000000 		.word	memp_tab_TCP_PCB
 716              		.section	.rodata.memp_TCP_PCB_LISTEN,"a",%progbits
 717              		.align	2
 720              	memp_TCP_PCB_LISTEN:
 721 0000 1C00     		.short	28
 722 0002 0800     		.short	8
 723 0004 00000000 		.word	memp_memory_TCP_PCB_LISTEN_base
 724 0008 00000000 		.word	memp_tab_TCP_PCB_LISTEN
 725              		.section	.rodata.memp_TCP_SEG,"a",%progbits
 726              		.align	2
 729              	memp_TCP_SEG:
 730 0000 1000     		.short	16
ARM GAS  C:\Users\Student\AppData\Local\Temp\cccLiz1I.s 			page 22


 731 0002 1000     		.short	16
 732 0004 00000000 		.word	memp_memory_TCP_SEG_base
 733 0008 00000000 		.word	memp_tab_TCP_SEG
 734              		.section	.rodata.memp_UDP_PCB,"a",%progbits
 735              		.align	2
 738              	memp_UDP_PCB:
 739 0000 2000     		.short	32
 740 0002 0400     		.short	4
 741 0004 00000000 		.word	memp_memory_UDP_PCB_base
 742 0008 00000000 		.word	memp_tab_UDP_PCB
 743              		.section	.rodata.memp_free.str1.4,"aMS",%progbits,1
 744              		.align	2
 745              	.LC6:
 746 0000 6D656D70 		.ascii	"memp_free: type < MEMP_MAX\000"
 746      5F667265 
 746      653A2074 
 746      79706520 
 746      3C204D45 
 747              		.section	.rodata.memp_malloc.str1.4,"aMS",%progbits,1
 748              		.align	2
 749              	.LC5:
 750 0000 6D656D70 		.ascii	"memp_malloc: type < MEMP_MAX\000"
 750      5F6D616C 
 750      6C6F633A 
 750      20747970 
 750      65203C20 
 751              		.section	.rodata.memp_malloc_pool.str1.4,"aMS",%progbits,1
 752              		.align	2
 753              	.LC4:
 754 0000 696E7661 		.ascii	"invalid pool desc\000"
 754      6C696420 
 754      706F6F6C 
 754      20646573 
 754      6300
 755              		.section	.rodata.memp_pools,"a",%progbits
 756              		.align	2
 757              		.set	.LANCHOR0,. + 0
 760              	memp_pools:
 761 0000 00000000 		.word	memp_UDP_PCB
 762 0004 00000000 		.word	memp_TCP_PCB
 763 0008 00000000 		.word	memp_TCP_PCB_LISTEN
 764 000c 00000000 		.word	memp_TCP_SEG
 765 0010 00000000 		.word	memp_REASSDATA
 766 0014 00000000 		.word	memp_FRAG_PBUF
 767 0018 00000000 		.word	memp_NETBUF
 768 001c 00000000 		.word	memp_NETCONN
 769 0020 00000000 		.word	memp_TCPIP_MSG_API
 770 0024 00000000 		.word	memp_TCPIP_MSG_INPKT
 771 0028 00000000 		.word	memp_SYS_TIMEOUT
 772 002c 00000000 		.word	memp_NETDB
 773 0030 00000000 		.word	memp_PBUF
 774 0034 00000000 		.word	memp_PBUF_POOL
 775              		.text
 776              	.Letext0:
 777              		.file 2 "c:\\gcc_toolchain\\6_2017-q1-update\\arm-none-eabi\\include\\machine\\_default_types.h"
 778              		.file 3 "c:\\gcc_toolchain\\6_2017-q1-update\\arm-none-eabi\\include\\sys\\_stdint.h"
 779              		.file 4 "Drivers/CMSIS/Include/core_cm7.h"
ARM GAS  C:\Users\Student\AppData\Local\Temp\cccLiz1I.s 			page 23


 780              		.file 5 "Drivers/CMSIS/Device/ST/STM32F7xx/Include/system_stm32f7xx.h"
 781              		.file 6 "c:\\gcc_toolchain\\6_2017-q1-update\\arm-none-eabi\\include\\sys\\lock.h"
 782              		.file 7 "c:\\gcc_toolchain\\6_2017-q1-update\\arm-none-eabi\\include\\sys\\_types.h"
 783              		.file 8 "c:\\gcc_toolchain\\6_2017-q1-update\\lib\\gcc\\arm-none-eabi\\6.3.1\\include\\stddef.h"
 784              		.file 9 "c:\\gcc_toolchain\\6_2017-q1-update\\arm-none-eabi\\include\\sys\\reent.h"
 785              		.file 10 "c:\\gcc_toolchain\\6_2017-q1-update\\arm-none-eabi\\include\\stdlib.h"
 786              		.file 11 "Middlewares/Third_Party/LwIP/system/arch/cc.h"
 787              		.file 12 "c:\\gcc_toolchain\\6_2017-q1-update\\arm-none-eabi\\include\\time.h"
 788              		.file 13 "Middlewares/Third_Party/LwIP/src/include/lwip/arch.h"
 789              		.file 14 "Middlewares/Third_Party/LwIP/src/include/lwip/memp.h"
 790              		.file 15 "Middlewares/Third_Party/LwIP/src/include/lwip/priv/memp_priv.h"
 791              		.file 16 "Middlewares/Third_Party/LwIP/src/include/lwip/err.h"
 792              		.file 17 "Middlewares/Third_Party/FreeRTOS/Source/include/queue.h"
 793              		.file 18 "Middlewares/Third_Party/FreeRTOS/Source/include/semphr.h"
 794              		.file 19 "Middlewares/Third_Party/FreeRTOS/Source/CMSIS_RTOS/cmsis_os.h"
 795              		.file 20 "Middlewares/Third_Party/LwIP/system/arch/sys_arch.h"
 796              		.file 21 "Middlewares/Third_Party/LwIP/src/include/lwip/pbuf.h"
 797              		.file 22 "Middlewares/Third_Party/LwIP/src/include/lwip/ip4_addr.h"
 798              		.file 23 "Middlewares/Third_Party/LwIP/src/include/lwip/ip_addr.h"
 799              		.file 24 "Middlewares/Third_Party/LwIP/src/include/lwip/netif.h"
 800              		.file 25 "Middlewares/Third_Party/LwIP/src/include/lwip/prot/ip4.h"
 801              		.file 26 "Middlewares/Third_Party/LwIP/src/include/lwip/ip.h"
 802              		.file 27 "Middlewares/Third_Party/LwIP/src/include/lwip/udp.h"
 803              		.file 28 "Middlewares/Third_Party/LwIP/src/include/lwip/tcp.h"
 804              		.file 29 "Middlewares/Third_Party/LwIP/src/include/lwip/priv/tcp_priv.h"
 805              		.file 30 "Middlewares/Third_Party/LwIP/src/include/lwip/prot/tcp.h"
 806              		.file 31 "Middlewares/Third_Party/LwIP/src/include/lwip/timeouts.h"
 807              		.file 32 "Middlewares/Third_Party/LwIP/src/include/lwip/tcpip.h"
 808              		.file 33 "Middlewares/Third_Party/LwIP/src/include/lwip/priv/api_msg.h"
 809              		.file 34 "Middlewares/Third_Party/LwIP/src/include/lwip/inet.h"
 810              		.file 35 "Middlewares/Third_Party/LwIP/src/include/lwip/errno.h"
 811              		.file 36 "Middlewares/Third_Party/LwIP/src/include/lwip/netdb.h"
 812              		.file 37 "Middlewares/Third_Party/LwIP/src/include/lwip/dns.h"
 813              		.file 38 "Middlewares/Third_Party/LwIP/src/include/lwip/priv/memp_std.h"
 814              		.file 39 "c:\\gcc_toolchain\\6_2017-q1-update\\arm-none-eabi\\include\\stdio.h"
 815              		.file 40 "Middlewares/Third_Party/LwIP/src/include/lwip/sys.h"
ARM GAS  C:\Users\Student\AppData\Local\Temp\cccLiz1I.s 			page 24

