ARM GAS  C:\Users\Patryk\AppData\Local\Temp\cc2P8eNs.s 			page 1


   1              		.cpu cortex-m7
   2              		.eabi_attribute 27, 1
   3              		.eabi_attribute 28, 1
   4              		.eabi_attribute 20, 1
   5              		.eabi_attribute 21, 1
   6              		.eabi_attribute 23, 3
   7              		.eabi_attribute 24, 1
   8              		.eabi_attribute 25, 1
   9              		.eabi_attribute 26, 1
  10              		.eabi_attribute 30, 1
  11              		.eabi_attribute 34, 1
  12              		.eabi_attribute 18, 4
  13              		.file	"netbuf.c"
  14              		.text
  15              	.Ltext0:
  16              		.cfi_sections	.debug_frame
  17              		.section	.text.netbuf_new,"ax",%progbits
  18              		.align	1
  19              		.global	netbuf_new
  20              		.syntax unified
  21              		.thumb
  22              		.thumb_func
  23              		.fpu fpv5-sp-d16
  25              	netbuf_new:
  26              	.LFB154:
  27              		.file 1 "Middlewares/Third_Party/LwIP/src/api/netbuf.c"
   1:Middlewares/Third_Party/LwIP/src/api/netbuf.c **** /**
   2:Middlewares/Third_Party/LwIP/src/api/netbuf.c ****  * @file
   3:Middlewares/Third_Party/LwIP/src/api/netbuf.c ****  * Network buffer management
   4:Middlewares/Third_Party/LwIP/src/api/netbuf.c ****  *
   5:Middlewares/Third_Party/LwIP/src/api/netbuf.c ****  * @defgroup netbuf Network buffers
   6:Middlewares/Third_Party/LwIP/src/api/netbuf.c ****  * @ingroup netconn
   7:Middlewares/Third_Party/LwIP/src/api/netbuf.c ****  * Network buffer descriptor for @ref netconn. Based on @ref pbuf internally
   8:Middlewares/Third_Party/LwIP/src/api/netbuf.c ****  * to avoid copying data around.\n
   9:Middlewares/Third_Party/LwIP/src/api/netbuf.c ****  * Buffers must not be shared accross multiple threads, all functions except
  10:Middlewares/Third_Party/LwIP/src/api/netbuf.c ****  * netbuf_new() and netbuf_delete() are not thread-safe.
  11:Middlewares/Third_Party/LwIP/src/api/netbuf.c ****  */
  12:Middlewares/Third_Party/LwIP/src/api/netbuf.c **** 
  13:Middlewares/Third_Party/LwIP/src/api/netbuf.c **** /*
  14:Middlewares/Third_Party/LwIP/src/api/netbuf.c ****  * Copyright (c) 2001-2004 Swedish Institute of Computer Science.
  15:Middlewares/Third_Party/LwIP/src/api/netbuf.c ****  * All rights reserved.
  16:Middlewares/Third_Party/LwIP/src/api/netbuf.c ****  *
  17:Middlewares/Third_Party/LwIP/src/api/netbuf.c ****  * Redistribution and use in source and binary forms, with or without modification,
  18:Middlewares/Third_Party/LwIP/src/api/netbuf.c ****  * are permitted provided that the following conditions are met:
  19:Middlewares/Third_Party/LwIP/src/api/netbuf.c ****  *
  20:Middlewares/Third_Party/LwIP/src/api/netbuf.c ****  * 1. Redistributions of source code must retain the above copyright notice,
  21:Middlewares/Third_Party/LwIP/src/api/netbuf.c ****  *    this list of conditions and the following disclaimer.
  22:Middlewares/Third_Party/LwIP/src/api/netbuf.c ****  * 2. Redistributions in binary form must reproduce the above copyright notice,
  23:Middlewares/Third_Party/LwIP/src/api/netbuf.c ****  *    this list of conditions and the following disclaimer in the documentation
  24:Middlewares/Third_Party/LwIP/src/api/netbuf.c ****  *    and/or other materials provided with the distribution.
  25:Middlewares/Third_Party/LwIP/src/api/netbuf.c ****  * 3. The name of the author may not be used to endorse or promote products
  26:Middlewares/Third_Party/LwIP/src/api/netbuf.c ****  *    derived from this software without specific prior written permission.
  27:Middlewares/Third_Party/LwIP/src/api/netbuf.c ****  *
  28:Middlewares/Third_Party/LwIP/src/api/netbuf.c ****  * THIS SOFTWARE IS PROVIDED BY THE AUTHOR ``AS IS'' AND ANY EXPRESS OR IMPLIED
  29:Middlewares/Third_Party/LwIP/src/api/netbuf.c ****  * WARRANTIES, INCLUDING, BUT NOT LIMITED TO, THE IMPLIED WARRANTIES OF
  30:Middlewares/Third_Party/LwIP/src/api/netbuf.c ****  * MERCHANTABILITY AND FITNESS FOR A PARTICULAR PURPOSE ARE DISCLAIMED. IN NO EVENT
  31:Middlewares/Third_Party/LwIP/src/api/netbuf.c ****  * SHALL THE AUTHOR BE LIABLE FOR ANY DIRECT, INDIRECT, INCIDENTAL, SPECIAL,
ARM GAS  C:\Users\Patryk\AppData\Local\Temp\cc2P8eNs.s 			page 2


  32:Middlewares/Third_Party/LwIP/src/api/netbuf.c ****  * EXEMPLARY, OR CONSEQUENTIAL DAMAGES (INCLUDING, BUT NOT LIMITED TO, PROCUREMENT
  33:Middlewares/Third_Party/LwIP/src/api/netbuf.c ****  * OF SUBSTITUTE GOODS OR SERVICES; LOSS OF USE, DATA, OR PROFITS; OR BUSINESS
  34:Middlewares/Third_Party/LwIP/src/api/netbuf.c ****  * INTERRUPTION) HOWEVER CAUSED AND ON ANY THEORY OF LIABILITY, WHETHER IN
  35:Middlewares/Third_Party/LwIP/src/api/netbuf.c ****  * CONTRACT, STRICT LIABILITY, OR TORT (INCLUDING NEGLIGENCE OR OTHERWISE) ARISING
  36:Middlewares/Third_Party/LwIP/src/api/netbuf.c ****  * IN ANY WAY OUT OF THE USE OF THIS SOFTWARE, EVEN IF ADVISED OF THE POSSIBILITY
  37:Middlewares/Third_Party/LwIP/src/api/netbuf.c ****  * OF SUCH DAMAGE.
  38:Middlewares/Third_Party/LwIP/src/api/netbuf.c ****  *
  39:Middlewares/Third_Party/LwIP/src/api/netbuf.c ****  * This file is part of the lwIP TCP/IP stack.
  40:Middlewares/Third_Party/LwIP/src/api/netbuf.c ****  *
  41:Middlewares/Third_Party/LwIP/src/api/netbuf.c ****  * Author: Adam Dunkels <adam@sics.se>
  42:Middlewares/Third_Party/LwIP/src/api/netbuf.c ****  *
  43:Middlewares/Third_Party/LwIP/src/api/netbuf.c ****  */
  44:Middlewares/Third_Party/LwIP/src/api/netbuf.c **** 
  45:Middlewares/Third_Party/LwIP/src/api/netbuf.c **** #include "lwip/opt.h"
  46:Middlewares/Third_Party/LwIP/src/api/netbuf.c **** 
  47:Middlewares/Third_Party/LwIP/src/api/netbuf.c **** #if LWIP_NETCONN /* don't build if not configured for use in lwipopts.h */
  48:Middlewares/Third_Party/LwIP/src/api/netbuf.c **** 
  49:Middlewares/Third_Party/LwIP/src/api/netbuf.c **** #include "lwip/netbuf.h"
  50:Middlewares/Third_Party/LwIP/src/api/netbuf.c **** #include "lwip/memp.h"
  51:Middlewares/Third_Party/LwIP/src/api/netbuf.c **** 
  52:Middlewares/Third_Party/LwIP/src/api/netbuf.c **** #include <string.h>
  53:Middlewares/Third_Party/LwIP/src/api/netbuf.c **** 
  54:Middlewares/Third_Party/LwIP/src/api/netbuf.c **** /**
  55:Middlewares/Third_Party/LwIP/src/api/netbuf.c ****  * @ingroup netbuf
  56:Middlewares/Third_Party/LwIP/src/api/netbuf.c ****  * Create (allocate) and initialize a new netbuf.
  57:Middlewares/Third_Party/LwIP/src/api/netbuf.c ****  * The netbuf doesn't yet contain a packet buffer!
  58:Middlewares/Third_Party/LwIP/src/api/netbuf.c ****  *
  59:Middlewares/Third_Party/LwIP/src/api/netbuf.c ****  * @return a pointer to a new netbuf
  60:Middlewares/Third_Party/LwIP/src/api/netbuf.c ****  *         NULL on lack of memory
  61:Middlewares/Third_Party/LwIP/src/api/netbuf.c ****  */
  62:Middlewares/Third_Party/LwIP/src/api/netbuf.c **** struct
  63:Middlewares/Third_Party/LwIP/src/api/netbuf.c **** netbuf *netbuf_new(void)
  64:Middlewares/Third_Party/LwIP/src/api/netbuf.c **** {
  28              		.loc 1 64 0
  29              		.cfi_startproc
  30              		@ args = 0, pretend = 0, frame = 0
  31              		@ frame_needed = 0, uses_anonymous_args = 0
  32 0000 08B5     		push	{r3, lr}
  33              	.LCFI0:
  34              		.cfi_def_cfa_offset 8
  35              		.cfi_offset 3, -8
  36              		.cfi_offset 14, -4
  65:Middlewares/Third_Party/LwIP/src/api/netbuf.c ****   struct netbuf *buf;
  66:Middlewares/Third_Party/LwIP/src/api/netbuf.c **** 
  67:Middlewares/Third_Party/LwIP/src/api/netbuf.c ****   buf = (struct netbuf *)memp_malloc(MEMP_NETBUF);
  37              		.loc 1 67 0
  38 0002 0620     		movs	r0, #6
  39 0004 FFF7FEFF 		bl	memp_malloc
  40              	.LVL0:
  68:Middlewares/Third_Party/LwIP/src/api/netbuf.c ****   if (buf != NULL) {
  41              		.loc 1 68 0
  42 0008 0346     		mov	r3, r0
  43 000a 20B1     		cbz	r0, .L1
  69:Middlewares/Third_Party/LwIP/src/api/netbuf.c ****     memset(buf, 0, sizeof(struct netbuf));
  44              		.loc 1 69 0
  45 000c 0022     		movs	r2, #0
  46 000e 0260     		str	r2, [r0]	@ unaligned
ARM GAS  C:\Users\Patryk\AppData\Local\Temp\cc2P8eNs.s 			page 3


  47 0010 4260     		str	r2, [r0, #4]	@ unaligned
  48 0012 8260     		str	r2, [r0, #8]	@ unaligned
  49 0014 C260     		str	r2, [r0, #12]	@ unaligned
  50              	.L1:
  70:Middlewares/Third_Party/LwIP/src/api/netbuf.c ****   }
  71:Middlewares/Third_Party/LwIP/src/api/netbuf.c ****   return buf;
  72:Middlewares/Third_Party/LwIP/src/api/netbuf.c **** }
  51              		.loc 1 72 0
  52 0016 1846     		mov	r0, r3
  53              	.LVL1:
  54 0018 08BD     		pop	{r3, pc}
  55              		.cfi_endproc
  56              	.LFE154:
  58              		.section	.text.netbuf_delete,"ax",%progbits
  59              		.align	1
  60              		.global	netbuf_delete
  61              		.syntax unified
  62              		.thumb
  63              		.thumb_func
  64              		.fpu fpv5-sp-d16
  66              	netbuf_delete:
  67              	.LFB155:
  73:Middlewares/Third_Party/LwIP/src/api/netbuf.c **** 
  74:Middlewares/Third_Party/LwIP/src/api/netbuf.c **** /**
  75:Middlewares/Third_Party/LwIP/src/api/netbuf.c ****  * @ingroup netbuf
  76:Middlewares/Third_Party/LwIP/src/api/netbuf.c ****  * Deallocate a netbuf allocated by netbuf_new().
  77:Middlewares/Third_Party/LwIP/src/api/netbuf.c ****  *
  78:Middlewares/Third_Party/LwIP/src/api/netbuf.c ****  * @param buf pointer to a netbuf allocated by netbuf_new()
  79:Middlewares/Third_Party/LwIP/src/api/netbuf.c ****  */
  80:Middlewares/Third_Party/LwIP/src/api/netbuf.c **** void
  81:Middlewares/Third_Party/LwIP/src/api/netbuf.c **** netbuf_delete(struct netbuf *buf)
  82:Middlewares/Third_Party/LwIP/src/api/netbuf.c **** {
  68              		.loc 1 82 0
  69              		.cfi_startproc
  70              		@ args = 0, pretend = 0, frame = 0
  71              		@ frame_needed = 0, uses_anonymous_args = 0
  72              	.LVL2:
  83:Middlewares/Third_Party/LwIP/src/api/netbuf.c ****   if (buf != NULL) {
  73              		.loc 1 83 0
  74 0000 68B1     		cbz	r0, .L8
  82:Middlewares/Third_Party/LwIP/src/api/netbuf.c ****   if (buf != NULL) {
  75              		.loc 1 82 0
  76 0002 10B5     		push	{r4, lr}
  77              	.LCFI1:
  78              		.cfi_def_cfa_offset 8
  79              		.cfi_offset 4, -8
  80              		.cfi_offset 14, -4
  81 0004 0446     		mov	r4, r0
  84:Middlewares/Third_Party/LwIP/src/api/netbuf.c ****     if (buf->p != NULL) {
  82              		.loc 1 84 0
  83 0006 0068     		ldr	r0, [r0]
  84              	.LVL3:
  85 0008 20B1     		cbz	r0, .L6
  85:Middlewares/Third_Party/LwIP/src/api/netbuf.c ****       pbuf_free(buf->p);
  86              		.loc 1 85 0
  87 000a FFF7FEFF 		bl	pbuf_free
  88              	.LVL4:
ARM GAS  C:\Users\Patryk\AppData\Local\Temp\cc2P8eNs.s 			page 4


  86:Middlewares/Third_Party/LwIP/src/api/netbuf.c ****       buf->p = buf->ptr = NULL;
  89              		.loc 1 86 0
  90 000e 0023     		movs	r3, #0
  91 0010 6360     		str	r3, [r4, #4]
  92 0012 2360     		str	r3, [r4]
  93              	.L6:
  87:Middlewares/Third_Party/LwIP/src/api/netbuf.c ****     }
  88:Middlewares/Third_Party/LwIP/src/api/netbuf.c ****     memp_free(MEMP_NETBUF, buf);
  94              		.loc 1 88 0
  95 0014 2146     		mov	r1, r4
  96 0016 0620     		movs	r0, #6
  97 0018 FFF7FEFF 		bl	memp_free
  98              	.LVL5:
  89:Middlewares/Third_Party/LwIP/src/api/netbuf.c ****   }
  90:Middlewares/Third_Party/LwIP/src/api/netbuf.c **** }
  99              		.loc 1 90 0
 100 001c 10BD     		pop	{r4, pc}
 101              	.LVL6:
 102              	.L8:
 103              	.LCFI2:
 104              		.cfi_def_cfa_offset 0
 105              		.cfi_restore 4
 106              		.cfi_restore 14
 107 001e 7047     		bx	lr
 108              		.cfi_endproc
 109              	.LFE155:
 111              		.section	.text.netbuf_alloc,"ax",%progbits
 112              		.align	1
 113              		.global	netbuf_alloc
 114              		.syntax unified
 115              		.thumb
 116              		.thumb_func
 117              		.fpu fpv5-sp-d16
 119              	netbuf_alloc:
 120              	.LFB156:
  91:Middlewares/Third_Party/LwIP/src/api/netbuf.c **** 
  92:Middlewares/Third_Party/LwIP/src/api/netbuf.c **** /**
  93:Middlewares/Third_Party/LwIP/src/api/netbuf.c ****  * @ingroup netbuf
  94:Middlewares/Third_Party/LwIP/src/api/netbuf.c ****  * Allocate memory for a packet buffer for a given netbuf.
  95:Middlewares/Third_Party/LwIP/src/api/netbuf.c ****  *
  96:Middlewares/Third_Party/LwIP/src/api/netbuf.c ****  * @param buf the netbuf for which to allocate a packet buffer
  97:Middlewares/Third_Party/LwIP/src/api/netbuf.c ****  * @param size the size of the packet buffer to allocate
  98:Middlewares/Third_Party/LwIP/src/api/netbuf.c ****  * @return pointer to the allocated memory
  99:Middlewares/Third_Party/LwIP/src/api/netbuf.c ****  *         NULL if no memory could be allocated
 100:Middlewares/Third_Party/LwIP/src/api/netbuf.c ****  */
 101:Middlewares/Third_Party/LwIP/src/api/netbuf.c **** void *
 102:Middlewares/Third_Party/LwIP/src/api/netbuf.c **** netbuf_alloc(struct netbuf *buf, u16_t size)
 103:Middlewares/Third_Party/LwIP/src/api/netbuf.c **** {
 121              		.loc 1 103 0
 122              		.cfi_startproc
 123              		@ args = 0, pretend = 0, frame = 0
 124              		@ frame_needed = 0, uses_anonymous_args = 0
 125              	.LVL7:
 126 0000 38B5     		push	{r3, r4, r5, lr}
 127              	.LCFI3:
 128              		.cfi_def_cfa_offset 16
 129              		.cfi_offset 3, -16
ARM GAS  C:\Users\Patryk\AppData\Local\Temp\cc2P8eNs.s 			page 5


 130              		.cfi_offset 4, -12
 131              		.cfi_offset 5, -8
 132              		.cfi_offset 14, -4
 104:Middlewares/Third_Party/LwIP/src/api/netbuf.c ****   LWIP_ERROR("netbuf_alloc: invalid buf", (buf != NULL), return NULL;);
 133              		.loc 1 104 0
 134 0002 98B1     		cbz	r0, .L18
 135 0004 0D46     		mov	r5, r1
 136 0006 0446     		mov	r4, r0
 105:Middlewares/Third_Party/LwIP/src/api/netbuf.c **** 
 106:Middlewares/Third_Party/LwIP/src/api/netbuf.c ****   /* Deallocate any previously allocated memory. */
 107:Middlewares/Third_Party/LwIP/src/api/netbuf.c ****   if (buf->p != NULL) {
 137              		.loc 1 107 0
 138 0008 0068     		ldr	r0, [r0]
 139              	.LVL8:
 140 000a 08B1     		cbz	r0, .L14
 108:Middlewares/Third_Party/LwIP/src/api/netbuf.c ****     pbuf_free(buf->p);
 141              		.loc 1 108 0
 142 000c FFF7FEFF 		bl	pbuf_free
 143              	.LVL9:
 144              	.L14:
 109:Middlewares/Third_Party/LwIP/src/api/netbuf.c ****   }
 110:Middlewares/Third_Party/LwIP/src/api/netbuf.c ****   buf->p = pbuf_alloc(PBUF_TRANSPORT, size, PBUF_RAM);
 145              		.loc 1 110 0
 146 0010 0022     		movs	r2, #0
 147 0012 2946     		mov	r1, r5
 148 0014 1046     		mov	r0, r2
 149 0016 FFF7FEFF 		bl	pbuf_alloc
 150              	.LVL10:
 151 001a 2060     		str	r0, [r4]
 111:Middlewares/Third_Party/LwIP/src/api/netbuf.c ****   if (buf->p == NULL) {
 152              		.loc 1 111 0
 153 001c A8B1     		cbz	r0, .L16
 112:Middlewares/Third_Party/LwIP/src/api/netbuf.c ****      return NULL;
 113:Middlewares/Third_Party/LwIP/src/api/netbuf.c ****   }
 114:Middlewares/Third_Party/LwIP/src/api/netbuf.c ****   LWIP_ASSERT("check that first pbuf can hold size",
 154              		.loc 1 114 0
 155 001e 4389     		ldrh	r3, [r0, #10]
 156 0020 AB42     		cmp	r3, r5
 157 0022 0BD3     		bcc	.L19
 158              	.L15:
 115:Middlewares/Third_Party/LwIP/src/api/netbuf.c ****              (buf->p->len >= size));
 116:Middlewares/Third_Party/LwIP/src/api/netbuf.c ****   buf->ptr = buf->p;
 159              		.loc 1 116 0
 160 0024 2368     		ldr	r3, [r4]
 161 0026 6360     		str	r3, [r4, #4]
 117:Middlewares/Third_Party/LwIP/src/api/netbuf.c ****   return buf->p->payload;
 162              		.loc 1 117 0
 163 0028 5868     		ldr	r0, [r3, #4]
 164              	.LVL11:
 165              	.L11:
 118:Middlewares/Third_Party/LwIP/src/api/netbuf.c **** }
 166              		.loc 1 118 0
 167 002a 38BD     		pop	{r3, r4, r5, pc}
 168              	.LVL12:
 169              	.L18:
 104:Middlewares/Third_Party/LwIP/src/api/netbuf.c **** 
 170              		.loc 1 104 0 discriminator 1
ARM GAS  C:\Users\Patryk\AppData\Local\Temp\cc2P8eNs.s 			page 6


 171 002c 084B     		ldr	r3, .L20
 172 002e 6822     		movs	r2, #104
 173 0030 0849     		ldr	r1, .L20+4
 174              	.LVL13:
 175 0032 0948     		ldr	r0, .L20+8
 176              	.LVL14:
 177 0034 FFF7FEFF 		bl	printf
 178              	.LVL15:
 179 0038 0020     		movs	r0, #0
 180 003a F6E7     		b	.L11
 181              	.LVL16:
 182              	.L19:
 114:Middlewares/Third_Party/LwIP/src/api/netbuf.c ****              (buf->p->len >= size));
 183              		.loc 1 114 0 discriminator 1
 184 003c 044B     		ldr	r3, .L20
 185 003e 7322     		movs	r2, #115
 186 0040 0649     		ldr	r1, .L20+12
 187 0042 0548     		ldr	r0, .L20+8
 188 0044 FFF7FEFF 		bl	printf
 189              	.LVL17:
 190 0048 ECE7     		b	.L15
 191              	.L16:
 112:Middlewares/Third_Party/LwIP/src/api/netbuf.c ****   }
 192              		.loc 1 112 0
 193 004a 0020     		movs	r0, #0
 194 004c EDE7     		b	.L11
 195              	.L21:
 196 004e 00BF     		.align	2
 197              	.L20:
 198 0050 00000000 		.word	.LC0
 199 0054 30000000 		.word	.LC1
 200 0058 4C000000 		.word	.LC2
 201 005c 74000000 		.word	.LC3
 202              		.cfi_endproc
 203              	.LFE156:
 205              		.section	.text.netbuf_free,"ax",%progbits
 206              		.align	1
 207              		.global	netbuf_free
 208              		.syntax unified
 209              		.thumb
 210              		.thumb_func
 211              		.fpu fpv5-sp-d16
 213              	netbuf_free:
 214              	.LFB157:
 119:Middlewares/Third_Party/LwIP/src/api/netbuf.c **** 
 120:Middlewares/Third_Party/LwIP/src/api/netbuf.c **** /**
 121:Middlewares/Third_Party/LwIP/src/api/netbuf.c ****  * @ingroup netbuf
 122:Middlewares/Third_Party/LwIP/src/api/netbuf.c ****  * Free the packet buffer included in a netbuf
 123:Middlewares/Third_Party/LwIP/src/api/netbuf.c ****  *
 124:Middlewares/Third_Party/LwIP/src/api/netbuf.c ****  * @param buf pointer to the netbuf which contains the packet buffer to free
 125:Middlewares/Third_Party/LwIP/src/api/netbuf.c ****  */
 126:Middlewares/Third_Party/LwIP/src/api/netbuf.c **** void
 127:Middlewares/Third_Party/LwIP/src/api/netbuf.c **** netbuf_free(struct netbuf *buf)
 128:Middlewares/Third_Party/LwIP/src/api/netbuf.c **** {
 215              		.loc 1 128 0
 216              		.cfi_startproc
 217              		@ args = 0, pretend = 0, frame = 0
ARM GAS  C:\Users\Patryk\AppData\Local\Temp\cc2P8eNs.s 			page 7


 218              		@ frame_needed = 0, uses_anonymous_args = 0
 219              	.LVL18:
 220 0000 10B5     		push	{r4, lr}
 221              	.LCFI4:
 222              		.cfi_def_cfa_offset 8
 223              		.cfi_offset 4, -8
 224              		.cfi_offset 14, -4
 129:Middlewares/Third_Party/LwIP/src/api/netbuf.c ****   LWIP_ERROR("netbuf_free: invalid buf", (buf != NULL), return;);
 225              		.loc 1 129 0
 226 0002 40B1     		cbz	r0, .L27
 227 0004 0446     		mov	r4, r0
 130:Middlewares/Third_Party/LwIP/src/api/netbuf.c ****   if (buf->p != NULL) {
 228              		.loc 1 130 0
 229 0006 0068     		ldr	r0, [r0]
 230              	.LVL19:
 231 0008 08B1     		cbz	r0, .L25
 131:Middlewares/Third_Party/LwIP/src/api/netbuf.c ****     pbuf_free(buf->p);
 232              		.loc 1 131 0
 233 000a FFF7FEFF 		bl	pbuf_free
 234              	.LVL20:
 235              	.L25:
 132:Middlewares/Third_Party/LwIP/src/api/netbuf.c ****   }
 133:Middlewares/Third_Party/LwIP/src/api/netbuf.c ****   buf->p = buf->ptr = NULL;
 236              		.loc 1 133 0
 237 000e 0023     		movs	r3, #0
 238 0010 6360     		str	r3, [r4, #4]
 239 0012 2360     		str	r3, [r4]
 240              	.LVL21:
 241              	.L22:
 134:Middlewares/Third_Party/LwIP/src/api/netbuf.c **** }
 242              		.loc 1 134 0
 243 0014 10BD     		pop	{r4, pc}
 244              	.LVL22:
 245              	.L27:
 129:Middlewares/Third_Party/LwIP/src/api/netbuf.c ****   if (buf->p != NULL) {
 246              		.loc 1 129 0 discriminator 1
 247 0016 034B     		ldr	r3, .L28
 248 0018 8122     		movs	r2, #129
 249 001a 0349     		ldr	r1, .L28+4
 250 001c 0348     		ldr	r0, .L28+8
 251              	.LVL23:
 252 001e FFF7FEFF 		bl	printf
 253              	.LVL24:
 254 0022 F7E7     		b	.L22
 255              	.L29:
 256              		.align	2
 257              	.L28:
 258 0024 00000000 		.word	.LC0
 259 0028 00000000 		.word	.LC4
 260 002c 4C000000 		.word	.LC2
 261              		.cfi_endproc
 262              	.LFE157:
 264              		.section	.text.netbuf_ref,"ax",%progbits
 265              		.align	1
 266              		.global	netbuf_ref
 267              		.syntax unified
 268              		.thumb
ARM GAS  C:\Users\Patryk\AppData\Local\Temp\cc2P8eNs.s 			page 8


 269              		.thumb_func
 270              		.fpu fpv5-sp-d16
 272              	netbuf_ref:
 273              	.LFB158:
 135:Middlewares/Third_Party/LwIP/src/api/netbuf.c **** 
 136:Middlewares/Third_Party/LwIP/src/api/netbuf.c **** /**
 137:Middlewares/Third_Party/LwIP/src/api/netbuf.c ****  * @ingroup netbuf
 138:Middlewares/Third_Party/LwIP/src/api/netbuf.c ****  * Let a netbuf reference existing (non-volatile) data.
 139:Middlewares/Third_Party/LwIP/src/api/netbuf.c ****  *
 140:Middlewares/Third_Party/LwIP/src/api/netbuf.c ****  * @param buf netbuf which should reference the data
 141:Middlewares/Third_Party/LwIP/src/api/netbuf.c ****  * @param dataptr pointer to the data to reference
 142:Middlewares/Third_Party/LwIP/src/api/netbuf.c ****  * @param size size of the data
 143:Middlewares/Third_Party/LwIP/src/api/netbuf.c ****  * @return ERR_OK if data is referenced
 144:Middlewares/Third_Party/LwIP/src/api/netbuf.c ****  *         ERR_MEM if data couldn't be referenced due to lack of memory
 145:Middlewares/Third_Party/LwIP/src/api/netbuf.c ****  */
 146:Middlewares/Third_Party/LwIP/src/api/netbuf.c **** err_t
 147:Middlewares/Third_Party/LwIP/src/api/netbuf.c **** netbuf_ref(struct netbuf *buf, const void *dataptr, u16_t size)
 148:Middlewares/Third_Party/LwIP/src/api/netbuf.c **** {
 274              		.loc 1 148 0
 275              		.cfi_startproc
 276              		@ args = 0, pretend = 0, frame = 0
 277              		@ frame_needed = 0, uses_anonymous_args = 0
 278              	.LVL25:
 279 0000 70B5     		push	{r4, r5, r6, lr}
 280              	.LCFI5:
 281              		.cfi_def_cfa_offset 16
 282              		.cfi_offset 4, -16
 283              		.cfi_offset 5, -12
 284              		.cfi_offset 6, -8
 285              		.cfi_offset 14, -4
 149:Middlewares/Third_Party/LwIP/src/api/netbuf.c ****   LWIP_ERROR("netbuf_ref: invalid buf", (buf != NULL), return ERR_ARG;);
 286              		.loc 1 149 0
 287 0002 B0B1     		cbz	r0, .L36
 288 0004 0E46     		mov	r6, r1
 289 0006 1546     		mov	r5, r2
 290 0008 0446     		mov	r4, r0
 150:Middlewares/Third_Party/LwIP/src/api/netbuf.c ****   if (buf->p != NULL) {
 291              		.loc 1 150 0
 292 000a 0068     		ldr	r0, [r0]
 293              	.LVL26:
 294 000c 08B1     		cbz	r0, .L33
 151:Middlewares/Third_Party/LwIP/src/api/netbuf.c ****     pbuf_free(buf->p);
 295              		.loc 1 151 0
 296 000e FFF7FEFF 		bl	pbuf_free
 297              	.LVL27:
 298              	.L33:
 152:Middlewares/Third_Party/LwIP/src/api/netbuf.c ****   }
 153:Middlewares/Third_Party/LwIP/src/api/netbuf.c ****   buf->p = pbuf_alloc(PBUF_TRANSPORT, 0, PBUF_REF);
 299              		.loc 1 153 0
 300 0012 0222     		movs	r2, #2
 301 0014 0021     		movs	r1, #0
 302 0016 0846     		mov	r0, r1
 303 0018 FFF7FEFF 		bl	pbuf_alloc
 304              	.LVL28:
 305 001c 2060     		str	r0, [r4]
 154:Middlewares/Third_Party/LwIP/src/api/netbuf.c ****   if (buf->p == NULL) {
 306              		.loc 1 154 0
ARM GAS  C:\Users\Patryk\AppData\Local\Temp\cc2P8eNs.s 			page 9


 307 001e 88B1     		cbz	r0, .L37
 155:Middlewares/Third_Party/LwIP/src/api/netbuf.c ****     buf->ptr = NULL;
 156:Middlewares/Third_Party/LwIP/src/api/netbuf.c ****     return ERR_MEM;
 157:Middlewares/Third_Party/LwIP/src/api/netbuf.c ****   }
 158:Middlewares/Third_Party/LwIP/src/api/netbuf.c ****   ((struct pbuf_rom*)buf->p)->payload = dataptr;
 308              		.loc 1 158 0
 309 0020 4660     		str	r6, [r0, #4]
 159:Middlewares/Third_Party/LwIP/src/api/netbuf.c ****   buf->p->len = buf->p->tot_len = size;
 310              		.loc 1 159 0
 311 0022 2368     		ldr	r3, [r4]
 312 0024 1D81     		strh	r5, [r3, #8]	@ movhi
 313 0026 2368     		ldr	r3, [r4]
 314 0028 5D81     		strh	r5, [r3, #10]	@ movhi
 160:Middlewares/Third_Party/LwIP/src/api/netbuf.c ****   buf->ptr = buf->p;
 315              		.loc 1 160 0
 316 002a 2368     		ldr	r3, [r4]
 317 002c 6360     		str	r3, [r4, #4]
 161:Middlewares/Third_Party/LwIP/src/api/netbuf.c ****   return ERR_OK;
 318              		.loc 1 161 0
 319 002e 0020     		movs	r0, #0
 320              	.LVL29:
 321              	.L32:
 162:Middlewares/Third_Party/LwIP/src/api/netbuf.c **** }
 322              		.loc 1 162 0
 323 0030 70BD     		pop	{r4, r5, r6, pc}
 324              	.LVL30:
 325              	.L36:
 149:Middlewares/Third_Party/LwIP/src/api/netbuf.c ****   if (buf->p != NULL) {
 326              		.loc 1 149 0 discriminator 1
 327 0032 074B     		ldr	r3, .L38
 328 0034 9522     		movs	r2, #149
 329              	.LVL31:
 330 0036 0749     		ldr	r1, .L38+4
 331              	.LVL32:
 332 0038 0748     		ldr	r0, .L38+8
 333              	.LVL33:
 334 003a FFF7FEFF 		bl	printf
 335              	.LVL34:
 336 003e 6FF00F00 		mvn	r0, #15
 337 0042 F5E7     		b	.L32
 338              	.LVL35:
 339              	.L37:
 155:Middlewares/Third_Party/LwIP/src/api/netbuf.c ****     return ERR_MEM;
 340              		.loc 1 155 0
 341 0044 0023     		movs	r3, #0
 342 0046 6360     		str	r3, [r4, #4]
 156:Middlewares/Third_Party/LwIP/src/api/netbuf.c ****   }
 343              		.loc 1 156 0
 344 0048 4FF0FF30 		mov	r0, #-1
 345 004c F0E7     		b	.L32
 346              	.L39:
 347 004e 00BF     		.align	2
 348              	.L38:
 349 0050 00000000 		.word	.LC0
 350 0054 00000000 		.word	.LC5
 351 0058 4C000000 		.word	.LC2
 352              		.cfi_endproc
ARM GAS  C:\Users\Patryk\AppData\Local\Temp\cc2P8eNs.s 			page 10


 353              	.LFE158:
 355              		.section	.text.netbuf_chain,"ax",%progbits
 356              		.align	1
 357              		.global	netbuf_chain
 358              		.syntax unified
 359              		.thumb
 360              		.thumb_func
 361              		.fpu fpv5-sp-d16
 363              	netbuf_chain:
 364              	.LFB159:
 163:Middlewares/Third_Party/LwIP/src/api/netbuf.c **** 
 164:Middlewares/Third_Party/LwIP/src/api/netbuf.c **** /**
 165:Middlewares/Third_Party/LwIP/src/api/netbuf.c ****  * @ingroup netbuf
 166:Middlewares/Third_Party/LwIP/src/api/netbuf.c ****  * Chain one netbuf to another (@see pbuf_chain)
 167:Middlewares/Third_Party/LwIP/src/api/netbuf.c ****  *
 168:Middlewares/Third_Party/LwIP/src/api/netbuf.c ****  * @param head the first netbuf
 169:Middlewares/Third_Party/LwIP/src/api/netbuf.c ****  * @param tail netbuf to chain after head, freed by this function, may not be reference after retur
 170:Middlewares/Third_Party/LwIP/src/api/netbuf.c ****  */
 171:Middlewares/Third_Party/LwIP/src/api/netbuf.c **** void
 172:Middlewares/Third_Party/LwIP/src/api/netbuf.c **** netbuf_chain(struct netbuf *head, struct netbuf *tail)
 173:Middlewares/Third_Party/LwIP/src/api/netbuf.c **** {
 365              		.loc 1 173 0
 366              		.cfi_startproc
 367              		@ args = 0, pretend = 0, frame = 0
 368              		@ frame_needed = 0, uses_anonymous_args = 0
 369              	.LVL36:
 370 0000 38B5     		push	{r3, r4, r5, lr}
 371              	.LCFI6:
 372              		.cfi_def_cfa_offset 16
 373              		.cfi_offset 3, -16
 374              		.cfi_offset 4, -12
 375              		.cfi_offset 5, -8
 376              		.cfi_offset 14, -4
 174:Middlewares/Third_Party/LwIP/src/api/netbuf.c ****   LWIP_ERROR("netbuf_chain: invalid head", (head != NULL), return;);
 377              		.loc 1 174 0
 378 0002 68B1     		cbz	r0, .L45
 379 0004 0C46     		mov	r4, r1
 380 0006 0546     		mov	r5, r0
 175:Middlewares/Third_Party/LwIP/src/api/netbuf.c ****   LWIP_ERROR("netbuf_chain: invalid tail", (tail != NULL), return;);
 381              		.loc 1 175 0
 382 0008 89B1     		cbz	r1, .L46
 176:Middlewares/Third_Party/LwIP/src/api/netbuf.c ****   pbuf_cat(head->p, tail->p);
 383              		.loc 1 176 0
 384 000a 0968     		ldr	r1, [r1]
 385              	.LVL37:
 386 000c 0068     		ldr	r0, [r0]
 387              	.LVL38:
 388 000e FFF7FEFF 		bl	pbuf_cat
 389              	.LVL39:
 177:Middlewares/Third_Party/LwIP/src/api/netbuf.c ****   head->ptr = head->p;
 390              		.loc 1 177 0
 391 0012 2B68     		ldr	r3, [r5]
 392 0014 6B60     		str	r3, [r5, #4]
 178:Middlewares/Third_Party/LwIP/src/api/netbuf.c ****   memp_free(MEMP_NETBUF, tail);
 393              		.loc 1 178 0
 394 0016 2146     		mov	r1, r4
 395 0018 0620     		movs	r0, #6
ARM GAS  C:\Users\Patryk\AppData\Local\Temp\cc2P8eNs.s 			page 11


 396 001a FFF7FEFF 		bl	memp_free
 397              	.LVL40:
 398              	.L40:
 179:Middlewares/Third_Party/LwIP/src/api/netbuf.c **** }
 399              		.loc 1 179 0
 400 001e 38BD     		pop	{r3, r4, r5, pc}
 401              	.LVL41:
 402              	.L45:
 174:Middlewares/Third_Party/LwIP/src/api/netbuf.c ****   LWIP_ERROR("netbuf_chain: invalid tail", (tail != NULL), return;);
 403              		.loc 1 174 0 discriminator 1
 404 0020 064B     		ldr	r3, .L47
 405 0022 AE22     		movs	r2, #174
 406 0024 0649     		ldr	r1, .L47+4
 407              	.LVL42:
 408 0026 0748     		ldr	r0, .L47+8
 409              	.LVL43:
 410 0028 FFF7FEFF 		bl	printf
 411              	.LVL44:
 412 002c F7E7     		b	.L40
 413              	.LVL45:
 414              	.L46:
 175:Middlewares/Third_Party/LwIP/src/api/netbuf.c ****   pbuf_cat(head->p, tail->p);
 415              		.loc 1 175 0 discriminator 1
 416 002e 034B     		ldr	r3, .L47
 417 0030 AF22     		movs	r2, #175
 418 0032 0549     		ldr	r1, .L47+12
 419              	.LVL46:
 420 0034 0348     		ldr	r0, .L47+8
 421              	.LVL47:
 422 0036 FFF7FEFF 		bl	printf
 423              	.LVL48:
 424 003a F0E7     		b	.L40
 425              	.L48:
 426              		.align	2
 427              	.L47:
 428 003c 00000000 		.word	.LC0
 429 0040 00000000 		.word	.LC6
 430 0044 4C000000 		.word	.LC2
 431 0048 1C000000 		.word	.LC7
 432              		.cfi_endproc
 433              	.LFE159:
 435              		.section	.text.netbuf_data,"ax",%progbits
 436              		.align	1
 437              		.global	netbuf_data
 438              		.syntax unified
 439              		.thumb
 440              		.thumb_func
 441              		.fpu fpv5-sp-d16
 443              	netbuf_data:
 444              	.LFB160:
 180:Middlewares/Third_Party/LwIP/src/api/netbuf.c **** 
 181:Middlewares/Third_Party/LwIP/src/api/netbuf.c **** /**
 182:Middlewares/Third_Party/LwIP/src/api/netbuf.c ****  * @ingroup netbuf
 183:Middlewares/Third_Party/LwIP/src/api/netbuf.c ****  * Get the data pointer and length of the data inside a netbuf.
 184:Middlewares/Third_Party/LwIP/src/api/netbuf.c ****  *
 185:Middlewares/Third_Party/LwIP/src/api/netbuf.c ****  * @param buf netbuf to get the data from
 186:Middlewares/Third_Party/LwIP/src/api/netbuf.c ****  * @param dataptr pointer to a void pointer where to store the data pointer
ARM GAS  C:\Users\Patryk\AppData\Local\Temp\cc2P8eNs.s 			page 12


 187:Middlewares/Third_Party/LwIP/src/api/netbuf.c ****  * @param len pointer to an u16_t where the length of the data is stored
 188:Middlewares/Third_Party/LwIP/src/api/netbuf.c ****  * @return ERR_OK if the information was retrieved,
 189:Middlewares/Third_Party/LwIP/src/api/netbuf.c ****  *         ERR_BUF on error.
 190:Middlewares/Third_Party/LwIP/src/api/netbuf.c ****  */
 191:Middlewares/Third_Party/LwIP/src/api/netbuf.c **** err_t
 192:Middlewares/Third_Party/LwIP/src/api/netbuf.c **** netbuf_data(struct netbuf *buf, void **dataptr, u16_t *len)
 193:Middlewares/Third_Party/LwIP/src/api/netbuf.c **** {
 445              		.loc 1 193 0
 446              		.cfi_startproc
 447              		@ args = 0, pretend = 0, frame = 0
 448              		@ frame_needed = 0, uses_anonymous_args = 0
 449              	.LVL49:
 450 0000 08B5     		push	{r3, lr}
 451              	.LCFI7:
 452              		.cfi_def_cfa_offset 8
 453              		.cfi_offset 3, -8
 454              		.cfi_offset 14, -4
 194:Middlewares/Third_Party/LwIP/src/api/netbuf.c ****   LWIP_ERROR("netbuf_data: invalid buf", (buf != NULL), return ERR_ARG;);
 455              		.loc 1 194 0
 456 0002 58B1     		cbz	r0, .L56
 457 0004 0346     		mov	r3, r0
 195:Middlewares/Third_Party/LwIP/src/api/netbuf.c ****   LWIP_ERROR("netbuf_data: invalid dataptr", (dataptr != NULL), return ERR_ARG;);
 458              		.loc 1 195 0
 459 0006 91B1     		cbz	r1, .L57
 196:Middlewares/Third_Party/LwIP/src/api/netbuf.c ****   LWIP_ERROR("netbuf_data: invalid len", (len != NULL), return ERR_ARG;);
 460              		.loc 1 196 0
 461 0008 D2B1     		cbz	r2, .L58
 197:Middlewares/Third_Party/LwIP/src/api/netbuf.c **** 
 198:Middlewares/Third_Party/LwIP/src/api/netbuf.c ****   if (buf->ptr == NULL) {
 462              		.loc 1 198 0
 463 000a 4068     		ldr	r0, [r0, #4]
 464              	.LVL50:
 465 000c 08B3     		cbz	r0, .L54
 199:Middlewares/Third_Party/LwIP/src/api/netbuf.c ****     return ERR_BUF;
 200:Middlewares/Third_Party/LwIP/src/api/netbuf.c ****   }
 201:Middlewares/Third_Party/LwIP/src/api/netbuf.c ****   *dataptr = buf->ptr->payload;
 466              		.loc 1 201 0
 467 000e 4068     		ldr	r0, [r0, #4]
 468 0010 0860     		str	r0, [r1]
 202:Middlewares/Third_Party/LwIP/src/api/netbuf.c ****   *len = buf->ptr->len;
 469              		.loc 1 202 0
 470 0012 5B68     		ldr	r3, [r3, #4]
 471              	.LVL51:
 472 0014 5B89     		ldrh	r3, [r3, #10]
 473 0016 1380     		strh	r3, [r2]	@ movhi
 203:Middlewares/Third_Party/LwIP/src/api/netbuf.c ****   return ERR_OK;
 474              		.loc 1 203 0
 475 0018 0020     		movs	r0, #0
 476              	.LVL52:
 477              	.L51:
 204:Middlewares/Third_Party/LwIP/src/api/netbuf.c **** }
 478              		.loc 1 204 0
 479 001a 08BD     		pop	{r3, pc}
 480              	.LVL53:
 481              	.L56:
 194:Middlewares/Third_Party/LwIP/src/api/netbuf.c ****   LWIP_ERROR("netbuf_data: invalid dataptr", (dataptr != NULL), return ERR_ARG;);
 482              		.loc 1 194 0 discriminator 1
ARM GAS  C:\Users\Patryk\AppData\Local\Temp\cc2P8eNs.s 			page 13


 483 001c 0E4B     		ldr	r3, .L59
 484 001e C222     		movs	r2, #194
 485              	.LVL54:
 486 0020 0E49     		ldr	r1, .L59+4
 487              	.LVL55:
 488 0022 0F48     		ldr	r0, .L59+8
 489              	.LVL56:
 490 0024 FFF7FEFF 		bl	printf
 491              	.LVL57:
 492 0028 6FF00F00 		mvn	r0, #15
 493 002c F5E7     		b	.L51
 494              	.LVL58:
 495              	.L57:
 195:Middlewares/Third_Party/LwIP/src/api/netbuf.c ****   LWIP_ERROR("netbuf_data: invalid len", (len != NULL), return ERR_ARG;);
 496              		.loc 1 195 0 discriminator 1
 497 002e 0A4B     		ldr	r3, .L59
 498 0030 C322     		movs	r2, #195
 499              	.LVL59:
 500 0032 0C49     		ldr	r1, .L59+12
 501              	.LVL60:
 502 0034 0A48     		ldr	r0, .L59+8
 503              	.LVL61:
 504 0036 FFF7FEFF 		bl	printf
 505              	.LVL62:
 506 003a 6FF00F00 		mvn	r0, #15
 507 003e ECE7     		b	.L51
 508              	.LVL63:
 509              	.L58:
 196:Middlewares/Third_Party/LwIP/src/api/netbuf.c **** 
 510              		.loc 1 196 0 discriminator 1
 511 0040 054B     		ldr	r3, .L59
 512 0042 C422     		movs	r2, #196
 513              	.LVL64:
 514 0044 0849     		ldr	r1, .L59+16
 515              	.LVL65:
 516 0046 0648     		ldr	r0, .L59+8
 517              	.LVL66:
 518 0048 FFF7FEFF 		bl	printf
 519              	.LVL67:
 520 004c 6FF00F00 		mvn	r0, #15
 521 0050 E3E7     		b	.L51
 522              	.LVL68:
 523              	.L54:
 199:Middlewares/Third_Party/LwIP/src/api/netbuf.c ****   }
 524              		.loc 1 199 0
 525 0052 6FF00100 		mvn	r0, #1
 526 0056 E0E7     		b	.L51
 527              	.L60:
 528              		.align	2
 529              	.L59:
 530 0058 00000000 		.word	.LC0
 531 005c 00000000 		.word	.LC8
 532 0060 4C000000 		.word	.LC2
 533 0064 1C000000 		.word	.LC9
 534 0068 3C000000 		.word	.LC10
 535              		.cfi_endproc
 536              	.LFE160:
ARM GAS  C:\Users\Patryk\AppData\Local\Temp\cc2P8eNs.s 			page 14


 538              		.section	.text.netbuf_next,"ax",%progbits
 539              		.align	1
 540              		.global	netbuf_next
 541              		.syntax unified
 542              		.thumb
 543              		.thumb_func
 544              		.fpu fpv5-sp-d16
 546              	netbuf_next:
 547              	.LFB161:
 205:Middlewares/Third_Party/LwIP/src/api/netbuf.c **** 
 206:Middlewares/Third_Party/LwIP/src/api/netbuf.c **** /**
 207:Middlewares/Third_Party/LwIP/src/api/netbuf.c ****  * @ingroup netbuf
 208:Middlewares/Third_Party/LwIP/src/api/netbuf.c ****  * Move the current data pointer of a packet buffer contained in a netbuf
 209:Middlewares/Third_Party/LwIP/src/api/netbuf.c ****  * to the next part.
 210:Middlewares/Third_Party/LwIP/src/api/netbuf.c ****  * The packet buffer itself is not modified.
 211:Middlewares/Third_Party/LwIP/src/api/netbuf.c ****  *
 212:Middlewares/Third_Party/LwIP/src/api/netbuf.c ****  * @param buf the netbuf to modify
 213:Middlewares/Third_Party/LwIP/src/api/netbuf.c ****  * @return -1 if there is no next part
 214:Middlewares/Third_Party/LwIP/src/api/netbuf.c ****  *         1  if moved to the next part but now there is no next part
 215:Middlewares/Third_Party/LwIP/src/api/netbuf.c ****  *         0  if moved to the next part and there are still more parts
 216:Middlewares/Third_Party/LwIP/src/api/netbuf.c ****  */
 217:Middlewares/Third_Party/LwIP/src/api/netbuf.c **** s8_t
 218:Middlewares/Third_Party/LwIP/src/api/netbuf.c **** netbuf_next(struct netbuf *buf)
 219:Middlewares/Third_Party/LwIP/src/api/netbuf.c **** {
 548              		.loc 1 219 0
 549              		.cfi_startproc
 550              		@ args = 0, pretend = 0, frame = 0
 551              		@ frame_needed = 0, uses_anonymous_args = 0
 552              	.LVL69:
 553 0000 08B5     		push	{r3, lr}
 554              	.LCFI8:
 555              		.cfi_def_cfa_offset 8
 556              		.cfi_offset 3, -8
 557              		.cfi_offset 14, -4
 220:Middlewares/Third_Party/LwIP/src/api/netbuf.c ****   LWIP_ERROR("netbuf_next: invalid buf", (buf != NULL), return -1;);
 558              		.loc 1 220 0
 559 0002 38B1     		cbz	r0, .L67
 221:Middlewares/Third_Party/LwIP/src/api/netbuf.c ****   if (buf->ptr->next == NULL) {
 560              		.loc 1 221 0
 561 0004 4368     		ldr	r3, [r0, #4]
 562 0006 1B68     		ldr	r3, [r3]
 563 0008 7BB1     		cbz	r3, .L64
 222:Middlewares/Third_Party/LwIP/src/api/netbuf.c ****     return -1;
 223:Middlewares/Third_Party/LwIP/src/api/netbuf.c ****   }
 224:Middlewares/Third_Party/LwIP/src/api/netbuf.c ****   buf->ptr = buf->ptr->next;
 564              		.loc 1 224 0
 565 000a 4360     		str	r3, [r0, #4]
 225:Middlewares/Third_Party/LwIP/src/api/netbuf.c ****   if (buf->ptr->next == NULL) {
 566              		.loc 1 225 0
 567 000c 1B68     		ldr	r3, [r3]
 568 000e 53B1     		cbz	r3, .L68
 226:Middlewares/Third_Party/LwIP/src/api/netbuf.c ****     return 1;
 227:Middlewares/Third_Party/LwIP/src/api/netbuf.c ****   }
 228:Middlewares/Third_Party/LwIP/src/api/netbuf.c ****   return 0;
 569              		.loc 1 228 0
 570 0010 0020     		movs	r0, #0
 571              	.LVL70:
ARM GAS  C:\Users\Patryk\AppData\Local\Temp\cc2P8eNs.s 			page 15


 572              	.L63:
 229:Middlewares/Third_Party/LwIP/src/api/netbuf.c **** }
 573              		.loc 1 229 0
 574 0012 08BD     		pop	{r3, pc}
 575              	.LVL71:
 576              	.L67:
 220:Middlewares/Third_Party/LwIP/src/api/netbuf.c ****   if (buf->ptr->next == NULL) {
 577              		.loc 1 220 0 discriminator 1
 578 0014 064B     		ldr	r3, .L69
 579 0016 DC22     		movs	r2, #220
 580 0018 0649     		ldr	r1, .L69+4
 581 001a 0748     		ldr	r0, .L69+8
 582              	.LVL72:
 583 001c FFF7FEFF 		bl	printf
 584              	.LVL73:
 585 0020 4FF0FF30 		mov	r0, #-1
 586 0024 F5E7     		b	.L63
 587              	.LVL74:
 588              	.L68:
 226:Middlewares/Third_Party/LwIP/src/api/netbuf.c ****     return 1;
 589              		.loc 1 226 0
 590 0026 0120     		movs	r0, #1
 591              	.LVL75:
 592 0028 F3E7     		b	.L63
 593              	.LVL76:
 594              	.L64:
 222:Middlewares/Third_Party/LwIP/src/api/netbuf.c ****   }
 595              		.loc 1 222 0
 596 002a 4FF0FF30 		mov	r0, #-1
 597              	.LVL77:
 598 002e F0E7     		b	.L63
 599              	.L70:
 600              		.align	2
 601              	.L69:
 602 0030 00000000 		.word	.LC0
 603 0034 00000000 		.word	.LC11
 604 0038 4C000000 		.word	.LC2
 605              		.cfi_endproc
 606              	.LFE161:
 608              		.section	.text.netbuf_first,"ax",%progbits
 609              		.align	1
 610              		.global	netbuf_first
 611              		.syntax unified
 612              		.thumb
 613              		.thumb_func
 614              		.fpu fpv5-sp-d16
 616              	netbuf_first:
 617              	.LFB162:
 230:Middlewares/Third_Party/LwIP/src/api/netbuf.c **** 
 231:Middlewares/Third_Party/LwIP/src/api/netbuf.c **** /**
 232:Middlewares/Third_Party/LwIP/src/api/netbuf.c ****  * @ingroup netbuf
 233:Middlewares/Third_Party/LwIP/src/api/netbuf.c ****  * Move the current data pointer of a packet buffer contained in a netbuf
 234:Middlewares/Third_Party/LwIP/src/api/netbuf.c ****  * to the beginning of the packet.
 235:Middlewares/Third_Party/LwIP/src/api/netbuf.c ****  * The packet buffer itself is not modified.
 236:Middlewares/Third_Party/LwIP/src/api/netbuf.c ****  *
 237:Middlewares/Third_Party/LwIP/src/api/netbuf.c ****  * @param buf the netbuf to modify
 238:Middlewares/Third_Party/LwIP/src/api/netbuf.c ****  */
ARM GAS  C:\Users\Patryk\AppData\Local\Temp\cc2P8eNs.s 			page 16


 239:Middlewares/Third_Party/LwIP/src/api/netbuf.c **** void
 240:Middlewares/Third_Party/LwIP/src/api/netbuf.c **** netbuf_first(struct netbuf *buf)
 241:Middlewares/Third_Party/LwIP/src/api/netbuf.c **** {
 618              		.loc 1 241 0
 619              		.cfi_startproc
 620              		@ args = 0, pretend = 0, frame = 0
 621              		@ frame_needed = 0, uses_anonymous_args = 0
 622              	.LVL78:
 623 0000 08B5     		push	{r3, lr}
 624              	.LCFI9:
 625              		.cfi_def_cfa_offset 8
 626              		.cfi_offset 3, -8
 627              		.cfi_offset 14, -4
 242:Middlewares/Third_Party/LwIP/src/api/netbuf.c ****   LWIP_ERROR("netbuf_first: invalid buf", (buf != NULL), return;);
 628              		.loc 1 242 0
 629 0002 10B1     		cbz	r0, .L75
 243:Middlewares/Third_Party/LwIP/src/api/netbuf.c ****   buf->ptr = buf->p;
 630              		.loc 1 243 0
 631 0004 0268     		ldr	r2, [r0]
 632 0006 4260     		str	r2, [r0, #4]
 633              	.LVL79:
 634              	.L71:
 244:Middlewares/Third_Party/LwIP/src/api/netbuf.c **** }
 635              		.loc 1 244 0
 636 0008 08BD     		pop	{r3, pc}
 637              	.LVL80:
 638              	.L75:
 242:Middlewares/Third_Party/LwIP/src/api/netbuf.c ****   LWIP_ERROR("netbuf_first: invalid buf", (buf != NULL), return;);
 639              		.loc 1 242 0 discriminator 1
 640 000a 034B     		ldr	r3, .L76
 641 000c F222     		movs	r2, #242
 642 000e 0349     		ldr	r1, .L76+4
 643 0010 0348     		ldr	r0, .L76+8
 644              	.LVL81:
 645 0012 FFF7FEFF 		bl	printf
 646              	.LVL82:
 647 0016 F7E7     		b	.L71
 648              	.L77:
 649              		.align	2
 650              	.L76:
 651 0018 00000000 		.word	.LC0
 652 001c 00000000 		.word	.LC12
 653 0020 4C000000 		.word	.LC2
 654              		.cfi_endproc
 655              	.LFE162:
 657              		.section	.rodata.netbuf_alloc.str1.4,"aMS",%progbits,1
 658              		.align	2
 659              	.LC0:
 660 0000 4D696464 		.ascii	"Middlewares/Third_Party/LwIP/src/api/netbuf.c\000"
 660      6C657761 
 660      7265732F 
 660      54686972 
 660      645F5061 
 661 002e 0000     		.space	2
 662              	.LC1:
 663 0030 6E657462 		.ascii	"netbuf_alloc: invalid buf\000"
 663      75665F61 
ARM GAS  C:\Users\Patryk\AppData\Local\Temp\cc2P8eNs.s 			page 17


 663      6C6C6F63 
 663      3A20696E 
 663      76616C69 
 664 004a 0000     		.space	2
 665              	.LC2:
 666 004c 41737365 		.ascii	"Assertion \"%s\" failed at line %d in %s\012\000"
 666      7274696F 
 666      6E202225 
 666      73222066 
 666      61696C65 
 667              	.LC3:
 668 0074 63686563 		.ascii	"check that first pbuf can hold size\000"
 668      6B207468 
 668      61742066 
 668      69727374 
 668      20706275 
 669              		.section	.rodata.netbuf_chain.str1.4,"aMS",%progbits,1
 670              		.align	2
 671              	.LC6:
 672 0000 6E657462 		.ascii	"netbuf_chain: invalid head\000"
 672      75665F63 
 672      6861696E 
 672      3A20696E 
 672      76616C69 
 673 001b 00       		.space	1
 674              	.LC7:
 675 001c 6E657462 		.ascii	"netbuf_chain: invalid tail\000"
 675      75665F63 
 675      6861696E 
 675      3A20696E 
 675      76616C69 
 676              		.section	.rodata.netbuf_data.str1.4,"aMS",%progbits,1
 677              		.align	2
 678              	.LC8:
 679 0000 6E657462 		.ascii	"netbuf_data: invalid buf\000"
 679      75665F64 
 679      6174613A 
 679      20696E76 
 679      616C6964 
 680 0019 000000   		.space	3
 681              	.LC9:
 682 001c 6E657462 		.ascii	"netbuf_data: invalid dataptr\000"
 682      75665F64 
 682      6174613A 
 682      20696E76 
 682      616C6964 
 683 0039 000000   		.space	3
 684              	.LC10:
 685 003c 6E657462 		.ascii	"netbuf_data: invalid len\000"
 685      75665F64 
 685      6174613A 
 685      20696E76 
 685      616C6964 
 686              		.section	.rodata.netbuf_first.str1.4,"aMS",%progbits,1
 687              		.align	2
 688              	.LC12:
 689 0000 6E657462 		.ascii	"netbuf_first: invalid buf\000"
ARM GAS  C:\Users\Patryk\AppData\Local\Temp\cc2P8eNs.s 			page 18


 689      75665F66 
 689      69727374 
 689      3A20696E 
 689      76616C69 
 690              		.section	.rodata.netbuf_free.str1.4,"aMS",%progbits,1
 691              		.align	2
 692              	.LC4:
 693 0000 6E657462 		.ascii	"netbuf_free: invalid buf\000"
 693      75665F66 
 693      7265653A 
 693      20696E76 
 693      616C6964 
 694              		.section	.rodata.netbuf_next.str1.4,"aMS",%progbits,1
 695              		.align	2
 696              	.LC11:
 697 0000 6E657462 		.ascii	"netbuf_next: invalid buf\000"
 697      75665F6E 
 697      6578743A 
 697      20696E76 
 697      616C6964 
 698              		.section	.rodata.netbuf_ref.str1.4,"aMS",%progbits,1
 699              		.align	2
 700              	.LC5:
 701 0000 6E657462 		.ascii	"netbuf_ref: invalid buf\000"
 701      75665F72 
 701      65663A20 
 701      696E7661 
 701      6C696420 
 702              		.text
 703              	.Letext0:
 704              		.file 2 "c:\\program files (x86)\\gnu\\7_2018-q2-update\\arm-none-eabi\\include\\machine\\_default
 705              		.file 3 "c:\\program files (x86)\\gnu\\7_2018-q2-update\\arm-none-eabi\\include\\sys\\_stdint.h"
 706              		.file 4 "Drivers/CMSIS/Include/core_cm7.h"
 707              		.file 5 "Drivers/CMSIS/Device/ST/STM32F7xx/Include/system_stm32f7xx.h"
 708              		.file 6 "c:\\program files (x86)\\gnu\\7_2018-q2-update\\arm-none-eabi\\include\\sys\\lock.h"
 709              		.file 7 "c:\\program files (x86)\\gnu\\7_2018-q2-update\\arm-none-eabi\\include\\sys\\_types.h"
 710              		.file 8 "c:\\program files (x86)\\gnu\\7_2018-q2-update\\lib\\gcc\\arm-none-eabi\\7.3.1\\include\\
 711              		.file 9 "c:\\program files (x86)\\gnu\\7_2018-q2-update\\arm-none-eabi\\include\\sys\\reent.h"
 712              		.file 10 "c:\\program files (x86)\\gnu\\7_2018-q2-update\\arm-none-eabi\\include\\stdlib.h"
 713              		.file 11 "c:\\program files (x86)\\gnu\\7_2018-q2-update\\arm-none-eabi\\include\\time.h"
 714              		.file 12 "Middlewares/Third_Party/LwIP/src/include/lwip/arch.h"
 715              		.file 13 "Middlewares/Third_Party/LwIP/src/include/lwip/err.h"
 716              		.file 14 "Middlewares/Third_Party/LwIP/src/include/lwip/pbuf.h"
 717              		.file 15 "Middlewares/Third_Party/LwIP/src/include/lwip/ip4_addr.h"
 718              		.file 16 "Middlewares/Third_Party/LwIP/src/include/lwip/ip_addr.h"
 719              		.file 17 "Middlewares/Third_Party/LwIP/src/include/lwip/netbuf.h"
 720              		.file 18 "Middlewares/Third_Party/LwIP/src/include/lwip/memp.h"
 721              		.file 19 "Middlewares/Third_Party/LwIP/src/include/lwip/priv/memp_priv.h"
 722              		.file 20 "c:\\program files (x86)\\gnu\\7_2018-q2-update\\arm-none-eabi\\include\\stdio.h"
ARM GAS  C:\Users\Patryk\AppData\Local\Temp\cc2P8eNs.s 			page 19

