ARM GAS  C:\Users\Patryk\AppData\Local\Temp\ccWBdSKa.s 			page 1


   1              		.cpu cortex-m7
   2              		.eabi_attribute 27, 1
   3              		.eabi_attribute 28, 1
   4              		.eabi_attribute 20, 1
   5              		.eabi_attribute 21, 1
   6              		.eabi_attribute 23, 3
   7              		.eabi_attribute 24, 1
   8              		.eabi_attribute 25, 1
   9              		.eabi_attribute 26, 1
  10              		.eabi_attribute 30, 1
  11              		.eabi_attribute 34, 1
  12              		.eabi_attribute 18, 4
  13              		.file	"netif.c"
  14              		.text
  15              	.Ltext0:
  16              		.cfi_sections	.debug_frame
  17              		.section	.text.netif_issue_reports,"ax",%progbits
  18              		.align	1
  19              		.syntax unified
  20              		.thumb
  21              		.thumb_func
  22              		.fpu fpv5-sp-d16
  24              	netif_issue_reports:
  25              	.LFB170:
  26              		.file 1 "Middlewares/Third_Party/LwIP/src/core/netif.c"
   1:Middlewares/Third_Party/LwIP/src/core/netif.c **** /**
   2:Middlewares/Third_Party/LwIP/src/core/netif.c ****  * @file
   3:Middlewares/Third_Party/LwIP/src/core/netif.c ****  * lwIP network interface abstraction
   4:Middlewares/Third_Party/LwIP/src/core/netif.c ****  * 
   5:Middlewares/Third_Party/LwIP/src/core/netif.c ****  * @defgroup netif Network interface (NETIF)
   6:Middlewares/Third_Party/LwIP/src/core/netif.c ****  * @ingroup callbackstyle_api
   7:Middlewares/Third_Party/LwIP/src/core/netif.c ****  * 
   8:Middlewares/Third_Party/LwIP/src/core/netif.c ****  * @defgroup netif_ip4 IPv4 address handling
   9:Middlewares/Third_Party/LwIP/src/core/netif.c ****  * @ingroup netif
  10:Middlewares/Third_Party/LwIP/src/core/netif.c ****  * 
  11:Middlewares/Third_Party/LwIP/src/core/netif.c ****  * @defgroup netif_ip6 IPv6 address handling
  12:Middlewares/Third_Party/LwIP/src/core/netif.c ****  * @ingroup netif
  13:Middlewares/Third_Party/LwIP/src/core/netif.c ****  * 
  14:Middlewares/Third_Party/LwIP/src/core/netif.c ****  * @defgroup netif_cd Client data handling
  15:Middlewares/Third_Party/LwIP/src/core/netif.c ****  * Store data (void*) on a netif for application usage.
  16:Middlewares/Third_Party/LwIP/src/core/netif.c ****  * @see @ref LWIP_NUM_NETIF_CLIENT_DATA
  17:Middlewares/Third_Party/LwIP/src/core/netif.c ****  * @ingroup netif
  18:Middlewares/Third_Party/LwIP/src/core/netif.c ****  */
  19:Middlewares/Third_Party/LwIP/src/core/netif.c **** 
  20:Middlewares/Third_Party/LwIP/src/core/netif.c **** /*
  21:Middlewares/Third_Party/LwIP/src/core/netif.c ****  * Copyright (c) 2001-2004 Swedish Institute of Computer Science.
  22:Middlewares/Third_Party/LwIP/src/core/netif.c ****  * All rights reserved.
  23:Middlewares/Third_Party/LwIP/src/core/netif.c ****  *
  24:Middlewares/Third_Party/LwIP/src/core/netif.c ****  * Redistribution and use in source and binary forms, with or without modification,
  25:Middlewares/Third_Party/LwIP/src/core/netif.c ****  * are permitted provided that the following conditions are met:
  26:Middlewares/Third_Party/LwIP/src/core/netif.c ****  *
  27:Middlewares/Third_Party/LwIP/src/core/netif.c ****  * 1. Redistributions of source code must retain the above copyright notice,
  28:Middlewares/Third_Party/LwIP/src/core/netif.c ****  *    this list of conditions and the following disclaimer.
  29:Middlewares/Third_Party/LwIP/src/core/netif.c ****  * 2. Redistributions in binary form must reproduce the above copyright notice,
  30:Middlewares/Third_Party/LwIP/src/core/netif.c ****  *    this list of conditions and the following disclaimer in the documentation
  31:Middlewares/Third_Party/LwIP/src/core/netif.c ****  *    and/or other materials provided with the distribution.
  32:Middlewares/Third_Party/LwIP/src/core/netif.c ****  * 3. The name of the author may not be used to endorse or promote products
ARM GAS  C:\Users\Patryk\AppData\Local\Temp\ccWBdSKa.s 			page 2


  33:Middlewares/Third_Party/LwIP/src/core/netif.c ****  *    derived from this software without specific prior written permission.
  34:Middlewares/Third_Party/LwIP/src/core/netif.c ****  *
  35:Middlewares/Third_Party/LwIP/src/core/netif.c ****  * THIS SOFTWARE IS PROVIDED BY THE AUTHOR ``AS IS'' AND ANY EXPRESS OR IMPLIED
  36:Middlewares/Third_Party/LwIP/src/core/netif.c ****  * WARRANTIES, INCLUDING, BUT NOT LIMITED TO, THE IMPLIED WARRANTIES OF
  37:Middlewares/Third_Party/LwIP/src/core/netif.c ****  * MERCHANTABILITY AND FITNESS FOR A PARTICULAR PURPOSE ARE DISCLAIMED. IN NO EVENT
  38:Middlewares/Third_Party/LwIP/src/core/netif.c ****  * SHALL THE AUTHOR BE LIABLE FOR ANY DIRECT, INDIRECT, INCIDENTAL, SPECIAL,
  39:Middlewares/Third_Party/LwIP/src/core/netif.c ****  * EXEMPLARY, OR CONSEQUENTIAL DAMAGES (INCLUDING, BUT NOT LIMITED TO, PROCUREMENT
  40:Middlewares/Third_Party/LwIP/src/core/netif.c ****  * OF SUBSTITUTE GOODS OR SERVICES; LOSS OF USE, DATA, OR PROFITS; OR BUSINESS
  41:Middlewares/Third_Party/LwIP/src/core/netif.c ****  * INTERRUPTION) HOWEVER CAUSED AND ON ANY THEORY OF LIABILITY, WHETHER IN
  42:Middlewares/Third_Party/LwIP/src/core/netif.c ****  * CONTRACT, STRICT LIABILITY, OR TORT (INCLUDING NEGLIGENCE OR OTHERWISE) ARISING
  43:Middlewares/Third_Party/LwIP/src/core/netif.c ****  * IN ANY WAY OUT OF THE USE OF THIS SOFTWARE, EVEN IF ADVISED OF THE POSSIBILITY
  44:Middlewares/Third_Party/LwIP/src/core/netif.c ****  * OF SUCH DAMAGE.
  45:Middlewares/Third_Party/LwIP/src/core/netif.c ****  *
  46:Middlewares/Third_Party/LwIP/src/core/netif.c ****  * This file is part of the lwIP TCP/IP stack.
  47:Middlewares/Third_Party/LwIP/src/core/netif.c ****  *
  48:Middlewares/Third_Party/LwIP/src/core/netif.c ****  * Author: Adam Dunkels <adam@sics.se>
  49:Middlewares/Third_Party/LwIP/src/core/netif.c ****  */
  50:Middlewares/Third_Party/LwIP/src/core/netif.c **** 
  51:Middlewares/Third_Party/LwIP/src/core/netif.c **** #include "lwip/opt.h"
  52:Middlewares/Third_Party/LwIP/src/core/netif.c **** 
  53:Middlewares/Third_Party/LwIP/src/core/netif.c **** #include <string.h>
  54:Middlewares/Third_Party/LwIP/src/core/netif.c **** 
  55:Middlewares/Third_Party/LwIP/src/core/netif.c **** #include "lwip/def.h"
  56:Middlewares/Third_Party/LwIP/src/core/netif.c **** #include "lwip/ip_addr.h"
  57:Middlewares/Third_Party/LwIP/src/core/netif.c **** #include "lwip/ip6_addr.h"
  58:Middlewares/Third_Party/LwIP/src/core/netif.c **** #include "lwip/netif.h"
  59:Middlewares/Third_Party/LwIP/src/core/netif.c **** #include "lwip/priv/tcp_priv.h"
  60:Middlewares/Third_Party/LwIP/src/core/netif.c **** #include "lwip/udp.h"
  61:Middlewares/Third_Party/LwIP/src/core/netif.c **** #include "lwip/raw.h"
  62:Middlewares/Third_Party/LwIP/src/core/netif.c **** #include "lwip/snmp.h"
  63:Middlewares/Third_Party/LwIP/src/core/netif.c **** #include "lwip/igmp.h"
  64:Middlewares/Third_Party/LwIP/src/core/netif.c **** #include "lwip/etharp.h"
  65:Middlewares/Third_Party/LwIP/src/core/netif.c **** #include "lwip/stats.h"
  66:Middlewares/Third_Party/LwIP/src/core/netif.c **** #include "lwip/sys.h"
  67:Middlewares/Third_Party/LwIP/src/core/netif.c **** #include "lwip/ip.h"
  68:Middlewares/Third_Party/LwIP/src/core/netif.c **** #if ENABLE_LOOPBACK
  69:Middlewares/Third_Party/LwIP/src/core/netif.c **** #if LWIP_NETIF_LOOPBACK_MULTITHREADING
  70:Middlewares/Third_Party/LwIP/src/core/netif.c **** #include "lwip/tcpip.h"
  71:Middlewares/Third_Party/LwIP/src/core/netif.c **** #endif /* LWIP_NETIF_LOOPBACK_MULTITHREADING */
  72:Middlewares/Third_Party/LwIP/src/core/netif.c **** #endif /* ENABLE_LOOPBACK */
  73:Middlewares/Third_Party/LwIP/src/core/netif.c **** 
  74:Middlewares/Third_Party/LwIP/src/core/netif.c **** #include "netif/ethernet.h"
  75:Middlewares/Third_Party/LwIP/src/core/netif.c **** 
  76:Middlewares/Third_Party/LwIP/src/core/netif.c **** #if LWIP_AUTOIP
  77:Middlewares/Third_Party/LwIP/src/core/netif.c **** #include "lwip/autoip.h"
  78:Middlewares/Third_Party/LwIP/src/core/netif.c **** #endif /* LWIP_AUTOIP */
  79:Middlewares/Third_Party/LwIP/src/core/netif.c **** #if LWIP_DHCP
  80:Middlewares/Third_Party/LwIP/src/core/netif.c **** #include "lwip/dhcp.h"
  81:Middlewares/Third_Party/LwIP/src/core/netif.c **** #endif /* LWIP_DHCP */
  82:Middlewares/Third_Party/LwIP/src/core/netif.c **** #if LWIP_IPV6_DHCP6
  83:Middlewares/Third_Party/LwIP/src/core/netif.c **** #include "lwip/dhcp6.h"
  84:Middlewares/Third_Party/LwIP/src/core/netif.c **** #endif /* LWIP_IPV6_DHCP6 */
  85:Middlewares/Third_Party/LwIP/src/core/netif.c **** #if LWIP_IPV6_MLD
  86:Middlewares/Third_Party/LwIP/src/core/netif.c **** #include "lwip/mld6.h"
  87:Middlewares/Third_Party/LwIP/src/core/netif.c **** #endif /* LWIP_IPV6_MLD */
  88:Middlewares/Third_Party/LwIP/src/core/netif.c **** #if LWIP_IPV6
  89:Middlewares/Third_Party/LwIP/src/core/netif.c **** #include "lwip/nd6.h"
ARM GAS  C:\Users\Patryk\AppData\Local\Temp\ccWBdSKa.s 			page 3


  90:Middlewares/Third_Party/LwIP/src/core/netif.c **** #endif
  91:Middlewares/Third_Party/LwIP/src/core/netif.c **** 
  92:Middlewares/Third_Party/LwIP/src/core/netif.c **** #if LWIP_NETIF_STATUS_CALLBACK
  93:Middlewares/Third_Party/LwIP/src/core/netif.c **** #define NETIF_STATUS_CALLBACK(n) do{ if (n->status_callback) { (n->status_callback)(n); }}while(0)
  94:Middlewares/Third_Party/LwIP/src/core/netif.c **** #else
  95:Middlewares/Third_Party/LwIP/src/core/netif.c **** #define NETIF_STATUS_CALLBACK(n)
  96:Middlewares/Third_Party/LwIP/src/core/netif.c **** #endif /* LWIP_NETIF_STATUS_CALLBACK */
  97:Middlewares/Third_Party/LwIP/src/core/netif.c **** 
  98:Middlewares/Third_Party/LwIP/src/core/netif.c **** #if LWIP_NETIF_LINK_CALLBACK
  99:Middlewares/Third_Party/LwIP/src/core/netif.c **** #define NETIF_LINK_CALLBACK(n) do{ if (n->link_callback) { (n->link_callback)(n); }}while(0)
 100:Middlewares/Third_Party/LwIP/src/core/netif.c **** #else
 101:Middlewares/Third_Party/LwIP/src/core/netif.c **** #define NETIF_LINK_CALLBACK(n)
 102:Middlewares/Third_Party/LwIP/src/core/netif.c **** #endif /* LWIP_NETIF_LINK_CALLBACK */
 103:Middlewares/Third_Party/LwIP/src/core/netif.c **** 
 104:Middlewares/Third_Party/LwIP/src/core/netif.c **** struct netif *netif_list;
 105:Middlewares/Third_Party/LwIP/src/core/netif.c **** struct netif *netif_default;
 106:Middlewares/Third_Party/LwIP/src/core/netif.c **** 
 107:Middlewares/Third_Party/LwIP/src/core/netif.c **** static u8_t netif_num;
 108:Middlewares/Third_Party/LwIP/src/core/netif.c **** 
 109:Middlewares/Third_Party/LwIP/src/core/netif.c **** #if LWIP_NUM_NETIF_CLIENT_DATA > 0
 110:Middlewares/Third_Party/LwIP/src/core/netif.c **** static u8_t netif_client_id;
 111:Middlewares/Third_Party/LwIP/src/core/netif.c **** #endif
 112:Middlewares/Third_Party/LwIP/src/core/netif.c **** 
 113:Middlewares/Third_Party/LwIP/src/core/netif.c **** #define NETIF_REPORT_TYPE_IPV4  0x01
 114:Middlewares/Third_Party/LwIP/src/core/netif.c **** #define NETIF_REPORT_TYPE_IPV6  0x02
 115:Middlewares/Third_Party/LwIP/src/core/netif.c **** static void netif_issue_reports(struct netif* netif, u8_t report_type);
 116:Middlewares/Third_Party/LwIP/src/core/netif.c **** 
 117:Middlewares/Third_Party/LwIP/src/core/netif.c **** #if LWIP_IPV6
 118:Middlewares/Third_Party/LwIP/src/core/netif.c **** static err_t netif_null_output_ip6(struct netif *netif, struct pbuf *p, const ip6_addr_t *ipaddr);
 119:Middlewares/Third_Party/LwIP/src/core/netif.c **** #endif /* LWIP_IPV6 */
 120:Middlewares/Third_Party/LwIP/src/core/netif.c **** 
 121:Middlewares/Third_Party/LwIP/src/core/netif.c **** #if LWIP_HAVE_LOOPIF
 122:Middlewares/Third_Party/LwIP/src/core/netif.c **** #if LWIP_IPV4
 123:Middlewares/Third_Party/LwIP/src/core/netif.c **** static err_t netif_loop_output_ipv4(struct netif *netif, struct pbuf *p, const ip4_addr_t* addr);
 124:Middlewares/Third_Party/LwIP/src/core/netif.c **** #endif
 125:Middlewares/Third_Party/LwIP/src/core/netif.c **** #if LWIP_IPV6
 126:Middlewares/Third_Party/LwIP/src/core/netif.c **** static err_t netif_loop_output_ipv6(struct netif *netif, struct pbuf *p, const ip6_addr_t* addr);
 127:Middlewares/Third_Party/LwIP/src/core/netif.c **** #endif
 128:Middlewares/Third_Party/LwIP/src/core/netif.c **** 
 129:Middlewares/Third_Party/LwIP/src/core/netif.c **** 
 130:Middlewares/Third_Party/LwIP/src/core/netif.c **** static struct netif loop_netif;
 131:Middlewares/Third_Party/LwIP/src/core/netif.c **** 
 132:Middlewares/Third_Party/LwIP/src/core/netif.c **** /**
 133:Middlewares/Third_Party/LwIP/src/core/netif.c ****  * Initialize a lwip network interface structure for a loopback interface
 134:Middlewares/Third_Party/LwIP/src/core/netif.c ****  *
 135:Middlewares/Third_Party/LwIP/src/core/netif.c ****  * @param netif the lwip network interface structure for this loopif
 136:Middlewares/Third_Party/LwIP/src/core/netif.c ****  * @return ERR_OK if the loopif is initialized
 137:Middlewares/Third_Party/LwIP/src/core/netif.c ****  *         ERR_MEM if private data couldn't be allocated
 138:Middlewares/Third_Party/LwIP/src/core/netif.c ****  */
 139:Middlewares/Third_Party/LwIP/src/core/netif.c **** static err_t
 140:Middlewares/Third_Party/LwIP/src/core/netif.c **** netif_loopif_init(struct netif *netif)
 141:Middlewares/Third_Party/LwIP/src/core/netif.c **** {
 142:Middlewares/Third_Party/LwIP/src/core/netif.c ****   /* initialize the snmp variables and counters inside the struct netif
 143:Middlewares/Third_Party/LwIP/src/core/netif.c ****    * ifSpeed: no assumption can be made!
 144:Middlewares/Third_Party/LwIP/src/core/netif.c ****    */
 145:Middlewares/Third_Party/LwIP/src/core/netif.c ****   MIB2_INIT_NETIF(netif, snmp_ifType_softwareLoopback, 0);
 146:Middlewares/Third_Party/LwIP/src/core/netif.c **** 
ARM GAS  C:\Users\Patryk\AppData\Local\Temp\ccWBdSKa.s 			page 4


 147:Middlewares/Third_Party/LwIP/src/core/netif.c ****   netif->name[0] = 'l';
 148:Middlewares/Third_Party/LwIP/src/core/netif.c ****   netif->name[1] = 'o';
 149:Middlewares/Third_Party/LwIP/src/core/netif.c **** #if LWIP_IPV4
 150:Middlewares/Third_Party/LwIP/src/core/netif.c ****   netif->output = netif_loop_output_ipv4;
 151:Middlewares/Third_Party/LwIP/src/core/netif.c **** #endif
 152:Middlewares/Third_Party/LwIP/src/core/netif.c **** #if LWIP_IPV6
 153:Middlewares/Third_Party/LwIP/src/core/netif.c ****   netif->output_ip6 = netif_loop_output_ipv6;
 154:Middlewares/Third_Party/LwIP/src/core/netif.c **** #endif
 155:Middlewares/Third_Party/LwIP/src/core/netif.c **** #if LWIP_LOOPIF_MULTICAST
 156:Middlewares/Third_Party/LwIP/src/core/netif.c ****   netif->flags |= NETIF_FLAG_IGMP;
 157:Middlewares/Third_Party/LwIP/src/core/netif.c **** #endif
 158:Middlewares/Third_Party/LwIP/src/core/netif.c ****   return ERR_OK;
 159:Middlewares/Third_Party/LwIP/src/core/netif.c **** }
 160:Middlewares/Third_Party/LwIP/src/core/netif.c **** #endif /* LWIP_HAVE_LOOPIF */
 161:Middlewares/Third_Party/LwIP/src/core/netif.c **** 
 162:Middlewares/Third_Party/LwIP/src/core/netif.c **** void
 163:Middlewares/Third_Party/LwIP/src/core/netif.c **** netif_init(void)
 164:Middlewares/Third_Party/LwIP/src/core/netif.c **** {
 165:Middlewares/Third_Party/LwIP/src/core/netif.c **** #if LWIP_HAVE_LOOPIF
 166:Middlewares/Third_Party/LwIP/src/core/netif.c **** #if LWIP_IPV4
 167:Middlewares/Third_Party/LwIP/src/core/netif.c **** #define LOOPIF_ADDRINIT &loop_ipaddr, &loop_netmask, &loop_gw,
 168:Middlewares/Third_Party/LwIP/src/core/netif.c ****   ip4_addr_t loop_ipaddr, loop_netmask, loop_gw;
 169:Middlewares/Third_Party/LwIP/src/core/netif.c ****   IP4_ADDR(&loop_gw, 127,0,0,1);
 170:Middlewares/Third_Party/LwIP/src/core/netif.c ****   IP4_ADDR(&loop_ipaddr, 127,0,0,1);
 171:Middlewares/Third_Party/LwIP/src/core/netif.c ****   IP4_ADDR(&loop_netmask, 255,0,0,0);
 172:Middlewares/Third_Party/LwIP/src/core/netif.c **** #else /* LWIP_IPV4 */
 173:Middlewares/Third_Party/LwIP/src/core/netif.c **** #define LOOPIF_ADDRINIT
 174:Middlewares/Third_Party/LwIP/src/core/netif.c **** #endif /* LWIP_IPV4 */
 175:Middlewares/Third_Party/LwIP/src/core/netif.c **** 
 176:Middlewares/Third_Party/LwIP/src/core/netif.c **** #if NO_SYS
 177:Middlewares/Third_Party/LwIP/src/core/netif.c ****   netif_add(&loop_netif, LOOPIF_ADDRINIT NULL, netif_loopif_init, ip_input);
 178:Middlewares/Third_Party/LwIP/src/core/netif.c **** #else  /* NO_SYS */
 179:Middlewares/Third_Party/LwIP/src/core/netif.c ****   netif_add(&loop_netif, LOOPIF_ADDRINIT NULL, netif_loopif_init, tcpip_input);
 180:Middlewares/Third_Party/LwIP/src/core/netif.c **** #endif /* NO_SYS */
 181:Middlewares/Third_Party/LwIP/src/core/netif.c **** 
 182:Middlewares/Third_Party/LwIP/src/core/netif.c **** #if LWIP_IPV6
 183:Middlewares/Third_Party/LwIP/src/core/netif.c ****   IP_ADDR6_HOST(loop_netif.ip6_addr, 0, 0, 0, 0x00000001UL);
 184:Middlewares/Third_Party/LwIP/src/core/netif.c ****   loop_netif.ip6_addr_state[0] = IP6_ADDR_VALID;
 185:Middlewares/Third_Party/LwIP/src/core/netif.c **** #endif /* LWIP_IPV6 */
 186:Middlewares/Third_Party/LwIP/src/core/netif.c **** 
 187:Middlewares/Third_Party/LwIP/src/core/netif.c ****   netif_set_link_up(&loop_netif);
 188:Middlewares/Third_Party/LwIP/src/core/netif.c ****   netif_set_up(&loop_netif);
 189:Middlewares/Third_Party/LwIP/src/core/netif.c **** 
 190:Middlewares/Third_Party/LwIP/src/core/netif.c **** #endif /* LWIP_HAVE_LOOPIF */
 191:Middlewares/Third_Party/LwIP/src/core/netif.c **** }
 192:Middlewares/Third_Party/LwIP/src/core/netif.c **** 
 193:Middlewares/Third_Party/LwIP/src/core/netif.c **** /**
 194:Middlewares/Third_Party/LwIP/src/core/netif.c ****  * @ingroup lwip_nosys
 195:Middlewares/Third_Party/LwIP/src/core/netif.c ****  * Forwards a received packet for input processing with
 196:Middlewares/Third_Party/LwIP/src/core/netif.c ****  * ethernet_input() or ip_input() depending on netif flags.
 197:Middlewares/Third_Party/LwIP/src/core/netif.c ****  * Don't call directly, pass to netif_add() and call
 198:Middlewares/Third_Party/LwIP/src/core/netif.c ****  * netif->input().
 199:Middlewares/Third_Party/LwIP/src/core/netif.c ****  * Only works if the netif driver correctly sets 
 200:Middlewares/Third_Party/LwIP/src/core/netif.c ****  * NETIF_FLAG_ETHARP and/or NETIF_FLAG_ETHERNET flag!
 201:Middlewares/Third_Party/LwIP/src/core/netif.c ****  */
 202:Middlewares/Third_Party/LwIP/src/core/netif.c **** err_t
 203:Middlewares/Third_Party/LwIP/src/core/netif.c **** netif_input(struct pbuf *p, struct netif *inp)
ARM GAS  C:\Users\Patryk\AppData\Local\Temp\ccWBdSKa.s 			page 5


 204:Middlewares/Third_Party/LwIP/src/core/netif.c **** {
 205:Middlewares/Third_Party/LwIP/src/core/netif.c **** #if LWIP_ETHERNET
 206:Middlewares/Third_Party/LwIP/src/core/netif.c ****   if (inp->flags & (NETIF_FLAG_ETHARP | NETIF_FLAG_ETHERNET)) {
 207:Middlewares/Third_Party/LwIP/src/core/netif.c ****     return ethernet_input(p, inp);
 208:Middlewares/Third_Party/LwIP/src/core/netif.c ****   } else
 209:Middlewares/Third_Party/LwIP/src/core/netif.c **** #endif /* LWIP_ETHERNET */
 210:Middlewares/Third_Party/LwIP/src/core/netif.c ****   return ip_input(p, inp);
 211:Middlewares/Third_Party/LwIP/src/core/netif.c **** }
 212:Middlewares/Third_Party/LwIP/src/core/netif.c **** 
 213:Middlewares/Third_Party/LwIP/src/core/netif.c **** /**
 214:Middlewares/Third_Party/LwIP/src/core/netif.c ****  * @ingroup netif
 215:Middlewares/Third_Party/LwIP/src/core/netif.c ****  * Add a network interface to the list of lwIP netifs.
 216:Middlewares/Third_Party/LwIP/src/core/netif.c ****  *
 217:Middlewares/Third_Party/LwIP/src/core/netif.c ****  * @param netif a pre-allocated netif structure
 218:Middlewares/Third_Party/LwIP/src/core/netif.c ****  * @param ipaddr IP address for the new netif
 219:Middlewares/Third_Party/LwIP/src/core/netif.c ****  * @param netmask network mask for the new netif
 220:Middlewares/Third_Party/LwIP/src/core/netif.c ****  * @param gw default gateway IP address for the new netif
 221:Middlewares/Third_Party/LwIP/src/core/netif.c ****  * @param state opaque data passed to the new netif
 222:Middlewares/Third_Party/LwIP/src/core/netif.c ****  * @param init callback function that initializes the interface
 223:Middlewares/Third_Party/LwIP/src/core/netif.c ****  * @param input callback function that is called to pass
 224:Middlewares/Third_Party/LwIP/src/core/netif.c ****  * ingress packets up in the protocol layer stack.\n
 225:Middlewares/Third_Party/LwIP/src/core/netif.c ****  * It is recommended to use a function that passes the input directly
 226:Middlewares/Third_Party/LwIP/src/core/netif.c ****  * to the stack (netif_input(), NO_SYS=1 mode) or via sending a
 227:Middlewares/Third_Party/LwIP/src/core/netif.c ****  * message to TCPIP thread (tcpip_input(), NO_SYS=0 mode).\n
 228:Middlewares/Third_Party/LwIP/src/core/netif.c ****  * These functions use netif flags NETIF_FLAG_ETHARP and NETIF_FLAG_ETHERNET
 229:Middlewares/Third_Party/LwIP/src/core/netif.c ****  * to decide whether to forward to ethernet_input() or ip_input().
 230:Middlewares/Third_Party/LwIP/src/core/netif.c ****  * In other words, the functions only work when the netif
 231:Middlewares/Third_Party/LwIP/src/core/netif.c ****  * driver is implemented correctly!\n
 232:Middlewares/Third_Party/LwIP/src/core/netif.c ****  * Most members of struct netif should be be initialized by the 
 233:Middlewares/Third_Party/LwIP/src/core/netif.c ****  * netif init function = netif driver (init parameter of this function).\n
 234:Middlewares/Third_Party/LwIP/src/core/netif.c ****  * IPv6: Don't forget to call netif_create_ip6_linklocal_address() after
 235:Middlewares/Third_Party/LwIP/src/core/netif.c ****  * setting the MAC address in struct netif.hwaddr
 236:Middlewares/Third_Party/LwIP/src/core/netif.c ****  * (IPv6 requires a link-local address).
 237:Middlewares/Third_Party/LwIP/src/core/netif.c ****  * 
 238:Middlewares/Third_Party/LwIP/src/core/netif.c ****  * @return netif, or NULL if failed.
 239:Middlewares/Third_Party/LwIP/src/core/netif.c ****  */
 240:Middlewares/Third_Party/LwIP/src/core/netif.c **** struct netif *
 241:Middlewares/Third_Party/LwIP/src/core/netif.c **** netif_add(struct netif *netif,
 242:Middlewares/Third_Party/LwIP/src/core/netif.c **** #if LWIP_IPV4
 243:Middlewares/Third_Party/LwIP/src/core/netif.c ****           const ip4_addr_t *ipaddr, const ip4_addr_t *netmask, const ip4_addr_t *gw,
 244:Middlewares/Third_Party/LwIP/src/core/netif.c **** #endif /* LWIP_IPV4 */
 245:Middlewares/Third_Party/LwIP/src/core/netif.c ****           void *state, netif_init_fn init, netif_input_fn input)
 246:Middlewares/Third_Party/LwIP/src/core/netif.c **** {
 247:Middlewares/Third_Party/LwIP/src/core/netif.c **** #if LWIP_IPV6
 248:Middlewares/Third_Party/LwIP/src/core/netif.c ****   s8_t i;
 249:Middlewares/Third_Party/LwIP/src/core/netif.c **** #endif
 250:Middlewares/Third_Party/LwIP/src/core/netif.c **** 
 251:Middlewares/Third_Party/LwIP/src/core/netif.c ****   LWIP_ASSERT("No init function given", init != NULL);
 252:Middlewares/Third_Party/LwIP/src/core/netif.c **** 
 253:Middlewares/Third_Party/LwIP/src/core/netif.c ****   /* reset new interface configuration state */
 254:Middlewares/Third_Party/LwIP/src/core/netif.c **** #if LWIP_IPV4
 255:Middlewares/Third_Party/LwIP/src/core/netif.c ****   ip_addr_set_zero_ip4(&netif->ip_addr);
 256:Middlewares/Third_Party/LwIP/src/core/netif.c ****   ip_addr_set_zero_ip4(&netif->netmask);
 257:Middlewares/Third_Party/LwIP/src/core/netif.c ****   ip_addr_set_zero_ip4(&netif->gw);
 258:Middlewares/Third_Party/LwIP/src/core/netif.c **** #endif /* LWIP_IPV4 */
 259:Middlewares/Third_Party/LwIP/src/core/netif.c **** #if LWIP_IPV6
 260:Middlewares/Third_Party/LwIP/src/core/netif.c ****   for (i = 0; i < LWIP_IPV6_NUM_ADDRESSES; i++) {
ARM GAS  C:\Users\Patryk\AppData\Local\Temp\ccWBdSKa.s 			page 6


 261:Middlewares/Third_Party/LwIP/src/core/netif.c ****     ip_addr_set_zero_ip6(&netif->ip6_addr[i]);
 262:Middlewares/Third_Party/LwIP/src/core/netif.c ****     netif->ip6_addr_state[i] = IP6_ADDR_INVALID;
 263:Middlewares/Third_Party/LwIP/src/core/netif.c ****   }
 264:Middlewares/Third_Party/LwIP/src/core/netif.c ****   netif->output_ip6 = netif_null_output_ip6;
 265:Middlewares/Third_Party/LwIP/src/core/netif.c **** #endif /* LWIP_IPV6 */
 266:Middlewares/Third_Party/LwIP/src/core/netif.c ****   NETIF_SET_CHECKSUM_CTRL(netif, NETIF_CHECKSUM_ENABLE_ALL);
 267:Middlewares/Third_Party/LwIP/src/core/netif.c ****   netif->flags = 0;
 268:Middlewares/Third_Party/LwIP/src/core/netif.c **** #ifdef netif_get_client_data
 269:Middlewares/Third_Party/LwIP/src/core/netif.c ****   memset(netif->client_data, 0, sizeof(netif->client_data));
 270:Middlewares/Third_Party/LwIP/src/core/netif.c **** #endif /* LWIP_NUM_NETIF_CLIENT_DATA */
 271:Middlewares/Third_Party/LwIP/src/core/netif.c **** #if LWIP_IPV6_AUTOCONFIG
 272:Middlewares/Third_Party/LwIP/src/core/netif.c ****   /* IPv6 address autoconfiguration not enabled by default */
 273:Middlewares/Third_Party/LwIP/src/core/netif.c ****   netif->ip6_autoconfig_enabled = 0;
 274:Middlewares/Third_Party/LwIP/src/core/netif.c **** #endif /* LWIP_IPV6_AUTOCONFIG */
 275:Middlewares/Third_Party/LwIP/src/core/netif.c **** #if LWIP_IPV6_SEND_ROUTER_SOLICIT
 276:Middlewares/Third_Party/LwIP/src/core/netif.c ****   netif->rs_count = LWIP_ND6_MAX_MULTICAST_SOLICIT;
 277:Middlewares/Third_Party/LwIP/src/core/netif.c **** #endif /* LWIP_IPV6_SEND_ROUTER_SOLICIT */
 278:Middlewares/Third_Party/LwIP/src/core/netif.c **** #if LWIP_NETIF_STATUS_CALLBACK
 279:Middlewares/Third_Party/LwIP/src/core/netif.c ****   netif->status_callback = NULL;
 280:Middlewares/Third_Party/LwIP/src/core/netif.c **** #endif /* LWIP_NETIF_STATUS_CALLBACK */
 281:Middlewares/Third_Party/LwIP/src/core/netif.c **** #if LWIP_NETIF_LINK_CALLBACK
 282:Middlewares/Third_Party/LwIP/src/core/netif.c ****   netif->link_callback = NULL;
 283:Middlewares/Third_Party/LwIP/src/core/netif.c **** #endif /* LWIP_NETIF_LINK_CALLBACK */
 284:Middlewares/Third_Party/LwIP/src/core/netif.c **** #if LWIP_IGMP
 285:Middlewares/Third_Party/LwIP/src/core/netif.c ****   netif->igmp_mac_filter = NULL;
 286:Middlewares/Third_Party/LwIP/src/core/netif.c **** #endif /* LWIP_IGMP */
 287:Middlewares/Third_Party/LwIP/src/core/netif.c **** #if LWIP_IPV6 && LWIP_IPV6_MLD
 288:Middlewares/Third_Party/LwIP/src/core/netif.c ****   netif->mld_mac_filter = NULL;
 289:Middlewares/Third_Party/LwIP/src/core/netif.c **** #endif /* LWIP_IPV6 && LWIP_IPV6_MLD */
 290:Middlewares/Third_Party/LwIP/src/core/netif.c **** #if ENABLE_LOOPBACK
 291:Middlewares/Third_Party/LwIP/src/core/netif.c ****   netif->loop_first = NULL;
 292:Middlewares/Third_Party/LwIP/src/core/netif.c ****   netif->loop_last = NULL;
 293:Middlewares/Third_Party/LwIP/src/core/netif.c **** #endif /* ENABLE_LOOPBACK */
 294:Middlewares/Third_Party/LwIP/src/core/netif.c **** 
 295:Middlewares/Third_Party/LwIP/src/core/netif.c ****   /* remember netif specific state information data */
 296:Middlewares/Third_Party/LwIP/src/core/netif.c ****   netif->state = state;
 297:Middlewares/Third_Party/LwIP/src/core/netif.c ****   netif->num = netif_num++;
 298:Middlewares/Third_Party/LwIP/src/core/netif.c ****   netif->input = input;
 299:Middlewares/Third_Party/LwIP/src/core/netif.c **** 
 300:Middlewares/Third_Party/LwIP/src/core/netif.c ****   NETIF_SET_HWADDRHINT(netif, NULL);
 301:Middlewares/Third_Party/LwIP/src/core/netif.c **** #if ENABLE_LOOPBACK && LWIP_LOOPBACK_MAX_PBUFS
 302:Middlewares/Third_Party/LwIP/src/core/netif.c ****   netif->loop_cnt_current = 0;
 303:Middlewares/Third_Party/LwIP/src/core/netif.c **** #endif /* ENABLE_LOOPBACK && LWIP_LOOPBACK_MAX_PBUFS */
 304:Middlewares/Third_Party/LwIP/src/core/netif.c **** 
 305:Middlewares/Third_Party/LwIP/src/core/netif.c **** #if LWIP_IPV4
 306:Middlewares/Third_Party/LwIP/src/core/netif.c ****   netif_set_addr(netif, ipaddr, netmask, gw);
 307:Middlewares/Third_Party/LwIP/src/core/netif.c **** #endif /* LWIP_IPV4 */
 308:Middlewares/Third_Party/LwIP/src/core/netif.c **** 
 309:Middlewares/Third_Party/LwIP/src/core/netif.c ****   /* call user specified initialization function for netif */
 310:Middlewares/Third_Party/LwIP/src/core/netif.c ****   if (init(netif) != ERR_OK) {
 311:Middlewares/Third_Party/LwIP/src/core/netif.c ****     return NULL;
 312:Middlewares/Third_Party/LwIP/src/core/netif.c ****   }
 313:Middlewares/Third_Party/LwIP/src/core/netif.c **** 
 314:Middlewares/Third_Party/LwIP/src/core/netif.c ****   /* add this netif to the list */
 315:Middlewares/Third_Party/LwIP/src/core/netif.c ****   netif->next = netif_list;
 316:Middlewares/Third_Party/LwIP/src/core/netif.c ****   netif_list = netif;
 317:Middlewares/Third_Party/LwIP/src/core/netif.c ****   mib2_netif_added(netif);
ARM GAS  C:\Users\Patryk\AppData\Local\Temp\ccWBdSKa.s 			page 7


 318:Middlewares/Third_Party/LwIP/src/core/netif.c **** 
 319:Middlewares/Third_Party/LwIP/src/core/netif.c **** #if LWIP_IGMP
 320:Middlewares/Third_Party/LwIP/src/core/netif.c ****   /* start IGMP processing */
 321:Middlewares/Third_Party/LwIP/src/core/netif.c ****   if (netif->flags & NETIF_FLAG_IGMP) {
 322:Middlewares/Third_Party/LwIP/src/core/netif.c ****     igmp_start(netif);
 323:Middlewares/Third_Party/LwIP/src/core/netif.c ****   }
 324:Middlewares/Third_Party/LwIP/src/core/netif.c **** #endif /* LWIP_IGMP */
 325:Middlewares/Third_Party/LwIP/src/core/netif.c **** 
 326:Middlewares/Third_Party/LwIP/src/core/netif.c ****   LWIP_DEBUGF(NETIF_DEBUG, ("netif: added interface %c%c IP",
 327:Middlewares/Third_Party/LwIP/src/core/netif.c ****     netif->name[0], netif->name[1]));
 328:Middlewares/Third_Party/LwIP/src/core/netif.c **** #if LWIP_IPV4
 329:Middlewares/Third_Party/LwIP/src/core/netif.c ****   LWIP_DEBUGF(NETIF_DEBUG, (" addr "));
 330:Middlewares/Third_Party/LwIP/src/core/netif.c ****   ip4_addr_debug_print(NETIF_DEBUG, ipaddr);
 331:Middlewares/Third_Party/LwIP/src/core/netif.c ****   LWIP_DEBUGF(NETIF_DEBUG, (" netmask "));
 332:Middlewares/Third_Party/LwIP/src/core/netif.c ****   ip4_addr_debug_print(NETIF_DEBUG, netmask);
 333:Middlewares/Third_Party/LwIP/src/core/netif.c ****   LWIP_DEBUGF(NETIF_DEBUG, (" gw "));
 334:Middlewares/Third_Party/LwIP/src/core/netif.c ****   ip4_addr_debug_print(NETIF_DEBUG, gw);
 335:Middlewares/Third_Party/LwIP/src/core/netif.c **** #endif /* LWIP_IPV4 */
 336:Middlewares/Third_Party/LwIP/src/core/netif.c ****   LWIP_DEBUGF(NETIF_DEBUG, ("\n"));
 337:Middlewares/Third_Party/LwIP/src/core/netif.c ****   return netif;
 338:Middlewares/Third_Party/LwIP/src/core/netif.c **** }
 339:Middlewares/Third_Party/LwIP/src/core/netif.c **** 
 340:Middlewares/Third_Party/LwIP/src/core/netif.c **** #if LWIP_IPV4
 341:Middlewares/Third_Party/LwIP/src/core/netif.c **** /**
 342:Middlewares/Third_Party/LwIP/src/core/netif.c ****  * @ingroup netif_ip4
 343:Middlewares/Third_Party/LwIP/src/core/netif.c ****  * Change IP address configuration for a network interface (including netmask
 344:Middlewares/Third_Party/LwIP/src/core/netif.c ****  * and default gateway).
 345:Middlewares/Third_Party/LwIP/src/core/netif.c ****  *
 346:Middlewares/Third_Party/LwIP/src/core/netif.c ****  * @param netif the network interface to change
 347:Middlewares/Third_Party/LwIP/src/core/netif.c ****  * @param ipaddr the new IP address
 348:Middlewares/Third_Party/LwIP/src/core/netif.c ****  * @param netmask the new netmask
 349:Middlewares/Third_Party/LwIP/src/core/netif.c ****  * @param gw the new default gateway
 350:Middlewares/Third_Party/LwIP/src/core/netif.c ****  */
 351:Middlewares/Third_Party/LwIP/src/core/netif.c **** void
 352:Middlewares/Third_Party/LwIP/src/core/netif.c **** netif_set_addr(struct netif *netif, const ip4_addr_t *ipaddr, const ip4_addr_t *netmask,
 353:Middlewares/Third_Party/LwIP/src/core/netif.c ****     const ip4_addr_t *gw)
 354:Middlewares/Third_Party/LwIP/src/core/netif.c **** {
 355:Middlewares/Third_Party/LwIP/src/core/netif.c ****   if (ip4_addr_isany(ipaddr)) {
 356:Middlewares/Third_Party/LwIP/src/core/netif.c ****     /* when removing an address, we have to remove it *before* changing netmask/gw
 357:Middlewares/Third_Party/LwIP/src/core/netif.c ****        to ensure that tcp RST segment can be sent correctly */
 358:Middlewares/Third_Party/LwIP/src/core/netif.c ****     netif_set_ipaddr(netif, ipaddr);
 359:Middlewares/Third_Party/LwIP/src/core/netif.c ****     netif_set_netmask(netif, netmask);
 360:Middlewares/Third_Party/LwIP/src/core/netif.c ****     netif_set_gw(netif, gw);
 361:Middlewares/Third_Party/LwIP/src/core/netif.c ****   } else {
 362:Middlewares/Third_Party/LwIP/src/core/netif.c ****     netif_set_netmask(netif, netmask);
 363:Middlewares/Third_Party/LwIP/src/core/netif.c ****     netif_set_gw(netif, gw);
 364:Middlewares/Third_Party/LwIP/src/core/netif.c ****     /* set ipaddr last to ensure netmask/gw have been set when status callback is called */
 365:Middlewares/Third_Party/LwIP/src/core/netif.c ****     netif_set_ipaddr(netif, ipaddr);
 366:Middlewares/Third_Party/LwIP/src/core/netif.c ****   }
 367:Middlewares/Third_Party/LwIP/src/core/netif.c **** }
 368:Middlewares/Third_Party/LwIP/src/core/netif.c **** #endif /* LWIP_IPV4*/
 369:Middlewares/Third_Party/LwIP/src/core/netif.c **** 
 370:Middlewares/Third_Party/LwIP/src/core/netif.c **** /**
 371:Middlewares/Third_Party/LwIP/src/core/netif.c ****  * @ingroup netif
 372:Middlewares/Third_Party/LwIP/src/core/netif.c ****  * Remove a network interface from the list of lwIP netifs.
 373:Middlewares/Third_Party/LwIP/src/core/netif.c ****  *
 374:Middlewares/Third_Party/LwIP/src/core/netif.c ****  * @param netif the network interface to remove
ARM GAS  C:\Users\Patryk\AppData\Local\Temp\ccWBdSKa.s 			page 8


 375:Middlewares/Third_Party/LwIP/src/core/netif.c ****  */
 376:Middlewares/Third_Party/LwIP/src/core/netif.c **** void
 377:Middlewares/Third_Party/LwIP/src/core/netif.c **** netif_remove(struct netif *netif)
 378:Middlewares/Third_Party/LwIP/src/core/netif.c **** {
 379:Middlewares/Third_Party/LwIP/src/core/netif.c **** #if LWIP_IPV6
 380:Middlewares/Third_Party/LwIP/src/core/netif.c ****   int i;
 381:Middlewares/Third_Party/LwIP/src/core/netif.c **** #endif
 382:Middlewares/Third_Party/LwIP/src/core/netif.c **** 
 383:Middlewares/Third_Party/LwIP/src/core/netif.c ****   if (netif == NULL) {
 384:Middlewares/Third_Party/LwIP/src/core/netif.c ****     return;
 385:Middlewares/Third_Party/LwIP/src/core/netif.c ****   }
 386:Middlewares/Third_Party/LwIP/src/core/netif.c **** 
 387:Middlewares/Third_Party/LwIP/src/core/netif.c **** #if LWIP_IPV4
 388:Middlewares/Third_Party/LwIP/src/core/netif.c ****   if (!ip4_addr_isany_val(*netif_ip4_addr(netif))) {
 389:Middlewares/Third_Party/LwIP/src/core/netif.c **** #if LWIP_TCP
 390:Middlewares/Third_Party/LwIP/src/core/netif.c ****     tcp_netif_ip_addr_changed(netif_ip_addr4(netif), NULL);
 391:Middlewares/Third_Party/LwIP/src/core/netif.c **** #endif /* LWIP_TCP */
 392:Middlewares/Third_Party/LwIP/src/core/netif.c **** #if LWIP_UDP
 393:Middlewares/Third_Party/LwIP/src/core/netif.c ****     udp_netif_ip_addr_changed(netif_ip_addr4(netif), NULL);
 394:Middlewares/Third_Party/LwIP/src/core/netif.c **** #endif /* LWIP_UDP */
 395:Middlewares/Third_Party/LwIP/src/core/netif.c **** #if LWIP_RAW
 396:Middlewares/Third_Party/LwIP/src/core/netif.c ****     raw_netif_ip_addr_changed(netif_ip_addr4(netif), NULL);
 397:Middlewares/Third_Party/LwIP/src/core/netif.c **** #endif /* LWIP_RAW */
 398:Middlewares/Third_Party/LwIP/src/core/netif.c ****   }
 399:Middlewares/Third_Party/LwIP/src/core/netif.c **** 
 400:Middlewares/Third_Party/LwIP/src/core/netif.c **** #if LWIP_IGMP
 401:Middlewares/Third_Party/LwIP/src/core/netif.c ****   /* stop IGMP processing */
 402:Middlewares/Third_Party/LwIP/src/core/netif.c ****   if (netif->flags & NETIF_FLAG_IGMP) {
 403:Middlewares/Third_Party/LwIP/src/core/netif.c ****     igmp_stop(netif);
 404:Middlewares/Third_Party/LwIP/src/core/netif.c ****   }
 405:Middlewares/Third_Party/LwIP/src/core/netif.c **** #endif /* LWIP_IGMP */
 406:Middlewares/Third_Party/LwIP/src/core/netif.c **** #endif /* LWIP_IPV4*/
 407:Middlewares/Third_Party/LwIP/src/core/netif.c **** 
 408:Middlewares/Third_Party/LwIP/src/core/netif.c **** #if LWIP_IPV6
 409:Middlewares/Third_Party/LwIP/src/core/netif.c ****   for (i = 0; i < LWIP_IPV6_NUM_ADDRESSES; i++) {
 410:Middlewares/Third_Party/LwIP/src/core/netif.c ****     if (ip6_addr_isvalid(netif_ip6_addr_state(netif, i))) {
 411:Middlewares/Third_Party/LwIP/src/core/netif.c **** #if LWIP_TCP
 412:Middlewares/Third_Party/LwIP/src/core/netif.c ****       tcp_netif_ip_addr_changed(netif_ip_addr6(netif, i), NULL);
 413:Middlewares/Third_Party/LwIP/src/core/netif.c **** #endif /* LWIP_TCP */
 414:Middlewares/Third_Party/LwIP/src/core/netif.c **** #if LWIP_UDP
 415:Middlewares/Third_Party/LwIP/src/core/netif.c ****       udp_netif_ip_addr_changed(netif_ip_addr6(netif, i), NULL);
 416:Middlewares/Third_Party/LwIP/src/core/netif.c **** #endif /* LWIP_UDP */
 417:Middlewares/Third_Party/LwIP/src/core/netif.c **** #if LWIP_RAW
 418:Middlewares/Third_Party/LwIP/src/core/netif.c ****       raw_netif_ip_addr_changed(netif_ip_addr6(netif, i), NULL);
 419:Middlewares/Third_Party/LwIP/src/core/netif.c **** #endif /* LWIP_RAW */
 420:Middlewares/Third_Party/LwIP/src/core/netif.c ****     }
 421:Middlewares/Third_Party/LwIP/src/core/netif.c ****   }
 422:Middlewares/Third_Party/LwIP/src/core/netif.c **** #if LWIP_IPV6_MLD
 423:Middlewares/Third_Party/LwIP/src/core/netif.c ****   /* stop MLD processing */
 424:Middlewares/Third_Party/LwIP/src/core/netif.c ****   mld6_stop(netif);
 425:Middlewares/Third_Party/LwIP/src/core/netif.c **** #endif /* LWIP_IPV6_MLD */
 426:Middlewares/Third_Party/LwIP/src/core/netif.c **** #endif /* LWIP_IPV6 */
 427:Middlewares/Third_Party/LwIP/src/core/netif.c ****   if (netif_is_up(netif)) {
 428:Middlewares/Third_Party/LwIP/src/core/netif.c ****     /* set netif down before removing (call callback function) */
 429:Middlewares/Third_Party/LwIP/src/core/netif.c ****     netif_set_down(netif);
 430:Middlewares/Third_Party/LwIP/src/core/netif.c ****   }
 431:Middlewares/Third_Party/LwIP/src/core/netif.c **** 
ARM GAS  C:\Users\Patryk\AppData\Local\Temp\ccWBdSKa.s 			page 9


 432:Middlewares/Third_Party/LwIP/src/core/netif.c ****   mib2_remove_ip4(netif);
 433:Middlewares/Third_Party/LwIP/src/core/netif.c **** 
 434:Middlewares/Third_Party/LwIP/src/core/netif.c ****   /* this netif is default? */
 435:Middlewares/Third_Party/LwIP/src/core/netif.c ****   if (netif_default == netif) {
 436:Middlewares/Third_Party/LwIP/src/core/netif.c ****     /* reset default netif */
 437:Middlewares/Third_Party/LwIP/src/core/netif.c ****     netif_set_default(NULL);
 438:Middlewares/Third_Party/LwIP/src/core/netif.c ****   }
 439:Middlewares/Third_Party/LwIP/src/core/netif.c ****   /*  is it the first netif? */
 440:Middlewares/Third_Party/LwIP/src/core/netif.c ****   if (netif_list == netif) {
 441:Middlewares/Third_Party/LwIP/src/core/netif.c ****     netif_list = netif->next;
 442:Middlewares/Third_Party/LwIP/src/core/netif.c ****   } else {
 443:Middlewares/Third_Party/LwIP/src/core/netif.c ****     /*  look for netif further down the list */
 444:Middlewares/Third_Party/LwIP/src/core/netif.c ****     struct netif * tmp_netif;
 445:Middlewares/Third_Party/LwIP/src/core/netif.c ****     for (tmp_netif = netif_list; tmp_netif != NULL; tmp_netif = tmp_netif->next) {
 446:Middlewares/Third_Party/LwIP/src/core/netif.c ****       if (tmp_netif->next == netif) {
 447:Middlewares/Third_Party/LwIP/src/core/netif.c ****         tmp_netif->next = netif->next;
 448:Middlewares/Third_Party/LwIP/src/core/netif.c ****         break;
 449:Middlewares/Third_Party/LwIP/src/core/netif.c ****       }
 450:Middlewares/Third_Party/LwIP/src/core/netif.c ****     }
 451:Middlewares/Third_Party/LwIP/src/core/netif.c ****     if (tmp_netif == NULL) {
 452:Middlewares/Third_Party/LwIP/src/core/netif.c ****       return; /* netif is not on the list */
 453:Middlewares/Third_Party/LwIP/src/core/netif.c ****     }
 454:Middlewares/Third_Party/LwIP/src/core/netif.c ****   }
 455:Middlewares/Third_Party/LwIP/src/core/netif.c ****   mib2_netif_removed(netif);
 456:Middlewares/Third_Party/LwIP/src/core/netif.c **** #if LWIP_NETIF_REMOVE_CALLBACK
 457:Middlewares/Third_Party/LwIP/src/core/netif.c ****   if (netif->remove_callback) {
 458:Middlewares/Third_Party/LwIP/src/core/netif.c ****     netif->remove_callback(netif);
 459:Middlewares/Third_Party/LwIP/src/core/netif.c ****   }
 460:Middlewares/Third_Party/LwIP/src/core/netif.c **** #endif /* LWIP_NETIF_REMOVE_CALLBACK */
 461:Middlewares/Third_Party/LwIP/src/core/netif.c ****   LWIP_DEBUGF( NETIF_DEBUG, ("netif_remove: removed netif\n") );
 462:Middlewares/Third_Party/LwIP/src/core/netif.c **** }
 463:Middlewares/Third_Party/LwIP/src/core/netif.c **** 
 464:Middlewares/Third_Party/LwIP/src/core/netif.c **** /**
 465:Middlewares/Third_Party/LwIP/src/core/netif.c ****  * @ingroup netif
 466:Middlewares/Third_Party/LwIP/src/core/netif.c ****  * Find a network interface by searching for its name
 467:Middlewares/Third_Party/LwIP/src/core/netif.c ****  *
 468:Middlewares/Third_Party/LwIP/src/core/netif.c ****  * @param name the name of the netif (like netif->name) plus concatenated number
 469:Middlewares/Third_Party/LwIP/src/core/netif.c ****  * in ascii representation (e.g. 'en0')
 470:Middlewares/Third_Party/LwIP/src/core/netif.c ****  */
 471:Middlewares/Third_Party/LwIP/src/core/netif.c **** struct netif *
 472:Middlewares/Third_Party/LwIP/src/core/netif.c **** netif_find(const char *name)
 473:Middlewares/Third_Party/LwIP/src/core/netif.c **** {
 474:Middlewares/Third_Party/LwIP/src/core/netif.c ****   struct netif *netif;
 475:Middlewares/Third_Party/LwIP/src/core/netif.c ****   u8_t num;
 476:Middlewares/Third_Party/LwIP/src/core/netif.c **** 
 477:Middlewares/Third_Party/LwIP/src/core/netif.c ****   if (name == NULL) {
 478:Middlewares/Third_Party/LwIP/src/core/netif.c ****     return NULL;
 479:Middlewares/Third_Party/LwIP/src/core/netif.c ****   }
 480:Middlewares/Third_Party/LwIP/src/core/netif.c **** 
 481:Middlewares/Third_Party/LwIP/src/core/netif.c ****   num = (u8_t)(name[2] - '0');
 482:Middlewares/Third_Party/LwIP/src/core/netif.c **** 
 483:Middlewares/Third_Party/LwIP/src/core/netif.c ****   for (netif = netif_list; netif != NULL; netif = netif->next) {
 484:Middlewares/Third_Party/LwIP/src/core/netif.c ****     if (num == netif->num &&
 485:Middlewares/Third_Party/LwIP/src/core/netif.c ****        name[0] == netif->name[0] &&
 486:Middlewares/Third_Party/LwIP/src/core/netif.c ****        name[1] == netif->name[1]) {
 487:Middlewares/Third_Party/LwIP/src/core/netif.c ****       LWIP_DEBUGF(NETIF_DEBUG, ("netif_find: found %c%c\n", name[0], name[1]));
 488:Middlewares/Third_Party/LwIP/src/core/netif.c ****       return netif;
ARM GAS  C:\Users\Patryk\AppData\Local\Temp\ccWBdSKa.s 			page 10


 489:Middlewares/Third_Party/LwIP/src/core/netif.c ****     }
 490:Middlewares/Third_Party/LwIP/src/core/netif.c ****   }
 491:Middlewares/Third_Party/LwIP/src/core/netif.c ****   LWIP_DEBUGF(NETIF_DEBUG, ("netif_find: didn't find %c%c\n", name[0], name[1]));
 492:Middlewares/Third_Party/LwIP/src/core/netif.c ****   return NULL;
 493:Middlewares/Third_Party/LwIP/src/core/netif.c **** }
 494:Middlewares/Third_Party/LwIP/src/core/netif.c **** 
 495:Middlewares/Third_Party/LwIP/src/core/netif.c **** #if LWIP_IPV4
 496:Middlewares/Third_Party/LwIP/src/core/netif.c **** /**
 497:Middlewares/Third_Party/LwIP/src/core/netif.c ****  * @ingroup netif_ip4
 498:Middlewares/Third_Party/LwIP/src/core/netif.c ****  * Change the IP address of a network interface
 499:Middlewares/Third_Party/LwIP/src/core/netif.c ****  *
 500:Middlewares/Third_Party/LwIP/src/core/netif.c ****  * @param netif the network interface to change
 501:Middlewares/Third_Party/LwIP/src/core/netif.c ****  * @param ipaddr the new IP address
 502:Middlewares/Third_Party/LwIP/src/core/netif.c ****  *
 503:Middlewares/Third_Party/LwIP/src/core/netif.c ****  * @note call netif_set_addr() if you also want to change netmask and
 504:Middlewares/Third_Party/LwIP/src/core/netif.c ****  * default gateway
 505:Middlewares/Third_Party/LwIP/src/core/netif.c ****  */
 506:Middlewares/Third_Party/LwIP/src/core/netif.c **** void
 507:Middlewares/Third_Party/LwIP/src/core/netif.c **** netif_set_ipaddr(struct netif *netif, const ip4_addr_t *ipaddr)
 508:Middlewares/Third_Party/LwIP/src/core/netif.c **** {
 509:Middlewares/Third_Party/LwIP/src/core/netif.c ****   ip_addr_t new_addr;
 510:Middlewares/Third_Party/LwIP/src/core/netif.c ****   *ip_2_ip4(&new_addr) = (ipaddr ? *ipaddr : *IP4_ADDR_ANY4);
 511:Middlewares/Third_Party/LwIP/src/core/netif.c ****   IP_SET_TYPE_VAL(new_addr, IPADDR_TYPE_V4);
 512:Middlewares/Third_Party/LwIP/src/core/netif.c **** 
 513:Middlewares/Third_Party/LwIP/src/core/netif.c ****   /* address is actually being changed? */
 514:Middlewares/Third_Party/LwIP/src/core/netif.c ****   if (ip4_addr_cmp(ip_2_ip4(&new_addr), netif_ip4_addr(netif)) == 0) {
 515:Middlewares/Third_Party/LwIP/src/core/netif.c ****     LWIP_DEBUGF(NETIF_DEBUG | LWIP_DBG_STATE, ("netif_set_ipaddr: netif address being changed\n"));
 516:Middlewares/Third_Party/LwIP/src/core/netif.c **** #if LWIP_TCP
 517:Middlewares/Third_Party/LwIP/src/core/netif.c ****     tcp_netif_ip_addr_changed(netif_ip_addr4(netif), &new_addr);
 518:Middlewares/Third_Party/LwIP/src/core/netif.c **** #endif /* LWIP_TCP */
 519:Middlewares/Third_Party/LwIP/src/core/netif.c **** #if LWIP_UDP
 520:Middlewares/Third_Party/LwIP/src/core/netif.c ****     udp_netif_ip_addr_changed(netif_ip_addr4(netif), &new_addr);
 521:Middlewares/Third_Party/LwIP/src/core/netif.c **** #endif /* LWIP_UDP */
 522:Middlewares/Third_Party/LwIP/src/core/netif.c **** #if LWIP_RAW
 523:Middlewares/Third_Party/LwIP/src/core/netif.c ****     raw_netif_ip_addr_changed(netif_ip_addr4(netif), &new_addr);
 524:Middlewares/Third_Party/LwIP/src/core/netif.c **** #endif /* LWIP_RAW */
 525:Middlewares/Third_Party/LwIP/src/core/netif.c **** 
 526:Middlewares/Third_Party/LwIP/src/core/netif.c ****     mib2_remove_ip4(netif);
 527:Middlewares/Third_Party/LwIP/src/core/netif.c ****     mib2_remove_route_ip4(0, netif);
 528:Middlewares/Third_Party/LwIP/src/core/netif.c ****     /* set new IP address to netif */
 529:Middlewares/Third_Party/LwIP/src/core/netif.c ****     ip4_addr_set(ip_2_ip4(&netif->ip_addr), ipaddr);
 530:Middlewares/Third_Party/LwIP/src/core/netif.c ****     IP_SET_TYPE_VAL(netif->ip_addr, IPADDR_TYPE_V4);
 531:Middlewares/Third_Party/LwIP/src/core/netif.c ****     mib2_add_ip4(netif);
 532:Middlewares/Third_Party/LwIP/src/core/netif.c ****     mib2_add_route_ip4(0, netif);
 533:Middlewares/Third_Party/LwIP/src/core/netif.c **** 
 534:Middlewares/Third_Party/LwIP/src/core/netif.c ****     netif_issue_reports(netif, NETIF_REPORT_TYPE_IPV4);
 535:Middlewares/Third_Party/LwIP/src/core/netif.c **** 
 536:Middlewares/Third_Party/LwIP/src/core/netif.c ****     NETIF_STATUS_CALLBACK(netif);
 537:Middlewares/Third_Party/LwIP/src/core/netif.c ****   }
 538:Middlewares/Third_Party/LwIP/src/core/netif.c **** 
 539:Middlewares/Third_Party/LwIP/src/core/netif.c ****   LWIP_DEBUGF(NETIF_DEBUG | LWIP_DBG_TRACE | LWIP_DBG_STATE, ("netif: IP address of interface %c%c 
 540:Middlewares/Third_Party/LwIP/src/core/netif.c ****     netif->name[0], netif->name[1],
 541:Middlewares/Third_Party/LwIP/src/core/netif.c ****     ip4_addr1_16(netif_ip4_addr(netif)),
 542:Middlewares/Third_Party/LwIP/src/core/netif.c ****     ip4_addr2_16(netif_ip4_addr(netif)),
 543:Middlewares/Third_Party/LwIP/src/core/netif.c ****     ip4_addr3_16(netif_ip4_addr(netif)),
 544:Middlewares/Third_Party/LwIP/src/core/netif.c ****     ip4_addr4_16(netif_ip4_addr(netif))));
 545:Middlewares/Third_Party/LwIP/src/core/netif.c **** }
ARM GAS  C:\Users\Patryk\AppData\Local\Temp\ccWBdSKa.s 			page 11


 546:Middlewares/Third_Party/LwIP/src/core/netif.c **** 
 547:Middlewares/Third_Party/LwIP/src/core/netif.c **** /**
 548:Middlewares/Third_Party/LwIP/src/core/netif.c ****  * @ingroup netif_ip4
 549:Middlewares/Third_Party/LwIP/src/core/netif.c ****  * Change the default gateway for a network interface
 550:Middlewares/Third_Party/LwIP/src/core/netif.c ****  *
 551:Middlewares/Third_Party/LwIP/src/core/netif.c ****  * @param netif the network interface to change
 552:Middlewares/Third_Party/LwIP/src/core/netif.c ****  * @param gw the new default gateway
 553:Middlewares/Third_Party/LwIP/src/core/netif.c ****  *
 554:Middlewares/Third_Party/LwIP/src/core/netif.c ****  * @note call netif_set_addr() if you also want to change ip address and netmask
 555:Middlewares/Third_Party/LwIP/src/core/netif.c ****  */
 556:Middlewares/Third_Party/LwIP/src/core/netif.c **** void
 557:Middlewares/Third_Party/LwIP/src/core/netif.c **** netif_set_gw(struct netif *netif, const ip4_addr_t *gw)
 558:Middlewares/Third_Party/LwIP/src/core/netif.c **** {
 559:Middlewares/Third_Party/LwIP/src/core/netif.c ****   ip4_addr_set(ip_2_ip4(&netif->gw), gw);
 560:Middlewares/Third_Party/LwIP/src/core/netif.c ****   IP_SET_TYPE_VAL(netif->gw, IPADDR_TYPE_V4);
 561:Middlewares/Third_Party/LwIP/src/core/netif.c ****   LWIP_DEBUGF(NETIF_DEBUG | LWIP_DBG_TRACE | LWIP_DBG_STATE, ("netif: GW address of interface %c%c 
 562:Middlewares/Third_Party/LwIP/src/core/netif.c ****     netif->name[0], netif->name[1],
 563:Middlewares/Third_Party/LwIP/src/core/netif.c ****     ip4_addr1_16(netif_ip4_gw(netif)),
 564:Middlewares/Third_Party/LwIP/src/core/netif.c ****     ip4_addr2_16(netif_ip4_gw(netif)),
 565:Middlewares/Third_Party/LwIP/src/core/netif.c ****     ip4_addr3_16(netif_ip4_gw(netif)),
 566:Middlewares/Third_Party/LwIP/src/core/netif.c ****     ip4_addr4_16(netif_ip4_gw(netif))));
 567:Middlewares/Third_Party/LwIP/src/core/netif.c **** }
 568:Middlewares/Third_Party/LwIP/src/core/netif.c **** 
 569:Middlewares/Third_Party/LwIP/src/core/netif.c **** /**
 570:Middlewares/Third_Party/LwIP/src/core/netif.c ****  * @ingroup netif_ip4
 571:Middlewares/Third_Party/LwIP/src/core/netif.c ****  * Change the netmask of a network interface
 572:Middlewares/Third_Party/LwIP/src/core/netif.c ****  *
 573:Middlewares/Third_Party/LwIP/src/core/netif.c ****  * @param netif the network interface to change
 574:Middlewares/Third_Party/LwIP/src/core/netif.c ****  * @param netmask the new netmask
 575:Middlewares/Third_Party/LwIP/src/core/netif.c ****  *
 576:Middlewares/Third_Party/LwIP/src/core/netif.c ****  * @note call netif_set_addr() if you also want to change ip address and
 577:Middlewares/Third_Party/LwIP/src/core/netif.c ****  * default gateway
 578:Middlewares/Third_Party/LwIP/src/core/netif.c ****  */
 579:Middlewares/Third_Party/LwIP/src/core/netif.c **** void
 580:Middlewares/Third_Party/LwIP/src/core/netif.c **** netif_set_netmask(struct netif *netif, const ip4_addr_t *netmask)
 581:Middlewares/Third_Party/LwIP/src/core/netif.c **** {
 582:Middlewares/Third_Party/LwIP/src/core/netif.c ****   mib2_remove_route_ip4(0, netif);
 583:Middlewares/Third_Party/LwIP/src/core/netif.c ****   /* set new netmask to netif */
 584:Middlewares/Third_Party/LwIP/src/core/netif.c ****   ip4_addr_set(ip_2_ip4(&netif->netmask), netmask);
 585:Middlewares/Third_Party/LwIP/src/core/netif.c ****   IP_SET_TYPE_VAL(netif->netmask, IPADDR_TYPE_V4);
 586:Middlewares/Third_Party/LwIP/src/core/netif.c ****   mib2_add_route_ip4(0, netif);
 587:Middlewares/Third_Party/LwIP/src/core/netif.c ****   LWIP_DEBUGF(NETIF_DEBUG | LWIP_DBG_TRACE | LWIP_DBG_STATE, ("netif: netmask of interface %c%c set
 588:Middlewares/Third_Party/LwIP/src/core/netif.c ****     netif->name[0], netif->name[1],
 589:Middlewares/Third_Party/LwIP/src/core/netif.c ****     ip4_addr1_16(netif_ip4_netmask(netif)),
 590:Middlewares/Third_Party/LwIP/src/core/netif.c ****     ip4_addr2_16(netif_ip4_netmask(netif)),
 591:Middlewares/Third_Party/LwIP/src/core/netif.c ****     ip4_addr3_16(netif_ip4_netmask(netif)),
 592:Middlewares/Third_Party/LwIP/src/core/netif.c ****     ip4_addr4_16(netif_ip4_netmask(netif))));
 593:Middlewares/Third_Party/LwIP/src/core/netif.c **** }
 594:Middlewares/Third_Party/LwIP/src/core/netif.c **** #endif /* LWIP_IPV4 */
 595:Middlewares/Third_Party/LwIP/src/core/netif.c **** 
 596:Middlewares/Third_Party/LwIP/src/core/netif.c **** /**
 597:Middlewares/Third_Party/LwIP/src/core/netif.c ****  * @ingroup netif
 598:Middlewares/Third_Party/LwIP/src/core/netif.c ****  * Set a network interface as the default network interface
 599:Middlewares/Third_Party/LwIP/src/core/netif.c ****  * (used to output all packets for which no specific route is found)
 600:Middlewares/Third_Party/LwIP/src/core/netif.c ****  *
 601:Middlewares/Third_Party/LwIP/src/core/netif.c ****  * @param netif the default network interface
 602:Middlewares/Third_Party/LwIP/src/core/netif.c ****  */
ARM GAS  C:\Users\Patryk\AppData\Local\Temp\ccWBdSKa.s 			page 12


 603:Middlewares/Third_Party/LwIP/src/core/netif.c **** void
 604:Middlewares/Third_Party/LwIP/src/core/netif.c **** netif_set_default(struct netif *netif)
 605:Middlewares/Third_Party/LwIP/src/core/netif.c **** {
 606:Middlewares/Third_Party/LwIP/src/core/netif.c ****   if (netif == NULL) {
 607:Middlewares/Third_Party/LwIP/src/core/netif.c ****     /* remove default route */
 608:Middlewares/Third_Party/LwIP/src/core/netif.c ****     mib2_remove_route_ip4(1, netif);
 609:Middlewares/Third_Party/LwIP/src/core/netif.c ****   } else {
 610:Middlewares/Third_Party/LwIP/src/core/netif.c ****     /* install default route */
 611:Middlewares/Third_Party/LwIP/src/core/netif.c ****     mib2_add_route_ip4(1, netif);
 612:Middlewares/Third_Party/LwIP/src/core/netif.c ****   }
 613:Middlewares/Third_Party/LwIP/src/core/netif.c ****   netif_default = netif;
 614:Middlewares/Third_Party/LwIP/src/core/netif.c ****   LWIP_DEBUGF(NETIF_DEBUG, ("netif: setting default interface %c%c\n",
 615:Middlewares/Third_Party/LwIP/src/core/netif.c ****            netif ? netif->name[0] : '\'', netif ? netif->name[1] : '\''));
 616:Middlewares/Third_Party/LwIP/src/core/netif.c **** }
 617:Middlewares/Third_Party/LwIP/src/core/netif.c **** 
 618:Middlewares/Third_Party/LwIP/src/core/netif.c **** /**
 619:Middlewares/Third_Party/LwIP/src/core/netif.c ****  * @ingroup netif
 620:Middlewares/Third_Party/LwIP/src/core/netif.c ****  * Bring an interface up, available for processing
 621:Middlewares/Third_Party/LwIP/src/core/netif.c ****  * traffic.
 622:Middlewares/Third_Party/LwIP/src/core/netif.c ****  */
 623:Middlewares/Third_Party/LwIP/src/core/netif.c **** void
 624:Middlewares/Third_Party/LwIP/src/core/netif.c **** netif_set_up(struct netif *netif)
 625:Middlewares/Third_Party/LwIP/src/core/netif.c **** {
 626:Middlewares/Third_Party/LwIP/src/core/netif.c ****   if (!(netif->flags & NETIF_FLAG_UP)) {
 627:Middlewares/Third_Party/LwIP/src/core/netif.c ****     netif->flags |= NETIF_FLAG_UP;
 628:Middlewares/Third_Party/LwIP/src/core/netif.c **** 
 629:Middlewares/Third_Party/LwIP/src/core/netif.c ****     MIB2_COPY_SYSUPTIME_TO(&netif->ts);
 630:Middlewares/Third_Party/LwIP/src/core/netif.c **** 
 631:Middlewares/Third_Party/LwIP/src/core/netif.c ****     NETIF_STATUS_CALLBACK(netif);
 632:Middlewares/Third_Party/LwIP/src/core/netif.c **** 
 633:Middlewares/Third_Party/LwIP/src/core/netif.c ****     if (netif->flags & NETIF_FLAG_LINK_UP) {
 634:Middlewares/Third_Party/LwIP/src/core/netif.c ****       netif_issue_reports(netif, NETIF_REPORT_TYPE_IPV4|NETIF_REPORT_TYPE_IPV6);
 635:Middlewares/Third_Party/LwIP/src/core/netif.c ****     }
 636:Middlewares/Third_Party/LwIP/src/core/netif.c ****   }
 637:Middlewares/Third_Party/LwIP/src/core/netif.c **** }
 638:Middlewares/Third_Party/LwIP/src/core/netif.c **** 
 639:Middlewares/Third_Party/LwIP/src/core/netif.c **** /** Send ARP/IGMP/MLD/RS events, e.g. on link-up/netif-up or addr-change
 640:Middlewares/Third_Party/LwIP/src/core/netif.c ****  */
 641:Middlewares/Third_Party/LwIP/src/core/netif.c **** static void
 642:Middlewares/Third_Party/LwIP/src/core/netif.c **** netif_issue_reports(struct netif* netif, u8_t report_type)
 643:Middlewares/Third_Party/LwIP/src/core/netif.c **** {
  27              		.loc 1 643 0
  28              		.cfi_startproc
  29              		@ args = 0, pretend = 0, frame = 0
  30              		@ frame_needed = 0, uses_anonymous_args = 0
  31              	.LVL0:
 644:Middlewares/Third_Party/LwIP/src/core/netif.c **** #if LWIP_IPV4
 645:Middlewares/Third_Party/LwIP/src/core/netif.c ****   if ((report_type & NETIF_REPORT_TYPE_IPV4) &&
  32              		.loc 1 645 0
  33 0000 11F0010F 		tst	r1, #1
  34 0004 0CD0     		beq	.L4
 643:Middlewares/Third_Party/LwIP/src/core/netif.c **** #if LWIP_IPV4
  35              		.loc 1 643 0 discriminator 1
  36 0006 08B5     		push	{r3, lr}
  37              	.LCFI0:
  38              		.cfi_def_cfa_offset 8
  39              		.cfi_offset 3, -8
ARM GAS  C:\Users\Patryk\AppData\Local\Temp\ccWBdSKa.s 			page 13


  40              		.cfi_offset 14, -4
 646:Middlewares/Third_Party/LwIP/src/core/netif.c ****       !ip4_addr_isany_val(*netif_ip4_addr(netif))) {
  41              		.loc 1 646 0 discriminator 1
  42 0008 4368     		ldr	r3, [r0, #4]
 645:Middlewares/Third_Party/LwIP/src/core/netif.c ****       !ip4_addr_isany_val(*netif_ip4_addr(netif))) {
  43              		.loc 1 645 0 discriminator 1
  44 000a 23B1     		cbz	r3, .L1
 647:Middlewares/Third_Party/LwIP/src/core/netif.c **** #if LWIP_ARP
 648:Middlewares/Third_Party/LwIP/src/core/netif.c ****     /* For Ethernet network interfaces, we would like to send a "gratuitous ARP" */
 649:Middlewares/Third_Party/LwIP/src/core/netif.c ****     if (netif->flags & (NETIF_FLAG_ETHARP)) {
  45              		.loc 1 649 0
  46 000c 90F82F30 		ldrb	r3, [r0, #47]	@ zero_extendqisi2
  47 0010 13F0080F 		tst	r3, #8
  48 0014 00D1     		bne	.L7
  49              	.LVL1:
  50              	.L1:
 650:Middlewares/Third_Party/LwIP/src/core/netif.c ****       etharp_gratuitous(netif);
 651:Middlewares/Third_Party/LwIP/src/core/netif.c ****     }
 652:Middlewares/Third_Party/LwIP/src/core/netif.c **** #endif /* LWIP_ARP */
 653:Middlewares/Third_Party/LwIP/src/core/netif.c **** 
 654:Middlewares/Third_Party/LwIP/src/core/netif.c **** #if LWIP_IGMP
 655:Middlewares/Third_Party/LwIP/src/core/netif.c ****     /* resend IGMP memberships */
 656:Middlewares/Third_Party/LwIP/src/core/netif.c ****     if (netif->flags & NETIF_FLAG_IGMP) {
 657:Middlewares/Third_Party/LwIP/src/core/netif.c ****       igmp_report_groups(netif);
 658:Middlewares/Third_Party/LwIP/src/core/netif.c ****     }
 659:Middlewares/Third_Party/LwIP/src/core/netif.c **** #endif /* LWIP_IGMP */
 660:Middlewares/Third_Party/LwIP/src/core/netif.c ****   }
 661:Middlewares/Third_Party/LwIP/src/core/netif.c **** #endif /* LWIP_IPV4 */
 662:Middlewares/Third_Party/LwIP/src/core/netif.c **** 
 663:Middlewares/Third_Party/LwIP/src/core/netif.c **** #if LWIP_IPV6
 664:Middlewares/Third_Party/LwIP/src/core/netif.c ****   if (report_type & NETIF_REPORT_TYPE_IPV6) {
 665:Middlewares/Third_Party/LwIP/src/core/netif.c **** #if LWIP_IPV6_MLD
 666:Middlewares/Third_Party/LwIP/src/core/netif.c ****     /* send mld memberships */
 667:Middlewares/Third_Party/LwIP/src/core/netif.c ****     mld6_report_groups(netif);
 668:Middlewares/Third_Party/LwIP/src/core/netif.c **** #endif /* LWIP_IPV6_MLD */
 669:Middlewares/Third_Party/LwIP/src/core/netif.c **** #if LWIP_IPV6_SEND_ROUTER_SOLICIT
 670:Middlewares/Third_Party/LwIP/src/core/netif.c ****     /* Send Router Solicitation messages. */
 671:Middlewares/Third_Party/LwIP/src/core/netif.c ****     netif->rs_count = LWIP_ND6_MAX_MULTICAST_SOLICIT;
 672:Middlewares/Third_Party/LwIP/src/core/netif.c **** #endif /* LWIP_IPV6_SEND_ROUTER_SOLICIT */
 673:Middlewares/Third_Party/LwIP/src/core/netif.c ****   }
 674:Middlewares/Third_Party/LwIP/src/core/netif.c **** #endif /* LWIP_IPV6 */
 675:Middlewares/Third_Party/LwIP/src/core/netif.c **** }
  51              		.loc 1 675 0
  52 0016 08BD     		pop	{r3, pc}
  53              	.LVL2:
  54              	.L7:
 650:Middlewares/Third_Party/LwIP/src/core/netif.c ****       etharp_gratuitous(netif);
  55              		.loc 1 650 0
  56 0018 011D     		adds	r1, r0, #4
  57              	.LVL3:
  58 001a FFF7FEFF 		bl	etharp_request
  59              	.LVL4:
  60              		.loc 1 675 0
  61 001e FAE7     		b	.L1
  62              	.LVL5:
  63              	.L4:
  64              	.LCFI1:
ARM GAS  C:\Users\Patryk\AppData\Local\Temp\ccWBdSKa.s 			page 14


  65              		.cfi_def_cfa_offset 0
  66              		.cfi_restore 3
  67              		.cfi_restore 14
  68 0020 7047     		bx	lr
  69              		.cfi_endproc
  70              	.LFE170:
  72              		.section	.text.netif_init,"ax",%progbits
  73              		.align	1
  74              		.global	netif_init
  75              		.syntax unified
  76              		.thumb
  77              		.thumb_func
  78              		.fpu fpv5-sp-d16
  80              	netif_init:
  81              	.LFB159:
 164:Middlewares/Third_Party/LwIP/src/core/netif.c **** #if LWIP_HAVE_LOOPIF
  82              		.loc 1 164 0
  83              		.cfi_startproc
  84              		@ args = 0, pretend = 0, frame = 0
  85              		@ frame_needed = 0, uses_anonymous_args = 0
  86              		@ link register save eliminated.
 191:Middlewares/Third_Party/LwIP/src/core/netif.c **** 
  87              		.loc 1 191 0
  88 0000 7047     		bx	lr
  89              		.cfi_endproc
  90              	.LFE159:
  92              		.section	.text.netif_input,"ax",%progbits
  93              		.align	1
  94              		.global	netif_input
  95              		.syntax unified
  96              		.thumb
  97              		.thumb_func
  98              		.fpu fpv5-sp-d16
 100              	netif_input:
 101              	.LFB160:
 204:Middlewares/Third_Party/LwIP/src/core/netif.c **** #if LWIP_ETHERNET
 102              		.loc 1 204 0
 103              		.cfi_startproc
 104              		@ args = 0, pretend = 0, frame = 0
 105              		@ frame_needed = 0, uses_anonymous_args = 0
 106              	.LVL6:
 107 0000 08B5     		push	{r3, lr}
 108              	.LCFI2:
 109              		.cfi_def_cfa_offset 8
 110              		.cfi_offset 3, -8
 111              		.cfi_offset 14, -4
 206:Middlewares/Third_Party/LwIP/src/core/netif.c ****     return ethernet_input(p, inp);
 112              		.loc 1 206 0
 113 0002 91F82F30 		ldrb	r3, [r1, #47]	@ zero_extendqisi2
 114 0006 13F0180F 		tst	r3, #24
 115 000a 02D1     		bne	.L13
 210:Middlewares/Third_Party/LwIP/src/core/netif.c **** }
 116              		.loc 1 210 0
 117 000c FFF7FEFF 		bl	ip4_input
 118              	.LVL7:
 119              	.L11:
 211:Middlewares/Third_Party/LwIP/src/core/netif.c **** 
ARM GAS  C:\Users\Patryk\AppData\Local\Temp\ccWBdSKa.s 			page 15


 120              		.loc 1 211 0
 121 0010 08BD     		pop	{r3, pc}
 122              	.LVL8:
 123              	.L13:
 207:Middlewares/Third_Party/LwIP/src/core/netif.c ****   } else
 124              		.loc 1 207 0
 125 0012 FFF7FEFF 		bl	ethernet_input
 126              	.LVL9:
 127 0016 FBE7     		b	.L11
 128              		.cfi_endproc
 129              	.LFE160:
 131              		.section	.text.netif_find,"ax",%progbits
 132              		.align	1
 133              		.global	netif_find
 134              		.syntax unified
 135              		.thumb
 136              		.thumb_func
 137              		.fpu fpv5-sp-d16
 139              	netif_find:
 140              	.LFB164:
 473:Middlewares/Third_Party/LwIP/src/core/netif.c ****   struct netif *netif;
 141              		.loc 1 473 0
 142              		.cfi_startproc
 143              		@ args = 0, pretend = 0, frame = 0
 144              		@ frame_needed = 0, uses_anonymous_args = 0
 145              		@ link register save eliminated.
 146              	.LVL10:
 477:Middlewares/Third_Party/LwIP/src/core/netif.c ****     return NULL;
 147              		.loc 1 477 0
 148 0000 D0B1     		cbz	r0, .L19
 473:Middlewares/Third_Party/LwIP/src/core/netif.c ****   struct netif *netif;
 149              		.loc 1 473 0
 150 0002 10B4     		push	{r4}
 151              	.LCFI3:
 152              		.cfi_def_cfa_offset 4
 153              		.cfi_offset 4, -4
 154 0004 0446     		mov	r4, r0
 481:Middlewares/Third_Party/LwIP/src/core/netif.c **** 
 155              		.loc 1 481 0
 156 0006 8278     		ldrb	r2, [r0, #2]	@ zero_extendqisi2
 157 0008 303A     		subs	r2, r2, #48
 158 000a D2B2     		uxtb	r2, r2
 159              	.LVL11:
 483:Middlewares/Third_Party/LwIP/src/core/netif.c ****     if (num == netif->num &&
 160              		.loc 1 483 0
 161 000c 0B4B     		ldr	r3, .L24
 162 000e 1868     		ldr	r0, [r3]
 163              	.LVL12:
 164 0010 00E0     		b	.L16
 165              	.L17:
 483:Middlewares/Third_Party/LwIP/src/core/netif.c ****     if (num == netif->num &&
 166              		.loc 1 483 0 is_stmt 0 discriminator 2
 167 0012 0068     		ldr	r0, [r0]
 168              	.LVL13:
 169              	.L16:
 483:Middlewares/Third_Party/LwIP/src/core/netif.c ****     if (num == netif->num &&
 170              		.loc 1 483 0 discriminator 1
ARM GAS  C:\Users\Patryk\AppData\Local\Temp\ccWBdSKa.s 			page 16


 171 0014 68B1     		cbz	r0, .L14
 484:Middlewares/Third_Party/LwIP/src/core/netif.c ****        name[0] == netif->name[0] &&
 172              		.loc 1 484 0 is_stmt 1
 173 0016 90F83230 		ldrb	r3, [r0, #50]	@ zero_extendqisi2
 174 001a 9342     		cmp	r3, r2
 175 001c F9D1     		bne	.L17
 485:Middlewares/Third_Party/LwIP/src/core/netif.c ****        name[1] == netif->name[1]) {
 176              		.loc 1 485 0 discriminator 1
 177 001e 2178     		ldrb	r1, [r4]	@ zero_extendqisi2
 178 0020 90F83030 		ldrb	r3, [r0, #48]	@ zero_extendqisi2
 484:Middlewares/Third_Party/LwIP/src/core/netif.c ****        name[0] == netif->name[0] &&
 179              		.loc 1 484 0 discriminator 1
 180 0024 9942     		cmp	r1, r3
 181 0026 F4D1     		bne	.L17
 486:Middlewares/Third_Party/LwIP/src/core/netif.c ****       LWIP_DEBUGF(NETIF_DEBUG, ("netif_find: found %c%c\n", name[0], name[1]));
 182              		.loc 1 486 0
 183 0028 6178     		ldrb	r1, [r4, #1]	@ zero_extendqisi2
 184 002a 90F83130 		ldrb	r3, [r0, #49]	@ zero_extendqisi2
 485:Middlewares/Third_Party/LwIP/src/core/netif.c ****        name[1] == netif->name[1]) {
 185              		.loc 1 485 0
 186 002e 9942     		cmp	r1, r3
 187 0030 EFD1     		bne	.L17
 188              	.L14:
 493:Middlewares/Third_Party/LwIP/src/core/netif.c **** 
 189              		.loc 1 493 0
 190 0032 5DF8044B 		ldr	r4, [sp], #4
 191              	.LCFI4:
 192              		.cfi_restore 4
 193              		.cfi_def_cfa_offset 0
 194              	.LVL14:
 195 0036 7047     		bx	lr
 196              	.LVL15:
 197              	.L19:
 478:Middlewares/Third_Party/LwIP/src/core/netif.c ****   }
 198              		.loc 1 478 0
 199 0038 0020     		movs	r0, #0
 200              	.LVL16:
 493:Middlewares/Third_Party/LwIP/src/core/netif.c **** 
 201              		.loc 1 493 0
 202 003a 7047     		bx	lr
 203              	.L25:
 204              		.align	2
 205              	.L24:
 206 003c 00000000 		.word	netif_list
 207              		.cfi_endproc
 208              	.LFE164:
 210              		.section	.text.netif_set_ipaddr,"ax",%progbits
 211              		.align	1
 212              		.global	netif_set_ipaddr
 213              		.syntax unified
 214              		.thumb
 215              		.thumb_func
 216              		.fpu fpv5-sp-d16
 218              	netif_set_ipaddr:
 219              	.LFB165:
 508:Middlewares/Third_Party/LwIP/src/core/netif.c ****   ip_addr_t new_addr;
 220              		.loc 1 508 0
ARM GAS  C:\Users\Patryk\AppData\Local\Temp\ccWBdSKa.s 			page 17


 221              		.cfi_startproc
 222              		@ args = 0, pretend = 0, frame = 8
 223              		@ frame_needed = 0, uses_anonymous_args = 0
 224              	.LVL17:
 225 0000 70B5     		push	{r4, r5, r6, lr}
 226              	.LCFI5:
 227              		.cfi_def_cfa_offset 16
 228              		.cfi_offset 4, -16
 229              		.cfi_offset 5, -12
 230              		.cfi_offset 6, -8
 231              		.cfi_offset 14, -4
 232 0002 82B0     		sub	sp, sp, #8
 233              	.LCFI6:
 234              		.cfi_def_cfa_offset 24
 510:Middlewares/Third_Party/LwIP/src/core/netif.c ****   IP_SET_TYPE_VAL(new_addr, IPADDR_TYPE_V4);
 235              		.loc 1 510 0
 236 0004 0D46     		mov	r5, r1
 237 0006 C1B1     		cbz	r1, .L27
 510:Middlewares/Third_Party/LwIP/src/core/netif.c ****   IP_SET_TYPE_VAL(new_addr, IPADDR_TYPE_V4);
 238              		.loc 1 510 0 is_stmt 0 discriminator 1
 239 0008 0A68     		ldr	r2, [r1]
 240 000a 0192     		str	r2, [sp, #4]
 241              	.L28:
 514:Middlewares/Third_Party/LwIP/src/core/netif.c ****     LWIP_DEBUGF(NETIF_DEBUG | LWIP_DBG_STATE, ("netif_set_ipaddr: netif address being changed\n"));
 242              		.loc 1 514 0 is_stmt 1
 243 000c 4268     		ldr	r2, [r0, #4]
 244 000e 0199     		ldr	r1, [sp, #4]
 245              	.LVL18:
 246 0010 9142     		cmp	r1, r2
 247 0012 10D0     		beq	.L26
 248 0014 0446     		mov	r4, r0
 517:Middlewares/Third_Party/LwIP/src/core/netif.c **** #endif /* LWIP_TCP */
 249              		.loc 1 517 0
 250 0016 061D     		adds	r6, r0, #4
 251 0018 01A9     		add	r1, sp, #4
 252 001a 3046     		mov	r0, r6
 253              	.LVL19:
 254 001c FFF7FEFF 		bl	tcp_netif_ip_addr_changed
 255              	.LVL20:
 520:Middlewares/Third_Party/LwIP/src/core/netif.c **** #endif /* LWIP_UDP */
 256              		.loc 1 520 0
 257 0020 01A9     		add	r1, sp, #4
 258 0022 3046     		mov	r0, r6
 259 0024 FFF7FEFF 		bl	udp_netif_ip_addr_changed
 260              	.LVL21:
 529:Middlewares/Third_Party/LwIP/src/core/netif.c ****     IP_SET_TYPE_VAL(netif->ip_addr, IPADDR_TYPE_V4);
 261              		.loc 1 529 0
 262 0028 5DB1     		cbz	r5, .L31
 529:Middlewares/Third_Party/LwIP/src/core/netif.c ****     IP_SET_TYPE_VAL(netif->ip_addr, IPADDR_TYPE_V4);
 263              		.loc 1 529 0 is_stmt 0 discriminator 1
 264 002a 2B68     		ldr	r3, [r5]
 265              	.L30:
 529:Middlewares/Third_Party/LwIP/src/core/netif.c ****     IP_SET_TYPE_VAL(netif->ip_addr, IPADDR_TYPE_V4);
 266              		.loc 1 529 0 discriminator 4
 267 002c 6360     		str	r3, [r4, #4]
 534:Middlewares/Third_Party/LwIP/src/core/netif.c **** 
 268              		.loc 1 534 0 is_stmt 1 discriminator 4
ARM GAS  C:\Users\Patryk\AppData\Local\Temp\ccWBdSKa.s 			page 18


 269 002e 0121     		movs	r1, #1
 270 0030 2046     		mov	r0, r4
 271 0032 FFF7FEFF 		bl	netif_issue_reports
 272              	.LVL22:
 273              	.L26:
 545:Middlewares/Third_Party/LwIP/src/core/netif.c **** 
 274              		.loc 1 545 0
 275 0036 02B0     		add	sp, sp, #8
 276              	.LCFI7:
 277              		.cfi_remember_state
 278              		.cfi_def_cfa_offset 16
 279              		@ sp needed
 280 0038 70BD     		pop	{r4, r5, r6, pc}
 281              	.LVL23:
 282              	.L27:
 283              	.LCFI8:
 284              		.cfi_restore_state
 510:Middlewares/Third_Party/LwIP/src/core/netif.c ****   IP_SET_TYPE_VAL(new_addr, IPADDR_TYPE_V4);
 285              		.loc 1 510 0 discriminator 2
 286 003a 034A     		ldr	r2, .L33
 287 003c 1268     		ldr	r2, [r2]
 288 003e 0192     		str	r2, [sp, #4]
 289 0040 E4E7     		b	.L28
 290              	.LVL24:
 291              	.L31:
 529:Middlewares/Third_Party/LwIP/src/core/netif.c ****     IP_SET_TYPE_VAL(netif->ip_addr, IPADDR_TYPE_V4);
 292              		.loc 1 529 0
 293 0042 0023     		movs	r3, #0
 294 0044 F2E7     		b	.L30
 295              	.L34:
 296 0046 00BF     		.align	2
 297              	.L33:
 298 0048 00000000 		.word	ip_addr_any
 299              		.cfi_endproc
 300              	.LFE165:
 302              		.section	.text.netif_set_gw,"ax",%progbits
 303              		.align	1
 304              		.global	netif_set_gw
 305              		.syntax unified
 306              		.thumb
 307              		.thumb_func
 308              		.fpu fpv5-sp-d16
 310              	netif_set_gw:
 311              	.LFB166:
 558:Middlewares/Third_Party/LwIP/src/core/netif.c ****   ip4_addr_set(ip_2_ip4(&netif->gw), gw);
 312              		.loc 1 558 0
 313              		.cfi_startproc
 314              		@ args = 0, pretend = 0, frame = 0
 315              		@ frame_needed = 0, uses_anonymous_args = 0
 316              		@ link register save eliminated.
 317              	.LVL25:
 559:Middlewares/Third_Party/LwIP/src/core/netif.c ****   IP_SET_TYPE_VAL(netif->gw, IPADDR_TYPE_V4);
 318              		.loc 1 559 0
 319 0000 11B1     		cbz	r1, .L37
 559:Middlewares/Third_Party/LwIP/src/core/netif.c ****   IP_SET_TYPE_VAL(netif->gw, IPADDR_TYPE_V4);
 320              		.loc 1 559 0 is_stmt 0 discriminator 1
 321 0002 0B68     		ldr	r3, [r1]
ARM GAS  C:\Users\Patryk\AppData\Local\Temp\ccWBdSKa.s 			page 19


 322              	.L36:
 559:Middlewares/Third_Party/LwIP/src/core/netif.c ****   IP_SET_TYPE_VAL(netif->gw, IPADDR_TYPE_V4);
 323              		.loc 1 559 0 discriminator 4
 324 0004 C360     		str	r3, [r0, #12]
 567:Middlewares/Third_Party/LwIP/src/core/netif.c **** 
 325              		.loc 1 567 0 is_stmt 1 discriminator 4
 326 0006 7047     		bx	lr
 327              	.L37:
 559:Middlewares/Third_Party/LwIP/src/core/netif.c ****   IP_SET_TYPE_VAL(netif->gw, IPADDR_TYPE_V4);
 328              		.loc 1 559 0
 329 0008 0023     		movs	r3, #0
 330 000a FBE7     		b	.L36
 331              		.cfi_endproc
 332              	.LFE166:
 334              		.section	.text.netif_set_netmask,"ax",%progbits
 335              		.align	1
 336              		.global	netif_set_netmask
 337              		.syntax unified
 338              		.thumb
 339              		.thumb_func
 340              		.fpu fpv5-sp-d16
 342              	netif_set_netmask:
 343              	.LFB167:
 581:Middlewares/Third_Party/LwIP/src/core/netif.c ****   mib2_remove_route_ip4(0, netif);
 344              		.loc 1 581 0
 345              		.cfi_startproc
 346              		@ args = 0, pretend = 0, frame = 0
 347              		@ frame_needed = 0, uses_anonymous_args = 0
 348              		@ link register save eliminated.
 349              	.LVL26:
 584:Middlewares/Third_Party/LwIP/src/core/netif.c ****   IP_SET_TYPE_VAL(netif->netmask, IPADDR_TYPE_V4);
 350              		.loc 1 584 0
 351 0000 11B1     		cbz	r1, .L40
 584:Middlewares/Third_Party/LwIP/src/core/netif.c ****   IP_SET_TYPE_VAL(netif->netmask, IPADDR_TYPE_V4);
 352              		.loc 1 584 0 is_stmt 0 discriminator 1
 353 0002 0B68     		ldr	r3, [r1]
 354              	.L39:
 584:Middlewares/Third_Party/LwIP/src/core/netif.c ****   IP_SET_TYPE_VAL(netif->netmask, IPADDR_TYPE_V4);
 355              		.loc 1 584 0 discriminator 4
 356 0004 8360     		str	r3, [r0, #8]
 593:Middlewares/Third_Party/LwIP/src/core/netif.c **** #endif /* LWIP_IPV4 */
 357              		.loc 1 593 0 is_stmt 1 discriminator 4
 358 0006 7047     		bx	lr
 359              	.L40:
 584:Middlewares/Third_Party/LwIP/src/core/netif.c ****   IP_SET_TYPE_VAL(netif->netmask, IPADDR_TYPE_V4);
 360              		.loc 1 584 0
 361 0008 0023     		movs	r3, #0
 362 000a FBE7     		b	.L39
 363              		.cfi_endproc
 364              	.LFE167:
 366              		.section	.text.netif_set_addr,"ax",%progbits
 367              		.align	1
 368              		.global	netif_set_addr
 369              		.syntax unified
 370              		.thumb
 371              		.thumb_func
 372              		.fpu fpv5-sp-d16
ARM GAS  C:\Users\Patryk\AppData\Local\Temp\ccWBdSKa.s 			page 20


 374              	netif_set_addr:
 375              	.LFB162:
 354:Middlewares/Third_Party/LwIP/src/core/netif.c ****   if (ip4_addr_isany(ipaddr)) {
 376              		.loc 1 354 0
 377              		.cfi_startproc
 378              		@ args = 0, pretend = 0, frame = 0
 379              		@ frame_needed = 0, uses_anonymous_args = 0
 380              	.LVL27:
 381 0000 F8B5     		push	{r3, r4, r5, r6, r7, lr}
 382              	.LCFI9:
 383              		.cfi_def_cfa_offset 24
 384              		.cfi_offset 3, -24
 385              		.cfi_offset 4, -20
 386              		.cfi_offset 5, -16
 387              		.cfi_offset 6, -12
 388              		.cfi_offset 7, -8
 389              		.cfi_offset 14, -4
 390 0002 0446     		mov	r4, r0
 391 0004 1746     		mov	r7, r2
 392 0006 1E46     		mov	r6, r3
 355:Middlewares/Third_Party/LwIP/src/core/netif.c ****     /* when removing an address, we have to remove it *before* changing netmask/gw
 393              		.loc 1 355 0
 394 0008 0D46     		mov	r5, r1
 395 000a 09B1     		cbz	r1, .L42
 355:Middlewares/Third_Party/LwIP/src/core/netif.c ****     /* when removing an address, we have to remove it *before* changing netmask/gw
 396              		.loc 1 355 0 is_stmt 0 discriminator 1
 397 000c 0B68     		ldr	r3, [r1]
 398              	.LVL28:
 399 000e 63B9     		cbnz	r3, .L43
 400              	.L42:
 358:Middlewares/Third_Party/LwIP/src/core/netif.c ****     netif_set_netmask(netif, netmask);
 401              		.loc 1 358 0 is_stmt 1
 402 0010 2946     		mov	r1, r5
 403              	.LVL29:
 404 0012 2046     		mov	r0, r4
 405              	.LVL30:
 406 0014 FFF7FEFF 		bl	netif_set_ipaddr
 407              	.LVL31:
 359:Middlewares/Third_Party/LwIP/src/core/netif.c ****     netif_set_gw(netif, gw);
 408              		.loc 1 359 0
 409 0018 3946     		mov	r1, r7
 410 001a 2046     		mov	r0, r4
 411 001c FFF7FEFF 		bl	netif_set_netmask
 412              	.LVL32:
 360:Middlewares/Third_Party/LwIP/src/core/netif.c ****   } else {
 413              		.loc 1 360 0
 414 0020 3146     		mov	r1, r6
 415 0022 2046     		mov	r0, r4
 416 0024 FFF7FEFF 		bl	netif_set_gw
 417              	.LVL33:
 418              	.L41:
 367:Middlewares/Third_Party/LwIP/src/core/netif.c **** #endif /* LWIP_IPV4*/
 419              		.loc 1 367 0
 420 0028 F8BD     		pop	{r3, r4, r5, r6, r7, pc}
 421              	.LVL34:
 422              	.L43:
 362:Middlewares/Third_Party/LwIP/src/core/netif.c ****     netif_set_gw(netif, gw);
ARM GAS  C:\Users\Patryk\AppData\Local\Temp\ccWBdSKa.s 			page 21


 423              		.loc 1 362 0
 424 002a 1146     		mov	r1, r2
 425              	.LVL35:
 426 002c FFF7FEFF 		bl	netif_set_netmask
 427              	.LVL36:
 363:Middlewares/Third_Party/LwIP/src/core/netif.c ****     /* set ipaddr last to ensure netmask/gw have been set when status callback is called */
 428              		.loc 1 363 0
 429 0030 3146     		mov	r1, r6
 430 0032 2046     		mov	r0, r4
 431 0034 FFF7FEFF 		bl	netif_set_gw
 432              	.LVL37:
 365:Middlewares/Third_Party/LwIP/src/core/netif.c ****   }
 433              		.loc 1 365 0
 434 0038 2946     		mov	r1, r5
 435 003a 2046     		mov	r0, r4
 436 003c FFF7FEFF 		bl	netif_set_ipaddr
 437              	.LVL38:
 367:Middlewares/Third_Party/LwIP/src/core/netif.c **** #endif /* LWIP_IPV4*/
 438              		.loc 1 367 0
 439 0040 F2E7     		b	.L41
 440              		.cfi_endproc
 441              	.LFE162:
 443              		.section	.text.netif_add,"ax",%progbits
 444              		.align	1
 445              		.global	netif_add
 446              		.syntax unified
 447              		.thumb
 448              		.thumb_func
 449              		.fpu fpv5-sp-d16
 451              	netif_add:
 452              	.LFB161:
 246:Middlewares/Third_Party/LwIP/src/core/netif.c **** #if LWIP_IPV6
 453              		.loc 1 246 0
 454              		.cfi_startproc
 455              		@ args = 12, pretend = 0, frame = 0
 456              		@ frame_needed = 0, uses_anonymous_args = 0
 457              	.LVL39:
 458 0000 2DE9F041 		push	{r4, r5, r6, r7, r8, lr}
 459              	.LCFI10:
 460              		.cfi_def_cfa_offset 24
 461              		.cfi_offset 4, -24
 462              		.cfi_offset 5, -20
 463              		.cfi_offset 6, -16
 464              		.cfi_offset 7, -12
 465              		.cfi_offset 8, -8
 466              		.cfi_offset 14, -4
 467 0004 0446     		mov	r4, r0
 468 0006 0E46     		mov	r6, r1
 469 0008 1746     		mov	r7, r2
 470 000a 9846     		mov	r8, r3
 471 000c 079D     		ldr	r5, [sp, #28]
 251:Middlewares/Third_Party/LwIP/src/core/netif.c **** 
 472              		.loc 1 251 0
 473 000e 1DB3     		cbz	r5, .L51
 474              	.LVL40:
 475              	.L47:
 255:Middlewares/Third_Party/LwIP/src/core/netif.c ****   ip_addr_set_zero_ip4(&netif->netmask);
ARM GAS  C:\Users\Patryk\AppData\Local\Temp\ccWBdSKa.s 			page 22


 476              		.loc 1 255 0
 477 0010 0023     		movs	r3, #0
 478 0012 6360     		str	r3, [r4, #4]
 256:Middlewares/Third_Party/LwIP/src/core/netif.c ****   ip_addr_set_zero_ip4(&netif->gw);
 479              		.loc 1 256 0
 480 0014 A360     		str	r3, [r4, #8]
 257:Middlewares/Third_Party/LwIP/src/core/netif.c **** #endif /* LWIP_IPV4 */
 481              		.loc 1 257 0
 482 0016 E360     		str	r3, [r4, #12]
 267:Middlewares/Third_Party/LwIP/src/core/netif.c **** #ifdef netif_get_client_data
 483              		.loc 1 267 0
 484 0018 84F82F30 		strb	r3, [r4, #47]
 269:Middlewares/Third_Party/LwIP/src/core/netif.c **** #endif /* LWIP_NUM_NETIF_CLIENT_DATA */
 485              		.loc 1 269 0
 486 001c 2362     		str	r3, [r4, #32]	@ unaligned
 276:Middlewares/Third_Party/LwIP/src/core/netif.c **** #endif /* LWIP_IPV6_SEND_ROUTER_SOLICIT */
 487              		.loc 1 276 0
 488 001e 0323     		movs	r3, #3
 489 0020 84F82430 		strb	r3, [r4, #36]
 296:Middlewares/Third_Party/LwIP/src/core/netif.c ****   netif->num = netif_num++;
 490              		.loc 1 296 0
 491 0024 069B     		ldr	r3, [sp, #24]
 492 0026 E361     		str	r3, [r4, #28]
 297:Middlewares/Third_Party/LwIP/src/core/netif.c ****   netif->input = input;
 493              		.loc 1 297 0
 494 0028 104A     		ldr	r2, .L52
 495 002a 1378     		ldrb	r3, [r2]	@ zero_extendqisi2
 496 002c 591C     		adds	r1, r3, #1
 497 002e 1170     		strb	r1, [r2]
 498 0030 84F83230 		strb	r3, [r4, #50]
 298:Middlewares/Third_Party/LwIP/src/core/netif.c **** 
 499              		.loc 1 298 0
 500 0034 089B     		ldr	r3, [sp, #32]
 501 0036 2361     		str	r3, [r4, #16]
 306:Middlewares/Third_Party/LwIP/src/core/netif.c **** #endif /* LWIP_IPV4 */
 502              		.loc 1 306 0
 503 0038 4346     		mov	r3, r8
 504 003a 3A46     		mov	r2, r7
 505 003c 3146     		mov	r1, r6
 506 003e 2046     		mov	r0, r4
 507 0040 FFF7FEFF 		bl	netif_set_addr
 508              	.LVL41:
 310:Middlewares/Third_Party/LwIP/src/core/netif.c ****     return NULL;
 509              		.loc 1 310 0
 510 0044 2046     		mov	r0, r4
 511 0046 A847     		blx	r5
 512              	.LVL42:
 513 0048 68B9     		cbnz	r0, .L49
 315:Middlewares/Third_Party/LwIP/src/core/netif.c ****   netif_list = netif;
 514              		.loc 1 315 0
 515 004a 094B     		ldr	r3, .L52+4
 516 004c 1A68     		ldr	r2, [r3]
 517 004e 2260     		str	r2, [r4]
 316:Middlewares/Third_Party/LwIP/src/core/netif.c ****   mib2_netif_added(netif);
 518              		.loc 1 316 0
 519 0050 1C60     		str	r4, [r3]
 337:Middlewares/Third_Party/LwIP/src/core/netif.c **** }
ARM GAS  C:\Users\Patryk\AppData\Local\Temp\ccWBdSKa.s 			page 23


 520              		.loc 1 337 0
 521 0052 2046     		mov	r0, r4
 522              	.L46:
 338:Middlewares/Third_Party/LwIP/src/core/netif.c **** 
 523              		.loc 1 338 0
 524 0054 BDE8F081 		pop	{r4, r5, r6, r7, r8, pc}
 525              	.LVL43:
 526              	.L51:
 251:Middlewares/Third_Party/LwIP/src/core/netif.c **** 
 527              		.loc 1 251 0 discriminator 1
 528 0058 064B     		ldr	r3, .L52+8
 529              	.LVL44:
 530 005a FB22     		movs	r2, #251
 531              	.LVL45:
 532 005c 0649     		ldr	r1, .L52+12
 533              	.LVL46:
 534 005e 0748     		ldr	r0, .L52+16
 535              	.LVL47:
 536 0060 FFF7FEFF 		bl	printf
 537              	.LVL48:
 538 0064 D4E7     		b	.L47
 539              	.L49:
 311:Middlewares/Third_Party/LwIP/src/core/netif.c ****   }
 540              		.loc 1 311 0
 541 0066 0020     		movs	r0, #0
 542 0068 F4E7     		b	.L46
 543              	.L53:
 544 006a 00BF     		.align	2
 545              	.L52:
 546 006c 00000000 		.word	.LANCHOR0
 547 0070 00000000 		.word	netif_list
 548 0074 00000000 		.word	.LC0
 549 0078 30000000 		.word	.LC1
 550 007c 48000000 		.word	.LC2
 551              		.cfi_endproc
 552              	.LFE161:
 554              		.section	.text.netif_set_default,"ax",%progbits
 555              		.align	1
 556              		.global	netif_set_default
 557              		.syntax unified
 558              		.thumb
 559              		.thumb_func
 560              		.fpu fpv5-sp-d16
 562              	netif_set_default:
 563              	.LFB168:
 605:Middlewares/Third_Party/LwIP/src/core/netif.c ****   if (netif == NULL) {
 564              		.loc 1 605 0
 565              		.cfi_startproc
 566              		@ args = 0, pretend = 0, frame = 0
 567              		@ frame_needed = 0, uses_anonymous_args = 0
 568              		@ link register save eliminated.
 569              	.LVL49:
 613:Middlewares/Third_Party/LwIP/src/core/netif.c ****   LWIP_DEBUGF(NETIF_DEBUG, ("netif: setting default interface %c%c\n",
 570              		.loc 1 613 0
 571 0000 014B     		ldr	r3, .L55
 572 0002 1860     		str	r0, [r3]
 616:Middlewares/Third_Party/LwIP/src/core/netif.c **** 
ARM GAS  C:\Users\Patryk\AppData\Local\Temp\ccWBdSKa.s 			page 24


 573              		.loc 1 616 0
 574 0004 7047     		bx	lr
 575              	.L56:
 576 0006 00BF     		.align	2
 577              	.L55:
 578 0008 00000000 		.word	netif_default
 579              		.cfi_endproc
 580              	.LFE168:
 582              		.section	.text.netif_set_up,"ax",%progbits
 583              		.align	1
 584              		.global	netif_set_up
 585              		.syntax unified
 586              		.thumb
 587              		.thumb_func
 588              		.fpu fpv5-sp-d16
 590              	netif_set_up:
 591              	.LFB169:
 625:Middlewares/Third_Party/LwIP/src/core/netif.c ****   if (!(netif->flags & NETIF_FLAG_UP)) {
 592              		.loc 1 625 0
 593              		.cfi_startproc
 594              		@ args = 0, pretend = 0, frame = 0
 595              		@ frame_needed = 0, uses_anonymous_args = 0
 596              	.LVL50:
 597 0000 08B5     		push	{r3, lr}
 598              	.LCFI11:
 599              		.cfi_def_cfa_offset 8
 600              		.cfi_offset 3, -8
 601              		.cfi_offset 14, -4
 626:Middlewares/Third_Party/LwIP/src/core/netif.c ****     netif->flags |= NETIF_FLAG_UP;
 602              		.loc 1 626 0
 603 0002 90F82F30 		ldrb	r3, [r0, #47]	@ zero_extendqisi2
 604 0006 13F0010F 		tst	r3, #1
 605 000a 06D1     		bne	.L57
 627:Middlewares/Third_Party/LwIP/src/core/netif.c **** 
 606              		.loc 1 627 0
 607 000c 43F00103 		orr	r3, r3, #1
 608 0010 80F82F30 		strb	r3, [r0, #47]
 633:Middlewares/Third_Party/LwIP/src/core/netif.c ****       netif_issue_reports(netif, NETIF_REPORT_TYPE_IPV4|NETIF_REPORT_TYPE_IPV6);
 609              		.loc 1 633 0
 610 0014 13F0040F 		tst	r3, #4
 611 0018 00D1     		bne	.L60
 612              	.LVL51:
 613              	.L57:
 637:Middlewares/Third_Party/LwIP/src/core/netif.c **** 
 614              		.loc 1 637 0
 615 001a 08BD     		pop	{r3, pc}
 616              	.LVL52:
 617              	.L60:
 634:Middlewares/Third_Party/LwIP/src/core/netif.c ****     }
 618              		.loc 1 634 0
 619 001c 0321     		movs	r1, #3
 620 001e FFF7FEFF 		bl	netif_issue_reports
 621              	.LVL53:
 637:Middlewares/Third_Party/LwIP/src/core/netif.c **** 
 622              		.loc 1 637 0
 623 0022 FAE7     		b	.L57
 624              		.cfi_endproc
ARM GAS  C:\Users\Patryk\AppData\Local\Temp\ccWBdSKa.s 			page 25


 625              	.LFE169:
 627              		.section	.text.netif_set_down,"ax",%progbits
 628              		.align	1
 629              		.global	netif_set_down
 630              		.syntax unified
 631              		.thumb
 632              		.thumb_func
 633              		.fpu fpv5-sp-d16
 635              	netif_set_down:
 636              	.LFB171:
 676:Middlewares/Third_Party/LwIP/src/core/netif.c **** 
 677:Middlewares/Third_Party/LwIP/src/core/netif.c **** /**
 678:Middlewares/Third_Party/LwIP/src/core/netif.c ****  * @ingroup netif
 679:Middlewares/Third_Party/LwIP/src/core/netif.c ****  * Bring an interface down, disabling any traffic processing.
 680:Middlewares/Third_Party/LwIP/src/core/netif.c ****  */
 681:Middlewares/Third_Party/LwIP/src/core/netif.c **** void
 682:Middlewares/Third_Party/LwIP/src/core/netif.c **** netif_set_down(struct netif *netif)
 683:Middlewares/Third_Party/LwIP/src/core/netif.c **** {
 637              		.loc 1 683 0
 638              		.cfi_startproc
 639              		@ args = 0, pretend = 0, frame = 0
 640              		@ frame_needed = 0, uses_anonymous_args = 0
 641              	.LVL54:
 642 0000 08B5     		push	{r3, lr}
 643              	.LCFI12:
 644              		.cfi_def_cfa_offset 8
 645              		.cfi_offset 3, -8
 646              		.cfi_offset 14, -4
 684:Middlewares/Third_Party/LwIP/src/core/netif.c ****   if (netif->flags & NETIF_FLAG_UP) {
 647              		.loc 1 684 0
 648 0002 90F82F30 		ldrb	r3, [r0, #47]	@ zero_extendqisi2
 649 0006 13F0010F 		tst	r3, #1
 650 000a 06D0     		beq	.L61
 685:Middlewares/Third_Party/LwIP/src/core/netif.c ****     netif->flags &= ~NETIF_FLAG_UP;
 651              		.loc 1 685 0
 652 000c 03F0FE03 		and	r3, r3, #254
 653 0010 80F82F30 		strb	r3, [r0, #47]
 686:Middlewares/Third_Party/LwIP/src/core/netif.c ****     MIB2_COPY_SYSUPTIME_TO(&netif->ts);
 687:Middlewares/Third_Party/LwIP/src/core/netif.c **** 
 688:Middlewares/Third_Party/LwIP/src/core/netif.c **** #if LWIP_IPV4 && LWIP_ARP
 689:Middlewares/Third_Party/LwIP/src/core/netif.c ****     if (netif->flags & NETIF_FLAG_ETHARP) {
 654              		.loc 1 689 0
 655 0014 13F0080F 		tst	r3, #8
 656 0018 00D1     		bne	.L64
 657              	.LVL55:
 658              	.L61:
 690:Middlewares/Third_Party/LwIP/src/core/netif.c ****       etharp_cleanup_netif(netif);
 691:Middlewares/Third_Party/LwIP/src/core/netif.c ****     }
 692:Middlewares/Third_Party/LwIP/src/core/netif.c **** #endif /* LWIP_IPV4 && LWIP_ARP */
 693:Middlewares/Third_Party/LwIP/src/core/netif.c **** 
 694:Middlewares/Third_Party/LwIP/src/core/netif.c **** #if LWIP_IPV6
 695:Middlewares/Third_Party/LwIP/src/core/netif.c ****     nd6_cleanup_netif(netif);
 696:Middlewares/Third_Party/LwIP/src/core/netif.c **** #endif /* LWIP_IPV6 */
 697:Middlewares/Third_Party/LwIP/src/core/netif.c **** 
 698:Middlewares/Third_Party/LwIP/src/core/netif.c ****     NETIF_STATUS_CALLBACK(netif);
 699:Middlewares/Third_Party/LwIP/src/core/netif.c ****   }
 700:Middlewares/Third_Party/LwIP/src/core/netif.c **** }
ARM GAS  C:\Users\Patryk\AppData\Local\Temp\ccWBdSKa.s 			page 26


 659              		.loc 1 700 0
 660 001a 08BD     		pop	{r3, pc}
 661              	.LVL56:
 662              	.L64:
 690:Middlewares/Third_Party/LwIP/src/core/netif.c ****       etharp_cleanup_netif(netif);
 663              		.loc 1 690 0
 664 001c FFF7FEFF 		bl	etharp_cleanup_netif
 665              	.LVL57:
 666              		.loc 1 700 0
 667 0020 FBE7     		b	.L61
 668              		.cfi_endproc
 669              	.LFE171:
 671              		.section	.text.netif_remove,"ax",%progbits
 672              		.align	1
 673              		.global	netif_remove
 674              		.syntax unified
 675              		.thumb
 676              		.thumb_func
 677              		.fpu fpv5-sp-d16
 679              	netif_remove:
 680              	.LFB163:
 378:Middlewares/Third_Party/LwIP/src/core/netif.c **** #if LWIP_IPV6
 681              		.loc 1 378 0
 682              		.cfi_startproc
 683              		@ args = 0, pretend = 0, frame = 0
 684              		@ frame_needed = 0, uses_anonymous_args = 0
 685              	.LVL58:
 383:Middlewares/Third_Party/LwIP/src/core/netif.c ****     return;
 686              		.loc 1 383 0
 687 0000 78B3     		cbz	r0, .L74
 378:Middlewares/Third_Party/LwIP/src/core/netif.c **** #if LWIP_IPV6
 688              		.loc 1 378 0
 689 0002 38B5     		push	{r3, r4, r5, lr}
 690              	.LCFI13:
 691              		.cfi_def_cfa_offset 16
 692              		.cfi_offset 3, -16
 693              		.cfi_offset 4, -12
 694              		.cfi_offset 5, -8
 695              		.cfi_offset 14, -4
 696 0004 0446     		mov	r4, r0
 388:Middlewares/Third_Party/LwIP/src/core/netif.c **** #if LWIP_TCP
 697              		.loc 1 388 0
 698 0006 4368     		ldr	r3, [r0, #4]
 699 0008 93B9     		cbnz	r3, .L77
 700              	.LVL59:
 701              	.L67:
 427:Middlewares/Third_Party/LwIP/src/core/netif.c ****     /* set netif down before removing (call callback function) */
 702              		.loc 1 427 0
 703 000a 94F82F30 		ldrb	r3, [r4, #47]	@ zero_extendqisi2
 704 000e 13F0010F 		tst	r3, #1
 705 0012 17D1     		bne	.L78
 706              	.L68:
 435:Middlewares/Third_Party/LwIP/src/core/netif.c ****     /* reset default netif */
 707              		.loc 1 435 0
 708 0014 134B     		ldr	r3, .L82
 709 0016 1B68     		ldr	r3, [r3]
 710 0018 A342     		cmp	r3, r4
ARM GAS  C:\Users\Patryk\AppData\Local\Temp\ccWBdSKa.s 			page 27


 711 001a 17D0     		beq	.L79
 712              	.L69:
 440:Middlewares/Third_Party/LwIP/src/core/netif.c ****     netif_list = netif->next;
 713              		.loc 1 440 0
 714 001c 124B     		ldr	r3, .L82+4
 715 001e 1B68     		ldr	r3, [r3]
 716 0020 A342     		cmp	r3, r4
 717 0022 17D0     		beq	.L80
 718              	.L70:
 719              	.LVL60:
 720              	.LBB2:
 445:Middlewares/Third_Party/LwIP/src/core/netif.c ****       if (tmp_netif->next == netif) {
 721              		.loc 1 445 0 discriminator 1
 722 0024 E3B1     		cbz	r3, .L65
 446:Middlewares/Third_Party/LwIP/src/core/netif.c ****         tmp_netif->next = netif->next;
 723              		.loc 1 446 0
 724 0026 1A68     		ldr	r2, [r3]
 725 0028 A242     		cmp	r2, r4
 726 002a 17D0     		beq	.L81
 445:Middlewares/Third_Party/LwIP/src/core/netif.c ****       if (tmp_netif->next == netif) {
 727              		.loc 1 445 0
 728 002c 1346     		mov	r3, r2
 729              	.LVL61:
 730 002e F9E7     		b	.L70
 731              	.LVL62:
 732              	.L77:
 733              	.LBE2:
 390:Middlewares/Third_Party/LwIP/src/core/netif.c **** #endif /* LWIP_TCP */
 734              		.loc 1 390 0
 735 0030 051D     		adds	r5, r0, #4
 736 0032 0021     		movs	r1, #0
 737 0034 2846     		mov	r0, r5
 738              	.LVL63:
 739 0036 FFF7FEFF 		bl	tcp_netif_ip_addr_changed
 740              	.LVL64:
 393:Middlewares/Third_Party/LwIP/src/core/netif.c **** #endif /* LWIP_UDP */
 741              		.loc 1 393 0
 742 003a 0021     		movs	r1, #0
 743 003c 2846     		mov	r0, r5
 744 003e FFF7FEFF 		bl	udp_netif_ip_addr_changed
 745              	.LVL65:
 746 0042 E2E7     		b	.L67
 747              	.L78:
 429:Middlewares/Third_Party/LwIP/src/core/netif.c ****   }
 748              		.loc 1 429 0
 749 0044 2046     		mov	r0, r4
 750 0046 FFF7FEFF 		bl	netif_set_down
 751              	.LVL66:
 752 004a E3E7     		b	.L68
 753              	.L79:
 437:Middlewares/Third_Party/LwIP/src/core/netif.c ****   }
 754              		.loc 1 437 0
 755 004c 0020     		movs	r0, #0
 756 004e FFF7FEFF 		bl	netif_set_default
 757              	.LVL67:
 758 0052 E3E7     		b	.L69
 759              	.L80:
ARM GAS  C:\Users\Patryk\AppData\Local\Temp\ccWBdSKa.s 			page 28


 441:Middlewares/Third_Party/LwIP/src/core/netif.c ****   } else {
 760              		.loc 1 441 0
 761 0054 2268     		ldr	r2, [r4]
 762 0056 044B     		ldr	r3, .L82+4
 763 0058 1A60     		str	r2, [r3]
 764 005a 01E0     		b	.L65
 765              	.LVL68:
 766              	.L81:
 767              	.LBB3:
 447:Middlewares/Third_Party/LwIP/src/core/netif.c ****         break;
 768              		.loc 1 447 0
 769 005c 2268     		ldr	r2, [r4]
 770 005e 1A60     		str	r2, [r3]
 771              	.LVL69:
 772              	.L65:
 773              	.LBE3:
 462:Middlewares/Third_Party/LwIP/src/core/netif.c **** 
 774              		.loc 1 462 0
 775 0060 38BD     		pop	{r3, r4, r5, pc}
 776              	.LVL70:
 777              	.L74:
 778              	.LCFI14:
 779              		.cfi_def_cfa_offset 0
 780              		.cfi_restore 3
 781              		.cfi_restore 4
 782              		.cfi_restore 5
 783              		.cfi_restore 14
 784 0062 7047     		bx	lr
 785              	.L83:
 786              		.align	2
 787              	.L82:
 788 0064 00000000 		.word	netif_default
 789 0068 00000000 		.word	netif_list
 790              		.cfi_endproc
 791              	.LFE163:
 793              		.section	.text.netif_set_link_up,"ax",%progbits
 794              		.align	1
 795              		.global	netif_set_link_up
 796              		.syntax unified
 797              		.thumb
 798              		.thumb_func
 799              		.fpu fpv5-sp-d16
 801              	netif_set_link_up:
 802              	.LFB172:
 701:Middlewares/Third_Party/LwIP/src/core/netif.c **** 
 702:Middlewares/Third_Party/LwIP/src/core/netif.c **** #if LWIP_NETIF_STATUS_CALLBACK
 703:Middlewares/Third_Party/LwIP/src/core/netif.c **** /**
 704:Middlewares/Third_Party/LwIP/src/core/netif.c ****  * @ingroup netif
 705:Middlewares/Third_Party/LwIP/src/core/netif.c ****  * Set callback to be called when interface is brought up/down or address is changed while up
 706:Middlewares/Third_Party/LwIP/src/core/netif.c ****  */
 707:Middlewares/Third_Party/LwIP/src/core/netif.c **** void
 708:Middlewares/Third_Party/LwIP/src/core/netif.c **** netif_set_status_callback(struct netif *netif, netif_status_callback_fn status_callback)
 709:Middlewares/Third_Party/LwIP/src/core/netif.c **** {
 710:Middlewares/Third_Party/LwIP/src/core/netif.c ****   if (netif) {
 711:Middlewares/Third_Party/LwIP/src/core/netif.c ****     netif->status_callback = status_callback;
 712:Middlewares/Third_Party/LwIP/src/core/netif.c ****   }
 713:Middlewares/Third_Party/LwIP/src/core/netif.c **** }
ARM GAS  C:\Users\Patryk\AppData\Local\Temp\ccWBdSKa.s 			page 29


 714:Middlewares/Third_Party/LwIP/src/core/netif.c **** #endif /* LWIP_NETIF_STATUS_CALLBACK */
 715:Middlewares/Third_Party/LwIP/src/core/netif.c **** 
 716:Middlewares/Third_Party/LwIP/src/core/netif.c **** #if LWIP_NETIF_REMOVE_CALLBACK
 717:Middlewares/Third_Party/LwIP/src/core/netif.c **** /**
 718:Middlewares/Third_Party/LwIP/src/core/netif.c ****  * @ingroup netif
 719:Middlewares/Third_Party/LwIP/src/core/netif.c ****  * Set callback to be called when the interface has been removed
 720:Middlewares/Third_Party/LwIP/src/core/netif.c ****  */
 721:Middlewares/Third_Party/LwIP/src/core/netif.c **** void
 722:Middlewares/Third_Party/LwIP/src/core/netif.c **** netif_set_remove_callback(struct netif *netif, netif_status_callback_fn remove_callback)
 723:Middlewares/Third_Party/LwIP/src/core/netif.c **** {
 724:Middlewares/Third_Party/LwIP/src/core/netif.c ****   if (netif) {
 725:Middlewares/Third_Party/LwIP/src/core/netif.c ****     netif->remove_callback = remove_callback;
 726:Middlewares/Third_Party/LwIP/src/core/netif.c ****   }
 727:Middlewares/Third_Party/LwIP/src/core/netif.c **** }
 728:Middlewares/Third_Party/LwIP/src/core/netif.c **** #endif /* LWIP_NETIF_REMOVE_CALLBACK */
 729:Middlewares/Third_Party/LwIP/src/core/netif.c **** 
 730:Middlewares/Third_Party/LwIP/src/core/netif.c **** /**
 731:Middlewares/Third_Party/LwIP/src/core/netif.c ****  * @ingroup netif
 732:Middlewares/Third_Party/LwIP/src/core/netif.c ****  * Called by a driver when its link goes up
 733:Middlewares/Third_Party/LwIP/src/core/netif.c ****  */
 734:Middlewares/Third_Party/LwIP/src/core/netif.c **** void
 735:Middlewares/Third_Party/LwIP/src/core/netif.c **** netif_set_link_up(struct netif *netif)
 736:Middlewares/Third_Party/LwIP/src/core/netif.c **** {
 803              		.loc 1 736 0
 804              		.cfi_startproc
 805              		@ args = 0, pretend = 0, frame = 0
 806              		@ frame_needed = 0, uses_anonymous_args = 0
 807              	.LVL71:
 737:Middlewares/Third_Party/LwIP/src/core/netif.c ****   if (!(netif->flags & NETIF_FLAG_LINK_UP)) {
 808              		.loc 1 737 0
 809 0000 90F82F30 		ldrb	r3, [r0, #47]	@ zero_extendqisi2
 810 0004 13F0040F 		tst	r3, #4
 811 0008 00D0     		beq	.L90
 812 000a 7047     		bx	lr
 813              	.L90:
 736:Middlewares/Third_Party/LwIP/src/core/netif.c ****   if (!(netif->flags & NETIF_FLAG_LINK_UP)) {
 814              		.loc 1 736 0
 815 000c 10B5     		push	{r4, lr}
 816              	.LCFI15:
 817              		.cfi_def_cfa_offset 8
 818              		.cfi_offset 4, -8
 819              		.cfi_offset 14, -4
 820 000e 0446     		mov	r4, r0
 738:Middlewares/Third_Party/LwIP/src/core/netif.c ****     netif->flags |= NETIF_FLAG_LINK_UP;
 821              		.loc 1 738 0
 822 0010 43F00403 		orr	r3, r3, #4
 823 0014 80F82F30 		strb	r3, [r0, #47]
 739:Middlewares/Third_Party/LwIP/src/core/netif.c **** 
 740:Middlewares/Third_Party/LwIP/src/core/netif.c **** #if LWIP_DHCP
 741:Middlewares/Third_Party/LwIP/src/core/netif.c ****     dhcp_network_changed(netif);
 824              		.loc 1 741 0
 825 0018 FFF7FEFF 		bl	dhcp_network_changed
 826              	.LVL72:
 742:Middlewares/Third_Party/LwIP/src/core/netif.c **** #endif /* LWIP_DHCP */
 743:Middlewares/Third_Party/LwIP/src/core/netif.c **** 
 744:Middlewares/Third_Party/LwIP/src/core/netif.c **** #if LWIP_AUTOIP
 745:Middlewares/Third_Party/LwIP/src/core/netif.c ****     autoip_network_changed(netif);
ARM GAS  C:\Users\Patryk\AppData\Local\Temp\ccWBdSKa.s 			page 30


 746:Middlewares/Third_Party/LwIP/src/core/netif.c **** #endif /* LWIP_AUTOIP */
 747:Middlewares/Third_Party/LwIP/src/core/netif.c **** 
 748:Middlewares/Third_Party/LwIP/src/core/netif.c ****     if (netif->flags & NETIF_FLAG_UP) {
 827              		.loc 1 748 0
 828 001c 94F82F30 		ldrb	r3, [r4, #47]	@ zero_extendqisi2
 829 0020 13F0010F 		tst	r3, #1
 830 0024 00D1     		bne	.L91
 831              	.L84:
 749:Middlewares/Third_Party/LwIP/src/core/netif.c ****       netif_issue_reports(netif, NETIF_REPORT_TYPE_IPV4|NETIF_REPORT_TYPE_IPV6);
 750:Middlewares/Third_Party/LwIP/src/core/netif.c ****     }
 751:Middlewares/Third_Party/LwIP/src/core/netif.c ****     NETIF_LINK_CALLBACK(netif);
 752:Middlewares/Third_Party/LwIP/src/core/netif.c ****   }
 753:Middlewares/Third_Party/LwIP/src/core/netif.c **** }
 832              		.loc 1 753 0
 833 0026 10BD     		pop	{r4, pc}
 834              	.LVL73:
 835              	.L91:
 749:Middlewares/Third_Party/LwIP/src/core/netif.c ****       netif_issue_reports(netif, NETIF_REPORT_TYPE_IPV4|NETIF_REPORT_TYPE_IPV6);
 836              		.loc 1 749 0
 837 0028 0321     		movs	r1, #3
 838 002a 2046     		mov	r0, r4
 839 002c FFF7FEFF 		bl	netif_issue_reports
 840              	.LVL74:
 841              		.loc 1 753 0
 842 0030 F9E7     		b	.L84
 843              		.cfi_endproc
 844              	.LFE172:
 846              		.section	.text.netif_set_link_down,"ax",%progbits
 847              		.align	1
 848              		.global	netif_set_link_down
 849              		.syntax unified
 850              		.thumb
 851              		.thumb_func
 852              		.fpu fpv5-sp-d16
 854              	netif_set_link_down:
 855              	.LFB173:
 754:Middlewares/Third_Party/LwIP/src/core/netif.c **** 
 755:Middlewares/Third_Party/LwIP/src/core/netif.c **** /**
 756:Middlewares/Third_Party/LwIP/src/core/netif.c ****  * @ingroup netif
 757:Middlewares/Third_Party/LwIP/src/core/netif.c ****  * Called by a driver when its link goes down
 758:Middlewares/Third_Party/LwIP/src/core/netif.c ****  */
 759:Middlewares/Third_Party/LwIP/src/core/netif.c **** void
 760:Middlewares/Third_Party/LwIP/src/core/netif.c **** netif_set_link_down(struct netif *netif )
 761:Middlewares/Third_Party/LwIP/src/core/netif.c **** {
 856              		.loc 1 761 0
 857              		.cfi_startproc
 858              		@ args = 0, pretend = 0, frame = 0
 859              		@ frame_needed = 0, uses_anonymous_args = 0
 860              		@ link register save eliminated.
 861              	.LVL75:
 762:Middlewares/Third_Party/LwIP/src/core/netif.c ****   if (netif->flags & NETIF_FLAG_LINK_UP) {
 862              		.loc 1 762 0
 863 0000 90F82F30 		ldrb	r3, [r0, #47]	@ zero_extendqisi2
 864 0004 13F0040F 		tst	r3, #4
 865 0008 03D0     		beq	.L92
 763:Middlewares/Third_Party/LwIP/src/core/netif.c ****     netif->flags &= ~NETIF_FLAG_LINK_UP;
 866              		.loc 1 763 0
ARM GAS  C:\Users\Patryk\AppData\Local\Temp\ccWBdSKa.s 			page 31


 867 000a 23F00403 		bic	r3, r3, #4
 868 000e 80F82F30 		strb	r3, [r0, #47]
 869              	.L92:
 764:Middlewares/Third_Party/LwIP/src/core/netif.c ****     NETIF_LINK_CALLBACK(netif);
 765:Middlewares/Third_Party/LwIP/src/core/netif.c ****   }
 766:Middlewares/Third_Party/LwIP/src/core/netif.c **** }
 870              		.loc 1 766 0
 871 0012 7047     		bx	lr
 872              		.cfi_endproc
 873              	.LFE173:
 875              		.comm	netif_default,4,4
 876              		.comm	netif_list,4,4
 877              		.section	.bss.netif_num,"aw",%nobits
 878              		.set	.LANCHOR0,. + 0
 881              	netif_num:
 882 0000 00       		.space	1
 883              		.section	.rodata.netif_add.str1.4,"aMS",%progbits,1
 884              		.align	2
 885              	.LC0:
 886 0000 4D696464 		.ascii	"Middlewares/Third_Party/LwIP/src/core/netif.c\000"
 886      6C657761 
 886      7265732F 
 886      54686972 
 886      645F5061 
 887 002e 0000     		.space	2
 888              	.LC1:
 889 0030 4E6F2069 		.ascii	"No init function given\000"
 889      6E697420 
 889      66756E63 
 889      74696F6E 
 889      20676976 
 890 0047 00       		.space	1
 891              	.LC2:
 892 0048 41737365 		.ascii	"Assertion \"%s\" failed at line %d in %s\012\000"
 892      7274696F 
 892      6E202225 
 892      73222066 
 892      61696C65 
 893              		.text
 894              	.Letext0:
 895              		.file 2 "c:\\program files (x86)\\gnu\\7_2018-q2-update\\arm-none-eabi\\include\\machine\\_default
 896              		.file 3 "c:\\program files (x86)\\gnu\\7_2018-q2-update\\arm-none-eabi\\include\\sys\\_stdint.h"
 897              		.file 4 "Drivers/CMSIS/Include/core_cm7.h"
 898              		.file 5 "Drivers/CMSIS/Device/ST/STM32F7xx/Include/system_stm32f7xx.h"
 899              		.file 6 "c:\\program files (x86)\\gnu\\7_2018-q2-update\\arm-none-eabi\\include\\sys\\lock.h"
 900              		.file 7 "c:\\program files (x86)\\gnu\\7_2018-q2-update\\arm-none-eabi\\include\\sys\\_types.h"
 901              		.file 8 "c:\\program files (x86)\\gnu\\7_2018-q2-update\\lib\\gcc\\arm-none-eabi\\7.3.1\\include\\
 902              		.file 9 "c:\\program files (x86)\\gnu\\7_2018-q2-update\\arm-none-eabi\\include\\sys\\reent.h"
 903              		.file 10 "c:\\program files (x86)\\gnu\\7_2018-q2-update\\arm-none-eabi\\include\\stdlib.h"
 904              		.file 11 "c:\\program files (x86)\\gnu\\7_2018-q2-update\\arm-none-eabi\\include\\time.h"
 905              		.file 12 "Middlewares/Third_Party/LwIP/src/include/lwip/arch.h"
 906              		.file 13 "Middlewares/Third_Party/LwIP/src/include/lwip/ip4_addr.h"
 907              		.file 14 "Middlewares/Third_Party/LwIP/src/include/lwip/ip_addr.h"
 908              		.file 15 "Middlewares/Third_Party/LwIP/src/include/lwip/err.h"
 909              		.file 16 "Middlewares/Third_Party/LwIP/src/include/lwip/pbuf.h"
 910              		.file 17 "Middlewares/Third_Party/LwIP/src/include/lwip/memp.h"
 911              		.file 18 "Middlewares/Third_Party/LwIP/src/include/lwip/priv/memp_priv.h"
ARM GAS  C:\Users\Patryk\AppData\Local\Temp\ccWBdSKa.s 			page 32


 912              		.file 19 "Middlewares/Third_Party/LwIP/src/include/lwip/netif.h"
 913              		.file 20 "Middlewares/Third_Party/LwIP/src/include/lwip/prot/ip4.h"
 914              		.file 21 "Middlewares/Third_Party/LwIP/src/include/lwip/ip.h"
 915              		.file 22 "Middlewares/Third_Party/LwIP/src/include/lwip/tcp.h"
 916              		.file 23 "Middlewares/Third_Party/LwIP/src/include/lwip/priv/tcp_priv.h"
 917              		.file 24 "Middlewares/Third_Party/LwIP/src/include/lwip/prot/tcp.h"
 918              		.file 25 "Middlewares/Third_Party/LwIP/src/include/lwip/udp.h"
 919              		.file 26 "Middlewares/Third_Party/LwIP/src/include/lwip/prot/ethernet.h"
 920              		.file 27 "Middlewares/Third_Party/LwIP/src/include/netif/ethernet.h"
 921              		.file 28 "Middlewares/Third_Party/LwIP/src/include/lwip/dhcp.h"
 922              		.file 29 "Middlewares/Third_Party/LwIP/src/include/lwip/etharp.h"
 923              		.file 30 "c:\\program files (x86)\\gnu\\7_2018-q2-update\\arm-none-eabi\\include\\stdio.h"
 924              		.file 31 "Middlewares/Third_Party/LwIP/src/include/lwip/ip4.h"
ARM GAS  C:\Users\Patryk\AppData\Local\Temp\ccWBdSKa.s 			page 33

