ARM GAS  C:\Users\Patryk\AppData\Local\Temp\ccybDtdu.s 			page 1


   1              		.cpu cortex-m7
   2              		.eabi_attribute 27, 1
   3              		.eabi_attribute 28, 1
   4              		.eabi_attribute 20, 1
   5              		.eabi_attribute 21, 1
   6              		.eabi_attribute 23, 3
   7              		.eabi_attribute 24, 1
   8              		.eabi_attribute 25, 1
   9              		.eabi_attribute 26, 1
  10              		.eabi_attribute 30, 1
  11              		.eabi_attribute 34, 1
  12              		.eabi_attribute 18, 4
  13              		.file	"pbuf.c"
  14              		.text
  15              	.Ltext0:
  16              		.cfi_sections	.debug_frame
  17              		.section	.text.pbuf_skip_const,"ax",%progbits
  18              		.align	1
  19              		.syntax unified
  20              		.thumb
  21              		.thumb_func
  22              		.fpu fpv5-sp-d16
  24              	pbuf_skip_const:
  25              	.LFB176:
  26              		.file 1 "Middlewares/Third_Party/LwIP/src/core/pbuf.c"
   1:Middlewares/Third_Party/LwIP/src/core/pbuf.c **** /**
   2:Middlewares/Third_Party/LwIP/src/core/pbuf.c ****  * @file
   3:Middlewares/Third_Party/LwIP/src/core/pbuf.c ****  * Packet buffer management
   4:Middlewares/Third_Party/LwIP/src/core/pbuf.c ****  */
   5:Middlewares/Third_Party/LwIP/src/core/pbuf.c **** 
   6:Middlewares/Third_Party/LwIP/src/core/pbuf.c **** /**
   7:Middlewares/Third_Party/LwIP/src/core/pbuf.c ****  * @defgroup pbuf Packet buffers (PBUF)
   8:Middlewares/Third_Party/LwIP/src/core/pbuf.c ****  * @ingroup infrastructure
   9:Middlewares/Third_Party/LwIP/src/core/pbuf.c ****  *
  10:Middlewares/Third_Party/LwIP/src/core/pbuf.c ****  * Packets are built from the pbuf data structure. It supports dynamic
  11:Middlewares/Third_Party/LwIP/src/core/pbuf.c ****  * memory allocation for packet contents or can reference externally
  12:Middlewares/Third_Party/LwIP/src/core/pbuf.c ****  * managed packet contents both in RAM and ROM. Quick allocation for
  13:Middlewares/Third_Party/LwIP/src/core/pbuf.c ****  * incoming packets is provided through pools with fixed sized pbufs.
  14:Middlewares/Third_Party/LwIP/src/core/pbuf.c ****  *
  15:Middlewares/Third_Party/LwIP/src/core/pbuf.c ****  * A packet may span over multiple pbufs, chained as a singly linked
  16:Middlewares/Third_Party/LwIP/src/core/pbuf.c ****  * list. This is called a "pbuf chain".
  17:Middlewares/Third_Party/LwIP/src/core/pbuf.c ****  *
  18:Middlewares/Third_Party/LwIP/src/core/pbuf.c ****  * Multiple packets may be queued, also using this singly linked list.
  19:Middlewares/Third_Party/LwIP/src/core/pbuf.c ****  * This is called a "packet queue".
  20:Middlewares/Third_Party/LwIP/src/core/pbuf.c ****  *
  21:Middlewares/Third_Party/LwIP/src/core/pbuf.c ****  * So, a packet queue consists of one or more pbuf chains, each of
  22:Middlewares/Third_Party/LwIP/src/core/pbuf.c ****  * which consist of one or more pbufs. CURRENTLY, PACKET QUEUES ARE
  23:Middlewares/Third_Party/LwIP/src/core/pbuf.c ****  * NOT SUPPORTED!!! Use helper structs to queue multiple packets.
  24:Middlewares/Third_Party/LwIP/src/core/pbuf.c ****  *
  25:Middlewares/Third_Party/LwIP/src/core/pbuf.c ****  * The differences between a pbuf chain and a packet queue are very
  26:Middlewares/Third_Party/LwIP/src/core/pbuf.c ****  * precise but subtle.
  27:Middlewares/Third_Party/LwIP/src/core/pbuf.c ****  *
  28:Middlewares/Third_Party/LwIP/src/core/pbuf.c ****  * The last pbuf of a packet has a ->tot_len field that equals the
  29:Middlewares/Third_Party/LwIP/src/core/pbuf.c ****  * ->len field. It can be found by traversing the list. If the last
  30:Middlewares/Third_Party/LwIP/src/core/pbuf.c ****  * pbuf of a packet has a ->next field other than NULL, more packets
  31:Middlewares/Third_Party/LwIP/src/core/pbuf.c ****  * are on the queue.
  32:Middlewares/Third_Party/LwIP/src/core/pbuf.c ****  *
ARM GAS  C:\Users\Patryk\AppData\Local\Temp\ccybDtdu.s 			page 2


  33:Middlewares/Third_Party/LwIP/src/core/pbuf.c ****  * Therefore, looping through a pbuf of a single packet, has an
  34:Middlewares/Third_Party/LwIP/src/core/pbuf.c ****  * loop end condition (tot_len == p->len), NOT (next == NULL).
  35:Middlewares/Third_Party/LwIP/src/core/pbuf.c ****  *
  36:Middlewares/Third_Party/LwIP/src/core/pbuf.c ****  * Example of custom pbuf usage for zero-copy RX:
  37:Middlewares/Third_Party/LwIP/src/core/pbuf.c ****   @code{.c}
  38:Middlewares/Third_Party/LwIP/src/core/pbuf.c **** typedef struct my_custom_pbuf
  39:Middlewares/Third_Party/LwIP/src/core/pbuf.c **** {
  40:Middlewares/Third_Party/LwIP/src/core/pbuf.c ****    struct pbuf_custom p;
  41:Middlewares/Third_Party/LwIP/src/core/pbuf.c ****    void* dma_descriptor;
  42:Middlewares/Third_Party/LwIP/src/core/pbuf.c **** } my_custom_pbuf_t;
  43:Middlewares/Third_Party/LwIP/src/core/pbuf.c **** 
  44:Middlewares/Third_Party/LwIP/src/core/pbuf.c **** LWIP_MEMPOOL_DECLARE(RX_POOL, 10, sizeof(my_custom_pbuf_t), "Zero-copy RX PBUF pool");
  45:Middlewares/Third_Party/LwIP/src/core/pbuf.c **** 
  46:Middlewares/Third_Party/LwIP/src/core/pbuf.c **** void my_pbuf_free_custom(void* p)
  47:Middlewares/Third_Party/LwIP/src/core/pbuf.c **** {
  48:Middlewares/Third_Party/LwIP/src/core/pbuf.c ****   my_custom_pbuf_t* my_puf = (my_custom_pbuf_t*)p;
  49:Middlewares/Third_Party/LwIP/src/core/pbuf.c **** 
  50:Middlewares/Third_Party/LwIP/src/core/pbuf.c ****   LOCK_INTERRUPTS();
  51:Middlewares/Third_Party/LwIP/src/core/pbuf.c ****   free_rx_dma_descriptor(my_pbuf->dma_descriptor);
  52:Middlewares/Third_Party/LwIP/src/core/pbuf.c ****   LWIP_MEMPOOL_FREE(RX_POOL, my_pbuf);
  53:Middlewares/Third_Party/LwIP/src/core/pbuf.c ****   UNLOCK_INTERRUPTS();
  54:Middlewares/Third_Party/LwIP/src/core/pbuf.c **** }
  55:Middlewares/Third_Party/LwIP/src/core/pbuf.c **** 
  56:Middlewares/Third_Party/LwIP/src/core/pbuf.c **** void eth_rx_irq()
  57:Middlewares/Third_Party/LwIP/src/core/pbuf.c **** {
  58:Middlewares/Third_Party/LwIP/src/core/pbuf.c ****   dma_descriptor*   dma_desc = get_RX_DMA_descriptor_from_ethernet();
  59:Middlewares/Third_Party/LwIP/src/core/pbuf.c ****   my_custom_pbuf_t* my_pbuf  = (my_custom_pbuf_t*)LWIP_MEMPOOL_ALLOC(RX_POOL);
  60:Middlewares/Third_Party/LwIP/src/core/pbuf.c **** 
  61:Middlewares/Third_Party/LwIP/src/core/pbuf.c ****   my_pbuf->p.custom_free_function = my_pbuf_free_custom;
  62:Middlewares/Third_Party/LwIP/src/core/pbuf.c ****   my_pbuf->dma_descriptor         = dma_desc;
  63:Middlewares/Third_Party/LwIP/src/core/pbuf.c **** 
  64:Middlewares/Third_Party/LwIP/src/core/pbuf.c ****   invalidate_cpu_cache(dma_desc->rx_data, dma_desc->rx_length);
  65:Middlewares/Third_Party/LwIP/src/core/pbuf.c ****   
  66:Middlewares/Third_Party/LwIP/src/core/pbuf.c ****   struct pbuf* p = pbuf_alloced_custom(PBUF_RAW,
  67:Middlewares/Third_Party/LwIP/src/core/pbuf.c ****      dma_desc->rx_length,
  68:Middlewares/Third_Party/LwIP/src/core/pbuf.c ****      PBUF_REF,
  69:Middlewares/Third_Party/LwIP/src/core/pbuf.c ****      &my_pbuf->p,
  70:Middlewares/Third_Party/LwIP/src/core/pbuf.c ****      dma_desc->rx_data,
  71:Middlewares/Third_Party/LwIP/src/core/pbuf.c ****      dma_desc->max_buffer_size);
  72:Middlewares/Third_Party/LwIP/src/core/pbuf.c **** 
  73:Middlewares/Third_Party/LwIP/src/core/pbuf.c ****   if(netif->input(p, netif) != ERR_OK) {
  74:Middlewares/Third_Party/LwIP/src/core/pbuf.c ****     pbuf_free(p);
  75:Middlewares/Third_Party/LwIP/src/core/pbuf.c ****   }
  76:Middlewares/Third_Party/LwIP/src/core/pbuf.c **** }
  77:Middlewares/Third_Party/LwIP/src/core/pbuf.c ****   @endcode
  78:Middlewares/Third_Party/LwIP/src/core/pbuf.c ****  */
  79:Middlewares/Third_Party/LwIP/src/core/pbuf.c **** 
  80:Middlewares/Third_Party/LwIP/src/core/pbuf.c **** /*
  81:Middlewares/Third_Party/LwIP/src/core/pbuf.c ****  * Copyright (c) 2001-2004 Swedish Institute of Computer Science.
  82:Middlewares/Third_Party/LwIP/src/core/pbuf.c ****  * All rights reserved.
  83:Middlewares/Third_Party/LwIP/src/core/pbuf.c ****  *
  84:Middlewares/Third_Party/LwIP/src/core/pbuf.c ****  * Redistribution and use in source and binary forms, with or without modification,
  85:Middlewares/Third_Party/LwIP/src/core/pbuf.c ****  * are permitted provided that the following conditions are met:
  86:Middlewares/Third_Party/LwIP/src/core/pbuf.c ****  *
  87:Middlewares/Third_Party/LwIP/src/core/pbuf.c ****  * 1. Redistributions of source code must retain the above copyright notice,
  88:Middlewares/Third_Party/LwIP/src/core/pbuf.c ****  *    this list of conditions and the following disclaimer.
  89:Middlewares/Third_Party/LwIP/src/core/pbuf.c ****  * 2. Redistributions in binary form must reproduce the above copyright notice,
ARM GAS  C:\Users\Patryk\AppData\Local\Temp\ccybDtdu.s 			page 3


  90:Middlewares/Third_Party/LwIP/src/core/pbuf.c ****  *    this list of conditions and the following disclaimer in the documentation
  91:Middlewares/Third_Party/LwIP/src/core/pbuf.c ****  *    and/or other materials provided with the distribution.
  92:Middlewares/Third_Party/LwIP/src/core/pbuf.c ****  * 3. The name of the author may not be used to endorse or promote products
  93:Middlewares/Third_Party/LwIP/src/core/pbuf.c ****  *    derived from this software without specific prior written permission.
  94:Middlewares/Third_Party/LwIP/src/core/pbuf.c ****  *
  95:Middlewares/Third_Party/LwIP/src/core/pbuf.c ****  * THIS SOFTWARE IS PROVIDED BY THE AUTHOR ``AS IS'' AND ANY EXPRESS OR IMPLIED
  96:Middlewares/Third_Party/LwIP/src/core/pbuf.c ****  * WARRANTIES, INCLUDING, BUT NOT LIMITED TO, THE IMPLIED WARRANTIES OF
  97:Middlewares/Third_Party/LwIP/src/core/pbuf.c ****  * MERCHANTABILITY AND FITNESS FOR A PARTICULAR PURPOSE ARE DISCLAIMED. IN NO EVENT
  98:Middlewares/Third_Party/LwIP/src/core/pbuf.c ****  * SHALL THE AUTHOR BE LIABLE FOR ANY DIRECT, INDIRECT, INCIDENTAL, SPECIAL,
  99:Middlewares/Third_Party/LwIP/src/core/pbuf.c ****  * EXEMPLARY, OR CONSEQUENTIAL DAMAGES (INCLUDING, BUT NOT LIMITED TO, PROCUREMENT
 100:Middlewares/Third_Party/LwIP/src/core/pbuf.c ****  * OF SUBSTITUTE GOODS OR SERVICES; LOSS OF USE, DATA, OR PROFITS; OR BUSINESS
 101:Middlewares/Third_Party/LwIP/src/core/pbuf.c ****  * INTERRUPTION) HOWEVER CAUSED AND ON ANY THEORY OF LIABILITY, WHETHER IN
 102:Middlewares/Third_Party/LwIP/src/core/pbuf.c ****  * CONTRACT, STRICT LIABILITY, OR TORT (INCLUDING NEGLIGENCE OR OTHERWISE) ARISING
 103:Middlewares/Third_Party/LwIP/src/core/pbuf.c ****  * IN ANY WAY OUT OF THE USE OF THIS SOFTWARE, EVEN IF ADVISED OF THE POSSIBILITY
 104:Middlewares/Third_Party/LwIP/src/core/pbuf.c ****  * OF SUCH DAMAGE.
 105:Middlewares/Third_Party/LwIP/src/core/pbuf.c ****  *
 106:Middlewares/Third_Party/LwIP/src/core/pbuf.c ****  * This file is part of the lwIP TCP/IP stack.
 107:Middlewares/Third_Party/LwIP/src/core/pbuf.c ****  *
 108:Middlewares/Third_Party/LwIP/src/core/pbuf.c ****  * Author: Adam Dunkels <adam@sics.se>
 109:Middlewares/Third_Party/LwIP/src/core/pbuf.c ****  *
 110:Middlewares/Third_Party/LwIP/src/core/pbuf.c ****  */
 111:Middlewares/Third_Party/LwIP/src/core/pbuf.c **** 
 112:Middlewares/Third_Party/LwIP/src/core/pbuf.c **** #include "lwip/opt.h"
 113:Middlewares/Third_Party/LwIP/src/core/pbuf.c **** 
 114:Middlewares/Third_Party/LwIP/src/core/pbuf.c **** #include "lwip/stats.h"
 115:Middlewares/Third_Party/LwIP/src/core/pbuf.c **** #include "lwip/def.h"
 116:Middlewares/Third_Party/LwIP/src/core/pbuf.c **** #include "lwip/mem.h"
 117:Middlewares/Third_Party/LwIP/src/core/pbuf.c **** #include "lwip/memp.h"
 118:Middlewares/Third_Party/LwIP/src/core/pbuf.c **** #include "lwip/pbuf.h"
 119:Middlewares/Third_Party/LwIP/src/core/pbuf.c **** #include "lwip/sys.h"
 120:Middlewares/Third_Party/LwIP/src/core/pbuf.c **** #if LWIP_TCP && TCP_QUEUE_OOSEQ
 121:Middlewares/Third_Party/LwIP/src/core/pbuf.c **** #include "lwip/priv/tcp_priv.h"
 122:Middlewares/Third_Party/LwIP/src/core/pbuf.c **** #endif
 123:Middlewares/Third_Party/LwIP/src/core/pbuf.c **** #if LWIP_CHECKSUM_ON_COPY
 124:Middlewares/Third_Party/LwIP/src/core/pbuf.c **** #include "lwip/inet_chksum.h"
 125:Middlewares/Third_Party/LwIP/src/core/pbuf.c **** #endif
 126:Middlewares/Third_Party/LwIP/src/core/pbuf.c **** 
 127:Middlewares/Third_Party/LwIP/src/core/pbuf.c **** #include <string.h>
 128:Middlewares/Third_Party/LwIP/src/core/pbuf.c **** 
 129:Middlewares/Third_Party/LwIP/src/core/pbuf.c **** #define SIZEOF_STRUCT_PBUF        LWIP_MEM_ALIGN_SIZE(sizeof(struct pbuf))
 130:Middlewares/Third_Party/LwIP/src/core/pbuf.c **** /* Since the pool is created in memp, PBUF_POOL_BUFSIZE will be automatically
 131:Middlewares/Third_Party/LwIP/src/core/pbuf.c ****    aligned there. Therefore, PBUF_POOL_BUFSIZE_ALIGNED can be used here. */
 132:Middlewares/Third_Party/LwIP/src/core/pbuf.c **** #define PBUF_POOL_BUFSIZE_ALIGNED LWIP_MEM_ALIGN_SIZE(PBUF_POOL_BUFSIZE)
 133:Middlewares/Third_Party/LwIP/src/core/pbuf.c **** 
 134:Middlewares/Third_Party/LwIP/src/core/pbuf.c **** #if !LWIP_TCP || !TCP_QUEUE_OOSEQ || !PBUF_POOL_FREE_OOSEQ
 135:Middlewares/Third_Party/LwIP/src/core/pbuf.c **** #define PBUF_POOL_IS_EMPTY()
 136:Middlewares/Third_Party/LwIP/src/core/pbuf.c **** #else /* !LWIP_TCP || !TCP_QUEUE_OOSEQ || !PBUF_POOL_FREE_OOSEQ */
 137:Middlewares/Third_Party/LwIP/src/core/pbuf.c **** 
 138:Middlewares/Third_Party/LwIP/src/core/pbuf.c **** #if !NO_SYS
 139:Middlewares/Third_Party/LwIP/src/core/pbuf.c **** #ifndef PBUF_POOL_FREE_OOSEQ_QUEUE_CALL
 140:Middlewares/Third_Party/LwIP/src/core/pbuf.c **** #include "lwip/tcpip.h"
 141:Middlewares/Third_Party/LwIP/src/core/pbuf.c **** #define PBUF_POOL_FREE_OOSEQ_QUEUE_CALL()  do { \
 142:Middlewares/Third_Party/LwIP/src/core/pbuf.c ****   if (tcpip_callback_with_block(pbuf_free_ooseq_callback, NULL, 0) != ERR_OK) { \
 143:Middlewares/Third_Party/LwIP/src/core/pbuf.c ****       SYS_ARCH_PROTECT(old_level); \
 144:Middlewares/Third_Party/LwIP/src/core/pbuf.c ****       pbuf_free_ooseq_pending = 0; \
 145:Middlewares/Third_Party/LwIP/src/core/pbuf.c ****       SYS_ARCH_UNPROTECT(old_level); \
 146:Middlewares/Third_Party/LwIP/src/core/pbuf.c ****   } } while(0)
ARM GAS  C:\Users\Patryk\AppData\Local\Temp\ccybDtdu.s 			page 4


 147:Middlewares/Third_Party/LwIP/src/core/pbuf.c **** #endif /* PBUF_POOL_FREE_OOSEQ_QUEUE_CALL */
 148:Middlewares/Third_Party/LwIP/src/core/pbuf.c **** #endif /* !NO_SYS */
 149:Middlewares/Third_Party/LwIP/src/core/pbuf.c **** 
 150:Middlewares/Third_Party/LwIP/src/core/pbuf.c **** volatile u8_t pbuf_free_ooseq_pending;
 151:Middlewares/Third_Party/LwIP/src/core/pbuf.c **** #define PBUF_POOL_IS_EMPTY() pbuf_pool_is_empty()
 152:Middlewares/Third_Party/LwIP/src/core/pbuf.c **** 
 153:Middlewares/Third_Party/LwIP/src/core/pbuf.c **** /**
 154:Middlewares/Third_Party/LwIP/src/core/pbuf.c ****  * Attempt to reclaim some memory from queued out-of-sequence TCP segments
 155:Middlewares/Third_Party/LwIP/src/core/pbuf.c ****  * if we run out of pool pbufs. It's better to give priority to new packets
 156:Middlewares/Third_Party/LwIP/src/core/pbuf.c ****  * if we're running out.
 157:Middlewares/Third_Party/LwIP/src/core/pbuf.c ****  *
 158:Middlewares/Third_Party/LwIP/src/core/pbuf.c ****  * This must be done in the correct thread context therefore this function
 159:Middlewares/Third_Party/LwIP/src/core/pbuf.c ****  * can only be used with NO_SYS=0 and through tcpip_callback.
 160:Middlewares/Third_Party/LwIP/src/core/pbuf.c ****  */
 161:Middlewares/Third_Party/LwIP/src/core/pbuf.c **** #if !NO_SYS
 162:Middlewares/Third_Party/LwIP/src/core/pbuf.c **** static
 163:Middlewares/Third_Party/LwIP/src/core/pbuf.c **** #endif /* !NO_SYS */
 164:Middlewares/Third_Party/LwIP/src/core/pbuf.c **** void
 165:Middlewares/Third_Party/LwIP/src/core/pbuf.c **** pbuf_free_ooseq(void)
 166:Middlewares/Third_Party/LwIP/src/core/pbuf.c **** {
 167:Middlewares/Third_Party/LwIP/src/core/pbuf.c ****   struct tcp_pcb* pcb;
 168:Middlewares/Third_Party/LwIP/src/core/pbuf.c ****   SYS_ARCH_SET(pbuf_free_ooseq_pending, 0);
 169:Middlewares/Third_Party/LwIP/src/core/pbuf.c **** 
 170:Middlewares/Third_Party/LwIP/src/core/pbuf.c ****   for (pcb = tcp_active_pcbs; NULL != pcb; pcb = pcb->next) {
 171:Middlewares/Third_Party/LwIP/src/core/pbuf.c ****     if (NULL != pcb->ooseq) {
 172:Middlewares/Third_Party/LwIP/src/core/pbuf.c ****       /** Free the ooseq pbufs of one PCB only */
 173:Middlewares/Third_Party/LwIP/src/core/pbuf.c ****       LWIP_DEBUGF(PBUF_DEBUG | LWIP_DBG_TRACE, ("pbuf_free_ooseq: freeing out-of-sequence pbufs\n")
 174:Middlewares/Third_Party/LwIP/src/core/pbuf.c ****       tcp_segs_free(pcb->ooseq);
 175:Middlewares/Third_Party/LwIP/src/core/pbuf.c ****       pcb->ooseq = NULL;
 176:Middlewares/Third_Party/LwIP/src/core/pbuf.c ****       return;
 177:Middlewares/Third_Party/LwIP/src/core/pbuf.c ****     }
 178:Middlewares/Third_Party/LwIP/src/core/pbuf.c ****   }
 179:Middlewares/Third_Party/LwIP/src/core/pbuf.c **** }
 180:Middlewares/Third_Party/LwIP/src/core/pbuf.c **** 
 181:Middlewares/Third_Party/LwIP/src/core/pbuf.c **** #if !NO_SYS
 182:Middlewares/Third_Party/LwIP/src/core/pbuf.c **** /**
 183:Middlewares/Third_Party/LwIP/src/core/pbuf.c ****  * Just a callback function for tcpip_callback() that calls pbuf_free_ooseq().
 184:Middlewares/Third_Party/LwIP/src/core/pbuf.c ****  */
 185:Middlewares/Third_Party/LwIP/src/core/pbuf.c **** static void
 186:Middlewares/Third_Party/LwIP/src/core/pbuf.c **** pbuf_free_ooseq_callback(void *arg)
 187:Middlewares/Third_Party/LwIP/src/core/pbuf.c **** {
 188:Middlewares/Third_Party/LwIP/src/core/pbuf.c ****   LWIP_UNUSED_ARG(arg);
 189:Middlewares/Third_Party/LwIP/src/core/pbuf.c ****   pbuf_free_ooseq();
 190:Middlewares/Third_Party/LwIP/src/core/pbuf.c **** }
 191:Middlewares/Third_Party/LwIP/src/core/pbuf.c **** #endif /* !NO_SYS */
 192:Middlewares/Third_Party/LwIP/src/core/pbuf.c **** 
 193:Middlewares/Third_Party/LwIP/src/core/pbuf.c **** /** Queue a call to pbuf_free_ooseq if not already queued. */
 194:Middlewares/Third_Party/LwIP/src/core/pbuf.c **** static void
 195:Middlewares/Third_Party/LwIP/src/core/pbuf.c **** pbuf_pool_is_empty(void)
 196:Middlewares/Third_Party/LwIP/src/core/pbuf.c **** {
 197:Middlewares/Third_Party/LwIP/src/core/pbuf.c **** #ifndef PBUF_POOL_FREE_OOSEQ_QUEUE_CALL
 198:Middlewares/Third_Party/LwIP/src/core/pbuf.c ****   SYS_ARCH_SET(pbuf_free_ooseq_pending, 1);
 199:Middlewares/Third_Party/LwIP/src/core/pbuf.c **** #else /* PBUF_POOL_FREE_OOSEQ_QUEUE_CALL */
 200:Middlewares/Third_Party/LwIP/src/core/pbuf.c ****   u8_t queued;
 201:Middlewares/Third_Party/LwIP/src/core/pbuf.c ****   SYS_ARCH_DECL_PROTECT(old_level);
 202:Middlewares/Third_Party/LwIP/src/core/pbuf.c ****   SYS_ARCH_PROTECT(old_level);
 203:Middlewares/Third_Party/LwIP/src/core/pbuf.c ****   queued = pbuf_free_ooseq_pending;
ARM GAS  C:\Users\Patryk\AppData\Local\Temp\ccybDtdu.s 			page 5


 204:Middlewares/Third_Party/LwIP/src/core/pbuf.c ****   pbuf_free_ooseq_pending = 1;
 205:Middlewares/Third_Party/LwIP/src/core/pbuf.c ****   SYS_ARCH_UNPROTECT(old_level);
 206:Middlewares/Third_Party/LwIP/src/core/pbuf.c **** 
 207:Middlewares/Third_Party/LwIP/src/core/pbuf.c ****   if (!queued) {
 208:Middlewares/Third_Party/LwIP/src/core/pbuf.c ****     /* queue a call to pbuf_free_ooseq if not already queued */
 209:Middlewares/Third_Party/LwIP/src/core/pbuf.c ****     PBUF_POOL_FREE_OOSEQ_QUEUE_CALL();
 210:Middlewares/Third_Party/LwIP/src/core/pbuf.c ****   }
 211:Middlewares/Third_Party/LwIP/src/core/pbuf.c **** #endif /* PBUF_POOL_FREE_OOSEQ_QUEUE_CALL */
 212:Middlewares/Third_Party/LwIP/src/core/pbuf.c **** }
 213:Middlewares/Third_Party/LwIP/src/core/pbuf.c **** #endif /* !LWIP_TCP || !TCP_QUEUE_OOSEQ || !PBUF_POOL_FREE_OOSEQ */
 214:Middlewares/Third_Party/LwIP/src/core/pbuf.c **** 
 215:Middlewares/Third_Party/LwIP/src/core/pbuf.c **** /**
 216:Middlewares/Third_Party/LwIP/src/core/pbuf.c ****  * @ingroup pbuf
 217:Middlewares/Third_Party/LwIP/src/core/pbuf.c ****  * Allocates a pbuf of the given type (possibly a chain for PBUF_POOL type).
 218:Middlewares/Third_Party/LwIP/src/core/pbuf.c ****  *
 219:Middlewares/Third_Party/LwIP/src/core/pbuf.c ****  * The actual memory allocated for the pbuf is determined by the
 220:Middlewares/Third_Party/LwIP/src/core/pbuf.c ****  * layer at which the pbuf is allocated and the requested size
 221:Middlewares/Third_Party/LwIP/src/core/pbuf.c ****  * (from the size parameter).
 222:Middlewares/Third_Party/LwIP/src/core/pbuf.c ****  *
 223:Middlewares/Third_Party/LwIP/src/core/pbuf.c ****  * @param layer flag to define header size
 224:Middlewares/Third_Party/LwIP/src/core/pbuf.c ****  * @param length size of the pbuf's payload
 225:Middlewares/Third_Party/LwIP/src/core/pbuf.c ****  * @param type this parameter decides how and where the pbuf
 226:Middlewares/Third_Party/LwIP/src/core/pbuf.c ****  * should be allocated as follows:
 227:Middlewares/Third_Party/LwIP/src/core/pbuf.c ****  *
 228:Middlewares/Third_Party/LwIP/src/core/pbuf.c ****  * - PBUF_RAM: buffer memory for pbuf is allocated as one large
 229:Middlewares/Third_Party/LwIP/src/core/pbuf.c ****  *             chunk. This includes protocol headers as well.
 230:Middlewares/Third_Party/LwIP/src/core/pbuf.c ****  * - PBUF_ROM: no buffer memory is allocated for the pbuf, even for
 231:Middlewares/Third_Party/LwIP/src/core/pbuf.c ****  *             protocol headers. Additional headers must be prepended
 232:Middlewares/Third_Party/LwIP/src/core/pbuf.c ****  *             by allocating another pbuf and chain in to the front of
 233:Middlewares/Third_Party/LwIP/src/core/pbuf.c ****  *             the ROM pbuf. It is assumed that the memory used is really
 234:Middlewares/Third_Party/LwIP/src/core/pbuf.c ****  *             similar to ROM in that it is immutable and will not be
 235:Middlewares/Third_Party/LwIP/src/core/pbuf.c ****  *             changed. Memory which is dynamic should generally not
 236:Middlewares/Third_Party/LwIP/src/core/pbuf.c ****  *             be attached to PBUF_ROM pbufs. Use PBUF_REF instead.
 237:Middlewares/Third_Party/LwIP/src/core/pbuf.c ****  * - PBUF_REF: no buffer memory is allocated for the pbuf, even for
 238:Middlewares/Third_Party/LwIP/src/core/pbuf.c ****  *             protocol headers. It is assumed that the pbuf is only
 239:Middlewares/Third_Party/LwIP/src/core/pbuf.c ****  *             being used in a single thread. If the pbuf gets queued,
 240:Middlewares/Third_Party/LwIP/src/core/pbuf.c ****  *             then pbuf_take should be called to copy the buffer.
 241:Middlewares/Third_Party/LwIP/src/core/pbuf.c ****  * - PBUF_POOL: the pbuf is allocated as a pbuf chain, with pbufs from
 242:Middlewares/Third_Party/LwIP/src/core/pbuf.c ****  *              the pbuf pool that is allocated during pbuf_init().
 243:Middlewares/Third_Party/LwIP/src/core/pbuf.c ****  *
 244:Middlewares/Third_Party/LwIP/src/core/pbuf.c ****  * @return the allocated pbuf. If multiple pbufs where allocated, this
 245:Middlewares/Third_Party/LwIP/src/core/pbuf.c ****  * is the first pbuf of a pbuf chain.
 246:Middlewares/Third_Party/LwIP/src/core/pbuf.c ****  */
 247:Middlewares/Third_Party/LwIP/src/core/pbuf.c **** struct pbuf *
 248:Middlewares/Third_Party/LwIP/src/core/pbuf.c **** pbuf_alloc(pbuf_layer layer, u16_t length, pbuf_type type)
 249:Middlewares/Third_Party/LwIP/src/core/pbuf.c **** {
 250:Middlewares/Third_Party/LwIP/src/core/pbuf.c ****   struct pbuf *p, *q, *r;
 251:Middlewares/Third_Party/LwIP/src/core/pbuf.c ****   u16_t offset;
 252:Middlewares/Third_Party/LwIP/src/core/pbuf.c ****   s32_t rem_len; /* remaining length */
 253:Middlewares/Third_Party/LwIP/src/core/pbuf.c ****   LWIP_DEBUGF(PBUF_DEBUG | LWIP_DBG_TRACE, ("pbuf_alloc(length=%"U16_F")\n", length));
 254:Middlewares/Third_Party/LwIP/src/core/pbuf.c **** 
 255:Middlewares/Third_Party/LwIP/src/core/pbuf.c ****   /* determine header offset */
 256:Middlewares/Third_Party/LwIP/src/core/pbuf.c ****   switch (layer) {
 257:Middlewares/Third_Party/LwIP/src/core/pbuf.c ****   case PBUF_TRANSPORT:
 258:Middlewares/Third_Party/LwIP/src/core/pbuf.c ****     /* add room for transport (often TCP) layer header */
 259:Middlewares/Third_Party/LwIP/src/core/pbuf.c ****     offset = PBUF_LINK_ENCAPSULATION_HLEN + PBUF_LINK_HLEN + PBUF_IP_HLEN + PBUF_TRANSPORT_HLEN;
 260:Middlewares/Third_Party/LwIP/src/core/pbuf.c ****     break;
ARM GAS  C:\Users\Patryk\AppData\Local\Temp\ccybDtdu.s 			page 6


 261:Middlewares/Third_Party/LwIP/src/core/pbuf.c ****   case PBUF_IP:
 262:Middlewares/Third_Party/LwIP/src/core/pbuf.c ****     /* add room for IP layer header */
 263:Middlewares/Third_Party/LwIP/src/core/pbuf.c ****     offset = PBUF_LINK_ENCAPSULATION_HLEN + PBUF_LINK_HLEN + PBUF_IP_HLEN;
 264:Middlewares/Third_Party/LwIP/src/core/pbuf.c ****     break;
 265:Middlewares/Third_Party/LwIP/src/core/pbuf.c ****   case PBUF_LINK:
 266:Middlewares/Third_Party/LwIP/src/core/pbuf.c ****     /* add room for link layer header */
 267:Middlewares/Third_Party/LwIP/src/core/pbuf.c ****     offset = PBUF_LINK_ENCAPSULATION_HLEN + PBUF_LINK_HLEN;
 268:Middlewares/Third_Party/LwIP/src/core/pbuf.c ****     break;
 269:Middlewares/Third_Party/LwIP/src/core/pbuf.c ****   case PBUF_RAW_TX:
 270:Middlewares/Third_Party/LwIP/src/core/pbuf.c ****     /* add room for encapsulating link layer headers (e.g. 802.11) */
 271:Middlewares/Third_Party/LwIP/src/core/pbuf.c ****     offset = PBUF_LINK_ENCAPSULATION_HLEN;
 272:Middlewares/Third_Party/LwIP/src/core/pbuf.c ****     break;
 273:Middlewares/Third_Party/LwIP/src/core/pbuf.c ****   case PBUF_RAW:
 274:Middlewares/Third_Party/LwIP/src/core/pbuf.c ****     /* no offset (e.g. RX buffers or chain successors) */
 275:Middlewares/Third_Party/LwIP/src/core/pbuf.c ****     offset = 0;
 276:Middlewares/Third_Party/LwIP/src/core/pbuf.c ****     break;
 277:Middlewares/Third_Party/LwIP/src/core/pbuf.c ****   default:
 278:Middlewares/Third_Party/LwIP/src/core/pbuf.c ****     LWIP_ASSERT("pbuf_alloc: bad pbuf layer", 0);
 279:Middlewares/Third_Party/LwIP/src/core/pbuf.c ****     return NULL;
 280:Middlewares/Third_Party/LwIP/src/core/pbuf.c ****   }
 281:Middlewares/Third_Party/LwIP/src/core/pbuf.c **** 
 282:Middlewares/Third_Party/LwIP/src/core/pbuf.c ****   switch (type) {
 283:Middlewares/Third_Party/LwIP/src/core/pbuf.c ****   case PBUF_POOL:
 284:Middlewares/Third_Party/LwIP/src/core/pbuf.c ****     /* allocate head of pbuf chain into p */
 285:Middlewares/Third_Party/LwIP/src/core/pbuf.c ****     p = (struct pbuf *)memp_malloc(MEMP_PBUF_POOL);
 286:Middlewares/Third_Party/LwIP/src/core/pbuf.c ****     LWIP_DEBUGF(PBUF_DEBUG | LWIP_DBG_TRACE, ("pbuf_alloc: allocated pbuf %p\n", (void *)p));
 287:Middlewares/Third_Party/LwIP/src/core/pbuf.c ****     if (p == NULL) {
 288:Middlewares/Third_Party/LwIP/src/core/pbuf.c ****       PBUF_POOL_IS_EMPTY();
 289:Middlewares/Third_Party/LwIP/src/core/pbuf.c ****       return NULL;
 290:Middlewares/Third_Party/LwIP/src/core/pbuf.c ****     }
 291:Middlewares/Third_Party/LwIP/src/core/pbuf.c ****     p->type = type;
 292:Middlewares/Third_Party/LwIP/src/core/pbuf.c ****     p->next = NULL;
 293:Middlewares/Third_Party/LwIP/src/core/pbuf.c **** 
 294:Middlewares/Third_Party/LwIP/src/core/pbuf.c ****     /* make the payload pointer point 'offset' bytes into pbuf data memory */
 295:Middlewares/Third_Party/LwIP/src/core/pbuf.c ****     p->payload = LWIP_MEM_ALIGN((void *)((u8_t *)p + (SIZEOF_STRUCT_PBUF + offset)));
 296:Middlewares/Third_Party/LwIP/src/core/pbuf.c ****     LWIP_ASSERT("pbuf_alloc: pbuf p->payload properly aligned",
 297:Middlewares/Third_Party/LwIP/src/core/pbuf.c ****             ((mem_ptr_t)p->payload % MEM_ALIGNMENT) == 0);
 298:Middlewares/Third_Party/LwIP/src/core/pbuf.c ****     /* the total length of the pbuf chain is the requested size */
 299:Middlewares/Third_Party/LwIP/src/core/pbuf.c ****     p->tot_len = length;
 300:Middlewares/Third_Party/LwIP/src/core/pbuf.c ****     /* set the length of the first pbuf in the chain */
 301:Middlewares/Third_Party/LwIP/src/core/pbuf.c ****     p->len = LWIP_MIN(length, PBUF_POOL_BUFSIZE_ALIGNED - LWIP_MEM_ALIGN_SIZE(offset));
 302:Middlewares/Third_Party/LwIP/src/core/pbuf.c ****     LWIP_ASSERT("check p->payload + p->len does not overflow pbuf",
 303:Middlewares/Third_Party/LwIP/src/core/pbuf.c ****                 ((u8_t*)p->payload + p->len <=
 304:Middlewares/Third_Party/LwIP/src/core/pbuf.c ****                  (u8_t*)p + SIZEOF_STRUCT_PBUF + PBUF_POOL_BUFSIZE_ALIGNED));
 305:Middlewares/Third_Party/LwIP/src/core/pbuf.c ****     LWIP_ASSERT("PBUF_POOL_BUFSIZE must be bigger than MEM_ALIGNMENT",
 306:Middlewares/Third_Party/LwIP/src/core/pbuf.c ****       (PBUF_POOL_BUFSIZE_ALIGNED - LWIP_MEM_ALIGN_SIZE(offset)) > 0 );
 307:Middlewares/Third_Party/LwIP/src/core/pbuf.c ****     /* set reference count (needed here in case we fail) */
 308:Middlewares/Third_Party/LwIP/src/core/pbuf.c ****     p->ref = 1;
 309:Middlewares/Third_Party/LwIP/src/core/pbuf.c **** 
 310:Middlewares/Third_Party/LwIP/src/core/pbuf.c ****     /* now allocate the tail of the pbuf chain */
 311:Middlewares/Third_Party/LwIP/src/core/pbuf.c **** 
 312:Middlewares/Third_Party/LwIP/src/core/pbuf.c ****     /* remember first pbuf for linkage in next iteration */
 313:Middlewares/Third_Party/LwIP/src/core/pbuf.c ****     r = p;
 314:Middlewares/Third_Party/LwIP/src/core/pbuf.c ****     /* remaining length to be allocated */
 315:Middlewares/Third_Party/LwIP/src/core/pbuf.c ****     rem_len = length - p->len;
 316:Middlewares/Third_Party/LwIP/src/core/pbuf.c ****     /* any remaining pbufs to be allocated? */
 317:Middlewares/Third_Party/LwIP/src/core/pbuf.c ****     while (rem_len > 0) {
ARM GAS  C:\Users\Patryk\AppData\Local\Temp\ccybDtdu.s 			page 7


 318:Middlewares/Third_Party/LwIP/src/core/pbuf.c ****       q = (struct pbuf *)memp_malloc(MEMP_PBUF_POOL);
 319:Middlewares/Third_Party/LwIP/src/core/pbuf.c ****       if (q == NULL) {
 320:Middlewares/Third_Party/LwIP/src/core/pbuf.c ****         PBUF_POOL_IS_EMPTY();
 321:Middlewares/Third_Party/LwIP/src/core/pbuf.c ****         /* free chain so far allocated */
 322:Middlewares/Third_Party/LwIP/src/core/pbuf.c ****         pbuf_free(p);
 323:Middlewares/Third_Party/LwIP/src/core/pbuf.c ****         /* bail out unsuccessfully */
 324:Middlewares/Third_Party/LwIP/src/core/pbuf.c ****         return NULL;
 325:Middlewares/Third_Party/LwIP/src/core/pbuf.c ****       }
 326:Middlewares/Third_Party/LwIP/src/core/pbuf.c ****       q->type = type;
 327:Middlewares/Third_Party/LwIP/src/core/pbuf.c ****       q->flags = 0;
 328:Middlewares/Third_Party/LwIP/src/core/pbuf.c ****       q->next = NULL;
 329:Middlewares/Third_Party/LwIP/src/core/pbuf.c ****       /* make previous pbuf point to this pbuf */
 330:Middlewares/Third_Party/LwIP/src/core/pbuf.c ****       r->next = q;
 331:Middlewares/Third_Party/LwIP/src/core/pbuf.c ****       /* set total length of this pbuf and next in chain */
 332:Middlewares/Third_Party/LwIP/src/core/pbuf.c ****       LWIP_ASSERT("rem_len < max_u16_t", rem_len < 0xffff);
 333:Middlewares/Third_Party/LwIP/src/core/pbuf.c ****       q->tot_len = (u16_t)rem_len;
 334:Middlewares/Third_Party/LwIP/src/core/pbuf.c ****       /* this pbuf length is pool size, unless smaller sized tail */
 335:Middlewares/Third_Party/LwIP/src/core/pbuf.c ****       q->len = LWIP_MIN((u16_t)rem_len, PBUF_POOL_BUFSIZE_ALIGNED);
 336:Middlewares/Third_Party/LwIP/src/core/pbuf.c ****       q->payload = (void *)((u8_t *)q + SIZEOF_STRUCT_PBUF);
 337:Middlewares/Third_Party/LwIP/src/core/pbuf.c ****       LWIP_ASSERT("pbuf_alloc: pbuf q->payload properly aligned",
 338:Middlewares/Third_Party/LwIP/src/core/pbuf.c ****               ((mem_ptr_t)q->payload % MEM_ALIGNMENT) == 0);
 339:Middlewares/Third_Party/LwIP/src/core/pbuf.c ****       LWIP_ASSERT("check p->payload + p->len does not overflow pbuf",
 340:Middlewares/Third_Party/LwIP/src/core/pbuf.c ****                   ((u8_t*)p->payload + p->len <=
 341:Middlewares/Third_Party/LwIP/src/core/pbuf.c ****                    (u8_t*)p + SIZEOF_STRUCT_PBUF + PBUF_POOL_BUFSIZE_ALIGNED));
 342:Middlewares/Third_Party/LwIP/src/core/pbuf.c ****       q->ref = 1;
 343:Middlewares/Third_Party/LwIP/src/core/pbuf.c ****       /* calculate remaining length to be allocated */
 344:Middlewares/Third_Party/LwIP/src/core/pbuf.c ****       rem_len -= q->len;
 345:Middlewares/Third_Party/LwIP/src/core/pbuf.c ****       /* remember this pbuf for linkage in next iteration */
 346:Middlewares/Third_Party/LwIP/src/core/pbuf.c ****       r = q;
 347:Middlewares/Third_Party/LwIP/src/core/pbuf.c ****     }
 348:Middlewares/Third_Party/LwIP/src/core/pbuf.c ****     /* end of chain */
 349:Middlewares/Third_Party/LwIP/src/core/pbuf.c ****     /*r->next = NULL;*/
 350:Middlewares/Third_Party/LwIP/src/core/pbuf.c **** 
 351:Middlewares/Third_Party/LwIP/src/core/pbuf.c ****     break;
 352:Middlewares/Third_Party/LwIP/src/core/pbuf.c ****   case PBUF_RAM:
 353:Middlewares/Third_Party/LwIP/src/core/pbuf.c ****     {
 354:Middlewares/Third_Party/LwIP/src/core/pbuf.c ****       mem_size_t alloc_len = LWIP_MEM_ALIGN_SIZE(SIZEOF_STRUCT_PBUF + offset) + LWIP_MEM_ALIGN_SIZE
 355:Middlewares/Third_Party/LwIP/src/core/pbuf.c ****       
 356:Middlewares/Third_Party/LwIP/src/core/pbuf.c ****       /* bug #50040: Check for integer overflow when calculating alloc_len */
 357:Middlewares/Third_Party/LwIP/src/core/pbuf.c ****       if (alloc_len < LWIP_MEM_ALIGN_SIZE(length)) {
 358:Middlewares/Third_Party/LwIP/src/core/pbuf.c ****         return NULL;
 359:Middlewares/Third_Party/LwIP/src/core/pbuf.c ****       }
 360:Middlewares/Third_Party/LwIP/src/core/pbuf.c ****     
 361:Middlewares/Third_Party/LwIP/src/core/pbuf.c ****       /* If pbuf is to be allocated in RAM, allocate memory for it. */
 362:Middlewares/Third_Party/LwIP/src/core/pbuf.c ****       p = (struct pbuf*)mem_malloc(alloc_len);
 363:Middlewares/Third_Party/LwIP/src/core/pbuf.c ****     }
 364:Middlewares/Third_Party/LwIP/src/core/pbuf.c **** 
 365:Middlewares/Third_Party/LwIP/src/core/pbuf.c ****     if (p == NULL) {
 366:Middlewares/Third_Party/LwIP/src/core/pbuf.c ****       return NULL;
 367:Middlewares/Third_Party/LwIP/src/core/pbuf.c ****     }
 368:Middlewares/Third_Party/LwIP/src/core/pbuf.c ****     /* Set up internal structure of the pbuf. */
 369:Middlewares/Third_Party/LwIP/src/core/pbuf.c ****     p->payload = LWIP_MEM_ALIGN((void *)((u8_t *)p + SIZEOF_STRUCT_PBUF + offset));
 370:Middlewares/Third_Party/LwIP/src/core/pbuf.c ****     p->len = p->tot_len = length;
 371:Middlewares/Third_Party/LwIP/src/core/pbuf.c ****     p->next = NULL;
 372:Middlewares/Third_Party/LwIP/src/core/pbuf.c ****     p->type = type;
 373:Middlewares/Third_Party/LwIP/src/core/pbuf.c **** 
 374:Middlewares/Third_Party/LwIP/src/core/pbuf.c ****     LWIP_ASSERT("pbuf_alloc: pbuf->payload properly aligned",
ARM GAS  C:\Users\Patryk\AppData\Local\Temp\ccybDtdu.s 			page 8


 375:Middlewares/Third_Party/LwIP/src/core/pbuf.c ****            ((mem_ptr_t)p->payload % MEM_ALIGNMENT) == 0);
 376:Middlewares/Third_Party/LwIP/src/core/pbuf.c ****     break;
 377:Middlewares/Third_Party/LwIP/src/core/pbuf.c ****   /* pbuf references existing (non-volatile static constant) ROM payload? */
 378:Middlewares/Third_Party/LwIP/src/core/pbuf.c ****   case PBUF_ROM:
 379:Middlewares/Third_Party/LwIP/src/core/pbuf.c ****   /* pbuf references existing (externally allocated) RAM payload? */
 380:Middlewares/Third_Party/LwIP/src/core/pbuf.c ****   case PBUF_REF:
 381:Middlewares/Third_Party/LwIP/src/core/pbuf.c ****     /* only allocate memory for the pbuf structure */
 382:Middlewares/Third_Party/LwIP/src/core/pbuf.c ****     p = (struct pbuf *)memp_malloc(MEMP_PBUF);
 383:Middlewares/Third_Party/LwIP/src/core/pbuf.c ****     if (p == NULL) {
 384:Middlewares/Third_Party/LwIP/src/core/pbuf.c ****       LWIP_DEBUGF(PBUF_DEBUG | LWIP_DBG_LEVEL_SERIOUS,
 385:Middlewares/Third_Party/LwIP/src/core/pbuf.c ****                   ("pbuf_alloc: Could not allocate MEMP_PBUF for PBUF_%s.\n",
 386:Middlewares/Third_Party/LwIP/src/core/pbuf.c ****                   (type == PBUF_ROM) ? "ROM" : "REF"));
 387:Middlewares/Third_Party/LwIP/src/core/pbuf.c ****       return NULL;
 388:Middlewares/Third_Party/LwIP/src/core/pbuf.c ****     }
 389:Middlewares/Third_Party/LwIP/src/core/pbuf.c ****     /* caller must set this field properly, afterwards */
 390:Middlewares/Third_Party/LwIP/src/core/pbuf.c ****     p->payload = NULL;
 391:Middlewares/Third_Party/LwIP/src/core/pbuf.c ****     p->len = p->tot_len = length;
 392:Middlewares/Third_Party/LwIP/src/core/pbuf.c ****     p->next = NULL;
 393:Middlewares/Third_Party/LwIP/src/core/pbuf.c ****     p->type = type;
 394:Middlewares/Third_Party/LwIP/src/core/pbuf.c ****     break;
 395:Middlewares/Third_Party/LwIP/src/core/pbuf.c ****   default:
 396:Middlewares/Third_Party/LwIP/src/core/pbuf.c ****     LWIP_ASSERT("pbuf_alloc: erroneous type", 0);
 397:Middlewares/Third_Party/LwIP/src/core/pbuf.c ****     return NULL;
 398:Middlewares/Third_Party/LwIP/src/core/pbuf.c ****   }
 399:Middlewares/Third_Party/LwIP/src/core/pbuf.c ****   /* set reference count */
 400:Middlewares/Third_Party/LwIP/src/core/pbuf.c ****   p->ref = 1;
 401:Middlewares/Third_Party/LwIP/src/core/pbuf.c ****   /* set flags */
 402:Middlewares/Third_Party/LwIP/src/core/pbuf.c ****   p->flags = 0;
 403:Middlewares/Third_Party/LwIP/src/core/pbuf.c ****   LWIP_DEBUGF(PBUF_DEBUG | LWIP_DBG_TRACE, ("pbuf_alloc(length=%"U16_F") == %p\n", length, (void *)
 404:Middlewares/Third_Party/LwIP/src/core/pbuf.c ****   return p;
 405:Middlewares/Third_Party/LwIP/src/core/pbuf.c **** }
 406:Middlewares/Third_Party/LwIP/src/core/pbuf.c **** 
 407:Middlewares/Third_Party/LwIP/src/core/pbuf.c **** #if LWIP_SUPPORT_CUSTOM_PBUF
 408:Middlewares/Third_Party/LwIP/src/core/pbuf.c **** /**
 409:Middlewares/Third_Party/LwIP/src/core/pbuf.c ****  * @ingroup pbuf
 410:Middlewares/Third_Party/LwIP/src/core/pbuf.c ****  * Initialize a custom pbuf (already allocated).
 411:Middlewares/Third_Party/LwIP/src/core/pbuf.c ****  *
 412:Middlewares/Third_Party/LwIP/src/core/pbuf.c ****  * @param l flag to define header size
 413:Middlewares/Third_Party/LwIP/src/core/pbuf.c ****  * @param length size of the pbuf's payload
 414:Middlewares/Third_Party/LwIP/src/core/pbuf.c ****  * @param type type of the pbuf (only used to treat the pbuf accordingly, as
 415:Middlewares/Third_Party/LwIP/src/core/pbuf.c ****  *        this function allocates no memory)
 416:Middlewares/Third_Party/LwIP/src/core/pbuf.c ****  * @param p pointer to the custom pbuf to initialize (already allocated)
 417:Middlewares/Third_Party/LwIP/src/core/pbuf.c ****  * @param payload_mem pointer to the buffer that is used for payload and headers,
 418:Middlewares/Third_Party/LwIP/src/core/pbuf.c ****  *        must be at least big enough to hold 'length' plus the header size,
 419:Middlewares/Third_Party/LwIP/src/core/pbuf.c ****  *        may be NULL if set later.
 420:Middlewares/Third_Party/LwIP/src/core/pbuf.c ****  *        ATTENTION: The caller is responsible for correct alignment of this buffer!!
 421:Middlewares/Third_Party/LwIP/src/core/pbuf.c ****  * @param payload_mem_len the size of the 'payload_mem' buffer, must be at least
 422:Middlewares/Third_Party/LwIP/src/core/pbuf.c ****  *        big enough to hold 'length' plus the header size
 423:Middlewares/Third_Party/LwIP/src/core/pbuf.c ****  */
 424:Middlewares/Third_Party/LwIP/src/core/pbuf.c **** struct pbuf*
 425:Middlewares/Third_Party/LwIP/src/core/pbuf.c **** pbuf_alloced_custom(pbuf_layer l, u16_t length, pbuf_type type, struct pbuf_custom *p,
 426:Middlewares/Third_Party/LwIP/src/core/pbuf.c ****                     void *payload_mem, u16_t payload_mem_len)
 427:Middlewares/Third_Party/LwIP/src/core/pbuf.c **** {
 428:Middlewares/Third_Party/LwIP/src/core/pbuf.c ****   u16_t offset;
 429:Middlewares/Third_Party/LwIP/src/core/pbuf.c ****   LWIP_DEBUGF(PBUF_DEBUG | LWIP_DBG_TRACE, ("pbuf_alloced_custom(length=%"U16_F")\n", length));
 430:Middlewares/Third_Party/LwIP/src/core/pbuf.c **** 
 431:Middlewares/Third_Party/LwIP/src/core/pbuf.c ****   /* determine header offset */
ARM GAS  C:\Users\Patryk\AppData\Local\Temp\ccybDtdu.s 			page 9


 432:Middlewares/Third_Party/LwIP/src/core/pbuf.c ****   switch (l) {
 433:Middlewares/Third_Party/LwIP/src/core/pbuf.c ****   case PBUF_TRANSPORT:
 434:Middlewares/Third_Party/LwIP/src/core/pbuf.c ****     /* add room for transport (often TCP) layer header */
 435:Middlewares/Third_Party/LwIP/src/core/pbuf.c ****     offset = PBUF_LINK_ENCAPSULATION_HLEN + PBUF_LINK_HLEN + PBUF_IP_HLEN + PBUF_TRANSPORT_HLEN;
 436:Middlewares/Third_Party/LwIP/src/core/pbuf.c ****     break;
 437:Middlewares/Third_Party/LwIP/src/core/pbuf.c ****   case PBUF_IP:
 438:Middlewares/Third_Party/LwIP/src/core/pbuf.c ****     /* add room for IP layer header */
 439:Middlewares/Third_Party/LwIP/src/core/pbuf.c ****     offset = PBUF_LINK_ENCAPSULATION_HLEN + PBUF_LINK_HLEN + PBUF_IP_HLEN;
 440:Middlewares/Third_Party/LwIP/src/core/pbuf.c ****     break;
 441:Middlewares/Third_Party/LwIP/src/core/pbuf.c ****   case PBUF_LINK:
 442:Middlewares/Third_Party/LwIP/src/core/pbuf.c ****     /* add room for link layer header */
 443:Middlewares/Third_Party/LwIP/src/core/pbuf.c ****     offset = PBUF_LINK_ENCAPSULATION_HLEN + PBUF_LINK_HLEN;
 444:Middlewares/Third_Party/LwIP/src/core/pbuf.c ****     break;
 445:Middlewares/Third_Party/LwIP/src/core/pbuf.c ****   case PBUF_RAW_TX:
 446:Middlewares/Third_Party/LwIP/src/core/pbuf.c ****     /* add room for encapsulating link layer headers (e.g. 802.11) */
 447:Middlewares/Third_Party/LwIP/src/core/pbuf.c ****     offset = PBUF_LINK_ENCAPSULATION_HLEN;
 448:Middlewares/Third_Party/LwIP/src/core/pbuf.c ****     break;
 449:Middlewares/Third_Party/LwIP/src/core/pbuf.c ****   case PBUF_RAW:
 450:Middlewares/Third_Party/LwIP/src/core/pbuf.c ****     offset = 0;
 451:Middlewares/Third_Party/LwIP/src/core/pbuf.c ****     break;
 452:Middlewares/Third_Party/LwIP/src/core/pbuf.c ****   default:
 453:Middlewares/Third_Party/LwIP/src/core/pbuf.c ****     LWIP_ASSERT("pbuf_alloced_custom: bad pbuf layer", 0);
 454:Middlewares/Third_Party/LwIP/src/core/pbuf.c ****     return NULL;
 455:Middlewares/Third_Party/LwIP/src/core/pbuf.c ****   }
 456:Middlewares/Third_Party/LwIP/src/core/pbuf.c **** 
 457:Middlewares/Third_Party/LwIP/src/core/pbuf.c ****   if (LWIP_MEM_ALIGN_SIZE(offset) + length > payload_mem_len) {
 458:Middlewares/Third_Party/LwIP/src/core/pbuf.c ****     LWIP_DEBUGF(PBUF_DEBUG | LWIP_DBG_LEVEL_WARNING, ("pbuf_alloced_custom(length=%"U16_F") buffer 
 459:Middlewares/Third_Party/LwIP/src/core/pbuf.c ****     return NULL;
 460:Middlewares/Third_Party/LwIP/src/core/pbuf.c ****   }
 461:Middlewares/Third_Party/LwIP/src/core/pbuf.c **** 
 462:Middlewares/Third_Party/LwIP/src/core/pbuf.c ****   p->pbuf.next = NULL;
 463:Middlewares/Third_Party/LwIP/src/core/pbuf.c ****   if (payload_mem != NULL) {
 464:Middlewares/Third_Party/LwIP/src/core/pbuf.c ****     p->pbuf.payload = (u8_t *)payload_mem + LWIP_MEM_ALIGN_SIZE(offset);
 465:Middlewares/Third_Party/LwIP/src/core/pbuf.c ****   } else {
 466:Middlewares/Third_Party/LwIP/src/core/pbuf.c ****     p->pbuf.payload = NULL;
 467:Middlewares/Third_Party/LwIP/src/core/pbuf.c ****   }
 468:Middlewares/Third_Party/LwIP/src/core/pbuf.c ****   p->pbuf.flags = PBUF_FLAG_IS_CUSTOM;
 469:Middlewares/Third_Party/LwIP/src/core/pbuf.c ****   p->pbuf.len = p->pbuf.tot_len = length;
 470:Middlewares/Third_Party/LwIP/src/core/pbuf.c ****   p->pbuf.type = type;
 471:Middlewares/Third_Party/LwIP/src/core/pbuf.c ****   p->pbuf.ref = 1;
 472:Middlewares/Third_Party/LwIP/src/core/pbuf.c ****   return &p->pbuf;
 473:Middlewares/Third_Party/LwIP/src/core/pbuf.c **** }
 474:Middlewares/Third_Party/LwIP/src/core/pbuf.c **** #endif /* LWIP_SUPPORT_CUSTOM_PBUF */
 475:Middlewares/Third_Party/LwIP/src/core/pbuf.c **** 
 476:Middlewares/Third_Party/LwIP/src/core/pbuf.c **** /**
 477:Middlewares/Third_Party/LwIP/src/core/pbuf.c ****  * @ingroup pbuf
 478:Middlewares/Third_Party/LwIP/src/core/pbuf.c ****  * Shrink a pbuf chain to a desired length.
 479:Middlewares/Third_Party/LwIP/src/core/pbuf.c ****  *
 480:Middlewares/Third_Party/LwIP/src/core/pbuf.c ****  * @param p pbuf to shrink.
 481:Middlewares/Third_Party/LwIP/src/core/pbuf.c ****  * @param new_len desired new length of pbuf chain
 482:Middlewares/Third_Party/LwIP/src/core/pbuf.c ****  *
 483:Middlewares/Third_Party/LwIP/src/core/pbuf.c ****  * Depending on the desired length, the first few pbufs in a chain might
 484:Middlewares/Third_Party/LwIP/src/core/pbuf.c ****  * be skipped and left unchanged. The new last pbuf in the chain will be
 485:Middlewares/Third_Party/LwIP/src/core/pbuf.c ****  * resized, and any remaining pbufs will be freed.
 486:Middlewares/Third_Party/LwIP/src/core/pbuf.c ****  *
 487:Middlewares/Third_Party/LwIP/src/core/pbuf.c ****  * @note If the pbuf is ROM/REF, only the ->tot_len and ->len fields are adjusted.
 488:Middlewares/Third_Party/LwIP/src/core/pbuf.c ****  * @note May not be called on a packet queue.
ARM GAS  C:\Users\Patryk\AppData\Local\Temp\ccybDtdu.s 			page 10


 489:Middlewares/Third_Party/LwIP/src/core/pbuf.c ****  *
 490:Middlewares/Third_Party/LwIP/src/core/pbuf.c ****  * @note Despite its name, pbuf_realloc cannot grow the size of a pbuf (chain).
 491:Middlewares/Third_Party/LwIP/src/core/pbuf.c ****  */
 492:Middlewares/Third_Party/LwIP/src/core/pbuf.c **** void
 493:Middlewares/Third_Party/LwIP/src/core/pbuf.c **** pbuf_realloc(struct pbuf *p, u16_t new_len)
 494:Middlewares/Third_Party/LwIP/src/core/pbuf.c **** {
 495:Middlewares/Third_Party/LwIP/src/core/pbuf.c ****   struct pbuf *q;
 496:Middlewares/Third_Party/LwIP/src/core/pbuf.c ****   u16_t rem_len; /* remaining length */
 497:Middlewares/Third_Party/LwIP/src/core/pbuf.c ****   s32_t grow;
 498:Middlewares/Third_Party/LwIP/src/core/pbuf.c **** 
 499:Middlewares/Third_Party/LwIP/src/core/pbuf.c ****   LWIP_ASSERT("pbuf_realloc: p != NULL", p != NULL);
 500:Middlewares/Third_Party/LwIP/src/core/pbuf.c ****   LWIP_ASSERT("pbuf_realloc: sane p->type", p->type == PBUF_POOL ||
 501:Middlewares/Third_Party/LwIP/src/core/pbuf.c ****               p->type == PBUF_ROM ||
 502:Middlewares/Third_Party/LwIP/src/core/pbuf.c ****               p->type == PBUF_RAM ||
 503:Middlewares/Third_Party/LwIP/src/core/pbuf.c ****               p->type == PBUF_REF);
 504:Middlewares/Third_Party/LwIP/src/core/pbuf.c **** 
 505:Middlewares/Third_Party/LwIP/src/core/pbuf.c ****   /* desired length larger than current length? */
 506:Middlewares/Third_Party/LwIP/src/core/pbuf.c ****   if (new_len >= p->tot_len) {
 507:Middlewares/Third_Party/LwIP/src/core/pbuf.c ****     /* enlarging not yet supported */
 508:Middlewares/Third_Party/LwIP/src/core/pbuf.c ****     return;
 509:Middlewares/Third_Party/LwIP/src/core/pbuf.c ****   }
 510:Middlewares/Third_Party/LwIP/src/core/pbuf.c **** 
 511:Middlewares/Third_Party/LwIP/src/core/pbuf.c ****   /* the pbuf chain grows by (new_len - p->tot_len) bytes
 512:Middlewares/Third_Party/LwIP/src/core/pbuf.c ****    * (which may be negative in case of shrinking) */
 513:Middlewares/Third_Party/LwIP/src/core/pbuf.c ****   grow = new_len - p->tot_len;
 514:Middlewares/Third_Party/LwIP/src/core/pbuf.c **** 
 515:Middlewares/Third_Party/LwIP/src/core/pbuf.c ****   /* first, step over any pbufs that should remain in the chain */
 516:Middlewares/Third_Party/LwIP/src/core/pbuf.c ****   rem_len = new_len;
 517:Middlewares/Third_Party/LwIP/src/core/pbuf.c ****   q = p;
 518:Middlewares/Third_Party/LwIP/src/core/pbuf.c ****   /* should this pbuf be kept? */
 519:Middlewares/Third_Party/LwIP/src/core/pbuf.c ****   while (rem_len > q->len) {
 520:Middlewares/Third_Party/LwIP/src/core/pbuf.c ****     /* decrease remaining length by pbuf length */
 521:Middlewares/Third_Party/LwIP/src/core/pbuf.c ****     rem_len -= q->len;
 522:Middlewares/Third_Party/LwIP/src/core/pbuf.c ****     /* decrease total length indicator */
 523:Middlewares/Third_Party/LwIP/src/core/pbuf.c ****     LWIP_ASSERT("grow < max_u16_t", grow < 0xffff);
 524:Middlewares/Third_Party/LwIP/src/core/pbuf.c ****     q->tot_len += (u16_t)grow;
 525:Middlewares/Third_Party/LwIP/src/core/pbuf.c ****     /* proceed to next pbuf in chain */
 526:Middlewares/Third_Party/LwIP/src/core/pbuf.c ****     q = q->next;
 527:Middlewares/Third_Party/LwIP/src/core/pbuf.c ****     LWIP_ASSERT("pbuf_realloc: q != NULL", q != NULL);
 528:Middlewares/Third_Party/LwIP/src/core/pbuf.c ****   }
 529:Middlewares/Third_Party/LwIP/src/core/pbuf.c ****   /* we have now reached the new last pbuf (in q) */
 530:Middlewares/Third_Party/LwIP/src/core/pbuf.c ****   /* rem_len == desired length for pbuf q */
 531:Middlewares/Third_Party/LwIP/src/core/pbuf.c **** 
 532:Middlewares/Third_Party/LwIP/src/core/pbuf.c ****   /* shrink allocated memory for PBUF_RAM */
 533:Middlewares/Third_Party/LwIP/src/core/pbuf.c ****   /* (other types merely adjust their length fields */
 534:Middlewares/Third_Party/LwIP/src/core/pbuf.c ****   if ((q->type == PBUF_RAM) && (rem_len != q->len)
 535:Middlewares/Third_Party/LwIP/src/core/pbuf.c **** #if LWIP_SUPPORT_CUSTOM_PBUF
 536:Middlewares/Third_Party/LwIP/src/core/pbuf.c ****       && ((q->flags & PBUF_FLAG_IS_CUSTOM) == 0)
 537:Middlewares/Third_Party/LwIP/src/core/pbuf.c **** #endif /* LWIP_SUPPORT_CUSTOM_PBUF */
 538:Middlewares/Third_Party/LwIP/src/core/pbuf.c ****      ) {
 539:Middlewares/Third_Party/LwIP/src/core/pbuf.c ****     /* reallocate and adjust the length of the pbuf that will be split */
 540:Middlewares/Third_Party/LwIP/src/core/pbuf.c ****     q = (struct pbuf *)mem_trim(q, (u16_t)((u8_t *)q->payload - (u8_t *)q) + rem_len);
 541:Middlewares/Third_Party/LwIP/src/core/pbuf.c ****     LWIP_ASSERT("mem_trim returned q == NULL", q != NULL);
 542:Middlewares/Third_Party/LwIP/src/core/pbuf.c ****   }
 543:Middlewares/Third_Party/LwIP/src/core/pbuf.c ****   /* adjust length fields for new last pbuf */
 544:Middlewares/Third_Party/LwIP/src/core/pbuf.c ****   q->len = rem_len;
 545:Middlewares/Third_Party/LwIP/src/core/pbuf.c ****   q->tot_len = q->len;
ARM GAS  C:\Users\Patryk\AppData\Local\Temp\ccybDtdu.s 			page 11


 546:Middlewares/Third_Party/LwIP/src/core/pbuf.c **** 
 547:Middlewares/Third_Party/LwIP/src/core/pbuf.c ****   /* any remaining pbufs in chain? */
 548:Middlewares/Third_Party/LwIP/src/core/pbuf.c ****   if (q->next != NULL) {
 549:Middlewares/Third_Party/LwIP/src/core/pbuf.c ****     /* free remaining pbufs in chain */
 550:Middlewares/Third_Party/LwIP/src/core/pbuf.c ****     pbuf_free(q->next);
 551:Middlewares/Third_Party/LwIP/src/core/pbuf.c ****   }
 552:Middlewares/Third_Party/LwIP/src/core/pbuf.c ****   /* q is last packet in chain */
 553:Middlewares/Third_Party/LwIP/src/core/pbuf.c ****   q->next = NULL;
 554:Middlewares/Third_Party/LwIP/src/core/pbuf.c **** 
 555:Middlewares/Third_Party/LwIP/src/core/pbuf.c **** }
 556:Middlewares/Third_Party/LwIP/src/core/pbuf.c **** 
 557:Middlewares/Third_Party/LwIP/src/core/pbuf.c **** /**
 558:Middlewares/Third_Party/LwIP/src/core/pbuf.c ****  * Adjusts the payload pointer to hide or reveal headers in the payload.
 559:Middlewares/Third_Party/LwIP/src/core/pbuf.c ****  * @see pbuf_header.
 560:Middlewares/Third_Party/LwIP/src/core/pbuf.c ****  *
 561:Middlewares/Third_Party/LwIP/src/core/pbuf.c ****  * @param p pbuf to change the header size.
 562:Middlewares/Third_Party/LwIP/src/core/pbuf.c ****  * @param header_size_increment Number of bytes to increment header size.
 563:Middlewares/Third_Party/LwIP/src/core/pbuf.c ****  * @param force Allow 'header_size_increment > 0' for PBUF_REF/PBUF_ROM types
 564:Middlewares/Third_Party/LwIP/src/core/pbuf.c ****  *
 565:Middlewares/Third_Party/LwIP/src/core/pbuf.c ****  * @return non-zero on failure, zero on success.
 566:Middlewares/Third_Party/LwIP/src/core/pbuf.c ****  *
 567:Middlewares/Third_Party/LwIP/src/core/pbuf.c ****  */
 568:Middlewares/Third_Party/LwIP/src/core/pbuf.c **** static u8_t
 569:Middlewares/Third_Party/LwIP/src/core/pbuf.c **** pbuf_header_impl(struct pbuf *p, s16_t header_size_increment, u8_t force)
 570:Middlewares/Third_Party/LwIP/src/core/pbuf.c **** {
 571:Middlewares/Third_Party/LwIP/src/core/pbuf.c ****   u16_t type;
 572:Middlewares/Third_Party/LwIP/src/core/pbuf.c ****   void *payload;
 573:Middlewares/Third_Party/LwIP/src/core/pbuf.c ****   u16_t increment_magnitude;
 574:Middlewares/Third_Party/LwIP/src/core/pbuf.c **** 
 575:Middlewares/Third_Party/LwIP/src/core/pbuf.c ****   LWIP_ASSERT("p != NULL", p != NULL);
 576:Middlewares/Third_Party/LwIP/src/core/pbuf.c ****   if ((header_size_increment == 0) || (p == NULL)) {
 577:Middlewares/Third_Party/LwIP/src/core/pbuf.c ****     return 0;
 578:Middlewares/Third_Party/LwIP/src/core/pbuf.c ****   }
 579:Middlewares/Third_Party/LwIP/src/core/pbuf.c **** 
 580:Middlewares/Third_Party/LwIP/src/core/pbuf.c ****   if (header_size_increment < 0) {
 581:Middlewares/Third_Party/LwIP/src/core/pbuf.c ****     increment_magnitude = (u16_t)-header_size_increment;
 582:Middlewares/Third_Party/LwIP/src/core/pbuf.c ****     /* Check that we aren't going to move off the end of the pbuf */
 583:Middlewares/Third_Party/LwIP/src/core/pbuf.c ****     LWIP_ERROR("increment_magnitude <= p->len", (increment_magnitude <= p->len), return 1;);
 584:Middlewares/Third_Party/LwIP/src/core/pbuf.c ****   } else {
 585:Middlewares/Third_Party/LwIP/src/core/pbuf.c ****     increment_magnitude = (u16_t)header_size_increment;
 586:Middlewares/Third_Party/LwIP/src/core/pbuf.c **** #if 0
 587:Middlewares/Third_Party/LwIP/src/core/pbuf.c ****     /* Can't assert these as some callers speculatively call
 588:Middlewares/Third_Party/LwIP/src/core/pbuf.c ****          pbuf_header() to see if it's OK.  Will return 1 below instead. */
 589:Middlewares/Third_Party/LwIP/src/core/pbuf.c ****     /* Check that we've got the correct type of pbuf to work with */
 590:Middlewares/Third_Party/LwIP/src/core/pbuf.c ****     LWIP_ASSERT("p->type == PBUF_RAM || p->type == PBUF_POOL",
 591:Middlewares/Third_Party/LwIP/src/core/pbuf.c ****                 p->type == PBUF_RAM || p->type == PBUF_POOL);
 592:Middlewares/Third_Party/LwIP/src/core/pbuf.c ****     /* Check that we aren't going to move off the beginning of the pbuf */
 593:Middlewares/Third_Party/LwIP/src/core/pbuf.c ****     LWIP_ASSERT("p->payload - increment_magnitude >= p + SIZEOF_STRUCT_PBUF",
 594:Middlewares/Third_Party/LwIP/src/core/pbuf.c ****                 (u8_t *)p->payload - increment_magnitude >= (u8_t *)p + SIZEOF_STRUCT_PBUF);
 595:Middlewares/Third_Party/LwIP/src/core/pbuf.c **** #endif
 596:Middlewares/Third_Party/LwIP/src/core/pbuf.c ****   }
 597:Middlewares/Third_Party/LwIP/src/core/pbuf.c **** 
 598:Middlewares/Third_Party/LwIP/src/core/pbuf.c ****   type = p->type;
 599:Middlewares/Third_Party/LwIP/src/core/pbuf.c ****   /* remember current payload pointer */
 600:Middlewares/Third_Party/LwIP/src/core/pbuf.c ****   payload = p->payload;
 601:Middlewares/Third_Party/LwIP/src/core/pbuf.c **** 
 602:Middlewares/Third_Party/LwIP/src/core/pbuf.c ****   /* pbuf types containing payloads? */
ARM GAS  C:\Users\Patryk\AppData\Local\Temp\ccybDtdu.s 			page 12


 603:Middlewares/Third_Party/LwIP/src/core/pbuf.c ****   if (type == PBUF_RAM || type == PBUF_POOL) {
 604:Middlewares/Third_Party/LwIP/src/core/pbuf.c ****     /* set new payload pointer */
 605:Middlewares/Third_Party/LwIP/src/core/pbuf.c ****     p->payload = (u8_t *)p->payload - header_size_increment;
 606:Middlewares/Third_Party/LwIP/src/core/pbuf.c ****     /* boundary check fails? */
 607:Middlewares/Third_Party/LwIP/src/core/pbuf.c ****     if ((u8_t *)p->payload < (u8_t *)p + SIZEOF_STRUCT_PBUF) {
 608:Middlewares/Third_Party/LwIP/src/core/pbuf.c ****       LWIP_DEBUGF( PBUF_DEBUG | LWIP_DBG_TRACE,
 609:Middlewares/Third_Party/LwIP/src/core/pbuf.c ****         ("pbuf_header: failed as %p < %p (not enough space for new header size)\n",
 610:Middlewares/Third_Party/LwIP/src/core/pbuf.c ****         (void *)p->payload, (void *)((u8_t *)p + SIZEOF_STRUCT_PBUF)));
 611:Middlewares/Third_Party/LwIP/src/core/pbuf.c ****       /* restore old payload pointer */
 612:Middlewares/Third_Party/LwIP/src/core/pbuf.c ****       p->payload = payload;
 613:Middlewares/Third_Party/LwIP/src/core/pbuf.c ****       /* bail out unsuccessfully */
 614:Middlewares/Third_Party/LwIP/src/core/pbuf.c ****       return 1;
 615:Middlewares/Third_Party/LwIP/src/core/pbuf.c ****     }
 616:Middlewares/Third_Party/LwIP/src/core/pbuf.c ****   /* pbuf types referring to external payloads? */
 617:Middlewares/Third_Party/LwIP/src/core/pbuf.c ****   } else if (type == PBUF_REF || type == PBUF_ROM) {
 618:Middlewares/Third_Party/LwIP/src/core/pbuf.c ****     /* hide a header in the payload? */
 619:Middlewares/Third_Party/LwIP/src/core/pbuf.c ****     if ((header_size_increment < 0) && (increment_magnitude <= p->len)) {
 620:Middlewares/Third_Party/LwIP/src/core/pbuf.c ****       /* increase payload pointer */
 621:Middlewares/Third_Party/LwIP/src/core/pbuf.c ****       p->payload = (u8_t *)p->payload - header_size_increment;
 622:Middlewares/Third_Party/LwIP/src/core/pbuf.c ****     } else if ((header_size_increment > 0) && force) {
 623:Middlewares/Third_Party/LwIP/src/core/pbuf.c ****       p->payload = (u8_t *)p->payload - header_size_increment;
 624:Middlewares/Third_Party/LwIP/src/core/pbuf.c ****     } else {
 625:Middlewares/Third_Party/LwIP/src/core/pbuf.c ****       /* cannot expand payload to front (yet!)
 626:Middlewares/Third_Party/LwIP/src/core/pbuf.c ****        * bail out unsuccessfully */
 627:Middlewares/Third_Party/LwIP/src/core/pbuf.c ****       return 1;
 628:Middlewares/Third_Party/LwIP/src/core/pbuf.c ****     }
 629:Middlewares/Third_Party/LwIP/src/core/pbuf.c ****   } else {
 630:Middlewares/Third_Party/LwIP/src/core/pbuf.c ****     /* Unknown type */
 631:Middlewares/Third_Party/LwIP/src/core/pbuf.c ****     LWIP_ASSERT("bad pbuf type", 0);
 632:Middlewares/Third_Party/LwIP/src/core/pbuf.c ****     return 1;
 633:Middlewares/Third_Party/LwIP/src/core/pbuf.c ****   }
 634:Middlewares/Third_Party/LwIP/src/core/pbuf.c ****   /* modify pbuf length fields */
 635:Middlewares/Third_Party/LwIP/src/core/pbuf.c ****   p->len += header_size_increment;
 636:Middlewares/Third_Party/LwIP/src/core/pbuf.c ****   p->tot_len += header_size_increment;
 637:Middlewares/Third_Party/LwIP/src/core/pbuf.c **** 
 638:Middlewares/Third_Party/LwIP/src/core/pbuf.c ****   LWIP_DEBUGF(PBUF_DEBUG | LWIP_DBG_TRACE, ("pbuf_header: old %p new %p (%"S16_F")\n",
 639:Middlewares/Third_Party/LwIP/src/core/pbuf.c ****     (void *)payload, (void *)p->payload, header_size_increment));
 640:Middlewares/Third_Party/LwIP/src/core/pbuf.c **** 
 641:Middlewares/Third_Party/LwIP/src/core/pbuf.c ****   return 0;
 642:Middlewares/Third_Party/LwIP/src/core/pbuf.c **** }
 643:Middlewares/Third_Party/LwIP/src/core/pbuf.c **** 
 644:Middlewares/Third_Party/LwIP/src/core/pbuf.c **** /**
 645:Middlewares/Third_Party/LwIP/src/core/pbuf.c ****  * Adjusts the payload pointer to hide or reveal headers in the payload.
 646:Middlewares/Third_Party/LwIP/src/core/pbuf.c ****  *
 647:Middlewares/Third_Party/LwIP/src/core/pbuf.c ****  * Adjusts the ->payload pointer so that space for a header
 648:Middlewares/Third_Party/LwIP/src/core/pbuf.c ****  * (dis)appears in the pbuf payload.
 649:Middlewares/Third_Party/LwIP/src/core/pbuf.c ****  *
 650:Middlewares/Third_Party/LwIP/src/core/pbuf.c ****  * The ->payload, ->tot_len and ->len fields are adjusted.
 651:Middlewares/Third_Party/LwIP/src/core/pbuf.c ****  *
 652:Middlewares/Third_Party/LwIP/src/core/pbuf.c ****  * @param p pbuf to change the header size.
 653:Middlewares/Third_Party/LwIP/src/core/pbuf.c ****  * @param header_size_increment Number of bytes to increment header size which
 654:Middlewares/Third_Party/LwIP/src/core/pbuf.c ****  * increases the size of the pbuf. New space is on the front.
 655:Middlewares/Third_Party/LwIP/src/core/pbuf.c ****  * (Using a negative value decreases the header size.)
 656:Middlewares/Third_Party/LwIP/src/core/pbuf.c ****  * If hdr_size_inc is 0, this function does nothing and returns successful.
 657:Middlewares/Third_Party/LwIP/src/core/pbuf.c ****  *
 658:Middlewares/Third_Party/LwIP/src/core/pbuf.c ****  * PBUF_ROM and PBUF_REF type buffers cannot have their sizes increased, so
 659:Middlewares/Third_Party/LwIP/src/core/pbuf.c ****  * the call will fail. A check is made that the increase in header size does
ARM GAS  C:\Users\Patryk\AppData\Local\Temp\ccybDtdu.s 			page 13


 660:Middlewares/Third_Party/LwIP/src/core/pbuf.c ****  * not move the payload pointer in front of the start of the buffer.
 661:Middlewares/Third_Party/LwIP/src/core/pbuf.c ****  * @return non-zero on failure, zero on success.
 662:Middlewares/Third_Party/LwIP/src/core/pbuf.c ****  *
 663:Middlewares/Third_Party/LwIP/src/core/pbuf.c ****  */
 664:Middlewares/Third_Party/LwIP/src/core/pbuf.c **** u8_t
 665:Middlewares/Third_Party/LwIP/src/core/pbuf.c **** pbuf_header(struct pbuf *p, s16_t header_size_increment)
 666:Middlewares/Third_Party/LwIP/src/core/pbuf.c **** {
 667:Middlewares/Third_Party/LwIP/src/core/pbuf.c ****    return pbuf_header_impl(p, header_size_increment, 0);
 668:Middlewares/Third_Party/LwIP/src/core/pbuf.c **** }
 669:Middlewares/Third_Party/LwIP/src/core/pbuf.c **** 
 670:Middlewares/Third_Party/LwIP/src/core/pbuf.c **** /**
 671:Middlewares/Third_Party/LwIP/src/core/pbuf.c ****  * Same as pbuf_header but does not check if 'header_size > 0' is allowed.
 672:Middlewares/Third_Party/LwIP/src/core/pbuf.c ****  * This is used internally only, to allow PBUF_REF for RX.
 673:Middlewares/Third_Party/LwIP/src/core/pbuf.c ****  */
 674:Middlewares/Third_Party/LwIP/src/core/pbuf.c **** u8_t
 675:Middlewares/Third_Party/LwIP/src/core/pbuf.c **** pbuf_header_force(struct pbuf *p, s16_t header_size_increment)
 676:Middlewares/Third_Party/LwIP/src/core/pbuf.c **** {
 677:Middlewares/Third_Party/LwIP/src/core/pbuf.c ****    return pbuf_header_impl(p, header_size_increment, 1);
 678:Middlewares/Third_Party/LwIP/src/core/pbuf.c **** }
 679:Middlewares/Third_Party/LwIP/src/core/pbuf.c **** 
 680:Middlewares/Third_Party/LwIP/src/core/pbuf.c **** /**
 681:Middlewares/Third_Party/LwIP/src/core/pbuf.c ****  * @ingroup pbuf
 682:Middlewares/Third_Party/LwIP/src/core/pbuf.c ****  * Dereference a pbuf chain or queue and deallocate any no-longer-used
 683:Middlewares/Third_Party/LwIP/src/core/pbuf.c ****  * pbufs at the head of this chain or queue.
 684:Middlewares/Third_Party/LwIP/src/core/pbuf.c ****  *
 685:Middlewares/Third_Party/LwIP/src/core/pbuf.c ****  * Decrements the pbuf reference count. If it reaches zero, the pbuf is
 686:Middlewares/Third_Party/LwIP/src/core/pbuf.c ****  * deallocated.
 687:Middlewares/Third_Party/LwIP/src/core/pbuf.c ****  *
 688:Middlewares/Third_Party/LwIP/src/core/pbuf.c ****  * For a pbuf chain, this is repeated for each pbuf in the chain,
 689:Middlewares/Third_Party/LwIP/src/core/pbuf.c ****  * up to the first pbuf which has a non-zero reference count after
 690:Middlewares/Third_Party/LwIP/src/core/pbuf.c ****  * decrementing. So, when all reference counts are one, the whole
 691:Middlewares/Third_Party/LwIP/src/core/pbuf.c ****  * chain is free'd.
 692:Middlewares/Third_Party/LwIP/src/core/pbuf.c ****  *
 693:Middlewares/Third_Party/LwIP/src/core/pbuf.c ****  * @param p The pbuf (chain) to be dereferenced.
 694:Middlewares/Third_Party/LwIP/src/core/pbuf.c ****  *
 695:Middlewares/Third_Party/LwIP/src/core/pbuf.c ****  * @return the number of pbufs that were de-allocated
 696:Middlewares/Third_Party/LwIP/src/core/pbuf.c ****  * from the head of the chain.
 697:Middlewares/Third_Party/LwIP/src/core/pbuf.c ****  *
 698:Middlewares/Third_Party/LwIP/src/core/pbuf.c ****  * @note MUST NOT be called on a packet queue (Not verified to work yet).
 699:Middlewares/Third_Party/LwIP/src/core/pbuf.c ****  * @note the reference counter of a pbuf equals the number of pointers
 700:Middlewares/Third_Party/LwIP/src/core/pbuf.c ****  * that refer to the pbuf (or into the pbuf).
 701:Middlewares/Third_Party/LwIP/src/core/pbuf.c ****  *
 702:Middlewares/Third_Party/LwIP/src/core/pbuf.c ****  * @internal examples:
 703:Middlewares/Third_Party/LwIP/src/core/pbuf.c ****  *
 704:Middlewares/Third_Party/LwIP/src/core/pbuf.c ****  * Assuming existing chains a->b->c with the following reference
 705:Middlewares/Third_Party/LwIP/src/core/pbuf.c ****  * counts, calling pbuf_free(a) results in:
 706:Middlewares/Third_Party/LwIP/src/core/pbuf.c ****  *
 707:Middlewares/Third_Party/LwIP/src/core/pbuf.c ****  * 1->2->3 becomes ...1->3
 708:Middlewares/Third_Party/LwIP/src/core/pbuf.c ****  * 3->3->3 becomes 2->3->3
 709:Middlewares/Third_Party/LwIP/src/core/pbuf.c ****  * 1->1->2 becomes ......1
 710:Middlewares/Third_Party/LwIP/src/core/pbuf.c ****  * 2->1->1 becomes 1->1->1
 711:Middlewares/Third_Party/LwIP/src/core/pbuf.c ****  * 1->1->1 becomes .......
 712:Middlewares/Third_Party/LwIP/src/core/pbuf.c ****  *
 713:Middlewares/Third_Party/LwIP/src/core/pbuf.c ****  */
 714:Middlewares/Third_Party/LwIP/src/core/pbuf.c **** u8_t
 715:Middlewares/Third_Party/LwIP/src/core/pbuf.c **** pbuf_free(struct pbuf *p)
 716:Middlewares/Third_Party/LwIP/src/core/pbuf.c **** {
ARM GAS  C:\Users\Patryk\AppData\Local\Temp\ccybDtdu.s 			page 14


 717:Middlewares/Third_Party/LwIP/src/core/pbuf.c ****   u16_t type;
 718:Middlewares/Third_Party/LwIP/src/core/pbuf.c ****   struct pbuf *q;
 719:Middlewares/Third_Party/LwIP/src/core/pbuf.c ****   u8_t count;
 720:Middlewares/Third_Party/LwIP/src/core/pbuf.c **** 
 721:Middlewares/Third_Party/LwIP/src/core/pbuf.c ****   if (p == NULL) {
 722:Middlewares/Third_Party/LwIP/src/core/pbuf.c ****     LWIP_ASSERT("p != NULL", p != NULL);
 723:Middlewares/Third_Party/LwIP/src/core/pbuf.c ****     /* if assertions are disabled, proceed with debug output */
 724:Middlewares/Third_Party/LwIP/src/core/pbuf.c ****     LWIP_DEBUGF(PBUF_DEBUG | LWIP_DBG_LEVEL_SERIOUS,
 725:Middlewares/Third_Party/LwIP/src/core/pbuf.c ****       ("pbuf_free(p == NULL) was called.\n"));
 726:Middlewares/Third_Party/LwIP/src/core/pbuf.c ****     return 0;
 727:Middlewares/Third_Party/LwIP/src/core/pbuf.c ****   }
 728:Middlewares/Third_Party/LwIP/src/core/pbuf.c ****   LWIP_DEBUGF(PBUF_DEBUG | LWIP_DBG_TRACE, ("pbuf_free(%p)\n", (void *)p));
 729:Middlewares/Third_Party/LwIP/src/core/pbuf.c **** 
 730:Middlewares/Third_Party/LwIP/src/core/pbuf.c ****   PERF_START;
 731:Middlewares/Third_Party/LwIP/src/core/pbuf.c **** 
 732:Middlewares/Third_Party/LwIP/src/core/pbuf.c ****   LWIP_ASSERT("pbuf_free: sane type",
 733:Middlewares/Third_Party/LwIP/src/core/pbuf.c ****     p->type == PBUF_RAM || p->type == PBUF_ROM ||
 734:Middlewares/Third_Party/LwIP/src/core/pbuf.c ****     p->type == PBUF_REF || p->type == PBUF_POOL);
 735:Middlewares/Third_Party/LwIP/src/core/pbuf.c **** 
 736:Middlewares/Third_Party/LwIP/src/core/pbuf.c ****   count = 0;
 737:Middlewares/Third_Party/LwIP/src/core/pbuf.c ****   /* de-allocate all consecutive pbufs from the head of the chain that
 738:Middlewares/Third_Party/LwIP/src/core/pbuf.c ****    * obtain a zero reference count after decrementing*/
 739:Middlewares/Third_Party/LwIP/src/core/pbuf.c ****   while (p != NULL) {
 740:Middlewares/Third_Party/LwIP/src/core/pbuf.c ****     u16_t ref;
 741:Middlewares/Third_Party/LwIP/src/core/pbuf.c ****     SYS_ARCH_DECL_PROTECT(old_level);
 742:Middlewares/Third_Party/LwIP/src/core/pbuf.c ****     /* Since decrementing ref cannot be guaranteed to be a single machine operation
 743:Middlewares/Third_Party/LwIP/src/core/pbuf.c ****      * we must protect it. We put the new ref into a local variable to prevent
 744:Middlewares/Third_Party/LwIP/src/core/pbuf.c ****      * further protection. */
 745:Middlewares/Third_Party/LwIP/src/core/pbuf.c ****     SYS_ARCH_PROTECT(old_level);
 746:Middlewares/Third_Party/LwIP/src/core/pbuf.c ****     /* all pbufs in a chain are referenced at least once */
 747:Middlewares/Third_Party/LwIP/src/core/pbuf.c ****     LWIP_ASSERT("pbuf_free: p->ref > 0", p->ref > 0);
 748:Middlewares/Third_Party/LwIP/src/core/pbuf.c ****     /* decrease reference count (number of pointers to pbuf) */
 749:Middlewares/Third_Party/LwIP/src/core/pbuf.c ****     ref = --(p->ref);
 750:Middlewares/Third_Party/LwIP/src/core/pbuf.c ****     SYS_ARCH_UNPROTECT(old_level);
 751:Middlewares/Third_Party/LwIP/src/core/pbuf.c ****     /* this pbuf is no longer referenced to? */
 752:Middlewares/Third_Party/LwIP/src/core/pbuf.c ****     if (ref == 0) {
 753:Middlewares/Third_Party/LwIP/src/core/pbuf.c ****       /* remember next pbuf in chain for next iteration */
 754:Middlewares/Third_Party/LwIP/src/core/pbuf.c ****       q = p->next;
 755:Middlewares/Third_Party/LwIP/src/core/pbuf.c ****       LWIP_DEBUGF( PBUF_DEBUG | LWIP_DBG_TRACE, ("pbuf_free: deallocating %p\n", (void *)p));
 756:Middlewares/Third_Party/LwIP/src/core/pbuf.c ****       type = p->type;
 757:Middlewares/Third_Party/LwIP/src/core/pbuf.c **** #if LWIP_SUPPORT_CUSTOM_PBUF
 758:Middlewares/Third_Party/LwIP/src/core/pbuf.c ****       /* is this a custom pbuf? */
 759:Middlewares/Third_Party/LwIP/src/core/pbuf.c ****       if ((p->flags & PBUF_FLAG_IS_CUSTOM) != 0) {
 760:Middlewares/Third_Party/LwIP/src/core/pbuf.c ****         struct pbuf_custom *pc = (struct pbuf_custom*)p;
 761:Middlewares/Third_Party/LwIP/src/core/pbuf.c ****         LWIP_ASSERT("pc->custom_free_function != NULL", pc->custom_free_function != NULL);
 762:Middlewares/Third_Party/LwIP/src/core/pbuf.c ****         pc->custom_free_function(p);
 763:Middlewares/Third_Party/LwIP/src/core/pbuf.c ****       } else
 764:Middlewares/Third_Party/LwIP/src/core/pbuf.c **** #endif /* LWIP_SUPPORT_CUSTOM_PBUF */
 765:Middlewares/Third_Party/LwIP/src/core/pbuf.c ****       {
 766:Middlewares/Third_Party/LwIP/src/core/pbuf.c ****         /* is this a pbuf from the pool? */
 767:Middlewares/Third_Party/LwIP/src/core/pbuf.c ****         if (type == PBUF_POOL) {
 768:Middlewares/Third_Party/LwIP/src/core/pbuf.c ****           memp_free(MEMP_PBUF_POOL, p);
 769:Middlewares/Third_Party/LwIP/src/core/pbuf.c ****         /* is this a ROM or RAM referencing pbuf? */
 770:Middlewares/Third_Party/LwIP/src/core/pbuf.c ****         } else if (type == PBUF_ROM || type == PBUF_REF) {
 771:Middlewares/Third_Party/LwIP/src/core/pbuf.c ****           memp_free(MEMP_PBUF, p);
 772:Middlewares/Third_Party/LwIP/src/core/pbuf.c ****         /* type == PBUF_RAM */
 773:Middlewares/Third_Party/LwIP/src/core/pbuf.c ****         } else {
ARM GAS  C:\Users\Patryk\AppData\Local\Temp\ccybDtdu.s 			page 15


 774:Middlewares/Third_Party/LwIP/src/core/pbuf.c ****           mem_free(p);
 775:Middlewares/Third_Party/LwIP/src/core/pbuf.c ****         }
 776:Middlewares/Third_Party/LwIP/src/core/pbuf.c ****       }
 777:Middlewares/Third_Party/LwIP/src/core/pbuf.c ****       count++;
 778:Middlewares/Third_Party/LwIP/src/core/pbuf.c ****       /* proceed to next pbuf */
 779:Middlewares/Third_Party/LwIP/src/core/pbuf.c ****       p = q;
 780:Middlewares/Third_Party/LwIP/src/core/pbuf.c ****     /* p->ref > 0, this pbuf is still referenced to */
 781:Middlewares/Third_Party/LwIP/src/core/pbuf.c ****     /* (and so the remaining pbufs in chain as well) */
 782:Middlewares/Third_Party/LwIP/src/core/pbuf.c ****     } else {
 783:Middlewares/Third_Party/LwIP/src/core/pbuf.c ****       LWIP_DEBUGF( PBUF_DEBUG | LWIP_DBG_TRACE, ("pbuf_free: %p has ref %"U16_F", ending here.\n", 
 784:Middlewares/Third_Party/LwIP/src/core/pbuf.c ****       /* stop walking through the chain */
 785:Middlewares/Third_Party/LwIP/src/core/pbuf.c ****       p = NULL;
 786:Middlewares/Third_Party/LwIP/src/core/pbuf.c ****     }
 787:Middlewares/Third_Party/LwIP/src/core/pbuf.c ****   }
 788:Middlewares/Third_Party/LwIP/src/core/pbuf.c ****   PERF_STOP("pbuf_free");
 789:Middlewares/Third_Party/LwIP/src/core/pbuf.c ****   /* return number of de-allocated pbufs */
 790:Middlewares/Third_Party/LwIP/src/core/pbuf.c ****   return count;
 791:Middlewares/Third_Party/LwIP/src/core/pbuf.c **** }
 792:Middlewares/Third_Party/LwIP/src/core/pbuf.c **** 
 793:Middlewares/Third_Party/LwIP/src/core/pbuf.c **** /**
 794:Middlewares/Third_Party/LwIP/src/core/pbuf.c ****  * Count number of pbufs in a chain
 795:Middlewares/Third_Party/LwIP/src/core/pbuf.c ****  *
 796:Middlewares/Third_Party/LwIP/src/core/pbuf.c ****  * @param p first pbuf of chain
 797:Middlewares/Third_Party/LwIP/src/core/pbuf.c ****  * @return the number of pbufs in a chain
 798:Middlewares/Third_Party/LwIP/src/core/pbuf.c ****  */
 799:Middlewares/Third_Party/LwIP/src/core/pbuf.c **** u16_t
 800:Middlewares/Third_Party/LwIP/src/core/pbuf.c **** pbuf_clen(const struct pbuf *p)
 801:Middlewares/Third_Party/LwIP/src/core/pbuf.c **** {
 802:Middlewares/Third_Party/LwIP/src/core/pbuf.c ****   u16_t len;
 803:Middlewares/Third_Party/LwIP/src/core/pbuf.c **** 
 804:Middlewares/Third_Party/LwIP/src/core/pbuf.c ****   len = 0;
 805:Middlewares/Third_Party/LwIP/src/core/pbuf.c ****   while (p != NULL) {
 806:Middlewares/Third_Party/LwIP/src/core/pbuf.c ****     ++len;
 807:Middlewares/Third_Party/LwIP/src/core/pbuf.c ****     p = p->next;
 808:Middlewares/Third_Party/LwIP/src/core/pbuf.c ****   }
 809:Middlewares/Third_Party/LwIP/src/core/pbuf.c ****   return len;
 810:Middlewares/Third_Party/LwIP/src/core/pbuf.c **** }
 811:Middlewares/Third_Party/LwIP/src/core/pbuf.c **** 
 812:Middlewares/Third_Party/LwIP/src/core/pbuf.c **** /**
 813:Middlewares/Third_Party/LwIP/src/core/pbuf.c ****  * @ingroup pbuf
 814:Middlewares/Third_Party/LwIP/src/core/pbuf.c ****  * Increment the reference count of the pbuf.
 815:Middlewares/Third_Party/LwIP/src/core/pbuf.c ****  *
 816:Middlewares/Third_Party/LwIP/src/core/pbuf.c ****  * @param p pbuf to increase reference counter of
 817:Middlewares/Third_Party/LwIP/src/core/pbuf.c ****  *
 818:Middlewares/Third_Party/LwIP/src/core/pbuf.c ****  */
 819:Middlewares/Third_Party/LwIP/src/core/pbuf.c **** void
 820:Middlewares/Third_Party/LwIP/src/core/pbuf.c **** pbuf_ref(struct pbuf *p)
 821:Middlewares/Third_Party/LwIP/src/core/pbuf.c **** {
 822:Middlewares/Third_Party/LwIP/src/core/pbuf.c ****   /* pbuf given? */
 823:Middlewares/Third_Party/LwIP/src/core/pbuf.c ****   if (p != NULL) {
 824:Middlewares/Third_Party/LwIP/src/core/pbuf.c ****     SYS_ARCH_INC(p->ref, 1);
 825:Middlewares/Third_Party/LwIP/src/core/pbuf.c ****     LWIP_ASSERT("pbuf ref overflow", p->ref > 0);
 826:Middlewares/Third_Party/LwIP/src/core/pbuf.c ****   }
 827:Middlewares/Third_Party/LwIP/src/core/pbuf.c **** }
 828:Middlewares/Third_Party/LwIP/src/core/pbuf.c **** 
 829:Middlewares/Third_Party/LwIP/src/core/pbuf.c **** /**
 830:Middlewares/Third_Party/LwIP/src/core/pbuf.c ****  * @ingroup pbuf
ARM GAS  C:\Users\Patryk\AppData\Local\Temp\ccybDtdu.s 			page 16


 831:Middlewares/Third_Party/LwIP/src/core/pbuf.c ****  * Concatenate two pbufs (each may be a pbuf chain) and take over
 832:Middlewares/Third_Party/LwIP/src/core/pbuf.c ****  * the caller's reference of the tail pbuf.
 833:Middlewares/Third_Party/LwIP/src/core/pbuf.c ****  *
 834:Middlewares/Third_Party/LwIP/src/core/pbuf.c ****  * @note The caller MAY NOT reference the tail pbuf afterwards.
 835:Middlewares/Third_Party/LwIP/src/core/pbuf.c ****  * Use pbuf_chain() for that purpose.
 836:Middlewares/Third_Party/LwIP/src/core/pbuf.c ****  *
 837:Middlewares/Third_Party/LwIP/src/core/pbuf.c ****  * @see pbuf_chain()
 838:Middlewares/Third_Party/LwIP/src/core/pbuf.c ****  */
 839:Middlewares/Third_Party/LwIP/src/core/pbuf.c **** void
 840:Middlewares/Third_Party/LwIP/src/core/pbuf.c **** pbuf_cat(struct pbuf *h, struct pbuf *t)
 841:Middlewares/Third_Party/LwIP/src/core/pbuf.c **** {
 842:Middlewares/Third_Party/LwIP/src/core/pbuf.c ****   struct pbuf *p;
 843:Middlewares/Third_Party/LwIP/src/core/pbuf.c **** 
 844:Middlewares/Third_Party/LwIP/src/core/pbuf.c ****   LWIP_ERROR("(h != NULL) && (t != NULL) (programmer violates API)",
 845:Middlewares/Third_Party/LwIP/src/core/pbuf.c ****              ((h != NULL) && (t != NULL)), return;);
 846:Middlewares/Third_Party/LwIP/src/core/pbuf.c **** 
 847:Middlewares/Third_Party/LwIP/src/core/pbuf.c ****   /* proceed to last pbuf of chain */
 848:Middlewares/Third_Party/LwIP/src/core/pbuf.c ****   for (p = h; p->next != NULL; p = p->next) {
 849:Middlewares/Third_Party/LwIP/src/core/pbuf.c ****     /* add total length of second chain to all totals of first chain */
 850:Middlewares/Third_Party/LwIP/src/core/pbuf.c ****     p->tot_len += t->tot_len;
 851:Middlewares/Third_Party/LwIP/src/core/pbuf.c ****   }
 852:Middlewares/Third_Party/LwIP/src/core/pbuf.c ****   /* { p is last pbuf of first h chain, p->next == NULL } */
 853:Middlewares/Third_Party/LwIP/src/core/pbuf.c ****   LWIP_ASSERT("p->tot_len == p->len (of last pbuf in chain)", p->tot_len == p->len);
 854:Middlewares/Third_Party/LwIP/src/core/pbuf.c ****   LWIP_ASSERT("p->next == NULL", p->next == NULL);
 855:Middlewares/Third_Party/LwIP/src/core/pbuf.c ****   /* add total length of second chain to last pbuf total of first chain */
 856:Middlewares/Third_Party/LwIP/src/core/pbuf.c ****   p->tot_len += t->tot_len;
 857:Middlewares/Third_Party/LwIP/src/core/pbuf.c ****   /* chain last pbuf of head (p) with first of tail (t) */
 858:Middlewares/Third_Party/LwIP/src/core/pbuf.c ****   p->next = t;
 859:Middlewares/Third_Party/LwIP/src/core/pbuf.c ****   /* p->next now references t, but the caller will drop its reference to t,
 860:Middlewares/Third_Party/LwIP/src/core/pbuf.c ****    * so netto there is no change to the reference count of t.
 861:Middlewares/Third_Party/LwIP/src/core/pbuf.c ****    */
 862:Middlewares/Third_Party/LwIP/src/core/pbuf.c **** }
 863:Middlewares/Third_Party/LwIP/src/core/pbuf.c **** 
 864:Middlewares/Third_Party/LwIP/src/core/pbuf.c **** /**
 865:Middlewares/Third_Party/LwIP/src/core/pbuf.c ****  * @ingroup pbuf
 866:Middlewares/Third_Party/LwIP/src/core/pbuf.c ****  * Chain two pbufs (or pbuf chains) together.
 867:Middlewares/Third_Party/LwIP/src/core/pbuf.c ****  *
 868:Middlewares/Third_Party/LwIP/src/core/pbuf.c ****  * The caller MUST call pbuf_free(t) once it has stopped
 869:Middlewares/Third_Party/LwIP/src/core/pbuf.c ****  * using it. Use pbuf_cat() instead if you no longer use t.
 870:Middlewares/Third_Party/LwIP/src/core/pbuf.c ****  *
 871:Middlewares/Third_Party/LwIP/src/core/pbuf.c ****  * @param h head pbuf (chain)
 872:Middlewares/Third_Party/LwIP/src/core/pbuf.c ****  * @param t tail pbuf (chain)
 873:Middlewares/Third_Party/LwIP/src/core/pbuf.c ****  * @note The pbufs MUST belong to the same packet.
 874:Middlewares/Third_Party/LwIP/src/core/pbuf.c ****  * @note MAY NOT be called on a packet queue.
 875:Middlewares/Third_Party/LwIP/src/core/pbuf.c ****  *
 876:Middlewares/Third_Party/LwIP/src/core/pbuf.c ****  * The ->tot_len fields of all pbufs of the head chain are adjusted.
 877:Middlewares/Third_Party/LwIP/src/core/pbuf.c ****  * The ->next field of the last pbuf of the head chain is adjusted.
 878:Middlewares/Third_Party/LwIP/src/core/pbuf.c ****  * The ->ref field of the first pbuf of the tail chain is adjusted.
 879:Middlewares/Third_Party/LwIP/src/core/pbuf.c ****  *
 880:Middlewares/Third_Party/LwIP/src/core/pbuf.c ****  */
 881:Middlewares/Third_Party/LwIP/src/core/pbuf.c **** void
 882:Middlewares/Third_Party/LwIP/src/core/pbuf.c **** pbuf_chain(struct pbuf *h, struct pbuf *t)
 883:Middlewares/Third_Party/LwIP/src/core/pbuf.c **** {
 884:Middlewares/Third_Party/LwIP/src/core/pbuf.c ****   pbuf_cat(h, t);
 885:Middlewares/Third_Party/LwIP/src/core/pbuf.c ****   /* t is now referenced by h */
 886:Middlewares/Third_Party/LwIP/src/core/pbuf.c ****   pbuf_ref(t);
 887:Middlewares/Third_Party/LwIP/src/core/pbuf.c ****   LWIP_DEBUGF(PBUF_DEBUG | LWIP_DBG_TRACE, ("pbuf_chain: %p references %p\n", (void *)h, (void *)t)
ARM GAS  C:\Users\Patryk\AppData\Local\Temp\ccybDtdu.s 			page 17


 888:Middlewares/Third_Party/LwIP/src/core/pbuf.c **** }
 889:Middlewares/Third_Party/LwIP/src/core/pbuf.c **** 
 890:Middlewares/Third_Party/LwIP/src/core/pbuf.c **** /**
 891:Middlewares/Third_Party/LwIP/src/core/pbuf.c ****  * Dechains the first pbuf from its succeeding pbufs in the chain.
 892:Middlewares/Third_Party/LwIP/src/core/pbuf.c ****  *
 893:Middlewares/Third_Party/LwIP/src/core/pbuf.c ****  * Makes p->tot_len field equal to p->len.
 894:Middlewares/Third_Party/LwIP/src/core/pbuf.c ****  * @param p pbuf to dechain
 895:Middlewares/Third_Party/LwIP/src/core/pbuf.c ****  * @return remainder of the pbuf chain, or NULL if it was de-allocated.
 896:Middlewares/Third_Party/LwIP/src/core/pbuf.c ****  * @note May not be called on a packet queue.
 897:Middlewares/Third_Party/LwIP/src/core/pbuf.c ****  */
 898:Middlewares/Third_Party/LwIP/src/core/pbuf.c **** struct pbuf *
 899:Middlewares/Third_Party/LwIP/src/core/pbuf.c **** pbuf_dechain(struct pbuf *p)
 900:Middlewares/Third_Party/LwIP/src/core/pbuf.c **** {
 901:Middlewares/Third_Party/LwIP/src/core/pbuf.c ****   struct pbuf *q;
 902:Middlewares/Third_Party/LwIP/src/core/pbuf.c ****   u8_t tail_gone = 1;
 903:Middlewares/Third_Party/LwIP/src/core/pbuf.c ****   /* tail */
 904:Middlewares/Third_Party/LwIP/src/core/pbuf.c ****   q = p->next;
 905:Middlewares/Third_Party/LwIP/src/core/pbuf.c ****   /* pbuf has successor in chain? */
 906:Middlewares/Third_Party/LwIP/src/core/pbuf.c ****   if (q != NULL) {
 907:Middlewares/Third_Party/LwIP/src/core/pbuf.c ****     /* assert tot_len invariant: (p->tot_len == p->len + (p->next? p->next->tot_len: 0) */
 908:Middlewares/Third_Party/LwIP/src/core/pbuf.c ****     LWIP_ASSERT("p->tot_len == p->len + q->tot_len", q->tot_len == p->tot_len - p->len);
 909:Middlewares/Third_Party/LwIP/src/core/pbuf.c ****     /* enforce invariant if assertion is disabled */
 910:Middlewares/Third_Party/LwIP/src/core/pbuf.c ****     q->tot_len = p->tot_len - p->len;
 911:Middlewares/Third_Party/LwIP/src/core/pbuf.c ****     /* decouple pbuf from remainder */
 912:Middlewares/Third_Party/LwIP/src/core/pbuf.c ****     p->next = NULL;
 913:Middlewares/Third_Party/LwIP/src/core/pbuf.c ****     /* total length of pbuf p is its own length only */
 914:Middlewares/Third_Party/LwIP/src/core/pbuf.c ****     p->tot_len = p->len;
 915:Middlewares/Third_Party/LwIP/src/core/pbuf.c ****     /* q is no longer referenced by p, free it */
 916:Middlewares/Third_Party/LwIP/src/core/pbuf.c ****     LWIP_DEBUGF(PBUF_DEBUG | LWIP_DBG_TRACE, ("pbuf_dechain: unreferencing %p\n", (void *)q));
 917:Middlewares/Third_Party/LwIP/src/core/pbuf.c ****     tail_gone = pbuf_free(q);
 918:Middlewares/Third_Party/LwIP/src/core/pbuf.c ****     if (tail_gone > 0) {
 919:Middlewares/Third_Party/LwIP/src/core/pbuf.c ****       LWIP_DEBUGF(PBUF_DEBUG | LWIP_DBG_TRACE,
 920:Middlewares/Third_Party/LwIP/src/core/pbuf.c ****                   ("pbuf_dechain: deallocated %p (as it is no longer referenced)\n", (void *)q));
 921:Middlewares/Third_Party/LwIP/src/core/pbuf.c ****     }
 922:Middlewares/Third_Party/LwIP/src/core/pbuf.c ****     /* return remaining tail or NULL if deallocated */
 923:Middlewares/Third_Party/LwIP/src/core/pbuf.c ****   }
 924:Middlewares/Third_Party/LwIP/src/core/pbuf.c ****   /* assert tot_len invariant: (p->tot_len == p->len + (p->next? p->next->tot_len: 0) */
 925:Middlewares/Third_Party/LwIP/src/core/pbuf.c ****   LWIP_ASSERT("p->tot_len == p->len", p->tot_len == p->len);
 926:Middlewares/Third_Party/LwIP/src/core/pbuf.c ****   return ((tail_gone > 0) ? NULL : q);
 927:Middlewares/Third_Party/LwIP/src/core/pbuf.c **** }
 928:Middlewares/Third_Party/LwIP/src/core/pbuf.c **** 
 929:Middlewares/Third_Party/LwIP/src/core/pbuf.c **** /**
 930:Middlewares/Third_Party/LwIP/src/core/pbuf.c ****  * @ingroup pbuf
 931:Middlewares/Third_Party/LwIP/src/core/pbuf.c ****  * Create PBUF_RAM copies of pbufs.
 932:Middlewares/Third_Party/LwIP/src/core/pbuf.c ****  *
 933:Middlewares/Third_Party/LwIP/src/core/pbuf.c ****  * Used to queue packets on behalf of the lwIP stack, such as
 934:Middlewares/Third_Party/LwIP/src/core/pbuf.c ****  * ARP based queueing.
 935:Middlewares/Third_Party/LwIP/src/core/pbuf.c ****  *
 936:Middlewares/Third_Party/LwIP/src/core/pbuf.c ****  * @note You MUST explicitly use p = pbuf_take(p);
 937:Middlewares/Third_Party/LwIP/src/core/pbuf.c ****  *
 938:Middlewares/Third_Party/LwIP/src/core/pbuf.c ****  * @note Only one packet is copied, no packet queue!
 939:Middlewares/Third_Party/LwIP/src/core/pbuf.c ****  *
 940:Middlewares/Third_Party/LwIP/src/core/pbuf.c ****  * @param p_to pbuf destination of the copy
 941:Middlewares/Third_Party/LwIP/src/core/pbuf.c ****  * @param p_from pbuf source of the copy
 942:Middlewares/Third_Party/LwIP/src/core/pbuf.c ****  *
 943:Middlewares/Third_Party/LwIP/src/core/pbuf.c ****  * @return ERR_OK if pbuf was copied
 944:Middlewares/Third_Party/LwIP/src/core/pbuf.c ****  *         ERR_ARG if one of the pbufs is NULL or p_to is not big
ARM GAS  C:\Users\Patryk\AppData\Local\Temp\ccybDtdu.s 			page 18


 945:Middlewares/Third_Party/LwIP/src/core/pbuf.c ****  *                 enough to hold p_from
 946:Middlewares/Third_Party/LwIP/src/core/pbuf.c ****  */
 947:Middlewares/Third_Party/LwIP/src/core/pbuf.c **** err_t
 948:Middlewares/Third_Party/LwIP/src/core/pbuf.c **** pbuf_copy(struct pbuf *p_to, const struct pbuf *p_from)
 949:Middlewares/Third_Party/LwIP/src/core/pbuf.c **** {
 950:Middlewares/Third_Party/LwIP/src/core/pbuf.c ****   u16_t offset_to=0, offset_from=0, len;
 951:Middlewares/Third_Party/LwIP/src/core/pbuf.c **** 
 952:Middlewares/Third_Party/LwIP/src/core/pbuf.c ****   LWIP_DEBUGF(PBUF_DEBUG | LWIP_DBG_TRACE, ("pbuf_copy(%p, %p)\n",
 953:Middlewares/Third_Party/LwIP/src/core/pbuf.c ****     (const void*)p_to, (const void*)p_from));
 954:Middlewares/Third_Party/LwIP/src/core/pbuf.c **** 
 955:Middlewares/Third_Party/LwIP/src/core/pbuf.c ****   /* is the target big enough to hold the source? */
 956:Middlewares/Third_Party/LwIP/src/core/pbuf.c ****   LWIP_ERROR("pbuf_copy: target not big enough to hold source", ((p_to != NULL) &&
 957:Middlewares/Third_Party/LwIP/src/core/pbuf.c ****              (p_from != NULL) && (p_to->tot_len >= p_from->tot_len)), return ERR_ARG;);
 958:Middlewares/Third_Party/LwIP/src/core/pbuf.c **** 
 959:Middlewares/Third_Party/LwIP/src/core/pbuf.c ****   /* iterate through pbuf chain */
 960:Middlewares/Third_Party/LwIP/src/core/pbuf.c ****   do
 961:Middlewares/Third_Party/LwIP/src/core/pbuf.c ****   {
 962:Middlewares/Third_Party/LwIP/src/core/pbuf.c ****     /* copy one part of the original chain */
 963:Middlewares/Third_Party/LwIP/src/core/pbuf.c ****     if ((p_to->len - offset_to) >= (p_from->len - offset_from)) {
 964:Middlewares/Third_Party/LwIP/src/core/pbuf.c ****       /* complete current p_from fits into current p_to */
 965:Middlewares/Third_Party/LwIP/src/core/pbuf.c ****       len = p_from->len - offset_from;
 966:Middlewares/Third_Party/LwIP/src/core/pbuf.c ****     } else {
 967:Middlewares/Third_Party/LwIP/src/core/pbuf.c ****       /* current p_from does not fit into current p_to */
 968:Middlewares/Third_Party/LwIP/src/core/pbuf.c ****       len = p_to->len - offset_to;
 969:Middlewares/Third_Party/LwIP/src/core/pbuf.c ****     }
 970:Middlewares/Third_Party/LwIP/src/core/pbuf.c ****     MEMCPY((u8_t*)p_to->payload + offset_to, (u8_t*)p_from->payload + offset_from, len);
 971:Middlewares/Third_Party/LwIP/src/core/pbuf.c ****     offset_to += len;
 972:Middlewares/Third_Party/LwIP/src/core/pbuf.c ****     offset_from += len;
 973:Middlewares/Third_Party/LwIP/src/core/pbuf.c ****     LWIP_ASSERT("offset_to <= p_to->len", offset_to <= p_to->len);
 974:Middlewares/Third_Party/LwIP/src/core/pbuf.c ****     LWIP_ASSERT("offset_from <= p_from->len", offset_from <= p_from->len);
 975:Middlewares/Third_Party/LwIP/src/core/pbuf.c ****     if (offset_from >= p_from->len) {
 976:Middlewares/Third_Party/LwIP/src/core/pbuf.c ****       /* on to next p_from (if any) */
 977:Middlewares/Third_Party/LwIP/src/core/pbuf.c ****       offset_from = 0;
 978:Middlewares/Third_Party/LwIP/src/core/pbuf.c ****       p_from = p_from->next;
 979:Middlewares/Third_Party/LwIP/src/core/pbuf.c ****     }
 980:Middlewares/Third_Party/LwIP/src/core/pbuf.c ****     if (offset_to == p_to->len) {
 981:Middlewares/Third_Party/LwIP/src/core/pbuf.c ****       /* on to next p_to (if any) */
 982:Middlewares/Third_Party/LwIP/src/core/pbuf.c ****       offset_to = 0;
 983:Middlewares/Third_Party/LwIP/src/core/pbuf.c ****       p_to = p_to->next;
 984:Middlewares/Third_Party/LwIP/src/core/pbuf.c ****       LWIP_ERROR("p_to != NULL", (p_to != NULL) || (p_from == NULL) , return ERR_ARG;);
 985:Middlewares/Third_Party/LwIP/src/core/pbuf.c ****     }
 986:Middlewares/Third_Party/LwIP/src/core/pbuf.c **** 
 987:Middlewares/Third_Party/LwIP/src/core/pbuf.c ****     if ((p_from != NULL) && (p_from->len == p_from->tot_len)) {
 988:Middlewares/Third_Party/LwIP/src/core/pbuf.c ****       /* don't copy more than one packet! */
 989:Middlewares/Third_Party/LwIP/src/core/pbuf.c ****       LWIP_ERROR("pbuf_copy() does not allow packet queues!",
 990:Middlewares/Third_Party/LwIP/src/core/pbuf.c ****                  (p_from->next == NULL), return ERR_VAL;);
 991:Middlewares/Third_Party/LwIP/src/core/pbuf.c ****     }
 992:Middlewares/Third_Party/LwIP/src/core/pbuf.c ****     if ((p_to != NULL) && (p_to->len == p_to->tot_len)) {
 993:Middlewares/Third_Party/LwIP/src/core/pbuf.c ****       /* don't copy more than one packet! */
 994:Middlewares/Third_Party/LwIP/src/core/pbuf.c ****       LWIP_ERROR("pbuf_copy() does not allow packet queues!",
 995:Middlewares/Third_Party/LwIP/src/core/pbuf.c ****                   (p_to->next == NULL), return ERR_VAL;);
 996:Middlewares/Third_Party/LwIP/src/core/pbuf.c ****     }
 997:Middlewares/Third_Party/LwIP/src/core/pbuf.c ****   } while (p_from);
 998:Middlewares/Third_Party/LwIP/src/core/pbuf.c ****   LWIP_DEBUGF(PBUF_DEBUG | LWIP_DBG_TRACE, ("pbuf_copy: end of chain reached.\n"));
 999:Middlewares/Third_Party/LwIP/src/core/pbuf.c ****   return ERR_OK;
1000:Middlewares/Third_Party/LwIP/src/core/pbuf.c **** }
1001:Middlewares/Third_Party/LwIP/src/core/pbuf.c **** 
ARM GAS  C:\Users\Patryk\AppData\Local\Temp\ccybDtdu.s 			page 19


1002:Middlewares/Third_Party/LwIP/src/core/pbuf.c **** /**
1003:Middlewares/Third_Party/LwIP/src/core/pbuf.c ****  * @ingroup pbuf
1004:Middlewares/Third_Party/LwIP/src/core/pbuf.c ****  * Copy (part of) the contents of a packet buffer
1005:Middlewares/Third_Party/LwIP/src/core/pbuf.c ****  * to an application supplied buffer.
1006:Middlewares/Third_Party/LwIP/src/core/pbuf.c ****  *
1007:Middlewares/Third_Party/LwIP/src/core/pbuf.c ****  * @param buf the pbuf from which to copy data
1008:Middlewares/Third_Party/LwIP/src/core/pbuf.c ****  * @param dataptr the application supplied buffer
1009:Middlewares/Third_Party/LwIP/src/core/pbuf.c ****  * @param len length of data to copy (dataptr must be big enough). No more
1010:Middlewares/Third_Party/LwIP/src/core/pbuf.c ****  * than buf->tot_len will be copied, irrespective of len
1011:Middlewares/Third_Party/LwIP/src/core/pbuf.c ****  * @param offset offset into the packet buffer from where to begin copying len bytes
1012:Middlewares/Third_Party/LwIP/src/core/pbuf.c ****  * @return the number of bytes copied, or 0 on failure
1013:Middlewares/Third_Party/LwIP/src/core/pbuf.c ****  */
1014:Middlewares/Third_Party/LwIP/src/core/pbuf.c **** u16_t
1015:Middlewares/Third_Party/LwIP/src/core/pbuf.c **** pbuf_copy_partial(const struct pbuf *buf, void *dataptr, u16_t len, u16_t offset)
1016:Middlewares/Third_Party/LwIP/src/core/pbuf.c **** {
1017:Middlewares/Third_Party/LwIP/src/core/pbuf.c ****   const struct pbuf *p;
1018:Middlewares/Third_Party/LwIP/src/core/pbuf.c ****   u16_t left;
1019:Middlewares/Third_Party/LwIP/src/core/pbuf.c ****   u16_t buf_copy_len;
1020:Middlewares/Third_Party/LwIP/src/core/pbuf.c ****   u16_t copied_total = 0;
1021:Middlewares/Third_Party/LwIP/src/core/pbuf.c **** 
1022:Middlewares/Third_Party/LwIP/src/core/pbuf.c ****   LWIP_ERROR("pbuf_copy_partial: invalid buf", (buf != NULL), return 0;);
1023:Middlewares/Third_Party/LwIP/src/core/pbuf.c ****   LWIP_ERROR("pbuf_copy_partial: invalid dataptr", (dataptr != NULL), return 0;);
1024:Middlewares/Third_Party/LwIP/src/core/pbuf.c **** 
1025:Middlewares/Third_Party/LwIP/src/core/pbuf.c ****   left = 0;
1026:Middlewares/Third_Party/LwIP/src/core/pbuf.c **** 
1027:Middlewares/Third_Party/LwIP/src/core/pbuf.c ****   if ((buf == NULL) || (dataptr == NULL)) {
1028:Middlewares/Third_Party/LwIP/src/core/pbuf.c ****     return 0;
1029:Middlewares/Third_Party/LwIP/src/core/pbuf.c ****   }
1030:Middlewares/Third_Party/LwIP/src/core/pbuf.c **** 
1031:Middlewares/Third_Party/LwIP/src/core/pbuf.c ****   /* Note some systems use byte copy if dataptr or one of the pbuf payload pointers are unaligned. 
1032:Middlewares/Third_Party/LwIP/src/core/pbuf.c ****   for (p = buf; len != 0 && p != NULL; p = p->next) {
1033:Middlewares/Third_Party/LwIP/src/core/pbuf.c ****     if ((offset != 0) && (offset >= p->len)) {
1034:Middlewares/Third_Party/LwIP/src/core/pbuf.c ****       /* don't copy from this buffer -> on to the next */
1035:Middlewares/Third_Party/LwIP/src/core/pbuf.c ****       offset -= p->len;
1036:Middlewares/Third_Party/LwIP/src/core/pbuf.c ****     } else {
1037:Middlewares/Third_Party/LwIP/src/core/pbuf.c ****       /* copy from this buffer. maybe only partially. */
1038:Middlewares/Third_Party/LwIP/src/core/pbuf.c ****       buf_copy_len = p->len - offset;
1039:Middlewares/Third_Party/LwIP/src/core/pbuf.c ****       if (buf_copy_len > len) {
1040:Middlewares/Third_Party/LwIP/src/core/pbuf.c ****         buf_copy_len = len;
1041:Middlewares/Third_Party/LwIP/src/core/pbuf.c ****       }
1042:Middlewares/Third_Party/LwIP/src/core/pbuf.c ****       /* copy the necessary parts of the buffer */
1043:Middlewares/Third_Party/LwIP/src/core/pbuf.c ****       MEMCPY(&((char*)dataptr)[left], &((char*)p->payload)[offset], buf_copy_len);
1044:Middlewares/Third_Party/LwIP/src/core/pbuf.c ****       copied_total += buf_copy_len;
1045:Middlewares/Third_Party/LwIP/src/core/pbuf.c ****       left += buf_copy_len;
1046:Middlewares/Third_Party/LwIP/src/core/pbuf.c ****       len -= buf_copy_len;
1047:Middlewares/Third_Party/LwIP/src/core/pbuf.c ****       offset = 0;
1048:Middlewares/Third_Party/LwIP/src/core/pbuf.c ****     }
1049:Middlewares/Third_Party/LwIP/src/core/pbuf.c ****   }
1050:Middlewares/Third_Party/LwIP/src/core/pbuf.c ****   return copied_total;
1051:Middlewares/Third_Party/LwIP/src/core/pbuf.c **** }
1052:Middlewares/Third_Party/LwIP/src/core/pbuf.c **** 
1053:Middlewares/Third_Party/LwIP/src/core/pbuf.c **** #if LWIP_TCP && TCP_QUEUE_OOSEQ && LWIP_WND_SCALE
1054:Middlewares/Third_Party/LwIP/src/core/pbuf.c **** /**
1055:Middlewares/Third_Party/LwIP/src/core/pbuf.c ****  * This method modifies a 'pbuf chain', so that its total length is
1056:Middlewares/Third_Party/LwIP/src/core/pbuf.c ****  * smaller than 64K. The remainder of the original pbuf chain is stored
1057:Middlewares/Third_Party/LwIP/src/core/pbuf.c ****  * in *rest.
1058:Middlewares/Third_Party/LwIP/src/core/pbuf.c ****  * This function never creates new pbufs, but splits an existing chain
ARM GAS  C:\Users\Patryk\AppData\Local\Temp\ccybDtdu.s 			page 20


1059:Middlewares/Third_Party/LwIP/src/core/pbuf.c ****  * in two parts. The tot_len of the modified packet queue will likely be
1060:Middlewares/Third_Party/LwIP/src/core/pbuf.c ****  * smaller than 64K.
1061:Middlewares/Third_Party/LwIP/src/core/pbuf.c ****  * 'packet queues' are not supported by this function.
1062:Middlewares/Third_Party/LwIP/src/core/pbuf.c ****  *
1063:Middlewares/Third_Party/LwIP/src/core/pbuf.c ****  * @param p the pbuf queue to be split
1064:Middlewares/Third_Party/LwIP/src/core/pbuf.c ****  * @param rest pointer to store the remainder (after the first 64K)
1065:Middlewares/Third_Party/LwIP/src/core/pbuf.c ****  */
1066:Middlewares/Third_Party/LwIP/src/core/pbuf.c **** void pbuf_split_64k(struct pbuf *p, struct pbuf **rest)
1067:Middlewares/Third_Party/LwIP/src/core/pbuf.c **** {
1068:Middlewares/Third_Party/LwIP/src/core/pbuf.c ****   *rest = NULL;
1069:Middlewares/Third_Party/LwIP/src/core/pbuf.c ****   if ((p != NULL) && (p->next != NULL)) {
1070:Middlewares/Third_Party/LwIP/src/core/pbuf.c ****     u16_t tot_len_front = p->len;
1071:Middlewares/Third_Party/LwIP/src/core/pbuf.c ****     struct pbuf *i = p;
1072:Middlewares/Third_Party/LwIP/src/core/pbuf.c ****     struct pbuf *r = p->next;
1073:Middlewares/Third_Party/LwIP/src/core/pbuf.c **** 
1074:Middlewares/Third_Party/LwIP/src/core/pbuf.c ****     /* continue until the total length (summed up as u16_t) overflows */
1075:Middlewares/Third_Party/LwIP/src/core/pbuf.c ****     while ((r != NULL) && ((u16_t)(tot_len_front + r->len) > tot_len_front)) {
1076:Middlewares/Third_Party/LwIP/src/core/pbuf.c ****       tot_len_front += r->len;
1077:Middlewares/Third_Party/LwIP/src/core/pbuf.c ****       i = r;
1078:Middlewares/Third_Party/LwIP/src/core/pbuf.c ****       r = r->next;
1079:Middlewares/Third_Party/LwIP/src/core/pbuf.c ****     }
1080:Middlewares/Third_Party/LwIP/src/core/pbuf.c ****     /* i now points to last packet of the first segment. Set next
1081:Middlewares/Third_Party/LwIP/src/core/pbuf.c ****        pointer to NULL */
1082:Middlewares/Third_Party/LwIP/src/core/pbuf.c ****     i->next = NULL;
1083:Middlewares/Third_Party/LwIP/src/core/pbuf.c **** 
1084:Middlewares/Third_Party/LwIP/src/core/pbuf.c ****     if (r != NULL) {
1085:Middlewares/Third_Party/LwIP/src/core/pbuf.c ****       /* Update the tot_len field in the first part */
1086:Middlewares/Third_Party/LwIP/src/core/pbuf.c ****       for (i = p; i != NULL; i = i->next) {
1087:Middlewares/Third_Party/LwIP/src/core/pbuf.c ****         i->tot_len -= r->tot_len;
1088:Middlewares/Third_Party/LwIP/src/core/pbuf.c ****         LWIP_ASSERT("tot_len/len mismatch in last pbuf",
1089:Middlewares/Third_Party/LwIP/src/core/pbuf.c ****                     (i->next != NULL) || (i->tot_len == i->len));
1090:Middlewares/Third_Party/LwIP/src/core/pbuf.c ****       }
1091:Middlewares/Third_Party/LwIP/src/core/pbuf.c ****       if (p->flags & PBUF_FLAG_TCP_FIN) {
1092:Middlewares/Third_Party/LwIP/src/core/pbuf.c ****         r->flags |= PBUF_FLAG_TCP_FIN;
1093:Middlewares/Third_Party/LwIP/src/core/pbuf.c ****       }
1094:Middlewares/Third_Party/LwIP/src/core/pbuf.c **** 
1095:Middlewares/Third_Party/LwIP/src/core/pbuf.c ****       /* tot_len field in rest does not need modifications */
1096:Middlewares/Third_Party/LwIP/src/core/pbuf.c ****       /* reference counters do not need modifications */
1097:Middlewares/Third_Party/LwIP/src/core/pbuf.c ****       *rest = r;
1098:Middlewares/Third_Party/LwIP/src/core/pbuf.c ****     }
1099:Middlewares/Third_Party/LwIP/src/core/pbuf.c ****   }
1100:Middlewares/Third_Party/LwIP/src/core/pbuf.c **** }
1101:Middlewares/Third_Party/LwIP/src/core/pbuf.c **** #endif /* LWIP_TCP && TCP_QUEUE_OOSEQ && LWIP_WND_SCALE */
1102:Middlewares/Third_Party/LwIP/src/core/pbuf.c **** 
1103:Middlewares/Third_Party/LwIP/src/core/pbuf.c **** /* Actual implementation of pbuf_skip() but returning const pointer... */
1104:Middlewares/Third_Party/LwIP/src/core/pbuf.c **** static const struct pbuf*
1105:Middlewares/Third_Party/LwIP/src/core/pbuf.c **** pbuf_skip_const(const struct pbuf* in, u16_t in_offset, u16_t* out_offset)
1106:Middlewares/Third_Party/LwIP/src/core/pbuf.c **** {
  27              		.loc 1 1106 0
  28              		.cfi_startproc
  29              		@ args = 0, pretend = 0, frame = 0
  30              		@ frame_needed = 0, uses_anonymous_args = 0
  31              		@ link register save eliminated.
  32              	.LVL0:
1107:Middlewares/Third_Party/LwIP/src/core/pbuf.c ****   u16_t offset_left = in_offset;
1108:Middlewares/Third_Party/LwIP/src/core/pbuf.c ****   const struct pbuf* q = in;
1109:Middlewares/Third_Party/LwIP/src/core/pbuf.c **** 
ARM GAS  C:\Users\Patryk\AppData\Local\Temp\ccybDtdu.s 			page 21


1110:Middlewares/Third_Party/LwIP/src/core/pbuf.c ****   /* get the correct pbuf */
1111:Middlewares/Third_Party/LwIP/src/core/pbuf.c ****   while ((q != NULL) && (q->len <= offset_left)) {
  33              		.loc 1 1111 0
  34 0000 02E0     		b	.L2
  35              	.LVL1:
  36              	.L4:
1112:Middlewares/Third_Party/LwIP/src/core/pbuf.c ****     offset_left -= q->len;
  37              		.loc 1 1112 0
  38 0002 C91A     		subs	r1, r1, r3
  39              	.LVL2:
  40 0004 89B2     		uxth	r1, r1
  41              	.LVL3:
1113:Middlewares/Third_Party/LwIP/src/core/pbuf.c ****     q = q->next;
  42              		.loc 1 1113 0
  43 0006 0068     		ldr	r0, [r0]
  44              	.LVL4:
  45              	.L2:
1111:Middlewares/Third_Party/LwIP/src/core/pbuf.c ****     offset_left -= q->len;
  46              		.loc 1 1111 0
  47 0008 10B1     		cbz	r0, .L3
1111:Middlewares/Third_Party/LwIP/src/core/pbuf.c ****     offset_left -= q->len;
  48              		.loc 1 1111 0 is_stmt 0 discriminator 1
  49 000a 4389     		ldrh	r3, [r0, #10]
  50 000c 8B42     		cmp	r3, r1
  51 000e F8D9     		bls	.L4
  52              	.L3:
1114:Middlewares/Third_Party/LwIP/src/core/pbuf.c ****   }
1115:Middlewares/Third_Party/LwIP/src/core/pbuf.c ****   if (out_offset != NULL) {
  53              		.loc 1 1115 0 is_stmt 1
  54 0010 02B1     		cbz	r2, .L5
1116:Middlewares/Third_Party/LwIP/src/core/pbuf.c ****     *out_offset = offset_left;
  55              		.loc 1 1116 0
  56 0012 1180     		strh	r1, [r2]	@ movhi
  57              	.L5:
1117:Middlewares/Third_Party/LwIP/src/core/pbuf.c ****   }
1118:Middlewares/Third_Party/LwIP/src/core/pbuf.c ****   return q;
1119:Middlewares/Third_Party/LwIP/src/core/pbuf.c **** }
  58              		.loc 1 1119 0
  59 0014 7047     		bx	lr
  60              		.cfi_endproc
  61              	.LFE176:
  63              		.section	.text.pbuf_header_impl,"ax",%progbits
  64              		.align	1
  65              		.syntax unified
  66              		.thumb
  67              		.thumb_func
  68              		.fpu fpv5-sp-d16
  70              	pbuf_header_impl:
  71              	.LFB165:
 570:Middlewares/Third_Party/LwIP/src/core/pbuf.c ****   u16_t type;
  72              		.loc 1 570 0
  73              		.cfi_startproc
  74              		@ args = 0, pretend = 0, frame = 0
  75              		@ frame_needed = 0, uses_anonymous_args = 0
  76              	.LVL5:
  77 0000 70B5     		push	{r4, r5, r6, lr}
  78              	.LCFI0:
ARM GAS  C:\Users\Patryk\AppData\Local\Temp\ccybDtdu.s 			page 22


  79              		.cfi_def_cfa_offset 16
  80              		.cfi_offset 4, -16
  81              		.cfi_offset 5, -12
  82              		.cfi_offset 6, -8
  83              		.cfi_offset 14, -4
  84 0002 0C46     		mov	r4, r1
  85 0004 1646     		mov	r6, r2
 575:Middlewares/Third_Party/LwIP/src/core/pbuf.c ****   if ((header_size_increment == 0) || (p == NULL)) {
  86              		.loc 1 575 0
  87 0006 0546     		mov	r5, r0
  88 0008 18B3     		cbz	r0, .L18
  89              	.LVL6:
  90              	.L7:
 576:Middlewares/Third_Party/LwIP/src/core/pbuf.c ****     return 0;
  91              		.loc 1 576 0
  92 000a B5FA85F3 		clz	r3, r5
  93 000e 5B09     		lsrs	r3, r3, #5
  94 0010 002C     		cmp	r4, #0
  95 0012 08BF     		it	eq
  96 0014 0123     		moveq	r3, #1
  97 0016 002B     		cmp	r3, #0
  98 0018 51D1     		bne	.L15
 580:Middlewares/Third_Party/LwIP/src/core/pbuf.c ****     increment_magnitude = (u16_t)-header_size_increment;
  99              		.loc 1 580 0
 100 001a 002C     		cmp	r4, #0
 101 001c 21DB     		blt	.L19
 585:Middlewares/Third_Party/LwIP/src/core/pbuf.c **** #if 0
 102              		.loc 1 585 0
 103 001e A1B2     		uxth	r1, r4
 104              	.LVL7:
 105              	.L10:
 598:Middlewares/Third_Party/LwIP/src/core/pbuf.c ****   /* remember current payload pointer */
 106              		.loc 1 598 0
 107 0020 2B7B     		ldrb	r3, [r5, #12]	@ zero_extendqisi2
 108              	.LVL8:
 600:Middlewares/Third_Party/LwIP/src/core/pbuf.c **** 
 109              		.loc 1 600 0
 110 0022 6868     		ldr	r0, [r5, #4]
 111              	.LVL9:
 603:Middlewares/Third_Party/LwIP/src/core/pbuf.c ****     /* set new payload pointer */
 112              		.loc 1 603 0
 113 0024 032B     		cmp	r3, #3
 114 0026 14BF     		ite	ne
 115 0028 0022     		movne	r2, #0
 116 002a 0122     		moveq	r2, #1
 117 002c 002B     		cmp	r3, #0
 118 002e 08BF     		it	eq
 119 0030 0122     		moveq	r2, #1
 120 0032 42B3     		cbz	r2, .L11
 605:Middlewares/Third_Party/LwIP/src/core/pbuf.c ****     /* boundary check fails? */
 121              		.loc 1 605 0
 122 0034 031B     		subs	r3, r0, r4
 123              	.LVL10:
 124 0036 6B60     		str	r3, [r5, #4]
 607:Middlewares/Third_Party/LwIP/src/core/pbuf.c ****       LWIP_DEBUGF( PBUF_DEBUG | LWIP_DBG_TRACE,
 125              		.loc 1 607 0
 126 0038 05F11002 		add	r2, r5, #16
ARM GAS  C:\Users\Patryk\AppData\Local\Temp\ccybDtdu.s 			page 23


 127 003c 9342     		cmp	r3, r2
 128 003e 1FD3     		bcc	.L20
 129              	.LVL11:
 130              	.L12:
 635:Middlewares/Third_Party/LwIP/src/core/pbuf.c ****   p->tot_len += header_size_increment;
 131              		.loc 1 635 0
 132 0040 A4B2     		uxth	r4, r4
 133 0042 6B89     		ldrh	r3, [r5, #10]
 134 0044 2344     		add	r3, r3, r4
 135 0046 6B81     		strh	r3, [r5, #10]	@ movhi
 636:Middlewares/Third_Party/LwIP/src/core/pbuf.c **** 
 136              		.loc 1 636 0
 137 0048 2B89     		ldrh	r3, [r5, #8]
 138 004a 1C44     		add	r4, r4, r3
 139 004c 2C81     		strh	r4, [r5, #8]	@ movhi
 641:Middlewares/Third_Party/LwIP/src/core/pbuf.c **** }
 140              		.loc 1 641 0
 141 004e 0020     		movs	r0, #0
 142 0050 36E0     		b	.L8
 143              	.LVL12:
 144              	.L18:
 575:Middlewares/Third_Party/LwIP/src/core/pbuf.c ****   if ((header_size_increment == 0) || (p == NULL)) {
 145              		.loc 1 575 0 discriminator 1
 146 0052 1D4B     		ldr	r3, .L22
 147 0054 40F23F22 		movw	r2, #575
 148              	.LVL13:
 149 0058 1C49     		ldr	r1, .L22+4
 150              	.LVL14:
 151 005a 1D48     		ldr	r0, .L22+8
 152              	.LVL15:
 153 005c FFF7FEFF 		bl	printf
 154              	.LVL16:
 155 0060 D3E7     		b	.L7
 156              	.L19:
 581:Middlewares/Third_Party/LwIP/src/core/pbuf.c ****     /* Check that we aren't going to move off the end of the pbuf */
 157              		.loc 1 581 0
 158 0062 A1B2     		uxth	r1, r4
 159 0064 4942     		negs	r1, r1
 160 0066 89B2     		uxth	r1, r1
 161              	.LVL17:
 583:Middlewares/Third_Party/LwIP/src/core/pbuf.c ****   } else {
 162              		.loc 1 583 0
 163 0068 6B89     		ldrh	r3, [r5, #10]
 164 006a 8B42     		cmp	r3, r1
 165 006c D8D2     		bcs	.L10
 583:Middlewares/Third_Party/LwIP/src/core/pbuf.c ****   } else {
 166              		.loc 1 583 0 is_stmt 0 discriminator 1
 167 006e 164B     		ldr	r3, .L22
 168 0070 40F24722 		movw	r2, #583
 169 0074 1749     		ldr	r1, .L22+12
 170              	.LVL18:
 171 0076 1648     		ldr	r0, .L22+8
 172 0078 FFF7FEFF 		bl	printf
 173              	.LVL19:
 174 007c 0120     		movs	r0, #1
 175 007e 1FE0     		b	.L8
 176              	.LVL20:
ARM GAS  C:\Users\Patryk\AppData\Local\Temp\ccybDtdu.s 			page 24


 177              	.L20:
 612:Middlewares/Third_Party/LwIP/src/core/pbuf.c ****       /* bail out unsuccessfully */
 178              		.loc 1 612 0 is_stmt 1
 179 0080 6860     		str	r0, [r5, #4]
 614:Middlewares/Third_Party/LwIP/src/core/pbuf.c ****     }
 180              		.loc 1 614 0
 181 0082 0120     		movs	r0, #1
 182              	.LVL21:
 183 0084 1CE0     		b	.L8
 184              	.LVL22:
 185              	.L11:
 617:Middlewares/Third_Party/LwIP/src/core/pbuf.c ****     /* hide a header in the payload? */
 186              		.loc 1 617 0
 187 0086 013B     		subs	r3, r3, #1
 188              	.LVL23:
 189 0088 9BB2     		uxth	r3, r3
 190              	.LVL24:
 191 008a 012B     		cmp	r3, #1
 192 008c 0ED8     		bhi	.L13
 619:Middlewares/Third_Party/LwIP/src/core/pbuf.c ****       /* increase payload pointer */
 193              		.loc 1 619 0
 194 008e 002C     		cmp	r4, #0
 195 0090 06DB     		blt	.L21
 196              	.L14:
 622:Middlewares/Third_Party/LwIP/src/core/pbuf.c ****       p->payload = (u8_t *)p->payload - header_size_increment;
 197              		.loc 1 622 0
 198 0092 002E     		cmp	r6, #0
 199 0094 18BF     		it	ne
 200 0096 002C     		cmpne	r4, #0
 201 0098 13DD     		ble	.L16
 623:Middlewares/Third_Party/LwIP/src/core/pbuf.c ****     } else {
 202              		.loc 1 623 0
 203 009a 001B     		subs	r0, r0, r4
 204              	.LVL25:
 205 009c 6860     		str	r0, [r5, #4]
 206              	.LVL26:
 207 009e CFE7     		b	.L12
 208              	.LVL27:
 209              	.L21:
 619:Middlewares/Third_Party/LwIP/src/core/pbuf.c ****       /* increase payload pointer */
 210              		.loc 1 619 0 discriminator 1
 211 00a0 6B89     		ldrh	r3, [r5, #10]
 212 00a2 8B42     		cmp	r3, r1
 213 00a4 F5D3     		bcc	.L14
 621:Middlewares/Third_Party/LwIP/src/core/pbuf.c ****     } else if ((header_size_increment > 0) && force) {
 214              		.loc 1 621 0
 215 00a6 001B     		subs	r0, r0, r4
 216              	.LVL28:
 217 00a8 6860     		str	r0, [r5, #4]
 218              	.LVL29:
 219 00aa C9E7     		b	.L12
 220              	.LVL30:
 221              	.L13:
 631:Middlewares/Third_Party/LwIP/src/core/pbuf.c ****     return 1;
 222              		.loc 1 631 0 discriminator 1
 223 00ac 064B     		ldr	r3, .L22
 224 00ae 40F27722 		movw	r2, #631
ARM GAS  C:\Users\Patryk\AppData\Local\Temp\ccybDtdu.s 			page 25


 225 00b2 0949     		ldr	r1, .L22+16
 226              	.LVL31:
 227 00b4 0648     		ldr	r0, .L22+8
 228              	.LVL32:
 229 00b6 FFF7FEFF 		bl	printf
 230              	.LVL33:
 632:Middlewares/Third_Party/LwIP/src/core/pbuf.c ****   }
 231              		.loc 1 632 0 discriminator 1
 232 00ba 0120     		movs	r0, #1
 233 00bc 00E0     		b	.L8
 234              	.L15:
 577:Middlewares/Third_Party/LwIP/src/core/pbuf.c ****   }
 235              		.loc 1 577 0
 236 00be 0020     		movs	r0, #0
 237              	.L8:
 642:Middlewares/Third_Party/LwIP/src/core/pbuf.c **** 
 238              		.loc 1 642 0
 239 00c0 70BD     		pop	{r4, r5, r6, pc}
 240              	.LVL34:
 241              	.L16:
 627:Middlewares/Third_Party/LwIP/src/core/pbuf.c ****     }
 242              		.loc 1 627 0
 243 00c2 0120     		movs	r0, #1
 244              	.LVL35:
 245 00c4 FCE7     		b	.L8
 246              	.L23:
 247 00c6 00BF     		.align	2
 248              	.L22:
 249 00c8 00000000 		.word	.LC0
 250 00cc 30000000 		.word	.LC1
 251 00d0 3C000000 		.word	.LC2
 252 00d4 64000000 		.word	.LC3
 253 00d8 84000000 		.word	.LC4
 254              		.cfi_endproc
 255              	.LFE165:
 257              		.section	.text.pbuf_pool_is_empty,"ax",%progbits
 258              		.align	1
 259              		.syntax unified
 260              		.thumb
 261              		.thumb_func
 262              		.fpu fpv5-sp-d16
 264              	pbuf_pool_is_empty:
 265              	.LFB161:
 196:Middlewares/Third_Party/LwIP/src/core/pbuf.c **** #ifndef PBUF_POOL_FREE_OOSEQ_QUEUE_CALL
 266              		.loc 1 196 0
 267              		.cfi_startproc
 268              		@ args = 0, pretend = 0, frame = 0
 269              		@ frame_needed = 0, uses_anonymous_args = 0
 270 0000 10B5     		push	{r4, lr}
 271              	.LCFI1:
 272              		.cfi_def_cfa_offset 8
 273              		.cfi_offset 4, -8
 274              		.cfi_offset 14, -4
 202:Middlewares/Third_Party/LwIP/src/core/pbuf.c ****   queued = pbuf_free_ooseq_pending;
 275              		.loc 1 202 0
 276 0002 FFF7FEFF 		bl	sys_arch_protect
 277              	.LVL36:
ARM GAS  C:\Users\Patryk\AppData\Local\Temp\ccybDtdu.s 			page 26


 203:Middlewares/Third_Party/LwIP/src/core/pbuf.c ****   pbuf_free_ooseq_pending = 1;
 278              		.loc 1 203 0
 279 0006 0C4B     		ldr	r3, .L28
 280 0008 1C78     		ldrb	r4, [r3]	@ zero_extendqisi2
 281 000a E4B2     		uxtb	r4, r4
 282              	.LVL37:
 204:Middlewares/Third_Party/LwIP/src/core/pbuf.c ****   SYS_ARCH_UNPROTECT(old_level);
 283              		.loc 1 204 0
 284 000c 0122     		movs	r2, #1
 285 000e 1A70     		strb	r2, [r3]
 205:Middlewares/Third_Party/LwIP/src/core/pbuf.c **** 
 286              		.loc 1 205 0
 287 0010 FFF7FEFF 		bl	sys_arch_unprotect
 288              	.LVL38:
 207:Middlewares/Third_Party/LwIP/src/core/pbuf.c ****     /* queue a call to pbuf_free_ooseq if not already queued */
 289              		.loc 1 207 0
 290 0014 04B1     		cbz	r4, .L27
 291              	.L24:
 212:Middlewares/Third_Party/LwIP/src/core/pbuf.c **** #endif /* !LWIP_TCP || !TCP_QUEUE_OOSEQ || !PBUF_POOL_FREE_OOSEQ */
 292              		.loc 1 212 0
 293 0016 10BD     		pop	{r4, pc}
 294              	.LVL39:
 295              	.L27:
 209:Middlewares/Third_Party/LwIP/src/core/pbuf.c ****   }
 296              		.loc 1 209 0
 297 0018 0022     		movs	r2, #0
 298 001a 1146     		mov	r1, r2
 299 001c 0748     		ldr	r0, .L28+4
 300 001e FFF7FEFF 		bl	tcpip_callback_with_block
 301              	.LVL40:
 302 0022 0028     		cmp	r0, #0
 303 0024 F7D0     		beq	.L24
 209:Middlewares/Third_Party/LwIP/src/core/pbuf.c ****   }
 304              		.loc 1 209 0 is_stmt 0 discriminator 1
 305 0026 FFF7FEFF 		bl	sys_arch_protect
 306              	.LVL41:
 307 002a 034B     		ldr	r3, .L28
 308 002c 0022     		movs	r2, #0
 309 002e 1A70     		strb	r2, [r3]
 310 0030 FFF7FEFF 		bl	sys_arch_unprotect
 311              	.LVL42:
 212:Middlewares/Third_Party/LwIP/src/core/pbuf.c **** #endif /* !LWIP_TCP || !TCP_QUEUE_OOSEQ || !PBUF_POOL_FREE_OOSEQ */
 312              		.loc 1 212 0 is_stmt 1 discriminator 1
 313 0034 EFE7     		b	.L24
 314              	.L29:
 315 0036 00BF     		.align	2
 316              	.L28:
 317 0038 00000000 		.word	pbuf_free_ooseq_pending
 318 003c 00000000 		.word	pbuf_free_ooseq_callback
 319              		.cfi_endproc
 320              	.LFE161:
 322              		.section	.text.pbuf_free_ooseq,"ax",%progbits
 323              		.align	1
 324              		.syntax unified
 325              		.thumb
 326              		.thumb_func
 327              		.fpu fpv5-sp-d16
ARM GAS  C:\Users\Patryk\AppData\Local\Temp\ccybDtdu.s 			page 27


 329              	pbuf_free_ooseq:
 330              	.LFB159:
 166:Middlewares/Third_Party/LwIP/src/core/pbuf.c ****   struct tcp_pcb* pcb;
 331              		.loc 1 166 0
 332              		.cfi_startproc
 333              		@ args = 0, pretend = 0, frame = 0
 334              		@ frame_needed = 0, uses_anonymous_args = 0
 335 0000 10B5     		push	{r4, lr}
 336              	.LCFI2:
 337              		.cfi_def_cfa_offset 8
 338              		.cfi_offset 4, -8
 339              		.cfi_offset 14, -4
 340              	.LBB2:
 168:Middlewares/Third_Party/LwIP/src/core/pbuf.c **** 
 341              		.loc 1 168 0
 342 0002 FFF7FEFF 		bl	sys_arch_protect
 343              	.LVL43:
 344 0006 084B     		ldr	r3, .L37
 345 0008 0022     		movs	r2, #0
 346 000a 1A70     		strb	r2, [r3]
 347 000c FFF7FEFF 		bl	sys_arch_unprotect
 348              	.LVL44:
 349              	.LBE2:
 170:Middlewares/Third_Party/LwIP/src/core/pbuf.c ****     if (NULL != pcb->ooseq) {
 350              		.loc 1 170 0
 351 0010 064B     		ldr	r3, .L37+4
 352 0012 1C68     		ldr	r4, [r3]
 353              	.LVL45:
 354              	.L31:
 170:Middlewares/Third_Party/LwIP/src/core/pbuf.c ****     if (NULL != pcb->ooseq) {
 355              		.loc 1 170 0 is_stmt 0 discriminator 1
 356 0014 3CB1     		cbz	r4, .L30
 171:Middlewares/Third_Party/LwIP/src/core/pbuf.c ****       /** Free the ooseq pbufs of one PCB only */
 357              		.loc 1 171 0 is_stmt 1
 358 0016 206F     		ldr	r0, [r4, #112]
 359 0018 08B9     		cbnz	r0, .L36
 170:Middlewares/Third_Party/LwIP/src/core/pbuf.c ****     if (NULL != pcb->ooseq) {
 360              		.loc 1 170 0 discriminator 2
 361 001a E468     		ldr	r4, [r4, #12]
 362              	.LVL46:
 363 001c FAE7     		b	.L31
 364              	.L36:
 174:Middlewares/Third_Party/LwIP/src/core/pbuf.c ****       pcb->ooseq = NULL;
 365              		.loc 1 174 0
 366 001e FFF7FEFF 		bl	tcp_segs_free
 367              	.LVL47:
 175:Middlewares/Third_Party/LwIP/src/core/pbuf.c ****       return;
 368              		.loc 1 175 0
 369 0022 0023     		movs	r3, #0
 370 0024 2367     		str	r3, [r4, #112]
 371              	.L30:
 179:Middlewares/Third_Party/LwIP/src/core/pbuf.c **** 
 372              		.loc 1 179 0
 373 0026 10BD     		pop	{r4, pc}
 374              	.LVL48:
 375              	.L38:
 376              		.align	2
ARM GAS  C:\Users\Patryk\AppData\Local\Temp\ccybDtdu.s 			page 28


 377              	.L37:
 378 0028 00000000 		.word	pbuf_free_ooseq_pending
 379 002c 00000000 		.word	tcp_active_pcbs
 380              		.cfi_endproc
 381              	.LFE159:
 383              		.section	.text.pbuf_free_ooseq_callback,"ax",%progbits
 384              		.align	1
 385              		.syntax unified
 386              		.thumb
 387              		.thumb_func
 388              		.fpu fpv5-sp-d16
 390              	pbuf_free_ooseq_callback:
 391              	.LFB160:
 187:Middlewares/Third_Party/LwIP/src/core/pbuf.c ****   LWIP_UNUSED_ARG(arg);
 392              		.loc 1 187 0
 393              		.cfi_startproc
 394              		@ args = 0, pretend = 0, frame = 0
 395              		@ frame_needed = 0, uses_anonymous_args = 0
 396              	.LVL49:
 397 0000 08B5     		push	{r3, lr}
 398              	.LCFI3:
 399              		.cfi_def_cfa_offset 8
 400              		.cfi_offset 3, -8
 401              		.cfi_offset 14, -4
 189:Middlewares/Third_Party/LwIP/src/core/pbuf.c **** }
 402              		.loc 1 189 0
 403 0002 FFF7FEFF 		bl	pbuf_free_ooseq
 404              	.LVL50:
 190:Middlewares/Third_Party/LwIP/src/core/pbuf.c **** #endif /* !NO_SYS */
 405              		.loc 1 190 0
 406 0006 08BD     		pop	{r3, pc}
 407              		.cfi_endproc
 408              	.LFE160:
 410              		.section	.text.pbuf_alloced_custom,"ax",%progbits
 411              		.align	1
 412              		.global	pbuf_alloced_custom
 413              		.syntax unified
 414              		.thumb
 415              		.thumb_func
 416              		.fpu fpv5-sp-d16
 418              	pbuf_alloced_custom:
 419              	.LFB163:
 427:Middlewares/Third_Party/LwIP/src/core/pbuf.c ****   u16_t offset;
 420              		.loc 1 427 0
 421              		.cfi_startproc
 422              		@ args = 8, pretend = 0, frame = 0
 423              		@ frame_needed = 0, uses_anonymous_args = 0
 424              	.LVL51:
 425 0000 70B5     		push	{r4, r5, r6, lr}
 426              	.LCFI4:
 427              		.cfi_def_cfa_offset 16
 428              		.cfi_offset 4, -16
 429              		.cfi_offset 5, -12
 430              		.cfi_offset 6, -8
 431              		.cfi_offset 14, -4
 432 0002 049C     		ldr	r4, [sp, #16]
 432:Middlewares/Third_Party/LwIP/src/core/pbuf.c ****   case PBUF_TRANSPORT:
ARM GAS  C:\Users\Patryk\AppData\Local\Temp\ccybDtdu.s 			page 29


 433              		.loc 1 432 0
 434 0004 0428     		cmp	r0, #4
 435 0006 0AD8     		bhi	.L42
 436 0008 DFE800F0 		tbb	[pc, r0]
 437              	.L44:
 438 000c 12       		.byte	(.L43-.L44)/2
 439 000d 14       		.byte	(.L52-.L44)/2
 440 000e 03       		.byte	(.L46-.L44)/2
 441 000f 05       		.byte	(.L47-.L44)/2
 442 0010 07       		.byte	(.L48-.L44)/2
 443 0011 00       		.p2align 1
 444              	.L46:
 445              	.LVL52:
 443:Middlewares/Third_Party/LwIP/src/core/pbuf.c ****     break;
 446              		.loc 1 443 0
 447 0012 0E20     		movs	r0, #14
 448              	.LVL53:
 444:Middlewares/Third_Party/LwIP/src/core/pbuf.c ****   case PBUF_RAW_TX:
 449              		.loc 1 444 0
 450 0014 0FE0     		b	.L45
 451              	.LVL54:
 452              	.L47:
 447:Middlewares/Third_Party/LwIP/src/core/pbuf.c ****     break;
 453              		.loc 1 447 0
 454 0016 0020     		movs	r0, #0
 455              	.LVL55:
 448:Middlewares/Third_Party/LwIP/src/core/pbuf.c ****   case PBUF_RAW:
 456              		.loc 1 448 0
 457 0018 0DE0     		b	.L45
 458              	.LVL56:
 459              	.L48:
 450:Middlewares/Third_Party/LwIP/src/core/pbuf.c ****     break;
 460              		.loc 1 450 0
 461 001a 0020     		movs	r0, #0
 462              	.LVL57:
 451:Middlewares/Third_Party/LwIP/src/core/pbuf.c ****   default:
 463              		.loc 1 451 0
 464 001c 0BE0     		b	.L45
 465              	.LVL58:
 466              	.L42:
 453:Middlewares/Third_Party/LwIP/src/core/pbuf.c ****     return NULL;
 467              		.loc 1 453 0 discriminator 1
 468 001e 134B     		ldr	r3, .L55
 469              	.LVL59:
 470 0020 40F2C512 		movw	r2, #453
 471              	.LVL60:
 472 0024 1249     		ldr	r1, .L55+4
 473              	.LVL61:
 474 0026 1348     		ldr	r0, .L55+8
 475              	.LVL62:
 476 0028 FFF7FEFF 		bl	printf
 477              	.LVL63:
 454:Middlewares/Third_Party/LwIP/src/core/pbuf.c ****   }
 478              		.loc 1 454 0 discriminator 1
 479 002c 0020     		movs	r0, #0
 480 002e 17E0     		b	.L41
 481              	.LVL64:
ARM GAS  C:\Users\Patryk\AppData\Local\Temp\ccybDtdu.s 			page 30


 482              	.L43:
 435:Middlewares/Third_Party/LwIP/src/core/pbuf.c ****     break;
 483              		.loc 1 435 0
 484 0030 3620     		movs	r0, #54
 485              	.LVL65:
 486 0032 00E0     		b	.L45
 487              	.LVL66:
 488              	.L52:
 439:Middlewares/Third_Party/LwIP/src/core/pbuf.c ****     break;
 489              		.loc 1 439 0
 490 0034 2220     		movs	r0, #34
 491              	.LVL67:
 492              	.L45:
 457:Middlewares/Third_Party/LwIP/src/core/pbuf.c ****     LWIP_DEBUGF(PBUF_DEBUG | LWIP_DBG_LEVEL_WARNING, ("pbuf_alloced_custom(length=%"U16_F") buffer 
 493              		.loc 1 457 0
 494 0036 0330     		adds	r0, r0, #3
 495              	.LVL68:
 496 0038 20F00300 		bic	r0, r0, #3
 497 003c 0E18     		adds	r6, r1, r0
 498 003e BDF81450 		ldrh	r5, [sp, #20]
 499 0042 AE42     		cmp	r6, r5
 500 0044 10D8     		bhi	.L53
 462:Middlewares/Third_Party/LwIP/src/core/pbuf.c ****   if (payload_mem != NULL) {
 501              		.loc 1 462 0
 502 0046 0025     		movs	r5, #0
 503 0048 1D60     		str	r5, [r3]
 463:Middlewares/Third_Party/LwIP/src/core/pbuf.c ****     p->pbuf.payload = (u8_t *)payload_mem + LWIP_MEM_ALIGN_SIZE(offset);
 504              		.loc 1 463 0
 505 004a 54B1     		cbz	r4, .L50
 464:Middlewares/Third_Party/LwIP/src/core/pbuf.c ****   } else {
 506              		.loc 1 464 0
 507 004c 2044     		add	r0, r0, r4
 508 004e 5860     		str	r0, [r3, #4]
 509              	.L51:
 468:Middlewares/Third_Party/LwIP/src/core/pbuf.c ****   p->pbuf.len = p->pbuf.tot_len = length;
 510              		.loc 1 468 0
 511 0050 0220     		movs	r0, #2
 512 0052 5873     		strb	r0, [r3, #13]
 469:Middlewares/Third_Party/LwIP/src/core/pbuf.c ****   p->pbuf.type = type;
 513              		.loc 1 469 0
 514 0054 1981     		strh	r1, [r3, #8]	@ movhi
 515 0056 5981     		strh	r1, [r3, #10]	@ movhi
 470:Middlewares/Third_Party/LwIP/src/core/pbuf.c ****   p->pbuf.ref = 1;
 516              		.loc 1 470 0
 517 0058 1A73     		strb	r2, [r3, #12]
 471:Middlewares/Third_Party/LwIP/src/core/pbuf.c ****   return &p->pbuf;
 518              		.loc 1 471 0
 519 005a 0122     		movs	r2, #1
 520              	.LVL69:
 521 005c DA81     		strh	r2, [r3, #14]	@ movhi
 472:Middlewares/Third_Party/LwIP/src/core/pbuf.c **** }
 522              		.loc 1 472 0
 523 005e 1846     		mov	r0, r3
 524              	.LVL70:
 525              	.L41:
 473:Middlewares/Third_Party/LwIP/src/core/pbuf.c **** #endif /* LWIP_SUPPORT_CUSTOM_PBUF */
 526              		.loc 1 473 0
ARM GAS  C:\Users\Patryk\AppData\Local\Temp\ccybDtdu.s 			page 31


 527 0060 70BD     		pop	{r4, r5, r6, pc}
 528              	.LVL71:
 529              	.L50:
 466:Middlewares/Third_Party/LwIP/src/core/pbuf.c ****   }
 530              		.loc 1 466 0
 531 0062 0020     		movs	r0, #0
 532 0064 5860     		str	r0, [r3, #4]
 533 0066 F3E7     		b	.L51
 534              	.L53:
 459:Middlewares/Third_Party/LwIP/src/core/pbuf.c ****   }
 535              		.loc 1 459 0
 536 0068 0020     		movs	r0, #0
 537 006a F9E7     		b	.L41
 538              	.L56:
 539              		.align	2
 540              	.L55:
 541 006c 00000000 		.word	.LC0
 542 0070 00000000 		.word	.LC5
 543 0074 3C000000 		.word	.LC2
 544              		.cfi_endproc
 545              	.LFE163:
 547              		.section	.text.pbuf_header,"ax",%progbits
 548              		.align	1
 549              		.global	pbuf_header
 550              		.syntax unified
 551              		.thumb
 552              		.thumb_func
 553              		.fpu fpv5-sp-d16
 555              	pbuf_header:
 556              	.LFB166:
 666:Middlewares/Third_Party/LwIP/src/core/pbuf.c ****    return pbuf_header_impl(p, header_size_increment, 0);
 557              		.loc 1 666 0
 558              		.cfi_startproc
 559              		@ args = 0, pretend = 0, frame = 0
 560              		@ frame_needed = 0, uses_anonymous_args = 0
 561              	.LVL72:
 562 0000 08B5     		push	{r3, lr}
 563              	.LCFI5:
 564              		.cfi_def_cfa_offset 8
 565              		.cfi_offset 3, -8
 566              		.cfi_offset 14, -4
 667:Middlewares/Third_Party/LwIP/src/core/pbuf.c **** }
 567              		.loc 1 667 0
 568 0002 0022     		movs	r2, #0
 569 0004 FFF7FEFF 		bl	pbuf_header_impl
 570              	.LVL73:
 668:Middlewares/Third_Party/LwIP/src/core/pbuf.c **** 
 571              		.loc 1 668 0
 572 0008 08BD     		pop	{r3, pc}
 573              		.cfi_endproc
 574              	.LFE166:
 576              		.section	.text.pbuf_header_force,"ax",%progbits
 577              		.align	1
 578              		.global	pbuf_header_force
 579              		.syntax unified
 580              		.thumb
 581              		.thumb_func
ARM GAS  C:\Users\Patryk\AppData\Local\Temp\ccybDtdu.s 			page 32


 582              		.fpu fpv5-sp-d16
 584              	pbuf_header_force:
 585              	.LFB167:
 676:Middlewares/Third_Party/LwIP/src/core/pbuf.c ****    return pbuf_header_impl(p, header_size_increment, 1);
 586              		.loc 1 676 0
 587              		.cfi_startproc
 588              		@ args = 0, pretend = 0, frame = 0
 589              		@ frame_needed = 0, uses_anonymous_args = 0
 590              	.LVL74:
 591 0000 08B5     		push	{r3, lr}
 592              	.LCFI6:
 593              		.cfi_def_cfa_offset 8
 594              		.cfi_offset 3, -8
 595              		.cfi_offset 14, -4
 677:Middlewares/Third_Party/LwIP/src/core/pbuf.c **** }
 596              		.loc 1 677 0
 597 0002 0122     		movs	r2, #1
 598 0004 FFF7FEFF 		bl	pbuf_header_impl
 599              	.LVL75:
 678:Middlewares/Third_Party/LwIP/src/core/pbuf.c **** 
 600              		.loc 1 678 0
 601 0008 08BD     		pop	{r3, pc}
 602              		.cfi_endproc
 603              	.LFE167:
 605              		.section	.text.pbuf_free,"ax",%progbits
 606              		.align	1
 607              		.global	pbuf_free
 608              		.syntax unified
 609              		.thumb
 610              		.thumb_func
 611              		.fpu fpv5-sp-d16
 613              	pbuf_free:
 614              	.LFB168:
 716:Middlewares/Third_Party/LwIP/src/core/pbuf.c ****   u16_t type;
 615              		.loc 1 716 0
 616              		.cfi_startproc
 617              		@ args = 0, pretend = 0, frame = 0
 618              		@ frame_needed = 0, uses_anonymous_args = 0
 619              	.LVL76:
 620 0000 F8B5     		push	{r3, r4, r5, r6, r7, lr}
 621              	.LCFI7:
 622              		.cfi_def_cfa_offset 24
 623              		.cfi_offset 3, -24
 624              		.cfi_offset 4, -20
 625              		.cfi_offset 5, -16
 626              		.cfi_offset 6, -12
 627              		.cfi_offset 7, -8
 628              		.cfi_offset 14, -4
 721:Middlewares/Third_Party/LwIP/src/core/pbuf.c ****     LWIP_ASSERT("p != NULL", p != NULL);
 629              		.loc 1 721 0
 630 0002 28B1     		cbz	r0, .L74
 631 0004 0446     		mov	r4, r0
 732:Middlewares/Third_Party/LwIP/src/core/pbuf.c ****     p->type == PBUF_RAM || p->type == PBUF_ROM ||
 632              		.loc 1 732 0
 633 0006 037B     		ldrb	r3, [r0, #12]	@ zero_extendqisi2
 634 0008 032B     		cmp	r3, #3
 635 000a 0BD8     		bhi	.L75
ARM GAS  C:\Users\Patryk\AppData\Local\Temp\ccybDtdu.s 			page 33


 636              	.LVL77:
 637              	.L64:
 716:Middlewares/Third_Party/LwIP/src/core/pbuf.c ****   u16_t type;
 638              		.loc 1 716 0
 639 000c 0026     		movs	r6, #0
 640 000e 1FE0     		b	.L71
 641              	.LVL78:
 642              	.L74:
 722:Middlewares/Third_Party/LwIP/src/core/pbuf.c ****     /* if assertions are disabled, proceed with debug output */
 643              		.loc 1 722 0 discriminator 1
 644 0010 2A4B     		ldr	r3, .L79
 645 0012 40F2D222 		movw	r2, #722
 646 0016 2A49     		ldr	r1, .L79+4
 647 0018 2A48     		ldr	r0, .L79+8
 648              	.LVL79:
 649 001a FFF7FEFF 		bl	printf
 650              	.LVL80:
 726:Middlewares/Third_Party/LwIP/src/core/pbuf.c ****   }
 651              		.loc 1 726 0 discriminator 1
 652 001e 0026     		movs	r6, #0
 653              	.LVL81:
 654              	.L63:
 791:Middlewares/Third_Party/LwIP/src/core/pbuf.c **** 
 655              		.loc 1 791 0
 656 0020 3046     		mov	r0, r6
 657 0022 F8BD     		pop	{r3, r4, r5, r6, r7, pc}
 658              	.LVL82:
 659              	.L75:
 732:Middlewares/Third_Party/LwIP/src/core/pbuf.c ****     p->type == PBUF_RAM || p->type == PBUF_ROM ||
 660              		.loc 1 732 0 discriminator 1
 661 0024 254B     		ldr	r3, .L79
 662 0026 40F2DE22 		movw	r2, #734
 663 002a 2749     		ldr	r1, .L79+12
 664 002c 2548     		ldr	r0, .L79+8
 665              	.LVL83:
 666 002e FFF7FEFF 		bl	printf
 667              	.LVL84:
 668 0032 EBE7     		b	.L64
 669              	.LVL85:
 670              	.L76:
 671              	.LBB3:
 747:Middlewares/Third_Party/LwIP/src/core/pbuf.c ****     /* decrease reference count (number of pointers to pbuf) */
 672              		.loc 1 747 0 discriminator 1
 673 0034 214B     		ldr	r3, .L79
 674 0036 40F2EB22 		movw	r2, #747
 675 003a 2449     		ldr	r1, .L79+16
 676 003c 2148     		ldr	r0, .L79+8
 677              	.LVL86:
 678 003e FFF7FEFF 		bl	printf
 679              	.LVL87:
 680 0042 0DE0     		b	.L65
 681              	.LVL88:
 682              	.L67:
 683              	.LBB4:
 762:Middlewares/Third_Party/LwIP/src/core/pbuf.c ****       } else
 684              		.loc 1 762 0
 685 0044 2369     		ldr	r3, [r4, #16]
ARM GAS  C:\Users\Patryk\AppData\Local\Temp\ccybDtdu.s 			page 34


 686 0046 2046     		mov	r0, r4
 687 0048 9847     		blx	r3
 688              	.LVL89:
 689              	.L68:
 690              	.LBE4:
 777:Middlewares/Third_Party/LwIP/src/core/pbuf.c ****       /* proceed to next pbuf */
 691              		.loc 1 777 0
 692 004a 0136     		adds	r6, r6, #1
 693              	.LVL90:
 694 004c F6B2     		uxtb	r6, r6
 695              	.LVL91:
 779:Middlewares/Third_Party/LwIP/src/core/pbuf.c ****     /* p->ref > 0, this pbuf is still referenced to */
 696              		.loc 1 779 0
 697 004e 2C46     		mov	r4, r5
 698              	.LVL92:
 699              	.L71:
 700              	.LBE3:
 739:Middlewares/Third_Party/LwIP/src/core/pbuf.c ****     u16_t ref;
 701              		.loc 1 739 0
 702 0050 002C     		cmp	r4, #0
 703 0052 E5D0     		beq	.L63
 704              	.LBB6:
 745:Middlewares/Third_Party/LwIP/src/core/pbuf.c ****     /* all pbufs in a chain are referenced at least once */
 705              		.loc 1 745 0
 706 0054 FFF7FEFF 		bl	sys_arch_protect
 707              	.LVL93:
 708 0058 0746     		mov	r7, r0
 709              	.LVL94:
 747:Middlewares/Third_Party/LwIP/src/core/pbuf.c ****     /* decrease reference count (number of pointers to pbuf) */
 710              		.loc 1 747 0
 711 005a E389     		ldrh	r3, [r4, #14]
 712 005c 002B     		cmp	r3, #0
 713 005e E9D0     		beq	.L76
 714              	.LVL95:
 715              	.L65:
 749:Middlewares/Third_Party/LwIP/src/core/pbuf.c ****     SYS_ARCH_UNPROTECT(old_level);
 716              		.loc 1 749 0
 717 0060 E589     		ldrh	r5, [r4, #14]
 718 0062 013D     		subs	r5, r5, #1
 719 0064 ADB2     		uxth	r5, r5
 720 0066 E581     		strh	r5, [r4, #14]	@ movhi
 721              	.LVL96:
 750:Middlewares/Third_Party/LwIP/src/core/pbuf.c ****     /* this pbuf is no longer referenced to? */
 722              		.loc 1 750 0
 723 0068 3846     		mov	r0, r7
 724 006a FFF7FEFF 		bl	sys_arch_unprotect
 725              	.LVL97:
 752:Middlewares/Third_Party/LwIP/src/core/pbuf.c ****       /* remember next pbuf in chain for next iteration */
 726              		.loc 1 752 0
 727 006e 002D     		cmp	r5, #0
 728 0070 D6D1     		bne	.L63
 754:Middlewares/Third_Party/LwIP/src/core/pbuf.c ****       LWIP_DEBUGF( PBUF_DEBUG | LWIP_DBG_TRACE, ("pbuf_free: deallocating %p\n", (void *)p));
 729              		.loc 1 754 0
 730 0072 2568     		ldr	r5, [r4]
 731              	.LVL98:
 756:Middlewares/Third_Party/LwIP/src/core/pbuf.c **** #if LWIP_SUPPORT_CUSTOM_PBUF
 732              		.loc 1 756 0
ARM GAS  C:\Users\Patryk\AppData\Local\Temp\ccybDtdu.s 			page 35


 733 0074 237B     		ldrb	r3, [r4, #12]	@ zero_extendqisi2
 734              	.LVL99:
 759:Middlewares/Third_Party/LwIP/src/core/pbuf.c ****         struct pbuf_custom *pc = (struct pbuf_custom*)p;
 735              		.loc 1 759 0
 736 0076 627B     		ldrb	r2, [r4, #13]	@ zero_extendqisi2
 737 0078 12F0020F 		tst	r2, #2
 738 007c 0AD0     		beq	.L66
 739              	.LVL100:
 740              	.LBB5:
 761:Middlewares/Third_Party/LwIP/src/core/pbuf.c ****         pc->custom_free_function(p);
 741              		.loc 1 761 0
 742 007e 2369     		ldr	r3, [r4, #16]
 743              	.LVL101:
 744 0080 002B     		cmp	r3, #0
 745 0082 DFD1     		bne	.L67
 761:Middlewares/Third_Party/LwIP/src/core/pbuf.c ****         pc->custom_free_function(p);
 746              		.loc 1 761 0 is_stmt 0 discriminator 1
 747 0084 0D4B     		ldr	r3, .L79
 748 0086 40F2F922 		movw	r2, #761
 749 008a 1149     		ldr	r1, .L79+20
 750 008c 0D48     		ldr	r0, .L79+8
 751 008e FFF7FEFF 		bl	printf
 752              	.LVL102:
 753 0092 D7E7     		b	.L67
 754              	.LVL103:
 755              	.L66:
 756              	.LBE5:
 767:Middlewares/Third_Party/LwIP/src/core/pbuf.c ****           memp_free(MEMP_PBUF_POOL, p);
 757              		.loc 1 767 0 is_stmt 1
 758 0094 032B     		cmp	r3, #3
 759 0096 07D0     		beq	.L77
 770:Middlewares/Third_Party/LwIP/src/core/pbuf.c ****           memp_free(MEMP_PBUF, p);
 760              		.loc 1 770 0
 761 0098 013B     		subs	r3, r3, #1
 762              	.LVL104:
 763 009a 9BB2     		uxth	r3, r3
 764              	.LVL105:
 765 009c 012B     		cmp	r3, #1
 766 009e 08D9     		bls	.L78
 774:Middlewares/Third_Party/LwIP/src/core/pbuf.c ****         }
 767              		.loc 1 774 0
 768 00a0 2046     		mov	r0, r4
 769 00a2 FFF7FEFF 		bl	mem_free
 770              	.LVL106:
 771 00a6 D0E7     		b	.L68
 772              	.LVL107:
 773              	.L77:
 768:Middlewares/Third_Party/LwIP/src/core/pbuf.c ****         /* is this a ROM or RAM referencing pbuf? */
 774              		.loc 1 768 0
 775 00a8 2146     		mov	r1, r4
 776 00aa 0D20     		movs	r0, #13
 777 00ac FFF7FEFF 		bl	memp_free
 778              	.LVL108:
 779 00b0 CBE7     		b	.L68
 780              	.LVL109:
 781              	.L78:
 771:Middlewares/Third_Party/LwIP/src/core/pbuf.c ****         /* type == PBUF_RAM */
ARM GAS  C:\Users\Patryk\AppData\Local\Temp\ccybDtdu.s 			page 36


 782              		.loc 1 771 0
 783 00b2 2146     		mov	r1, r4
 784 00b4 0C20     		movs	r0, #12
 785 00b6 FFF7FEFF 		bl	memp_free
 786              	.LVL110:
 787 00ba C6E7     		b	.L68
 788              	.L80:
 789              		.align	2
 790              	.L79:
 791 00bc 00000000 		.word	.LC0
 792 00c0 30000000 		.word	.LC1
 793 00c4 3C000000 		.word	.LC2
 794 00c8 00000000 		.word	.LC6
 795 00cc 18000000 		.word	.LC7
 796 00d0 30000000 		.word	.LC8
 797              	.LBE6:
 798              		.cfi_endproc
 799              	.LFE168:
 801              		.section	.text.pbuf_alloc,"ax",%progbits
 802              		.align	1
 803              		.global	pbuf_alloc
 804              		.syntax unified
 805              		.thumb
 806              		.thumb_func
 807              		.fpu fpv5-sp-d16
 809              	pbuf_alloc:
 810              	.LFB162:
 249:Middlewares/Third_Party/LwIP/src/core/pbuf.c ****   struct pbuf *p, *q, *r;
 811              		.loc 1 249 0
 812              		.cfi_startproc
 813              		@ args = 0, pretend = 0, frame = 0
 814              		@ frame_needed = 0, uses_anonymous_args = 0
 815              	.LVL111:
 816 0000 2DE9F843 		push	{r3, r4, r5, r6, r7, r8, r9, lr}
 817              	.LCFI8:
 818              		.cfi_def_cfa_offset 32
 819              		.cfi_offset 3, -32
 820              		.cfi_offset 4, -28
 821              		.cfi_offset 5, -24
 822              		.cfi_offset 6, -20
 823              		.cfi_offset 7, -16
 824              		.cfi_offset 8, -12
 825              		.cfi_offset 9, -8
 826              		.cfi_offset 14, -4
 827 0004 0E46     		mov	r6, r1
 828 0006 1746     		mov	r7, r2
 256:Middlewares/Third_Party/LwIP/src/core/pbuf.c ****   case PBUF_TRANSPORT:
 829              		.loc 1 256 0
 830 0008 0428     		cmp	r0, #4
 831 000a 0AD8     		bhi	.L82
 832 000c DFE800F0 		tbb	[pc, r0]
 833              	.L84:
 834 0010 12       		.byte	(.L83-.L84)/2
 835 0011 14       		.byte	(.L105-.L84)/2
 836 0012 03       		.byte	(.L86-.L84)/2
 837 0013 05       		.byte	(.L87-.L84)/2
 838 0014 07       		.byte	(.L88-.L84)/2
ARM GAS  C:\Users\Patryk\AppData\Local\Temp\ccybDtdu.s 			page 37


 839 0015 00       		.p2align 1
 840              	.L86:
 841              	.LVL112:
 267:Middlewares/Third_Party/LwIP/src/core/pbuf.c ****     break;
 842              		.loc 1 267 0
 843 0016 0E24     		movs	r4, #14
 268:Middlewares/Third_Party/LwIP/src/core/pbuf.c ****   case PBUF_RAW_TX:
 844              		.loc 1 268 0
 845 0018 0FE0     		b	.L85
 846              	.LVL113:
 847              	.L87:
 271:Middlewares/Third_Party/LwIP/src/core/pbuf.c ****     break;
 848              		.loc 1 271 0
 849 001a 0024     		movs	r4, #0
 272:Middlewares/Third_Party/LwIP/src/core/pbuf.c ****   case PBUF_RAW:
 850              		.loc 1 272 0
 851 001c 0DE0     		b	.L85
 852              	.LVL114:
 853              	.L88:
 275:Middlewares/Third_Party/LwIP/src/core/pbuf.c ****     break;
 854              		.loc 1 275 0
 855 001e 0024     		movs	r4, #0
 276:Middlewares/Third_Party/LwIP/src/core/pbuf.c ****   default:
 856              		.loc 1 276 0
 857 0020 0BE0     		b	.L85
 858              	.LVL115:
 859              	.L82:
 278:Middlewares/Third_Party/LwIP/src/core/pbuf.c ****     return NULL;
 860              		.loc 1 278 0 discriminator 1
 861 0022 644B     		ldr	r3, .L114
 862 0024 4FF48B72 		mov	r2, #278
 863              	.LVL116:
 864 0028 6349     		ldr	r1, .L114+4
 865              	.LVL117:
 866 002a 6448     		ldr	r0, .L114+8
 867              	.LVL118:
 868 002c FFF7FEFF 		bl	printf
 869              	.LVL119:
 279:Middlewares/Third_Party/LwIP/src/core/pbuf.c ****   }
 870              		.loc 1 279 0 discriminator 1
 871 0030 0025     		movs	r5, #0
 872 0032 B1E0     		b	.L81
 873              	.LVL120:
 874              	.L83:
 259:Middlewares/Third_Party/LwIP/src/core/pbuf.c ****     break;
 875              		.loc 1 259 0
 876 0034 3624     		movs	r4, #54
 877 0036 00E0     		b	.L85
 878              	.L105:
 263:Middlewares/Third_Party/LwIP/src/core/pbuf.c ****     break;
 879              		.loc 1 263 0
 880 0038 2224     		movs	r4, #34
 881              	.L85:
 882              	.LVL121:
 282:Middlewares/Third_Party/LwIP/src/core/pbuf.c ****   case PBUF_POOL:
 883              		.loc 1 282 0
 884 003a 032F     		cmp	r7, #3
ARM GAS  C:\Users\Patryk\AppData\Local\Temp\ccybDtdu.s 			page 38


 885 003c 00F2AF80 		bhi	.L90
 886 0040 DFE807F0 		tbb	[pc, r7]
 887              	.L92:
 888 0044 7B       		.byte	(.L91-.L92)/2
 889 0045 9B       		.byte	(.L93-.L92)/2
 890 0046 9B       		.byte	(.L93-.L92)/2
 891 0047 02       		.byte	(.L94-.L92)/2
 892              		.p2align 1
 893              	.L94:
 285:Middlewares/Third_Party/LwIP/src/core/pbuf.c ****     LWIP_DEBUGF(PBUF_DEBUG | LWIP_DBG_TRACE, ("pbuf_alloc: allocated pbuf %p\n", (void *)p));
 894              		.loc 1 285 0
 895 0048 0D20     		movs	r0, #13
 896              	.LVL122:
 897 004a FFF7FEFF 		bl	memp_malloc
 898              	.LVL123:
 287:Middlewares/Third_Party/LwIP/src/core/pbuf.c ****       PBUF_POOL_IS_EMPTY();
 899              		.loc 1 287 0
 900 004e 0546     		mov	r5, r0
 901 0050 F8B1     		cbz	r0, .L108
 291:Middlewares/Third_Party/LwIP/src/core/pbuf.c ****     p->next = NULL;
 902              		.loc 1 291 0
 903 0052 0773     		strb	r7, [r0, #12]
 292:Middlewares/Third_Party/LwIP/src/core/pbuf.c **** 
 904              		.loc 1 292 0
 905 0054 0023     		movs	r3, #0
 906 0056 0360     		str	r3, [r0]
 295:Middlewares/Third_Party/LwIP/src/core/pbuf.c ****     LWIP_ASSERT("pbuf_alloc: pbuf p->payload properly aligned",
 907              		.loc 1 295 0
 908 0058 04F11003 		add	r3, r4, #16
 909 005c 0344     		add	r3, r3, r0
 910 005e 0333     		adds	r3, r3, #3
 911 0060 23F00303 		bic	r3, r3, #3
 912 0064 4360     		str	r3, [r0, #4]
 299:Middlewares/Third_Party/LwIP/src/core/pbuf.c ****     /* set the length of the first pbuf in the chain */
 913              		.loc 1 299 0
 914 0066 0681     		strh	r6, [r0, #8]	@ movhi
 301:Middlewares/Third_Party/LwIP/src/core/pbuf.c ****     LWIP_ASSERT("check p->payload + p->len does not overflow pbuf",
 915              		.loc 1 301 0
 916 0068 E21C     		adds	r2, r4, #3
 917 006a 22F00302 		bic	r2, r2, #3
 918 006e C2F51472 		rsb	r2, r2, #592
 919 0072 B242     		cmp	r2, r6
 920 0074 28BF     		it	cs
 921 0076 3246     		movcs	r2, r6
 922 0078 92B2     		uxth	r2, r2
 923 007a 4281     		strh	r2, [r0, #10]	@ movhi
 302:Middlewares/Third_Party/LwIP/src/core/pbuf.c ****                 ((u8_t*)p->payload + p->len <=
 924              		.loc 1 302 0
 925 007c 1344     		add	r3, r3, r2
 926 007e 00F51878 		add	r8, r0, #608
 927 0082 4345     		cmp	r3, r8
 928 0084 08D8     		bhi	.L109
 929              	.LVL124:
 930              	.L97:
 308:Middlewares/Third_Party/LwIP/src/core/pbuf.c **** 
 931              		.loc 1 308 0
 932 0086 0123     		movs	r3, #1
ARM GAS  C:\Users\Patryk\AppData\Local\Temp\ccybDtdu.s 			page 39


 933 0088 EB81     		strh	r3, [r5, #14]	@ movhi
 934              	.LVL125:
 315:Middlewares/Third_Party/LwIP/src/core/pbuf.c ****     /* any remaining pbufs to be allocated? */
 935              		.loc 1 315 0
 936 008a 6B89     		ldrh	r3, [r5, #10]
 937 008c F61A     		subs	r6, r6, r3
 938              	.LVL126:
 313:Middlewares/Third_Party/LwIP/src/core/pbuf.c ****     /* remaining length to be allocated */
 939              		.loc 1 313 0
 940 008e A946     		mov	r9, r5
 317:Middlewares/Third_Party/LwIP/src/core/pbuf.c ****       q = (struct pbuf *)memp_malloc(MEMP_PBUF_POOL);
 941              		.loc 1 317 0
 942 0090 2DE0     		b	.L98
 943              	.LVL127:
 944              	.L108:
 288:Middlewares/Third_Party/LwIP/src/core/pbuf.c ****       return NULL;
 945              		.loc 1 288 0
 946 0092 FFF7FEFF 		bl	pbuf_pool_is_empty
 947              	.LVL128:
 289:Middlewares/Third_Party/LwIP/src/core/pbuf.c ****     }
 948              		.loc 1 289 0
 949 0096 7FE0     		b	.L81
 950              	.LVL129:
 951              	.L109:
 302:Middlewares/Third_Party/LwIP/src/core/pbuf.c ****                 ((u8_t*)p->payload + p->len <=
 952              		.loc 1 302 0 discriminator 1
 953 0098 464B     		ldr	r3, .L114
 954 009a 4FF49872 		mov	r2, #304
 955 009e 4849     		ldr	r1, .L114+12
 956 00a0 4648     		ldr	r0, .L114+8
 957              	.LVL130:
 958 00a2 FFF7FEFF 		bl	printf
 959              	.LVL131:
 960 00a6 EEE7     		b	.L97
 961              	.LVL132:
 962              	.L110:
 320:Middlewares/Third_Party/LwIP/src/core/pbuf.c ****         /* free chain so far allocated */
 963              		.loc 1 320 0
 964 00a8 FFF7FEFF 		bl	pbuf_pool_is_empty
 965              	.LVL133:
 322:Middlewares/Third_Party/LwIP/src/core/pbuf.c ****         /* bail out unsuccessfully */
 966              		.loc 1 322 0
 967 00ac 2846     		mov	r0, r5
 968 00ae FFF7FEFF 		bl	pbuf_free
 969              	.LVL134:
 324:Middlewares/Third_Party/LwIP/src/core/pbuf.c ****       }
 970              		.loc 1 324 0
 971 00b2 2546     		mov	r5, r4
 972              	.LVL135:
 973 00b4 70E0     		b	.L81
 974              	.LVL136:
 975              	.L111:
 332:Middlewares/Third_Party/LwIP/src/core/pbuf.c ****       q->tot_len = (u16_t)rem_len;
 976              		.loc 1 332 0 discriminator 1
 977 00b6 3F4B     		ldr	r3, .L114
 978 00b8 4FF4A672 		mov	r2, #332
 979 00bc 4149     		ldr	r1, .L114+16
ARM GAS  C:\Users\Patryk\AppData\Local\Temp\ccybDtdu.s 			page 40


 980 00be 3F48     		ldr	r0, .L114+8
 981              	.LVL137:
 982 00c0 FFF7FEFF 		bl	printf
 983              	.LVL138:
 984 00c4 25E0     		b	.L100
 985              	.L112:
 337:Middlewares/Third_Party/LwIP/src/core/pbuf.c ****               ((mem_ptr_t)q->payload % MEM_ALIGNMENT) == 0);
 986              		.loc 1 337 0 discriminator 1
 987 00c6 3B4B     		ldr	r3, .L114
 988 00c8 4FF4A972 		mov	r2, #338
 989 00cc 3E49     		ldr	r1, .L114+20
 990 00ce 3B48     		ldr	r0, .L114+8
 991 00d0 FFF7FEFF 		bl	printf
 992              	.LVL139:
 993 00d4 2BE0     		b	.L101
 994              	.L113:
 339:Middlewares/Third_Party/LwIP/src/core/pbuf.c ****                   ((u8_t*)p->payload + p->len <=
 995              		.loc 1 339 0 discriminator 1
 996 00d6 374B     		ldr	r3, .L114
 997 00d8 40F25512 		movw	r2, #341
 998 00dc 3849     		ldr	r1, .L114+12
 999 00de 3748     		ldr	r0, .L114+8
 1000 00e0 FFF7FEFF 		bl	printf
 1001              	.LVL140:
 1002              	.L102:
 342:Middlewares/Third_Party/LwIP/src/core/pbuf.c ****       /* calculate remaining length to be allocated */
 1003              		.loc 1 342 0
 1004 00e4 0123     		movs	r3, #1
 1005 00e6 E381     		strh	r3, [r4, #14]	@ movhi
 344:Middlewares/Third_Party/LwIP/src/core/pbuf.c ****       /* remember this pbuf for linkage in next iteration */
 1006              		.loc 1 344 0
 1007 00e8 6389     		ldrh	r3, [r4, #10]
 1008 00ea F61A     		subs	r6, r6, r3
 1009              	.LVL141:
 346:Middlewares/Third_Party/LwIP/src/core/pbuf.c ****     }
 1010              		.loc 1 346 0
 1011 00ec A146     		mov	r9, r4
 1012              	.LVL142:
 1013              	.L98:
 317:Middlewares/Third_Party/LwIP/src/core/pbuf.c ****       q = (struct pbuf *)memp_malloc(MEMP_PBUF_POOL);
 1014              		.loc 1 317 0
 1015 00ee 002E     		cmp	r6, #0
 1016 00f0 4EDD     		ble	.L104
 318:Middlewares/Third_Party/LwIP/src/core/pbuf.c ****       if (q == NULL) {
 1017              		.loc 1 318 0
 1018 00f2 0D20     		movs	r0, #13
 1019 00f4 FFF7FEFF 		bl	memp_malloc
 1020              	.LVL143:
 319:Middlewares/Third_Party/LwIP/src/core/pbuf.c ****         PBUF_POOL_IS_EMPTY();
 1021              		.loc 1 319 0
 1022 00f8 0446     		mov	r4, r0
 1023 00fa 0028     		cmp	r0, #0
 1024 00fc D4D0     		beq	.L110
 326:Middlewares/Third_Party/LwIP/src/core/pbuf.c ****       q->flags = 0;
 1025              		.loc 1 326 0
 1026 00fe 0773     		strb	r7, [r0, #12]
 327:Middlewares/Third_Party/LwIP/src/core/pbuf.c ****       q->next = NULL;
ARM GAS  C:\Users\Patryk\AppData\Local\Temp\ccybDtdu.s 			page 41


 1027              		.loc 1 327 0
 1028 0100 0023     		movs	r3, #0
 1029 0102 4373     		strb	r3, [r0, #13]
 328:Middlewares/Third_Party/LwIP/src/core/pbuf.c ****       /* make previous pbuf point to this pbuf */
 1030              		.loc 1 328 0
 1031 0104 0360     		str	r3, [r0]
 330:Middlewares/Third_Party/LwIP/src/core/pbuf.c ****       /* set total length of this pbuf and next in chain */
 1032              		.loc 1 330 0
 1033 0106 C9F80000 		str	r0, [r9]
 332:Middlewares/Third_Party/LwIP/src/core/pbuf.c ****       q->tot_len = (u16_t)rem_len;
 1034              		.loc 1 332 0
 1035 010a 4FF6FE73 		movw	r3, #65534
 1036 010e 9E42     		cmp	r6, r3
 1037 0110 D1DC     		bgt	.L111
 1038              	.LVL144:
 1039              	.L100:
 333:Middlewares/Third_Party/LwIP/src/core/pbuf.c ****       /* this pbuf length is pool size, unless smaller sized tail */
 1040              		.loc 1 333 0
 1041 0112 B3B2     		uxth	r3, r6
 1042 0114 2381     		strh	r3, [r4, #8]	@ movhi
 335:Middlewares/Third_Party/LwIP/src/core/pbuf.c ****       q->payload = (void *)((u8_t *)q + SIZEOF_STRUCT_PBUF);
 1043              		.loc 1 335 0
 1044 0116 B3F5147F 		cmp	r3, #592
 1045 011a 28BF     		it	cs
 1046 011c 4FF41473 		movcs	r3, #592
 1047 0120 6381     		strh	r3, [r4, #10]	@ movhi
 336:Middlewares/Third_Party/LwIP/src/core/pbuf.c ****       LWIP_ASSERT("pbuf_alloc: pbuf q->payload properly aligned",
 1048              		.loc 1 336 0
 1049 0122 04F11003 		add	r3, r4, #16
 1050 0126 6360     		str	r3, [r4, #4]
 337:Middlewares/Third_Party/LwIP/src/core/pbuf.c ****               ((mem_ptr_t)q->payload % MEM_ALIGNMENT) == 0);
 1051              		.loc 1 337 0
 1052 0128 13F0030F 		tst	r3, #3
 1053 012c CBD1     		bne	.L112
 1054              	.L101:
 339:Middlewares/Third_Party/LwIP/src/core/pbuf.c ****                   ((u8_t*)p->payload + p->len <=
 1055              		.loc 1 339 0
 1056 012e 6B68     		ldr	r3, [r5, #4]
 1057 0130 6A89     		ldrh	r2, [r5, #10]
 1058 0132 1344     		add	r3, r3, r2
 1059 0134 9845     		cmp	r8, r3
 1060 0136 D5D2     		bcs	.L102
 1061 0138 CDE7     		b	.L113
 1062              	.LVL145:
 1063              	.L91:
 1064              	.LBB7:
 354:Middlewares/Third_Party/LwIP/src/core/pbuf.c ****       
 1065              		.loc 1 354 0
 1066 013a 04F11300 		add	r0, r4, #19
 1067              	.LVL146:
 1068 013e 20F00300 		bic	r0, r0, #3
 1069 0142 83B2     		uxth	r3, r0
 1070 0144 F21C     		adds	r2, r6, #3
 1071              	.LVL147:
 1072 0146 90B2     		uxth	r0, r2
 1073 0148 20F00300 		bic	r0, r0, #3
 1074 014c 1844     		add	r0, r0, r3
ARM GAS  C:\Users\Patryk\AppData\Local\Temp\ccybDtdu.s 			page 42


 1075 014e 80B2     		uxth	r0, r0
 1076              	.LVL148:
 357:Middlewares/Third_Party/LwIP/src/core/pbuf.c ****         return NULL;
 1077              		.loc 1 357 0
 1078 0150 22F00302 		bic	r2, r2, #3
 1079 0154 9042     		cmp	r0, r2
 1080 0156 2BD3     		bcc	.L106
 362:Middlewares/Third_Party/LwIP/src/core/pbuf.c ****     }
 1081              		.loc 1 362 0
 1082 0158 FFF7FEFF 		bl	mem_malloc
 1083              	.LVL149:
 1084              	.LBE7:
 365:Middlewares/Third_Party/LwIP/src/core/pbuf.c ****       return NULL;
 1085              		.loc 1 365 0
 1086 015c 0546     		mov	r5, r0
 1087 015e D8B1     		cbz	r0, .L81
 369:Middlewares/Third_Party/LwIP/src/core/pbuf.c ****     p->len = p->tot_len = length;
 1088              		.loc 1 369 0
 1089 0160 04F11003 		add	r3, r4, #16
 1090 0164 0344     		add	r3, r3, r0
 1091 0166 0333     		adds	r3, r3, #3
 1092 0168 23F00303 		bic	r3, r3, #3
 1093 016c 4360     		str	r3, [r0, #4]
 370:Middlewares/Third_Party/LwIP/src/core/pbuf.c ****     p->next = NULL;
 1094              		.loc 1 370 0
 1095 016e 0681     		strh	r6, [r0, #8]	@ movhi
 1096 0170 4681     		strh	r6, [r0, #10]	@ movhi
 371:Middlewares/Third_Party/LwIP/src/core/pbuf.c ****     p->type = type;
 1097              		.loc 1 371 0
 1098 0172 0023     		movs	r3, #0
 1099 0174 0360     		str	r3, [r0]
 372:Middlewares/Third_Party/LwIP/src/core/pbuf.c **** 
 1100              		.loc 1 372 0
 1101 0176 0773     		strb	r7, [r0, #12]
 1102 0178 0AE0     		b	.L104
 1103              	.LVL150:
 1104              	.L93:
 382:Middlewares/Third_Party/LwIP/src/core/pbuf.c ****     if (p == NULL) {
 1105              		.loc 1 382 0
 1106 017a 0C20     		movs	r0, #12
 1107              	.LVL151:
 1108 017c FFF7FEFF 		bl	memp_malloc
 1109              	.LVL152:
 383:Middlewares/Third_Party/LwIP/src/core/pbuf.c ****       LWIP_DEBUGF(PBUF_DEBUG | LWIP_DBG_LEVEL_SERIOUS,
 1110              		.loc 1 383 0
 1111 0180 0546     		mov	r5, r0
 1112 0182 48B1     		cbz	r0, .L81
 390:Middlewares/Third_Party/LwIP/src/core/pbuf.c ****     p->len = p->tot_len = length;
 1113              		.loc 1 390 0
 1114 0184 0023     		movs	r3, #0
 1115 0186 4360     		str	r3, [r0, #4]
 391:Middlewares/Third_Party/LwIP/src/core/pbuf.c ****     p->next = NULL;
 1116              		.loc 1 391 0
 1117 0188 0681     		strh	r6, [r0, #8]	@ movhi
 1118 018a 4681     		strh	r6, [r0, #10]	@ movhi
 392:Middlewares/Third_Party/LwIP/src/core/pbuf.c ****     p->type = type;
 1119              		.loc 1 392 0
ARM GAS  C:\Users\Patryk\AppData\Local\Temp\ccybDtdu.s 			page 43


 1120 018c 0360     		str	r3, [r0]
 393:Middlewares/Third_Party/LwIP/src/core/pbuf.c ****     break;
 1121              		.loc 1 393 0
 1122 018e 0773     		strb	r7, [r0, #12]
 1123              	.LVL153:
 1124              	.L104:
 400:Middlewares/Third_Party/LwIP/src/core/pbuf.c ****   /* set flags */
 1125              		.loc 1 400 0
 1126 0190 0123     		movs	r3, #1
 1127 0192 EB81     		strh	r3, [r5, #14]	@ movhi
 402:Middlewares/Third_Party/LwIP/src/core/pbuf.c ****   LWIP_DEBUGF(PBUF_DEBUG | LWIP_DBG_TRACE, ("pbuf_alloc(length=%"U16_F") == %p\n", length, (void *)
 1128              		.loc 1 402 0
 1129 0194 0023     		movs	r3, #0
 1130 0196 6B73     		strb	r3, [r5, #13]
 1131              	.LVL154:
 1132              	.L81:
 405:Middlewares/Third_Party/LwIP/src/core/pbuf.c **** 
 1133              		.loc 1 405 0
 1134 0198 2846     		mov	r0, r5
 1135 019a BDE8F883 		pop	{r3, r4, r5, r6, r7, r8, r9, pc}
 1136              	.LVL155:
 1137              	.L90:
 396:Middlewares/Third_Party/LwIP/src/core/pbuf.c ****     return NULL;
 1138              		.loc 1 396 0 discriminator 1
 1139 019e 054B     		ldr	r3, .L114
 1140 01a0 4FF4C672 		mov	r2, #396
 1141              	.LVL156:
 1142 01a4 0949     		ldr	r1, .L114+24
 1143              	.LVL157:
 1144 01a6 0548     		ldr	r0, .L114+8
 1145              	.LVL158:
 1146 01a8 FFF7FEFF 		bl	printf
 1147              	.LVL159:
 397:Middlewares/Third_Party/LwIP/src/core/pbuf.c ****   }
 1148              		.loc 1 397 0 discriminator 1
 1149 01ac 0025     		movs	r5, #0
 1150 01ae F3E7     		b	.L81
 1151              	.LVL160:
 1152              	.L106:
 1153              	.LBB8:
 358:Middlewares/Third_Party/LwIP/src/core/pbuf.c ****       }
 1154              		.loc 1 358 0
 1155 01b0 0025     		movs	r5, #0
 1156 01b2 F1E7     		b	.L81
 1157              	.L115:
 1158              		.align	2
 1159              	.L114:
 1160 01b4 00000000 		.word	.LC0
 1161 01b8 00000000 		.word	.LC9
 1162 01bc 3C000000 		.word	.LC2
 1163 01c0 1C000000 		.word	.LC10
 1164 01c4 84000000 		.word	.LC12
 1165 01c8 98000000 		.word	.LC13
 1166 01cc C8000000 		.word	.LC14
 1167              	.LBE8:
 1168              		.cfi_endproc
 1169              	.LFE162:
ARM GAS  C:\Users\Patryk\AppData\Local\Temp\ccybDtdu.s 			page 44


 1171              		.section	.text.pbuf_realloc,"ax",%progbits
 1172              		.align	1
 1173              		.global	pbuf_realloc
 1174              		.syntax unified
 1175              		.thumb
 1176              		.thumb_func
 1177              		.fpu fpv5-sp-d16
 1179              	pbuf_realloc:
 1180              	.LFB164:
 494:Middlewares/Third_Party/LwIP/src/core/pbuf.c ****   struct pbuf *q;
 1181              		.loc 1 494 0
 1182              		.cfi_startproc
 1183              		@ args = 0, pretend = 0, frame = 0
 1184              		@ frame_needed = 0, uses_anonymous_args = 0
 1185              	.LVL161:
 1186 0000 2DE9F041 		push	{r4, r5, r6, r7, r8, lr}
 1187              	.LCFI9:
 1188              		.cfi_def_cfa_offset 24
 1189              		.cfi_offset 4, -24
 1190              		.cfi_offset 5, -20
 1191              		.cfi_offset 6, -16
 1192              		.cfi_offset 7, -12
 1193              		.cfi_offset 8, -8
 1194              		.cfi_offset 14, -4
 1195 0004 0E46     		mov	r6, r1
 499:Middlewares/Third_Party/LwIP/src/core/pbuf.c ****   LWIP_ASSERT("pbuf_realloc: sane p->type", p->type == PBUF_POOL ||
 1196              		.loc 1 499 0
 1197 0006 0446     		mov	r4, r0
 1198 0008 70B1     		cbz	r0, .L127
 1199              	.LVL162:
 1200              	.L117:
 500:Middlewares/Third_Party/LwIP/src/core/pbuf.c ****               p->type == PBUF_ROM ||
 1201              		.loc 1 500 0
 1202 000a 237B     		ldrb	r3, [r4, #12]	@ zero_extendqisi2
 1203 000c 032B     		cmp	r3, #3
 1204 000e 18BF     		it	ne
 1205 0010 012B     		cmpne	r3, #1
 1206 0012 02D0     		beq	.L118
 500:Middlewares/Third_Party/LwIP/src/core/pbuf.c ****               p->type == PBUF_ROM ||
 1207              		.loc 1 500 0 is_stmt 0 discriminator 1
 1208 0014 0BB1     		cbz	r3, .L118
 500:Middlewares/Third_Party/LwIP/src/core/pbuf.c ****               p->type == PBUF_ROM ||
 1209              		.loc 1 500 0 discriminator 2
 1210 0016 022B     		cmp	r3, #2
 1211 0018 0ED1     		bne	.L128
 1212              	.L118:
 506:Middlewares/Third_Party/LwIP/src/core/pbuf.c ****     /* enlarging not yet supported */
 1213              		.loc 1 506 0 is_stmt 1
 1214 001a 2789     		ldrh	r7, [r4, #8]
 1215 001c B742     		cmp	r7, r6
 1216 001e 43D9     		bls	.L116
 513:Middlewares/Third_Party/LwIP/src/core/pbuf.c **** 
 1217              		.loc 1 513 0
 1218 0020 A6EB0708 		sub	r8, r6, r7
 1219              	.LVL163:
 516:Middlewares/Third_Party/LwIP/src/core/pbuf.c ****   q = p;
 1220              		.loc 1 516 0
ARM GAS  C:\Users\Patryk\AppData\Local\Temp\ccybDtdu.s 			page 45


 1221 0024 3546     		mov	r5, r6
 519:Middlewares/Third_Party/LwIP/src/core/pbuf.c ****     /* decrease remaining length by pbuf length */
 1222              		.loc 1 519 0
 1223 0026 16E0     		b	.L120
 1224              	.LVL164:
 1225              	.L127:
 499:Middlewares/Third_Party/LwIP/src/core/pbuf.c ****   LWIP_ASSERT("pbuf_realloc: sane p->type", p->type == PBUF_POOL ||
 1226              		.loc 1 499 0 discriminator 1
 1227 0028 2A4B     		ldr	r3, .L132
 1228 002a 40F2F312 		movw	r2, #499
 1229 002e 2A49     		ldr	r1, .L132+4
 1230              	.LVL165:
 1231 0030 2A48     		ldr	r0, .L132+8
 1232              	.LVL166:
 1233 0032 FFF7FEFF 		bl	printf
 1234              	.LVL167:
 1235 0036 E8E7     		b	.L117
 1236              	.L128:
 500:Middlewares/Third_Party/LwIP/src/core/pbuf.c ****               p->type == PBUF_ROM ||
 1237              		.loc 1 500 0 discriminator 3
 1238 0038 264B     		ldr	r3, .L132
 1239 003a 40F2F712 		movw	r2, #503
 1240 003e 2849     		ldr	r1, .L132+12
 1241 0040 2648     		ldr	r0, .L132+8
 1242 0042 FFF7FEFF 		bl	printf
 1243              	.LVL168:
 1244 0046 E8E7     		b	.L118
 1245              	.LVL169:
 1246              	.L121:
 524:Middlewares/Third_Party/LwIP/src/core/pbuf.c ****     /* proceed to next pbuf in chain */
 1247              		.loc 1 524 0
 1248 0048 F31B     		subs	r3, r6, r7
 1249 004a 2289     		ldrh	r2, [r4, #8]
 1250 004c 12FA83F3 		uxtah	r3, r2, r3
 1251 0050 2381     		strh	r3, [r4, #8]	@ movhi
 526:Middlewares/Third_Party/LwIP/src/core/pbuf.c ****     LWIP_ASSERT("pbuf_realloc: q != NULL", q != NULL);
 1252              		.loc 1 526 0
 1253 0052 2468     		ldr	r4, [r4]
 1254              	.LVL170:
 527:Middlewares/Third_Party/LwIP/src/core/pbuf.c ****   }
 1255              		.loc 1 527 0
 1256 0054 84B1     		cbz	r4, .L129
 1257              	.LVL171:
 1258              	.L120:
 519:Middlewares/Third_Party/LwIP/src/core/pbuf.c ****     /* decrease remaining length by pbuf length */
 1259              		.loc 1 519 0
 1260 0056 6389     		ldrh	r3, [r4, #10]
 1261 0058 AB42     		cmp	r3, r5
 1262 005a 15D2     		bcs	.L130
 521:Middlewares/Third_Party/LwIP/src/core/pbuf.c ****     /* decrease total length indicator */
 1263              		.loc 1 521 0
 1264 005c ED1A     		subs	r5, r5, r3
 1265              	.LVL172:
 1266 005e ADB2     		uxth	r5, r5
 1267              	.LVL173:
 523:Middlewares/Third_Party/LwIP/src/core/pbuf.c ****     q->tot_len += (u16_t)grow;
 1268              		.loc 1 523 0
ARM GAS  C:\Users\Patryk\AppData\Local\Temp\ccybDtdu.s 			page 46


 1269 0060 4FF6FE73 		movw	r3, #65534
 1270 0064 9845     		cmp	r8, r3
 1271 0066 EFDD     		ble	.L121
 523:Middlewares/Third_Party/LwIP/src/core/pbuf.c ****     q->tot_len += (u16_t)grow;
 1272              		.loc 1 523 0 is_stmt 0 discriminator 1
 1273 0068 1A4B     		ldr	r3, .L132
 1274 006a 40F20B22 		movw	r2, #523
 1275 006e 1D49     		ldr	r1, .L132+16
 1276 0070 1A48     		ldr	r0, .L132+8
 1277 0072 FFF7FEFF 		bl	printf
 1278              	.LVL174:
 1279 0076 E7E7     		b	.L121
 1280              	.L129:
 527:Middlewares/Third_Party/LwIP/src/core/pbuf.c ****   }
 1281              		.loc 1 527 0 is_stmt 1 discriminator 1
 1282 0078 164B     		ldr	r3, .L132
 1283 007a 40F20F22 		movw	r2, #527
 1284 007e 1A49     		ldr	r1, .L132+20
 1285 0080 1648     		ldr	r0, .L132+8
 1286 0082 FFF7FEFF 		bl	printf
 1287              	.LVL175:
 1288 0086 E6E7     		b	.L120
 1289              	.L130:
 534:Middlewares/Third_Party/LwIP/src/core/pbuf.c **** #if LWIP_SUPPORT_CUSTOM_PBUF
 1290              		.loc 1 534 0
 1291 0088 227B     		ldrb	r2, [r4, #12]	@ zero_extendqisi2
 1292 008a 2AB9     		cbnz	r2, .L124
 534:Middlewares/Third_Party/LwIP/src/core/pbuf.c **** #if LWIP_SUPPORT_CUSTOM_PBUF
 1293              		.loc 1 534 0 is_stmt 0 discriminator 1
 1294 008c AB42     		cmp	r3, r5
 1295 008e 03D0     		beq	.L124
 536:Middlewares/Third_Party/LwIP/src/core/pbuf.c **** #endif /* LWIP_SUPPORT_CUSTOM_PBUF */
 1296              		.loc 1 536 0 is_stmt 1
 1297 0090 637B     		ldrb	r3, [r4, #13]	@ zero_extendqisi2
 1298 0092 13F0020F 		tst	r3, #2
 1299 0096 09D0     		beq	.L131
 1300              	.L124:
 544:Middlewares/Third_Party/LwIP/src/core/pbuf.c ****   q->tot_len = q->len;
 1301              		.loc 1 544 0
 1302 0098 6581     		strh	r5, [r4, #10]	@ movhi
 545:Middlewares/Third_Party/LwIP/src/core/pbuf.c **** 
 1303              		.loc 1 545 0
 1304 009a 2581     		strh	r5, [r4, #8]	@ movhi
 548:Middlewares/Third_Party/LwIP/src/core/pbuf.c ****     /* free remaining pbufs in chain */
 1305              		.loc 1 548 0
 1306 009c 2068     		ldr	r0, [r4]
 1307 009e 08B1     		cbz	r0, .L125
 550:Middlewares/Third_Party/LwIP/src/core/pbuf.c ****   }
 1308              		.loc 1 550 0
 1309 00a0 FFF7FEFF 		bl	pbuf_free
 1310              	.LVL176:
 1311              	.L125:
 553:Middlewares/Third_Party/LwIP/src/core/pbuf.c **** 
 1312              		.loc 1 553 0
 1313 00a4 0023     		movs	r3, #0
 1314 00a6 2360     		str	r3, [r4]
 1315              	.LVL177:
ARM GAS  C:\Users\Patryk\AppData\Local\Temp\ccybDtdu.s 			page 47


 1316              	.L116:
 555:Middlewares/Third_Party/LwIP/src/core/pbuf.c **** 
 1317              		.loc 1 555 0
 1318 00a8 BDE8F081 		pop	{r4, r5, r6, r7, r8, pc}
 1319              	.LVL178:
 1320              	.L131:
 540:Middlewares/Third_Party/LwIP/src/core/pbuf.c ****     LWIP_ASSERT("mem_trim returned q == NULL", q != NULL);
 1321              		.loc 1 540 0
 1322 00ac 6368     		ldr	r3, [r4, #4]
 1323 00ae 1B1B     		subs	r3, r3, r4
 1324 00b0 15FA83F1 		uxtah	r1, r5, r3
 1325 00b4 89B2     		uxth	r1, r1
 1326 00b6 2046     		mov	r0, r4
 1327 00b8 FFF7FEFF 		bl	mem_trim
 1328              	.LVL179:
 541:Middlewares/Third_Party/LwIP/src/core/pbuf.c ****   }
 1329              		.loc 1 541 0
 1330 00bc 0446     		mov	r4, r0
 1331 00be 0028     		cmp	r0, #0
 1332 00c0 EAD1     		bne	.L124
 541:Middlewares/Third_Party/LwIP/src/core/pbuf.c ****   }
 1333              		.loc 1 541 0 is_stmt 0 discriminator 1
 1334 00c2 044B     		ldr	r3, .L132
 1335 00c4 40F21D22 		movw	r2, #541
 1336 00c8 0849     		ldr	r1, .L132+24
 1337 00ca 0448     		ldr	r0, .L132+8
 1338              	.LVL180:
 1339 00cc FFF7FEFF 		bl	printf
 1340              	.LVL181:
 1341 00d0 E2E7     		b	.L124
 1342              	.L133:
 1343 00d2 00BF     		.align	2
 1344              	.L132:
 1345 00d4 00000000 		.word	.LC0
 1346 00d8 00000000 		.word	.LC15
 1347 00dc 3C000000 		.word	.LC2
 1348 00e0 18000000 		.word	.LC16
 1349 00e4 34000000 		.word	.LC17
 1350 00e8 48000000 		.word	.LC18
 1351 00ec 60000000 		.word	.LC19
 1352              		.cfi_endproc
 1353              	.LFE164:
 1355              		.section	.text.pbuf_clen,"ax",%progbits
 1356              		.align	1
 1357              		.global	pbuf_clen
 1358              		.syntax unified
 1359              		.thumb
 1360              		.thumb_func
 1361              		.fpu fpv5-sp-d16
 1363              	pbuf_clen:
 1364              	.LFB169:
 801:Middlewares/Third_Party/LwIP/src/core/pbuf.c ****   u16_t len;
 1365              		.loc 1 801 0 is_stmt 1
 1366              		.cfi_startproc
 1367              		@ args = 0, pretend = 0, frame = 0
 1368              		@ frame_needed = 0, uses_anonymous_args = 0
 1369              		@ link register save eliminated.
ARM GAS  C:\Users\Patryk\AppData\Local\Temp\ccybDtdu.s 			page 48


 1370              	.LVL182:
 804:Middlewares/Third_Party/LwIP/src/core/pbuf.c ****   while (p != NULL) {
 1371              		.loc 1 804 0
 1372 0000 0023     		movs	r3, #0
 805:Middlewares/Third_Party/LwIP/src/core/pbuf.c ****     ++len;
 1373              		.loc 1 805 0
 1374 0002 02E0     		b	.L135
 1375              	.LVL183:
 1376              	.L136:
 806:Middlewares/Third_Party/LwIP/src/core/pbuf.c ****     p = p->next;
 1377              		.loc 1 806 0
 1378 0004 0133     		adds	r3, r3, #1
 1379              	.LVL184:
 1380 0006 9BB2     		uxth	r3, r3
 1381              	.LVL185:
 807:Middlewares/Third_Party/LwIP/src/core/pbuf.c ****   }
 1382              		.loc 1 807 0
 1383 0008 0068     		ldr	r0, [r0]
 1384              	.LVL186:
 1385              	.L135:
 805:Middlewares/Third_Party/LwIP/src/core/pbuf.c ****     ++len;
 1386              		.loc 1 805 0
 1387 000a 0028     		cmp	r0, #0
 1388 000c FAD1     		bne	.L136
 810:Middlewares/Third_Party/LwIP/src/core/pbuf.c **** 
 1389              		.loc 1 810 0
 1390 000e 1846     		mov	r0, r3
 1391              	.LVL187:
 1392 0010 7047     		bx	lr
 1393              		.cfi_endproc
 1394              	.LFE169:
 1396              		.section	.text.pbuf_ref,"ax",%progbits
 1397              		.align	1
 1398              		.global	pbuf_ref
 1399              		.syntax unified
 1400              		.thumb
 1401              		.thumb_func
 1402              		.fpu fpv5-sp-d16
 1404              	pbuf_ref:
 1405              	.LFB170:
 821:Middlewares/Third_Party/LwIP/src/core/pbuf.c ****   /* pbuf given? */
 1406              		.loc 1 821 0
 1407              		.cfi_startproc
 1408              		@ args = 0, pretend = 0, frame = 0
 1409              		@ frame_needed = 0, uses_anonymous_args = 0
 1410              	.LVL188:
 823:Middlewares/Third_Party/LwIP/src/core/pbuf.c ****     SYS_ARCH_INC(p->ref, 1);
 1411              		.loc 1 823 0
 1412 0000 98B1     		cbz	r0, .L140
 821:Middlewares/Third_Party/LwIP/src/core/pbuf.c ****   /* pbuf given? */
 1413              		.loc 1 821 0
 1414 0002 10B5     		push	{r4, lr}
 1415              	.LCFI10:
 1416              		.cfi_def_cfa_offset 8
 1417              		.cfi_offset 4, -8
 1418              		.cfi_offset 14, -4
 1419 0004 0446     		mov	r4, r0
ARM GAS  C:\Users\Patryk\AppData\Local\Temp\ccybDtdu.s 			page 49


 1420              	.LBB9:
 824:Middlewares/Third_Party/LwIP/src/core/pbuf.c ****     LWIP_ASSERT("pbuf ref overflow", p->ref > 0);
 1421              		.loc 1 824 0
 1422 0006 FFF7FEFF 		bl	sys_arch_protect
 1423              	.LVL189:
 1424 000a E389     		ldrh	r3, [r4, #14]
 1425 000c 0133     		adds	r3, r3, #1
 1426 000e E381     		strh	r3, [r4, #14]	@ movhi
 1427 0010 FFF7FEFF 		bl	sys_arch_unprotect
 1428              	.LVL190:
 1429              	.LBE9:
 825:Middlewares/Third_Party/LwIP/src/core/pbuf.c ****   }
 1430              		.loc 1 825 0
 1431 0014 E389     		ldrh	r3, [r4, #14]
 1432 0016 03B1     		cbz	r3, .L143
 1433              	.L137:
 827:Middlewares/Third_Party/LwIP/src/core/pbuf.c **** 
 1434              		.loc 1 827 0
 1435 0018 10BD     		pop	{r4, pc}
 1436              	.LVL191:
 1437              	.L143:
 825:Middlewares/Third_Party/LwIP/src/core/pbuf.c ****   }
 1438              		.loc 1 825 0 discriminator 1
 1439 001a 044B     		ldr	r3, .L144
 1440 001c 40F23932 		movw	r2, #825
 1441 0020 0349     		ldr	r1, .L144+4
 1442 0022 0448     		ldr	r0, .L144+8
 1443 0024 FFF7FEFF 		bl	printf
 1444              	.LVL192:
 827:Middlewares/Third_Party/LwIP/src/core/pbuf.c **** 
 1445              		.loc 1 827 0 discriminator 1
 1446 0028 F6E7     		b	.L137
 1447              	.LVL193:
 1448              	.L140:
 1449              	.LCFI11:
 1450              		.cfi_def_cfa_offset 0
 1451              		.cfi_restore 4
 1452              		.cfi_restore 14
 1453 002a 7047     		bx	lr
 1454              	.L145:
 1455              		.align	2
 1456              	.L144:
 1457 002c 00000000 		.word	.LC0
 1458 0030 00000000 		.word	.LC20
 1459 0034 3C000000 		.word	.LC2
 1460              		.cfi_endproc
 1461              	.LFE170:
 1463              		.section	.text.pbuf_cat,"ax",%progbits
 1464              		.align	1
 1465              		.global	pbuf_cat
 1466              		.syntax unified
 1467              		.thumb
 1468              		.thumb_func
 1469              		.fpu fpv5-sp-d16
 1471              	pbuf_cat:
 1472              	.LFB171:
 841:Middlewares/Third_Party/LwIP/src/core/pbuf.c ****   struct pbuf *p;
ARM GAS  C:\Users\Patryk\AppData\Local\Temp\ccybDtdu.s 			page 50


 1473              		.loc 1 841 0
 1474              		.cfi_startproc
 1475              		@ args = 0, pretend = 0, frame = 0
 1476              		@ frame_needed = 0, uses_anonymous_args = 0
 1477              	.LVL194:
 1478 0000 38B5     		push	{r3, r4, r5, lr}
 1479              	.LCFI12:
 1480              		.cfi_def_cfa_offset 16
 1481              		.cfi_offset 3, -16
 1482              		.cfi_offset 4, -12
 1483              		.cfi_offset 5, -8
 1484              		.cfi_offset 14, -4
 844:Middlewares/Third_Party/LwIP/src/core/pbuf.c ****              ((h != NULL) && (t != NULL)), return;);
 1485              		.loc 1 844 0
 1486 0002 0446     		mov	r4, r0
 1487 0004 0D46     		mov	r5, r1
 1488 0006 B1FA81F1 		clz	r1, r1
 1489              	.LVL195:
 1490 000a 4909     		lsrs	r1, r1, #5
 1491 000c 0028     		cmp	r0, #0
 1492 000e 08BF     		it	eq
 1493 0010 0121     		moveq	r1, #1
 1494 0012 61B1     		cbz	r1, .L147
 844:Middlewares/Third_Party/LwIP/src/core/pbuf.c ****              ((h != NULL) && (t != NULL)), return;);
 1495              		.loc 1 844 0 is_stmt 0 discriminator 1
 1496 0014 154B     		ldr	r3, .L154
 1497 0016 40F24D32 		movw	r2, #845
 1498 001a 1549     		ldr	r1, .L154+4
 1499 001c 1548     		ldr	r0, .L154+8
 1500              	.LVL196:
 1501 001e FFF7FEFF 		bl	printf
 1502              	.LVL197:
 1503 0022 19E0     		b	.L146
 1504              	.LVL198:
 1505              	.L149:
 850:Middlewares/Third_Party/LwIP/src/core/pbuf.c ****   }
 1506              		.loc 1 850 0 is_stmt 1 discriminator 3
 1507 0024 2B89     		ldrh	r3, [r5, #8]
 1508 0026 2189     		ldrh	r1, [r4, #8]
 1509 0028 0B44     		add	r3, r3, r1
 1510 002a 2381     		strh	r3, [r4, #8]	@ movhi
 1511              	.LVL199:
 848:Middlewares/Third_Party/LwIP/src/core/pbuf.c ****     /* add total length of second chain to all totals of first chain */
 1512              		.loc 1 848 0 discriminator 3
 1513 002c 1446     		mov	r4, r2
 1514              	.LVL200:
 1515              	.L147:
 848:Middlewares/Third_Party/LwIP/src/core/pbuf.c ****     /* add total length of second chain to all totals of first chain */
 1516              		.loc 1 848 0 is_stmt 0 discriminator 1
 1517 002e 2268     		ldr	r2, [r4]
 1518 0030 002A     		cmp	r2, #0
 1519 0032 F7D1     		bne	.L149
 853:Middlewares/Third_Party/LwIP/src/core/pbuf.c ****   LWIP_ASSERT("p->next == NULL", p->next == NULL);
 1520              		.loc 1 853 0 is_stmt 1
 1521 0034 2289     		ldrh	r2, [r4, #8]
 1522 0036 6389     		ldrh	r3, [r4, #10]
 1523 0038 9A42     		cmp	r2, r3
ARM GAS  C:\Users\Patryk\AppData\Local\Temp\ccybDtdu.s 			page 51


 1524 003a 0ED1     		bne	.L153
 1525              	.LVL201:
 1526              	.L150:
 854:Middlewares/Third_Party/LwIP/src/core/pbuf.c ****   /* add total length of second chain to last pbuf total of first chain */
 1527              		.loc 1 854 0
 1528 003c 2368     		ldr	r3, [r4]
 1529 003e 33B1     		cbz	r3, .L151
 854:Middlewares/Third_Party/LwIP/src/core/pbuf.c ****   /* add total length of second chain to last pbuf total of first chain */
 1530              		.loc 1 854 0 is_stmt 0 discriminator 1
 1531 0040 0A4B     		ldr	r3, .L154
 1532 0042 40F25632 		movw	r2, #854
 1533 0046 0C49     		ldr	r1, .L154+12
 1534 0048 0A48     		ldr	r0, .L154+8
 1535 004a FFF7FEFF 		bl	printf
 1536              	.LVL202:
 1537              	.L151:
 856:Middlewares/Third_Party/LwIP/src/core/pbuf.c ****   /* chain last pbuf of head (p) with first of tail (t) */
 1538              		.loc 1 856 0 is_stmt 1
 1539 004e 2B89     		ldrh	r3, [r5, #8]
 1540 0050 2289     		ldrh	r2, [r4, #8]
 1541 0052 1344     		add	r3, r3, r2
 1542 0054 2381     		strh	r3, [r4, #8]	@ movhi
 858:Middlewares/Third_Party/LwIP/src/core/pbuf.c ****   /* p->next now references t, but the caller will drop its reference to t,
 1543              		.loc 1 858 0
 1544 0056 2560     		str	r5, [r4]
 1545              	.LVL203:
 1546              	.L146:
 862:Middlewares/Third_Party/LwIP/src/core/pbuf.c **** 
 1547              		.loc 1 862 0
 1548 0058 38BD     		pop	{r3, r4, r5, pc}
 1549              	.LVL204:
 1550              	.L153:
 853:Middlewares/Third_Party/LwIP/src/core/pbuf.c ****   LWIP_ASSERT("p->next == NULL", p->next == NULL);
 1551              		.loc 1 853 0 discriminator 1
 1552 005a 044B     		ldr	r3, .L154
 1553 005c 40F25532 		movw	r2, #853
 1554 0060 0649     		ldr	r1, .L154+16
 1555 0062 0448     		ldr	r0, .L154+8
 1556              	.LVL205:
 1557 0064 FFF7FEFF 		bl	printf
 1558              	.LVL206:
 1559 0068 E8E7     		b	.L150
 1560              	.L155:
 1561 006a 00BF     		.align	2
 1562              	.L154:
 1563 006c 00000000 		.word	.LC0
 1564 0070 00000000 		.word	.LC21
 1565 0074 3C000000 		.word	.LC2
 1566 0078 68000000 		.word	.LC23
 1567 007c 38000000 		.word	.LC22
 1568              		.cfi_endproc
 1569              	.LFE171:
 1571              		.section	.text.pbuf_chain,"ax",%progbits
 1572              		.align	1
 1573              		.global	pbuf_chain
 1574              		.syntax unified
 1575              		.thumb
ARM GAS  C:\Users\Patryk\AppData\Local\Temp\ccybDtdu.s 			page 52


 1576              		.thumb_func
 1577              		.fpu fpv5-sp-d16
 1579              	pbuf_chain:
 1580              	.LFB172:
 883:Middlewares/Third_Party/LwIP/src/core/pbuf.c ****   pbuf_cat(h, t);
 1581              		.loc 1 883 0
 1582              		.cfi_startproc
 1583              		@ args = 0, pretend = 0, frame = 0
 1584              		@ frame_needed = 0, uses_anonymous_args = 0
 1585              	.LVL207:
 1586 0000 10B5     		push	{r4, lr}
 1587              	.LCFI13:
 1588              		.cfi_def_cfa_offset 8
 1589              		.cfi_offset 4, -8
 1590              		.cfi_offset 14, -4
 1591 0002 0C46     		mov	r4, r1
 884:Middlewares/Third_Party/LwIP/src/core/pbuf.c ****   /* t is now referenced by h */
 1592              		.loc 1 884 0
 1593 0004 FFF7FEFF 		bl	pbuf_cat
 1594              	.LVL208:
 886:Middlewares/Third_Party/LwIP/src/core/pbuf.c ****   LWIP_DEBUGF(PBUF_DEBUG | LWIP_DBG_TRACE, ("pbuf_chain: %p references %p\n", (void *)h, (void *)t)
 1595              		.loc 1 886 0
 1596 0008 2046     		mov	r0, r4
 1597 000a FFF7FEFF 		bl	pbuf_ref
 1598              	.LVL209:
 888:Middlewares/Third_Party/LwIP/src/core/pbuf.c **** 
 1599              		.loc 1 888 0
 1600 000e 10BD     		pop	{r4, pc}
 1601              		.cfi_endproc
 1602              	.LFE172:
 1604              		.section	.text.pbuf_dechain,"ax",%progbits
 1605              		.align	1
 1606              		.global	pbuf_dechain
 1607              		.syntax unified
 1608              		.thumb
 1609              		.thumb_func
 1610              		.fpu fpv5-sp-d16
 1612              	pbuf_dechain:
 1613              	.LFB173:
 900:Middlewares/Third_Party/LwIP/src/core/pbuf.c ****   struct pbuf *q;
 1614              		.loc 1 900 0
 1615              		.cfi_startproc
 1616              		@ args = 0, pretend = 0, frame = 0
 1617              		@ frame_needed = 0, uses_anonymous_args = 0
 1618              	.LVL210:
 1619 0000 70B5     		push	{r4, r5, r6, lr}
 1620              	.LCFI14:
 1621              		.cfi_def_cfa_offset 16
 1622              		.cfi_offset 4, -16
 1623              		.cfi_offset 5, -12
 1624              		.cfi_offset 6, -8
 1625              		.cfi_offset 14, -4
 1626 0002 0446     		mov	r4, r0
 1627              	.LVL211:
 904:Middlewares/Third_Party/LwIP/src/core/pbuf.c ****   /* pbuf has successor in chain? */
 1628              		.loc 1 904 0
 1629 0004 0568     		ldr	r5, [r0]
ARM GAS  C:\Users\Patryk\AppData\Local\Temp\ccybDtdu.s 			page 53


 1630              	.LVL212:
 906:Middlewares/Third_Party/LwIP/src/core/pbuf.c ****     /* assert tot_len invariant: (p->tot_len == p->len + (p->next? p->next->tot_len: 0) */
 1631              		.loc 1 906 0
 1632 0006 05B3     		cbz	r5, .L163
 908:Middlewares/Third_Party/LwIP/src/core/pbuf.c ****     /* enforce invariant if assertion is disabled */
 1633              		.loc 1 908 0
 1634 0008 2A89     		ldrh	r2, [r5, #8]
 1635 000a 0389     		ldrh	r3, [r0, #8]
 1636 000c 4189     		ldrh	r1, [r0, #10]
 1637 000e 5B1A     		subs	r3, r3, r1
 1638 0010 9A42     		cmp	r2, r3
 1639 0012 12D1     		bne	.L166
 1640              	.LVL213:
 1641              	.L160:
 910:Middlewares/Third_Party/LwIP/src/core/pbuf.c ****     /* decouple pbuf from remainder */
 1642              		.loc 1 910 0
 1643 0014 2389     		ldrh	r3, [r4, #8]
 1644 0016 6289     		ldrh	r2, [r4, #10]
 1645 0018 9B1A     		subs	r3, r3, r2
 1646 001a 2B81     		strh	r3, [r5, #8]	@ movhi
 912:Middlewares/Third_Party/LwIP/src/core/pbuf.c ****     /* total length of pbuf p is its own length only */
 1647              		.loc 1 912 0
 1648 001c 0023     		movs	r3, #0
 1649 001e 2360     		str	r3, [r4]
 914:Middlewares/Third_Party/LwIP/src/core/pbuf.c ****     /* q is no longer referenced by p, free it */
 1650              		.loc 1 914 0
 1651 0020 6389     		ldrh	r3, [r4, #10]
 1652 0022 2381     		strh	r3, [r4, #8]	@ movhi
 917:Middlewares/Third_Party/LwIP/src/core/pbuf.c ****     if (tail_gone > 0) {
 1653              		.loc 1 917 0
 1654 0024 2846     		mov	r0, r5
 1655 0026 FFF7FEFF 		bl	pbuf_free
 1656              	.LVL214:
 1657 002a 0646     		mov	r6, r0
 1658              	.LVL215:
 1659              	.L159:
 925:Middlewares/Third_Party/LwIP/src/core/pbuf.c ****   return ((tail_gone > 0) ? NULL : q);
 1660              		.loc 1 925 0
 1661 002c 2289     		ldrh	r2, [r4, #8]
 1662 002e 6389     		ldrh	r3, [r4, #10]
 1663 0030 9A42     		cmp	r2, r3
 1664 0032 0CD1     		bne	.L167
 1665              	.L161:
 926:Middlewares/Third_Party/LwIP/src/core/pbuf.c **** }
 1666              		.loc 1 926 0
 1667 0034 9EB9     		cbnz	r6, .L168
 1668              	.LVL216:
 1669              	.L158:
 927:Middlewares/Third_Party/LwIP/src/core/pbuf.c **** 
 1670              		.loc 1 927 0
 1671 0036 2846     		mov	r0, r5
 1672 0038 70BD     		pop	{r4, r5, r6, pc}
 1673              	.LVL217:
 1674              	.L166:
 908:Middlewares/Third_Party/LwIP/src/core/pbuf.c ****     /* enforce invariant if assertion is disabled */
 1675              		.loc 1 908 0 discriminator 1
 1676 003a 0A4B     		ldr	r3, .L169
ARM GAS  C:\Users\Patryk\AppData\Local\Temp\ccybDtdu.s 			page 54


 1677 003c 4FF46372 		mov	r2, #908
 1678 0040 0949     		ldr	r1, .L169+4
 1679 0042 0A48     		ldr	r0, .L169+8
 1680              	.LVL218:
 1681 0044 FFF7FEFF 		bl	printf
 1682              	.LVL219:
 1683 0048 E4E7     		b	.L160
 1684              	.LVL220:
 1685              	.L163:
 902:Middlewares/Third_Party/LwIP/src/core/pbuf.c ****   /* tail */
 1686              		.loc 1 902 0
 1687 004a 0126     		movs	r6, #1
 1688 004c EEE7     		b	.L159
 1689              	.LVL221:
 1690              	.L167:
 925:Middlewares/Third_Party/LwIP/src/core/pbuf.c ****   return ((tail_gone > 0) ? NULL : q);
 1691              		.loc 1 925 0 discriminator 1
 1692 004e 054B     		ldr	r3, .L169
 1693 0050 40F29D32 		movw	r2, #925
 1694 0054 0649     		ldr	r1, .L169+12
 1695 0056 0548     		ldr	r0, .L169+8
 1696 0058 FFF7FEFF 		bl	printf
 1697              	.LVL222:
 1698 005c EAE7     		b	.L161
 1699              	.L168:
 926:Middlewares/Third_Party/LwIP/src/core/pbuf.c **** }
 1700              		.loc 1 926 0
 1701 005e 0025     		movs	r5, #0
 1702              	.LVL223:
 1703 0060 E9E7     		b	.L158
 1704              	.L170:
 1705 0062 00BF     		.align	2
 1706              	.L169:
 1707 0064 00000000 		.word	.LC0
 1708 0068 00000000 		.word	.LC24
 1709 006c 3C000000 		.word	.LC2
 1710 0070 24000000 		.word	.LC25
 1711              		.cfi_endproc
 1712              	.LFE173:
 1714              		.section	.text.pbuf_copy,"ax",%progbits
 1715              		.align	1
 1716              		.global	pbuf_copy
 1717              		.syntax unified
 1718              		.thumb
 1719              		.thumb_func
 1720              		.fpu fpv5-sp-d16
 1722              	pbuf_copy:
 1723              	.LFB174:
 949:Middlewares/Third_Party/LwIP/src/core/pbuf.c ****   u16_t offset_to=0, offset_from=0, len;
 1724              		.loc 1 949 0
 1725              		.cfi_startproc
 1726              		@ args = 0, pretend = 0, frame = 0
 1727              		@ frame_needed = 0, uses_anonymous_args = 0
 1728              	.LVL224:
 1729 0000 2DE9F041 		push	{r4, r5, r6, r7, r8, lr}
 1730              	.LCFI15:
 1731              		.cfi_def_cfa_offset 24
ARM GAS  C:\Users\Patryk\AppData\Local\Temp\ccybDtdu.s 			page 55


 1732              		.cfi_offset 4, -24
 1733              		.cfi_offset 5, -20
 1734              		.cfi_offset 6, -16
 1735              		.cfi_offset 7, -12
 1736              		.cfi_offset 8, -8
 1737              		.cfi_offset 14, -4
 1738              	.LVL225:
 956:Middlewares/Third_Party/LwIP/src/core/pbuf.c ****              (p_from != NULL) && (p_to->tot_len >= p_from->tot_len)), return ERR_ARG;);
 1739              		.loc 1 956 0
 1740 0004 0D46     		mov	r5, r1
 1741 0006 B1FA81F1 		clz	r1, r1
 1742              	.LVL226:
 1743 000a 4909     		lsrs	r1, r1, #5
 1744 000c 0028     		cmp	r0, #0
 1745 000e 08BF     		it	eq
 1746 0010 0121     		moveq	r1, #1
 1747 0012 41B9     		cbnz	r1, .L172
 1748 0014 0746     		mov	r7, r0
 956:Middlewares/Third_Party/LwIP/src/core/pbuf.c ****              (p_from != NULL) && (p_to->tot_len >= p_from->tot_len)), return ERR_ARG;);
 1749              		.loc 1 956 0 is_stmt 0 discriminator 2
 1750 0016 0289     		ldrh	r2, [r0, #8]
 1751 0018 2B89     		ldrh	r3, [r5, #8]
 1752 001a 9A42     		cmp	r2, r3
 1753 001c 03D3     		bcc	.L172
 950:Middlewares/Third_Party/LwIP/src/core/pbuf.c **** 
 1754              		.loc 1 950 0 is_stmt 1
 1755 001e 4FF00008 		mov	r8, #0
 1756 0022 4646     		mov	r6, r8
 1757 0024 3FE0     		b	.L173
 1758              	.L172:
 956:Middlewares/Third_Party/LwIP/src/core/pbuf.c ****              (p_from != NULL) && (p_to->tot_len >= p_from->tot_len)), return ERR_ARG;);
 1759              		.loc 1 956 0 discriminator 3
 1760 0026 3F4B     		ldr	r3, .L192
 1761 0028 40F2BD32 		movw	r2, #957
 1762 002c 3E49     		ldr	r1, .L192+4
 1763 002e 3F48     		ldr	r0, .L192+8
 1764              	.LVL227:
 1765 0030 FFF7FEFF 		bl	printf
 1766              	.LVL228:
 1767 0034 6FF00F00 		mvn	r0, #15
 1768 0038 71E0     		b	.L174
 1769              	.LVL229:
 1770              	.L175:
 968:Middlewares/Third_Party/LwIP/src/core/pbuf.c ****     }
 1771              		.loc 1 968 0
 1772 003a 9B1B     		subs	r3, r3, r6
 1773 003c 9CB2     		uxth	r4, r3
 1774              	.LVL230:
 1775 003e 3AE0     		b	.L176
 1776              	.LVL231:
 1777              	.L188:
 973:Middlewares/Third_Party/LwIP/src/core/pbuf.c ****     LWIP_ASSERT("offset_from <= p_from->len", offset_from <= p_from->len);
 1778              		.loc 1 973 0 discriminator 1
 1779 0040 384B     		ldr	r3, .L192
 1780 0042 40F2CD32 		movw	r2, #973
 1781 0046 3A49     		ldr	r1, .L192+12
 1782 0048 3848     		ldr	r0, .L192+8
ARM GAS  C:\Users\Patryk\AppData\Local\Temp\ccybDtdu.s 			page 56


 1783 004a FFF7FEFF 		bl	printf
 1784              	.LVL232:
 1785 004e 41E0     		b	.L177
 1786              	.L189:
 974:Middlewares/Third_Party/LwIP/src/core/pbuf.c ****     if (offset_from >= p_from->len) {
 1787              		.loc 1 974 0 discriminator 1
 1788 0050 344B     		ldr	r3, .L192
 1789 0052 40F2CE32 		movw	r2, #974
 1790 0056 3749     		ldr	r1, .L192+16
 1791 0058 3448     		ldr	r0, .L192+8
 1792 005a FFF7FEFF 		bl	printf
 1793              	.LVL233:
 1794 005e 3CE0     		b	.L178
 1795              	.L190:
 1796              	.LVL234:
 983:Middlewares/Third_Party/LwIP/src/core/pbuf.c ****       LWIP_ERROR("p_to != NULL", (p_to != NULL) || (p_from == NULL) , return ERR_ARG;);
 1797              		.loc 1 983 0
 1798 0060 3F68     		ldr	r7, [r7]
 1799              	.LVL235:
 984:Middlewares/Third_Party/LwIP/src/core/pbuf.c ****     }
 1800              		.loc 1 984 0
 1801 0062 2B1C     		adds	r3, r5, #0
 1802 0064 18BF     		it	ne
 1803 0066 0123     		movne	r3, #1
 1804 0068 002F     		cmp	r7, #0
 1805 006a 18BF     		it	ne
 1806 006c 0023     		movne	r3, #0
 1807 006e 0BB9     		cbnz	r3, .L186
 982:Middlewares/Third_Party/LwIP/src/core/pbuf.c ****       p_to = p_to->next;
 1808              		.loc 1 982 0
 1809 0070 0026     		movs	r6, #0
 1810 0072 3BE0     		b	.L180
 1811              	.L186:
 984:Middlewares/Third_Party/LwIP/src/core/pbuf.c ****     }
 1812              		.loc 1 984 0 discriminator 1
 1813 0074 2B4B     		ldr	r3, .L192
 1814 0076 4FF47672 		mov	r2, #984
 1815 007a 2F49     		ldr	r1, .L192+20
 1816 007c 2B48     		ldr	r0, .L192+8
 1817 007e FFF7FEFF 		bl	printf
 1818              	.LVL236:
 1819 0082 6FF00F00 		mvn	r0, #15
 1820 0086 4AE0     		b	.L174
 1821              	.LVL237:
 1822              	.L191:
 989:Middlewares/Third_Party/LwIP/src/core/pbuf.c ****                  (p_from->next == NULL), return ERR_VAL;);
 1823              		.loc 1 989 0
 1824 0088 2B68     		ldr	r3, [r5]
 1825 008a 002B     		cmp	r3, #0
 1826 008c 33D0     		beq	.L181
 989:Middlewares/Third_Party/LwIP/src/core/pbuf.c ****                  (p_from->next == NULL), return ERR_VAL;);
 1827              		.loc 1 989 0 is_stmt 0 discriminator 1
 1828 008e 254B     		ldr	r3, .L192
 1829 0090 40F2DE32 		movw	r2, #990
 1830 0094 2949     		ldr	r1, .L192+24
 1831 0096 2548     		ldr	r0, .L192+8
 1832 0098 FFF7FEFF 		bl	printf
ARM GAS  C:\Users\Patryk\AppData\Local\Temp\ccybDtdu.s 			page 57


 1833              	.LVL238:
 1834 009c 6FF00500 		mvn	r0, #5
 1835 00a0 3DE0     		b	.L174
 1836              	.L182:
 997:Middlewares/Third_Party/LwIP/src/core/pbuf.c ****   LWIP_DEBUGF(PBUF_DEBUG | LWIP_DBG_TRACE, ("pbuf_copy: end of chain reached.\n"));
 1837              		.loc 1 997 0 is_stmt 1
 1838 00a2 002D     		cmp	r5, #0
 1839 00a4 3AD0     		beq	.L187
 1840              	.LVL239:
 1841              	.L173:
 963:Middlewares/Third_Party/LwIP/src/core/pbuf.c ****       /* complete current p_from fits into current p_to */
 1842              		.loc 1 963 0
 1843 00a6 7B89     		ldrh	r3, [r7, #10]
 1844 00a8 991B     		subs	r1, r3, r6
 1845 00aa 6C89     		ldrh	r4, [r5, #10]
 1846 00ac A4EB0802 		sub	r2, r4, r8
 1847 00b0 9142     		cmp	r1, r2
 1848 00b2 C2DB     		blt	.L175
 965:Middlewares/Third_Party/LwIP/src/core/pbuf.c ****     } else {
 1849              		.loc 1 965 0
 1850 00b4 94B2     		uxth	r4, r2
 1851              	.LVL240:
 1852              	.L176:
 970:Middlewares/Third_Party/LwIP/src/core/pbuf.c ****     offset_to += len;
 1853              		.loc 1 970 0
 1854 00b6 7868     		ldr	r0, [r7, #4]
 1855 00b8 6968     		ldr	r1, [r5, #4]
 1856 00ba 2246     		mov	r2, r4
 1857 00bc 4144     		add	r1, r1, r8
 1858 00be 3044     		add	r0, r0, r6
 1859 00c0 FFF7FEFF 		bl	memcpy
 1860              	.LVL241:
 971:Middlewares/Third_Party/LwIP/src/core/pbuf.c ****     offset_from += len;
 1861              		.loc 1 971 0
 1862 00c4 2644     		add	r6, r6, r4
 1863              	.LVL242:
 1864 00c6 B6B2     		uxth	r6, r6
 1865              	.LVL243:
 972:Middlewares/Third_Party/LwIP/src/core/pbuf.c ****     LWIP_ASSERT("offset_to <= p_to->len", offset_to <= p_to->len);
 1866              		.loc 1 972 0
 1867 00c8 4444     		add	r4, r4, r8
 1868              	.LVL244:
 1869 00ca 1FFA84F8 		uxth	r8, r4
 1870              	.LVL245:
 973:Middlewares/Third_Party/LwIP/src/core/pbuf.c ****     LWIP_ASSERT("offset_from <= p_from->len", offset_from <= p_from->len);
 1871              		.loc 1 973 0
 1872 00ce 7B89     		ldrh	r3, [r7, #10]
 1873 00d0 B342     		cmp	r3, r6
 1874 00d2 B5D3     		bcc	.L188
 1875              	.L177:
 974:Middlewares/Third_Party/LwIP/src/core/pbuf.c ****     if (offset_from >= p_from->len) {
 1876              		.loc 1 974 0
 1877 00d4 6B89     		ldrh	r3, [r5, #10]
 1878 00d6 4345     		cmp	r3, r8
 1879 00d8 BAD3     		bcc	.L189
 1880              	.L178:
 975:Middlewares/Third_Party/LwIP/src/core/pbuf.c ****       /* on to next p_from (if any) */
ARM GAS  C:\Users\Patryk\AppData\Local\Temp\ccybDtdu.s 			page 58


 1881              		.loc 1 975 0
 1882 00da 6B89     		ldrh	r3, [r5, #10]
 1883 00dc 4345     		cmp	r3, r8
 1884 00de 02D8     		bhi	.L179
 1885              	.LVL246:
 978:Middlewares/Third_Party/LwIP/src/core/pbuf.c ****     }
 1886              		.loc 1 978 0
 1887 00e0 2D68     		ldr	r5, [r5]
 1888              	.LVL247:
 977:Middlewares/Third_Party/LwIP/src/core/pbuf.c ****       p_from = p_from->next;
 1889              		.loc 1 977 0
 1890 00e2 4FF00008 		mov	r8, #0
 1891              	.LVL248:
 1892              	.L179:
 980:Middlewares/Third_Party/LwIP/src/core/pbuf.c ****       /* on to next p_to (if any) */
 1893              		.loc 1 980 0
 1894 00e6 7B89     		ldrh	r3, [r7, #10]
 1895 00e8 B342     		cmp	r3, r6
 1896 00ea B9D0     		beq	.L190
 1897              	.LVL249:
 1898              	.L180:
 987:Middlewares/Third_Party/LwIP/src/core/pbuf.c ****       /* don't copy more than one packet! */
 1899              		.loc 1 987 0
 1900 00ec 1DB1     		cbz	r5, .L181
 987:Middlewares/Third_Party/LwIP/src/core/pbuf.c ****       /* don't copy more than one packet! */
 1901              		.loc 1 987 0 is_stmt 0 discriminator 1
 1902 00ee 6A89     		ldrh	r2, [r5, #10]
 1903 00f0 2B89     		ldrh	r3, [r5, #8]
 1904 00f2 9A42     		cmp	r2, r3
 1905 00f4 C8D0     		beq	.L191
 1906              	.L181:
 992:Middlewares/Third_Party/LwIP/src/core/pbuf.c ****       /* don't copy more than one packet! */
 1907              		.loc 1 992 0 is_stmt 1
 1908 00f6 002F     		cmp	r7, #0
 1909 00f8 D3D0     		beq	.L182
 992:Middlewares/Third_Party/LwIP/src/core/pbuf.c ****       /* don't copy more than one packet! */
 1910              		.loc 1 992 0 is_stmt 0 discriminator 1
 1911 00fa 7A89     		ldrh	r2, [r7, #10]
 1912 00fc 3B89     		ldrh	r3, [r7, #8]
 1913 00fe 9A42     		cmp	r2, r3
 1914 0100 CFD1     		bne	.L182
 994:Middlewares/Third_Party/LwIP/src/core/pbuf.c ****                   (p_to->next == NULL), return ERR_VAL;);
 1915              		.loc 1 994 0 is_stmt 1
 1916 0102 3B68     		ldr	r3, [r7]
 1917 0104 002B     		cmp	r3, #0
 1918 0106 CCD0     		beq	.L182
 994:Middlewares/Third_Party/LwIP/src/core/pbuf.c ****                   (p_to->next == NULL), return ERR_VAL;);
 1919              		.loc 1 994 0 is_stmt 0 discriminator 1
 1920 0108 064B     		ldr	r3, .L192
 1921 010a 40F2E332 		movw	r2, #995
 1922 010e 0B49     		ldr	r1, .L192+24
 1923 0110 0648     		ldr	r0, .L192+8
 1924 0112 FFF7FEFF 		bl	printf
 1925              	.LVL250:
 1926 0116 6FF00500 		mvn	r0, #5
 1927 011a 00E0     		b	.L174
 1928              	.L187:
ARM GAS  C:\Users\Patryk\AppData\Local\Temp\ccybDtdu.s 			page 59


 999:Middlewares/Third_Party/LwIP/src/core/pbuf.c **** }
 1929              		.loc 1 999 0 is_stmt 1
 1930 011c 0020     		movs	r0, #0
 1931              	.LVL251:
 1932              	.L174:
1000:Middlewares/Third_Party/LwIP/src/core/pbuf.c **** 
 1933              		.loc 1 1000 0
 1934 011e BDE8F081 		pop	{r4, r5, r6, r7, r8, pc}
 1935              	.LVL252:
 1936              	.L193:
 1937 0122 00BF     		.align	2
 1938              	.L192:
 1939 0124 00000000 		.word	.LC0
 1940 0128 00000000 		.word	.LC26
 1941 012c 3C000000 		.word	.LC2
 1942 0130 30000000 		.word	.LC27
 1943 0134 48000000 		.word	.LC28
 1944 0138 64000000 		.word	.LC29
 1945 013c 74000000 		.word	.LC30
 1946              		.cfi_endproc
 1947              	.LFE174:
 1949              		.section	.text.pbuf_copy_partial,"ax",%progbits
 1950              		.align	1
 1951              		.global	pbuf_copy_partial
 1952              		.syntax unified
 1953              		.thumb
 1954              		.thumb_func
 1955              		.fpu fpv5-sp-d16
 1957              	pbuf_copy_partial:
 1958              	.LFB175:
1016:Middlewares/Third_Party/LwIP/src/core/pbuf.c ****   const struct pbuf *p;
 1959              		.loc 1 1016 0
 1960              		.cfi_startproc
 1961              		@ args = 0, pretend = 0, frame = 0
 1962              		@ frame_needed = 0, uses_anonymous_args = 0
 1963              	.LVL253:
 1964 0000 2DE9F041 		push	{r4, r5, r6, r7, r8, lr}
 1965              	.LCFI16:
 1966              		.cfi_def_cfa_offset 24
 1967              		.cfi_offset 4, -24
 1968              		.cfi_offset 5, -20
 1969              		.cfi_offset 6, -16
 1970              		.cfi_offset 7, -12
 1971              		.cfi_offset 8, -8
 1972              		.cfi_offset 14, -4
 1973              	.LVL254:
1022:Middlewares/Third_Party/LwIP/src/core/pbuf.c ****   LWIP_ERROR("pbuf_copy_partial: invalid dataptr", (dataptr != NULL), return 0;);
 1974              		.loc 1 1022 0
 1975 0004 28B1     		cbz	r0, .L205
 1976 0006 0F46     		mov	r7, r1
 1977 0008 9046     		mov	r8, r2
 1978 000a 0546     		mov	r5, r0
1023:Middlewares/Third_Party/LwIP/src/core/pbuf.c **** 
 1979              		.loc 1 1023 0
 1980 000c 61B1     		cbz	r1, .L206
1025:Middlewares/Third_Party/LwIP/src/core/pbuf.c **** 
 1981              		.loc 1 1025 0
ARM GAS  C:\Users\Patryk\AppData\Local\Temp\ccybDtdu.s 			page 60


 1982 000e 0026     		movs	r6, #0
 1983 0010 27E0     		b	.L197
 1984              	.L205:
1022:Middlewares/Third_Party/LwIP/src/core/pbuf.c ****   LWIP_ERROR("pbuf_copy_partial: invalid dataptr", (dataptr != NULL), return 0;);
 1985              		.loc 1 1022 0 discriminator 1
 1986 0012 1C4B     		ldr	r3, .L207
 1987              	.LVL255:
 1988 0014 40F2FE32 		movw	r2, #1022
 1989              	.LVL256:
 1990 0018 1B49     		ldr	r1, .L207+4
 1991              	.LVL257:
 1992 001a 1C48     		ldr	r0, .L207+8
 1993              	.LVL258:
 1994 001c FFF7FEFF 		bl	printf
 1995              	.LVL259:
 1996 0020 0026     		movs	r6, #0
 1997              	.LVL260:
 1998              	.L196:
1051:Middlewares/Third_Party/LwIP/src/core/pbuf.c **** 
 1999              		.loc 1 1051 0
 2000 0022 3046     		mov	r0, r6
 2001 0024 BDE8F081 		pop	{r4, r5, r6, r7, r8, pc}
 2002              	.LVL261:
 2003              	.L206:
1023:Middlewares/Third_Party/LwIP/src/core/pbuf.c **** 
 2004              		.loc 1 1023 0 discriminator 1
 2005 0028 164B     		ldr	r3, .L207
 2006              	.LVL262:
 2007 002a 40F2FF32 		movw	r2, #1023
 2008              	.LVL263:
 2009 002e 1849     		ldr	r1, .L207+12
 2010              	.LVL264:
 2011 0030 1648     		ldr	r0, .L207+8
 2012              	.LVL265:
 2013 0032 FFF7FEFF 		bl	printf
 2014              	.LVL266:
 2015 0036 0026     		movs	r6, #0
 2016 0038 F3E7     		b	.L196
 2017              	.LVL267:
 2018              	.L198:
1038:Middlewares/Third_Party/LwIP/src/core/pbuf.c ****       if (buf_copy_len > len) {
 2019              		.loc 1 1038 0
 2020 003a 6A89     		ldrh	r2, [r5, #10]
 2021 003c D21A     		subs	r2, r2, r3
 2022 003e 94B2     		uxth	r4, r2
 2023              	.LVL268:
1039:Middlewares/Third_Party/LwIP/src/core/pbuf.c ****         buf_copy_len = len;
 2024              		.loc 1 1039 0
 2025 0040 A045     		cmp	r8, r4
 2026 0042 00D2     		bcs	.L200
1040:Middlewares/Third_Party/LwIP/src/core/pbuf.c ****       }
 2027              		.loc 1 1040 0
 2028 0044 4446     		mov	r4, r8
 2029              	.LVL269:
 2030              	.L200:
1043:Middlewares/Third_Party/LwIP/src/core/pbuf.c ****       copied_total += buf_copy_len;
 2031              		.loc 1 1043 0
ARM GAS  C:\Users\Patryk\AppData\Local\Temp\ccybDtdu.s 			page 61


 2032 0046 6968     		ldr	r1, [r5, #4]
 2033 0048 2246     		mov	r2, r4
 2034 004a 1944     		add	r1, r1, r3
 2035 004c B819     		adds	r0, r7, r6
 2036 004e FFF7FEFF 		bl	memcpy
 2037              	.LVL270:
1044:Middlewares/Third_Party/LwIP/src/core/pbuf.c ****       left += buf_copy_len;
 2038              		.loc 1 1044 0
 2039 0052 2644     		add	r6, r6, r4
 2040              	.LVL271:
 2041 0054 B6B2     		uxth	r6, r6
 2042              	.LVL272:
1046:Middlewares/Third_Party/LwIP/src/core/pbuf.c ****       offset = 0;
 2043              		.loc 1 1046 0
 2044 0056 A8EB0404 		sub	r4, r8, r4
 2045              	.LVL273:
 2046 005a 1FFA84F8 		uxth	r8, r4
 2047              	.LVL274:
1047:Middlewares/Third_Party/LwIP/src/core/pbuf.c ****     }
 2048              		.loc 1 1047 0
 2049 005e 0023     		movs	r3, #0
 2050              	.LVL275:
 2051              	.L199:
1032:Middlewares/Third_Party/LwIP/src/core/pbuf.c ****     if ((offset != 0) && (offset >= p->len)) {
 2052              		.loc 1 1032 0 discriminator 2
 2053 0060 2D68     		ldr	r5, [r5]
 2054              	.LVL276:
 2055              	.L197:
1032:Middlewares/Third_Party/LwIP/src/core/pbuf.c ****     if ((offset != 0) && (offset >= p->len)) {
 2056              		.loc 1 1032 0 is_stmt 0 discriminator 1
 2057 0062 2A1C     		adds	r2, r5, #0
 2058 0064 18BF     		it	ne
 2059 0066 0122     		movne	r2, #1
 2060 0068 B8F1000F 		cmp	r8, #0
 2061 006c 08BF     		it	eq
 2062 006e 0022     		moveq	r2, #0
 2063 0070 002A     		cmp	r2, #0
 2064 0072 D6D0     		beq	.L196
1033:Middlewares/Third_Party/LwIP/src/core/pbuf.c ****       /* don't copy from this buffer -> on to the next */
 2065              		.loc 1 1033 0 is_stmt 1
 2066 0074 002B     		cmp	r3, #0
 2067 0076 E0D0     		beq	.L198
1033:Middlewares/Third_Party/LwIP/src/core/pbuf.c ****       /* don't copy from this buffer -> on to the next */
 2068              		.loc 1 1033 0 is_stmt 0 discriminator 1
 2069 0078 6989     		ldrh	r1, [r5, #10]
 2070 007a 9942     		cmp	r1, r3
 2071 007c DDD8     		bhi	.L198
1035:Middlewares/Third_Party/LwIP/src/core/pbuf.c ****     } else {
 2072              		.loc 1 1035 0 is_stmt 1
 2073 007e 5B1A     		subs	r3, r3, r1
 2074              	.LVL277:
 2075 0080 9BB2     		uxth	r3, r3
 2076              	.LVL278:
 2077 0082 EDE7     		b	.L199
 2078              	.L208:
 2079              		.align	2
 2080              	.L207:
ARM GAS  C:\Users\Patryk\AppData\Local\Temp\ccybDtdu.s 			page 62


 2081 0084 00000000 		.word	.LC0
 2082 0088 00000000 		.word	.LC31
 2083 008c 3C000000 		.word	.LC2
 2084 0090 20000000 		.word	.LC32
 2085              		.cfi_endproc
 2086              	.LFE175:
 2088              		.section	.text.pbuf_skip,"ax",%progbits
 2089              		.align	1
 2090              		.global	pbuf_skip
 2091              		.syntax unified
 2092              		.thumb
 2093              		.thumb_func
 2094              		.fpu fpv5-sp-d16
 2096              	pbuf_skip:
 2097              	.LFB177:
1120:Middlewares/Third_Party/LwIP/src/core/pbuf.c **** 
1121:Middlewares/Third_Party/LwIP/src/core/pbuf.c **** /**
1122:Middlewares/Third_Party/LwIP/src/core/pbuf.c ****  * @ingroup pbuf
1123:Middlewares/Third_Party/LwIP/src/core/pbuf.c ****  * Skip a number of bytes at the start of a pbuf
1124:Middlewares/Third_Party/LwIP/src/core/pbuf.c ****  *
1125:Middlewares/Third_Party/LwIP/src/core/pbuf.c ****  * @param in input pbuf
1126:Middlewares/Third_Party/LwIP/src/core/pbuf.c ****  * @param in_offset offset to skip
1127:Middlewares/Third_Party/LwIP/src/core/pbuf.c ****  * @param out_offset resulting offset in the returned pbuf
1128:Middlewares/Third_Party/LwIP/src/core/pbuf.c ****  * @return the pbuf in the queue where the offset is
1129:Middlewares/Third_Party/LwIP/src/core/pbuf.c ****  */
1130:Middlewares/Third_Party/LwIP/src/core/pbuf.c **** struct pbuf*
1131:Middlewares/Third_Party/LwIP/src/core/pbuf.c **** pbuf_skip(struct pbuf* in, u16_t in_offset, u16_t* out_offset)
1132:Middlewares/Third_Party/LwIP/src/core/pbuf.c **** {
 2098              		.loc 1 1132 0
 2099              		.cfi_startproc
 2100              		@ args = 0, pretend = 0, frame = 0
 2101              		@ frame_needed = 0, uses_anonymous_args = 0
 2102              	.LVL279:
 2103 0000 08B5     		push	{r3, lr}
 2104              	.LCFI17:
 2105              		.cfi_def_cfa_offset 8
 2106              		.cfi_offset 3, -8
 2107              		.cfi_offset 14, -4
1133:Middlewares/Third_Party/LwIP/src/core/pbuf.c ****   const struct pbuf* out = pbuf_skip_const(in, in_offset, out_offset);
 2108              		.loc 1 1133 0
 2109 0002 FFF7FEFF 		bl	pbuf_skip_const
 2110              	.LVL280:
1134:Middlewares/Third_Party/LwIP/src/core/pbuf.c ****   return LWIP_CONST_CAST(struct pbuf*, out);
1135:Middlewares/Third_Party/LwIP/src/core/pbuf.c **** }
 2111              		.loc 1 1135 0
 2112 0006 08BD     		pop	{r3, pc}
 2113              		.cfi_endproc
 2114              	.LFE177:
 2116              		.section	.text.pbuf_take,"ax",%progbits
 2117              		.align	1
 2118              		.global	pbuf_take
 2119              		.syntax unified
 2120              		.thumb
 2121              		.thumb_func
 2122              		.fpu fpv5-sp-d16
 2124              	pbuf_take:
 2125              	.LFB178:
ARM GAS  C:\Users\Patryk\AppData\Local\Temp\ccybDtdu.s 			page 63


1136:Middlewares/Third_Party/LwIP/src/core/pbuf.c **** 
1137:Middlewares/Third_Party/LwIP/src/core/pbuf.c **** /**
1138:Middlewares/Third_Party/LwIP/src/core/pbuf.c ****  * @ingroup pbuf
1139:Middlewares/Third_Party/LwIP/src/core/pbuf.c ****  * Copy application supplied data into a pbuf.
1140:Middlewares/Third_Party/LwIP/src/core/pbuf.c ****  * This function can only be used to copy the equivalent of buf->tot_len data.
1141:Middlewares/Third_Party/LwIP/src/core/pbuf.c ****  *
1142:Middlewares/Third_Party/LwIP/src/core/pbuf.c ****  * @param buf pbuf to fill with data
1143:Middlewares/Third_Party/LwIP/src/core/pbuf.c ****  * @param dataptr application supplied data buffer
1144:Middlewares/Third_Party/LwIP/src/core/pbuf.c ****  * @param len length of the application supplied data buffer
1145:Middlewares/Third_Party/LwIP/src/core/pbuf.c ****  *
1146:Middlewares/Third_Party/LwIP/src/core/pbuf.c ****  * @return ERR_OK if successful, ERR_MEM if the pbuf is not big enough
1147:Middlewares/Third_Party/LwIP/src/core/pbuf.c ****  */
1148:Middlewares/Third_Party/LwIP/src/core/pbuf.c **** err_t
1149:Middlewares/Third_Party/LwIP/src/core/pbuf.c **** pbuf_take(struct pbuf *buf, const void *dataptr, u16_t len)
1150:Middlewares/Third_Party/LwIP/src/core/pbuf.c **** {
 2126              		.loc 1 1150 0
 2127              		.cfi_startproc
 2128              		@ args = 0, pretend = 0, frame = 0
 2129              		@ frame_needed = 0, uses_anonymous_args = 0
 2130              	.LVL281:
 2131 0000 2DE9F843 		push	{r3, r4, r5, r6, r7, r8, r9, lr}
 2132              	.LCFI18:
 2133              		.cfi_def_cfa_offset 32
 2134              		.cfi_offset 3, -32
 2135              		.cfi_offset 4, -28
 2136              		.cfi_offset 5, -24
 2137              		.cfi_offset 6, -20
 2138              		.cfi_offset 7, -16
 2139              		.cfi_offset 8, -12
 2140              		.cfi_offset 9, -8
 2141              		.cfi_offset 14, -4
 2142              	.LVL282:
1151:Middlewares/Third_Party/LwIP/src/core/pbuf.c ****   struct pbuf *p;
1152:Middlewares/Third_Party/LwIP/src/core/pbuf.c ****   u16_t buf_copy_len;
1153:Middlewares/Third_Party/LwIP/src/core/pbuf.c ****   u16_t total_copy_len = len;
1154:Middlewares/Third_Party/LwIP/src/core/pbuf.c ****   u16_t copied_total = 0;
1155:Middlewares/Third_Party/LwIP/src/core/pbuf.c **** 
1156:Middlewares/Third_Party/LwIP/src/core/pbuf.c ****   LWIP_ERROR("pbuf_take: invalid buf", (buf != NULL), return ERR_ARG;);
 2143              		.loc 1 1156 0
 2144 0004 48B1     		cbz	r0, .L222
 2145 0006 8846     		mov	r8, r1
 2146 0008 9146     		mov	r9, r2
 2147 000a 0646     		mov	r6, r0
1157:Middlewares/Third_Party/LwIP/src/core/pbuf.c ****   LWIP_ERROR("pbuf_take: invalid dataptr", (dataptr != NULL), return ERR_ARG;);
 2148              		.loc 1 1157 0
 2149 000c 79B1     		cbz	r1, .L223
1158:Middlewares/Third_Party/LwIP/src/core/pbuf.c ****   LWIP_ERROR("pbuf_take: buf not large enough", (buf->tot_len >= len), return ERR_MEM;);
 2150              		.loc 1 1158 0
 2151 000e 0389     		ldrh	r3, [r0, #8]
 2152 0010 9342     		cmp	r3, r2
 2153 0012 16D3     		bcc	.L224
1153:Middlewares/Third_Party/LwIP/src/core/pbuf.c ****   u16_t copied_total = 0;
 2154              		.loc 1 1153 0
 2155 0014 1446     		mov	r4, r2
1154:Middlewares/Third_Party/LwIP/src/core/pbuf.c **** 
 2156              		.loc 1 1154 0
 2157 0016 0027     		movs	r7, #0
ARM GAS  C:\Users\Patryk\AppData\Local\Temp\ccybDtdu.s 			page 64


 2158 0018 30E0     		b	.L215
 2159              	.L222:
1156:Middlewares/Third_Party/LwIP/src/core/pbuf.c ****   LWIP_ERROR("pbuf_take: invalid dataptr", (dataptr != NULL), return ERR_ARG;);
 2160              		.loc 1 1156 0 discriminator 1
 2161 001a 234B     		ldr	r3, .L228
 2162 001c 40F28442 		movw	r2, #1156
 2163              	.LVL283:
 2164 0020 2249     		ldr	r1, .L228+4
 2165              	.LVL284:
 2166 0022 2348     		ldr	r0, .L228+8
 2167              	.LVL285:
 2168 0024 FFF7FEFF 		bl	printf
 2169              	.LVL286:
 2170 0028 6FF00F00 		mvn	r0, #15
 2171 002c 31E0     		b	.L213
 2172              	.LVL287:
 2173              	.L223:
1157:Middlewares/Third_Party/LwIP/src/core/pbuf.c ****   LWIP_ERROR("pbuf_take: buf not large enough", (buf->tot_len >= len), return ERR_MEM;);
 2174              		.loc 1 1157 0 discriminator 1
 2175 002e 1E4B     		ldr	r3, .L228
 2176 0030 40F28542 		movw	r2, #1157
 2177              	.LVL288:
 2178 0034 1F49     		ldr	r1, .L228+12
 2179              	.LVL289:
 2180 0036 1E48     		ldr	r0, .L228+8
 2181              	.LVL290:
 2182 0038 FFF7FEFF 		bl	printf
 2183              	.LVL291:
 2184 003c 6FF00F00 		mvn	r0, #15
 2185 0040 27E0     		b	.L213
 2186              	.LVL292:
 2187              	.L224:
 2188              		.loc 1 1158 0 discriminator 1
 2189 0042 194B     		ldr	r3, .L228
 2190 0044 40F28642 		movw	r2, #1158
 2191              	.LVL293:
 2192 0048 1B49     		ldr	r1, .L228+16
 2193              	.LVL294:
 2194 004a 1948     		ldr	r0, .L228+8
 2195              	.LVL295:
 2196 004c FFF7FEFF 		bl	printf
 2197              	.LVL296:
 2198 0050 4FF0FF30 		mov	r0, #-1
 2199 0054 1DE0     		b	.L213
 2200              	.LVL297:
 2201              	.L226:
1159:Middlewares/Third_Party/LwIP/src/core/pbuf.c **** 
1160:Middlewares/Third_Party/LwIP/src/core/pbuf.c ****   if ((buf == NULL) || (dataptr == NULL) || (buf->tot_len < len)) {
1161:Middlewares/Third_Party/LwIP/src/core/pbuf.c ****     return ERR_ARG;
1162:Middlewares/Third_Party/LwIP/src/core/pbuf.c ****   }
1163:Middlewares/Third_Party/LwIP/src/core/pbuf.c **** 
1164:Middlewares/Third_Party/LwIP/src/core/pbuf.c ****   /* Note some systems use byte copy if dataptr or one of the pbuf payload pointers are unaligned. 
1165:Middlewares/Third_Party/LwIP/src/core/pbuf.c ****   for (p = buf; total_copy_len != 0; p = p->next) {
1166:Middlewares/Third_Party/LwIP/src/core/pbuf.c ****     LWIP_ASSERT("pbuf_take: invalid pbuf", p != NULL);
 2202              		.loc 1 1166 0 discriminator 1
 2203 0056 144B     		ldr	r3, .L228
 2204 0058 40F28E42 		movw	r2, #1166
ARM GAS  C:\Users\Patryk\AppData\Local\Temp\ccybDtdu.s 			page 65


 2205 005c 1749     		ldr	r1, .L228+20
 2206 005e 1448     		ldr	r0, .L228+8
 2207 0060 FFF7FEFF 		bl	printf
 2208              	.LVL298:
 2209 0064 0DE0     		b	.L216
 2210              	.LVL299:
 2211              	.L217:
1167:Middlewares/Third_Party/LwIP/src/core/pbuf.c ****     buf_copy_len = total_copy_len;
1168:Middlewares/Third_Party/LwIP/src/core/pbuf.c ****     if (buf_copy_len > p->len) {
1169:Middlewares/Third_Party/LwIP/src/core/pbuf.c ****       /* this pbuf cannot hold all remaining data */
1170:Middlewares/Third_Party/LwIP/src/core/pbuf.c ****       buf_copy_len = p->len;
1171:Middlewares/Third_Party/LwIP/src/core/pbuf.c ****     }
1172:Middlewares/Third_Party/LwIP/src/core/pbuf.c ****     /* copy the necessary parts of the buffer */
1173:Middlewares/Third_Party/LwIP/src/core/pbuf.c ****     MEMCPY(p->payload, &((const char*)dataptr)[copied_total], buf_copy_len);
 2212              		.loc 1 1173 0 discriminator 2
 2213 0066 2A46     		mov	r2, r5
 2214 0068 08EB0701 		add	r1, r8, r7
 2215 006c 7068     		ldr	r0, [r6, #4]
 2216 006e FFF7FEFF 		bl	memcpy
 2217              	.LVL300:
1174:Middlewares/Third_Party/LwIP/src/core/pbuf.c ****     total_copy_len -= buf_copy_len;
 2218              		.loc 1 1174 0 discriminator 2
 2219 0072 641B     		subs	r4, r4, r5
 2220              	.LVL301:
 2221 0074 A4B2     		uxth	r4, r4
 2222              	.LVL302:
1175:Middlewares/Third_Party/LwIP/src/core/pbuf.c ****     copied_total += buf_copy_len;
 2223              		.loc 1 1175 0 discriminator 2
 2224 0076 2F44     		add	r7, r7, r5
 2225              	.LVL303:
 2226 0078 BFB2     		uxth	r7, r7
 2227              	.LVL304:
1165:Middlewares/Third_Party/LwIP/src/core/pbuf.c ****     LWIP_ASSERT("pbuf_take: invalid pbuf", p != NULL);
 2228              		.loc 1 1165 0 discriminator 2
 2229 007a 3668     		ldr	r6, [r6]
 2230              	.LVL305:
 2231              	.L215:
1165:Middlewares/Third_Party/LwIP/src/core/pbuf.c ****     LWIP_ASSERT("pbuf_take: invalid pbuf", p != NULL);
 2232              		.loc 1 1165 0 is_stmt 0 discriminator 1
 2233 007c 34B1     		cbz	r4, .L225
1166:Middlewares/Third_Party/LwIP/src/core/pbuf.c ****     buf_copy_len = total_copy_len;
 2234              		.loc 1 1166 0 is_stmt 1
 2235 007e 002E     		cmp	r6, #0
 2236 0080 E9D0     		beq	.L226
 2237              	.L216:
 2238              	.LVL306:
1168:Middlewares/Third_Party/LwIP/src/core/pbuf.c ****       /* this pbuf cannot hold all remaining data */
 2239              		.loc 1 1168 0
 2240 0082 7589     		ldrh	r5, [r6, #10]
 2241 0084 A542     		cmp	r5, r4
 2242 0086 EED3     		bcc	.L217
1167:Middlewares/Third_Party/LwIP/src/core/pbuf.c ****     if (buf_copy_len > p->len) {
 2243              		.loc 1 1167 0
 2244 0088 2546     		mov	r5, r4
 2245 008a ECE7     		b	.L217
 2246              	.LVL307:
 2247              	.L225:
ARM GAS  C:\Users\Patryk\AppData\Local\Temp\ccybDtdu.s 			page 66


1176:Middlewares/Third_Party/LwIP/src/core/pbuf.c ****   }
1177:Middlewares/Third_Party/LwIP/src/core/pbuf.c ****   LWIP_ASSERT("did not copy all data", total_copy_len == 0 && copied_total == len);
 2248              		.loc 1 1177 0
 2249 008c 4F45     		cmp	r7, r9
 2250 008e 02D1     		bne	.L227
1178:Middlewares/Third_Party/LwIP/src/core/pbuf.c ****   return ERR_OK;
 2251              		.loc 1 1178 0
 2252 0090 0020     		movs	r0, #0
 2253              	.LVL308:
 2254              	.L213:
1179:Middlewares/Third_Party/LwIP/src/core/pbuf.c **** }
 2255              		.loc 1 1179 0
 2256 0092 BDE8F883 		pop	{r3, r4, r5, r6, r7, r8, r9, pc}
 2257              	.LVL309:
 2258              	.L227:
1177:Middlewares/Third_Party/LwIP/src/core/pbuf.c ****   return ERR_OK;
 2259              		.loc 1 1177 0 discriminator 1
 2260 0096 044B     		ldr	r3, .L228
 2261 0098 40F29942 		movw	r2, #1177
 2262 009c 0849     		ldr	r1, .L228+24
 2263 009e 0448     		ldr	r0, .L228+8
 2264 00a0 FFF7FEFF 		bl	printf
 2265              	.LVL310:
1178:Middlewares/Third_Party/LwIP/src/core/pbuf.c ****   return ERR_OK;
 2266              		.loc 1 1178 0 discriminator 1
 2267 00a4 0020     		movs	r0, #0
 2268 00a6 F4E7     		b	.L213
 2269              	.L229:
 2270              		.align	2
 2271              	.L228:
 2272 00a8 00000000 		.word	.LC0
 2273 00ac 00000000 		.word	.LC33
 2274 00b0 3C000000 		.word	.LC2
 2275 00b4 18000000 		.word	.LC34
 2276 00b8 34000000 		.word	.LC35
 2277 00bc 54000000 		.word	.LC36
 2278 00c0 6C000000 		.word	.LC37
 2279              		.cfi_endproc
 2280              	.LFE178:
 2282              		.section	.text.pbuf_take_at,"ax",%progbits
 2283              		.align	1
 2284              		.global	pbuf_take_at
 2285              		.syntax unified
 2286              		.thumb
 2287              		.thumb_func
 2288              		.fpu fpv5-sp-d16
 2290              	pbuf_take_at:
 2291              	.LFB179:
1180:Middlewares/Third_Party/LwIP/src/core/pbuf.c **** 
1181:Middlewares/Third_Party/LwIP/src/core/pbuf.c **** /**
1182:Middlewares/Third_Party/LwIP/src/core/pbuf.c ****  * @ingroup pbuf
1183:Middlewares/Third_Party/LwIP/src/core/pbuf.c ****  * Same as pbuf_take() but puts data at an offset
1184:Middlewares/Third_Party/LwIP/src/core/pbuf.c ****  *
1185:Middlewares/Third_Party/LwIP/src/core/pbuf.c ****  * @param buf pbuf to fill with data
1186:Middlewares/Third_Party/LwIP/src/core/pbuf.c ****  * @param dataptr application supplied data buffer
1187:Middlewares/Third_Party/LwIP/src/core/pbuf.c ****  * @param len length of the application supplied data buffer
1188:Middlewares/Third_Party/LwIP/src/core/pbuf.c ****  * @param offset offset in pbuf where to copy dataptr to
ARM GAS  C:\Users\Patryk\AppData\Local\Temp\ccybDtdu.s 			page 67


1189:Middlewares/Third_Party/LwIP/src/core/pbuf.c ****  *
1190:Middlewares/Third_Party/LwIP/src/core/pbuf.c ****  * @return ERR_OK if successful, ERR_MEM if the pbuf is not big enough
1191:Middlewares/Third_Party/LwIP/src/core/pbuf.c ****  */
1192:Middlewares/Third_Party/LwIP/src/core/pbuf.c **** err_t
1193:Middlewares/Third_Party/LwIP/src/core/pbuf.c **** pbuf_take_at(struct pbuf *buf, const void *dataptr, u16_t len, u16_t offset)
1194:Middlewares/Third_Party/LwIP/src/core/pbuf.c **** {
 2292              		.loc 1 1194 0
 2293              		.cfi_startproc
 2294              		@ args = 0, pretend = 0, frame = 8
 2295              		@ frame_needed = 0, uses_anonymous_args = 0
 2296              	.LVL311:
 2297 0000 F0B5     		push	{r4, r5, r6, r7, lr}
 2298              	.LCFI19:
 2299              		.cfi_def_cfa_offset 20
 2300              		.cfi_offset 4, -20
 2301              		.cfi_offset 5, -16
 2302              		.cfi_offset 6, -12
 2303              		.cfi_offset 7, -8
 2304              		.cfi_offset 14, -4
 2305 0002 83B0     		sub	sp, sp, #12
 2306              	.LCFI20:
 2307              		.cfi_def_cfa_offset 32
 2308 0004 0F46     		mov	r7, r1
 2309 0006 1546     		mov	r5, r2
1195:Middlewares/Third_Party/LwIP/src/core/pbuf.c ****   u16_t target_offset;
1196:Middlewares/Third_Party/LwIP/src/core/pbuf.c ****   struct pbuf* q = pbuf_skip(buf, offset, &target_offset);
 2310              		.loc 1 1196 0
 2311 0008 0DF10602 		add	r2, sp, #6
 2312              	.LVL312:
 2313 000c 1946     		mov	r1, r3
 2314              	.LVL313:
 2315 000e FFF7FEFF 		bl	pbuf_skip
 2316              	.LVL314:
1197:Middlewares/Third_Party/LwIP/src/core/pbuf.c **** 
1198:Middlewares/Third_Party/LwIP/src/core/pbuf.c ****   /* return requested data if pbuf is OK */
1199:Middlewares/Third_Party/LwIP/src/core/pbuf.c ****   if ((q != NULL) && (q->tot_len >= target_offset + len)) {
 2317              		.loc 1 1199 0
 2318 0012 E8B1     		cbz	r0, .L232
 2319 0014 0646     		mov	r6, r0
 2320              		.loc 1 1199 0 is_stmt 0 discriminator 1
 2321 0016 0189     		ldrh	r1, [r0, #8]
 2322 0018 BDF80630 		ldrh	r3, [sp, #6]
 2323 001c 5A19     		adds	r2, r3, r5
 2324 001e 9142     		cmp	r1, r2
 2325 0020 19DB     		blt	.L233
 2326              	.LVL315:
 2327              	.LBB10:
1200:Middlewares/Third_Party/LwIP/src/core/pbuf.c ****     u16_t remaining_len = len;
1201:Middlewares/Third_Party/LwIP/src/core/pbuf.c ****     const u8_t* src_ptr = (const u8_t*)dataptr;
1202:Middlewares/Third_Party/LwIP/src/core/pbuf.c ****     /* copy the part that goes into the first pbuf */
1203:Middlewares/Third_Party/LwIP/src/core/pbuf.c ****     u16_t first_copy_len = LWIP_MIN(q->len - target_offset, len);
 2328              		.loc 1 1203 0 is_stmt 1
 2329 0022 4489     		ldrh	r4, [r0, #10]
 2330 0024 E41A     		subs	r4, r4, r3
 2331 0026 AC42     		cmp	r4, r5
 2332 0028 A8BF     		it	ge
 2333 002a 2C46     		movge	r4, r5
ARM GAS  C:\Users\Patryk\AppData\Local\Temp\ccybDtdu.s 			page 68


 2334 002c A4B2     		uxth	r4, r4
 2335              	.LVL316:
1204:Middlewares/Third_Party/LwIP/src/core/pbuf.c ****     MEMCPY(((u8_t*)q->payload) + target_offset, dataptr, first_copy_len);
 2336              		.loc 1 1204 0
 2337 002e 4068     		ldr	r0, [r0, #4]
 2338              	.LVL317:
 2339 0030 2246     		mov	r2, r4
 2340 0032 3946     		mov	r1, r7
 2341 0034 1844     		add	r0, r0, r3
 2342 0036 FFF7FEFF 		bl	memcpy
 2343              	.LVL318:
1205:Middlewares/Third_Party/LwIP/src/core/pbuf.c ****     remaining_len -= first_copy_len;
 2344              		.loc 1 1205 0
 2345 003a 2A1B     		subs	r2, r5, r4
 2346 003c 92B2     		uxth	r2, r2
 2347              	.LVL319:
1206:Middlewares/Third_Party/LwIP/src/core/pbuf.c ****     src_ptr += first_copy_len;
 2348              		.loc 1 1206 0
 2349 003e 3919     		adds	r1, r7, r4
 2350              	.LVL320:
1207:Middlewares/Third_Party/LwIP/src/core/pbuf.c ****     if (remaining_len > 0) {
 2351              		.loc 1 1207 0
 2352 0040 12B9     		cbnz	r2, .L236
1208:Middlewares/Third_Party/LwIP/src/core/pbuf.c ****       return pbuf_take(q->next, src_ptr, remaining_len);
1209:Middlewares/Third_Party/LwIP/src/core/pbuf.c ****     }
1210:Middlewares/Third_Party/LwIP/src/core/pbuf.c ****     return ERR_OK;
 2353              		.loc 1 1210 0
 2354 0042 0020     		movs	r0, #0
 2355              	.LVL321:
 2356              	.L231:
 2357              	.LBE10:
1211:Middlewares/Third_Party/LwIP/src/core/pbuf.c ****   }
1212:Middlewares/Third_Party/LwIP/src/core/pbuf.c ****   return ERR_MEM;
1213:Middlewares/Third_Party/LwIP/src/core/pbuf.c **** }
 2358              		.loc 1 1213 0
 2359 0044 03B0     		add	sp, sp, #12
 2360              	.LCFI21:
 2361              		.cfi_remember_state
 2362              		.cfi_def_cfa_offset 20
 2363              		@ sp needed
 2364 0046 F0BD     		pop	{r4, r5, r6, r7, pc}
 2365              	.LVL322:
 2366              	.L236:
 2367              	.LCFI22:
 2368              		.cfi_restore_state
 2369              	.LBB11:
1208:Middlewares/Third_Party/LwIP/src/core/pbuf.c ****       return pbuf_take(q->next, src_ptr, remaining_len);
 2370              		.loc 1 1208 0
 2371 0048 3068     		ldr	r0, [r6]
 2372 004a FFF7FEFF 		bl	pbuf_take
 2373              	.LVL323:
 2374 004e F9E7     		b	.L231
 2375              	.LVL324:
 2376              	.L232:
 2377              	.LBE11:
1212:Middlewares/Third_Party/LwIP/src/core/pbuf.c **** }
 2378              		.loc 1 1212 0
ARM GAS  C:\Users\Patryk\AppData\Local\Temp\ccybDtdu.s 			page 69


 2379 0050 4FF0FF30 		mov	r0, #-1
 2380              	.LVL325:
 2381 0054 F6E7     		b	.L231
 2382              	.LVL326:
 2383              	.L233:
 2384 0056 4FF0FF30 		mov	r0, #-1
 2385              	.LVL327:
 2386 005a F3E7     		b	.L231
 2387              		.cfi_endproc
 2388              	.LFE179:
 2390              		.section	.text.pbuf_coalesce,"ax",%progbits
 2391              		.align	1
 2392              		.global	pbuf_coalesce
 2393              		.syntax unified
 2394              		.thumb
 2395              		.thumb_func
 2396              		.fpu fpv5-sp-d16
 2398              	pbuf_coalesce:
 2399              	.LFB180:
1214:Middlewares/Third_Party/LwIP/src/core/pbuf.c **** 
1215:Middlewares/Third_Party/LwIP/src/core/pbuf.c **** /**
1216:Middlewares/Third_Party/LwIP/src/core/pbuf.c ****  * @ingroup pbuf
1217:Middlewares/Third_Party/LwIP/src/core/pbuf.c ****  * Creates a single pbuf out of a queue of pbufs.
1218:Middlewares/Third_Party/LwIP/src/core/pbuf.c ****  *
1219:Middlewares/Third_Party/LwIP/src/core/pbuf.c ****  * @remark: Either the source pbuf 'p' is freed by this function or the original
1220:Middlewares/Third_Party/LwIP/src/core/pbuf.c ****  *          pbuf 'p' is returned, therefore the caller has to check the result!
1221:Middlewares/Third_Party/LwIP/src/core/pbuf.c ****  *
1222:Middlewares/Third_Party/LwIP/src/core/pbuf.c ****  * @param p the source pbuf
1223:Middlewares/Third_Party/LwIP/src/core/pbuf.c ****  * @param layer pbuf_layer of the new pbuf
1224:Middlewares/Third_Party/LwIP/src/core/pbuf.c ****  *
1225:Middlewares/Third_Party/LwIP/src/core/pbuf.c ****  * @return a new, single pbuf (p->next is NULL)
1226:Middlewares/Third_Party/LwIP/src/core/pbuf.c ****  *         or the old pbuf if allocation fails
1227:Middlewares/Third_Party/LwIP/src/core/pbuf.c ****  */
1228:Middlewares/Third_Party/LwIP/src/core/pbuf.c **** struct pbuf*
1229:Middlewares/Third_Party/LwIP/src/core/pbuf.c **** pbuf_coalesce(struct pbuf *p, pbuf_layer layer)
1230:Middlewares/Third_Party/LwIP/src/core/pbuf.c **** {
 2400              		.loc 1 1230 0
 2401              		.cfi_startproc
 2402              		@ args = 0, pretend = 0, frame = 0
 2403              		@ frame_needed = 0, uses_anonymous_args = 0
 2404              	.LVL328:
 2405 0000 38B5     		push	{r3, r4, r5, lr}
 2406              	.LCFI23:
 2407              		.cfi_def_cfa_offset 16
 2408              		.cfi_offset 3, -16
 2409              		.cfi_offset 4, -12
 2410              		.cfi_offset 5, -8
 2411              		.cfi_offset 14, -4
 2412 0002 0446     		mov	r4, r0
1231:Middlewares/Third_Party/LwIP/src/core/pbuf.c ****   struct pbuf *q;
1232:Middlewares/Third_Party/LwIP/src/core/pbuf.c ****   err_t err;
1233:Middlewares/Third_Party/LwIP/src/core/pbuf.c ****   if (p->next == NULL) {
 2413              		.loc 1 1233 0
 2414 0004 0368     		ldr	r3, [r0]
 2415 0006 73B1     		cbz	r3, .L238
 2416 0008 0846     		mov	r0, r1
 2417              	.LVL329:
ARM GAS  C:\Users\Patryk\AppData\Local\Temp\ccybDtdu.s 			page 70


1234:Middlewares/Third_Party/LwIP/src/core/pbuf.c ****     return p;
1235:Middlewares/Third_Party/LwIP/src/core/pbuf.c ****   }
1236:Middlewares/Third_Party/LwIP/src/core/pbuf.c ****   q = pbuf_alloc(layer, p->tot_len, PBUF_RAM);
 2418              		.loc 1 1236 0
 2419 000a 0022     		movs	r2, #0
 2420 000c 2189     		ldrh	r1, [r4, #8]
 2421              	.LVL330:
 2422 000e FFF7FEFF 		bl	pbuf_alloc
 2423              	.LVL331:
1237:Middlewares/Third_Party/LwIP/src/core/pbuf.c ****   if (q == NULL) {
 2424              		.loc 1 1237 0
 2425 0012 0546     		mov	r5, r0
 2426 0014 38B1     		cbz	r0, .L238
1238:Middlewares/Third_Party/LwIP/src/core/pbuf.c ****     /* @todo: what do we do now? */
1239:Middlewares/Third_Party/LwIP/src/core/pbuf.c ****     return p;
1240:Middlewares/Third_Party/LwIP/src/core/pbuf.c ****   }
1241:Middlewares/Third_Party/LwIP/src/core/pbuf.c ****   err = pbuf_copy(q, p);
 2427              		.loc 1 1241 0
 2428 0016 2146     		mov	r1, r4
 2429 0018 FFF7FEFF 		bl	pbuf_copy
 2430              	.LVL332:
1242:Middlewares/Third_Party/LwIP/src/core/pbuf.c ****   LWIP_UNUSED_ARG(err); /* in case of LWIP_NOASSERT */
1243:Middlewares/Third_Party/LwIP/src/core/pbuf.c ****   LWIP_ASSERT("pbuf_copy failed", err == ERR_OK);
 2431              		.loc 1 1243 0
 2432 001c 28B9     		cbnz	r0, .L241
 2433              	.LVL333:
 2434              	.L239:
1244:Middlewares/Third_Party/LwIP/src/core/pbuf.c ****   pbuf_free(p);
 2435              		.loc 1 1244 0
 2436 001e 2046     		mov	r0, r4
 2437 0020 FFF7FEFF 		bl	pbuf_free
 2438              	.LVL334:
1245:Middlewares/Third_Party/LwIP/src/core/pbuf.c ****   return q;
 2439              		.loc 1 1245 0
 2440 0024 2C46     		mov	r4, r5
 2441              	.LVL335:
 2442              	.L238:
1246:Middlewares/Third_Party/LwIP/src/core/pbuf.c **** }
 2443              		.loc 1 1246 0
 2444 0026 2046     		mov	r0, r4
 2445 0028 38BD     		pop	{r3, r4, r5, pc}
 2446              	.LVL336:
 2447              	.L241:
1243:Middlewares/Third_Party/LwIP/src/core/pbuf.c ****   pbuf_free(p);
 2448              		.loc 1 1243 0 discriminator 1
 2449 002a 044B     		ldr	r3, .L242
 2450 002c 40F2DB42 		movw	r2, #1243
 2451 0030 0349     		ldr	r1, .L242+4
 2452 0032 0448     		ldr	r0, .L242+8
 2453              	.LVL337:
 2454 0034 FFF7FEFF 		bl	printf
 2455              	.LVL338:
 2456 0038 F1E7     		b	.L239
 2457              	.L243:
 2458 003a 00BF     		.align	2
 2459              	.L242:
 2460 003c 00000000 		.word	.LC0
ARM GAS  C:\Users\Patryk\AppData\Local\Temp\ccybDtdu.s 			page 71


 2461 0040 00000000 		.word	.LC38
 2462 0044 3C000000 		.word	.LC2
 2463              		.cfi_endproc
 2464              	.LFE180:
 2466              		.section	.text.pbuf_try_get_at,"ax",%progbits
 2467              		.align	1
 2468              		.global	pbuf_try_get_at
 2469              		.syntax unified
 2470              		.thumb
 2471              		.thumb_func
 2472              		.fpu fpv5-sp-d16
 2474              	pbuf_try_get_at:
 2475              	.LFB182:
1247:Middlewares/Third_Party/LwIP/src/core/pbuf.c **** 
1248:Middlewares/Third_Party/LwIP/src/core/pbuf.c **** #if LWIP_CHECKSUM_ON_COPY
1249:Middlewares/Third_Party/LwIP/src/core/pbuf.c **** /**
1250:Middlewares/Third_Party/LwIP/src/core/pbuf.c ****  * Copies data into a single pbuf (*not* into a pbuf queue!) and updates
1251:Middlewares/Third_Party/LwIP/src/core/pbuf.c ****  * the checksum while copying
1252:Middlewares/Third_Party/LwIP/src/core/pbuf.c ****  *
1253:Middlewares/Third_Party/LwIP/src/core/pbuf.c ****  * @param p the pbuf to copy data into
1254:Middlewares/Third_Party/LwIP/src/core/pbuf.c ****  * @param start_offset offset of p->payload where to copy the data to
1255:Middlewares/Third_Party/LwIP/src/core/pbuf.c ****  * @param dataptr data to copy into the pbuf
1256:Middlewares/Third_Party/LwIP/src/core/pbuf.c ****  * @param len length of data to copy into the pbuf
1257:Middlewares/Third_Party/LwIP/src/core/pbuf.c ****  * @param chksum pointer to the checksum which is updated
1258:Middlewares/Third_Party/LwIP/src/core/pbuf.c ****  * @return ERR_OK if successful, another error if the data does not fit
1259:Middlewares/Third_Party/LwIP/src/core/pbuf.c ****  *         within the (first) pbuf (no pbuf queues!)
1260:Middlewares/Third_Party/LwIP/src/core/pbuf.c ****  */
1261:Middlewares/Third_Party/LwIP/src/core/pbuf.c **** err_t
1262:Middlewares/Third_Party/LwIP/src/core/pbuf.c **** pbuf_fill_chksum(struct pbuf *p, u16_t start_offset, const void *dataptr,
1263:Middlewares/Third_Party/LwIP/src/core/pbuf.c ****                  u16_t len, u16_t *chksum)
1264:Middlewares/Third_Party/LwIP/src/core/pbuf.c **** {
1265:Middlewares/Third_Party/LwIP/src/core/pbuf.c ****   u32_t acc;
1266:Middlewares/Third_Party/LwIP/src/core/pbuf.c ****   u16_t copy_chksum;
1267:Middlewares/Third_Party/LwIP/src/core/pbuf.c ****   char *dst_ptr;
1268:Middlewares/Third_Party/LwIP/src/core/pbuf.c ****   LWIP_ASSERT("p != NULL", p != NULL);
1269:Middlewares/Third_Party/LwIP/src/core/pbuf.c ****   LWIP_ASSERT("dataptr != NULL", dataptr != NULL);
1270:Middlewares/Third_Party/LwIP/src/core/pbuf.c ****   LWIP_ASSERT("chksum != NULL", chksum != NULL);
1271:Middlewares/Third_Party/LwIP/src/core/pbuf.c ****   LWIP_ASSERT("len != 0", len != 0);
1272:Middlewares/Third_Party/LwIP/src/core/pbuf.c **** 
1273:Middlewares/Third_Party/LwIP/src/core/pbuf.c ****   if ((start_offset >= p->len) || (start_offset + len > p->len)) {
1274:Middlewares/Third_Party/LwIP/src/core/pbuf.c ****     return ERR_ARG;
1275:Middlewares/Third_Party/LwIP/src/core/pbuf.c ****   }
1276:Middlewares/Third_Party/LwIP/src/core/pbuf.c **** 
1277:Middlewares/Third_Party/LwIP/src/core/pbuf.c ****   dst_ptr = ((char*)p->payload) + start_offset;
1278:Middlewares/Third_Party/LwIP/src/core/pbuf.c ****   copy_chksum = LWIP_CHKSUM_COPY(dst_ptr, dataptr, len);
1279:Middlewares/Third_Party/LwIP/src/core/pbuf.c ****   if ((start_offset & 1) != 0) {
1280:Middlewares/Third_Party/LwIP/src/core/pbuf.c ****     copy_chksum = SWAP_BYTES_IN_WORD(copy_chksum);
1281:Middlewares/Third_Party/LwIP/src/core/pbuf.c ****   }
1282:Middlewares/Third_Party/LwIP/src/core/pbuf.c ****   acc = *chksum;
1283:Middlewares/Third_Party/LwIP/src/core/pbuf.c ****   acc += copy_chksum;
1284:Middlewares/Third_Party/LwIP/src/core/pbuf.c ****   *chksum = FOLD_U32T(acc);
1285:Middlewares/Third_Party/LwIP/src/core/pbuf.c ****   return ERR_OK;
1286:Middlewares/Third_Party/LwIP/src/core/pbuf.c **** }
1287:Middlewares/Third_Party/LwIP/src/core/pbuf.c **** #endif /* LWIP_CHECKSUM_ON_COPY */
1288:Middlewares/Third_Party/LwIP/src/core/pbuf.c **** 
1289:Middlewares/Third_Party/LwIP/src/core/pbuf.c **** /**
1290:Middlewares/Third_Party/LwIP/src/core/pbuf.c ****  * @ingroup pbuf
ARM GAS  C:\Users\Patryk\AppData\Local\Temp\ccybDtdu.s 			page 72


1291:Middlewares/Third_Party/LwIP/src/core/pbuf.c ****  * Get one byte from the specified position in a pbuf
1292:Middlewares/Third_Party/LwIP/src/core/pbuf.c ****  * WARNING: returns zero for offset >= p->tot_len
1293:Middlewares/Third_Party/LwIP/src/core/pbuf.c ****  *
1294:Middlewares/Third_Party/LwIP/src/core/pbuf.c ****  * @param p pbuf to parse
1295:Middlewares/Third_Party/LwIP/src/core/pbuf.c ****  * @param offset offset into p of the byte to return
1296:Middlewares/Third_Party/LwIP/src/core/pbuf.c ****  * @return byte at an offset into p OR ZERO IF 'offset' >= p->tot_len
1297:Middlewares/Third_Party/LwIP/src/core/pbuf.c ****  */
1298:Middlewares/Third_Party/LwIP/src/core/pbuf.c **** u8_t
1299:Middlewares/Third_Party/LwIP/src/core/pbuf.c **** pbuf_get_at(const struct pbuf* p, u16_t offset)
1300:Middlewares/Third_Party/LwIP/src/core/pbuf.c **** {
1301:Middlewares/Third_Party/LwIP/src/core/pbuf.c ****   int ret = pbuf_try_get_at(p, offset);
1302:Middlewares/Third_Party/LwIP/src/core/pbuf.c ****   if (ret >= 0) {
1303:Middlewares/Third_Party/LwIP/src/core/pbuf.c ****     return (u8_t)ret;
1304:Middlewares/Third_Party/LwIP/src/core/pbuf.c ****   }
1305:Middlewares/Third_Party/LwIP/src/core/pbuf.c ****   return 0;
1306:Middlewares/Third_Party/LwIP/src/core/pbuf.c **** }
1307:Middlewares/Third_Party/LwIP/src/core/pbuf.c **** 
1308:Middlewares/Third_Party/LwIP/src/core/pbuf.c **** /**
1309:Middlewares/Third_Party/LwIP/src/core/pbuf.c ****  * @ingroup pbuf
1310:Middlewares/Third_Party/LwIP/src/core/pbuf.c ****  * Get one byte from the specified position in a pbuf
1311:Middlewares/Third_Party/LwIP/src/core/pbuf.c ****  *
1312:Middlewares/Third_Party/LwIP/src/core/pbuf.c ****  * @param p pbuf to parse
1313:Middlewares/Third_Party/LwIP/src/core/pbuf.c ****  * @param offset offset into p of the byte to return
1314:Middlewares/Third_Party/LwIP/src/core/pbuf.c ****  * @return byte at an offset into p [0..0xFF] OR negative if 'offset' >= p->tot_len
1315:Middlewares/Third_Party/LwIP/src/core/pbuf.c ****  */
1316:Middlewares/Third_Party/LwIP/src/core/pbuf.c **** int
1317:Middlewares/Third_Party/LwIP/src/core/pbuf.c **** pbuf_try_get_at(const struct pbuf* p, u16_t offset)
1318:Middlewares/Third_Party/LwIP/src/core/pbuf.c **** {
 2476              		.loc 1 1318 0
 2477              		.cfi_startproc
 2478              		@ args = 0, pretend = 0, frame = 8
 2479              		@ frame_needed = 0, uses_anonymous_args = 0
 2480              	.LVL339:
 2481 0000 00B5     		push	{lr}
 2482              	.LCFI24:
 2483              		.cfi_def_cfa_offset 4
 2484              		.cfi_offset 14, -4
 2485 0002 83B0     		sub	sp, sp, #12
 2486              	.LCFI25:
 2487              		.cfi_def_cfa_offset 16
1319:Middlewares/Third_Party/LwIP/src/core/pbuf.c ****   u16_t q_idx;
1320:Middlewares/Third_Party/LwIP/src/core/pbuf.c ****   const struct pbuf* q = pbuf_skip_const(p, offset, &q_idx);
 2488              		.loc 1 1320 0
 2489 0004 0DF10602 		add	r2, sp, #6
 2490 0008 FFF7FEFF 		bl	pbuf_skip_const
 2491              	.LVL340:
1321:Middlewares/Third_Party/LwIP/src/core/pbuf.c **** 
1322:Middlewares/Third_Party/LwIP/src/core/pbuf.c ****   /* return requested data if pbuf is OK */
1323:Middlewares/Third_Party/LwIP/src/core/pbuf.c ****   if ((q != NULL) && (q->len > q_idx)) {
 2492              		.loc 1 1323 0
 2493 000c 48B1     		cbz	r0, .L246
 2494              		.loc 1 1323 0 is_stmt 0 discriminator 1
 2495 000e 4189     		ldrh	r1, [r0, #10]
 2496 0010 BDF80620 		ldrh	r2, [sp, #6]
 2497 0014 9142     		cmp	r1, r2
 2498 0016 07D9     		bls	.L247
1324:Middlewares/Third_Party/LwIP/src/core/pbuf.c ****     return ((u8_t*)q->payload)[q_idx];
ARM GAS  C:\Users\Patryk\AppData\Local\Temp\ccybDtdu.s 			page 73


 2499              		.loc 1 1324 0 is_stmt 1
 2500 0018 4368     		ldr	r3, [r0, #4]
 2501 001a 985C     		ldrb	r0, [r3, r2]	@ zero_extendqisi2
 2502              	.LVL341:
 2503              	.L244:
1325:Middlewares/Third_Party/LwIP/src/core/pbuf.c ****   }
1326:Middlewares/Third_Party/LwIP/src/core/pbuf.c ****   return -1;
1327:Middlewares/Third_Party/LwIP/src/core/pbuf.c **** }
 2504              		.loc 1 1327 0
 2505 001c 03B0     		add	sp, sp, #12
 2506              	.LCFI26:
 2507              		.cfi_remember_state
 2508              		.cfi_def_cfa_offset 4
 2509              		@ sp needed
 2510 001e 5DF804FB 		ldr	pc, [sp], #4
 2511              	.LVL342:
 2512              	.L246:
 2513              	.LCFI27:
 2514              		.cfi_restore_state
1326:Middlewares/Third_Party/LwIP/src/core/pbuf.c **** }
 2515              		.loc 1 1326 0
 2516 0022 4FF0FF30 		mov	r0, #-1
 2517              	.LVL343:
 2518 0026 F9E7     		b	.L244
 2519              	.LVL344:
 2520              	.L247:
 2521 0028 4FF0FF30 		mov	r0, #-1
 2522              	.LVL345:
 2523 002c F6E7     		b	.L244
 2524              		.cfi_endproc
 2525              	.LFE182:
 2527              		.section	.text.pbuf_get_at,"ax",%progbits
 2528              		.align	1
 2529              		.global	pbuf_get_at
 2530              		.syntax unified
 2531              		.thumb
 2532              		.thumb_func
 2533              		.fpu fpv5-sp-d16
 2535              	pbuf_get_at:
 2536              	.LFB181:
1300:Middlewares/Third_Party/LwIP/src/core/pbuf.c ****   int ret = pbuf_try_get_at(p, offset);
 2537              		.loc 1 1300 0
 2538              		.cfi_startproc
 2539              		@ args = 0, pretend = 0, frame = 0
 2540              		@ frame_needed = 0, uses_anonymous_args = 0
 2541              	.LVL346:
 2542 0000 08B5     		push	{r3, lr}
 2543              	.LCFI28:
 2544              		.cfi_def_cfa_offset 8
 2545              		.cfi_offset 3, -8
 2546              		.cfi_offset 14, -4
1301:Middlewares/Third_Party/LwIP/src/core/pbuf.c ****   if (ret >= 0) {
 2547              		.loc 1 1301 0
 2548 0002 FFF7FEFF 		bl	pbuf_try_get_at
 2549              	.LVL347:
1302:Middlewares/Third_Party/LwIP/src/core/pbuf.c ****     return (u8_t)ret;
 2550              		.loc 1 1302 0
ARM GAS  C:\Users\Patryk\AppData\Local\Temp\ccybDtdu.s 			page 74


 2551 0006 0028     		cmp	r0, #0
 2552 0008 01DB     		blt	.L251
1303:Middlewares/Third_Party/LwIP/src/core/pbuf.c ****   }
 2553              		.loc 1 1303 0
 2554 000a C0B2     		uxtb	r0, r0
 2555              	.LVL348:
 2556              	.L250:
1306:Middlewares/Third_Party/LwIP/src/core/pbuf.c **** 
 2557              		.loc 1 1306 0
 2558 000c 08BD     		pop	{r3, pc}
 2559              	.LVL349:
 2560              	.L251:
1305:Middlewares/Third_Party/LwIP/src/core/pbuf.c **** }
 2561              		.loc 1 1305 0
 2562 000e 0020     		movs	r0, #0
 2563              	.LVL350:
 2564 0010 FCE7     		b	.L250
 2565              		.cfi_endproc
 2566              	.LFE181:
 2568              		.section	.text.pbuf_put_at,"ax",%progbits
 2569              		.align	1
 2570              		.global	pbuf_put_at
 2571              		.syntax unified
 2572              		.thumb
 2573              		.thumb_func
 2574              		.fpu fpv5-sp-d16
 2576              	pbuf_put_at:
 2577              	.LFB183:
1328:Middlewares/Third_Party/LwIP/src/core/pbuf.c **** 
1329:Middlewares/Third_Party/LwIP/src/core/pbuf.c **** /**
1330:Middlewares/Third_Party/LwIP/src/core/pbuf.c ****  * @ingroup pbuf
1331:Middlewares/Third_Party/LwIP/src/core/pbuf.c ****  * Put one byte to the specified position in a pbuf
1332:Middlewares/Third_Party/LwIP/src/core/pbuf.c ****  * WARNING: silently ignores offset >= p->tot_len
1333:Middlewares/Third_Party/LwIP/src/core/pbuf.c ****  *
1334:Middlewares/Third_Party/LwIP/src/core/pbuf.c ****  * @param p pbuf to fill
1335:Middlewares/Third_Party/LwIP/src/core/pbuf.c ****  * @param offset offset into p of the byte to write
1336:Middlewares/Third_Party/LwIP/src/core/pbuf.c ****  * @param data byte to write at an offset into p
1337:Middlewares/Third_Party/LwIP/src/core/pbuf.c ****  */
1338:Middlewares/Third_Party/LwIP/src/core/pbuf.c **** void
1339:Middlewares/Third_Party/LwIP/src/core/pbuf.c **** pbuf_put_at(struct pbuf* p, u16_t offset, u8_t data)
1340:Middlewares/Third_Party/LwIP/src/core/pbuf.c **** {
 2578              		.loc 1 1340 0
 2579              		.cfi_startproc
 2580              		@ args = 0, pretend = 0, frame = 8
 2581              		@ frame_needed = 0, uses_anonymous_args = 0
 2582              	.LVL351:
 2583 0000 10B5     		push	{r4, lr}
 2584              	.LCFI29:
 2585              		.cfi_def_cfa_offset 8
 2586              		.cfi_offset 4, -8
 2587              		.cfi_offset 14, -4
 2588 0002 82B0     		sub	sp, sp, #8
 2589              	.LCFI30:
 2590              		.cfi_def_cfa_offset 16
 2591 0004 1446     		mov	r4, r2
1341:Middlewares/Third_Party/LwIP/src/core/pbuf.c ****   u16_t q_idx;
1342:Middlewares/Third_Party/LwIP/src/core/pbuf.c ****   struct pbuf* q = pbuf_skip(p, offset, &q_idx);
ARM GAS  C:\Users\Patryk\AppData\Local\Temp\ccybDtdu.s 			page 75


 2592              		.loc 1 1342 0
 2593 0006 0DF10602 		add	r2, sp, #6
 2594              	.LVL352:
 2595 000a FFF7FEFF 		bl	pbuf_skip
 2596              	.LVL353:
1343:Middlewares/Third_Party/LwIP/src/core/pbuf.c **** 
1344:Middlewares/Third_Party/LwIP/src/core/pbuf.c ****   /* write requested data if pbuf is OK */
1345:Middlewares/Third_Party/LwIP/src/core/pbuf.c ****   if ((q != NULL) && (q->len > q_idx)) {
 2597              		.loc 1 1345 0
 2598 000e 30B1     		cbz	r0, .L253
 2599              		.loc 1 1345 0 is_stmt 0 discriminator 1
 2600 0010 4189     		ldrh	r1, [r0, #10]
 2601 0012 BDF80620 		ldrh	r2, [sp, #6]
 2602 0016 9142     		cmp	r1, r2
 2603 0018 01D9     		bls	.L253
1346:Middlewares/Third_Party/LwIP/src/core/pbuf.c ****     ((u8_t*)q->payload)[q_idx] = data;
 2604              		.loc 1 1346 0 is_stmt 1
 2605 001a 4368     		ldr	r3, [r0, #4]
 2606 001c 9C54     		strb	r4, [r3, r2]
 2607              	.L253:
1347:Middlewares/Third_Party/LwIP/src/core/pbuf.c ****   }
1348:Middlewares/Third_Party/LwIP/src/core/pbuf.c **** }
 2608              		.loc 1 1348 0
 2609 001e 02B0     		add	sp, sp, #8
 2610              	.LCFI31:
 2611              		.cfi_def_cfa_offset 8
 2612              		@ sp needed
 2613 0020 10BD     		pop	{r4, pc}
 2614              		.cfi_endproc
 2615              	.LFE183:
 2617              		.section	.text.pbuf_memcmp,"ax",%progbits
 2618              		.align	1
 2619              		.global	pbuf_memcmp
 2620              		.syntax unified
 2621              		.thumb
 2622              		.thumb_func
 2623              		.fpu fpv5-sp-d16
 2625              	pbuf_memcmp:
 2626              	.LFB184:
1349:Middlewares/Third_Party/LwIP/src/core/pbuf.c **** 
1350:Middlewares/Third_Party/LwIP/src/core/pbuf.c **** /**
1351:Middlewares/Third_Party/LwIP/src/core/pbuf.c ****  * @ingroup pbuf
1352:Middlewares/Third_Party/LwIP/src/core/pbuf.c ****  * Compare pbuf contents at specified offset with memory s2, both of length n
1353:Middlewares/Third_Party/LwIP/src/core/pbuf.c ****  *
1354:Middlewares/Third_Party/LwIP/src/core/pbuf.c ****  * @param p pbuf to compare
1355:Middlewares/Third_Party/LwIP/src/core/pbuf.c ****  * @param offset offset into p at which to start comparing
1356:Middlewares/Third_Party/LwIP/src/core/pbuf.c ****  * @param s2 buffer to compare
1357:Middlewares/Third_Party/LwIP/src/core/pbuf.c ****  * @param n length of buffer to compare
1358:Middlewares/Third_Party/LwIP/src/core/pbuf.c ****  * @return zero if equal, nonzero otherwise
1359:Middlewares/Third_Party/LwIP/src/core/pbuf.c ****  *         (0xffff if p is too short, diffoffset+1 otherwise)
1360:Middlewares/Third_Party/LwIP/src/core/pbuf.c ****  */
1361:Middlewares/Third_Party/LwIP/src/core/pbuf.c **** u16_t
1362:Middlewares/Third_Party/LwIP/src/core/pbuf.c **** pbuf_memcmp(const struct pbuf* p, u16_t offset, const void* s2, u16_t n)
1363:Middlewares/Third_Party/LwIP/src/core/pbuf.c **** {
 2627              		.loc 1 1363 0
 2628              		.cfi_startproc
 2629              		@ args = 0, pretend = 0, frame = 0
ARM GAS  C:\Users\Patryk\AppData\Local\Temp\ccybDtdu.s 			page 76


 2630              		@ frame_needed = 0, uses_anonymous_args = 0
 2631              	.LVL354:
 2632 0000 2DE9F041 		push	{r4, r5, r6, r7, r8, lr}
 2633              	.LCFI32:
 2634              		.cfi_def_cfa_offset 24
 2635              		.cfi_offset 4, -24
 2636              		.cfi_offset 5, -20
 2637              		.cfi_offset 6, -16
 2638              		.cfi_offset 7, -12
 2639              		.cfi_offset 8, -8
 2640              		.cfi_offset 14, -4
 2641 0004 0546     		mov	r5, r0
 2642 0006 0E46     		mov	r6, r1
 2643 0008 9046     		mov	r8, r2
 2644 000a 1F46     		mov	r7, r3
 2645              	.LVL355:
1364:Middlewares/Third_Party/LwIP/src/core/pbuf.c ****   u16_t start = offset;
1365:Middlewares/Third_Party/LwIP/src/core/pbuf.c ****   const struct pbuf* q = p;
1366:Middlewares/Third_Party/LwIP/src/core/pbuf.c ****   u16_t i;
1367:Middlewares/Third_Party/LwIP/src/core/pbuf.c ****  
1368:Middlewares/Third_Party/LwIP/src/core/pbuf.c ****   /* pbuf long enough to perform check? */
1369:Middlewares/Third_Party/LwIP/src/core/pbuf.c ****   if(p->tot_len < (offset + n)) {
 2646              		.loc 1 1369 0
 2647 000c 0289     		ldrh	r2, [r0, #8]
 2648              	.LVL356:
 2649 000e CB18     		adds	r3, r1, r3
 2650              	.LVL357:
 2651 0010 9A42     		cmp	r2, r3
 2652 0012 05DA     		bge	.L258
1370:Middlewares/Third_Party/LwIP/src/core/pbuf.c ****     return 0xffff;
 2653              		.loc 1 1370 0
 2654 0014 4FF6FF70 		movw	r0, #65535
 2655              	.LVL358:
 2656 0018 1BE0     		b	.L257
 2657              	.LVL359:
 2658              	.L260:
1371:Middlewares/Third_Party/LwIP/src/core/pbuf.c ****   }
1372:Middlewares/Third_Party/LwIP/src/core/pbuf.c ****  
1373:Middlewares/Third_Party/LwIP/src/core/pbuf.c ****   /* get the correct pbuf from chain. We know it succeeds because of p->tot_len check above. */
1374:Middlewares/Third_Party/LwIP/src/core/pbuf.c ****   while ((q != NULL) && (q->len <= start)) {
1375:Middlewares/Third_Party/LwIP/src/core/pbuf.c ****     start -= q->len;
 2659              		.loc 1 1375 0
 2660 001a 711A     		subs	r1, r6, r1
 2661 001c 8EB2     		uxth	r6, r1
 2662              	.LVL360:
1376:Middlewares/Third_Party/LwIP/src/core/pbuf.c ****     q = q->next;
 2663              		.loc 1 1376 0
 2664 001e 2D68     		ldr	r5, [r5]
 2665              	.LVL361:
 2666              	.L258:
1374:Middlewares/Third_Party/LwIP/src/core/pbuf.c ****     start -= q->len;
 2667              		.loc 1 1374 0
 2668 0020 3DB1     		cbz	r5, .L265
1374:Middlewares/Third_Party/LwIP/src/core/pbuf.c ****     start -= q->len;
 2669              		.loc 1 1374 0 is_stmt 0 discriminator 1
 2670 0022 6989     		ldrh	r1, [r5, #10]
 2671 0024 B142     		cmp	r1, r6
ARM GAS  C:\Users\Patryk\AppData\Local\Temp\ccybDtdu.s 			page 77


 2672 0026 F8D9     		bls	.L260
 2673 0028 0024     		movs	r4, #0
 2674 002a 03E0     		b	.L262
 2675              	.LVL362:
 2676              	.L268:
 2677              	.LBB12:
1377:Middlewares/Third_Party/LwIP/src/core/pbuf.c ****   }
1378:Middlewares/Third_Party/LwIP/src/core/pbuf.c ****  
1379:Middlewares/Third_Party/LwIP/src/core/pbuf.c ****   /* return requested data if pbuf is OK */
1380:Middlewares/Third_Party/LwIP/src/core/pbuf.c ****   for (i = 0; i < n; i++) {
1381:Middlewares/Third_Party/LwIP/src/core/pbuf.c ****     /* We know pbuf_get_at() succeeds because of p->tot_len check above. */
1382:Middlewares/Third_Party/LwIP/src/core/pbuf.c ****     u8_t a = pbuf_get_at(q, start + i);
1383:Middlewares/Third_Party/LwIP/src/core/pbuf.c ****     u8_t b = ((const u8_t*)s2)[i];
1384:Middlewares/Third_Party/LwIP/src/core/pbuf.c ****     if (a != b) {
1385:Middlewares/Third_Party/LwIP/src/core/pbuf.c ****       return i+1;
 2678              		.loc 1 1385 0 is_stmt 1
 2679 002c 601C     		adds	r0, r4, #1
 2680              	.LVL363:
 2681 002e 80B2     		uxth	r0, r0
 2682 0030 0FE0     		b	.L257
 2683              	.LVL364:
 2684              	.L265:
 2685              	.LBE12:
 2686 0032 0024     		movs	r4, #0
 2687              	.LVL365:
 2688              	.L262:
1380:Middlewares/Third_Party/LwIP/src/core/pbuf.c ****     /* We know pbuf_get_at() succeeds because of p->tot_len check above. */
 2689              		.loc 1 1380 0 discriminator 1
 2690 0034 BC42     		cmp	r4, r7
 2691 0036 0BD2     		bcs	.L267
 2692              	.LBB13:
1382:Middlewares/Third_Party/LwIP/src/core/pbuf.c ****     u8_t b = ((const u8_t*)s2)[i];
 2693              		.loc 1 1382 0
 2694 0038 3119     		adds	r1, r6, r4
 2695 003a 89B2     		uxth	r1, r1
 2696 003c 2846     		mov	r0, r5
 2697 003e FFF7FEFF 		bl	pbuf_get_at
 2698              	.LVL366:
1383:Middlewares/Third_Party/LwIP/src/core/pbuf.c ****     if (a != b) {
 2699              		.loc 1 1383 0
 2700 0042 18F80430 		ldrb	r3, [r8, r4]	@ zero_extendqisi2
 2701              	.LVL367:
1384:Middlewares/Third_Party/LwIP/src/core/pbuf.c ****       return i+1;
 2702              		.loc 1 1384 0
 2703 0046 9842     		cmp	r0, r3
 2704 0048 F0D1     		bne	.L268
 2705              	.LBE13:
1380:Middlewares/Third_Party/LwIP/src/core/pbuf.c ****     /* We know pbuf_get_at() succeeds because of p->tot_len check above. */
 2706              		.loc 1 1380 0 discriminator 2
 2707 004a 0134     		adds	r4, r4, #1
 2708              	.LVL368:
 2709 004c A4B2     		uxth	r4, r4
 2710              	.LVL369:
 2711 004e F1E7     		b	.L262
 2712              	.LVL370:
 2713              	.L267:
1386:Middlewares/Third_Party/LwIP/src/core/pbuf.c ****     }
ARM GAS  C:\Users\Patryk\AppData\Local\Temp\ccybDtdu.s 			page 78


1387:Middlewares/Third_Party/LwIP/src/core/pbuf.c ****   }
1388:Middlewares/Third_Party/LwIP/src/core/pbuf.c ****   return 0;
 2714              		.loc 1 1388 0
 2715 0050 0020     		movs	r0, #0
 2716              	.LVL371:
 2717              	.L257:
1389:Middlewares/Third_Party/LwIP/src/core/pbuf.c **** }
 2718              		.loc 1 1389 0
 2719 0052 BDE8F081 		pop	{r4, r5, r6, r7, r8, pc}
 2720              		.cfi_endproc
 2721              	.LFE184:
 2723              		.section	.text.pbuf_memfind,"ax",%progbits
 2724              		.align	1
 2725              		.global	pbuf_memfind
 2726              		.syntax unified
 2727              		.thumb
 2728              		.thumb_func
 2729              		.fpu fpv5-sp-d16
 2731              	pbuf_memfind:
 2732              	.LFB185:
1390:Middlewares/Third_Party/LwIP/src/core/pbuf.c **** 
1391:Middlewares/Third_Party/LwIP/src/core/pbuf.c **** /**
1392:Middlewares/Third_Party/LwIP/src/core/pbuf.c ****  * @ingroup pbuf
1393:Middlewares/Third_Party/LwIP/src/core/pbuf.c ****  * Find occurrence of mem (with length mem_len) in pbuf p, starting at offset
1394:Middlewares/Third_Party/LwIP/src/core/pbuf.c ****  * start_offset.
1395:Middlewares/Third_Party/LwIP/src/core/pbuf.c ****  *
1396:Middlewares/Third_Party/LwIP/src/core/pbuf.c ****  * @param p pbuf to search, maximum length is 0xFFFE since 0xFFFF is used as
1397:Middlewares/Third_Party/LwIP/src/core/pbuf.c ****  *        return value 'not found'
1398:Middlewares/Third_Party/LwIP/src/core/pbuf.c ****  * @param mem search for the contents of this buffer
1399:Middlewares/Third_Party/LwIP/src/core/pbuf.c ****  * @param mem_len length of 'mem'
1400:Middlewares/Third_Party/LwIP/src/core/pbuf.c ****  * @param start_offset offset into p at which to start searching
1401:Middlewares/Third_Party/LwIP/src/core/pbuf.c ****  * @return 0xFFFF if substr was not found in p or the index where it was found
1402:Middlewares/Third_Party/LwIP/src/core/pbuf.c ****  */
1403:Middlewares/Third_Party/LwIP/src/core/pbuf.c **** u16_t
1404:Middlewares/Third_Party/LwIP/src/core/pbuf.c **** pbuf_memfind(const struct pbuf* p, const void* mem, u16_t mem_len, u16_t start_offset)
1405:Middlewares/Third_Party/LwIP/src/core/pbuf.c **** {
 2733              		.loc 1 1405 0
 2734              		.cfi_startproc
 2735              		@ args = 0, pretend = 0, frame = 0
 2736              		@ frame_needed = 0, uses_anonymous_args = 0
 2737              	.LVL372:
 2738 0000 2DE9F041 		push	{r4, r5, r6, r7, r8, lr}
 2739              	.LCFI33:
 2740              		.cfi_def_cfa_offset 24
 2741              		.cfi_offset 4, -24
 2742              		.cfi_offset 5, -20
 2743              		.cfi_offset 6, -16
 2744              		.cfi_offset 7, -12
 2745              		.cfi_offset 8, -8
 2746              		.cfi_offset 14, -4
 2747 0004 0746     		mov	r7, r0
 2748 0006 8846     		mov	r8, r1
 2749 0008 1646     		mov	r6, r2
 2750 000a 1C46     		mov	r4, r3
1406:Middlewares/Third_Party/LwIP/src/core/pbuf.c ****   u16_t i;
1407:Middlewares/Third_Party/LwIP/src/core/pbuf.c ****   u16_t max = p->tot_len - mem_len;
 2751              		.loc 1 1407 0
ARM GAS  C:\Users\Patryk\AppData\Local\Temp\ccybDtdu.s 			page 79


 2752 000c 0389     		ldrh	r3, [r0, #8]
 2753              	.LVL373:
 2754 000e 9D1A     		subs	r5, r3, r2
 2755 0010 ADB2     		uxth	r5, r5
 2756              	.LVL374:
1408:Middlewares/Third_Party/LwIP/src/core/pbuf.c ****   if (p->tot_len >= mem_len + start_offset) {
 2757              		.loc 1 1408 0
 2758 0012 2244     		add	r2, r2, r4
 2759              	.LVL375:
 2760 0014 9342     		cmp	r3, r2
 2761 0016 0BDB     		blt	.L275
 2762              	.LVL376:
 2763              	.L270:
1409:Middlewares/Third_Party/LwIP/src/core/pbuf.c ****     for (i = start_offset; i <= max; i++) {
 2764              		.loc 1 1409 0 discriminator 1
 2765 0018 AC42     		cmp	r4, r5
 2766 001a 0CD8     		bhi	.L276
 2767              	.LBB14:
1410:Middlewares/Third_Party/LwIP/src/core/pbuf.c ****       u16_t plus = pbuf_memcmp(p, i, mem, mem_len);
 2768              		.loc 1 1410 0
 2769 001c 3346     		mov	r3, r6
 2770 001e 4246     		mov	r2, r8
 2771 0020 2146     		mov	r1, r4
 2772 0022 3846     		mov	r0, r7
 2773 0024 FFF7FEFF 		bl	pbuf_memcmp
 2774              	.LVL377:
1411:Middlewares/Third_Party/LwIP/src/core/pbuf.c ****       if (plus == 0) {
 2775              		.loc 1 1411 0
 2776 0028 48B1     		cbz	r0, .L273
 2777              	.LBE14:
1409:Middlewares/Third_Party/LwIP/src/core/pbuf.c ****     for (i = start_offset; i <= max; i++) {
 2778              		.loc 1 1409 0 discriminator 2
 2779 002a 0134     		adds	r4, r4, #1
 2780              	.LVL378:
 2781 002c A4B2     		uxth	r4, r4
 2782              	.LVL379:
 2783 002e F3E7     		b	.L270
 2784              	.LVL380:
 2785              	.L275:
1412:Middlewares/Third_Party/LwIP/src/core/pbuf.c ****         return i;
1413:Middlewares/Third_Party/LwIP/src/core/pbuf.c ****       }
1414:Middlewares/Third_Party/LwIP/src/core/pbuf.c ****     }
1415:Middlewares/Third_Party/LwIP/src/core/pbuf.c ****   }
1416:Middlewares/Third_Party/LwIP/src/core/pbuf.c ****   return 0xFFFF;
 2786              		.loc 1 1416 0
 2787 0030 4FF6FF70 		movw	r0, #65535
 2788              	.LVL381:
 2789 0034 01E0     		b	.L271
 2790              	.LVL382:
 2791              	.L276:
 2792 0036 4FF6FF70 		movw	r0, #65535
 2793              	.LVL383:
 2794              	.L271:
1417:Middlewares/Third_Party/LwIP/src/core/pbuf.c **** }
 2795              		.loc 1 1417 0
 2796 003a BDE8F081 		pop	{r4, r5, r6, r7, r8, pc}
 2797              	.LVL384:
ARM GAS  C:\Users\Patryk\AppData\Local\Temp\ccybDtdu.s 			page 80


 2798              	.L273:
 2799              	.LBB15:
1412:Middlewares/Third_Party/LwIP/src/core/pbuf.c ****         return i;
 2800              		.loc 1 1412 0
 2801 003e 2046     		mov	r0, r4
 2802              	.LVL385:
 2803 0040 FBE7     		b	.L271
 2804              	.LBE15:
 2805              		.cfi_endproc
 2806              	.LFE185:
 2808              		.section	.text.pbuf_strstr,"ax",%progbits
 2809              		.align	1
 2810              		.global	pbuf_strstr
 2811              		.syntax unified
 2812              		.thumb
 2813              		.thumb_func
 2814              		.fpu fpv5-sp-d16
 2816              	pbuf_strstr:
 2817              	.LFB186:
1418:Middlewares/Third_Party/LwIP/src/core/pbuf.c **** 
1419:Middlewares/Third_Party/LwIP/src/core/pbuf.c **** /**
1420:Middlewares/Third_Party/LwIP/src/core/pbuf.c ****  * Find occurrence of substr with length substr_len in pbuf p, start at offset
1421:Middlewares/Third_Party/LwIP/src/core/pbuf.c ****  * start_offset
1422:Middlewares/Third_Party/LwIP/src/core/pbuf.c ****  * WARNING: in contrast to strstr(), this one does not stop at the first \0 in
1423:Middlewares/Third_Party/LwIP/src/core/pbuf.c ****  * the pbuf/source string!
1424:Middlewares/Third_Party/LwIP/src/core/pbuf.c ****  *
1425:Middlewares/Third_Party/LwIP/src/core/pbuf.c ****  * @param p pbuf to search, maximum length is 0xFFFE since 0xFFFF is used as
1426:Middlewares/Third_Party/LwIP/src/core/pbuf.c ****  *        return value 'not found'
1427:Middlewares/Third_Party/LwIP/src/core/pbuf.c ****  * @param substr string to search for in p, maximum length is 0xFFFE
1428:Middlewares/Third_Party/LwIP/src/core/pbuf.c ****  * @return 0xFFFF if substr was not found in p or the index where it was found
1429:Middlewares/Third_Party/LwIP/src/core/pbuf.c ****  */
1430:Middlewares/Third_Party/LwIP/src/core/pbuf.c **** u16_t
1431:Middlewares/Third_Party/LwIP/src/core/pbuf.c **** pbuf_strstr(const struct pbuf* p, const char* substr)
1432:Middlewares/Third_Party/LwIP/src/core/pbuf.c **** {
 2818              		.loc 1 1432 0
 2819              		.cfi_startproc
 2820              		@ args = 0, pretend = 0, frame = 0
 2821              		@ frame_needed = 0, uses_anonymous_args = 0
 2822              	.LVL386:
1433:Middlewares/Third_Party/LwIP/src/core/pbuf.c ****   size_t substr_len;
1434:Middlewares/Third_Party/LwIP/src/core/pbuf.c ****   if ((substr == NULL) || (substr[0] == 0) || (p->tot_len == 0xFFFF)) {
 2823              		.loc 1 1434 0
 2824 0000 B9B1     		cbz	r1, .L279
1432:Middlewares/Third_Party/LwIP/src/core/pbuf.c ****   size_t substr_len;
 2825              		.loc 1 1432 0 discriminator 1
 2826 0002 38B5     		push	{r3, r4, r5, lr}
 2827              	.LCFI34:
 2828              		.cfi_def_cfa_offset 16
 2829              		.cfi_offset 3, -16
 2830              		.cfi_offset 4, -12
 2831              		.cfi_offset 5, -8
 2832              		.cfi_offset 14, -4
 2833 0004 0C46     		mov	r4, r1
 2834              		.loc 1 1434 0 discriminator 1
 2835 0006 0A78     		ldrb	r2, [r1]	@ zero_extendqisi2
 2836 0008 B2B1     		cbz	r2, .L280
 2837              		.loc 1 1434 0 is_stmt 0 discriminator 2
ARM GAS  C:\Users\Patryk\AppData\Local\Temp\ccybDtdu.s 			page 81


 2838 000a 0189     		ldrh	r1, [r0, #8]
 2839              	.LVL387:
 2840 000c 4FF6FF72 		movw	r2, #65535
 2841 0010 9142     		cmp	r1, r2
 2842 0012 14D0     		beq	.L281
 2843 0014 0546     		mov	r5, r0
1435:Middlewares/Third_Party/LwIP/src/core/pbuf.c ****     return 0xFFFF;
1436:Middlewares/Third_Party/LwIP/src/core/pbuf.c ****   }
1437:Middlewares/Third_Party/LwIP/src/core/pbuf.c ****   substr_len = strlen(substr);
 2844              		.loc 1 1437 0 is_stmt 1
 2845 0016 2046     		mov	r0, r4
 2846              	.LVL388:
 2847 0018 FFF7FEFF 		bl	strlen
 2848              	.LVL389:
1438:Middlewares/Third_Party/LwIP/src/core/pbuf.c ****   if (substr_len >= 0xFFFF) {
 2849              		.loc 1 1438 0
 2850 001c 4FF6FE73 		movw	r3, #65534
 2851 0020 9842     		cmp	r0, r3
 2852 0022 0FD8     		bhi	.L282
1439:Middlewares/Third_Party/LwIP/src/core/pbuf.c ****     return 0xFFFF;
1440:Middlewares/Third_Party/LwIP/src/core/pbuf.c ****   }
1441:Middlewares/Third_Party/LwIP/src/core/pbuf.c ****   return pbuf_memfind(p, substr, (u16_t)substr_len, 0);
 2853              		.loc 1 1441 0
 2854 0024 0023     		movs	r3, #0
 2855 0026 82B2     		uxth	r2, r0
 2856 0028 2146     		mov	r1, r4
 2857 002a 2846     		mov	r0, r5
 2858              	.LVL390:
 2859 002c FFF7FEFF 		bl	pbuf_memfind
 2860              	.LVL391:
 2861 0030 04E0     		b	.L278
 2862              	.LVL392:
 2863              	.L279:
 2864              	.LCFI35:
 2865              		.cfi_def_cfa_offset 0
 2866              		.cfi_restore 3
 2867              		.cfi_restore 4
 2868              		.cfi_restore 5
 2869              		.cfi_restore 14
1435:Middlewares/Third_Party/LwIP/src/core/pbuf.c ****   }
 2870              		.loc 1 1435 0
 2871 0032 4FF6FF70 		movw	r0, #65535
 2872              	.LVL393:
1442:Middlewares/Third_Party/LwIP/src/core/pbuf.c **** }
 2873              		.loc 1 1442 0
 2874 0036 7047     		bx	lr
 2875              	.LVL394:
 2876              	.L280:
 2877              	.LCFI36:
 2878              		.cfi_def_cfa_offset 16
 2879              		.cfi_offset 3, -16
 2880              		.cfi_offset 4, -12
 2881              		.cfi_offset 5, -8
 2882              		.cfi_offset 14, -4
1435:Middlewares/Third_Party/LwIP/src/core/pbuf.c ****   }
 2883              		.loc 1 1435 0
 2884 0038 4FF6FF70 		movw	r0, #65535
ARM GAS  C:\Users\Patryk\AppData\Local\Temp\ccybDtdu.s 			page 82


 2885              	.LVL395:
 2886              	.L278:
 2887              		.loc 1 1442 0
 2888 003c 38BD     		pop	{r3, r4, r5, pc}
 2889              	.LVL396:
 2890              	.L281:
1435:Middlewares/Third_Party/LwIP/src/core/pbuf.c ****   }
 2891              		.loc 1 1435 0
 2892 003e 4FF6FF70 		movw	r0, #65535
 2893              	.LVL397:
 2894 0042 FBE7     		b	.L278
 2895              	.LVL398:
 2896              	.L282:
1439:Middlewares/Third_Party/LwIP/src/core/pbuf.c ****     return 0xFFFF;
 2897              		.loc 1 1439 0
 2898 0044 4FF6FF70 		movw	r0, #65535
 2899              	.LVL399:
 2900 0048 F8E7     		b	.L278
 2901              		.cfi_endproc
 2902              	.LFE186:
 2904              		.comm	pbuf_free_ooseq_pending,1,1
 2905              		.section	.rodata.pbuf_alloc.str1.4,"aMS",%progbits,1
 2906              		.align	2
 2907              	.LC9:
 2908 0000 70627566 		.ascii	"pbuf_alloc: bad pbuf layer\000"
 2908      5F616C6C 
 2908      6F633A20 
 2908      62616420 
 2908      70627566 
 2909 001b 00       		.space	1
 2910              	.LC10:
 2911 001c 63686563 		.ascii	"check p->payload + p->len does not overflow pbuf\000"
 2911      6B20702D 
 2911      3E706179 
 2911      6C6F6164 
 2911      202B2070 
 2912 004d 000000   		.space	3
 2913              	.LC11:
 2914 0050 50425546 		.ascii	"PBUF_POOL_BUFSIZE must be bigger than MEM_ALIGNMENT"
 2914      5F504F4F 
 2914      4C5F4255 
 2914      4653495A 
 2914      45206D75 
 2915 0083 00       		.ascii	"\000"
 2916              	.LC12:
 2917 0084 72656D5F 		.ascii	"rem_len < max_u16_t\000"
 2917      6C656E20 
 2917      3C206D61 
 2917      785F7531 
 2917      365F7400 
 2918              	.LC13:
 2919 0098 70627566 		.ascii	"pbuf_alloc: pbuf q->payload properly aligned\000"
 2919      5F616C6C 
 2919      6F633A20 
 2919      70627566 
 2919      20712D3E 
 2920 00c5 000000   		.space	3
ARM GAS  C:\Users\Patryk\AppData\Local\Temp\ccybDtdu.s 			page 83


 2921              	.LC14:
 2922 00c8 70627566 		.ascii	"pbuf_alloc: erroneous type\000"
 2922      5F616C6C 
 2922      6F633A20 
 2922      6572726F 
 2922      6E656F75 
 2923              		.section	.rodata.pbuf_alloced_custom.str1.4,"aMS",%progbits,1
 2924              		.align	2
 2925              	.LC5:
 2926 0000 70627566 		.ascii	"pbuf_alloced_custom: bad pbuf layer\000"
 2926      5F616C6C 
 2926      6F636564 
 2926      5F637573 
 2926      746F6D3A 
 2927              		.section	.rodata.pbuf_cat.str1.4,"aMS",%progbits,1
 2928              		.align	2
 2929              	.LC21:
 2930 0000 28682021 		.ascii	"(h != NULL) && (t != NULL) (programmer violates API"
 2930      3D204E55 
 2930      4C4C2920 
 2930      26262028 
 2930      7420213D 
 2931 0033 2900     		.ascii	")\000"
 2932 0035 000000   		.space	3
 2933              	.LC22:
 2934 0038 702D3E74 		.ascii	"p->tot_len == p->len (of last pbuf in chain)\000"
 2934      6F745F6C 
 2934      656E203D 
 2934      3D20702D 
 2934      3E6C656E 
 2935 0065 000000   		.space	3
 2936              	.LC23:
 2937 0068 702D3E6E 		.ascii	"p->next == NULL\000"
 2937      65787420 
 2937      3D3D204E 
 2937      554C4C00 
 2938              		.section	.rodata.pbuf_coalesce.str1.4,"aMS",%progbits,1
 2939              		.align	2
 2940              	.LC38:
 2941 0000 70627566 		.ascii	"pbuf_copy failed\000"
 2941      5F636F70 
 2941      79206661 
 2941      696C6564 
 2941      00
 2942              		.section	.rodata.pbuf_copy.str1.4,"aMS",%progbits,1
 2943              		.align	2
 2944              	.LC26:
 2945 0000 70627566 		.ascii	"pbuf_copy: target not big enough to hold source\000"
 2945      5F636F70 
 2945      793A2074 
 2945      61726765 
 2945      74206E6F 
 2946              	.LC27:
 2947 0030 6F666673 		.ascii	"offset_to <= p_to->len\000"
 2947      65745F74 
 2947      6F203C3D 
 2947      20705F74 
ARM GAS  C:\Users\Patryk\AppData\Local\Temp\ccybDtdu.s 			page 84


 2947      6F2D3E6C 
 2948 0047 00       		.space	1
 2949              	.LC28:
 2950 0048 6F666673 		.ascii	"offset_from <= p_from->len\000"
 2950      65745F66 
 2950      726F6D20 
 2950      3C3D2070 
 2950      5F66726F 
 2951 0063 00       		.space	1
 2952              	.LC29:
 2953 0064 705F746F 		.ascii	"p_to != NULL\000"
 2953      20213D20 
 2953      4E554C4C 
 2953      00
 2954 0071 000000   		.space	3
 2955              	.LC30:
 2956 0074 70627566 		.ascii	"pbuf_copy() does not allow packet queues!\000"
 2956      5F636F70 
 2956      79282920 
 2956      646F6573 
 2956      206E6F74 
 2957              		.section	.rodata.pbuf_copy_partial.str1.4,"aMS",%progbits,1
 2958              		.align	2
 2959              	.LC31:
 2960 0000 70627566 		.ascii	"pbuf_copy_partial: invalid buf\000"
 2960      5F636F70 
 2960      795F7061 
 2960      72746961 
 2960      6C3A2069 
 2961 001f 00       		.space	1
 2962              	.LC32:
 2963 0020 70627566 		.ascii	"pbuf_copy_partial: invalid dataptr\000"
 2963      5F636F70 
 2963      795F7061 
 2963      72746961 
 2963      6C3A2069 
 2964              		.section	.rodata.pbuf_dechain.str1.4,"aMS",%progbits,1
 2965              		.align	2
 2966              	.LC24:
 2967 0000 702D3E74 		.ascii	"p->tot_len == p->len + q->tot_len\000"
 2967      6F745F6C 
 2967      656E203D 
 2967      3D20702D 
 2967      3E6C656E 
 2968 0022 0000     		.space	2
 2969              	.LC25:
 2970 0024 702D3E74 		.ascii	"p->tot_len == p->len\000"
 2970      6F745F6C 
 2970      656E203D 
 2970      3D20702D 
 2970      3E6C656E 
 2971              		.section	.rodata.pbuf_free.str1.4,"aMS",%progbits,1
 2972              		.align	2
 2973              	.LC6:
 2974 0000 70627566 		.ascii	"pbuf_free: sane type\000"
 2974      5F667265 
 2974      653A2073 
ARM GAS  C:\Users\Patryk\AppData\Local\Temp\ccybDtdu.s 			page 85


 2974      616E6520 
 2974      74797065 
 2975 0015 000000   		.space	3
 2976              	.LC7:
 2977 0018 70627566 		.ascii	"pbuf_free: p->ref > 0\000"
 2977      5F667265 
 2977      653A2070 
 2977      2D3E7265 
 2977      66203E20 
 2978 002e 0000     		.space	2
 2979              	.LC8:
 2980 0030 70632D3E 		.ascii	"pc->custom_free_function != NULL\000"
 2980      63757374 
 2980      6F6D5F66 
 2980      7265655F 
 2980      66756E63 
 2981              		.section	.rodata.pbuf_header_impl.str1.4,"aMS",%progbits,1
 2982              		.align	2
 2983              	.LC0:
 2984 0000 4D696464 		.ascii	"Middlewares/Third_Party/LwIP/src/core/pbuf.c\000"
 2984      6C657761 
 2984      7265732F 
 2984      54686972 
 2984      645F5061 
 2985 002d 000000   		.space	3
 2986              	.LC1:
 2987 0030 7020213D 		.ascii	"p != NULL\000"
 2987      204E554C 
 2987      4C00
 2988 003a 0000     		.space	2
 2989              	.LC2:
 2990 003c 41737365 		.ascii	"Assertion \"%s\" failed at line %d in %s\012\000"
 2990      7274696F 
 2990      6E202225 
 2990      73222066 
 2990      61696C65 
 2991              	.LC3:
 2992 0064 696E6372 		.ascii	"increment_magnitude <= p->len\000"
 2992      656D656E 
 2992      745F6D61 
 2992      676E6974 
 2992      75646520 
 2993 0082 0000     		.space	2
 2994              	.LC4:
 2995 0084 62616420 		.ascii	"bad pbuf type\000"
 2995      70627566 
 2995      20747970 
 2995      6500
 2996              		.section	.rodata.pbuf_realloc.str1.4,"aMS",%progbits,1
 2997              		.align	2
 2998              	.LC15:
 2999 0000 70627566 		.ascii	"pbuf_realloc: p != NULL\000"
 2999      5F726561 
 2999      6C6C6F63 
 2999      3A207020 
 2999      213D204E 
 3000              	.LC16:
ARM GAS  C:\Users\Patryk\AppData\Local\Temp\ccybDtdu.s 			page 86


 3001 0018 70627566 		.ascii	"pbuf_realloc: sane p->type\000"
 3001      5F726561 
 3001      6C6C6F63 
 3001      3A207361 
 3001      6E652070 
 3002 0033 00       		.space	1
 3003              	.LC17:
 3004 0034 67726F77 		.ascii	"grow < max_u16_t\000"
 3004      203C206D 
 3004      61785F75 
 3004      31365F74 
 3004      00
 3005 0045 000000   		.space	3
 3006              	.LC18:
 3007 0048 70627566 		.ascii	"pbuf_realloc: q != NULL\000"
 3007      5F726561 
 3007      6C6C6F63 
 3007      3A207120 
 3007      213D204E 
 3008              	.LC19:
 3009 0060 6D656D5F 		.ascii	"mem_trim returned q == NULL\000"
 3009      7472696D 
 3009      20726574 
 3009      75726E65 
 3009      64207120 
 3010              		.section	.rodata.pbuf_ref.str1.4,"aMS",%progbits,1
 3011              		.align	2
 3012              	.LC20:
 3013 0000 70627566 		.ascii	"pbuf ref overflow\000"
 3013      20726566 
 3013      206F7665 
 3013      72666C6F 
 3013      7700
 3014              		.section	.rodata.pbuf_take.str1.4,"aMS",%progbits,1
 3015              		.align	2
 3016              	.LC33:
 3017 0000 70627566 		.ascii	"pbuf_take: invalid buf\000"
 3017      5F74616B 
 3017      653A2069 
 3017      6E76616C 
 3017      69642062 
 3018 0017 00       		.space	1
 3019              	.LC34:
 3020 0018 70627566 		.ascii	"pbuf_take: invalid dataptr\000"
 3020      5F74616B 
 3020      653A2069 
 3020      6E76616C 
 3020      69642064 
 3021 0033 00       		.space	1
 3022              	.LC35:
 3023 0034 70627566 		.ascii	"pbuf_take: buf not large enough\000"
 3023      5F74616B 
 3023      653A2062 
 3023      7566206E 
 3023      6F74206C 
 3024              	.LC36:
 3025 0054 70627566 		.ascii	"pbuf_take: invalid pbuf\000"
ARM GAS  C:\Users\Patryk\AppData\Local\Temp\ccybDtdu.s 			page 87


 3025      5F74616B 
 3025      653A2069 
 3025      6E76616C 
 3025      69642070 
 3026              	.LC37:
 3027 006c 64696420 		.ascii	"did not copy all data\000"
 3027      6E6F7420 
 3027      636F7079 
 3027      20616C6C 
 3027      20646174 
 3028              		.text
 3029              	.Letext0:
 3030              		.file 2 "c:\\program files (x86)\\gnu\\7_2018-q2-update\\arm-none-eabi\\include\\machine\\_default
 3031              		.file 3 "c:\\program files (x86)\\gnu\\7_2018-q2-update\\arm-none-eabi\\include\\sys\\_stdint.h"
 3032              		.file 4 "Drivers/CMSIS/Include/core_cm7.h"
 3033              		.file 5 "Drivers/CMSIS/Device/ST/STM32F7xx/Include/system_stm32f7xx.h"
 3034              		.file 6 "c:\\program files (x86)\\gnu\\7_2018-q2-update\\lib\\gcc\\arm-none-eabi\\7.3.1\\include\\
 3035              		.file 7 "c:\\program files (x86)\\gnu\\7_2018-q2-update\\arm-none-eabi\\include\\sys\\lock.h"
 3036              		.file 8 "c:\\program files (x86)\\gnu\\7_2018-q2-update\\arm-none-eabi\\include\\sys\\_types.h"
 3037              		.file 9 "c:\\program files (x86)\\gnu\\7_2018-q2-update\\arm-none-eabi\\include\\sys\\reent.h"
 3038              		.file 10 "c:\\program files (x86)\\gnu\\7_2018-q2-update\\arm-none-eabi\\include\\stdlib.h"
 3039              		.file 11 "Middlewares/Third_Party/LwIP/system/arch/cc.h"
 3040              		.file 12 "c:\\program files (x86)\\gnu\\7_2018-q2-update\\arm-none-eabi\\include\\time.h"
 3041              		.file 13 "Middlewares/Third_Party/LwIP/src/include/lwip/arch.h"
 3042              		.file 14 "Middlewares/Third_Party/LwIP/src/include/lwip/mem.h"
 3043              		.file 15 "Middlewares/Third_Party/LwIP/src/include/lwip/priv/memp_priv.h"
 3044              		.file 16 "Middlewares/Third_Party/LwIP/src/include/lwip/memp.h"
 3045              		.file 17 "Middlewares/Third_Party/LwIP/src/include/lwip/err.h"
 3046              		.file 18 "Middlewares/Third_Party/LwIP/src/include/lwip/pbuf.h"
 3047              		.file 19 "Middlewares/Third_Party/FreeRTOS/Source/include/queue.h"
 3048              		.file 20 "Middlewares/Third_Party/FreeRTOS/Source/include/semphr.h"
 3049              		.file 21 "Middlewares/Third_Party/FreeRTOS/Source/CMSIS_RTOS/cmsis_os.h"
 3050              		.file 22 "Middlewares/Third_Party/LwIP/system/arch/sys_arch.h"
 3051              		.file 23 "Middlewares/Third_Party/LwIP/src/include/lwip/ip4_addr.h"
 3052              		.file 24 "Middlewares/Third_Party/LwIP/src/include/lwip/ip_addr.h"
 3053              		.file 25 "Middlewares/Third_Party/LwIP/src/include/lwip/netif.h"
 3054              		.file 26 "Middlewares/Third_Party/LwIP/src/include/lwip/prot/ip4.h"
 3055              		.file 27 "Middlewares/Third_Party/LwIP/src/include/lwip/ip.h"
 3056              		.file 28 "Middlewares/Third_Party/LwIP/src/include/lwip/tcp.h"
 3057              		.file 29 "Middlewares/Third_Party/LwIP/src/include/lwip/priv/tcp_priv.h"
 3058              		.file 30 "Middlewares/Third_Party/LwIP/src/include/lwip/prot/tcp.h"
 3059              		.file 31 "Middlewares/Third_Party/LwIP/src/include/lwip/timeouts.h"
 3060              		.file 32 "Middlewares/Third_Party/LwIP/src/include/lwip/tcpip.h"
 3061              		.file 33 "c:\\program files (x86)\\gnu\\7_2018-q2-update\\arm-none-eabi\\include\\string.h"
 3062              		.file 34 "c:\\program files (x86)\\gnu\\7_2018-q2-update\\arm-none-eabi\\include\\stdio.h"
 3063              		.file 35 "Middlewares/Third_Party/LwIP/src/include/lwip/sys.h"
 3064              		.file 36 "<built-in>"
ARM GAS  C:\Users\Patryk\AppData\Local\Temp\ccybDtdu.s 			page 88


DEFINED SYMBOLS
                            *ABS*:00000000 pbuf.c
C:\Users\Patryk\AppData\Local\Temp\ccybDtdu.s:18     .text.pbuf_skip_const:00000000 $t
C:\Users\Patryk\AppData\Local\Temp\ccybDtdu.s:24     .text.pbuf_skip_const:00000000 pbuf_skip_const
C:\Users\Patryk\AppData\Local\Temp\ccybDtdu.s:64     .text.pbuf_header_impl:00000000 $t
C:\Users\Patryk\AppData\Local\Temp\ccybDtdu.s:70     .text.pbuf_header_impl:00000000 pbuf_header_impl
C:\Users\Patryk\AppData\Local\Temp\ccybDtdu.s:249    .text.pbuf_header_impl:000000c8 $d
C:\Users\Patryk\AppData\Local\Temp\ccybDtdu.s:258    .text.pbuf_pool_is_empty:00000000 $t
C:\Users\Patryk\AppData\Local\Temp\ccybDtdu.s:264    .text.pbuf_pool_is_empty:00000000 pbuf_pool_is_empty
C:\Users\Patryk\AppData\Local\Temp\ccybDtdu.s:317    .text.pbuf_pool_is_empty:00000038 $d
                            *COM*:00000001 pbuf_free_ooseq_pending
C:\Users\Patryk\AppData\Local\Temp\ccybDtdu.s:390    .text.pbuf_free_ooseq_callback:00000000 pbuf_free_ooseq_callback
C:\Users\Patryk\AppData\Local\Temp\ccybDtdu.s:323    .text.pbuf_free_ooseq:00000000 $t
C:\Users\Patryk\AppData\Local\Temp\ccybDtdu.s:329    .text.pbuf_free_ooseq:00000000 pbuf_free_ooseq
C:\Users\Patryk\AppData\Local\Temp\ccybDtdu.s:378    .text.pbuf_free_ooseq:00000028 $d
C:\Users\Patryk\AppData\Local\Temp\ccybDtdu.s:384    .text.pbuf_free_ooseq_callback:00000000 $t
C:\Users\Patryk\AppData\Local\Temp\ccybDtdu.s:411    .text.pbuf_alloced_custom:00000000 $t
C:\Users\Patryk\AppData\Local\Temp\ccybDtdu.s:418    .text.pbuf_alloced_custom:00000000 pbuf_alloced_custom
C:\Users\Patryk\AppData\Local\Temp\ccybDtdu.s:438    .text.pbuf_alloced_custom:0000000c $d
C:\Users\Patryk\AppData\Local\Temp\ccybDtdu.s:541    .text.pbuf_alloced_custom:0000006c $d
C:\Users\Patryk\AppData\Local\Temp\ccybDtdu.s:548    .text.pbuf_header:00000000 $t
C:\Users\Patryk\AppData\Local\Temp\ccybDtdu.s:555    .text.pbuf_header:00000000 pbuf_header
C:\Users\Patryk\AppData\Local\Temp\ccybDtdu.s:577    .text.pbuf_header_force:00000000 $t
C:\Users\Patryk\AppData\Local\Temp\ccybDtdu.s:584    .text.pbuf_header_force:00000000 pbuf_header_force
C:\Users\Patryk\AppData\Local\Temp\ccybDtdu.s:606    .text.pbuf_free:00000000 $t
C:\Users\Patryk\AppData\Local\Temp\ccybDtdu.s:613    .text.pbuf_free:00000000 pbuf_free
C:\Users\Patryk\AppData\Local\Temp\ccybDtdu.s:791    .text.pbuf_free:000000bc $d
C:\Users\Patryk\AppData\Local\Temp\ccybDtdu.s:802    .text.pbuf_alloc:00000000 $t
C:\Users\Patryk\AppData\Local\Temp\ccybDtdu.s:809    .text.pbuf_alloc:00000000 pbuf_alloc
C:\Users\Patryk\AppData\Local\Temp\ccybDtdu.s:834    .text.pbuf_alloc:00000010 $d
C:\Users\Patryk\AppData\Local\Temp\ccybDtdu.s:888    .text.pbuf_alloc:00000044 $d
C:\Users\Patryk\AppData\Local\Temp\ccybDtdu.s:892    .text.pbuf_alloc:00000048 $t
C:\Users\Patryk\AppData\Local\Temp\ccybDtdu.s:1160   .text.pbuf_alloc:000001b4 $d
C:\Users\Patryk\AppData\Local\Temp\ccybDtdu.s:1172   .text.pbuf_realloc:00000000 $t
C:\Users\Patryk\AppData\Local\Temp\ccybDtdu.s:1179   .text.pbuf_realloc:00000000 pbuf_realloc
C:\Users\Patryk\AppData\Local\Temp\ccybDtdu.s:1345   .text.pbuf_realloc:000000d4 $d
C:\Users\Patryk\AppData\Local\Temp\ccybDtdu.s:1356   .text.pbuf_clen:00000000 $t
C:\Users\Patryk\AppData\Local\Temp\ccybDtdu.s:1363   .text.pbuf_clen:00000000 pbuf_clen
C:\Users\Patryk\AppData\Local\Temp\ccybDtdu.s:1397   .text.pbuf_ref:00000000 $t
C:\Users\Patryk\AppData\Local\Temp\ccybDtdu.s:1404   .text.pbuf_ref:00000000 pbuf_ref
C:\Users\Patryk\AppData\Local\Temp\ccybDtdu.s:1457   .text.pbuf_ref:0000002c $d
C:\Users\Patryk\AppData\Local\Temp\ccybDtdu.s:1464   .text.pbuf_cat:00000000 $t
C:\Users\Patryk\AppData\Local\Temp\ccybDtdu.s:1471   .text.pbuf_cat:00000000 pbuf_cat
C:\Users\Patryk\AppData\Local\Temp\ccybDtdu.s:1563   .text.pbuf_cat:0000006c $d
C:\Users\Patryk\AppData\Local\Temp\ccybDtdu.s:1572   .text.pbuf_chain:00000000 $t
C:\Users\Patryk\AppData\Local\Temp\ccybDtdu.s:1579   .text.pbuf_chain:00000000 pbuf_chain
C:\Users\Patryk\AppData\Local\Temp\ccybDtdu.s:1605   .text.pbuf_dechain:00000000 $t
C:\Users\Patryk\AppData\Local\Temp\ccybDtdu.s:1612   .text.pbuf_dechain:00000000 pbuf_dechain
C:\Users\Patryk\AppData\Local\Temp\ccybDtdu.s:1707   .text.pbuf_dechain:00000064 $d
C:\Users\Patryk\AppData\Local\Temp\ccybDtdu.s:1715   .text.pbuf_copy:00000000 $t
C:\Users\Patryk\AppData\Local\Temp\ccybDtdu.s:1722   .text.pbuf_copy:00000000 pbuf_copy
C:\Users\Patryk\AppData\Local\Temp\ccybDtdu.s:1939   .text.pbuf_copy:00000124 $d
C:\Users\Patryk\AppData\Local\Temp\ccybDtdu.s:1950   .text.pbuf_copy_partial:00000000 $t
C:\Users\Patryk\AppData\Local\Temp\ccybDtdu.s:1957   .text.pbuf_copy_partial:00000000 pbuf_copy_partial
C:\Users\Patryk\AppData\Local\Temp\ccybDtdu.s:2081   .text.pbuf_copy_partial:00000084 $d
C:\Users\Patryk\AppData\Local\Temp\ccybDtdu.s:2089   .text.pbuf_skip:00000000 $t
C:\Users\Patryk\AppData\Local\Temp\ccybDtdu.s:2096   .text.pbuf_skip:00000000 pbuf_skip
ARM GAS  C:\Users\Patryk\AppData\Local\Temp\ccybDtdu.s 			page 89


C:\Users\Patryk\AppData\Local\Temp\ccybDtdu.s:2117   .text.pbuf_take:00000000 $t
C:\Users\Patryk\AppData\Local\Temp\ccybDtdu.s:2124   .text.pbuf_take:00000000 pbuf_take
C:\Users\Patryk\AppData\Local\Temp\ccybDtdu.s:2272   .text.pbuf_take:000000a8 $d
C:\Users\Patryk\AppData\Local\Temp\ccybDtdu.s:2283   .text.pbuf_take_at:00000000 $t
C:\Users\Patryk\AppData\Local\Temp\ccybDtdu.s:2290   .text.pbuf_take_at:00000000 pbuf_take_at
C:\Users\Patryk\AppData\Local\Temp\ccybDtdu.s:2391   .text.pbuf_coalesce:00000000 $t
C:\Users\Patryk\AppData\Local\Temp\ccybDtdu.s:2398   .text.pbuf_coalesce:00000000 pbuf_coalesce
C:\Users\Patryk\AppData\Local\Temp\ccybDtdu.s:2460   .text.pbuf_coalesce:0000003c $d
C:\Users\Patryk\AppData\Local\Temp\ccybDtdu.s:2467   .text.pbuf_try_get_at:00000000 $t
C:\Users\Patryk\AppData\Local\Temp\ccybDtdu.s:2474   .text.pbuf_try_get_at:00000000 pbuf_try_get_at
C:\Users\Patryk\AppData\Local\Temp\ccybDtdu.s:2528   .text.pbuf_get_at:00000000 $t
C:\Users\Patryk\AppData\Local\Temp\ccybDtdu.s:2535   .text.pbuf_get_at:00000000 pbuf_get_at
C:\Users\Patryk\AppData\Local\Temp\ccybDtdu.s:2569   .text.pbuf_put_at:00000000 $t
C:\Users\Patryk\AppData\Local\Temp\ccybDtdu.s:2576   .text.pbuf_put_at:00000000 pbuf_put_at
C:\Users\Patryk\AppData\Local\Temp\ccybDtdu.s:2618   .text.pbuf_memcmp:00000000 $t
C:\Users\Patryk\AppData\Local\Temp\ccybDtdu.s:2625   .text.pbuf_memcmp:00000000 pbuf_memcmp
C:\Users\Patryk\AppData\Local\Temp\ccybDtdu.s:2724   .text.pbuf_memfind:00000000 $t
C:\Users\Patryk\AppData\Local\Temp\ccybDtdu.s:2731   .text.pbuf_memfind:00000000 pbuf_memfind
C:\Users\Patryk\AppData\Local\Temp\ccybDtdu.s:2809   .text.pbuf_strstr:00000000 $t
C:\Users\Patryk\AppData\Local\Temp\ccybDtdu.s:2816   .text.pbuf_strstr:00000000 pbuf_strstr
C:\Users\Patryk\AppData\Local\Temp\ccybDtdu.s:2906   .rodata.pbuf_alloc.str1.4:00000000 $d
C:\Users\Patryk\AppData\Local\Temp\ccybDtdu.s:2924   .rodata.pbuf_alloced_custom.str1.4:00000000 $d
C:\Users\Patryk\AppData\Local\Temp\ccybDtdu.s:2928   .rodata.pbuf_cat.str1.4:00000000 $d
C:\Users\Patryk\AppData\Local\Temp\ccybDtdu.s:2939   .rodata.pbuf_coalesce.str1.4:00000000 $d
C:\Users\Patryk\AppData\Local\Temp\ccybDtdu.s:2943   .rodata.pbuf_copy.str1.4:00000000 $d
C:\Users\Patryk\AppData\Local\Temp\ccybDtdu.s:2958   .rodata.pbuf_copy_partial.str1.4:00000000 $d
C:\Users\Patryk\AppData\Local\Temp\ccybDtdu.s:2965   .rodata.pbuf_dechain.str1.4:00000000 $d
C:\Users\Patryk\AppData\Local\Temp\ccybDtdu.s:2972   .rodata.pbuf_free.str1.4:00000000 $d
C:\Users\Patryk\AppData\Local\Temp\ccybDtdu.s:2982   .rodata.pbuf_header_impl.str1.4:00000000 $d
C:\Users\Patryk\AppData\Local\Temp\ccybDtdu.s:2997   .rodata.pbuf_realloc.str1.4:00000000 $d
C:\Users\Patryk\AppData\Local\Temp\ccybDtdu.s:3011   .rodata.pbuf_ref.str1.4:00000000 $d
C:\Users\Patryk\AppData\Local\Temp\ccybDtdu.s:3015   .rodata.pbuf_take.str1.4:00000000 $d
C:\Users\Patryk\AppData\Local\Temp\ccybDtdu.s:443    .text.pbuf_alloced_custom:00000011 $d
C:\Users\Patryk\AppData\Local\Temp\ccybDtdu.s:443    .text.pbuf_alloced_custom:00000012 $t
C:\Users\Patryk\AppData\Local\Temp\ccybDtdu.s:839    .text.pbuf_alloc:00000015 $d
C:\Users\Patryk\AppData\Local\Temp\ccybDtdu.s:839    .text.pbuf_alloc:00000016 $t

UNDEFINED SYMBOLS
printf
sys_arch_protect
sys_arch_unprotect
tcpip_callback_with_block
tcp_segs_free
tcp_active_pcbs
mem_free
memp_free
memp_malloc
mem_malloc
mem_trim
memcpy
strlen
