ARM GAS  C:\Users\Student\AppData\Local\Temp\ccf85eJv.s 			page 1


   1              		.cpu cortex-m7
   2              		.eabi_attribute 27, 1
   3              		.eabi_attribute 28, 1
   4              		.eabi_attribute 20, 1
   5              		.eabi_attribute 21, 1
   6              		.eabi_attribute 23, 3
   7              		.eabi_attribute 24, 1
   8              		.eabi_attribute 25, 1
   9              		.eabi_attribute 26, 1
  10              		.eabi_attribute 30, 1
  11              		.eabi_attribute 34, 1
  12              		.eabi_attribute 18, 4
  13              		.file	"sockets.c"
  14              		.text
  15              	.Ltext0:
  16              		.cfi_sections	.debug_frame
  17              		.section	.text.get_socket,"ax",%progbits
  18              		.align	1
  19              		.syntax unified
  20              		.thumb
  21              		.thumb_func
  22              		.fpu fpv5-sp-d16
  24              	get_socket:
  25              	.LFB159:
  26              		.file 1 "Middlewares/Third_Party/LwIP/src/api/sockets.c"
   1:Middlewares/Third_Party/LwIP/src/api/sockets.c **** /**
   2:Middlewares/Third_Party/LwIP/src/api/sockets.c ****  * @file
   3:Middlewares/Third_Party/LwIP/src/api/sockets.c ****  * Sockets BSD-Like API module
   4:Middlewares/Third_Party/LwIP/src/api/sockets.c ****  *
   5:Middlewares/Third_Party/LwIP/src/api/sockets.c ****  * @defgroup socket Socket API
   6:Middlewares/Third_Party/LwIP/src/api/sockets.c ****  * @ingroup sequential_api
   7:Middlewares/Third_Party/LwIP/src/api/sockets.c ****  * BSD-style socket API.\n
   8:Middlewares/Third_Party/LwIP/src/api/sockets.c ****  * Thread-safe, to be called from non-TCPIP threads only.\n
   9:Middlewares/Third_Party/LwIP/src/api/sockets.c ****  * Can be activated by defining @ref LWIP_SOCKET to 1.\n
  10:Middlewares/Third_Party/LwIP/src/api/sockets.c ****  * Header is in posix/sys/socket.h\b
  11:Middlewares/Third_Party/LwIP/src/api/sockets.c ****  */
  12:Middlewares/Third_Party/LwIP/src/api/sockets.c **** 
  13:Middlewares/Third_Party/LwIP/src/api/sockets.c **** /*
  14:Middlewares/Third_Party/LwIP/src/api/sockets.c ****  * Copyright (c) 2001-2004 Swedish Institute of Computer Science.
  15:Middlewares/Third_Party/LwIP/src/api/sockets.c ****  * All rights reserved.
  16:Middlewares/Third_Party/LwIP/src/api/sockets.c ****  *
  17:Middlewares/Third_Party/LwIP/src/api/sockets.c ****  * Redistribution and use in source and binary forms, with or without modification,
  18:Middlewares/Third_Party/LwIP/src/api/sockets.c ****  * are permitted provided that the following conditions are met:
  19:Middlewares/Third_Party/LwIP/src/api/sockets.c ****  *
  20:Middlewares/Third_Party/LwIP/src/api/sockets.c ****  * 1. Redistributions of source code must retain the above copyright notice,
  21:Middlewares/Third_Party/LwIP/src/api/sockets.c ****  *    this list of conditions and the following disclaimer.
  22:Middlewares/Third_Party/LwIP/src/api/sockets.c ****  * 2. Redistributions in binary form must reproduce the above copyright notice,
  23:Middlewares/Third_Party/LwIP/src/api/sockets.c ****  *    this list of conditions and the following disclaimer in the documentation
  24:Middlewares/Third_Party/LwIP/src/api/sockets.c ****  *    and/or other materials provided with the distribution.
  25:Middlewares/Third_Party/LwIP/src/api/sockets.c ****  * 3. The name of the author may not be used to endorse or promote products
  26:Middlewares/Third_Party/LwIP/src/api/sockets.c ****  *    derived from this software without specific prior written permission.
  27:Middlewares/Third_Party/LwIP/src/api/sockets.c ****  *
  28:Middlewares/Third_Party/LwIP/src/api/sockets.c ****  * THIS SOFTWARE IS PROVIDED BY THE AUTHOR ``AS IS'' AND ANY EXPRESS OR IMPLIED
  29:Middlewares/Third_Party/LwIP/src/api/sockets.c ****  * WARRANTIES, INCLUDING, BUT NOT LIMITED TO, THE IMPLIED WARRANTIES OF
  30:Middlewares/Third_Party/LwIP/src/api/sockets.c ****  * MERCHANTABILITY AND FITNESS FOR A PARTICULAR PURPOSE ARE DISCLAIMED. IN NO EVENT
  31:Middlewares/Third_Party/LwIP/src/api/sockets.c ****  * SHALL THE AUTHOR BE LIABLE FOR ANY DIRECT, INDIRECT, INCIDENTAL, SPECIAL,
  32:Middlewares/Third_Party/LwIP/src/api/sockets.c ****  * EXEMPLARY, OR CONSEQUENTIAL DAMAGES (INCLUDING, BUT NOT LIMITED TO, PROCUREMENT
ARM GAS  C:\Users\Student\AppData\Local\Temp\ccf85eJv.s 			page 2


  33:Middlewares/Third_Party/LwIP/src/api/sockets.c ****  * OF SUBSTITUTE GOODS OR SERVICES; LOSS OF USE, DATA, OR PROFITS; OR BUSINESS
  34:Middlewares/Third_Party/LwIP/src/api/sockets.c ****  * INTERRUPTION) HOWEVER CAUSED AND ON ANY THEORY OF LIABILITY, WHETHER IN
  35:Middlewares/Third_Party/LwIP/src/api/sockets.c ****  * CONTRACT, STRICT LIABILITY, OR TORT (INCLUDING NEGLIGENCE OR OTHERWISE) ARISING
  36:Middlewares/Third_Party/LwIP/src/api/sockets.c ****  * IN ANY WAY OUT OF THE USE OF THIS SOFTWARE, EVEN IF ADVISED OF THE POSSIBILITY
  37:Middlewares/Third_Party/LwIP/src/api/sockets.c ****  * OF SUCH DAMAGE.
  38:Middlewares/Third_Party/LwIP/src/api/sockets.c ****  *
  39:Middlewares/Third_Party/LwIP/src/api/sockets.c ****  * This file is part of the lwIP TCP/IP stack.
  40:Middlewares/Third_Party/LwIP/src/api/sockets.c ****  *
  41:Middlewares/Third_Party/LwIP/src/api/sockets.c ****  * Author: Adam Dunkels <adam@sics.se>
  42:Middlewares/Third_Party/LwIP/src/api/sockets.c ****  *
  43:Middlewares/Third_Party/LwIP/src/api/sockets.c ****  * Improved by Marc Boucher <marc@mbsi.ca> and David Haas <dhaas@alum.rpi.edu>
  44:Middlewares/Third_Party/LwIP/src/api/sockets.c ****  *
  45:Middlewares/Third_Party/LwIP/src/api/sockets.c ****  */
  46:Middlewares/Third_Party/LwIP/src/api/sockets.c **** 
  47:Middlewares/Third_Party/LwIP/src/api/sockets.c **** #include "lwip/opt.h"
  48:Middlewares/Third_Party/LwIP/src/api/sockets.c **** 
  49:Middlewares/Third_Party/LwIP/src/api/sockets.c **** #if LWIP_SOCKET /* don't build if not configured for use in lwipopts.h */
  50:Middlewares/Third_Party/LwIP/src/api/sockets.c **** 
  51:Middlewares/Third_Party/LwIP/src/api/sockets.c **** #include "lwip/sockets.h"
  52:Middlewares/Third_Party/LwIP/src/api/sockets.c **** #include "lwip/api.h"
  53:Middlewares/Third_Party/LwIP/src/api/sockets.c **** #include "lwip/sys.h"
  54:Middlewares/Third_Party/LwIP/src/api/sockets.c **** #include "lwip/igmp.h"
  55:Middlewares/Third_Party/LwIP/src/api/sockets.c **** #include "lwip/inet.h"
  56:Middlewares/Third_Party/LwIP/src/api/sockets.c **** #include "lwip/tcp.h"
  57:Middlewares/Third_Party/LwIP/src/api/sockets.c **** #include "lwip/raw.h"
  58:Middlewares/Third_Party/LwIP/src/api/sockets.c **** #include "lwip/udp.h"
  59:Middlewares/Third_Party/LwIP/src/api/sockets.c **** #include "lwip/memp.h"
  60:Middlewares/Third_Party/LwIP/src/api/sockets.c **** #include "lwip/pbuf.h"
  61:Middlewares/Third_Party/LwIP/src/api/sockets.c **** #include "lwip/priv/tcpip_priv.h"
  62:Middlewares/Third_Party/LwIP/src/api/sockets.c **** #if LWIP_CHECKSUM_ON_COPY
  63:Middlewares/Third_Party/LwIP/src/api/sockets.c **** #include "lwip/inet_chksum.h"
  64:Middlewares/Third_Party/LwIP/src/api/sockets.c **** #endif
  65:Middlewares/Third_Party/LwIP/src/api/sockets.c **** 
  66:Middlewares/Third_Party/LwIP/src/api/sockets.c **** #include <string.h>
  67:Middlewares/Third_Party/LwIP/src/api/sockets.c **** 
  68:Middlewares/Third_Party/LwIP/src/api/sockets.c **** /* If the netconn API is not required publicly, then we include the necessary
  69:Middlewares/Third_Party/LwIP/src/api/sockets.c ****    files here to get the implementation */
  70:Middlewares/Third_Party/LwIP/src/api/sockets.c **** #if !LWIP_NETCONN
  71:Middlewares/Third_Party/LwIP/src/api/sockets.c **** #undef LWIP_NETCONN
  72:Middlewares/Third_Party/LwIP/src/api/sockets.c **** #define LWIP_NETCONN 1
  73:Middlewares/Third_Party/LwIP/src/api/sockets.c **** #include "api_msg.c"
  74:Middlewares/Third_Party/LwIP/src/api/sockets.c **** #include "api_lib.c"
  75:Middlewares/Third_Party/LwIP/src/api/sockets.c **** #include "netbuf.c"
  76:Middlewares/Third_Party/LwIP/src/api/sockets.c **** #undef LWIP_NETCONN
  77:Middlewares/Third_Party/LwIP/src/api/sockets.c **** #define LWIP_NETCONN 0
  78:Middlewares/Third_Party/LwIP/src/api/sockets.c **** #endif
  79:Middlewares/Third_Party/LwIP/src/api/sockets.c **** 
  80:Middlewares/Third_Party/LwIP/src/api/sockets.c **** #if LWIP_IPV4
  81:Middlewares/Third_Party/LwIP/src/api/sockets.c **** #define IP4ADDR_PORT_TO_SOCKADDR(sin, ipaddr, port) do { \
  82:Middlewares/Third_Party/LwIP/src/api/sockets.c ****       (sin)->sin_len = sizeof(struct sockaddr_in); \
  83:Middlewares/Third_Party/LwIP/src/api/sockets.c ****       (sin)->sin_family = AF_INET; \
  84:Middlewares/Third_Party/LwIP/src/api/sockets.c ****       (sin)->sin_port = lwip_htons((port)); \
  85:Middlewares/Third_Party/LwIP/src/api/sockets.c ****       inet_addr_from_ip4addr(&(sin)->sin_addr, ipaddr); \
  86:Middlewares/Third_Party/LwIP/src/api/sockets.c ****       memset((sin)->sin_zero, 0, SIN_ZERO_LEN); }while(0)
  87:Middlewares/Third_Party/LwIP/src/api/sockets.c **** #define SOCKADDR4_TO_IP4ADDR_PORT(sin, ipaddr, port) do { \
  88:Middlewares/Third_Party/LwIP/src/api/sockets.c ****     inet_addr_to_ip4addr(ip_2_ip4(ipaddr), &((sin)->sin_addr)); \
  89:Middlewares/Third_Party/LwIP/src/api/sockets.c ****     (port) = lwip_ntohs((sin)->sin_port); }while(0)
ARM GAS  C:\Users\Student\AppData\Local\Temp\ccf85eJv.s 			page 3


  90:Middlewares/Third_Party/LwIP/src/api/sockets.c **** #endif /* LWIP_IPV4 */
  91:Middlewares/Third_Party/LwIP/src/api/sockets.c **** 
  92:Middlewares/Third_Party/LwIP/src/api/sockets.c **** #if LWIP_IPV6
  93:Middlewares/Third_Party/LwIP/src/api/sockets.c **** #define IP6ADDR_PORT_TO_SOCKADDR(sin6, ipaddr, port) do { \
  94:Middlewares/Third_Party/LwIP/src/api/sockets.c ****       (sin6)->sin6_len = sizeof(struct sockaddr_in6); \
  95:Middlewares/Third_Party/LwIP/src/api/sockets.c ****       (sin6)->sin6_family = AF_INET6; \
  96:Middlewares/Third_Party/LwIP/src/api/sockets.c ****       (sin6)->sin6_port = lwip_htons((port)); \
  97:Middlewares/Third_Party/LwIP/src/api/sockets.c ****       (sin6)->sin6_flowinfo = 0; \
  98:Middlewares/Third_Party/LwIP/src/api/sockets.c ****       inet6_addr_from_ip6addr(&(sin6)->sin6_addr, ipaddr); \
  99:Middlewares/Third_Party/LwIP/src/api/sockets.c ****       (sin6)->sin6_scope_id = 0; }while(0)
 100:Middlewares/Third_Party/LwIP/src/api/sockets.c **** #define SOCKADDR6_TO_IP6ADDR_PORT(sin6, ipaddr, port) do { \
 101:Middlewares/Third_Party/LwIP/src/api/sockets.c ****     inet6_addr_to_ip6addr(ip_2_ip6(ipaddr), &((sin6)->sin6_addr)); \
 102:Middlewares/Third_Party/LwIP/src/api/sockets.c ****     (port) = lwip_ntohs((sin6)->sin6_port); }while(0)
 103:Middlewares/Third_Party/LwIP/src/api/sockets.c **** #endif /* LWIP_IPV6 */
 104:Middlewares/Third_Party/LwIP/src/api/sockets.c **** 
 105:Middlewares/Third_Party/LwIP/src/api/sockets.c **** #if LWIP_IPV4 && LWIP_IPV6
 106:Middlewares/Third_Party/LwIP/src/api/sockets.c **** static void sockaddr_to_ipaddr_port(const struct sockaddr* sockaddr, ip_addr_t* ipaddr, u16_t* port
 107:Middlewares/Third_Party/LwIP/src/api/sockets.c **** 
 108:Middlewares/Third_Party/LwIP/src/api/sockets.c **** #define IS_SOCK_ADDR_LEN_VALID(namelen)  (((namelen) == sizeof(struct sockaddr_in)) || \
 109:Middlewares/Third_Party/LwIP/src/api/sockets.c ****                                          ((namelen) == sizeof(struct sockaddr_in6)))
 110:Middlewares/Third_Party/LwIP/src/api/sockets.c **** #define IS_SOCK_ADDR_TYPE_VALID(name)    (((name)->sa_family == AF_INET) || \
 111:Middlewares/Third_Party/LwIP/src/api/sockets.c ****                                          ((name)->sa_family == AF_INET6))
 112:Middlewares/Third_Party/LwIP/src/api/sockets.c **** #define SOCK_ADDR_TYPE_MATCH(name, sock) \
 113:Middlewares/Third_Party/LwIP/src/api/sockets.c ****        ((((name)->sa_family == AF_INET) && !(NETCONNTYPE_ISIPV6((sock)->conn->type))) || \
 114:Middlewares/Third_Party/LwIP/src/api/sockets.c ****        (((name)->sa_family == AF_INET6) && (NETCONNTYPE_ISIPV6((sock)->conn->type))))
 115:Middlewares/Third_Party/LwIP/src/api/sockets.c **** #define IPADDR_PORT_TO_SOCKADDR(sockaddr, ipaddr, port) do { \
 116:Middlewares/Third_Party/LwIP/src/api/sockets.c ****     if (IP_IS_V6(ipaddr)) { \
 117:Middlewares/Third_Party/LwIP/src/api/sockets.c ****       IP6ADDR_PORT_TO_SOCKADDR((struct sockaddr_in6*)(void*)(sockaddr), ip_2_ip6(ipaddr), port); \
 118:Middlewares/Third_Party/LwIP/src/api/sockets.c ****     } else { \
 119:Middlewares/Third_Party/LwIP/src/api/sockets.c ****       IP4ADDR_PORT_TO_SOCKADDR((struct sockaddr_in*)(void*)(sockaddr), ip_2_ip4(ipaddr), port); \
 120:Middlewares/Third_Party/LwIP/src/api/sockets.c ****     } } while(0)
 121:Middlewares/Third_Party/LwIP/src/api/sockets.c **** #define SOCKADDR_TO_IPADDR_PORT(sockaddr, ipaddr, port) sockaddr_to_ipaddr_port(sockaddr, ipaddr, &
 122:Middlewares/Third_Party/LwIP/src/api/sockets.c **** #define DOMAIN_TO_NETCONN_TYPE(domain, type) (((domain) == AF_INET) ? \
 123:Middlewares/Third_Party/LwIP/src/api/sockets.c ****   (type) : (enum netconn_type)((type) | NETCONN_TYPE_IPV6))
 124:Middlewares/Third_Party/LwIP/src/api/sockets.c **** #elif LWIP_IPV6 /* LWIP_IPV4 && LWIP_IPV6 */
 125:Middlewares/Third_Party/LwIP/src/api/sockets.c **** #define IS_SOCK_ADDR_LEN_VALID(namelen)  ((namelen) == sizeof(struct sockaddr_in6))
 126:Middlewares/Third_Party/LwIP/src/api/sockets.c **** #define IS_SOCK_ADDR_TYPE_VALID(name)    ((name)->sa_family == AF_INET6)
 127:Middlewares/Third_Party/LwIP/src/api/sockets.c **** #define SOCK_ADDR_TYPE_MATCH(name, sock) 1
 128:Middlewares/Third_Party/LwIP/src/api/sockets.c **** #define IPADDR_PORT_TO_SOCKADDR(sockaddr, ipaddr, port) \
 129:Middlewares/Third_Party/LwIP/src/api/sockets.c ****         IP6ADDR_PORT_TO_SOCKADDR((struct sockaddr_in6*)(void*)(sockaddr), ip_2_ip6(ipaddr), port)
 130:Middlewares/Third_Party/LwIP/src/api/sockets.c **** #define SOCKADDR_TO_IPADDR_PORT(sockaddr, ipaddr, port) \
 131:Middlewares/Third_Party/LwIP/src/api/sockets.c ****         SOCKADDR6_TO_IP6ADDR_PORT((const struct sockaddr_in6*)(const void*)(sockaddr), ipaddr, port
 132:Middlewares/Third_Party/LwIP/src/api/sockets.c **** #define DOMAIN_TO_NETCONN_TYPE(domain, netconn_type) (netconn_type)
 133:Middlewares/Third_Party/LwIP/src/api/sockets.c **** #else /*-> LWIP_IPV4: LWIP_IPV4 && LWIP_IPV6 */
 134:Middlewares/Third_Party/LwIP/src/api/sockets.c **** #define IS_SOCK_ADDR_LEN_VALID(namelen)  ((namelen) == sizeof(struct sockaddr_in))
 135:Middlewares/Third_Party/LwIP/src/api/sockets.c **** #define IS_SOCK_ADDR_TYPE_VALID(name)    ((name)->sa_family == AF_INET)
 136:Middlewares/Third_Party/LwIP/src/api/sockets.c **** #define SOCK_ADDR_TYPE_MATCH(name, sock) 1
 137:Middlewares/Third_Party/LwIP/src/api/sockets.c **** #define IPADDR_PORT_TO_SOCKADDR(sockaddr, ipaddr, port) \
 138:Middlewares/Third_Party/LwIP/src/api/sockets.c ****         IP4ADDR_PORT_TO_SOCKADDR((struct sockaddr_in*)(void*)(sockaddr), ip_2_ip4(ipaddr), port)
 139:Middlewares/Third_Party/LwIP/src/api/sockets.c **** #define SOCKADDR_TO_IPADDR_PORT(sockaddr, ipaddr, port) \
 140:Middlewares/Third_Party/LwIP/src/api/sockets.c ****         SOCKADDR4_TO_IP4ADDR_PORT((const struct sockaddr_in*)(const void*)(sockaddr), ipaddr, port)
 141:Middlewares/Third_Party/LwIP/src/api/sockets.c **** #define DOMAIN_TO_NETCONN_TYPE(domain, netconn_type) (netconn_type)
 142:Middlewares/Third_Party/LwIP/src/api/sockets.c **** #endif /* LWIP_IPV6 */
 143:Middlewares/Third_Party/LwIP/src/api/sockets.c **** 
 144:Middlewares/Third_Party/LwIP/src/api/sockets.c **** #define IS_SOCK_ADDR_TYPE_VALID_OR_UNSPEC(name)    (((name)->sa_family == AF_UNSPEC) || \
 145:Middlewares/Third_Party/LwIP/src/api/sockets.c ****                                                     IS_SOCK_ADDR_TYPE_VALID(name))
 146:Middlewares/Third_Party/LwIP/src/api/sockets.c **** #define SOCK_ADDR_TYPE_MATCH_OR_UNSPEC(name, sock) (((name)->sa_family == AF_UNSPEC) || \
ARM GAS  C:\Users\Student\AppData\Local\Temp\ccf85eJv.s 			page 4


 147:Middlewares/Third_Party/LwIP/src/api/sockets.c ****                                                     SOCK_ADDR_TYPE_MATCH(name, sock))
 148:Middlewares/Third_Party/LwIP/src/api/sockets.c **** #define IS_SOCK_ADDR_ALIGNED(name)      ((((mem_ptr_t)(name)) % 4) == 0)
 149:Middlewares/Third_Party/LwIP/src/api/sockets.c **** 
 150:Middlewares/Third_Party/LwIP/src/api/sockets.c **** 
 151:Middlewares/Third_Party/LwIP/src/api/sockets.c **** #define LWIP_SOCKOPT_CHECK_OPTLEN(optlen, opttype) do { if ((optlen) < sizeof(opttype)) { return EI
 152:Middlewares/Third_Party/LwIP/src/api/sockets.c **** #define LWIP_SOCKOPT_CHECK_OPTLEN_CONN(sock, optlen, opttype) do { \
 153:Middlewares/Third_Party/LwIP/src/api/sockets.c ****   LWIP_SOCKOPT_CHECK_OPTLEN(optlen, opttype); \
 154:Middlewares/Third_Party/LwIP/src/api/sockets.c ****   if ((sock)->conn == NULL) { return EINVAL; } }while(0)
 155:Middlewares/Third_Party/LwIP/src/api/sockets.c **** #define LWIP_SOCKOPT_CHECK_OPTLEN_CONN_PCB(sock, optlen, opttype) do { \
 156:Middlewares/Third_Party/LwIP/src/api/sockets.c ****   LWIP_SOCKOPT_CHECK_OPTLEN(optlen, opttype); \
 157:Middlewares/Third_Party/LwIP/src/api/sockets.c ****   if (((sock)->conn == NULL) || ((sock)->conn->pcb.tcp == NULL)) { return EINVAL; } }while(0)
 158:Middlewares/Third_Party/LwIP/src/api/sockets.c **** #define LWIP_SOCKOPT_CHECK_OPTLEN_CONN_PCB_TYPE(sock, optlen, opttype, netconntype) do { \
 159:Middlewares/Third_Party/LwIP/src/api/sockets.c ****   LWIP_SOCKOPT_CHECK_OPTLEN_CONN_PCB(sock, optlen, opttype); \
 160:Middlewares/Third_Party/LwIP/src/api/sockets.c ****   if (NETCONNTYPE_GROUP(netconn_type((sock)->conn)) != netconntype) { return ENOPROTOOPT; } }while(
 161:Middlewares/Third_Party/LwIP/src/api/sockets.c **** 
 162:Middlewares/Third_Party/LwIP/src/api/sockets.c **** 
 163:Middlewares/Third_Party/LwIP/src/api/sockets.c **** #define LWIP_SETGETSOCKOPT_DATA_VAR_REF(name)     API_VAR_REF(name)
 164:Middlewares/Third_Party/LwIP/src/api/sockets.c **** #define LWIP_SETGETSOCKOPT_DATA_VAR_DECLARE(name) API_VAR_DECLARE(struct lwip_setgetsockopt_data, n
 165:Middlewares/Third_Party/LwIP/src/api/sockets.c **** #define LWIP_SETGETSOCKOPT_DATA_VAR_FREE(name)    API_VAR_FREE(MEMP_SOCKET_SETGETSOCKOPT_DATA, name
 166:Middlewares/Third_Party/LwIP/src/api/sockets.c **** #if LWIP_MPU_COMPATIBLE
 167:Middlewares/Third_Party/LwIP/src/api/sockets.c **** #define LWIP_SETGETSOCKOPT_DATA_VAR_ALLOC(name, sock) do { \
 168:Middlewares/Third_Party/LwIP/src/api/sockets.c ****   name = (struct lwip_setgetsockopt_data *)memp_malloc(MEMP_SOCKET_SETGETSOCKOPT_DATA); \
 169:Middlewares/Third_Party/LwIP/src/api/sockets.c ****   if (name == NULL) { \
 170:Middlewares/Third_Party/LwIP/src/api/sockets.c ****     sock_set_errno(sock, ENOMEM); \
 171:Middlewares/Third_Party/LwIP/src/api/sockets.c ****     return -1; \
 172:Middlewares/Third_Party/LwIP/src/api/sockets.c ****   } }while(0)
 173:Middlewares/Third_Party/LwIP/src/api/sockets.c **** #else /* LWIP_MPU_COMPATIBLE */
 174:Middlewares/Third_Party/LwIP/src/api/sockets.c **** #define LWIP_SETGETSOCKOPT_DATA_VAR_ALLOC(name, sock)
 175:Middlewares/Third_Party/LwIP/src/api/sockets.c **** #endif /* LWIP_MPU_COMPATIBLE */
 176:Middlewares/Third_Party/LwIP/src/api/sockets.c **** 
 177:Middlewares/Third_Party/LwIP/src/api/sockets.c **** #if LWIP_SO_SNDRCVTIMEO_NONSTANDARD
 178:Middlewares/Third_Party/LwIP/src/api/sockets.c **** #define LWIP_SO_SNDRCVTIMEO_OPTTYPE int
 179:Middlewares/Third_Party/LwIP/src/api/sockets.c **** #define LWIP_SO_SNDRCVTIMEO_SET(optval, val) (*(int *)(optval) = (val))
 180:Middlewares/Third_Party/LwIP/src/api/sockets.c **** #define LWIP_SO_SNDRCVTIMEO_GET_MS(optval)   ((s32_t)*(const int*)(optval))
 181:Middlewares/Third_Party/LwIP/src/api/sockets.c **** #else
 182:Middlewares/Third_Party/LwIP/src/api/sockets.c **** #define LWIP_SO_SNDRCVTIMEO_OPTTYPE struct timeval
 183:Middlewares/Third_Party/LwIP/src/api/sockets.c **** #define LWIP_SO_SNDRCVTIMEO_SET(optval, val)  do { \
 184:Middlewares/Third_Party/LwIP/src/api/sockets.c ****   s32_t loc = (val); \
 185:Middlewares/Third_Party/LwIP/src/api/sockets.c ****   ((struct timeval *)(optval))->tv_sec = (loc) / 1000U; \
 186:Middlewares/Third_Party/LwIP/src/api/sockets.c ****   ((struct timeval *)(optval))->tv_usec = ((loc) % 1000U) * 1000U; }while(0)
 187:Middlewares/Third_Party/LwIP/src/api/sockets.c **** #define LWIP_SO_SNDRCVTIMEO_GET_MS(optval) ((((const struct timeval *)(optval))->tv_sec * 1000U) + 
 188:Middlewares/Third_Party/LwIP/src/api/sockets.c **** #endif
 189:Middlewares/Third_Party/LwIP/src/api/sockets.c **** 
 190:Middlewares/Third_Party/LwIP/src/api/sockets.c **** #define NUM_SOCKETS MEMP_NUM_NETCONN
 191:Middlewares/Third_Party/LwIP/src/api/sockets.c **** 
 192:Middlewares/Third_Party/LwIP/src/api/sockets.c **** /** This is overridable for the rare case where more than 255 threads
 193:Middlewares/Third_Party/LwIP/src/api/sockets.c ****  * select on the same socket...
 194:Middlewares/Third_Party/LwIP/src/api/sockets.c ****  */
 195:Middlewares/Third_Party/LwIP/src/api/sockets.c **** #ifndef SELWAIT_T
 196:Middlewares/Third_Party/LwIP/src/api/sockets.c **** #define SELWAIT_T u8_t
 197:Middlewares/Third_Party/LwIP/src/api/sockets.c **** #endif
 198:Middlewares/Third_Party/LwIP/src/api/sockets.c **** 
 199:Middlewares/Third_Party/LwIP/src/api/sockets.c **** /** Contains all internal pointers and states used for a socket */
 200:Middlewares/Third_Party/LwIP/src/api/sockets.c **** struct lwip_sock {
 201:Middlewares/Third_Party/LwIP/src/api/sockets.c ****   /** sockets currently are built on netconns, each socket has one netconn */
 202:Middlewares/Third_Party/LwIP/src/api/sockets.c ****   struct netconn *conn;
 203:Middlewares/Third_Party/LwIP/src/api/sockets.c ****   /** data that was left from the previous read */
ARM GAS  C:\Users\Student\AppData\Local\Temp\ccf85eJv.s 			page 5


 204:Middlewares/Third_Party/LwIP/src/api/sockets.c ****   void *lastdata;
 205:Middlewares/Third_Party/LwIP/src/api/sockets.c ****   /** offset in the data that was left from the previous read */
 206:Middlewares/Third_Party/LwIP/src/api/sockets.c ****   u16_t lastoffset;
 207:Middlewares/Third_Party/LwIP/src/api/sockets.c ****   /** number of times data was received, set by event_callback(),
 208:Middlewares/Third_Party/LwIP/src/api/sockets.c ****       tested by the receive and select functions */
 209:Middlewares/Third_Party/LwIP/src/api/sockets.c ****   s16_t rcvevent;
 210:Middlewares/Third_Party/LwIP/src/api/sockets.c ****   /** number of times data was ACKed (free send buffer), set by event_callback(),
 211:Middlewares/Third_Party/LwIP/src/api/sockets.c ****       tested by select */
 212:Middlewares/Third_Party/LwIP/src/api/sockets.c ****   u16_t sendevent;
 213:Middlewares/Third_Party/LwIP/src/api/sockets.c ****   /** error happened for this socket, set by event_callback(), tested by select */
 214:Middlewares/Third_Party/LwIP/src/api/sockets.c ****   u16_t errevent;
 215:Middlewares/Third_Party/LwIP/src/api/sockets.c ****   /** last error that occurred on this socket (in fact, all our errnos fit into an u8_t) */
 216:Middlewares/Third_Party/LwIP/src/api/sockets.c ****   u8_t err;
 217:Middlewares/Third_Party/LwIP/src/api/sockets.c ****   /** counter of how many threads are waiting for this socket using select */
 218:Middlewares/Third_Party/LwIP/src/api/sockets.c ****   SELWAIT_T select_waiting;
 219:Middlewares/Third_Party/LwIP/src/api/sockets.c **** };
 220:Middlewares/Third_Party/LwIP/src/api/sockets.c **** 
 221:Middlewares/Third_Party/LwIP/src/api/sockets.c **** #if LWIP_NETCONN_SEM_PER_THREAD
 222:Middlewares/Third_Party/LwIP/src/api/sockets.c **** #define SELECT_SEM_T        sys_sem_t*
 223:Middlewares/Third_Party/LwIP/src/api/sockets.c **** #define SELECT_SEM_PTR(sem) (sem)
 224:Middlewares/Third_Party/LwIP/src/api/sockets.c **** #else /* LWIP_NETCONN_SEM_PER_THREAD */
 225:Middlewares/Third_Party/LwIP/src/api/sockets.c **** #define SELECT_SEM_T        sys_sem_t
 226:Middlewares/Third_Party/LwIP/src/api/sockets.c **** #define SELECT_SEM_PTR(sem) (&(sem))
 227:Middlewares/Third_Party/LwIP/src/api/sockets.c **** #endif /* LWIP_NETCONN_SEM_PER_THREAD */
 228:Middlewares/Third_Party/LwIP/src/api/sockets.c **** 
 229:Middlewares/Third_Party/LwIP/src/api/sockets.c **** /** Description for a task waiting in select */
 230:Middlewares/Third_Party/LwIP/src/api/sockets.c **** struct lwip_select_cb {
 231:Middlewares/Third_Party/LwIP/src/api/sockets.c ****   /** Pointer to the next waiting task */
 232:Middlewares/Third_Party/LwIP/src/api/sockets.c ****   struct lwip_select_cb *next;
 233:Middlewares/Third_Party/LwIP/src/api/sockets.c ****   /** Pointer to the previous waiting task */
 234:Middlewares/Third_Party/LwIP/src/api/sockets.c ****   struct lwip_select_cb *prev;
 235:Middlewares/Third_Party/LwIP/src/api/sockets.c ****   /** readset passed to select */
 236:Middlewares/Third_Party/LwIP/src/api/sockets.c ****   fd_set *readset;
 237:Middlewares/Third_Party/LwIP/src/api/sockets.c ****   /** writeset passed to select */
 238:Middlewares/Third_Party/LwIP/src/api/sockets.c ****   fd_set *writeset;
 239:Middlewares/Third_Party/LwIP/src/api/sockets.c ****   /** unimplemented: exceptset passed to select */
 240:Middlewares/Third_Party/LwIP/src/api/sockets.c ****   fd_set *exceptset;
 241:Middlewares/Third_Party/LwIP/src/api/sockets.c ****   /** don't signal the same semaphore twice: set to 1 when signalled */
 242:Middlewares/Third_Party/LwIP/src/api/sockets.c ****   int sem_signalled;
 243:Middlewares/Third_Party/LwIP/src/api/sockets.c ****   /** semaphore to wake up a task waiting for select */
 244:Middlewares/Third_Party/LwIP/src/api/sockets.c ****   SELECT_SEM_T sem;
 245:Middlewares/Third_Party/LwIP/src/api/sockets.c **** };
 246:Middlewares/Third_Party/LwIP/src/api/sockets.c **** 
 247:Middlewares/Third_Party/LwIP/src/api/sockets.c **** /** A struct sockaddr replacement that has the same alignment as sockaddr_in/
 248:Middlewares/Third_Party/LwIP/src/api/sockets.c ****  *  sockaddr_in6 if instantiated.
 249:Middlewares/Third_Party/LwIP/src/api/sockets.c ****  */
 250:Middlewares/Third_Party/LwIP/src/api/sockets.c **** union sockaddr_aligned {
 251:Middlewares/Third_Party/LwIP/src/api/sockets.c ****    struct sockaddr sa;
 252:Middlewares/Third_Party/LwIP/src/api/sockets.c **** #if LWIP_IPV6
 253:Middlewares/Third_Party/LwIP/src/api/sockets.c ****    struct sockaddr_in6 sin6;
 254:Middlewares/Third_Party/LwIP/src/api/sockets.c **** #endif /* LWIP_IPV6 */
 255:Middlewares/Third_Party/LwIP/src/api/sockets.c **** #if LWIP_IPV4
 256:Middlewares/Third_Party/LwIP/src/api/sockets.c ****    struct sockaddr_in sin;
 257:Middlewares/Third_Party/LwIP/src/api/sockets.c **** #endif /* LWIP_IPV4 */
 258:Middlewares/Third_Party/LwIP/src/api/sockets.c **** };
 259:Middlewares/Third_Party/LwIP/src/api/sockets.c **** 
 260:Middlewares/Third_Party/LwIP/src/api/sockets.c **** #if LWIP_IGMP
ARM GAS  C:\Users\Student\AppData\Local\Temp\ccf85eJv.s 			page 6


 261:Middlewares/Third_Party/LwIP/src/api/sockets.c **** /* Define the number of IPv4 multicast memberships, default is one per socket */
 262:Middlewares/Third_Party/LwIP/src/api/sockets.c **** #ifndef LWIP_SOCKET_MAX_MEMBERSHIPS
 263:Middlewares/Third_Party/LwIP/src/api/sockets.c **** #define LWIP_SOCKET_MAX_MEMBERSHIPS NUM_SOCKETS
 264:Middlewares/Third_Party/LwIP/src/api/sockets.c **** #endif
 265:Middlewares/Third_Party/LwIP/src/api/sockets.c **** 
 266:Middlewares/Third_Party/LwIP/src/api/sockets.c **** /* This is to keep track of IP_ADD_MEMBERSHIP calls to drop the membership when
 267:Middlewares/Third_Party/LwIP/src/api/sockets.c ****    a socket is closed */
 268:Middlewares/Third_Party/LwIP/src/api/sockets.c **** struct lwip_socket_multicast_pair {
 269:Middlewares/Third_Party/LwIP/src/api/sockets.c ****   /** the socket */
 270:Middlewares/Third_Party/LwIP/src/api/sockets.c ****   struct lwip_sock* sock;
 271:Middlewares/Third_Party/LwIP/src/api/sockets.c ****   /** the interface address */
 272:Middlewares/Third_Party/LwIP/src/api/sockets.c ****   ip4_addr_t if_addr;
 273:Middlewares/Third_Party/LwIP/src/api/sockets.c ****   /** the group address */
 274:Middlewares/Third_Party/LwIP/src/api/sockets.c ****   ip4_addr_t multi_addr;
 275:Middlewares/Third_Party/LwIP/src/api/sockets.c **** };
 276:Middlewares/Third_Party/LwIP/src/api/sockets.c **** 
 277:Middlewares/Third_Party/LwIP/src/api/sockets.c **** struct lwip_socket_multicast_pair socket_ipv4_multicast_memberships[LWIP_SOCKET_MAX_MEMBERSHIPS];
 278:Middlewares/Third_Party/LwIP/src/api/sockets.c **** 
 279:Middlewares/Third_Party/LwIP/src/api/sockets.c **** static int  lwip_socket_register_membership(int s, const ip4_addr_t *if_addr, const ip4_addr_t *mul
 280:Middlewares/Third_Party/LwIP/src/api/sockets.c **** static void lwip_socket_unregister_membership(int s, const ip4_addr_t *if_addr, const ip4_addr_t *m
 281:Middlewares/Third_Party/LwIP/src/api/sockets.c **** static void lwip_socket_drop_registered_memberships(int s);
 282:Middlewares/Third_Party/LwIP/src/api/sockets.c **** #endif /* LWIP_IGMP */
 283:Middlewares/Third_Party/LwIP/src/api/sockets.c **** 
 284:Middlewares/Third_Party/LwIP/src/api/sockets.c **** /** The global array of available sockets */
 285:Middlewares/Third_Party/LwIP/src/api/sockets.c **** static struct lwip_sock sockets[NUM_SOCKETS];
 286:Middlewares/Third_Party/LwIP/src/api/sockets.c **** /** The global list of tasks waiting for select */
 287:Middlewares/Third_Party/LwIP/src/api/sockets.c **** static struct lwip_select_cb *select_cb_list;
 288:Middlewares/Third_Party/LwIP/src/api/sockets.c **** /** This counter is increased from lwip_select when the list is changed
 289:Middlewares/Third_Party/LwIP/src/api/sockets.c ****     and checked in event_callback to see if it has changed. */
 290:Middlewares/Third_Party/LwIP/src/api/sockets.c **** static volatile int select_cb_ctr;
 291:Middlewares/Third_Party/LwIP/src/api/sockets.c **** 
 292:Middlewares/Third_Party/LwIP/src/api/sockets.c **** #if LWIP_SOCKET_SET_ERRNO
 293:Middlewares/Third_Party/LwIP/src/api/sockets.c **** #ifndef set_errno
 294:Middlewares/Third_Party/LwIP/src/api/sockets.c **** #define set_errno(err) do { if (err) { errno = (err); } } while(0)
 295:Middlewares/Third_Party/LwIP/src/api/sockets.c **** #endif
 296:Middlewares/Third_Party/LwIP/src/api/sockets.c **** #else /* LWIP_SOCKET_SET_ERRNO */
 297:Middlewares/Third_Party/LwIP/src/api/sockets.c **** #define set_errno(err)
 298:Middlewares/Third_Party/LwIP/src/api/sockets.c **** #endif /* LWIP_SOCKET_SET_ERRNO */
 299:Middlewares/Third_Party/LwIP/src/api/sockets.c **** 
 300:Middlewares/Third_Party/LwIP/src/api/sockets.c **** #define sock_set_errno(sk, e) do { \
 301:Middlewares/Third_Party/LwIP/src/api/sockets.c ****   const int sockerr = (e); \
 302:Middlewares/Third_Party/LwIP/src/api/sockets.c ****   sk->err = (u8_t)sockerr; \
 303:Middlewares/Third_Party/LwIP/src/api/sockets.c ****   set_errno(sockerr); \
 304:Middlewares/Third_Party/LwIP/src/api/sockets.c **** } while (0)
 305:Middlewares/Third_Party/LwIP/src/api/sockets.c **** 
 306:Middlewares/Third_Party/LwIP/src/api/sockets.c **** /* Forward declaration of some functions */
 307:Middlewares/Third_Party/LwIP/src/api/sockets.c **** static void event_callback(struct netconn *conn, enum netconn_evt evt, u16_t len);
 308:Middlewares/Third_Party/LwIP/src/api/sockets.c **** #if !LWIP_TCPIP_CORE_LOCKING
 309:Middlewares/Third_Party/LwIP/src/api/sockets.c **** static void lwip_getsockopt_callback(void *arg);
 310:Middlewares/Third_Party/LwIP/src/api/sockets.c **** static void lwip_setsockopt_callback(void *arg);
 311:Middlewares/Third_Party/LwIP/src/api/sockets.c **** #endif
 312:Middlewares/Third_Party/LwIP/src/api/sockets.c **** static u8_t lwip_getsockopt_impl(int s, int level, int optname, void *optval, socklen_t *optlen);
 313:Middlewares/Third_Party/LwIP/src/api/sockets.c **** static u8_t lwip_setsockopt_impl(int s, int level, int optname, const void *optval, socklen_t optle
 314:Middlewares/Third_Party/LwIP/src/api/sockets.c **** 
 315:Middlewares/Third_Party/LwIP/src/api/sockets.c **** #if LWIP_IPV4 && LWIP_IPV6
 316:Middlewares/Third_Party/LwIP/src/api/sockets.c **** static void
 317:Middlewares/Third_Party/LwIP/src/api/sockets.c **** sockaddr_to_ipaddr_port(const struct sockaddr* sockaddr, ip_addr_t* ipaddr, u16_t* port)
ARM GAS  C:\Users\Student\AppData\Local\Temp\ccf85eJv.s 			page 7


 318:Middlewares/Third_Party/LwIP/src/api/sockets.c **** {
 319:Middlewares/Third_Party/LwIP/src/api/sockets.c ****   if ((sockaddr->sa_family) == AF_INET6) {
 320:Middlewares/Third_Party/LwIP/src/api/sockets.c ****     SOCKADDR6_TO_IP6ADDR_PORT((const struct sockaddr_in6*)(const void*)(sockaddr), ipaddr, *port);
 321:Middlewares/Third_Party/LwIP/src/api/sockets.c ****     ipaddr->type = IPADDR_TYPE_V6;
 322:Middlewares/Third_Party/LwIP/src/api/sockets.c ****   } else {
 323:Middlewares/Third_Party/LwIP/src/api/sockets.c ****     SOCKADDR4_TO_IP4ADDR_PORT((const struct sockaddr_in*)(const void*)(sockaddr), ipaddr, *port);
 324:Middlewares/Third_Party/LwIP/src/api/sockets.c ****     ipaddr->type = IPADDR_TYPE_V4;
 325:Middlewares/Third_Party/LwIP/src/api/sockets.c ****   }
 326:Middlewares/Third_Party/LwIP/src/api/sockets.c **** }
 327:Middlewares/Third_Party/LwIP/src/api/sockets.c **** #endif /* LWIP_IPV4 && LWIP_IPV6 */
 328:Middlewares/Third_Party/LwIP/src/api/sockets.c **** 
 329:Middlewares/Third_Party/LwIP/src/api/sockets.c **** /** LWIP_NETCONN_SEM_PER_THREAD==1: initialize thread-local semaphore */
 330:Middlewares/Third_Party/LwIP/src/api/sockets.c **** void
 331:Middlewares/Third_Party/LwIP/src/api/sockets.c **** lwip_socket_thread_init(void)
 332:Middlewares/Third_Party/LwIP/src/api/sockets.c **** {
 333:Middlewares/Third_Party/LwIP/src/api/sockets.c ****    netconn_thread_init();
 334:Middlewares/Third_Party/LwIP/src/api/sockets.c **** }
 335:Middlewares/Third_Party/LwIP/src/api/sockets.c **** 
 336:Middlewares/Third_Party/LwIP/src/api/sockets.c **** /** LWIP_NETCONN_SEM_PER_THREAD==1: destroy thread-local semaphore */
 337:Middlewares/Third_Party/LwIP/src/api/sockets.c **** void
 338:Middlewares/Third_Party/LwIP/src/api/sockets.c **** lwip_socket_thread_cleanup(void)
 339:Middlewares/Third_Party/LwIP/src/api/sockets.c **** {
 340:Middlewares/Third_Party/LwIP/src/api/sockets.c ****    netconn_thread_cleanup();
 341:Middlewares/Third_Party/LwIP/src/api/sockets.c **** }
 342:Middlewares/Third_Party/LwIP/src/api/sockets.c **** 
 343:Middlewares/Third_Party/LwIP/src/api/sockets.c **** /**
 344:Middlewares/Third_Party/LwIP/src/api/sockets.c ****  * Map a externally used socket index to the internal socket representation.
 345:Middlewares/Third_Party/LwIP/src/api/sockets.c ****  *
 346:Middlewares/Third_Party/LwIP/src/api/sockets.c ****  * @param s externally used socket index
 347:Middlewares/Third_Party/LwIP/src/api/sockets.c ****  * @return struct lwip_sock for the socket or NULL if not found
 348:Middlewares/Third_Party/LwIP/src/api/sockets.c ****  */
 349:Middlewares/Third_Party/LwIP/src/api/sockets.c **** static struct lwip_sock *
 350:Middlewares/Third_Party/LwIP/src/api/sockets.c **** get_socket(int s)
 351:Middlewares/Third_Party/LwIP/src/api/sockets.c **** {
  27              		.loc 1 351 0
  28              		.cfi_startproc
  29              		@ args = 0, pretend = 0, frame = 0
  30              		@ frame_needed = 0, uses_anonymous_args = 0
  31              		@ link register save eliminated.
  32              	.LVL0:
 352:Middlewares/Third_Party/LwIP/src/api/sockets.c ****   struct lwip_sock *sock;
 353:Middlewares/Third_Party/LwIP/src/api/sockets.c **** 
 354:Middlewares/Third_Party/LwIP/src/api/sockets.c ****   s -= LWIP_SOCKET_OFFSET;
 355:Middlewares/Third_Party/LwIP/src/api/sockets.c **** 
 356:Middlewares/Third_Party/LwIP/src/api/sockets.c ****   if ((s < 0) || (s >= NUM_SOCKETS)) {
  33              		.loc 1 356 0
  34 0000 0328     		cmp	r0, #3
  35 0002 0CD8     		bhi	.L7
 351:Middlewares/Third_Party/LwIP/src/api/sockets.c ****   struct lwip_sock *sock;
  36              		.loc 1 351 0
  37 0004 10B4     		push	{r4}
  38              	.LCFI0:
  39              		.cfi_def_cfa_offset 4
  40              		.cfi_offset 4, -4
 357:Middlewares/Third_Party/LwIP/src/api/sockets.c ****     LWIP_DEBUGF(SOCKETS_DEBUG, ("get_socket(%d): invalid\n", s + LWIP_SOCKET_OFFSET));
 358:Middlewares/Third_Party/LwIP/src/api/sockets.c ****     set_errno(EBADF);
 359:Middlewares/Third_Party/LwIP/src/api/sockets.c ****     return NULL;
ARM GAS  C:\Users\Student\AppData\Local\Temp\ccf85eJv.s 			page 8


 360:Middlewares/Third_Party/LwIP/src/api/sockets.c ****   }
 361:Middlewares/Third_Party/LwIP/src/api/sockets.c **** 
 362:Middlewares/Third_Party/LwIP/src/api/sockets.c ****   sock = &sockets[s];
  41              		.loc 1 362 0
  42 0006 0B4C     		ldr	r4, .L9
  43 0008 8300     		lsls	r3, r0, #2
  44 000a 1918     		adds	r1, r3, r0
  45 000c 8A00     		lsls	r2, r1, #2
  46 000e 1146     		mov	r1, r2
  47 0010 2244     		add	r2, r2, r4
  48              	.LVL1:
 363:Middlewares/Third_Party/LwIP/src/api/sockets.c **** 
 364:Middlewares/Third_Party/LwIP/src/api/sockets.c ****   if (!sock->conn) {
  49              		.loc 1 364 0
  50 0012 6358     		ldr	r3, [r4, r1]
  51 0014 4BB1     		cbz	r3, .L8
  52              	.LVL2:
  53              	.L1:
 365:Middlewares/Third_Party/LwIP/src/api/sockets.c ****     LWIP_DEBUGF(SOCKETS_DEBUG, ("get_socket(%d): not active\n", s + LWIP_SOCKET_OFFSET));
 366:Middlewares/Third_Party/LwIP/src/api/sockets.c ****     set_errno(EBADF);
 367:Middlewares/Third_Party/LwIP/src/api/sockets.c ****     return NULL;
 368:Middlewares/Third_Party/LwIP/src/api/sockets.c ****   }
 369:Middlewares/Third_Party/LwIP/src/api/sockets.c **** 
 370:Middlewares/Third_Party/LwIP/src/api/sockets.c ****   return sock;
 371:Middlewares/Third_Party/LwIP/src/api/sockets.c **** }
  54              		.loc 1 371 0
  55 0016 1046     		mov	r0, r2
  56              	.LVL3:
  57 0018 5DF8044B 		ldr	r4, [sp], #4
  58              	.LCFI1:
  59              		.cfi_restore 4
  60              		.cfi_def_cfa_offset 0
  61              	.LVL4:
  62 001c 7047     		bx	lr
  63              	.LVL5:
  64              	.L7:
 358:Middlewares/Third_Party/LwIP/src/api/sockets.c ****     return NULL;
  65              		.loc 1 358 0 discriminator 1
  66 001e 0922     		movs	r2, #9
  67 0020 054B     		ldr	r3, .L9+4
  68 0022 1A60     		str	r2, [r3]
 359:Middlewares/Third_Party/LwIP/src/api/sockets.c ****   }
  69              		.loc 1 359 0 discriminator 1
  70 0024 0022     		movs	r2, #0
  71              		.loc 1 371 0 discriminator 1
  72 0026 1046     		mov	r0, r2
  73              	.LVL6:
  74 0028 7047     		bx	lr
  75              	.LVL7:
  76              	.L8:
  77              	.LCFI2:
  78              		.cfi_def_cfa_offset 4
  79              		.cfi_offset 4, -4
 366:Middlewares/Third_Party/LwIP/src/api/sockets.c ****     return NULL;
  80              		.loc 1 366 0 discriminator 1
  81 002a 0922     		movs	r2, #9
  82              	.LVL8:
ARM GAS  C:\Users\Student\AppData\Local\Temp\ccf85eJv.s 			page 9


  83 002c 024B     		ldr	r3, .L9+4
  84 002e 1A60     		str	r2, [r3]
 367:Middlewares/Third_Party/LwIP/src/api/sockets.c ****   }
  85              		.loc 1 367 0 discriminator 1
  86 0030 0022     		movs	r2, #0
  87 0032 F0E7     		b	.L1
  88              	.L10:
  89              		.align	2
  90              	.L9:
  91 0034 00000000 		.word	.LANCHOR0
  92 0038 00000000 		.word	errno
  93              		.cfi_endproc
  94              	.LFE159:
  96              		.section	.text.tryget_socket,"ax",%progbits
  97              		.align	1
  98              		.syntax unified
  99              		.thumb
 100              		.thumb_func
 101              		.fpu fpv5-sp-d16
 103              	tryget_socket:
 104              	.LFB160:
 372:Middlewares/Third_Party/LwIP/src/api/sockets.c **** 
 373:Middlewares/Third_Party/LwIP/src/api/sockets.c **** /**
 374:Middlewares/Third_Party/LwIP/src/api/sockets.c ****  * Same as get_socket but doesn't set errno
 375:Middlewares/Third_Party/LwIP/src/api/sockets.c ****  *
 376:Middlewares/Third_Party/LwIP/src/api/sockets.c ****  * @param s externally used socket index
 377:Middlewares/Third_Party/LwIP/src/api/sockets.c ****  * @return struct lwip_sock for the socket or NULL if not found
 378:Middlewares/Third_Party/LwIP/src/api/sockets.c ****  */
 379:Middlewares/Third_Party/LwIP/src/api/sockets.c **** static struct lwip_sock *
 380:Middlewares/Third_Party/LwIP/src/api/sockets.c **** tryget_socket(int s)
 381:Middlewares/Third_Party/LwIP/src/api/sockets.c **** {
 105              		.loc 1 381 0
 106              		.cfi_startproc
 107              		@ args = 0, pretend = 0, frame = 0
 108              		@ frame_needed = 0, uses_anonymous_args = 0
 109              		@ link register save eliminated.
 110              	.LVL9:
 382:Middlewares/Third_Party/LwIP/src/api/sockets.c ****   s -= LWIP_SOCKET_OFFSET;
 383:Middlewares/Third_Party/LwIP/src/api/sockets.c ****   if ((s < 0) || (s >= NUM_SOCKETS)) {
 111              		.loc 1 383 0
 112 0000 0328     		cmp	r0, #3
 113 0002 0BD8     		bhi	.L13
 384:Middlewares/Third_Party/LwIP/src/api/sockets.c ****     return NULL;
 385:Middlewares/Third_Party/LwIP/src/api/sockets.c ****   }
 386:Middlewares/Third_Party/LwIP/src/api/sockets.c ****   if (!sockets[s].conn) {
 114              		.loc 1 386 0
 115 0004 00EB8002 		add	r2, r0, r0, lsl #2
 116 0008 9300     		lsls	r3, r2, #2
 117 000a 064A     		ldr	r2, .L15
 118 000c D358     		ldr	r3, [r2, r3]
 119 000e 3BB1     		cbz	r3, .L14
 387:Middlewares/Third_Party/LwIP/src/api/sockets.c ****     return NULL;
 388:Middlewares/Third_Party/LwIP/src/api/sockets.c ****   }
 389:Middlewares/Third_Party/LwIP/src/api/sockets.c ****   return &sockets[s];
 120              		.loc 1 389 0
 121 0010 00EB8000 		add	r0, r0, r0, lsl #2
 122              	.LVL10:
ARM GAS  C:\Users\Student\AppData\Local\Temp\ccf85eJv.s 			page 10


 123 0014 8300     		lsls	r3, r0, #2
 124 0016 1046     		mov	r0, r2
 125 0018 1844     		add	r0, r0, r3
 126 001a 7047     		bx	lr
 127              	.LVL11:
 128              	.L13:
 384:Middlewares/Third_Party/LwIP/src/api/sockets.c ****     return NULL;
 129              		.loc 1 384 0
 130 001c 0020     		movs	r0, #0
 131              	.LVL12:
 132 001e 7047     		bx	lr
 133              	.LVL13:
 134              	.L14:
 387:Middlewares/Third_Party/LwIP/src/api/sockets.c ****     return NULL;
 135              		.loc 1 387 0
 136 0020 0020     		movs	r0, #0
 137              	.LVL14:
 390:Middlewares/Third_Party/LwIP/src/api/sockets.c **** }
 138              		.loc 1 390 0
 139 0022 7047     		bx	lr
 140              	.L16:
 141              		.align	2
 142              	.L15:
 143 0024 00000000 		.word	.LANCHOR0
 144              		.cfi_endproc
 145              	.LFE160:
 147              		.section	.text.lwip_setsockopt_impl,"ax",%progbits
 148              		.align	1
 149              		.syntax unified
 150              		.thumb
 151              		.thumb_func
 152              		.fpu fpv5-sp-d16
 154              	lwip_setsockopt_impl:
 155              	.LFB187:
 391:Middlewares/Third_Party/LwIP/src/api/sockets.c **** 
 392:Middlewares/Third_Party/LwIP/src/api/sockets.c **** /**
 393:Middlewares/Third_Party/LwIP/src/api/sockets.c ****  * Allocate a new socket for a given netconn.
 394:Middlewares/Third_Party/LwIP/src/api/sockets.c ****  *
 395:Middlewares/Third_Party/LwIP/src/api/sockets.c ****  * @param newconn the netconn for which to allocate a socket
 396:Middlewares/Third_Party/LwIP/src/api/sockets.c ****  * @param accepted 1 if socket has been created by accept(),
 397:Middlewares/Third_Party/LwIP/src/api/sockets.c ****  *                 0 if socket has been created by socket()
 398:Middlewares/Third_Party/LwIP/src/api/sockets.c ****  * @return the index of the new socket; -1 on error
 399:Middlewares/Third_Party/LwIP/src/api/sockets.c ****  */
 400:Middlewares/Third_Party/LwIP/src/api/sockets.c **** static int
 401:Middlewares/Third_Party/LwIP/src/api/sockets.c **** alloc_socket(struct netconn *newconn, int accepted)
 402:Middlewares/Third_Party/LwIP/src/api/sockets.c **** {
 403:Middlewares/Third_Party/LwIP/src/api/sockets.c ****   int i;
 404:Middlewares/Third_Party/LwIP/src/api/sockets.c ****   SYS_ARCH_DECL_PROTECT(lev);
 405:Middlewares/Third_Party/LwIP/src/api/sockets.c **** 
 406:Middlewares/Third_Party/LwIP/src/api/sockets.c ****   /* allocate a new socket identifier */
 407:Middlewares/Third_Party/LwIP/src/api/sockets.c ****   for (i = 0; i < NUM_SOCKETS; ++i) {
 408:Middlewares/Third_Party/LwIP/src/api/sockets.c ****     /* Protect socket array */
 409:Middlewares/Third_Party/LwIP/src/api/sockets.c ****     SYS_ARCH_PROTECT(lev);
 410:Middlewares/Third_Party/LwIP/src/api/sockets.c ****     if (!sockets[i].conn && (sockets[i].select_waiting == 0)) {
 411:Middlewares/Third_Party/LwIP/src/api/sockets.c ****       sockets[i].conn       = newconn;
 412:Middlewares/Third_Party/LwIP/src/api/sockets.c ****       /* The socket is not yet known to anyone, so no need to protect
 413:Middlewares/Third_Party/LwIP/src/api/sockets.c ****          after having marked it as used. */
ARM GAS  C:\Users\Student\AppData\Local\Temp\ccf85eJv.s 			page 11


 414:Middlewares/Third_Party/LwIP/src/api/sockets.c ****       SYS_ARCH_UNPROTECT(lev);
 415:Middlewares/Third_Party/LwIP/src/api/sockets.c ****       sockets[i].lastdata   = NULL;
 416:Middlewares/Third_Party/LwIP/src/api/sockets.c ****       sockets[i].lastoffset = 0;
 417:Middlewares/Third_Party/LwIP/src/api/sockets.c ****       sockets[i].rcvevent   = 0;
 418:Middlewares/Third_Party/LwIP/src/api/sockets.c ****       /* TCP sendbuf is empty, but the socket is not yet writable until connected
 419:Middlewares/Third_Party/LwIP/src/api/sockets.c ****        * (unless it has been created by accept()). */
 420:Middlewares/Third_Party/LwIP/src/api/sockets.c ****       sockets[i].sendevent  = (NETCONNTYPE_GROUP(newconn->type) == NETCONN_TCP ? (accepted != 0) : 
 421:Middlewares/Third_Party/LwIP/src/api/sockets.c ****       sockets[i].errevent   = 0;
 422:Middlewares/Third_Party/LwIP/src/api/sockets.c ****       sockets[i].err        = 0;
 423:Middlewares/Third_Party/LwIP/src/api/sockets.c ****       return i + LWIP_SOCKET_OFFSET;
 424:Middlewares/Third_Party/LwIP/src/api/sockets.c ****     }
 425:Middlewares/Third_Party/LwIP/src/api/sockets.c ****     SYS_ARCH_UNPROTECT(lev);
 426:Middlewares/Third_Party/LwIP/src/api/sockets.c ****   }
 427:Middlewares/Third_Party/LwIP/src/api/sockets.c ****   return -1;
 428:Middlewares/Third_Party/LwIP/src/api/sockets.c **** }
 429:Middlewares/Third_Party/LwIP/src/api/sockets.c **** 
 430:Middlewares/Third_Party/LwIP/src/api/sockets.c **** /** Free a socket. The socket's netconn must have been
 431:Middlewares/Third_Party/LwIP/src/api/sockets.c ****  * delete before!
 432:Middlewares/Third_Party/LwIP/src/api/sockets.c ****  *
 433:Middlewares/Third_Party/LwIP/src/api/sockets.c ****  * @param sock the socket to free
 434:Middlewares/Third_Party/LwIP/src/api/sockets.c ****  * @param is_tcp != 0 for TCP sockets, used to free lastdata
 435:Middlewares/Third_Party/LwIP/src/api/sockets.c ****  */
 436:Middlewares/Third_Party/LwIP/src/api/sockets.c **** static void
 437:Middlewares/Third_Party/LwIP/src/api/sockets.c **** free_socket(struct lwip_sock *sock, int is_tcp)
 438:Middlewares/Third_Party/LwIP/src/api/sockets.c **** {
 439:Middlewares/Third_Party/LwIP/src/api/sockets.c ****   void *lastdata;
 440:Middlewares/Third_Party/LwIP/src/api/sockets.c **** 
 441:Middlewares/Third_Party/LwIP/src/api/sockets.c ****   lastdata         = sock->lastdata;
 442:Middlewares/Third_Party/LwIP/src/api/sockets.c ****   sock->lastdata   = NULL;
 443:Middlewares/Third_Party/LwIP/src/api/sockets.c ****   sock->lastoffset = 0;
 444:Middlewares/Third_Party/LwIP/src/api/sockets.c ****   sock->err        = 0;
 445:Middlewares/Third_Party/LwIP/src/api/sockets.c **** 
 446:Middlewares/Third_Party/LwIP/src/api/sockets.c ****   /* Protect socket array */
 447:Middlewares/Third_Party/LwIP/src/api/sockets.c ****   SYS_ARCH_SET(sock->conn, NULL);
 448:Middlewares/Third_Party/LwIP/src/api/sockets.c ****   /* don't use 'sock' after this line, as another task might have allocated it */
 449:Middlewares/Third_Party/LwIP/src/api/sockets.c **** 
 450:Middlewares/Third_Party/LwIP/src/api/sockets.c ****   if (lastdata != NULL) {
 451:Middlewares/Third_Party/LwIP/src/api/sockets.c ****     if (is_tcp) {
 452:Middlewares/Third_Party/LwIP/src/api/sockets.c ****       pbuf_free((struct pbuf *)lastdata);
 453:Middlewares/Third_Party/LwIP/src/api/sockets.c ****     } else {
 454:Middlewares/Third_Party/LwIP/src/api/sockets.c ****       netbuf_delete((struct netbuf *)lastdata);
 455:Middlewares/Third_Party/LwIP/src/api/sockets.c ****     }
 456:Middlewares/Third_Party/LwIP/src/api/sockets.c ****   }
 457:Middlewares/Third_Party/LwIP/src/api/sockets.c **** }
 458:Middlewares/Third_Party/LwIP/src/api/sockets.c **** 
 459:Middlewares/Third_Party/LwIP/src/api/sockets.c **** /* Below this, the well-known socket functions are implemented.
 460:Middlewares/Third_Party/LwIP/src/api/sockets.c ****  * Use google.com or opengroup.org to get a good description :-)
 461:Middlewares/Third_Party/LwIP/src/api/sockets.c ****  *
 462:Middlewares/Third_Party/LwIP/src/api/sockets.c ****  * Exceptions are documented!
 463:Middlewares/Third_Party/LwIP/src/api/sockets.c ****  */
 464:Middlewares/Third_Party/LwIP/src/api/sockets.c **** 
 465:Middlewares/Third_Party/LwIP/src/api/sockets.c **** int
 466:Middlewares/Third_Party/LwIP/src/api/sockets.c **** lwip_accept(int s, struct sockaddr *addr, socklen_t *addrlen)
 467:Middlewares/Third_Party/LwIP/src/api/sockets.c **** {
 468:Middlewares/Third_Party/LwIP/src/api/sockets.c ****   struct lwip_sock *sock, *nsock;
 469:Middlewares/Third_Party/LwIP/src/api/sockets.c ****   struct netconn *newconn;
 470:Middlewares/Third_Party/LwIP/src/api/sockets.c ****   ip_addr_t naddr;
ARM GAS  C:\Users\Student\AppData\Local\Temp\ccf85eJv.s 			page 12


 471:Middlewares/Third_Party/LwIP/src/api/sockets.c ****   u16_t port = 0;
 472:Middlewares/Third_Party/LwIP/src/api/sockets.c ****   int newsock;
 473:Middlewares/Third_Party/LwIP/src/api/sockets.c ****   err_t err;
 474:Middlewares/Third_Party/LwIP/src/api/sockets.c ****   SYS_ARCH_DECL_PROTECT(lev);
 475:Middlewares/Third_Party/LwIP/src/api/sockets.c **** 
 476:Middlewares/Third_Party/LwIP/src/api/sockets.c ****   LWIP_DEBUGF(SOCKETS_DEBUG, ("lwip_accept(%d)...\n", s));
 477:Middlewares/Third_Party/LwIP/src/api/sockets.c ****   sock = get_socket(s);
 478:Middlewares/Third_Party/LwIP/src/api/sockets.c ****   if (!sock) {
 479:Middlewares/Third_Party/LwIP/src/api/sockets.c ****     return -1;
 480:Middlewares/Third_Party/LwIP/src/api/sockets.c ****   }
 481:Middlewares/Third_Party/LwIP/src/api/sockets.c **** 
 482:Middlewares/Third_Party/LwIP/src/api/sockets.c ****   if (netconn_is_nonblocking(sock->conn) && (sock->rcvevent <= 0)) {
 483:Middlewares/Third_Party/LwIP/src/api/sockets.c ****     LWIP_DEBUGF(SOCKETS_DEBUG, ("lwip_accept(%d): returning EWOULDBLOCK\n", s));
 484:Middlewares/Third_Party/LwIP/src/api/sockets.c ****     set_errno(EWOULDBLOCK);
 485:Middlewares/Third_Party/LwIP/src/api/sockets.c ****     return -1;
 486:Middlewares/Third_Party/LwIP/src/api/sockets.c ****   }
 487:Middlewares/Third_Party/LwIP/src/api/sockets.c **** 
 488:Middlewares/Third_Party/LwIP/src/api/sockets.c ****   /* wait for a new connection */
 489:Middlewares/Third_Party/LwIP/src/api/sockets.c ****   err = netconn_accept(sock->conn, &newconn);
 490:Middlewares/Third_Party/LwIP/src/api/sockets.c ****   if (err != ERR_OK) {
 491:Middlewares/Third_Party/LwIP/src/api/sockets.c ****     LWIP_DEBUGF(SOCKETS_DEBUG, ("lwip_accept(%d): netconn_acept failed, err=%d\n", s, err));
 492:Middlewares/Third_Party/LwIP/src/api/sockets.c ****     if (NETCONNTYPE_GROUP(netconn_type(sock->conn)) != NETCONN_TCP) {
 493:Middlewares/Third_Party/LwIP/src/api/sockets.c ****       sock_set_errno(sock, EOPNOTSUPP);
 494:Middlewares/Third_Party/LwIP/src/api/sockets.c ****     } else if (err == ERR_CLSD) {
 495:Middlewares/Third_Party/LwIP/src/api/sockets.c ****       sock_set_errno(sock, EINVAL);
 496:Middlewares/Third_Party/LwIP/src/api/sockets.c ****     } else {
 497:Middlewares/Third_Party/LwIP/src/api/sockets.c ****       sock_set_errno(sock, err_to_errno(err));
 498:Middlewares/Third_Party/LwIP/src/api/sockets.c ****     }
 499:Middlewares/Third_Party/LwIP/src/api/sockets.c ****     return -1;
 500:Middlewares/Third_Party/LwIP/src/api/sockets.c ****   }
 501:Middlewares/Third_Party/LwIP/src/api/sockets.c ****   LWIP_ASSERT("newconn != NULL", newconn != NULL);
 502:Middlewares/Third_Party/LwIP/src/api/sockets.c **** 
 503:Middlewares/Third_Party/LwIP/src/api/sockets.c ****   newsock = alloc_socket(newconn, 1);
 504:Middlewares/Third_Party/LwIP/src/api/sockets.c ****   if (newsock == -1) {
 505:Middlewares/Third_Party/LwIP/src/api/sockets.c ****     netconn_delete(newconn);
 506:Middlewares/Third_Party/LwIP/src/api/sockets.c ****     sock_set_errno(sock, ENFILE);
 507:Middlewares/Third_Party/LwIP/src/api/sockets.c ****     return -1;
 508:Middlewares/Third_Party/LwIP/src/api/sockets.c ****   }
 509:Middlewares/Third_Party/LwIP/src/api/sockets.c ****   LWIP_ASSERT("invalid socket index", (newsock >= LWIP_SOCKET_OFFSET) && (newsock < NUM_SOCKETS + L
 510:Middlewares/Third_Party/LwIP/src/api/sockets.c ****   LWIP_ASSERT("newconn->callback == event_callback", newconn->callback == event_callback);
 511:Middlewares/Third_Party/LwIP/src/api/sockets.c ****   nsock = &sockets[newsock - LWIP_SOCKET_OFFSET];
 512:Middlewares/Third_Party/LwIP/src/api/sockets.c **** 
 513:Middlewares/Third_Party/LwIP/src/api/sockets.c ****   /* See event_callback: If data comes in right away after an accept, even
 514:Middlewares/Third_Party/LwIP/src/api/sockets.c ****    * though the server task might not have created a new socket yet.
 515:Middlewares/Third_Party/LwIP/src/api/sockets.c ****    * In that case, newconn->socket is counted down (newconn->socket--),
 516:Middlewares/Third_Party/LwIP/src/api/sockets.c ****    * so nsock->rcvevent is >= 1 here!
 517:Middlewares/Third_Party/LwIP/src/api/sockets.c ****    */
 518:Middlewares/Third_Party/LwIP/src/api/sockets.c ****   SYS_ARCH_PROTECT(lev);
 519:Middlewares/Third_Party/LwIP/src/api/sockets.c ****   nsock->rcvevent += (s16_t)(-1 - newconn->socket);
 520:Middlewares/Third_Party/LwIP/src/api/sockets.c ****   newconn->socket = newsock;
 521:Middlewares/Third_Party/LwIP/src/api/sockets.c ****   SYS_ARCH_UNPROTECT(lev);
 522:Middlewares/Third_Party/LwIP/src/api/sockets.c **** 
 523:Middlewares/Third_Party/LwIP/src/api/sockets.c ****   /* Note that POSIX only requires us to check addr is non-NULL. addrlen must
 524:Middlewares/Third_Party/LwIP/src/api/sockets.c ****    * not be NULL if addr is valid.
 525:Middlewares/Third_Party/LwIP/src/api/sockets.c ****    */
 526:Middlewares/Third_Party/LwIP/src/api/sockets.c ****   if (addr != NULL) {
 527:Middlewares/Third_Party/LwIP/src/api/sockets.c ****     union sockaddr_aligned tempaddr;
ARM GAS  C:\Users\Student\AppData\Local\Temp\ccf85eJv.s 			page 13


 528:Middlewares/Third_Party/LwIP/src/api/sockets.c ****     /* get the IP address and port of the remote host */
 529:Middlewares/Third_Party/LwIP/src/api/sockets.c ****     err = netconn_peer(newconn, &naddr, &port);
 530:Middlewares/Third_Party/LwIP/src/api/sockets.c ****     if (err != ERR_OK) {
 531:Middlewares/Third_Party/LwIP/src/api/sockets.c ****       LWIP_DEBUGF(SOCKETS_DEBUG, ("lwip_accept(%d): netconn_peer failed, err=%d\n", s, err));
 532:Middlewares/Third_Party/LwIP/src/api/sockets.c ****       netconn_delete(newconn);
 533:Middlewares/Third_Party/LwIP/src/api/sockets.c ****       free_socket(nsock, 1);
 534:Middlewares/Third_Party/LwIP/src/api/sockets.c ****       sock_set_errno(sock, err_to_errno(err));
 535:Middlewares/Third_Party/LwIP/src/api/sockets.c ****       return -1;
 536:Middlewares/Third_Party/LwIP/src/api/sockets.c ****     }
 537:Middlewares/Third_Party/LwIP/src/api/sockets.c ****     LWIP_ASSERT("addr valid but addrlen NULL", addrlen != NULL);
 538:Middlewares/Third_Party/LwIP/src/api/sockets.c **** 
 539:Middlewares/Third_Party/LwIP/src/api/sockets.c ****     IPADDR_PORT_TO_SOCKADDR(&tempaddr, &naddr, port);
 540:Middlewares/Third_Party/LwIP/src/api/sockets.c ****     if (*addrlen > tempaddr.sa.sa_len) {
 541:Middlewares/Third_Party/LwIP/src/api/sockets.c ****       *addrlen = tempaddr.sa.sa_len;
 542:Middlewares/Third_Party/LwIP/src/api/sockets.c ****     }
 543:Middlewares/Third_Party/LwIP/src/api/sockets.c ****     MEMCPY(addr, &tempaddr, *addrlen);
 544:Middlewares/Third_Party/LwIP/src/api/sockets.c **** 
 545:Middlewares/Third_Party/LwIP/src/api/sockets.c ****     LWIP_DEBUGF(SOCKETS_DEBUG, ("lwip_accept(%d) returning new sock=%d addr=", s, newsock));
 546:Middlewares/Third_Party/LwIP/src/api/sockets.c ****     ip_addr_debug_print_val(SOCKETS_DEBUG, naddr);
 547:Middlewares/Third_Party/LwIP/src/api/sockets.c ****     LWIP_DEBUGF(SOCKETS_DEBUG, (" port=%"U16_F"\n", port));
 548:Middlewares/Third_Party/LwIP/src/api/sockets.c ****   } else {
 549:Middlewares/Third_Party/LwIP/src/api/sockets.c ****     LWIP_DEBUGF(SOCKETS_DEBUG, ("lwip_accept(%d) returning new sock=%d", s, newsock));
 550:Middlewares/Third_Party/LwIP/src/api/sockets.c ****   }
 551:Middlewares/Third_Party/LwIP/src/api/sockets.c **** 
 552:Middlewares/Third_Party/LwIP/src/api/sockets.c ****   sock_set_errno(sock, 0);
 553:Middlewares/Third_Party/LwIP/src/api/sockets.c ****   return newsock;
 554:Middlewares/Third_Party/LwIP/src/api/sockets.c **** }
 555:Middlewares/Third_Party/LwIP/src/api/sockets.c **** 
 556:Middlewares/Third_Party/LwIP/src/api/sockets.c **** int
 557:Middlewares/Third_Party/LwIP/src/api/sockets.c **** lwip_bind(int s, const struct sockaddr *name, socklen_t namelen)
 558:Middlewares/Third_Party/LwIP/src/api/sockets.c **** {
 559:Middlewares/Third_Party/LwIP/src/api/sockets.c ****   struct lwip_sock *sock;
 560:Middlewares/Third_Party/LwIP/src/api/sockets.c ****   ip_addr_t local_addr;
 561:Middlewares/Third_Party/LwIP/src/api/sockets.c ****   u16_t local_port;
 562:Middlewares/Third_Party/LwIP/src/api/sockets.c ****   err_t err;
 563:Middlewares/Third_Party/LwIP/src/api/sockets.c **** 
 564:Middlewares/Third_Party/LwIP/src/api/sockets.c ****   sock = get_socket(s);
 565:Middlewares/Third_Party/LwIP/src/api/sockets.c ****   if (!sock) {
 566:Middlewares/Third_Party/LwIP/src/api/sockets.c ****     return -1;
 567:Middlewares/Third_Party/LwIP/src/api/sockets.c ****   }
 568:Middlewares/Third_Party/LwIP/src/api/sockets.c **** 
 569:Middlewares/Third_Party/LwIP/src/api/sockets.c ****   if (!SOCK_ADDR_TYPE_MATCH(name, sock)) {
 570:Middlewares/Third_Party/LwIP/src/api/sockets.c ****     /* sockaddr does not match socket type (IPv4/IPv6) */
 571:Middlewares/Third_Party/LwIP/src/api/sockets.c ****     sock_set_errno(sock, err_to_errno(ERR_VAL));
 572:Middlewares/Third_Party/LwIP/src/api/sockets.c ****     return -1;
 573:Middlewares/Third_Party/LwIP/src/api/sockets.c ****   }
 574:Middlewares/Third_Party/LwIP/src/api/sockets.c **** 
 575:Middlewares/Third_Party/LwIP/src/api/sockets.c ****   /* check size, family and alignment of 'name' */
 576:Middlewares/Third_Party/LwIP/src/api/sockets.c ****   LWIP_ERROR("lwip_bind: invalid address", (IS_SOCK_ADDR_LEN_VALID(namelen) &&
 577:Middlewares/Third_Party/LwIP/src/api/sockets.c ****              IS_SOCK_ADDR_TYPE_VALID(name) && IS_SOCK_ADDR_ALIGNED(name)),
 578:Middlewares/Third_Party/LwIP/src/api/sockets.c ****              sock_set_errno(sock, err_to_errno(ERR_ARG)); return -1;);
 579:Middlewares/Third_Party/LwIP/src/api/sockets.c ****   LWIP_UNUSED_ARG(namelen);
 580:Middlewares/Third_Party/LwIP/src/api/sockets.c **** 
 581:Middlewares/Third_Party/LwIP/src/api/sockets.c ****   SOCKADDR_TO_IPADDR_PORT(name, &local_addr, local_port);
 582:Middlewares/Third_Party/LwIP/src/api/sockets.c ****   LWIP_DEBUGF(SOCKETS_DEBUG, ("lwip_bind(%d, addr=", s));
 583:Middlewares/Third_Party/LwIP/src/api/sockets.c ****   ip_addr_debug_print_val(SOCKETS_DEBUG, local_addr);
 584:Middlewares/Third_Party/LwIP/src/api/sockets.c ****   LWIP_DEBUGF(SOCKETS_DEBUG, (" port=%"U16_F")\n", local_port));
ARM GAS  C:\Users\Student\AppData\Local\Temp\ccf85eJv.s 			page 14


 585:Middlewares/Third_Party/LwIP/src/api/sockets.c **** 
 586:Middlewares/Third_Party/LwIP/src/api/sockets.c **** #if LWIP_IPV4 && LWIP_IPV6
 587:Middlewares/Third_Party/LwIP/src/api/sockets.c ****   /* Dual-stack: Unmap IPv4 mapped IPv6 addresses */
 588:Middlewares/Third_Party/LwIP/src/api/sockets.c ****   if (IP_IS_V6_VAL(local_addr) && ip6_addr_isipv4mappedipv6(ip_2_ip6(&local_addr))) {
 589:Middlewares/Third_Party/LwIP/src/api/sockets.c ****     unmap_ipv4_mapped_ipv6(ip_2_ip4(&local_addr), ip_2_ip6(&local_addr));
 590:Middlewares/Third_Party/LwIP/src/api/sockets.c ****     IP_SET_TYPE_VAL(local_addr, IPADDR_TYPE_V4);
 591:Middlewares/Third_Party/LwIP/src/api/sockets.c ****   }
 592:Middlewares/Third_Party/LwIP/src/api/sockets.c **** #endif /* LWIP_IPV4 && LWIP_IPV6 */
 593:Middlewares/Third_Party/LwIP/src/api/sockets.c **** 
 594:Middlewares/Third_Party/LwIP/src/api/sockets.c ****   err = netconn_bind(sock->conn, &local_addr, local_port);
 595:Middlewares/Third_Party/LwIP/src/api/sockets.c **** 
 596:Middlewares/Third_Party/LwIP/src/api/sockets.c ****   if (err != ERR_OK) {
 597:Middlewares/Third_Party/LwIP/src/api/sockets.c ****     LWIP_DEBUGF(SOCKETS_DEBUG, ("lwip_bind(%d) failed, err=%d\n", s, err));
 598:Middlewares/Third_Party/LwIP/src/api/sockets.c ****     sock_set_errno(sock, err_to_errno(err));
 599:Middlewares/Third_Party/LwIP/src/api/sockets.c ****     return -1;
 600:Middlewares/Third_Party/LwIP/src/api/sockets.c ****   }
 601:Middlewares/Third_Party/LwIP/src/api/sockets.c **** 
 602:Middlewares/Third_Party/LwIP/src/api/sockets.c ****   LWIP_DEBUGF(SOCKETS_DEBUG, ("lwip_bind(%d) succeeded\n", s));
 603:Middlewares/Third_Party/LwIP/src/api/sockets.c ****   sock_set_errno(sock, 0);
 604:Middlewares/Third_Party/LwIP/src/api/sockets.c ****   return 0;
 605:Middlewares/Third_Party/LwIP/src/api/sockets.c **** }
 606:Middlewares/Third_Party/LwIP/src/api/sockets.c **** 
 607:Middlewares/Third_Party/LwIP/src/api/sockets.c **** int
 608:Middlewares/Third_Party/LwIP/src/api/sockets.c **** lwip_close(int s)
 609:Middlewares/Third_Party/LwIP/src/api/sockets.c **** {
 610:Middlewares/Third_Party/LwIP/src/api/sockets.c ****   struct lwip_sock *sock;
 611:Middlewares/Third_Party/LwIP/src/api/sockets.c ****   int is_tcp = 0;
 612:Middlewares/Third_Party/LwIP/src/api/sockets.c ****   err_t err;
 613:Middlewares/Third_Party/LwIP/src/api/sockets.c **** 
 614:Middlewares/Third_Party/LwIP/src/api/sockets.c ****   LWIP_DEBUGF(SOCKETS_DEBUG, ("lwip_close(%d)\n", s));
 615:Middlewares/Third_Party/LwIP/src/api/sockets.c **** 
 616:Middlewares/Third_Party/LwIP/src/api/sockets.c ****   sock = get_socket(s);
 617:Middlewares/Third_Party/LwIP/src/api/sockets.c ****   if (!sock) {
 618:Middlewares/Third_Party/LwIP/src/api/sockets.c ****     return -1;
 619:Middlewares/Third_Party/LwIP/src/api/sockets.c ****   }
 620:Middlewares/Third_Party/LwIP/src/api/sockets.c **** 
 621:Middlewares/Third_Party/LwIP/src/api/sockets.c ****   if (sock->conn != NULL) {
 622:Middlewares/Third_Party/LwIP/src/api/sockets.c ****     is_tcp = NETCONNTYPE_GROUP(netconn_type(sock->conn)) == NETCONN_TCP;
 623:Middlewares/Third_Party/LwIP/src/api/sockets.c ****   } else {
 624:Middlewares/Third_Party/LwIP/src/api/sockets.c ****     LWIP_ASSERT("sock->lastdata == NULL", sock->lastdata == NULL);
 625:Middlewares/Third_Party/LwIP/src/api/sockets.c ****   }
 626:Middlewares/Third_Party/LwIP/src/api/sockets.c **** 
 627:Middlewares/Third_Party/LwIP/src/api/sockets.c **** #if LWIP_IGMP
 628:Middlewares/Third_Party/LwIP/src/api/sockets.c ****   /* drop all possibly joined IGMP memberships */
 629:Middlewares/Third_Party/LwIP/src/api/sockets.c ****   lwip_socket_drop_registered_memberships(s);
 630:Middlewares/Third_Party/LwIP/src/api/sockets.c **** #endif /* LWIP_IGMP */
 631:Middlewares/Third_Party/LwIP/src/api/sockets.c **** 
 632:Middlewares/Third_Party/LwIP/src/api/sockets.c ****   err = netconn_delete(sock->conn);
 633:Middlewares/Third_Party/LwIP/src/api/sockets.c ****   if (err != ERR_OK) {
 634:Middlewares/Third_Party/LwIP/src/api/sockets.c ****     sock_set_errno(sock, err_to_errno(err));
 635:Middlewares/Third_Party/LwIP/src/api/sockets.c ****     return -1;
 636:Middlewares/Third_Party/LwIP/src/api/sockets.c ****   }
 637:Middlewares/Third_Party/LwIP/src/api/sockets.c **** 
 638:Middlewares/Third_Party/LwIP/src/api/sockets.c ****   free_socket(sock, is_tcp);
 639:Middlewares/Third_Party/LwIP/src/api/sockets.c ****   set_errno(0);
 640:Middlewares/Third_Party/LwIP/src/api/sockets.c ****   return 0;
 641:Middlewares/Third_Party/LwIP/src/api/sockets.c **** }
ARM GAS  C:\Users\Student\AppData\Local\Temp\ccf85eJv.s 			page 15


 642:Middlewares/Third_Party/LwIP/src/api/sockets.c **** 
 643:Middlewares/Third_Party/LwIP/src/api/sockets.c **** int
 644:Middlewares/Third_Party/LwIP/src/api/sockets.c **** lwip_connect(int s, const struct sockaddr *name, socklen_t namelen)
 645:Middlewares/Third_Party/LwIP/src/api/sockets.c **** {
 646:Middlewares/Third_Party/LwIP/src/api/sockets.c ****   struct lwip_sock *sock;
 647:Middlewares/Third_Party/LwIP/src/api/sockets.c ****   err_t err;
 648:Middlewares/Third_Party/LwIP/src/api/sockets.c **** 
 649:Middlewares/Third_Party/LwIP/src/api/sockets.c ****   sock = get_socket(s);
 650:Middlewares/Third_Party/LwIP/src/api/sockets.c ****   if (!sock) {
 651:Middlewares/Third_Party/LwIP/src/api/sockets.c ****     return -1;
 652:Middlewares/Third_Party/LwIP/src/api/sockets.c ****   }
 653:Middlewares/Third_Party/LwIP/src/api/sockets.c **** 
 654:Middlewares/Third_Party/LwIP/src/api/sockets.c ****   if (!SOCK_ADDR_TYPE_MATCH_OR_UNSPEC(name, sock)) {
 655:Middlewares/Third_Party/LwIP/src/api/sockets.c ****     /* sockaddr does not match socket type (IPv4/IPv6) */
 656:Middlewares/Third_Party/LwIP/src/api/sockets.c ****     sock_set_errno(sock, err_to_errno(ERR_VAL));
 657:Middlewares/Third_Party/LwIP/src/api/sockets.c ****     return -1;
 658:Middlewares/Third_Party/LwIP/src/api/sockets.c ****   }
 659:Middlewares/Third_Party/LwIP/src/api/sockets.c **** 
 660:Middlewares/Third_Party/LwIP/src/api/sockets.c ****   LWIP_UNUSED_ARG(namelen);
 661:Middlewares/Third_Party/LwIP/src/api/sockets.c ****   if (name->sa_family == AF_UNSPEC) {
 662:Middlewares/Third_Party/LwIP/src/api/sockets.c ****     LWIP_DEBUGF(SOCKETS_DEBUG, ("lwip_connect(%d, AF_UNSPEC)\n", s));
 663:Middlewares/Third_Party/LwIP/src/api/sockets.c ****     err = netconn_disconnect(sock->conn);
 664:Middlewares/Third_Party/LwIP/src/api/sockets.c ****   } else {
 665:Middlewares/Third_Party/LwIP/src/api/sockets.c ****     ip_addr_t remote_addr;
 666:Middlewares/Third_Party/LwIP/src/api/sockets.c ****     u16_t remote_port;
 667:Middlewares/Third_Party/LwIP/src/api/sockets.c **** 
 668:Middlewares/Third_Party/LwIP/src/api/sockets.c ****     /* check size, family and alignment of 'name' */
 669:Middlewares/Third_Party/LwIP/src/api/sockets.c ****     LWIP_ERROR("lwip_connect: invalid address", IS_SOCK_ADDR_LEN_VALID(namelen) &&
 670:Middlewares/Third_Party/LwIP/src/api/sockets.c ****                IS_SOCK_ADDR_TYPE_VALID_OR_UNSPEC(name) && IS_SOCK_ADDR_ALIGNED(name),
 671:Middlewares/Third_Party/LwIP/src/api/sockets.c ****                sock_set_errno(sock, err_to_errno(ERR_ARG)); return -1;);
 672:Middlewares/Third_Party/LwIP/src/api/sockets.c **** 
 673:Middlewares/Third_Party/LwIP/src/api/sockets.c ****     SOCKADDR_TO_IPADDR_PORT(name, &remote_addr, remote_port);
 674:Middlewares/Third_Party/LwIP/src/api/sockets.c ****     LWIP_DEBUGF(SOCKETS_DEBUG, ("lwip_connect(%d, addr=", s));
 675:Middlewares/Third_Party/LwIP/src/api/sockets.c ****     ip_addr_debug_print_val(SOCKETS_DEBUG, remote_addr);
 676:Middlewares/Third_Party/LwIP/src/api/sockets.c ****     LWIP_DEBUGF(SOCKETS_DEBUG, (" port=%"U16_F")\n", remote_port));
 677:Middlewares/Third_Party/LwIP/src/api/sockets.c **** 
 678:Middlewares/Third_Party/LwIP/src/api/sockets.c **** #if LWIP_IPV4 && LWIP_IPV6
 679:Middlewares/Third_Party/LwIP/src/api/sockets.c ****     /* Dual-stack: Unmap IPv4 mapped IPv6 addresses */
 680:Middlewares/Third_Party/LwIP/src/api/sockets.c ****     if (IP_IS_V6_VAL(remote_addr) && ip6_addr_isipv4mappedipv6(ip_2_ip6(&remote_addr))) {
 681:Middlewares/Third_Party/LwIP/src/api/sockets.c ****       unmap_ipv4_mapped_ipv6(ip_2_ip4(&remote_addr), ip_2_ip6(&remote_addr));
 682:Middlewares/Third_Party/LwIP/src/api/sockets.c ****       IP_SET_TYPE_VAL(remote_addr, IPADDR_TYPE_V4);
 683:Middlewares/Third_Party/LwIP/src/api/sockets.c ****     }
 684:Middlewares/Third_Party/LwIP/src/api/sockets.c **** #endif /* LWIP_IPV4 && LWIP_IPV6 */
 685:Middlewares/Third_Party/LwIP/src/api/sockets.c **** 
 686:Middlewares/Third_Party/LwIP/src/api/sockets.c ****     err = netconn_connect(sock->conn, &remote_addr, remote_port);
 687:Middlewares/Third_Party/LwIP/src/api/sockets.c ****   }
 688:Middlewares/Third_Party/LwIP/src/api/sockets.c **** 
 689:Middlewares/Third_Party/LwIP/src/api/sockets.c ****   if (err != ERR_OK) {
 690:Middlewares/Third_Party/LwIP/src/api/sockets.c ****     LWIP_DEBUGF(SOCKETS_DEBUG, ("lwip_connect(%d) failed, err=%d\n", s, err));
 691:Middlewares/Third_Party/LwIP/src/api/sockets.c ****     sock_set_errno(sock, err_to_errno(err));
 692:Middlewares/Third_Party/LwIP/src/api/sockets.c ****     return -1;
 693:Middlewares/Third_Party/LwIP/src/api/sockets.c ****   }
 694:Middlewares/Third_Party/LwIP/src/api/sockets.c **** 
 695:Middlewares/Third_Party/LwIP/src/api/sockets.c ****   LWIP_DEBUGF(SOCKETS_DEBUG, ("lwip_connect(%d) succeeded\n", s));
 696:Middlewares/Third_Party/LwIP/src/api/sockets.c ****   sock_set_errno(sock, 0);
 697:Middlewares/Third_Party/LwIP/src/api/sockets.c ****   return 0;
 698:Middlewares/Third_Party/LwIP/src/api/sockets.c **** }
ARM GAS  C:\Users\Student\AppData\Local\Temp\ccf85eJv.s 			page 16


 699:Middlewares/Third_Party/LwIP/src/api/sockets.c **** 
 700:Middlewares/Third_Party/LwIP/src/api/sockets.c **** /**
 701:Middlewares/Third_Party/LwIP/src/api/sockets.c ****  * Set a socket into listen mode.
 702:Middlewares/Third_Party/LwIP/src/api/sockets.c ****  * The socket may not have been used for another connection previously.
 703:Middlewares/Third_Party/LwIP/src/api/sockets.c ****  *
 704:Middlewares/Third_Party/LwIP/src/api/sockets.c ****  * @param s the socket to set to listening mode
 705:Middlewares/Third_Party/LwIP/src/api/sockets.c ****  * @param backlog (ATTENTION: needs TCP_LISTEN_BACKLOG=1)
 706:Middlewares/Third_Party/LwIP/src/api/sockets.c ****  * @return 0 on success, non-zero on failure
 707:Middlewares/Third_Party/LwIP/src/api/sockets.c ****  */
 708:Middlewares/Third_Party/LwIP/src/api/sockets.c **** int
 709:Middlewares/Third_Party/LwIP/src/api/sockets.c **** lwip_listen(int s, int backlog)
 710:Middlewares/Third_Party/LwIP/src/api/sockets.c **** {
 711:Middlewares/Third_Party/LwIP/src/api/sockets.c ****   struct lwip_sock *sock;
 712:Middlewares/Third_Party/LwIP/src/api/sockets.c ****   err_t err;
 713:Middlewares/Third_Party/LwIP/src/api/sockets.c **** 
 714:Middlewares/Third_Party/LwIP/src/api/sockets.c ****   LWIP_DEBUGF(SOCKETS_DEBUG, ("lwip_listen(%d, backlog=%d)\n", s, backlog));
 715:Middlewares/Third_Party/LwIP/src/api/sockets.c **** 
 716:Middlewares/Third_Party/LwIP/src/api/sockets.c ****   sock = get_socket(s);
 717:Middlewares/Third_Party/LwIP/src/api/sockets.c ****   if (!sock) {
 718:Middlewares/Third_Party/LwIP/src/api/sockets.c ****     return -1;
 719:Middlewares/Third_Party/LwIP/src/api/sockets.c ****   }
 720:Middlewares/Third_Party/LwIP/src/api/sockets.c **** 
 721:Middlewares/Third_Party/LwIP/src/api/sockets.c ****   /* limit the "backlog" parameter to fit in an u8_t */
 722:Middlewares/Third_Party/LwIP/src/api/sockets.c ****   backlog = LWIP_MIN(LWIP_MAX(backlog, 0), 0xff);
 723:Middlewares/Third_Party/LwIP/src/api/sockets.c **** 
 724:Middlewares/Third_Party/LwIP/src/api/sockets.c ****   err = netconn_listen_with_backlog(sock->conn, (u8_t)backlog);
 725:Middlewares/Third_Party/LwIP/src/api/sockets.c **** 
 726:Middlewares/Third_Party/LwIP/src/api/sockets.c ****   if (err != ERR_OK) {
 727:Middlewares/Third_Party/LwIP/src/api/sockets.c ****     LWIP_DEBUGF(SOCKETS_DEBUG, ("lwip_listen(%d) failed, err=%d\n", s, err));
 728:Middlewares/Third_Party/LwIP/src/api/sockets.c ****     if (NETCONNTYPE_GROUP(netconn_type(sock->conn)) != NETCONN_TCP) {
 729:Middlewares/Third_Party/LwIP/src/api/sockets.c ****       sock_set_errno(sock, EOPNOTSUPP);
 730:Middlewares/Third_Party/LwIP/src/api/sockets.c ****       return -1;
 731:Middlewares/Third_Party/LwIP/src/api/sockets.c ****     }
 732:Middlewares/Third_Party/LwIP/src/api/sockets.c ****     sock_set_errno(sock, err_to_errno(err));
 733:Middlewares/Third_Party/LwIP/src/api/sockets.c ****     return -1;
 734:Middlewares/Third_Party/LwIP/src/api/sockets.c ****   }
 735:Middlewares/Third_Party/LwIP/src/api/sockets.c **** 
 736:Middlewares/Third_Party/LwIP/src/api/sockets.c ****   sock_set_errno(sock, 0);
 737:Middlewares/Third_Party/LwIP/src/api/sockets.c ****   return 0;
 738:Middlewares/Third_Party/LwIP/src/api/sockets.c **** }
 739:Middlewares/Third_Party/LwIP/src/api/sockets.c **** 
 740:Middlewares/Third_Party/LwIP/src/api/sockets.c **** int
 741:Middlewares/Third_Party/LwIP/src/api/sockets.c **** lwip_recvfrom(int s, void *mem, size_t len, int flags,
 742:Middlewares/Third_Party/LwIP/src/api/sockets.c ****               struct sockaddr *from, socklen_t *fromlen)
 743:Middlewares/Third_Party/LwIP/src/api/sockets.c **** {
 744:Middlewares/Third_Party/LwIP/src/api/sockets.c ****   struct lwip_sock *sock;
 745:Middlewares/Third_Party/LwIP/src/api/sockets.c ****   void             *buf = NULL;
 746:Middlewares/Third_Party/LwIP/src/api/sockets.c ****   struct pbuf      *p;
 747:Middlewares/Third_Party/LwIP/src/api/sockets.c ****   u16_t            buflen, copylen;
 748:Middlewares/Third_Party/LwIP/src/api/sockets.c ****   int              off = 0;
 749:Middlewares/Third_Party/LwIP/src/api/sockets.c ****   u8_t             done = 0;
 750:Middlewares/Third_Party/LwIP/src/api/sockets.c ****   err_t            err;
 751:Middlewares/Third_Party/LwIP/src/api/sockets.c **** 
 752:Middlewares/Third_Party/LwIP/src/api/sockets.c ****   LWIP_DEBUGF(SOCKETS_DEBUG, ("lwip_recvfrom(%d, %p, %"SZT_F", 0x%x, ..)\n", s, mem, len, flags));
 753:Middlewares/Third_Party/LwIP/src/api/sockets.c ****   sock = get_socket(s);
 754:Middlewares/Third_Party/LwIP/src/api/sockets.c ****   if (!sock) {
 755:Middlewares/Third_Party/LwIP/src/api/sockets.c ****     return -1;
ARM GAS  C:\Users\Student\AppData\Local\Temp\ccf85eJv.s 			page 17


 756:Middlewares/Third_Party/LwIP/src/api/sockets.c ****   }
 757:Middlewares/Third_Party/LwIP/src/api/sockets.c **** 
 758:Middlewares/Third_Party/LwIP/src/api/sockets.c ****   do {
 759:Middlewares/Third_Party/LwIP/src/api/sockets.c ****     LWIP_DEBUGF(SOCKETS_DEBUG, ("lwip_recvfrom: top while sock->lastdata=%p\n", sock->lastdata));
 760:Middlewares/Third_Party/LwIP/src/api/sockets.c ****     /* Check if there is data left from the last recv operation. */
 761:Middlewares/Third_Party/LwIP/src/api/sockets.c ****     if (sock->lastdata) {
 762:Middlewares/Third_Party/LwIP/src/api/sockets.c ****       buf = sock->lastdata;
 763:Middlewares/Third_Party/LwIP/src/api/sockets.c ****     } else {
 764:Middlewares/Third_Party/LwIP/src/api/sockets.c ****       /* If this is non-blocking call, then check first */
 765:Middlewares/Third_Party/LwIP/src/api/sockets.c ****       if (((flags & MSG_DONTWAIT) || netconn_is_nonblocking(sock->conn)) &&
 766:Middlewares/Third_Party/LwIP/src/api/sockets.c ****           (sock->rcvevent <= 0)) {
 767:Middlewares/Third_Party/LwIP/src/api/sockets.c ****         if (off > 0) {
 768:Middlewares/Third_Party/LwIP/src/api/sockets.c ****           /* already received data, return that */
 769:Middlewares/Third_Party/LwIP/src/api/sockets.c ****           sock_set_errno(sock, 0);
 770:Middlewares/Third_Party/LwIP/src/api/sockets.c ****           return off;
 771:Middlewares/Third_Party/LwIP/src/api/sockets.c ****         }
 772:Middlewares/Third_Party/LwIP/src/api/sockets.c ****         LWIP_DEBUGF(SOCKETS_DEBUG, ("lwip_recvfrom(%d): returning EWOULDBLOCK\n", s));
 773:Middlewares/Third_Party/LwIP/src/api/sockets.c ****         set_errno(EWOULDBLOCK);
 774:Middlewares/Third_Party/LwIP/src/api/sockets.c ****         return -1;
 775:Middlewares/Third_Party/LwIP/src/api/sockets.c ****       }
 776:Middlewares/Third_Party/LwIP/src/api/sockets.c **** 
 777:Middlewares/Third_Party/LwIP/src/api/sockets.c ****       /* No data was left from the previous operation, so we try to get
 778:Middlewares/Third_Party/LwIP/src/api/sockets.c ****          some from the network. */
 779:Middlewares/Third_Party/LwIP/src/api/sockets.c ****       if (NETCONNTYPE_GROUP(netconn_type(sock->conn)) == NETCONN_TCP) {
 780:Middlewares/Third_Party/LwIP/src/api/sockets.c ****         err = netconn_recv_tcp_pbuf(sock->conn, (struct pbuf **)&buf);
 781:Middlewares/Third_Party/LwIP/src/api/sockets.c ****       } else {
 782:Middlewares/Third_Party/LwIP/src/api/sockets.c ****         err = netconn_recv(sock->conn, (struct netbuf **)&buf);
 783:Middlewares/Third_Party/LwIP/src/api/sockets.c ****       }
 784:Middlewares/Third_Party/LwIP/src/api/sockets.c ****       LWIP_DEBUGF(SOCKETS_DEBUG, ("lwip_recvfrom: netconn_recv err=%d, netbuf=%p\n",
 785:Middlewares/Third_Party/LwIP/src/api/sockets.c ****         err, buf));
 786:Middlewares/Third_Party/LwIP/src/api/sockets.c **** 
 787:Middlewares/Third_Party/LwIP/src/api/sockets.c ****       if (err != ERR_OK) {
 788:Middlewares/Third_Party/LwIP/src/api/sockets.c ****         if (off > 0) {
 789:Middlewares/Third_Party/LwIP/src/api/sockets.c ****           if (err == ERR_CLSD) {
 790:Middlewares/Third_Party/LwIP/src/api/sockets.c ****             /* closed but already received data, ensure select gets the FIN, too */
 791:Middlewares/Third_Party/LwIP/src/api/sockets.c ****             event_callback(sock->conn, NETCONN_EVT_RCVPLUS, 0);
 792:Middlewares/Third_Party/LwIP/src/api/sockets.c ****           }
 793:Middlewares/Third_Party/LwIP/src/api/sockets.c ****           /* already received data, return that */
 794:Middlewares/Third_Party/LwIP/src/api/sockets.c ****           sock_set_errno(sock, 0);
 795:Middlewares/Third_Party/LwIP/src/api/sockets.c ****           return off;
 796:Middlewares/Third_Party/LwIP/src/api/sockets.c ****         }
 797:Middlewares/Third_Party/LwIP/src/api/sockets.c ****         /* We should really do some error checking here. */
 798:Middlewares/Third_Party/LwIP/src/api/sockets.c ****         LWIP_DEBUGF(SOCKETS_DEBUG, ("lwip_recvfrom(%d): buf == NULL, error is \"%s\"!\n",
 799:Middlewares/Third_Party/LwIP/src/api/sockets.c ****           s, lwip_strerr(err)));
 800:Middlewares/Third_Party/LwIP/src/api/sockets.c ****         sock_set_errno(sock, err_to_errno(err));
 801:Middlewares/Third_Party/LwIP/src/api/sockets.c ****         if (err == ERR_CLSD) {
 802:Middlewares/Third_Party/LwIP/src/api/sockets.c ****           return 0;
 803:Middlewares/Third_Party/LwIP/src/api/sockets.c ****         } else {
 804:Middlewares/Third_Party/LwIP/src/api/sockets.c ****           return -1;
 805:Middlewares/Third_Party/LwIP/src/api/sockets.c ****         }
 806:Middlewares/Third_Party/LwIP/src/api/sockets.c ****       }
 807:Middlewares/Third_Party/LwIP/src/api/sockets.c ****       LWIP_ASSERT("buf != NULL", buf != NULL);
 808:Middlewares/Third_Party/LwIP/src/api/sockets.c ****       sock->lastdata = buf;
 809:Middlewares/Third_Party/LwIP/src/api/sockets.c ****     }
 810:Middlewares/Third_Party/LwIP/src/api/sockets.c **** 
 811:Middlewares/Third_Party/LwIP/src/api/sockets.c ****     if (NETCONNTYPE_GROUP(netconn_type(sock->conn)) == NETCONN_TCP) {
 812:Middlewares/Third_Party/LwIP/src/api/sockets.c ****       p = (struct pbuf *)buf;
ARM GAS  C:\Users\Student\AppData\Local\Temp\ccf85eJv.s 			page 18


 813:Middlewares/Third_Party/LwIP/src/api/sockets.c ****     } else {
 814:Middlewares/Third_Party/LwIP/src/api/sockets.c ****       p = ((struct netbuf *)buf)->p;
 815:Middlewares/Third_Party/LwIP/src/api/sockets.c ****     }
 816:Middlewares/Third_Party/LwIP/src/api/sockets.c ****     buflen = p->tot_len;
 817:Middlewares/Third_Party/LwIP/src/api/sockets.c ****     LWIP_DEBUGF(SOCKETS_DEBUG, ("lwip_recvfrom: buflen=%"U16_F" len=%"SZT_F" off=%d sock->lastoffse
 818:Middlewares/Third_Party/LwIP/src/api/sockets.c ****       buflen, len, off, sock->lastoffset));
 819:Middlewares/Third_Party/LwIP/src/api/sockets.c **** 
 820:Middlewares/Third_Party/LwIP/src/api/sockets.c ****     buflen -= sock->lastoffset;
 821:Middlewares/Third_Party/LwIP/src/api/sockets.c **** 
 822:Middlewares/Third_Party/LwIP/src/api/sockets.c ****     if (len > buflen) {
 823:Middlewares/Third_Party/LwIP/src/api/sockets.c ****       copylen = buflen;
 824:Middlewares/Third_Party/LwIP/src/api/sockets.c ****     } else {
 825:Middlewares/Third_Party/LwIP/src/api/sockets.c ****       copylen = (u16_t)len;
 826:Middlewares/Third_Party/LwIP/src/api/sockets.c ****     }
 827:Middlewares/Third_Party/LwIP/src/api/sockets.c **** 
 828:Middlewares/Third_Party/LwIP/src/api/sockets.c ****     /* copy the contents of the received buffer into
 829:Middlewares/Third_Party/LwIP/src/api/sockets.c ****     the supplied memory pointer mem */
 830:Middlewares/Third_Party/LwIP/src/api/sockets.c ****     pbuf_copy_partial(p, (u8_t*)mem + off, copylen, sock->lastoffset);
 831:Middlewares/Third_Party/LwIP/src/api/sockets.c **** 
 832:Middlewares/Third_Party/LwIP/src/api/sockets.c ****     off += copylen;
 833:Middlewares/Third_Party/LwIP/src/api/sockets.c **** 
 834:Middlewares/Third_Party/LwIP/src/api/sockets.c ****     if (NETCONNTYPE_GROUP(netconn_type(sock->conn)) == NETCONN_TCP) {
 835:Middlewares/Third_Party/LwIP/src/api/sockets.c ****       LWIP_ASSERT("invalid copylen, len would underflow", len >= copylen);
 836:Middlewares/Third_Party/LwIP/src/api/sockets.c ****       len -= copylen;
 837:Middlewares/Third_Party/LwIP/src/api/sockets.c ****       if ((len <= 0) ||
 838:Middlewares/Third_Party/LwIP/src/api/sockets.c ****           (p->flags & PBUF_FLAG_PUSH) ||
 839:Middlewares/Third_Party/LwIP/src/api/sockets.c ****           (sock->rcvevent <= 0) ||
 840:Middlewares/Third_Party/LwIP/src/api/sockets.c ****           ((flags & MSG_PEEK) != 0)) {
 841:Middlewares/Third_Party/LwIP/src/api/sockets.c ****         done = 1;
 842:Middlewares/Third_Party/LwIP/src/api/sockets.c ****       }
 843:Middlewares/Third_Party/LwIP/src/api/sockets.c ****     } else {
 844:Middlewares/Third_Party/LwIP/src/api/sockets.c ****       done = 1;
 845:Middlewares/Third_Party/LwIP/src/api/sockets.c ****     }
 846:Middlewares/Third_Party/LwIP/src/api/sockets.c **** 
 847:Middlewares/Third_Party/LwIP/src/api/sockets.c ****     /* Check to see from where the data was.*/
 848:Middlewares/Third_Party/LwIP/src/api/sockets.c ****     if (done) {
 849:Middlewares/Third_Party/LwIP/src/api/sockets.c **** #if !SOCKETS_DEBUG
 850:Middlewares/Third_Party/LwIP/src/api/sockets.c ****       if (from && fromlen)
 851:Middlewares/Third_Party/LwIP/src/api/sockets.c **** #endif /* !SOCKETS_DEBUG */
 852:Middlewares/Third_Party/LwIP/src/api/sockets.c ****       {
 853:Middlewares/Third_Party/LwIP/src/api/sockets.c ****         u16_t port;
 854:Middlewares/Third_Party/LwIP/src/api/sockets.c ****         ip_addr_t tmpaddr;
 855:Middlewares/Third_Party/LwIP/src/api/sockets.c ****         ip_addr_t *fromaddr;
 856:Middlewares/Third_Party/LwIP/src/api/sockets.c ****         union sockaddr_aligned saddr;
 857:Middlewares/Third_Party/LwIP/src/api/sockets.c ****         LWIP_DEBUGF(SOCKETS_DEBUG, ("lwip_recvfrom(%d): addr=", s));
 858:Middlewares/Third_Party/LwIP/src/api/sockets.c ****         if (NETCONNTYPE_GROUP(netconn_type(sock->conn)) == NETCONN_TCP) {
 859:Middlewares/Third_Party/LwIP/src/api/sockets.c ****           fromaddr = &tmpaddr;
 860:Middlewares/Third_Party/LwIP/src/api/sockets.c ****           netconn_getaddr(sock->conn, fromaddr, &port, 0);
 861:Middlewares/Third_Party/LwIP/src/api/sockets.c ****         } else {
 862:Middlewares/Third_Party/LwIP/src/api/sockets.c ****           port = netbuf_fromport((struct netbuf *)buf);
 863:Middlewares/Third_Party/LwIP/src/api/sockets.c ****           fromaddr = netbuf_fromaddr((struct netbuf *)buf);
 864:Middlewares/Third_Party/LwIP/src/api/sockets.c ****         }
 865:Middlewares/Third_Party/LwIP/src/api/sockets.c **** 
 866:Middlewares/Third_Party/LwIP/src/api/sockets.c **** #if LWIP_IPV4 && LWIP_IPV6
 867:Middlewares/Third_Party/LwIP/src/api/sockets.c ****         /* Dual-stack: Map IPv4 addresses to IPv4 mapped IPv6 */
 868:Middlewares/Third_Party/LwIP/src/api/sockets.c ****         if (NETCONNTYPE_ISIPV6(netconn_type(sock->conn)) && IP_IS_V4(fromaddr)) {
 869:Middlewares/Third_Party/LwIP/src/api/sockets.c ****           ip4_2_ipv4_mapped_ipv6(ip_2_ip6(fromaddr), ip_2_ip4(fromaddr));
ARM GAS  C:\Users\Student\AppData\Local\Temp\ccf85eJv.s 			page 19


 870:Middlewares/Third_Party/LwIP/src/api/sockets.c ****           IP_SET_TYPE(fromaddr, IPADDR_TYPE_V6);
 871:Middlewares/Third_Party/LwIP/src/api/sockets.c ****         }
 872:Middlewares/Third_Party/LwIP/src/api/sockets.c **** #endif /* LWIP_IPV4 && LWIP_IPV6 */
 873:Middlewares/Third_Party/LwIP/src/api/sockets.c **** 
 874:Middlewares/Third_Party/LwIP/src/api/sockets.c ****         IPADDR_PORT_TO_SOCKADDR(&saddr, fromaddr, port);
 875:Middlewares/Third_Party/LwIP/src/api/sockets.c ****         ip_addr_debug_print(SOCKETS_DEBUG, fromaddr);
 876:Middlewares/Third_Party/LwIP/src/api/sockets.c ****         LWIP_DEBUGF(SOCKETS_DEBUG, (" port=%"U16_F" len=%d\n", port, off));
 877:Middlewares/Third_Party/LwIP/src/api/sockets.c **** #if SOCKETS_DEBUG
 878:Middlewares/Third_Party/LwIP/src/api/sockets.c ****         if (from && fromlen)
 879:Middlewares/Third_Party/LwIP/src/api/sockets.c **** #endif /* SOCKETS_DEBUG */
 880:Middlewares/Third_Party/LwIP/src/api/sockets.c ****         {
 881:Middlewares/Third_Party/LwIP/src/api/sockets.c ****           if (*fromlen > saddr.sa.sa_len) {
 882:Middlewares/Third_Party/LwIP/src/api/sockets.c ****             *fromlen = saddr.sa.sa_len;
 883:Middlewares/Third_Party/LwIP/src/api/sockets.c ****           }
 884:Middlewares/Third_Party/LwIP/src/api/sockets.c ****           MEMCPY(from, &saddr, *fromlen);
 885:Middlewares/Third_Party/LwIP/src/api/sockets.c ****         }
 886:Middlewares/Third_Party/LwIP/src/api/sockets.c ****       }
 887:Middlewares/Third_Party/LwIP/src/api/sockets.c ****     }
 888:Middlewares/Third_Party/LwIP/src/api/sockets.c **** 
 889:Middlewares/Third_Party/LwIP/src/api/sockets.c ****     /* If we don't peek the incoming message... */
 890:Middlewares/Third_Party/LwIP/src/api/sockets.c ****     if ((flags & MSG_PEEK) == 0) {
 891:Middlewares/Third_Party/LwIP/src/api/sockets.c ****       /* If this is a TCP socket, check if there is data left in the
 892:Middlewares/Third_Party/LwIP/src/api/sockets.c ****          buffer. If so, it should be saved in the sock structure for next
 893:Middlewares/Third_Party/LwIP/src/api/sockets.c ****          time around. */
 894:Middlewares/Third_Party/LwIP/src/api/sockets.c ****       if ((NETCONNTYPE_GROUP(netconn_type(sock->conn)) == NETCONN_TCP) && (buflen - copylen > 0)) {
 895:Middlewares/Third_Party/LwIP/src/api/sockets.c ****         sock->lastdata = buf;
 896:Middlewares/Third_Party/LwIP/src/api/sockets.c ****         sock->lastoffset += copylen;
 897:Middlewares/Third_Party/LwIP/src/api/sockets.c ****         LWIP_DEBUGF(SOCKETS_DEBUG, ("lwip_recvfrom: lastdata now netbuf=%p\n", buf));
 898:Middlewares/Third_Party/LwIP/src/api/sockets.c ****       } else {
 899:Middlewares/Third_Party/LwIP/src/api/sockets.c ****         sock->lastdata = NULL;
 900:Middlewares/Third_Party/LwIP/src/api/sockets.c ****         sock->lastoffset = 0;
 901:Middlewares/Third_Party/LwIP/src/api/sockets.c ****         LWIP_DEBUGF(SOCKETS_DEBUG, ("lwip_recvfrom: deleting netbuf=%p\n", buf));
 902:Middlewares/Third_Party/LwIP/src/api/sockets.c ****         if (NETCONNTYPE_GROUP(netconn_type(sock->conn)) == NETCONN_TCP) {
 903:Middlewares/Third_Party/LwIP/src/api/sockets.c ****           pbuf_free((struct pbuf *)buf);
 904:Middlewares/Third_Party/LwIP/src/api/sockets.c ****         } else {
 905:Middlewares/Third_Party/LwIP/src/api/sockets.c ****           netbuf_delete((struct netbuf *)buf);
 906:Middlewares/Third_Party/LwIP/src/api/sockets.c ****         }
 907:Middlewares/Third_Party/LwIP/src/api/sockets.c ****         buf = NULL;
 908:Middlewares/Third_Party/LwIP/src/api/sockets.c ****       }
 909:Middlewares/Third_Party/LwIP/src/api/sockets.c ****     }
 910:Middlewares/Third_Party/LwIP/src/api/sockets.c ****   } while (!done);
 911:Middlewares/Third_Party/LwIP/src/api/sockets.c **** 
 912:Middlewares/Third_Party/LwIP/src/api/sockets.c ****   sock_set_errno(sock, 0);
 913:Middlewares/Third_Party/LwIP/src/api/sockets.c ****   return off;
 914:Middlewares/Third_Party/LwIP/src/api/sockets.c **** }
 915:Middlewares/Third_Party/LwIP/src/api/sockets.c **** 
 916:Middlewares/Third_Party/LwIP/src/api/sockets.c **** int
 917:Middlewares/Third_Party/LwIP/src/api/sockets.c **** lwip_read(int s, void *mem, size_t len)
 918:Middlewares/Third_Party/LwIP/src/api/sockets.c **** {
 919:Middlewares/Third_Party/LwIP/src/api/sockets.c ****   return lwip_recvfrom(s, mem, len, 0, NULL, NULL);
 920:Middlewares/Third_Party/LwIP/src/api/sockets.c **** }
 921:Middlewares/Third_Party/LwIP/src/api/sockets.c **** 
 922:Middlewares/Third_Party/LwIP/src/api/sockets.c **** int
 923:Middlewares/Third_Party/LwIP/src/api/sockets.c **** lwip_recv(int s, void *mem, size_t len, int flags)
 924:Middlewares/Third_Party/LwIP/src/api/sockets.c **** {
 925:Middlewares/Third_Party/LwIP/src/api/sockets.c ****   return lwip_recvfrom(s, mem, len, flags, NULL, NULL);
 926:Middlewares/Third_Party/LwIP/src/api/sockets.c **** }
ARM GAS  C:\Users\Student\AppData\Local\Temp\ccf85eJv.s 			page 20


 927:Middlewares/Third_Party/LwIP/src/api/sockets.c **** 
 928:Middlewares/Third_Party/LwIP/src/api/sockets.c **** int
 929:Middlewares/Third_Party/LwIP/src/api/sockets.c **** lwip_send(int s, const void *data, size_t size, int flags)
 930:Middlewares/Third_Party/LwIP/src/api/sockets.c **** {
 931:Middlewares/Third_Party/LwIP/src/api/sockets.c ****   struct lwip_sock *sock;
 932:Middlewares/Third_Party/LwIP/src/api/sockets.c ****   err_t err;
 933:Middlewares/Third_Party/LwIP/src/api/sockets.c ****   u8_t write_flags;
 934:Middlewares/Third_Party/LwIP/src/api/sockets.c ****   size_t written;
 935:Middlewares/Third_Party/LwIP/src/api/sockets.c **** 
 936:Middlewares/Third_Party/LwIP/src/api/sockets.c ****   LWIP_DEBUGF(SOCKETS_DEBUG, ("lwip_send(%d, data=%p, size=%"SZT_F", flags=0x%x)\n",
 937:Middlewares/Third_Party/LwIP/src/api/sockets.c ****                               s, data, size, flags));
 938:Middlewares/Third_Party/LwIP/src/api/sockets.c **** 
 939:Middlewares/Third_Party/LwIP/src/api/sockets.c ****   sock = get_socket(s);
 940:Middlewares/Third_Party/LwIP/src/api/sockets.c ****   if (!sock) {
 941:Middlewares/Third_Party/LwIP/src/api/sockets.c ****     return -1;
 942:Middlewares/Third_Party/LwIP/src/api/sockets.c ****   }
 943:Middlewares/Third_Party/LwIP/src/api/sockets.c **** 
 944:Middlewares/Third_Party/LwIP/src/api/sockets.c ****   if (NETCONNTYPE_GROUP(netconn_type(sock->conn)) != NETCONN_TCP) {
 945:Middlewares/Third_Party/LwIP/src/api/sockets.c **** #if (LWIP_UDP || LWIP_RAW)
 946:Middlewares/Third_Party/LwIP/src/api/sockets.c ****     return lwip_sendto(s, data, size, flags, NULL, 0);
 947:Middlewares/Third_Party/LwIP/src/api/sockets.c **** #else /* (LWIP_UDP || LWIP_RAW) */
 948:Middlewares/Third_Party/LwIP/src/api/sockets.c ****     sock_set_errno(sock, err_to_errno(ERR_ARG));
 949:Middlewares/Third_Party/LwIP/src/api/sockets.c ****     return -1;
 950:Middlewares/Third_Party/LwIP/src/api/sockets.c **** #endif /* (LWIP_UDP || LWIP_RAW) */
 951:Middlewares/Third_Party/LwIP/src/api/sockets.c ****   }
 952:Middlewares/Third_Party/LwIP/src/api/sockets.c **** 
 953:Middlewares/Third_Party/LwIP/src/api/sockets.c ****   write_flags = NETCONN_COPY |
 954:Middlewares/Third_Party/LwIP/src/api/sockets.c ****     ((flags & MSG_MORE)     ? NETCONN_MORE      : 0) |
 955:Middlewares/Third_Party/LwIP/src/api/sockets.c ****     ((flags & MSG_DONTWAIT) ? NETCONN_DONTBLOCK : 0);
 956:Middlewares/Third_Party/LwIP/src/api/sockets.c ****   written = 0;
 957:Middlewares/Third_Party/LwIP/src/api/sockets.c ****   err = netconn_write_partly(sock->conn, data, size, write_flags, &written);
 958:Middlewares/Third_Party/LwIP/src/api/sockets.c **** 
 959:Middlewares/Third_Party/LwIP/src/api/sockets.c ****   LWIP_DEBUGF(SOCKETS_DEBUG, ("lwip_send(%d) err=%d written=%"SZT_F"\n", s, err, written));
 960:Middlewares/Third_Party/LwIP/src/api/sockets.c ****   sock_set_errno(sock, err_to_errno(err));
 961:Middlewares/Third_Party/LwIP/src/api/sockets.c ****   return (err == ERR_OK ? (int)written : -1);
 962:Middlewares/Third_Party/LwIP/src/api/sockets.c **** }
 963:Middlewares/Third_Party/LwIP/src/api/sockets.c **** 
 964:Middlewares/Third_Party/LwIP/src/api/sockets.c **** int
 965:Middlewares/Third_Party/LwIP/src/api/sockets.c **** lwip_sendmsg(int s, const struct msghdr *msg, int flags)
 966:Middlewares/Third_Party/LwIP/src/api/sockets.c **** {
 967:Middlewares/Third_Party/LwIP/src/api/sockets.c ****   struct lwip_sock *sock;
 968:Middlewares/Third_Party/LwIP/src/api/sockets.c ****   int i;
 969:Middlewares/Third_Party/LwIP/src/api/sockets.c **** #if LWIP_TCP
 970:Middlewares/Third_Party/LwIP/src/api/sockets.c ****   u8_t write_flags;
 971:Middlewares/Third_Party/LwIP/src/api/sockets.c ****   size_t written;
 972:Middlewares/Third_Party/LwIP/src/api/sockets.c **** #endif
 973:Middlewares/Third_Party/LwIP/src/api/sockets.c ****   int size = 0;
 974:Middlewares/Third_Party/LwIP/src/api/sockets.c ****   err_t err = ERR_OK;
 975:Middlewares/Third_Party/LwIP/src/api/sockets.c **** 
 976:Middlewares/Third_Party/LwIP/src/api/sockets.c ****   sock = get_socket(s);
 977:Middlewares/Third_Party/LwIP/src/api/sockets.c ****   if (!sock) {
 978:Middlewares/Third_Party/LwIP/src/api/sockets.c ****     return -1;
 979:Middlewares/Third_Party/LwIP/src/api/sockets.c ****   }
 980:Middlewares/Third_Party/LwIP/src/api/sockets.c **** 
 981:Middlewares/Third_Party/LwIP/src/api/sockets.c ****   LWIP_ERROR("lwip_sendmsg: invalid msghdr", msg != NULL,
 982:Middlewares/Third_Party/LwIP/src/api/sockets.c ****              sock_set_errno(sock, err_to_errno(ERR_ARG)); return -1;);
 983:Middlewares/Third_Party/LwIP/src/api/sockets.c **** 
ARM GAS  C:\Users\Student\AppData\Local\Temp\ccf85eJv.s 			page 21


 984:Middlewares/Third_Party/LwIP/src/api/sockets.c ****   LWIP_UNUSED_ARG(msg->msg_control);
 985:Middlewares/Third_Party/LwIP/src/api/sockets.c ****   LWIP_UNUSED_ARG(msg->msg_controllen);
 986:Middlewares/Third_Party/LwIP/src/api/sockets.c ****   LWIP_UNUSED_ARG(msg->msg_flags);
 987:Middlewares/Third_Party/LwIP/src/api/sockets.c ****   LWIP_ERROR("lwip_sendmsg: invalid msghdr iov", (msg->msg_iov != NULL && msg->msg_iovlen != 0),
 988:Middlewares/Third_Party/LwIP/src/api/sockets.c ****              sock_set_errno(sock, err_to_errno(ERR_ARG)); return -1;);
 989:Middlewares/Third_Party/LwIP/src/api/sockets.c **** 
 990:Middlewares/Third_Party/LwIP/src/api/sockets.c ****   if (NETCONNTYPE_GROUP(netconn_type(sock->conn)) == NETCONN_TCP) {
 991:Middlewares/Third_Party/LwIP/src/api/sockets.c **** #if LWIP_TCP
 992:Middlewares/Third_Party/LwIP/src/api/sockets.c ****     write_flags = NETCONN_COPY |
 993:Middlewares/Third_Party/LwIP/src/api/sockets.c ****     ((flags & MSG_MORE)     ? NETCONN_MORE      : 0) |
 994:Middlewares/Third_Party/LwIP/src/api/sockets.c ****     ((flags & MSG_DONTWAIT) ? NETCONN_DONTBLOCK : 0);
 995:Middlewares/Third_Party/LwIP/src/api/sockets.c **** 
 996:Middlewares/Third_Party/LwIP/src/api/sockets.c ****     for (i = 0; i < msg->msg_iovlen; i++) {
 997:Middlewares/Third_Party/LwIP/src/api/sockets.c ****       u8_t apiflags = write_flags;
 998:Middlewares/Third_Party/LwIP/src/api/sockets.c ****       if (i + 1 < msg->msg_iovlen) {
 999:Middlewares/Third_Party/LwIP/src/api/sockets.c ****         apiflags |= NETCONN_MORE;
1000:Middlewares/Third_Party/LwIP/src/api/sockets.c ****       }
1001:Middlewares/Third_Party/LwIP/src/api/sockets.c ****       written = 0;
1002:Middlewares/Third_Party/LwIP/src/api/sockets.c ****       err = netconn_write_partly(sock->conn, msg->msg_iov[i].iov_base, msg->msg_iov[i].iov_len, wri
1003:Middlewares/Third_Party/LwIP/src/api/sockets.c ****       if (err == ERR_OK) {
1004:Middlewares/Third_Party/LwIP/src/api/sockets.c ****         size += written;
1005:Middlewares/Third_Party/LwIP/src/api/sockets.c ****         /* check that the entire IO vector was accepected, if not return a partial write */
1006:Middlewares/Third_Party/LwIP/src/api/sockets.c ****         if (written != msg->msg_iov[i].iov_len)
1007:Middlewares/Third_Party/LwIP/src/api/sockets.c ****           break;
1008:Middlewares/Third_Party/LwIP/src/api/sockets.c ****       }
1009:Middlewares/Third_Party/LwIP/src/api/sockets.c ****       /* none of this IO vector was accepted, but previous was, return partial write and conceal ER
1010:Middlewares/Third_Party/LwIP/src/api/sockets.c ****       else if (err == ERR_WOULDBLOCK && size > 0) {
1011:Middlewares/Third_Party/LwIP/src/api/sockets.c ****         err = ERR_OK;
1012:Middlewares/Third_Party/LwIP/src/api/sockets.c ****         /* let ERR_WOULDBLOCK persist on the netconn since we are returning ERR_OK */
1013:Middlewares/Third_Party/LwIP/src/api/sockets.c ****         break;
1014:Middlewares/Third_Party/LwIP/src/api/sockets.c ****       } else {
1015:Middlewares/Third_Party/LwIP/src/api/sockets.c ****         size = -1;
1016:Middlewares/Third_Party/LwIP/src/api/sockets.c ****         break;
1017:Middlewares/Third_Party/LwIP/src/api/sockets.c ****       }
1018:Middlewares/Third_Party/LwIP/src/api/sockets.c ****     }
1019:Middlewares/Third_Party/LwIP/src/api/sockets.c ****     sock_set_errno(sock, err_to_errno(err));
1020:Middlewares/Third_Party/LwIP/src/api/sockets.c ****     return size;
1021:Middlewares/Third_Party/LwIP/src/api/sockets.c **** #else /* LWIP_TCP */
1022:Middlewares/Third_Party/LwIP/src/api/sockets.c ****     sock_set_errno(sock, err_to_errno(ERR_ARG));
1023:Middlewares/Third_Party/LwIP/src/api/sockets.c ****     return -1;
1024:Middlewares/Third_Party/LwIP/src/api/sockets.c **** #endif /* LWIP_TCP */
1025:Middlewares/Third_Party/LwIP/src/api/sockets.c ****   }
1026:Middlewares/Third_Party/LwIP/src/api/sockets.c ****   /* else, UDP and RAW NETCONNs */
1027:Middlewares/Third_Party/LwIP/src/api/sockets.c **** #if LWIP_UDP || LWIP_RAW
1028:Middlewares/Third_Party/LwIP/src/api/sockets.c ****   {
1029:Middlewares/Third_Party/LwIP/src/api/sockets.c ****     struct netbuf *chain_buf;
1030:Middlewares/Third_Party/LwIP/src/api/sockets.c **** 
1031:Middlewares/Third_Party/LwIP/src/api/sockets.c ****     LWIP_UNUSED_ARG(flags);
1032:Middlewares/Third_Party/LwIP/src/api/sockets.c ****     LWIP_ERROR("lwip_sendmsg: invalid msghdr name", (((msg->msg_name == NULL) && (msg->msg_namelen 
1033:Middlewares/Third_Party/LwIP/src/api/sockets.c ****                IS_SOCK_ADDR_LEN_VALID(msg->msg_namelen)) ,
1034:Middlewares/Third_Party/LwIP/src/api/sockets.c ****                sock_set_errno(sock, err_to_errno(ERR_ARG)); return -1;);
1035:Middlewares/Third_Party/LwIP/src/api/sockets.c **** 
1036:Middlewares/Third_Party/LwIP/src/api/sockets.c ****     /* initialize chain buffer with destination */
1037:Middlewares/Third_Party/LwIP/src/api/sockets.c ****     chain_buf = netbuf_new();
1038:Middlewares/Third_Party/LwIP/src/api/sockets.c ****     if (!chain_buf) {
1039:Middlewares/Third_Party/LwIP/src/api/sockets.c ****       sock_set_errno(sock, err_to_errno(ERR_MEM));
1040:Middlewares/Third_Party/LwIP/src/api/sockets.c ****       return -1;
ARM GAS  C:\Users\Student\AppData\Local\Temp\ccf85eJv.s 			page 22


1041:Middlewares/Third_Party/LwIP/src/api/sockets.c ****     }
1042:Middlewares/Third_Party/LwIP/src/api/sockets.c ****     if (msg->msg_name) {
1043:Middlewares/Third_Party/LwIP/src/api/sockets.c ****       u16_t remote_port;
1044:Middlewares/Third_Party/LwIP/src/api/sockets.c ****       SOCKADDR_TO_IPADDR_PORT((const struct sockaddr *)msg->msg_name, &chain_buf->addr, remote_port
1045:Middlewares/Third_Party/LwIP/src/api/sockets.c ****       netbuf_fromport(chain_buf) = remote_port;
1046:Middlewares/Third_Party/LwIP/src/api/sockets.c ****     }
1047:Middlewares/Third_Party/LwIP/src/api/sockets.c **** #if LWIP_NETIF_TX_SINGLE_PBUF
1048:Middlewares/Third_Party/LwIP/src/api/sockets.c ****     for (i = 0; i < msg->msg_iovlen; i++) {
1049:Middlewares/Third_Party/LwIP/src/api/sockets.c ****       size += msg->msg_iov[i].iov_len;
1050:Middlewares/Third_Party/LwIP/src/api/sockets.c ****     }
1051:Middlewares/Third_Party/LwIP/src/api/sockets.c ****     /* Allocate a new netbuf and copy the data into it. */
1052:Middlewares/Third_Party/LwIP/src/api/sockets.c ****     if (netbuf_alloc(chain_buf, (u16_t)size) == NULL) {
1053:Middlewares/Third_Party/LwIP/src/api/sockets.c ****        err = ERR_MEM;
1054:Middlewares/Third_Party/LwIP/src/api/sockets.c ****     } else {
1055:Middlewares/Third_Party/LwIP/src/api/sockets.c ****       /* flatten the IO vectors */
1056:Middlewares/Third_Party/LwIP/src/api/sockets.c ****       size_t offset = 0;
1057:Middlewares/Third_Party/LwIP/src/api/sockets.c ****       for (i = 0; i < msg->msg_iovlen; i++) {
1058:Middlewares/Third_Party/LwIP/src/api/sockets.c ****         MEMCPY(&((u8_t*)chain_buf->p->payload)[offset], msg->msg_iov[i].iov_base, msg->msg_iov[i].i
1059:Middlewares/Third_Party/LwIP/src/api/sockets.c ****         offset += msg->msg_iov[i].iov_len;
1060:Middlewares/Third_Party/LwIP/src/api/sockets.c ****       }
1061:Middlewares/Third_Party/LwIP/src/api/sockets.c **** #if LWIP_CHECKSUM_ON_COPY
1062:Middlewares/Third_Party/LwIP/src/api/sockets.c ****       {
1063:Middlewares/Third_Party/LwIP/src/api/sockets.c ****         /* This can be improved by using LWIP_CHKSUM_COPY() and aggregating the checksum for each I
1064:Middlewares/Third_Party/LwIP/src/api/sockets.c ****         u16_t chksum = ~inet_chksum_pbuf(chain_buf->p);
1065:Middlewares/Third_Party/LwIP/src/api/sockets.c ****         netbuf_set_chksum(chain_buf, chksum);
1066:Middlewares/Third_Party/LwIP/src/api/sockets.c ****       }
1067:Middlewares/Third_Party/LwIP/src/api/sockets.c **** #endif /* LWIP_CHECKSUM_ON_COPY */
1068:Middlewares/Third_Party/LwIP/src/api/sockets.c ****       err = ERR_OK;
1069:Middlewares/Third_Party/LwIP/src/api/sockets.c ****     }
1070:Middlewares/Third_Party/LwIP/src/api/sockets.c **** #else /* LWIP_NETIF_TX_SINGLE_PBUF */
1071:Middlewares/Third_Party/LwIP/src/api/sockets.c ****     /* create a chained netbuf from the IO vectors. NOTE: we assemble a pbuf chain
1072:Middlewares/Third_Party/LwIP/src/api/sockets.c ****        manually to avoid having to allocate, chain, and delete a netbuf for each iov */
1073:Middlewares/Third_Party/LwIP/src/api/sockets.c ****     for (i = 0; i < msg->msg_iovlen; i++) {
1074:Middlewares/Third_Party/LwIP/src/api/sockets.c ****       struct pbuf *p = pbuf_alloc(PBUF_TRANSPORT, 0, PBUF_REF);
1075:Middlewares/Third_Party/LwIP/src/api/sockets.c ****       if (p == NULL) {
1076:Middlewares/Third_Party/LwIP/src/api/sockets.c ****         err = ERR_MEM; /* let netbuf_delete() cleanup chain_buf */
1077:Middlewares/Third_Party/LwIP/src/api/sockets.c ****         break;
1078:Middlewares/Third_Party/LwIP/src/api/sockets.c ****       }
1079:Middlewares/Third_Party/LwIP/src/api/sockets.c ****       p->payload = msg->msg_iov[i].iov_base;
1080:Middlewares/Third_Party/LwIP/src/api/sockets.c ****       LWIP_ASSERT("iov_len < u16_t", msg->msg_iov[i].iov_len <= 0xFFFF);
1081:Middlewares/Third_Party/LwIP/src/api/sockets.c ****       p->len = p->tot_len = (u16_t)msg->msg_iov[i].iov_len;
1082:Middlewares/Third_Party/LwIP/src/api/sockets.c ****       /* netbuf empty, add new pbuf */
1083:Middlewares/Third_Party/LwIP/src/api/sockets.c ****       if (chain_buf->p == NULL) {
1084:Middlewares/Third_Party/LwIP/src/api/sockets.c ****         chain_buf->p = chain_buf->ptr = p;
1085:Middlewares/Third_Party/LwIP/src/api/sockets.c ****         /* add pbuf to existing pbuf chain */
1086:Middlewares/Third_Party/LwIP/src/api/sockets.c ****       } else {
1087:Middlewares/Third_Party/LwIP/src/api/sockets.c ****         pbuf_cat(chain_buf->p, p);
1088:Middlewares/Third_Party/LwIP/src/api/sockets.c ****       }
1089:Middlewares/Third_Party/LwIP/src/api/sockets.c ****     }
1090:Middlewares/Third_Party/LwIP/src/api/sockets.c ****     /* save size of total chain */
1091:Middlewares/Third_Party/LwIP/src/api/sockets.c ****     if (err == ERR_OK) {
1092:Middlewares/Third_Party/LwIP/src/api/sockets.c ****       size = netbuf_len(chain_buf);
1093:Middlewares/Third_Party/LwIP/src/api/sockets.c ****     }
1094:Middlewares/Third_Party/LwIP/src/api/sockets.c **** #endif /* LWIP_NETIF_TX_SINGLE_PBUF */
1095:Middlewares/Third_Party/LwIP/src/api/sockets.c **** 
1096:Middlewares/Third_Party/LwIP/src/api/sockets.c ****     if (err == ERR_OK) {
1097:Middlewares/Third_Party/LwIP/src/api/sockets.c **** #if LWIP_IPV4 && LWIP_IPV6
ARM GAS  C:\Users\Student\AppData\Local\Temp\ccf85eJv.s 			page 23


1098:Middlewares/Third_Party/LwIP/src/api/sockets.c ****       /* Dual-stack: Unmap IPv4 mapped IPv6 addresses */
1099:Middlewares/Third_Party/LwIP/src/api/sockets.c ****       if (IP_IS_V6_VAL(chain_buf->addr) && ip6_addr_isipv4mappedipv6(ip_2_ip6(&chain_buf->addr))) {
1100:Middlewares/Third_Party/LwIP/src/api/sockets.c ****         unmap_ipv4_mapped_ipv6(ip_2_ip4(&chain_buf->addr), ip_2_ip6(&chain_buf->addr));
1101:Middlewares/Third_Party/LwIP/src/api/sockets.c ****         IP_SET_TYPE_VAL(chain_buf->addr, IPADDR_TYPE_V4);
1102:Middlewares/Third_Party/LwIP/src/api/sockets.c ****       }
1103:Middlewares/Third_Party/LwIP/src/api/sockets.c **** #endif /* LWIP_IPV4 && LWIP_IPV6 */
1104:Middlewares/Third_Party/LwIP/src/api/sockets.c **** 
1105:Middlewares/Third_Party/LwIP/src/api/sockets.c ****       /* send the data */
1106:Middlewares/Third_Party/LwIP/src/api/sockets.c ****       err = netconn_send(sock->conn, chain_buf);
1107:Middlewares/Third_Party/LwIP/src/api/sockets.c ****     }
1108:Middlewares/Third_Party/LwIP/src/api/sockets.c **** 
1109:Middlewares/Third_Party/LwIP/src/api/sockets.c ****     /* deallocated the buffer */
1110:Middlewares/Third_Party/LwIP/src/api/sockets.c ****     netbuf_delete(chain_buf);
1111:Middlewares/Third_Party/LwIP/src/api/sockets.c **** 
1112:Middlewares/Third_Party/LwIP/src/api/sockets.c ****     sock_set_errno(sock, err_to_errno(err));
1113:Middlewares/Third_Party/LwIP/src/api/sockets.c ****     return (err == ERR_OK ? size : -1);
1114:Middlewares/Third_Party/LwIP/src/api/sockets.c ****   }
1115:Middlewares/Third_Party/LwIP/src/api/sockets.c **** #else /* LWIP_UDP || LWIP_RAW */
1116:Middlewares/Third_Party/LwIP/src/api/sockets.c ****   sock_set_errno(sock, err_to_errno(ERR_ARG));
1117:Middlewares/Third_Party/LwIP/src/api/sockets.c ****   return -1;
1118:Middlewares/Third_Party/LwIP/src/api/sockets.c **** #endif /* LWIP_UDP || LWIP_RAW */
1119:Middlewares/Third_Party/LwIP/src/api/sockets.c **** }
1120:Middlewares/Third_Party/LwIP/src/api/sockets.c **** 
1121:Middlewares/Third_Party/LwIP/src/api/sockets.c **** int
1122:Middlewares/Third_Party/LwIP/src/api/sockets.c **** lwip_sendto(int s, const void *data, size_t size, int flags,
1123:Middlewares/Third_Party/LwIP/src/api/sockets.c ****        const struct sockaddr *to, socklen_t tolen)
1124:Middlewares/Third_Party/LwIP/src/api/sockets.c **** {
1125:Middlewares/Third_Party/LwIP/src/api/sockets.c ****   struct lwip_sock *sock;
1126:Middlewares/Third_Party/LwIP/src/api/sockets.c ****   err_t err;
1127:Middlewares/Third_Party/LwIP/src/api/sockets.c ****   u16_t short_size;
1128:Middlewares/Third_Party/LwIP/src/api/sockets.c ****   u16_t remote_port;
1129:Middlewares/Third_Party/LwIP/src/api/sockets.c ****   struct netbuf buf;
1130:Middlewares/Third_Party/LwIP/src/api/sockets.c **** 
1131:Middlewares/Third_Party/LwIP/src/api/sockets.c ****   sock = get_socket(s);
1132:Middlewares/Third_Party/LwIP/src/api/sockets.c ****   if (!sock) {
1133:Middlewares/Third_Party/LwIP/src/api/sockets.c ****     return -1;
1134:Middlewares/Third_Party/LwIP/src/api/sockets.c ****   }
1135:Middlewares/Third_Party/LwIP/src/api/sockets.c **** 
1136:Middlewares/Third_Party/LwIP/src/api/sockets.c ****   if (NETCONNTYPE_GROUP(netconn_type(sock->conn)) == NETCONN_TCP) {
1137:Middlewares/Third_Party/LwIP/src/api/sockets.c **** #if LWIP_TCP
1138:Middlewares/Third_Party/LwIP/src/api/sockets.c ****     return lwip_send(s, data, size, flags);
1139:Middlewares/Third_Party/LwIP/src/api/sockets.c **** #else /* LWIP_TCP */
1140:Middlewares/Third_Party/LwIP/src/api/sockets.c ****     LWIP_UNUSED_ARG(flags);
1141:Middlewares/Third_Party/LwIP/src/api/sockets.c ****     sock_set_errno(sock, err_to_errno(ERR_ARG));
1142:Middlewares/Third_Party/LwIP/src/api/sockets.c ****     return -1;
1143:Middlewares/Third_Party/LwIP/src/api/sockets.c **** #endif /* LWIP_TCP */
1144:Middlewares/Third_Party/LwIP/src/api/sockets.c ****   }
1145:Middlewares/Third_Party/LwIP/src/api/sockets.c **** 
1146:Middlewares/Third_Party/LwIP/src/api/sockets.c ****   /* @todo: split into multiple sendto's? */
1147:Middlewares/Third_Party/LwIP/src/api/sockets.c ****   LWIP_ASSERT("lwip_sendto: size must fit in u16_t", size <= 0xffff);
1148:Middlewares/Third_Party/LwIP/src/api/sockets.c ****   short_size = (u16_t)size;
1149:Middlewares/Third_Party/LwIP/src/api/sockets.c ****   LWIP_ERROR("lwip_sendto: invalid address", (((to == NULL) && (tolen == 0)) ||
1150:Middlewares/Third_Party/LwIP/src/api/sockets.c ****              (IS_SOCK_ADDR_LEN_VALID(tolen) &&
1151:Middlewares/Third_Party/LwIP/src/api/sockets.c ****              IS_SOCK_ADDR_TYPE_VALID(to) && IS_SOCK_ADDR_ALIGNED(to))),
1152:Middlewares/Third_Party/LwIP/src/api/sockets.c ****              sock_set_errno(sock, err_to_errno(ERR_ARG)); return -1;);
1153:Middlewares/Third_Party/LwIP/src/api/sockets.c ****   LWIP_UNUSED_ARG(tolen);
1154:Middlewares/Third_Party/LwIP/src/api/sockets.c **** 
ARM GAS  C:\Users\Student\AppData\Local\Temp\ccf85eJv.s 			page 24


1155:Middlewares/Third_Party/LwIP/src/api/sockets.c ****   /* initialize a buffer */
1156:Middlewares/Third_Party/LwIP/src/api/sockets.c ****   buf.p = buf.ptr = NULL;
1157:Middlewares/Third_Party/LwIP/src/api/sockets.c **** #if LWIP_CHECKSUM_ON_COPY
1158:Middlewares/Third_Party/LwIP/src/api/sockets.c ****   buf.flags = 0;
1159:Middlewares/Third_Party/LwIP/src/api/sockets.c **** #endif /* LWIP_CHECKSUM_ON_COPY */
1160:Middlewares/Third_Party/LwIP/src/api/sockets.c ****   if (to) {
1161:Middlewares/Third_Party/LwIP/src/api/sockets.c ****     SOCKADDR_TO_IPADDR_PORT(to, &buf.addr, remote_port);
1162:Middlewares/Third_Party/LwIP/src/api/sockets.c ****   } else {
1163:Middlewares/Third_Party/LwIP/src/api/sockets.c ****     remote_port = 0;
1164:Middlewares/Third_Party/LwIP/src/api/sockets.c ****     ip_addr_set_any(NETCONNTYPE_ISIPV6(netconn_type(sock->conn)), &buf.addr);
1165:Middlewares/Third_Party/LwIP/src/api/sockets.c ****   }
1166:Middlewares/Third_Party/LwIP/src/api/sockets.c ****   netbuf_fromport(&buf) = remote_port;
1167:Middlewares/Third_Party/LwIP/src/api/sockets.c **** 
1168:Middlewares/Third_Party/LwIP/src/api/sockets.c **** 
1169:Middlewares/Third_Party/LwIP/src/api/sockets.c ****   LWIP_DEBUGF(SOCKETS_DEBUG, ("lwip_sendto(%d, data=%p, short_size=%"U16_F", flags=0x%x to=",
1170:Middlewares/Third_Party/LwIP/src/api/sockets.c ****               s, data, short_size, flags));
1171:Middlewares/Third_Party/LwIP/src/api/sockets.c ****   ip_addr_debug_print(SOCKETS_DEBUG, &buf.addr);
1172:Middlewares/Third_Party/LwIP/src/api/sockets.c ****   LWIP_DEBUGF(SOCKETS_DEBUG, (" port=%"U16_F"\n", remote_port));
1173:Middlewares/Third_Party/LwIP/src/api/sockets.c **** 
1174:Middlewares/Third_Party/LwIP/src/api/sockets.c ****   /* make the buffer point to the data that should be sent */
1175:Middlewares/Third_Party/LwIP/src/api/sockets.c **** #if LWIP_NETIF_TX_SINGLE_PBUF
1176:Middlewares/Third_Party/LwIP/src/api/sockets.c ****   /* Allocate a new netbuf and copy the data into it. */
1177:Middlewares/Third_Party/LwIP/src/api/sockets.c ****   if (netbuf_alloc(&buf, short_size) == NULL) {
1178:Middlewares/Third_Party/LwIP/src/api/sockets.c ****     err = ERR_MEM;
1179:Middlewares/Third_Party/LwIP/src/api/sockets.c ****   } else {
1180:Middlewares/Third_Party/LwIP/src/api/sockets.c **** #if LWIP_CHECKSUM_ON_COPY
1181:Middlewares/Third_Party/LwIP/src/api/sockets.c ****     if (NETCONNTYPE_GROUP(netconn_type(sock->conn)) != NETCONN_RAW) {
1182:Middlewares/Third_Party/LwIP/src/api/sockets.c ****       u16_t chksum = LWIP_CHKSUM_COPY(buf.p->payload, data, short_size);
1183:Middlewares/Third_Party/LwIP/src/api/sockets.c ****       netbuf_set_chksum(&buf, chksum);
1184:Middlewares/Third_Party/LwIP/src/api/sockets.c ****     } else
1185:Middlewares/Third_Party/LwIP/src/api/sockets.c **** #endif /* LWIP_CHECKSUM_ON_COPY */
1186:Middlewares/Third_Party/LwIP/src/api/sockets.c ****     {
1187:Middlewares/Third_Party/LwIP/src/api/sockets.c ****       MEMCPY(buf.p->payload, data, short_size);
1188:Middlewares/Third_Party/LwIP/src/api/sockets.c ****     }
1189:Middlewares/Third_Party/LwIP/src/api/sockets.c ****     err = ERR_OK;
1190:Middlewares/Third_Party/LwIP/src/api/sockets.c ****   }
1191:Middlewares/Third_Party/LwIP/src/api/sockets.c **** #else /* LWIP_NETIF_TX_SINGLE_PBUF */
1192:Middlewares/Third_Party/LwIP/src/api/sockets.c ****   err = netbuf_ref(&buf, data, short_size);
1193:Middlewares/Third_Party/LwIP/src/api/sockets.c **** #endif /* LWIP_NETIF_TX_SINGLE_PBUF */
1194:Middlewares/Third_Party/LwIP/src/api/sockets.c ****   if (err == ERR_OK) {
1195:Middlewares/Third_Party/LwIP/src/api/sockets.c **** #if LWIP_IPV4 && LWIP_IPV6
1196:Middlewares/Third_Party/LwIP/src/api/sockets.c ****     /* Dual-stack: Unmap IPv4 mapped IPv6 addresses */
1197:Middlewares/Third_Party/LwIP/src/api/sockets.c ****     if (IP_IS_V6_VAL(buf.addr) && ip6_addr_isipv4mappedipv6(ip_2_ip6(&buf.addr))) {
1198:Middlewares/Third_Party/LwIP/src/api/sockets.c ****       unmap_ipv4_mapped_ipv6(ip_2_ip4(&buf.addr), ip_2_ip6(&buf.addr));
1199:Middlewares/Third_Party/LwIP/src/api/sockets.c ****       IP_SET_TYPE_VAL(buf.addr, IPADDR_TYPE_V4);
1200:Middlewares/Third_Party/LwIP/src/api/sockets.c ****     }
1201:Middlewares/Third_Party/LwIP/src/api/sockets.c **** #endif /* LWIP_IPV4 && LWIP_IPV6 */
1202:Middlewares/Third_Party/LwIP/src/api/sockets.c **** 
1203:Middlewares/Third_Party/LwIP/src/api/sockets.c ****     /* send the data */
1204:Middlewares/Third_Party/LwIP/src/api/sockets.c ****     err = netconn_send(sock->conn, &buf);
1205:Middlewares/Third_Party/LwIP/src/api/sockets.c ****   }
1206:Middlewares/Third_Party/LwIP/src/api/sockets.c **** 
1207:Middlewares/Third_Party/LwIP/src/api/sockets.c ****   /* deallocated the buffer */
1208:Middlewares/Third_Party/LwIP/src/api/sockets.c ****   netbuf_free(&buf);
1209:Middlewares/Third_Party/LwIP/src/api/sockets.c **** 
1210:Middlewares/Third_Party/LwIP/src/api/sockets.c ****   sock_set_errno(sock, err_to_errno(err));
1211:Middlewares/Third_Party/LwIP/src/api/sockets.c ****   return (err == ERR_OK ? short_size : -1);
ARM GAS  C:\Users\Student\AppData\Local\Temp\ccf85eJv.s 			page 25


1212:Middlewares/Third_Party/LwIP/src/api/sockets.c **** }
1213:Middlewares/Third_Party/LwIP/src/api/sockets.c **** 
1214:Middlewares/Third_Party/LwIP/src/api/sockets.c **** int
1215:Middlewares/Third_Party/LwIP/src/api/sockets.c **** lwip_socket(int domain, int type, int protocol)
1216:Middlewares/Third_Party/LwIP/src/api/sockets.c **** {
1217:Middlewares/Third_Party/LwIP/src/api/sockets.c ****   struct netconn *conn;
1218:Middlewares/Third_Party/LwIP/src/api/sockets.c ****   int i;
1219:Middlewares/Third_Party/LwIP/src/api/sockets.c **** 
1220:Middlewares/Third_Party/LwIP/src/api/sockets.c ****   LWIP_UNUSED_ARG(domain); /* @todo: check this */
1221:Middlewares/Third_Party/LwIP/src/api/sockets.c **** 
1222:Middlewares/Third_Party/LwIP/src/api/sockets.c ****   /* create a netconn */
1223:Middlewares/Third_Party/LwIP/src/api/sockets.c ****   switch (type) {
1224:Middlewares/Third_Party/LwIP/src/api/sockets.c ****   case SOCK_RAW:
1225:Middlewares/Third_Party/LwIP/src/api/sockets.c ****     conn = netconn_new_with_proto_and_callback(DOMAIN_TO_NETCONN_TYPE(domain, NETCONN_RAW),
1226:Middlewares/Third_Party/LwIP/src/api/sockets.c ****                                                (u8_t)protocol, event_callback);
1227:Middlewares/Third_Party/LwIP/src/api/sockets.c ****     LWIP_DEBUGF(SOCKETS_DEBUG, ("lwip_socket(%s, SOCK_RAW, %d) = ",
1228:Middlewares/Third_Party/LwIP/src/api/sockets.c ****                                  domain == PF_INET ? "PF_INET" : "UNKNOWN", protocol));
1229:Middlewares/Third_Party/LwIP/src/api/sockets.c ****     break;
1230:Middlewares/Third_Party/LwIP/src/api/sockets.c ****   case SOCK_DGRAM:
1231:Middlewares/Third_Party/LwIP/src/api/sockets.c ****     conn = netconn_new_with_callback(DOMAIN_TO_NETCONN_TYPE(domain,
1232:Middlewares/Third_Party/LwIP/src/api/sockets.c ****                  ((protocol == IPPROTO_UDPLITE) ? NETCONN_UDPLITE : NETCONN_UDP)) ,
1233:Middlewares/Third_Party/LwIP/src/api/sockets.c ****                  event_callback);
1234:Middlewares/Third_Party/LwIP/src/api/sockets.c ****     LWIP_DEBUGF(SOCKETS_DEBUG, ("lwip_socket(%s, SOCK_DGRAM, %d) = ",
1235:Middlewares/Third_Party/LwIP/src/api/sockets.c ****                                  domain == PF_INET ? "PF_INET" : "UNKNOWN", protocol));
1236:Middlewares/Third_Party/LwIP/src/api/sockets.c ****     break;
1237:Middlewares/Third_Party/LwIP/src/api/sockets.c ****   case SOCK_STREAM:
1238:Middlewares/Third_Party/LwIP/src/api/sockets.c ****     conn = netconn_new_with_callback(DOMAIN_TO_NETCONN_TYPE(domain, NETCONN_TCP), event_callback);
1239:Middlewares/Third_Party/LwIP/src/api/sockets.c ****     LWIP_DEBUGF(SOCKETS_DEBUG, ("lwip_socket(%s, SOCK_STREAM, %d) = ",
1240:Middlewares/Third_Party/LwIP/src/api/sockets.c ****                                  domain == PF_INET ? "PF_INET" : "UNKNOWN", protocol));
1241:Middlewares/Third_Party/LwIP/src/api/sockets.c ****     break;
1242:Middlewares/Third_Party/LwIP/src/api/sockets.c ****   default:
1243:Middlewares/Third_Party/LwIP/src/api/sockets.c ****     LWIP_DEBUGF(SOCKETS_DEBUG, ("lwip_socket(%d, %d/UNKNOWN, %d) = -1\n",
1244:Middlewares/Third_Party/LwIP/src/api/sockets.c ****                                  domain, type, protocol));
1245:Middlewares/Third_Party/LwIP/src/api/sockets.c ****     set_errno(EINVAL);
1246:Middlewares/Third_Party/LwIP/src/api/sockets.c ****     return -1;
1247:Middlewares/Third_Party/LwIP/src/api/sockets.c ****   }
1248:Middlewares/Third_Party/LwIP/src/api/sockets.c **** 
1249:Middlewares/Third_Party/LwIP/src/api/sockets.c ****   if (!conn) {
1250:Middlewares/Third_Party/LwIP/src/api/sockets.c ****     LWIP_DEBUGF(SOCKETS_DEBUG, ("-1 / ENOBUFS (could not create netconn)\n"));
1251:Middlewares/Third_Party/LwIP/src/api/sockets.c ****     set_errno(ENOBUFS);
1252:Middlewares/Third_Party/LwIP/src/api/sockets.c ****     return -1;
1253:Middlewares/Third_Party/LwIP/src/api/sockets.c ****   }
1254:Middlewares/Third_Party/LwIP/src/api/sockets.c **** 
1255:Middlewares/Third_Party/LwIP/src/api/sockets.c ****   i = alloc_socket(conn, 0);
1256:Middlewares/Third_Party/LwIP/src/api/sockets.c **** 
1257:Middlewares/Third_Party/LwIP/src/api/sockets.c ****   if (i == -1) {
1258:Middlewares/Third_Party/LwIP/src/api/sockets.c ****     netconn_delete(conn);
1259:Middlewares/Third_Party/LwIP/src/api/sockets.c ****     set_errno(ENFILE);
1260:Middlewares/Third_Party/LwIP/src/api/sockets.c ****     return -1;
1261:Middlewares/Third_Party/LwIP/src/api/sockets.c ****   }
1262:Middlewares/Third_Party/LwIP/src/api/sockets.c ****   conn->socket = i;
1263:Middlewares/Third_Party/LwIP/src/api/sockets.c ****   LWIP_DEBUGF(SOCKETS_DEBUG, ("%d\n", i));
1264:Middlewares/Third_Party/LwIP/src/api/sockets.c ****   set_errno(0);
1265:Middlewares/Third_Party/LwIP/src/api/sockets.c ****   return i;
1266:Middlewares/Third_Party/LwIP/src/api/sockets.c **** }
1267:Middlewares/Third_Party/LwIP/src/api/sockets.c **** 
1268:Middlewares/Third_Party/LwIP/src/api/sockets.c **** int
ARM GAS  C:\Users\Student\AppData\Local\Temp\ccf85eJv.s 			page 26


1269:Middlewares/Third_Party/LwIP/src/api/sockets.c **** lwip_write(int s, const void *data, size_t size)
1270:Middlewares/Third_Party/LwIP/src/api/sockets.c **** {
1271:Middlewares/Third_Party/LwIP/src/api/sockets.c ****   return lwip_send(s, data, size, 0);
1272:Middlewares/Third_Party/LwIP/src/api/sockets.c **** }
1273:Middlewares/Third_Party/LwIP/src/api/sockets.c **** 
1274:Middlewares/Third_Party/LwIP/src/api/sockets.c **** int
1275:Middlewares/Third_Party/LwIP/src/api/sockets.c **** lwip_writev(int s, const struct iovec *iov, int iovcnt)
1276:Middlewares/Third_Party/LwIP/src/api/sockets.c **** {
1277:Middlewares/Third_Party/LwIP/src/api/sockets.c ****   struct msghdr msg;
1278:Middlewares/Third_Party/LwIP/src/api/sockets.c **** 
1279:Middlewares/Third_Party/LwIP/src/api/sockets.c ****   msg.msg_name = NULL;
1280:Middlewares/Third_Party/LwIP/src/api/sockets.c ****   msg.msg_namelen = 0;
1281:Middlewares/Third_Party/LwIP/src/api/sockets.c ****   /* Hack: we have to cast via number to cast from 'const' pointer to non-const.
1282:Middlewares/Third_Party/LwIP/src/api/sockets.c ****      Blame the opengroup standard for this inconsistency. */
1283:Middlewares/Third_Party/LwIP/src/api/sockets.c ****   msg.msg_iov = LWIP_CONST_CAST(struct iovec *, iov);
1284:Middlewares/Third_Party/LwIP/src/api/sockets.c ****   msg.msg_iovlen = iovcnt;
1285:Middlewares/Third_Party/LwIP/src/api/sockets.c ****   msg.msg_control = NULL;
1286:Middlewares/Third_Party/LwIP/src/api/sockets.c ****   msg.msg_controllen = 0;
1287:Middlewares/Third_Party/LwIP/src/api/sockets.c ****   msg.msg_flags = 0;
1288:Middlewares/Third_Party/LwIP/src/api/sockets.c ****   return lwip_sendmsg(s, &msg, 0);
1289:Middlewares/Third_Party/LwIP/src/api/sockets.c **** }
1290:Middlewares/Third_Party/LwIP/src/api/sockets.c **** 
1291:Middlewares/Third_Party/LwIP/src/api/sockets.c **** /**
1292:Middlewares/Third_Party/LwIP/src/api/sockets.c ****  * Go through the readset and writeset lists and see which socket of the sockets
1293:Middlewares/Third_Party/LwIP/src/api/sockets.c ****  * set in the sets has events. On return, readset, writeset and exceptset have
1294:Middlewares/Third_Party/LwIP/src/api/sockets.c ****  * the sockets enabled that had events.
1295:Middlewares/Third_Party/LwIP/src/api/sockets.c ****  *
1296:Middlewares/Third_Party/LwIP/src/api/sockets.c ****  * @param maxfdp1 the highest socket index in the sets
1297:Middlewares/Third_Party/LwIP/src/api/sockets.c ****  * @param readset_in    set of sockets to check for read events
1298:Middlewares/Third_Party/LwIP/src/api/sockets.c ****  * @param writeset_in   set of sockets to check for write events
1299:Middlewares/Third_Party/LwIP/src/api/sockets.c ****  * @param exceptset_in  set of sockets to check for error events
1300:Middlewares/Third_Party/LwIP/src/api/sockets.c ****  * @param readset_out   set of sockets that had read events
1301:Middlewares/Third_Party/LwIP/src/api/sockets.c ****  * @param writeset_out  set of sockets that had write events
1302:Middlewares/Third_Party/LwIP/src/api/sockets.c ****  * @param exceptset_out set os sockets that had error events
1303:Middlewares/Third_Party/LwIP/src/api/sockets.c ****  * @return number of sockets that had events (read/write/exception) (>= 0)
1304:Middlewares/Third_Party/LwIP/src/api/sockets.c ****  */
1305:Middlewares/Third_Party/LwIP/src/api/sockets.c **** static int
1306:Middlewares/Third_Party/LwIP/src/api/sockets.c **** lwip_selscan(int maxfdp1, fd_set *readset_in, fd_set *writeset_in, fd_set *exceptset_in,
1307:Middlewares/Third_Party/LwIP/src/api/sockets.c ****              fd_set *readset_out, fd_set *writeset_out, fd_set *exceptset_out)
1308:Middlewares/Third_Party/LwIP/src/api/sockets.c **** {
1309:Middlewares/Third_Party/LwIP/src/api/sockets.c ****   int i, nready = 0;
1310:Middlewares/Third_Party/LwIP/src/api/sockets.c ****   fd_set lreadset, lwriteset, lexceptset;
1311:Middlewares/Third_Party/LwIP/src/api/sockets.c ****   struct lwip_sock *sock;
1312:Middlewares/Third_Party/LwIP/src/api/sockets.c ****   SYS_ARCH_DECL_PROTECT(lev);
1313:Middlewares/Third_Party/LwIP/src/api/sockets.c **** 
1314:Middlewares/Third_Party/LwIP/src/api/sockets.c ****   FD_ZERO(&lreadset);
1315:Middlewares/Third_Party/LwIP/src/api/sockets.c ****   FD_ZERO(&lwriteset);
1316:Middlewares/Third_Party/LwIP/src/api/sockets.c ****   FD_ZERO(&lexceptset);
1317:Middlewares/Third_Party/LwIP/src/api/sockets.c **** 
1318:Middlewares/Third_Party/LwIP/src/api/sockets.c ****   /* Go through each socket in each list to count number of sockets which
1319:Middlewares/Third_Party/LwIP/src/api/sockets.c ****      currently match */
1320:Middlewares/Third_Party/LwIP/src/api/sockets.c ****   for (i = LWIP_SOCKET_OFFSET; i < maxfdp1; i++) {
1321:Middlewares/Third_Party/LwIP/src/api/sockets.c ****     /* if this FD is not in the set, continue */
1322:Middlewares/Third_Party/LwIP/src/api/sockets.c ****     if (!(readset_in && FD_ISSET(i, readset_in)) &&
1323:Middlewares/Third_Party/LwIP/src/api/sockets.c ****         !(writeset_in && FD_ISSET(i, writeset_in)) &&
1324:Middlewares/Third_Party/LwIP/src/api/sockets.c ****         !(exceptset_in && FD_ISSET(i, exceptset_in))) {
1325:Middlewares/Third_Party/LwIP/src/api/sockets.c ****       continue;
ARM GAS  C:\Users\Student\AppData\Local\Temp\ccf85eJv.s 			page 27


1326:Middlewares/Third_Party/LwIP/src/api/sockets.c ****     }
1327:Middlewares/Third_Party/LwIP/src/api/sockets.c ****     /* First get the socket's status (protected)... */
1328:Middlewares/Third_Party/LwIP/src/api/sockets.c ****     SYS_ARCH_PROTECT(lev);
1329:Middlewares/Third_Party/LwIP/src/api/sockets.c ****     sock = tryget_socket(i);
1330:Middlewares/Third_Party/LwIP/src/api/sockets.c ****     if (sock != NULL) {
1331:Middlewares/Third_Party/LwIP/src/api/sockets.c ****       void* lastdata = sock->lastdata;
1332:Middlewares/Third_Party/LwIP/src/api/sockets.c ****       s16_t rcvevent = sock->rcvevent;
1333:Middlewares/Third_Party/LwIP/src/api/sockets.c ****       u16_t sendevent = sock->sendevent;
1334:Middlewares/Third_Party/LwIP/src/api/sockets.c ****       u16_t errevent = sock->errevent;
1335:Middlewares/Third_Party/LwIP/src/api/sockets.c ****       SYS_ARCH_UNPROTECT(lev);
1336:Middlewares/Third_Party/LwIP/src/api/sockets.c **** 
1337:Middlewares/Third_Party/LwIP/src/api/sockets.c ****       /* ... then examine it: */
1338:Middlewares/Third_Party/LwIP/src/api/sockets.c ****       /* See if netconn of this socket is ready for read */
1339:Middlewares/Third_Party/LwIP/src/api/sockets.c ****       if (readset_in && FD_ISSET(i, readset_in) && ((lastdata != NULL) || (rcvevent > 0))) {
1340:Middlewares/Third_Party/LwIP/src/api/sockets.c ****         FD_SET(i, &lreadset);
1341:Middlewares/Third_Party/LwIP/src/api/sockets.c ****         LWIP_DEBUGF(SOCKETS_DEBUG, ("lwip_selscan: fd=%d ready for reading\n", i));
1342:Middlewares/Third_Party/LwIP/src/api/sockets.c ****         nready++;
1343:Middlewares/Third_Party/LwIP/src/api/sockets.c ****       }
1344:Middlewares/Third_Party/LwIP/src/api/sockets.c ****       /* See if netconn of this socket is ready for write */
1345:Middlewares/Third_Party/LwIP/src/api/sockets.c ****       if (writeset_in && FD_ISSET(i, writeset_in) && (sendevent != 0)) {
1346:Middlewares/Third_Party/LwIP/src/api/sockets.c ****         FD_SET(i, &lwriteset);
1347:Middlewares/Third_Party/LwIP/src/api/sockets.c ****         LWIP_DEBUGF(SOCKETS_DEBUG, ("lwip_selscan: fd=%d ready for writing\n", i));
1348:Middlewares/Third_Party/LwIP/src/api/sockets.c ****         nready++;
1349:Middlewares/Third_Party/LwIP/src/api/sockets.c ****       }
1350:Middlewares/Third_Party/LwIP/src/api/sockets.c ****       /* See if netconn of this socket had an error */
1351:Middlewares/Third_Party/LwIP/src/api/sockets.c ****       if (exceptset_in && FD_ISSET(i, exceptset_in) && (errevent != 0)) {
1352:Middlewares/Third_Party/LwIP/src/api/sockets.c ****         FD_SET(i, &lexceptset);
1353:Middlewares/Third_Party/LwIP/src/api/sockets.c ****         LWIP_DEBUGF(SOCKETS_DEBUG, ("lwip_selscan: fd=%d ready for exception\n", i));
1354:Middlewares/Third_Party/LwIP/src/api/sockets.c ****         nready++;
1355:Middlewares/Third_Party/LwIP/src/api/sockets.c ****       }
1356:Middlewares/Third_Party/LwIP/src/api/sockets.c ****     } else {
1357:Middlewares/Third_Party/LwIP/src/api/sockets.c ****       SYS_ARCH_UNPROTECT(lev);
1358:Middlewares/Third_Party/LwIP/src/api/sockets.c ****       /* continue on to next FD in list */
1359:Middlewares/Third_Party/LwIP/src/api/sockets.c ****     }
1360:Middlewares/Third_Party/LwIP/src/api/sockets.c ****   }
1361:Middlewares/Third_Party/LwIP/src/api/sockets.c ****   /* copy local sets to the ones provided as arguments */
1362:Middlewares/Third_Party/LwIP/src/api/sockets.c ****   *readset_out = lreadset;
1363:Middlewares/Third_Party/LwIP/src/api/sockets.c ****   *writeset_out = lwriteset;
1364:Middlewares/Third_Party/LwIP/src/api/sockets.c ****   *exceptset_out = lexceptset;
1365:Middlewares/Third_Party/LwIP/src/api/sockets.c **** 
1366:Middlewares/Third_Party/LwIP/src/api/sockets.c ****   LWIP_ASSERT("nready >= 0", nready >= 0);
1367:Middlewares/Third_Party/LwIP/src/api/sockets.c ****   return nready;
1368:Middlewares/Third_Party/LwIP/src/api/sockets.c **** }
1369:Middlewares/Third_Party/LwIP/src/api/sockets.c **** 
1370:Middlewares/Third_Party/LwIP/src/api/sockets.c **** int
1371:Middlewares/Third_Party/LwIP/src/api/sockets.c **** lwip_select(int maxfdp1, fd_set *readset, fd_set *writeset, fd_set *exceptset,
1372:Middlewares/Third_Party/LwIP/src/api/sockets.c ****             struct timeval *timeout)
1373:Middlewares/Third_Party/LwIP/src/api/sockets.c **** {
1374:Middlewares/Third_Party/LwIP/src/api/sockets.c ****   u32_t waitres = 0;
1375:Middlewares/Third_Party/LwIP/src/api/sockets.c ****   int nready;
1376:Middlewares/Third_Party/LwIP/src/api/sockets.c ****   fd_set lreadset, lwriteset, lexceptset;
1377:Middlewares/Third_Party/LwIP/src/api/sockets.c ****   u32_t msectimeout;
1378:Middlewares/Third_Party/LwIP/src/api/sockets.c ****   struct lwip_select_cb select_cb;
1379:Middlewares/Third_Party/LwIP/src/api/sockets.c ****   int i;
1380:Middlewares/Third_Party/LwIP/src/api/sockets.c ****   int maxfdp2;
1381:Middlewares/Third_Party/LwIP/src/api/sockets.c **** #if LWIP_NETCONN_SEM_PER_THREAD
1382:Middlewares/Third_Party/LwIP/src/api/sockets.c ****   int waited = 0;
ARM GAS  C:\Users\Student\AppData\Local\Temp\ccf85eJv.s 			page 28


1383:Middlewares/Third_Party/LwIP/src/api/sockets.c **** #endif
1384:Middlewares/Third_Party/LwIP/src/api/sockets.c ****   SYS_ARCH_DECL_PROTECT(lev);
1385:Middlewares/Third_Party/LwIP/src/api/sockets.c **** 
1386:Middlewares/Third_Party/LwIP/src/api/sockets.c ****   LWIP_DEBUGF(SOCKETS_DEBUG, ("lwip_select(%d, %p, %p, %p, tvsec=%"S32_F" tvusec=%"S32_F")\n",
1387:Middlewares/Third_Party/LwIP/src/api/sockets.c ****                   maxfdp1, (void *)readset, (void *) writeset, (void *) exceptset,
1388:Middlewares/Third_Party/LwIP/src/api/sockets.c ****                   timeout ? (s32_t)timeout->tv_sec : (s32_t)-1,
1389:Middlewares/Third_Party/LwIP/src/api/sockets.c ****                   timeout ? (s32_t)timeout->tv_usec : (s32_t)-1));
1390:Middlewares/Third_Party/LwIP/src/api/sockets.c **** 
1391:Middlewares/Third_Party/LwIP/src/api/sockets.c ****   /* Go through each socket in each list to count number of sockets which
1392:Middlewares/Third_Party/LwIP/src/api/sockets.c ****      currently match */
1393:Middlewares/Third_Party/LwIP/src/api/sockets.c ****   nready = lwip_selscan(maxfdp1, readset, writeset, exceptset, &lreadset, &lwriteset, &lexceptset);
1394:Middlewares/Third_Party/LwIP/src/api/sockets.c **** 
1395:Middlewares/Third_Party/LwIP/src/api/sockets.c ****   /* If we don't have any current events, then suspend if we are supposed to */
1396:Middlewares/Third_Party/LwIP/src/api/sockets.c ****   if (!nready) {
1397:Middlewares/Third_Party/LwIP/src/api/sockets.c ****     if (timeout && timeout->tv_sec == 0 && timeout->tv_usec == 0) {
1398:Middlewares/Third_Party/LwIP/src/api/sockets.c ****       LWIP_DEBUGF(SOCKETS_DEBUG, ("lwip_select: no timeout, returning 0\n"));
1399:Middlewares/Third_Party/LwIP/src/api/sockets.c ****       /* This is OK as the local fdsets are empty and nready is zero,
1400:Middlewares/Third_Party/LwIP/src/api/sockets.c ****          or we would have returned earlier. */
1401:Middlewares/Third_Party/LwIP/src/api/sockets.c ****       goto return_copy_fdsets;
1402:Middlewares/Third_Party/LwIP/src/api/sockets.c ****     }
1403:Middlewares/Third_Party/LwIP/src/api/sockets.c **** 
1404:Middlewares/Third_Party/LwIP/src/api/sockets.c ****     /* None ready: add our semaphore to list:
1405:Middlewares/Third_Party/LwIP/src/api/sockets.c ****        We don't actually need any dynamic memory. Our entry on the
1406:Middlewares/Third_Party/LwIP/src/api/sockets.c ****        list is only valid while we are in this function, so it's ok
1407:Middlewares/Third_Party/LwIP/src/api/sockets.c ****        to use local variables. */
1408:Middlewares/Third_Party/LwIP/src/api/sockets.c **** 
1409:Middlewares/Third_Party/LwIP/src/api/sockets.c ****     select_cb.next = NULL;
1410:Middlewares/Third_Party/LwIP/src/api/sockets.c ****     select_cb.prev = NULL;
1411:Middlewares/Third_Party/LwIP/src/api/sockets.c ****     select_cb.readset = readset;
1412:Middlewares/Third_Party/LwIP/src/api/sockets.c ****     select_cb.writeset = writeset;
1413:Middlewares/Third_Party/LwIP/src/api/sockets.c ****     select_cb.exceptset = exceptset;
1414:Middlewares/Third_Party/LwIP/src/api/sockets.c ****     select_cb.sem_signalled = 0;
1415:Middlewares/Third_Party/LwIP/src/api/sockets.c **** #if LWIP_NETCONN_SEM_PER_THREAD
1416:Middlewares/Third_Party/LwIP/src/api/sockets.c ****     select_cb.sem = LWIP_NETCONN_THREAD_SEM_GET();
1417:Middlewares/Third_Party/LwIP/src/api/sockets.c **** #else /* LWIP_NETCONN_SEM_PER_THREAD */
1418:Middlewares/Third_Party/LwIP/src/api/sockets.c ****     if (sys_sem_new(&select_cb.sem, 0) != ERR_OK) {
1419:Middlewares/Third_Party/LwIP/src/api/sockets.c ****       /* failed to create semaphore */
1420:Middlewares/Third_Party/LwIP/src/api/sockets.c ****       set_errno(ENOMEM);
1421:Middlewares/Third_Party/LwIP/src/api/sockets.c ****       return -1;
1422:Middlewares/Third_Party/LwIP/src/api/sockets.c ****     }
1423:Middlewares/Third_Party/LwIP/src/api/sockets.c **** #endif /* LWIP_NETCONN_SEM_PER_THREAD */
1424:Middlewares/Third_Party/LwIP/src/api/sockets.c **** 
1425:Middlewares/Third_Party/LwIP/src/api/sockets.c ****     /* Protect the select_cb_list */
1426:Middlewares/Third_Party/LwIP/src/api/sockets.c ****     SYS_ARCH_PROTECT(lev);
1427:Middlewares/Third_Party/LwIP/src/api/sockets.c **** 
1428:Middlewares/Third_Party/LwIP/src/api/sockets.c ****     /* Put this select_cb on top of list */
1429:Middlewares/Third_Party/LwIP/src/api/sockets.c ****     select_cb.next = select_cb_list;
1430:Middlewares/Third_Party/LwIP/src/api/sockets.c ****     if (select_cb_list != NULL) {
1431:Middlewares/Third_Party/LwIP/src/api/sockets.c ****       select_cb_list->prev = &select_cb;
1432:Middlewares/Third_Party/LwIP/src/api/sockets.c ****     }
1433:Middlewares/Third_Party/LwIP/src/api/sockets.c ****     select_cb_list = &select_cb;
1434:Middlewares/Third_Party/LwIP/src/api/sockets.c ****     /* Increasing this counter tells event_callback that the list has changed. */
1435:Middlewares/Third_Party/LwIP/src/api/sockets.c ****     select_cb_ctr++;
1436:Middlewares/Third_Party/LwIP/src/api/sockets.c **** 
1437:Middlewares/Third_Party/LwIP/src/api/sockets.c ****     /* Now we can safely unprotect */
1438:Middlewares/Third_Party/LwIP/src/api/sockets.c ****     SYS_ARCH_UNPROTECT(lev);
1439:Middlewares/Third_Party/LwIP/src/api/sockets.c **** 
ARM GAS  C:\Users\Student\AppData\Local\Temp\ccf85eJv.s 			page 29


1440:Middlewares/Third_Party/LwIP/src/api/sockets.c ****     /* Increase select_waiting for each socket we are interested in */
1441:Middlewares/Third_Party/LwIP/src/api/sockets.c ****     maxfdp2 = maxfdp1;
1442:Middlewares/Third_Party/LwIP/src/api/sockets.c ****     for (i = LWIP_SOCKET_OFFSET; i < maxfdp1; i++) {
1443:Middlewares/Third_Party/LwIP/src/api/sockets.c ****       if ((readset && FD_ISSET(i, readset)) ||
1444:Middlewares/Third_Party/LwIP/src/api/sockets.c ****           (writeset && FD_ISSET(i, writeset)) ||
1445:Middlewares/Third_Party/LwIP/src/api/sockets.c ****           (exceptset && FD_ISSET(i, exceptset))) {
1446:Middlewares/Third_Party/LwIP/src/api/sockets.c ****         struct lwip_sock *sock;
1447:Middlewares/Third_Party/LwIP/src/api/sockets.c ****         SYS_ARCH_PROTECT(lev);
1448:Middlewares/Third_Party/LwIP/src/api/sockets.c ****         sock = tryget_socket(i);
1449:Middlewares/Third_Party/LwIP/src/api/sockets.c ****         if (sock != NULL) {
1450:Middlewares/Third_Party/LwIP/src/api/sockets.c ****           sock->select_waiting++;
1451:Middlewares/Third_Party/LwIP/src/api/sockets.c ****           LWIP_ASSERT("sock->select_waiting > 0", sock->select_waiting > 0);
1452:Middlewares/Third_Party/LwIP/src/api/sockets.c ****         } else {
1453:Middlewares/Third_Party/LwIP/src/api/sockets.c ****           /* Not a valid socket */
1454:Middlewares/Third_Party/LwIP/src/api/sockets.c ****           nready = -1;
1455:Middlewares/Third_Party/LwIP/src/api/sockets.c ****           maxfdp2 = i;
1456:Middlewares/Third_Party/LwIP/src/api/sockets.c ****           SYS_ARCH_UNPROTECT(lev);
1457:Middlewares/Third_Party/LwIP/src/api/sockets.c ****           break;
1458:Middlewares/Third_Party/LwIP/src/api/sockets.c ****         }
1459:Middlewares/Third_Party/LwIP/src/api/sockets.c ****         SYS_ARCH_UNPROTECT(lev);
1460:Middlewares/Third_Party/LwIP/src/api/sockets.c ****       }
1461:Middlewares/Third_Party/LwIP/src/api/sockets.c ****     }
1462:Middlewares/Third_Party/LwIP/src/api/sockets.c **** 
1463:Middlewares/Third_Party/LwIP/src/api/sockets.c ****     if (nready >= 0) {
1464:Middlewares/Third_Party/LwIP/src/api/sockets.c ****       /* Call lwip_selscan again: there could have been events between
1465:Middlewares/Third_Party/LwIP/src/api/sockets.c ****          the last scan (without us on the list) and putting us on the list! */
1466:Middlewares/Third_Party/LwIP/src/api/sockets.c ****       nready = lwip_selscan(maxfdp1, readset, writeset, exceptset, &lreadset, &lwriteset, &lexcepts
1467:Middlewares/Third_Party/LwIP/src/api/sockets.c ****       if (!nready) {
1468:Middlewares/Third_Party/LwIP/src/api/sockets.c ****         /* Still none ready, just wait to be woken */
1469:Middlewares/Third_Party/LwIP/src/api/sockets.c ****         if (timeout == 0) {
1470:Middlewares/Third_Party/LwIP/src/api/sockets.c ****           /* Wait forever */
1471:Middlewares/Third_Party/LwIP/src/api/sockets.c ****           msectimeout = 0;
1472:Middlewares/Third_Party/LwIP/src/api/sockets.c ****         } else {
1473:Middlewares/Third_Party/LwIP/src/api/sockets.c ****           msectimeout =  ((timeout->tv_sec * 1000) + ((timeout->tv_usec + 500)/1000));
1474:Middlewares/Third_Party/LwIP/src/api/sockets.c ****           if (msectimeout == 0) {
1475:Middlewares/Third_Party/LwIP/src/api/sockets.c ****             /* Wait 1ms at least (0 means wait forever) */
1476:Middlewares/Third_Party/LwIP/src/api/sockets.c ****             msectimeout = 1;
1477:Middlewares/Third_Party/LwIP/src/api/sockets.c ****           }
1478:Middlewares/Third_Party/LwIP/src/api/sockets.c ****         }
1479:Middlewares/Third_Party/LwIP/src/api/sockets.c **** 
1480:Middlewares/Third_Party/LwIP/src/api/sockets.c ****         waitres = sys_arch_sem_wait(SELECT_SEM_PTR(select_cb.sem), msectimeout);
1481:Middlewares/Third_Party/LwIP/src/api/sockets.c **** #if LWIP_NETCONN_SEM_PER_THREAD
1482:Middlewares/Third_Party/LwIP/src/api/sockets.c ****         waited = 1;
1483:Middlewares/Third_Party/LwIP/src/api/sockets.c **** #endif
1484:Middlewares/Third_Party/LwIP/src/api/sockets.c ****       }
1485:Middlewares/Third_Party/LwIP/src/api/sockets.c ****     }
1486:Middlewares/Third_Party/LwIP/src/api/sockets.c **** 
1487:Middlewares/Third_Party/LwIP/src/api/sockets.c ****     /* Decrease select_waiting for each socket we are interested in */
1488:Middlewares/Third_Party/LwIP/src/api/sockets.c ****     for (i = LWIP_SOCKET_OFFSET; i < maxfdp2; i++) {
1489:Middlewares/Third_Party/LwIP/src/api/sockets.c ****       if ((readset && FD_ISSET(i, readset)) ||
1490:Middlewares/Third_Party/LwIP/src/api/sockets.c ****           (writeset && FD_ISSET(i, writeset)) ||
1491:Middlewares/Third_Party/LwIP/src/api/sockets.c ****           (exceptset && FD_ISSET(i, exceptset))) {
1492:Middlewares/Third_Party/LwIP/src/api/sockets.c ****         struct lwip_sock *sock;
1493:Middlewares/Third_Party/LwIP/src/api/sockets.c ****         SYS_ARCH_PROTECT(lev);
1494:Middlewares/Third_Party/LwIP/src/api/sockets.c ****         sock = tryget_socket(i);
1495:Middlewares/Third_Party/LwIP/src/api/sockets.c ****         if (sock != NULL) {
1496:Middlewares/Third_Party/LwIP/src/api/sockets.c ****           /* for now, handle select_waiting==0... */
ARM GAS  C:\Users\Student\AppData\Local\Temp\ccf85eJv.s 			page 30


1497:Middlewares/Third_Party/LwIP/src/api/sockets.c ****           LWIP_ASSERT("sock->select_waiting > 0", sock->select_waiting > 0);
1498:Middlewares/Third_Party/LwIP/src/api/sockets.c ****           if (sock->select_waiting > 0) {
1499:Middlewares/Third_Party/LwIP/src/api/sockets.c ****             sock->select_waiting--;
1500:Middlewares/Third_Party/LwIP/src/api/sockets.c ****           }
1501:Middlewares/Third_Party/LwIP/src/api/sockets.c ****         } else {
1502:Middlewares/Third_Party/LwIP/src/api/sockets.c ****           /* Not a valid socket */
1503:Middlewares/Third_Party/LwIP/src/api/sockets.c ****           nready = -1;
1504:Middlewares/Third_Party/LwIP/src/api/sockets.c ****         }
1505:Middlewares/Third_Party/LwIP/src/api/sockets.c ****         SYS_ARCH_UNPROTECT(lev);
1506:Middlewares/Third_Party/LwIP/src/api/sockets.c ****       }
1507:Middlewares/Third_Party/LwIP/src/api/sockets.c ****     }
1508:Middlewares/Third_Party/LwIP/src/api/sockets.c ****     /* Take us off the list */
1509:Middlewares/Third_Party/LwIP/src/api/sockets.c ****     SYS_ARCH_PROTECT(lev);
1510:Middlewares/Third_Party/LwIP/src/api/sockets.c ****     if (select_cb.next != NULL) {
1511:Middlewares/Third_Party/LwIP/src/api/sockets.c ****       select_cb.next->prev = select_cb.prev;
1512:Middlewares/Third_Party/LwIP/src/api/sockets.c ****     }
1513:Middlewares/Third_Party/LwIP/src/api/sockets.c ****     if (select_cb_list == &select_cb) {
1514:Middlewares/Third_Party/LwIP/src/api/sockets.c ****       LWIP_ASSERT("select_cb.prev == NULL", select_cb.prev == NULL);
1515:Middlewares/Third_Party/LwIP/src/api/sockets.c ****       select_cb_list = select_cb.next;
1516:Middlewares/Third_Party/LwIP/src/api/sockets.c ****     } else {
1517:Middlewares/Third_Party/LwIP/src/api/sockets.c ****       LWIP_ASSERT("select_cb.prev != NULL", select_cb.prev != NULL);
1518:Middlewares/Third_Party/LwIP/src/api/sockets.c ****       select_cb.prev->next = select_cb.next;
1519:Middlewares/Third_Party/LwIP/src/api/sockets.c ****     }
1520:Middlewares/Third_Party/LwIP/src/api/sockets.c ****     /* Increasing this counter tells event_callback that the list has changed. */
1521:Middlewares/Third_Party/LwIP/src/api/sockets.c ****     select_cb_ctr++;
1522:Middlewares/Third_Party/LwIP/src/api/sockets.c ****     SYS_ARCH_UNPROTECT(lev);
1523:Middlewares/Third_Party/LwIP/src/api/sockets.c **** 
1524:Middlewares/Third_Party/LwIP/src/api/sockets.c **** #if LWIP_NETCONN_SEM_PER_THREAD
1525:Middlewares/Third_Party/LwIP/src/api/sockets.c ****     if (select_cb.sem_signalled && (!waited || (waitres == SYS_ARCH_TIMEOUT))) {
1526:Middlewares/Third_Party/LwIP/src/api/sockets.c ****       /* don't leave the thread-local semaphore signalled */
1527:Middlewares/Third_Party/LwIP/src/api/sockets.c ****       sys_arch_sem_wait(select_cb.sem, 1);
1528:Middlewares/Third_Party/LwIP/src/api/sockets.c ****     }
1529:Middlewares/Third_Party/LwIP/src/api/sockets.c **** #else /* LWIP_NETCONN_SEM_PER_THREAD */
1530:Middlewares/Third_Party/LwIP/src/api/sockets.c ****     sys_sem_free(&select_cb.sem);
1531:Middlewares/Third_Party/LwIP/src/api/sockets.c **** #endif /* LWIP_NETCONN_SEM_PER_THREAD */
1532:Middlewares/Third_Party/LwIP/src/api/sockets.c **** 
1533:Middlewares/Third_Party/LwIP/src/api/sockets.c ****     if (nready < 0) {
1534:Middlewares/Third_Party/LwIP/src/api/sockets.c ****       /* This happens when a socket got closed while waiting */
1535:Middlewares/Third_Party/LwIP/src/api/sockets.c ****       set_errno(EBADF);
1536:Middlewares/Third_Party/LwIP/src/api/sockets.c ****       return -1;
1537:Middlewares/Third_Party/LwIP/src/api/sockets.c ****     }
1538:Middlewares/Third_Party/LwIP/src/api/sockets.c **** 
1539:Middlewares/Third_Party/LwIP/src/api/sockets.c ****     if (waitres == SYS_ARCH_TIMEOUT) {
1540:Middlewares/Third_Party/LwIP/src/api/sockets.c ****       /* Timeout */
1541:Middlewares/Third_Party/LwIP/src/api/sockets.c ****       LWIP_DEBUGF(SOCKETS_DEBUG, ("lwip_select: timeout expired\n"));
1542:Middlewares/Third_Party/LwIP/src/api/sockets.c ****       /* This is OK as the local fdsets are empty and nready is zero,
1543:Middlewares/Third_Party/LwIP/src/api/sockets.c ****          or we would have returned earlier. */
1544:Middlewares/Third_Party/LwIP/src/api/sockets.c ****       goto return_copy_fdsets;
1545:Middlewares/Third_Party/LwIP/src/api/sockets.c ****     }
1546:Middlewares/Third_Party/LwIP/src/api/sockets.c **** 
1547:Middlewares/Third_Party/LwIP/src/api/sockets.c ****     /* See what's set */
1548:Middlewares/Third_Party/LwIP/src/api/sockets.c ****     nready = lwip_selscan(maxfdp1, readset, writeset, exceptset, &lreadset, &lwriteset, &lexceptset
1549:Middlewares/Third_Party/LwIP/src/api/sockets.c ****   }
1550:Middlewares/Third_Party/LwIP/src/api/sockets.c **** 
1551:Middlewares/Third_Party/LwIP/src/api/sockets.c ****   LWIP_DEBUGF(SOCKETS_DEBUG, ("lwip_select: nready=%d\n", nready));
1552:Middlewares/Third_Party/LwIP/src/api/sockets.c **** return_copy_fdsets:
1553:Middlewares/Third_Party/LwIP/src/api/sockets.c ****   set_errno(0);
ARM GAS  C:\Users\Student\AppData\Local\Temp\ccf85eJv.s 			page 31


1554:Middlewares/Third_Party/LwIP/src/api/sockets.c ****   if (readset) {
1555:Middlewares/Third_Party/LwIP/src/api/sockets.c ****     *readset = lreadset;
1556:Middlewares/Third_Party/LwIP/src/api/sockets.c ****   }
1557:Middlewares/Third_Party/LwIP/src/api/sockets.c ****   if (writeset) {
1558:Middlewares/Third_Party/LwIP/src/api/sockets.c ****     *writeset = lwriteset;
1559:Middlewares/Third_Party/LwIP/src/api/sockets.c ****   }
1560:Middlewares/Third_Party/LwIP/src/api/sockets.c ****   if (exceptset) {
1561:Middlewares/Third_Party/LwIP/src/api/sockets.c ****     *exceptset = lexceptset;
1562:Middlewares/Third_Party/LwIP/src/api/sockets.c ****   }
1563:Middlewares/Third_Party/LwIP/src/api/sockets.c ****   return nready;
1564:Middlewares/Third_Party/LwIP/src/api/sockets.c **** }
1565:Middlewares/Third_Party/LwIP/src/api/sockets.c **** 
1566:Middlewares/Third_Party/LwIP/src/api/sockets.c **** /**
1567:Middlewares/Third_Party/LwIP/src/api/sockets.c ****  * Callback registered in the netconn layer for each socket-netconn.
1568:Middlewares/Third_Party/LwIP/src/api/sockets.c ****  * Processes recvevent (data available) and wakes up tasks waiting for select.
1569:Middlewares/Third_Party/LwIP/src/api/sockets.c ****  */
1570:Middlewares/Third_Party/LwIP/src/api/sockets.c **** static void
1571:Middlewares/Third_Party/LwIP/src/api/sockets.c **** event_callback(struct netconn *conn, enum netconn_evt evt, u16_t len)
1572:Middlewares/Third_Party/LwIP/src/api/sockets.c **** {
1573:Middlewares/Third_Party/LwIP/src/api/sockets.c ****   int s;
1574:Middlewares/Third_Party/LwIP/src/api/sockets.c ****   struct lwip_sock *sock;
1575:Middlewares/Third_Party/LwIP/src/api/sockets.c ****   struct lwip_select_cb *scb;
1576:Middlewares/Third_Party/LwIP/src/api/sockets.c ****   int last_select_cb_ctr;
1577:Middlewares/Third_Party/LwIP/src/api/sockets.c ****   SYS_ARCH_DECL_PROTECT(lev);
1578:Middlewares/Third_Party/LwIP/src/api/sockets.c **** 
1579:Middlewares/Third_Party/LwIP/src/api/sockets.c ****   LWIP_UNUSED_ARG(len);
1580:Middlewares/Third_Party/LwIP/src/api/sockets.c **** 
1581:Middlewares/Third_Party/LwIP/src/api/sockets.c ****   /* Get socket */
1582:Middlewares/Third_Party/LwIP/src/api/sockets.c ****   if (conn) {
1583:Middlewares/Third_Party/LwIP/src/api/sockets.c ****     s = conn->socket;
1584:Middlewares/Third_Party/LwIP/src/api/sockets.c ****     if (s < 0) {
1585:Middlewares/Third_Party/LwIP/src/api/sockets.c ****       /* Data comes in right away after an accept, even though
1586:Middlewares/Third_Party/LwIP/src/api/sockets.c ****        * the server task might not have created a new socket yet.
1587:Middlewares/Third_Party/LwIP/src/api/sockets.c ****        * Just count down (or up) if that's the case and we
1588:Middlewares/Third_Party/LwIP/src/api/sockets.c ****        * will use the data later. Note that only receive events
1589:Middlewares/Third_Party/LwIP/src/api/sockets.c ****        * can happen before the new socket is set up. */
1590:Middlewares/Third_Party/LwIP/src/api/sockets.c ****       SYS_ARCH_PROTECT(lev);
1591:Middlewares/Third_Party/LwIP/src/api/sockets.c ****       if (conn->socket < 0) {
1592:Middlewares/Third_Party/LwIP/src/api/sockets.c ****         if (evt == NETCONN_EVT_RCVPLUS) {
1593:Middlewares/Third_Party/LwIP/src/api/sockets.c ****           conn->socket--;
1594:Middlewares/Third_Party/LwIP/src/api/sockets.c ****         }
1595:Middlewares/Third_Party/LwIP/src/api/sockets.c ****         SYS_ARCH_UNPROTECT(lev);
1596:Middlewares/Third_Party/LwIP/src/api/sockets.c ****         return;
1597:Middlewares/Third_Party/LwIP/src/api/sockets.c ****       }
1598:Middlewares/Third_Party/LwIP/src/api/sockets.c ****       s = conn->socket;
1599:Middlewares/Third_Party/LwIP/src/api/sockets.c ****       SYS_ARCH_UNPROTECT(lev);
1600:Middlewares/Third_Party/LwIP/src/api/sockets.c ****     }
1601:Middlewares/Third_Party/LwIP/src/api/sockets.c **** 
1602:Middlewares/Third_Party/LwIP/src/api/sockets.c ****     sock = get_socket(s);
1603:Middlewares/Third_Party/LwIP/src/api/sockets.c ****     if (!sock) {
1604:Middlewares/Third_Party/LwIP/src/api/sockets.c ****       return;
1605:Middlewares/Third_Party/LwIP/src/api/sockets.c ****     }
1606:Middlewares/Third_Party/LwIP/src/api/sockets.c ****   } else {
1607:Middlewares/Third_Party/LwIP/src/api/sockets.c ****     return;
1608:Middlewares/Third_Party/LwIP/src/api/sockets.c ****   }
1609:Middlewares/Third_Party/LwIP/src/api/sockets.c **** 
1610:Middlewares/Third_Party/LwIP/src/api/sockets.c ****   SYS_ARCH_PROTECT(lev);
ARM GAS  C:\Users\Student\AppData\Local\Temp\ccf85eJv.s 			page 32


1611:Middlewares/Third_Party/LwIP/src/api/sockets.c ****   /* Set event as required */
1612:Middlewares/Third_Party/LwIP/src/api/sockets.c ****   switch (evt) {
1613:Middlewares/Third_Party/LwIP/src/api/sockets.c ****     case NETCONN_EVT_RCVPLUS:
1614:Middlewares/Third_Party/LwIP/src/api/sockets.c ****       sock->rcvevent++;
1615:Middlewares/Third_Party/LwIP/src/api/sockets.c ****       break;
1616:Middlewares/Third_Party/LwIP/src/api/sockets.c ****     case NETCONN_EVT_RCVMINUS:
1617:Middlewares/Third_Party/LwIP/src/api/sockets.c ****       sock->rcvevent--;
1618:Middlewares/Third_Party/LwIP/src/api/sockets.c ****       break;
1619:Middlewares/Third_Party/LwIP/src/api/sockets.c ****     case NETCONN_EVT_SENDPLUS:
1620:Middlewares/Third_Party/LwIP/src/api/sockets.c ****       sock->sendevent = 1;
1621:Middlewares/Third_Party/LwIP/src/api/sockets.c ****       break;
1622:Middlewares/Third_Party/LwIP/src/api/sockets.c ****     case NETCONN_EVT_SENDMINUS:
1623:Middlewares/Third_Party/LwIP/src/api/sockets.c ****       sock->sendevent = 0;
1624:Middlewares/Third_Party/LwIP/src/api/sockets.c ****       break;
1625:Middlewares/Third_Party/LwIP/src/api/sockets.c ****     case NETCONN_EVT_ERROR:
1626:Middlewares/Third_Party/LwIP/src/api/sockets.c ****       sock->errevent = 1;
1627:Middlewares/Third_Party/LwIP/src/api/sockets.c ****       break;
1628:Middlewares/Third_Party/LwIP/src/api/sockets.c ****     default:
1629:Middlewares/Third_Party/LwIP/src/api/sockets.c ****       LWIP_ASSERT("unknown event", 0);
1630:Middlewares/Third_Party/LwIP/src/api/sockets.c ****       break;
1631:Middlewares/Third_Party/LwIP/src/api/sockets.c ****   }
1632:Middlewares/Third_Party/LwIP/src/api/sockets.c **** 
1633:Middlewares/Third_Party/LwIP/src/api/sockets.c ****   if (sock->select_waiting == 0) {
1634:Middlewares/Third_Party/LwIP/src/api/sockets.c ****     /* noone is waiting for this socket, no need to check select_cb_list */
1635:Middlewares/Third_Party/LwIP/src/api/sockets.c ****     SYS_ARCH_UNPROTECT(lev);
1636:Middlewares/Third_Party/LwIP/src/api/sockets.c ****     return;
1637:Middlewares/Third_Party/LwIP/src/api/sockets.c ****   }
1638:Middlewares/Third_Party/LwIP/src/api/sockets.c **** 
1639:Middlewares/Third_Party/LwIP/src/api/sockets.c ****   /* Now decide if anyone is waiting for this socket */
1640:Middlewares/Third_Party/LwIP/src/api/sockets.c ****   /* NOTE: This code goes through the select_cb_list list multiple times
1641:Middlewares/Third_Party/LwIP/src/api/sockets.c ****      ONLY IF a select was actually waiting. We go through the list the number
1642:Middlewares/Third_Party/LwIP/src/api/sockets.c ****      of waiting select calls + 1. This list is expected to be small. */
1643:Middlewares/Third_Party/LwIP/src/api/sockets.c **** 
1644:Middlewares/Third_Party/LwIP/src/api/sockets.c ****   /* At this point, SYS_ARCH is still protected! */
1645:Middlewares/Third_Party/LwIP/src/api/sockets.c **** again:
1646:Middlewares/Third_Party/LwIP/src/api/sockets.c ****   for (scb = select_cb_list; scb != NULL; scb = scb->next) {
1647:Middlewares/Third_Party/LwIP/src/api/sockets.c ****     /* remember the state of select_cb_list to detect changes */
1648:Middlewares/Third_Party/LwIP/src/api/sockets.c ****     last_select_cb_ctr = select_cb_ctr;
1649:Middlewares/Third_Party/LwIP/src/api/sockets.c ****     if (scb->sem_signalled == 0) {
1650:Middlewares/Third_Party/LwIP/src/api/sockets.c ****       /* semaphore not signalled yet */
1651:Middlewares/Third_Party/LwIP/src/api/sockets.c ****       int do_signal = 0;
1652:Middlewares/Third_Party/LwIP/src/api/sockets.c ****       /* Test this select call for our socket */
1653:Middlewares/Third_Party/LwIP/src/api/sockets.c ****       if (sock->rcvevent > 0) {
1654:Middlewares/Third_Party/LwIP/src/api/sockets.c ****         if (scb->readset && FD_ISSET(s, scb->readset)) {
1655:Middlewares/Third_Party/LwIP/src/api/sockets.c ****           do_signal = 1;
1656:Middlewares/Third_Party/LwIP/src/api/sockets.c ****         }
1657:Middlewares/Third_Party/LwIP/src/api/sockets.c ****       }
1658:Middlewares/Third_Party/LwIP/src/api/sockets.c ****       if (sock->sendevent != 0) {
1659:Middlewares/Third_Party/LwIP/src/api/sockets.c ****         if (!do_signal && scb->writeset && FD_ISSET(s, scb->writeset)) {
1660:Middlewares/Third_Party/LwIP/src/api/sockets.c ****           do_signal = 1;
1661:Middlewares/Third_Party/LwIP/src/api/sockets.c ****         }
1662:Middlewares/Third_Party/LwIP/src/api/sockets.c ****       }
1663:Middlewares/Third_Party/LwIP/src/api/sockets.c ****       if (sock->errevent != 0) {
1664:Middlewares/Third_Party/LwIP/src/api/sockets.c ****         if (!do_signal && scb->exceptset && FD_ISSET(s, scb->exceptset)) {
1665:Middlewares/Third_Party/LwIP/src/api/sockets.c ****           do_signal = 1;
1666:Middlewares/Third_Party/LwIP/src/api/sockets.c ****         }
1667:Middlewares/Third_Party/LwIP/src/api/sockets.c ****       }
ARM GAS  C:\Users\Student\AppData\Local\Temp\ccf85eJv.s 			page 33


1668:Middlewares/Third_Party/LwIP/src/api/sockets.c ****       if (do_signal) {
1669:Middlewares/Third_Party/LwIP/src/api/sockets.c ****         scb->sem_signalled = 1;
1670:Middlewares/Third_Party/LwIP/src/api/sockets.c ****         /* Don't call SYS_ARCH_UNPROTECT() before signaling the semaphore, as this might
1671:Middlewares/Third_Party/LwIP/src/api/sockets.c ****            lead to the select thread taking itself off the list, invalidating the semaphore. */
1672:Middlewares/Third_Party/LwIP/src/api/sockets.c ****         sys_sem_signal(SELECT_SEM_PTR(scb->sem));
1673:Middlewares/Third_Party/LwIP/src/api/sockets.c ****       }
1674:Middlewares/Third_Party/LwIP/src/api/sockets.c ****     }
1675:Middlewares/Third_Party/LwIP/src/api/sockets.c ****     /* unlock interrupts with each step */
1676:Middlewares/Third_Party/LwIP/src/api/sockets.c ****     SYS_ARCH_UNPROTECT(lev);
1677:Middlewares/Third_Party/LwIP/src/api/sockets.c ****     /* this makes sure interrupt protection time is short */
1678:Middlewares/Third_Party/LwIP/src/api/sockets.c ****     SYS_ARCH_PROTECT(lev);
1679:Middlewares/Third_Party/LwIP/src/api/sockets.c ****     if (last_select_cb_ctr != select_cb_ctr) {
1680:Middlewares/Third_Party/LwIP/src/api/sockets.c ****       /* someone has changed select_cb_list, restart at the beginning */
1681:Middlewares/Third_Party/LwIP/src/api/sockets.c ****       goto again;
1682:Middlewares/Third_Party/LwIP/src/api/sockets.c ****     }
1683:Middlewares/Third_Party/LwIP/src/api/sockets.c ****   }
1684:Middlewares/Third_Party/LwIP/src/api/sockets.c ****   SYS_ARCH_UNPROTECT(lev);
1685:Middlewares/Third_Party/LwIP/src/api/sockets.c **** }
1686:Middlewares/Third_Party/LwIP/src/api/sockets.c **** 
1687:Middlewares/Third_Party/LwIP/src/api/sockets.c **** /**
1688:Middlewares/Third_Party/LwIP/src/api/sockets.c ****  * Close one end of a full-duplex connection.
1689:Middlewares/Third_Party/LwIP/src/api/sockets.c ****  */
1690:Middlewares/Third_Party/LwIP/src/api/sockets.c **** int
1691:Middlewares/Third_Party/LwIP/src/api/sockets.c **** lwip_shutdown(int s, int how)
1692:Middlewares/Third_Party/LwIP/src/api/sockets.c **** {
1693:Middlewares/Third_Party/LwIP/src/api/sockets.c ****   struct lwip_sock *sock;
1694:Middlewares/Third_Party/LwIP/src/api/sockets.c ****   err_t err;
1695:Middlewares/Third_Party/LwIP/src/api/sockets.c ****   u8_t shut_rx = 0, shut_tx = 0;
1696:Middlewares/Third_Party/LwIP/src/api/sockets.c **** 
1697:Middlewares/Third_Party/LwIP/src/api/sockets.c ****   LWIP_DEBUGF(SOCKETS_DEBUG, ("lwip_shutdown(%d, how=%d)\n", s, how));
1698:Middlewares/Third_Party/LwIP/src/api/sockets.c **** 
1699:Middlewares/Third_Party/LwIP/src/api/sockets.c ****   sock = get_socket(s);
1700:Middlewares/Third_Party/LwIP/src/api/sockets.c ****   if (!sock) {
1701:Middlewares/Third_Party/LwIP/src/api/sockets.c ****     return -1;
1702:Middlewares/Third_Party/LwIP/src/api/sockets.c ****   }
1703:Middlewares/Third_Party/LwIP/src/api/sockets.c **** 
1704:Middlewares/Third_Party/LwIP/src/api/sockets.c ****   if (sock->conn != NULL) {
1705:Middlewares/Third_Party/LwIP/src/api/sockets.c ****     if (NETCONNTYPE_GROUP(netconn_type(sock->conn)) != NETCONN_TCP) {
1706:Middlewares/Third_Party/LwIP/src/api/sockets.c ****       sock_set_errno(sock, EOPNOTSUPP);
1707:Middlewares/Third_Party/LwIP/src/api/sockets.c ****       return -1;
1708:Middlewares/Third_Party/LwIP/src/api/sockets.c ****     }
1709:Middlewares/Third_Party/LwIP/src/api/sockets.c ****   } else {
1710:Middlewares/Third_Party/LwIP/src/api/sockets.c ****     sock_set_errno(sock, ENOTCONN);
1711:Middlewares/Third_Party/LwIP/src/api/sockets.c ****     return -1;
1712:Middlewares/Third_Party/LwIP/src/api/sockets.c ****   }
1713:Middlewares/Third_Party/LwIP/src/api/sockets.c **** 
1714:Middlewares/Third_Party/LwIP/src/api/sockets.c ****   if (how == SHUT_RD) {
1715:Middlewares/Third_Party/LwIP/src/api/sockets.c ****     shut_rx = 1;
1716:Middlewares/Third_Party/LwIP/src/api/sockets.c ****   } else if (how == SHUT_WR) {
1717:Middlewares/Third_Party/LwIP/src/api/sockets.c ****     shut_tx = 1;
1718:Middlewares/Third_Party/LwIP/src/api/sockets.c ****   } else if (how == SHUT_RDWR) {
1719:Middlewares/Third_Party/LwIP/src/api/sockets.c ****     shut_rx = 1;
1720:Middlewares/Third_Party/LwIP/src/api/sockets.c ****     shut_tx = 1;
1721:Middlewares/Third_Party/LwIP/src/api/sockets.c ****   } else {
1722:Middlewares/Third_Party/LwIP/src/api/sockets.c ****     sock_set_errno(sock, EINVAL);
1723:Middlewares/Third_Party/LwIP/src/api/sockets.c ****     return -1;
1724:Middlewares/Third_Party/LwIP/src/api/sockets.c ****   }
ARM GAS  C:\Users\Student\AppData\Local\Temp\ccf85eJv.s 			page 34


1725:Middlewares/Third_Party/LwIP/src/api/sockets.c ****   err = netconn_shutdown(sock->conn, shut_rx, shut_tx);
1726:Middlewares/Third_Party/LwIP/src/api/sockets.c **** 
1727:Middlewares/Third_Party/LwIP/src/api/sockets.c ****   sock_set_errno(sock, err_to_errno(err));
1728:Middlewares/Third_Party/LwIP/src/api/sockets.c ****   return (err == ERR_OK ? 0 : -1);
1729:Middlewares/Third_Party/LwIP/src/api/sockets.c **** }
1730:Middlewares/Third_Party/LwIP/src/api/sockets.c **** 
1731:Middlewares/Third_Party/LwIP/src/api/sockets.c **** static int
1732:Middlewares/Third_Party/LwIP/src/api/sockets.c **** lwip_getaddrname(int s, struct sockaddr *name, socklen_t *namelen, u8_t local)
1733:Middlewares/Third_Party/LwIP/src/api/sockets.c **** {
1734:Middlewares/Third_Party/LwIP/src/api/sockets.c ****   struct lwip_sock *sock;
1735:Middlewares/Third_Party/LwIP/src/api/sockets.c ****   union sockaddr_aligned saddr;
1736:Middlewares/Third_Party/LwIP/src/api/sockets.c ****   ip_addr_t naddr;
1737:Middlewares/Third_Party/LwIP/src/api/sockets.c ****   u16_t port;
1738:Middlewares/Third_Party/LwIP/src/api/sockets.c ****   err_t err;
1739:Middlewares/Third_Party/LwIP/src/api/sockets.c **** 
1740:Middlewares/Third_Party/LwIP/src/api/sockets.c ****   sock = get_socket(s);
1741:Middlewares/Third_Party/LwIP/src/api/sockets.c ****   if (!sock) {
1742:Middlewares/Third_Party/LwIP/src/api/sockets.c ****     return -1;
1743:Middlewares/Third_Party/LwIP/src/api/sockets.c ****   }
1744:Middlewares/Third_Party/LwIP/src/api/sockets.c **** 
1745:Middlewares/Third_Party/LwIP/src/api/sockets.c ****   /* get the IP address and port */
1746:Middlewares/Third_Party/LwIP/src/api/sockets.c ****   err = netconn_getaddr(sock->conn, &naddr, &port, local);
1747:Middlewares/Third_Party/LwIP/src/api/sockets.c ****   if (err != ERR_OK) {
1748:Middlewares/Third_Party/LwIP/src/api/sockets.c ****     sock_set_errno(sock, err_to_errno(err));
1749:Middlewares/Third_Party/LwIP/src/api/sockets.c ****     return -1;
1750:Middlewares/Third_Party/LwIP/src/api/sockets.c ****   }
1751:Middlewares/Third_Party/LwIP/src/api/sockets.c **** 
1752:Middlewares/Third_Party/LwIP/src/api/sockets.c **** #if LWIP_IPV4 && LWIP_IPV6
1753:Middlewares/Third_Party/LwIP/src/api/sockets.c ****   /* Dual-stack: Map IPv4 addresses to IPv4 mapped IPv6 */
1754:Middlewares/Third_Party/LwIP/src/api/sockets.c ****   if (NETCONNTYPE_ISIPV6(netconn_type(sock->conn)) &&
1755:Middlewares/Third_Party/LwIP/src/api/sockets.c ****       IP_IS_V4_VAL(naddr)) {
1756:Middlewares/Third_Party/LwIP/src/api/sockets.c ****     ip4_2_ipv4_mapped_ipv6(ip_2_ip6(&naddr), ip_2_ip4(&naddr));
1757:Middlewares/Third_Party/LwIP/src/api/sockets.c ****     IP_SET_TYPE_VAL(naddr, IPADDR_TYPE_V6);
1758:Middlewares/Third_Party/LwIP/src/api/sockets.c ****   }
1759:Middlewares/Third_Party/LwIP/src/api/sockets.c **** #endif /* LWIP_IPV4 && LWIP_IPV6 */
1760:Middlewares/Third_Party/LwIP/src/api/sockets.c **** 
1761:Middlewares/Third_Party/LwIP/src/api/sockets.c ****   IPADDR_PORT_TO_SOCKADDR(&saddr, &naddr, port);
1762:Middlewares/Third_Party/LwIP/src/api/sockets.c **** 
1763:Middlewares/Third_Party/LwIP/src/api/sockets.c ****   LWIP_DEBUGF(SOCKETS_DEBUG, ("lwip_getaddrname(%d, addr=", s));
1764:Middlewares/Third_Party/LwIP/src/api/sockets.c ****   ip_addr_debug_print_val(SOCKETS_DEBUG, naddr);
1765:Middlewares/Third_Party/LwIP/src/api/sockets.c ****   LWIP_DEBUGF(SOCKETS_DEBUG, (" port=%"U16_F")\n", port));
1766:Middlewares/Third_Party/LwIP/src/api/sockets.c **** 
1767:Middlewares/Third_Party/LwIP/src/api/sockets.c ****   if (*namelen > saddr.sa.sa_len) {
1768:Middlewares/Third_Party/LwIP/src/api/sockets.c ****     *namelen = saddr.sa.sa_len;
1769:Middlewares/Third_Party/LwIP/src/api/sockets.c ****   }
1770:Middlewares/Third_Party/LwIP/src/api/sockets.c ****   MEMCPY(name, &saddr, *namelen);
1771:Middlewares/Third_Party/LwIP/src/api/sockets.c **** 
1772:Middlewares/Third_Party/LwIP/src/api/sockets.c ****   sock_set_errno(sock, 0);
1773:Middlewares/Third_Party/LwIP/src/api/sockets.c ****   return 0;
1774:Middlewares/Third_Party/LwIP/src/api/sockets.c **** }
1775:Middlewares/Third_Party/LwIP/src/api/sockets.c **** 
1776:Middlewares/Third_Party/LwIP/src/api/sockets.c **** int
1777:Middlewares/Third_Party/LwIP/src/api/sockets.c **** lwip_getpeername(int s, struct sockaddr *name, socklen_t *namelen)
1778:Middlewares/Third_Party/LwIP/src/api/sockets.c **** {
1779:Middlewares/Third_Party/LwIP/src/api/sockets.c ****   return lwip_getaddrname(s, name, namelen, 0);
1780:Middlewares/Third_Party/LwIP/src/api/sockets.c **** }
1781:Middlewares/Third_Party/LwIP/src/api/sockets.c **** 
ARM GAS  C:\Users\Student\AppData\Local\Temp\ccf85eJv.s 			page 35


1782:Middlewares/Third_Party/LwIP/src/api/sockets.c **** int
1783:Middlewares/Third_Party/LwIP/src/api/sockets.c **** lwip_getsockname(int s, struct sockaddr *name, socklen_t *namelen)
1784:Middlewares/Third_Party/LwIP/src/api/sockets.c **** {
1785:Middlewares/Third_Party/LwIP/src/api/sockets.c ****   return lwip_getaddrname(s, name, namelen, 1);
1786:Middlewares/Third_Party/LwIP/src/api/sockets.c **** }
1787:Middlewares/Third_Party/LwIP/src/api/sockets.c **** 
1788:Middlewares/Third_Party/LwIP/src/api/sockets.c **** int
1789:Middlewares/Third_Party/LwIP/src/api/sockets.c **** lwip_getsockopt(int s, int level, int optname, void *optval, socklen_t *optlen)
1790:Middlewares/Third_Party/LwIP/src/api/sockets.c **** {
1791:Middlewares/Third_Party/LwIP/src/api/sockets.c ****   u8_t err;
1792:Middlewares/Third_Party/LwIP/src/api/sockets.c ****   struct lwip_sock *sock = get_socket(s);
1793:Middlewares/Third_Party/LwIP/src/api/sockets.c **** #if !LWIP_TCPIP_CORE_LOCKING
1794:Middlewares/Third_Party/LwIP/src/api/sockets.c ****   LWIP_SETGETSOCKOPT_DATA_VAR_DECLARE(data);
1795:Middlewares/Third_Party/LwIP/src/api/sockets.c **** #endif /* !LWIP_TCPIP_CORE_LOCKING */
1796:Middlewares/Third_Party/LwIP/src/api/sockets.c **** 
1797:Middlewares/Third_Party/LwIP/src/api/sockets.c ****   if (!sock) {
1798:Middlewares/Third_Party/LwIP/src/api/sockets.c ****     return -1;
1799:Middlewares/Third_Party/LwIP/src/api/sockets.c ****   }
1800:Middlewares/Third_Party/LwIP/src/api/sockets.c **** 
1801:Middlewares/Third_Party/LwIP/src/api/sockets.c ****   if ((NULL == optval) || (NULL == optlen)) {
1802:Middlewares/Third_Party/LwIP/src/api/sockets.c ****     sock_set_errno(sock, EFAULT);
1803:Middlewares/Third_Party/LwIP/src/api/sockets.c ****     return -1;
1804:Middlewares/Third_Party/LwIP/src/api/sockets.c ****   }
1805:Middlewares/Third_Party/LwIP/src/api/sockets.c **** 
1806:Middlewares/Third_Party/LwIP/src/api/sockets.c **** #if LWIP_TCPIP_CORE_LOCKING
1807:Middlewares/Third_Party/LwIP/src/api/sockets.c ****   /* core-locking can just call the -impl function */
1808:Middlewares/Third_Party/LwIP/src/api/sockets.c ****   LOCK_TCPIP_CORE();
1809:Middlewares/Third_Party/LwIP/src/api/sockets.c ****   err = lwip_getsockopt_impl(s, level, optname, optval, optlen);
1810:Middlewares/Third_Party/LwIP/src/api/sockets.c ****   UNLOCK_TCPIP_CORE();
1811:Middlewares/Third_Party/LwIP/src/api/sockets.c **** 
1812:Middlewares/Third_Party/LwIP/src/api/sockets.c **** #else /* LWIP_TCPIP_CORE_LOCKING */
1813:Middlewares/Third_Party/LwIP/src/api/sockets.c **** 
1814:Middlewares/Third_Party/LwIP/src/api/sockets.c **** #if LWIP_MPU_COMPATIBLE
1815:Middlewares/Third_Party/LwIP/src/api/sockets.c ****   /* MPU_COMPATIBLE copies the optval data, so check for max size here */
1816:Middlewares/Third_Party/LwIP/src/api/sockets.c ****   if (*optlen > LWIP_SETGETSOCKOPT_MAXOPTLEN) {
1817:Middlewares/Third_Party/LwIP/src/api/sockets.c ****     sock_set_errno(sock, ENOBUFS);
1818:Middlewares/Third_Party/LwIP/src/api/sockets.c ****     return -1;
1819:Middlewares/Third_Party/LwIP/src/api/sockets.c ****   }
1820:Middlewares/Third_Party/LwIP/src/api/sockets.c **** #endif /* LWIP_MPU_COMPATIBLE */
1821:Middlewares/Third_Party/LwIP/src/api/sockets.c **** 
1822:Middlewares/Third_Party/LwIP/src/api/sockets.c ****   LWIP_SETGETSOCKOPT_DATA_VAR_ALLOC(data, sock);
1823:Middlewares/Third_Party/LwIP/src/api/sockets.c ****   LWIP_SETGETSOCKOPT_DATA_VAR_REF(data).s = s;
1824:Middlewares/Third_Party/LwIP/src/api/sockets.c ****   LWIP_SETGETSOCKOPT_DATA_VAR_REF(data).level = level;
1825:Middlewares/Third_Party/LwIP/src/api/sockets.c ****   LWIP_SETGETSOCKOPT_DATA_VAR_REF(data).optname = optname;
1826:Middlewares/Third_Party/LwIP/src/api/sockets.c ****   LWIP_SETGETSOCKOPT_DATA_VAR_REF(data).optlen = *optlen;
1827:Middlewares/Third_Party/LwIP/src/api/sockets.c **** #if !LWIP_MPU_COMPATIBLE
1828:Middlewares/Third_Party/LwIP/src/api/sockets.c ****   LWIP_SETGETSOCKOPT_DATA_VAR_REF(data).optval.p = optval;
1829:Middlewares/Third_Party/LwIP/src/api/sockets.c **** #endif /* !LWIP_MPU_COMPATIBLE */
1830:Middlewares/Third_Party/LwIP/src/api/sockets.c ****   LWIP_SETGETSOCKOPT_DATA_VAR_REF(data).err = 0;
1831:Middlewares/Third_Party/LwIP/src/api/sockets.c **** #if LWIP_NETCONN_SEM_PER_THREAD
1832:Middlewares/Third_Party/LwIP/src/api/sockets.c ****   LWIP_SETGETSOCKOPT_DATA_VAR_REF(data).completed_sem = LWIP_NETCONN_THREAD_SEM_GET();
1833:Middlewares/Third_Party/LwIP/src/api/sockets.c **** #else
1834:Middlewares/Third_Party/LwIP/src/api/sockets.c ****   LWIP_SETGETSOCKOPT_DATA_VAR_REF(data).completed_sem = &sock->conn->op_completed;
1835:Middlewares/Third_Party/LwIP/src/api/sockets.c **** #endif
1836:Middlewares/Third_Party/LwIP/src/api/sockets.c ****   err = tcpip_callback(lwip_getsockopt_callback, &LWIP_SETGETSOCKOPT_DATA_VAR_REF(data));
1837:Middlewares/Third_Party/LwIP/src/api/sockets.c ****   if (err != ERR_OK) {
1838:Middlewares/Third_Party/LwIP/src/api/sockets.c ****     LWIP_SETGETSOCKOPT_DATA_VAR_FREE(data);
ARM GAS  C:\Users\Student\AppData\Local\Temp\ccf85eJv.s 			page 36


1839:Middlewares/Third_Party/LwIP/src/api/sockets.c ****     sock_set_errno(sock, err_to_errno(err));
1840:Middlewares/Third_Party/LwIP/src/api/sockets.c ****     return -1;
1841:Middlewares/Third_Party/LwIP/src/api/sockets.c ****   }
1842:Middlewares/Third_Party/LwIP/src/api/sockets.c ****   sys_arch_sem_wait((sys_sem_t*)(LWIP_SETGETSOCKOPT_DATA_VAR_REF(data).completed_sem), 0);
1843:Middlewares/Third_Party/LwIP/src/api/sockets.c **** 
1844:Middlewares/Third_Party/LwIP/src/api/sockets.c ****   /* write back optlen and optval */
1845:Middlewares/Third_Party/LwIP/src/api/sockets.c ****   *optlen = LWIP_SETGETSOCKOPT_DATA_VAR_REF(data).optlen;
1846:Middlewares/Third_Party/LwIP/src/api/sockets.c **** #if LWIP_MPU_COMPATIBLE
1847:Middlewares/Third_Party/LwIP/src/api/sockets.c ****   MEMCPY(optval, LWIP_SETGETSOCKOPT_DATA_VAR_REF(data).optval,
1848:Middlewares/Third_Party/LwIP/src/api/sockets.c ****     LWIP_SETGETSOCKOPT_DATA_VAR_REF(data).optlen);
1849:Middlewares/Third_Party/LwIP/src/api/sockets.c **** #endif /* LWIP_MPU_COMPATIBLE */
1850:Middlewares/Third_Party/LwIP/src/api/sockets.c **** 
1851:Middlewares/Third_Party/LwIP/src/api/sockets.c ****   /* maybe lwip_getsockopt_internal has changed err */
1852:Middlewares/Third_Party/LwIP/src/api/sockets.c ****   err = LWIP_SETGETSOCKOPT_DATA_VAR_REF(data).err;
1853:Middlewares/Third_Party/LwIP/src/api/sockets.c ****   LWIP_SETGETSOCKOPT_DATA_VAR_FREE(data);
1854:Middlewares/Third_Party/LwIP/src/api/sockets.c **** #endif /* LWIP_TCPIP_CORE_LOCKING */
1855:Middlewares/Third_Party/LwIP/src/api/sockets.c **** 
1856:Middlewares/Third_Party/LwIP/src/api/sockets.c ****   sock_set_errno(sock, err);
1857:Middlewares/Third_Party/LwIP/src/api/sockets.c ****   return err ? -1 : 0;
1858:Middlewares/Third_Party/LwIP/src/api/sockets.c **** }
1859:Middlewares/Third_Party/LwIP/src/api/sockets.c **** 
1860:Middlewares/Third_Party/LwIP/src/api/sockets.c **** #if !LWIP_TCPIP_CORE_LOCKING
1861:Middlewares/Third_Party/LwIP/src/api/sockets.c **** /** lwip_getsockopt_callback: only used without CORE_LOCKING
1862:Middlewares/Third_Party/LwIP/src/api/sockets.c ****  * to get into the tcpip_thread
1863:Middlewares/Third_Party/LwIP/src/api/sockets.c ****  */
1864:Middlewares/Third_Party/LwIP/src/api/sockets.c **** static void
1865:Middlewares/Third_Party/LwIP/src/api/sockets.c **** lwip_getsockopt_callback(void *arg)
1866:Middlewares/Third_Party/LwIP/src/api/sockets.c **** {
1867:Middlewares/Third_Party/LwIP/src/api/sockets.c ****   struct lwip_setgetsockopt_data *data;
1868:Middlewares/Third_Party/LwIP/src/api/sockets.c ****   LWIP_ASSERT("arg != NULL", arg != NULL);
1869:Middlewares/Third_Party/LwIP/src/api/sockets.c ****   data = (struct lwip_setgetsockopt_data*)arg;
1870:Middlewares/Third_Party/LwIP/src/api/sockets.c **** 
1871:Middlewares/Third_Party/LwIP/src/api/sockets.c ****   data->err = lwip_getsockopt_impl(data->s, data->level, data->optname,
1872:Middlewares/Third_Party/LwIP/src/api/sockets.c **** #if LWIP_MPU_COMPATIBLE
1873:Middlewares/Third_Party/LwIP/src/api/sockets.c ****     data->optval,
1874:Middlewares/Third_Party/LwIP/src/api/sockets.c **** #else /* LWIP_MPU_COMPATIBLE */
1875:Middlewares/Third_Party/LwIP/src/api/sockets.c ****     data->optval.p,
1876:Middlewares/Third_Party/LwIP/src/api/sockets.c **** #endif /* LWIP_MPU_COMPATIBLE */
1877:Middlewares/Third_Party/LwIP/src/api/sockets.c ****     &data->optlen);
1878:Middlewares/Third_Party/LwIP/src/api/sockets.c **** 
1879:Middlewares/Third_Party/LwIP/src/api/sockets.c ****   sys_sem_signal((sys_sem_t*)(data->completed_sem));
1880:Middlewares/Third_Party/LwIP/src/api/sockets.c **** }
1881:Middlewares/Third_Party/LwIP/src/api/sockets.c **** #endif  /* LWIP_TCPIP_CORE_LOCKING */
1882:Middlewares/Third_Party/LwIP/src/api/sockets.c **** 
1883:Middlewares/Third_Party/LwIP/src/api/sockets.c **** /** lwip_getsockopt_impl: the actual implementation of getsockopt:
1884:Middlewares/Third_Party/LwIP/src/api/sockets.c ****  * same argument as lwip_getsockopt, either called directly or through callback
1885:Middlewares/Third_Party/LwIP/src/api/sockets.c ****  */
1886:Middlewares/Third_Party/LwIP/src/api/sockets.c **** static u8_t
1887:Middlewares/Third_Party/LwIP/src/api/sockets.c **** lwip_getsockopt_impl(int s, int level, int optname, void *optval, socklen_t *optlen)
1888:Middlewares/Third_Party/LwIP/src/api/sockets.c **** {
1889:Middlewares/Third_Party/LwIP/src/api/sockets.c ****   u8_t err = 0;
1890:Middlewares/Third_Party/LwIP/src/api/sockets.c ****   struct lwip_sock *sock = tryget_socket(s);
1891:Middlewares/Third_Party/LwIP/src/api/sockets.c ****   if (!sock) {
1892:Middlewares/Third_Party/LwIP/src/api/sockets.c ****     return EBADF;
1893:Middlewares/Third_Party/LwIP/src/api/sockets.c ****   }
1894:Middlewares/Third_Party/LwIP/src/api/sockets.c **** 
1895:Middlewares/Third_Party/LwIP/src/api/sockets.c ****   switch (level) {
ARM GAS  C:\Users\Student\AppData\Local\Temp\ccf85eJv.s 			page 37


1896:Middlewares/Third_Party/LwIP/src/api/sockets.c **** 
1897:Middlewares/Third_Party/LwIP/src/api/sockets.c **** /* Level: SOL_SOCKET */
1898:Middlewares/Third_Party/LwIP/src/api/sockets.c ****   case SOL_SOCKET:
1899:Middlewares/Third_Party/LwIP/src/api/sockets.c ****     switch (optname) {
1900:Middlewares/Third_Party/LwIP/src/api/sockets.c **** 
1901:Middlewares/Third_Party/LwIP/src/api/sockets.c **** #if LWIP_TCP
1902:Middlewares/Third_Party/LwIP/src/api/sockets.c ****     case SO_ACCEPTCONN:
1903:Middlewares/Third_Party/LwIP/src/api/sockets.c ****       LWIP_SOCKOPT_CHECK_OPTLEN_CONN_PCB(sock, *optlen, int);
1904:Middlewares/Third_Party/LwIP/src/api/sockets.c ****       if (NETCONNTYPE_GROUP(sock->conn->type) != NETCONN_TCP) {
1905:Middlewares/Third_Party/LwIP/src/api/sockets.c ****         return ENOPROTOOPT;
1906:Middlewares/Third_Party/LwIP/src/api/sockets.c ****       }
1907:Middlewares/Third_Party/LwIP/src/api/sockets.c ****       if ((sock->conn->pcb.tcp != NULL) && (sock->conn->pcb.tcp->state == LISTEN)) {
1908:Middlewares/Third_Party/LwIP/src/api/sockets.c ****         *(int*)optval = 1;
1909:Middlewares/Third_Party/LwIP/src/api/sockets.c ****       } else {
1910:Middlewares/Third_Party/LwIP/src/api/sockets.c ****         *(int*)optval = 0;
1911:Middlewares/Third_Party/LwIP/src/api/sockets.c ****       }
1912:Middlewares/Third_Party/LwIP/src/api/sockets.c ****       break;
1913:Middlewares/Third_Party/LwIP/src/api/sockets.c **** #endif /* LWIP_TCP */
1914:Middlewares/Third_Party/LwIP/src/api/sockets.c **** 
1915:Middlewares/Third_Party/LwIP/src/api/sockets.c ****     /* The option flags */
1916:Middlewares/Third_Party/LwIP/src/api/sockets.c ****     case SO_BROADCAST:
1917:Middlewares/Third_Party/LwIP/src/api/sockets.c ****     case SO_KEEPALIVE:
1918:Middlewares/Third_Party/LwIP/src/api/sockets.c **** #if SO_REUSE
1919:Middlewares/Third_Party/LwIP/src/api/sockets.c ****     case SO_REUSEADDR:
1920:Middlewares/Third_Party/LwIP/src/api/sockets.c **** #endif /* SO_REUSE */
1921:Middlewares/Third_Party/LwIP/src/api/sockets.c ****       LWIP_SOCKOPT_CHECK_OPTLEN_CONN_PCB(sock, *optlen, int);
1922:Middlewares/Third_Party/LwIP/src/api/sockets.c ****       *(int*)optval = ip_get_option(sock->conn->pcb.ip, optname);
1923:Middlewares/Third_Party/LwIP/src/api/sockets.c ****       LWIP_DEBUGF(SOCKETS_DEBUG, ("lwip_getsockopt(%d, SOL_SOCKET, optname=0x%x, ..) = %s\n",
1924:Middlewares/Third_Party/LwIP/src/api/sockets.c ****                                   s, optname, (*(int*)optval?"on":"off")));
1925:Middlewares/Third_Party/LwIP/src/api/sockets.c ****       break;
1926:Middlewares/Third_Party/LwIP/src/api/sockets.c **** 
1927:Middlewares/Third_Party/LwIP/src/api/sockets.c ****     case SO_TYPE:
1928:Middlewares/Third_Party/LwIP/src/api/sockets.c ****       LWIP_SOCKOPT_CHECK_OPTLEN_CONN(sock, *optlen, int);
1929:Middlewares/Third_Party/LwIP/src/api/sockets.c ****       switch (NETCONNTYPE_GROUP(netconn_type(sock->conn))) {
1930:Middlewares/Third_Party/LwIP/src/api/sockets.c ****       case NETCONN_RAW:
1931:Middlewares/Third_Party/LwIP/src/api/sockets.c ****         *(int*)optval = SOCK_RAW;
1932:Middlewares/Third_Party/LwIP/src/api/sockets.c ****         break;
1933:Middlewares/Third_Party/LwIP/src/api/sockets.c ****       case NETCONN_TCP:
1934:Middlewares/Third_Party/LwIP/src/api/sockets.c ****         *(int*)optval = SOCK_STREAM;
1935:Middlewares/Third_Party/LwIP/src/api/sockets.c ****         break;
1936:Middlewares/Third_Party/LwIP/src/api/sockets.c ****       case NETCONN_UDP:
1937:Middlewares/Third_Party/LwIP/src/api/sockets.c ****         *(int*)optval = SOCK_DGRAM;
1938:Middlewares/Third_Party/LwIP/src/api/sockets.c ****         break;
1939:Middlewares/Third_Party/LwIP/src/api/sockets.c ****       default: /* unrecognized socket type */
1940:Middlewares/Third_Party/LwIP/src/api/sockets.c ****         *(int*)optval = netconn_type(sock->conn);
1941:Middlewares/Third_Party/LwIP/src/api/sockets.c ****         LWIP_DEBUGF(SOCKETS_DEBUG,
1942:Middlewares/Third_Party/LwIP/src/api/sockets.c ****                     ("lwip_getsockopt(%d, SOL_SOCKET, SO_TYPE): unrecognized socket type %d\n",
1943:Middlewares/Third_Party/LwIP/src/api/sockets.c ****                     s, *(int *)optval));
1944:Middlewares/Third_Party/LwIP/src/api/sockets.c ****       }  /* switch (netconn_type(sock->conn)) */
1945:Middlewares/Third_Party/LwIP/src/api/sockets.c ****       LWIP_DEBUGF(SOCKETS_DEBUG, ("lwip_getsockopt(%d, SOL_SOCKET, SO_TYPE) = %d\n",
1946:Middlewares/Third_Party/LwIP/src/api/sockets.c ****                   s, *(int *)optval));
1947:Middlewares/Third_Party/LwIP/src/api/sockets.c ****       break;
1948:Middlewares/Third_Party/LwIP/src/api/sockets.c **** 
1949:Middlewares/Third_Party/LwIP/src/api/sockets.c ****     case SO_ERROR:
1950:Middlewares/Third_Party/LwIP/src/api/sockets.c ****       LWIP_SOCKOPT_CHECK_OPTLEN(*optlen, int);
1951:Middlewares/Third_Party/LwIP/src/api/sockets.c ****       /* only overwrite ERR_OK or temporary errors */
1952:Middlewares/Third_Party/LwIP/src/api/sockets.c ****       if (((sock->err == 0) || (sock->err == EINPROGRESS)) && (sock->conn != NULL)) {
ARM GAS  C:\Users\Student\AppData\Local\Temp\ccf85eJv.s 			page 38


1953:Middlewares/Third_Party/LwIP/src/api/sockets.c ****         sock_set_errno(sock, err_to_errno(sock->conn->last_err));
1954:Middlewares/Third_Party/LwIP/src/api/sockets.c ****       }
1955:Middlewares/Third_Party/LwIP/src/api/sockets.c ****       *(int *)optval = (sock->err == 0xFF ? (int)-1 : (int)sock->err);
1956:Middlewares/Third_Party/LwIP/src/api/sockets.c ****       sock->err = 0;
1957:Middlewares/Third_Party/LwIP/src/api/sockets.c ****       LWIP_DEBUGF(SOCKETS_DEBUG, ("lwip_getsockopt(%d, SOL_SOCKET, SO_ERROR) = %d\n",
1958:Middlewares/Third_Party/LwIP/src/api/sockets.c ****                   s, *(int *)optval));
1959:Middlewares/Third_Party/LwIP/src/api/sockets.c ****       break;
1960:Middlewares/Third_Party/LwIP/src/api/sockets.c **** 
1961:Middlewares/Third_Party/LwIP/src/api/sockets.c **** #if LWIP_SO_SNDTIMEO
1962:Middlewares/Third_Party/LwIP/src/api/sockets.c ****     case SO_SNDTIMEO:
1963:Middlewares/Third_Party/LwIP/src/api/sockets.c ****       LWIP_SOCKOPT_CHECK_OPTLEN_CONN(sock, *optlen, LWIP_SO_SNDRCVTIMEO_OPTTYPE);
1964:Middlewares/Third_Party/LwIP/src/api/sockets.c ****       LWIP_SO_SNDRCVTIMEO_SET(optval, netconn_get_sendtimeout(sock->conn));
1965:Middlewares/Third_Party/LwIP/src/api/sockets.c ****       break;
1966:Middlewares/Third_Party/LwIP/src/api/sockets.c **** #endif /* LWIP_SO_SNDTIMEO */
1967:Middlewares/Third_Party/LwIP/src/api/sockets.c **** #if LWIP_SO_RCVTIMEO
1968:Middlewares/Third_Party/LwIP/src/api/sockets.c ****     case SO_RCVTIMEO:
1969:Middlewares/Third_Party/LwIP/src/api/sockets.c ****       LWIP_SOCKOPT_CHECK_OPTLEN_CONN(sock, *optlen, LWIP_SO_SNDRCVTIMEO_OPTTYPE);
1970:Middlewares/Third_Party/LwIP/src/api/sockets.c ****       LWIP_SO_SNDRCVTIMEO_SET(optval, netconn_get_recvtimeout(sock->conn));
1971:Middlewares/Third_Party/LwIP/src/api/sockets.c ****       break;
1972:Middlewares/Third_Party/LwIP/src/api/sockets.c **** #endif /* LWIP_SO_RCVTIMEO */
1973:Middlewares/Third_Party/LwIP/src/api/sockets.c **** #if LWIP_SO_RCVBUF
1974:Middlewares/Third_Party/LwIP/src/api/sockets.c ****     case SO_RCVBUF:
1975:Middlewares/Third_Party/LwIP/src/api/sockets.c ****       LWIP_SOCKOPT_CHECK_OPTLEN_CONN(sock, *optlen, int);
1976:Middlewares/Third_Party/LwIP/src/api/sockets.c ****       *(int *)optval = netconn_get_recvbufsize(sock->conn);
1977:Middlewares/Third_Party/LwIP/src/api/sockets.c ****       break;
1978:Middlewares/Third_Party/LwIP/src/api/sockets.c **** #endif /* LWIP_SO_RCVBUF */
1979:Middlewares/Third_Party/LwIP/src/api/sockets.c **** #if LWIP_SO_LINGER
1980:Middlewares/Third_Party/LwIP/src/api/sockets.c ****     case SO_LINGER:
1981:Middlewares/Third_Party/LwIP/src/api/sockets.c ****       {
1982:Middlewares/Third_Party/LwIP/src/api/sockets.c ****         s16_t conn_linger;
1983:Middlewares/Third_Party/LwIP/src/api/sockets.c ****         struct linger* linger = (struct linger*)optval;
1984:Middlewares/Third_Party/LwIP/src/api/sockets.c ****         LWIP_SOCKOPT_CHECK_OPTLEN_CONN(sock, *optlen, struct linger);
1985:Middlewares/Third_Party/LwIP/src/api/sockets.c ****         conn_linger = sock->conn->linger;
1986:Middlewares/Third_Party/LwIP/src/api/sockets.c ****         if (conn_linger >= 0) {
1987:Middlewares/Third_Party/LwIP/src/api/sockets.c ****           linger->l_onoff = 1;
1988:Middlewares/Third_Party/LwIP/src/api/sockets.c ****           linger->l_linger = (int)conn_linger;
1989:Middlewares/Third_Party/LwIP/src/api/sockets.c ****         } else {
1990:Middlewares/Third_Party/LwIP/src/api/sockets.c ****           linger->l_onoff = 0;
1991:Middlewares/Third_Party/LwIP/src/api/sockets.c ****           linger->l_linger = 0;
1992:Middlewares/Third_Party/LwIP/src/api/sockets.c ****         }
1993:Middlewares/Third_Party/LwIP/src/api/sockets.c ****       }
1994:Middlewares/Third_Party/LwIP/src/api/sockets.c ****       break;
1995:Middlewares/Third_Party/LwIP/src/api/sockets.c **** #endif /* LWIP_SO_LINGER */
1996:Middlewares/Third_Party/LwIP/src/api/sockets.c **** #if LWIP_UDP
1997:Middlewares/Third_Party/LwIP/src/api/sockets.c ****     case SO_NO_CHECK:
1998:Middlewares/Third_Party/LwIP/src/api/sockets.c ****       LWIP_SOCKOPT_CHECK_OPTLEN_CONN_PCB_TYPE(sock, *optlen, int, NETCONN_UDP);
1999:Middlewares/Third_Party/LwIP/src/api/sockets.c **** #if LWIP_UDPLITE
2000:Middlewares/Third_Party/LwIP/src/api/sockets.c ****       if ((udp_flags(sock->conn->pcb.udp) & UDP_FLAGS_UDPLITE) != 0) {
2001:Middlewares/Third_Party/LwIP/src/api/sockets.c ****         /* this flag is only available for UDP, not for UDP lite */
2002:Middlewares/Third_Party/LwIP/src/api/sockets.c ****         return EAFNOSUPPORT;
2003:Middlewares/Third_Party/LwIP/src/api/sockets.c ****       }
2004:Middlewares/Third_Party/LwIP/src/api/sockets.c **** #endif /* LWIP_UDPLITE */
2005:Middlewares/Third_Party/LwIP/src/api/sockets.c ****       *(int*)optval = (udp_flags(sock->conn->pcb.udp) & UDP_FLAGS_NOCHKSUM) ? 1 : 0;
2006:Middlewares/Third_Party/LwIP/src/api/sockets.c ****       break;
2007:Middlewares/Third_Party/LwIP/src/api/sockets.c **** #endif /* LWIP_UDP*/
2008:Middlewares/Third_Party/LwIP/src/api/sockets.c ****     default:
2009:Middlewares/Third_Party/LwIP/src/api/sockets.c ****       LWIP_DEBUGF(SOCKETS_DEBUG, ("lwip_getsockopt(%d, SOL_SOCKET, UNIMPL: optname=0x%x, ..)\n",
ARM GAS  C:\Users\Student\AppData\Local\Temp\ccf85eJv.s 			page 39


2010:Middlewares/Third_Party/LwIP/src/api/sockets.c ****                   s, optname));
2011:Middlewares/Third_Party/LwIP/src/api/sockets.c ****       err = ENOPROTOOPT;
2012:Middlewares/Third_Party/LwIP/src/api/sockets.c ****       break;
2013:Middlewares/Third_Party/LwIP/src/api/sockets.c ****     }  /* switch (optname) */
2014:Middlewares/Third_Party/LwIP/src/api/sockets.c ****     break;
2015:Middlewares/Third_Party/LwIP/src/api/sockets.c **** 
2016:Middlewares/Third_Party/LwIP/src/api/sockets.c **** /* Level: IPPROTO_IP */
2017:Middlewares/Third_Party/LwIP/src/api/sockets.c ****   case IPPROTO_IP:
2018:Middlewares/Third_Party/LwIP/src/api/sockets.c ****     switch (optname) {
2019:Middlewares/Third_Party/LwIP/src/api/sockets.c ****     case IP_TTL:
2020:Middlewares/Third_Party/LwIP/src/api/sockets.c ****       LWIP_SOCKOPT_CHECK_OPTLEN_CONN_PCB(sock, *optlen, int);
2021:Middlewares/Third_Party/LwIP/src/api/sockets.c ****       *(int*)optval = sock->conn->pcb.ip->ttl;
2022:Middlewares/Third_Party/LwIP/src/api/sockets.c ****       LWIP_DEBUGF(SOCKETS_DEBUG, ("lwip_getsockopt(%d, IPPROTO_IP, IP_TTL) = %d\n",
2023:Middlewares/Third_Party/LwIP/src/api/sockets.c ****                   s, *(int *)optval));
2024:Middlewares/Third_Party/LwIP/src/api/sockets.c ****       break;
2025:Middlewares/Third_Party/LwIP/src/api/sockets.c ****     case IP_TOS:
2026:Middlewares/Third_Party/LwIP/src/api/sockets.c ****       LWIP_SOCKOPT_CHECK_OPTLEN_CONN_PCB(sock, *optlen, int);
2027:Middlewares/Third_Party/LwIP/src/api/sockets.c ****       *(int*)optval = sock->conn->pcb.ip->tos;
2028:Middlewares/Third_Party/LwIP/src/api/sockets.c ****       LWIP_DEBUGF(SOCKETS_DEBUG, ("lwip_getsockopt(%d, IPPROTO_IP, IP_TOS) = %d\n",
2029:Middlewares/Third_Party/LwIP/src/api/sockets.c ****                   s, *(int *)optval));
2030:Middlewares/Third_Party/LwIP/src/api/sockets.c ****       break;
2031:Middlewares/Third_Party/LwIP/src/api/sockets.c **** #if LWIP_MULTICAST_TX_OPTIONS
2032:Middlewares/Third_Party/LwIP/src/api/sockets.c ****     case IP_MULTICAST_TTL:
2033:Middlewares/Third_Party/LwIP/src/api/sockets.c ****       LWIP_SOCKOPT_CHECK_OPTLEN_CONN_PCB(sock, *optlen, u8_t);
2034:Middlewares/Third_Party/LwIP/src/api/sockets.c ****       if (NETCONNTYPE_GROUP(netconn_type(sock->conn)) != NETCONN_UDP) {
2035:Middlewares/Third_Party/LwIP/src/api/sockets.c ****         return ENOPROTOOPT;
2036:Middlewares/Third_Party/LwIP/src/api/sockets.c ****       }
2037:Middlewares/Third_Party/LwIP/src/api/sockets.c ****       *(u8_t*)optval = udp_get_multicast_ttl(sock->conn->pcb.udp);
2038:Middlewares/Third_Party/LwIP/src/api/sockets.c ****       LWIP_DEBUGF(SOCKETS_DEBUG, ("lwip_getsockopt(%d, IPPROTO_IP, IP_MULTICAST_TTL) = %d\n",
2039:Middlewares/Third_Party/LwIP/src/api/sockets.c ****                   s, *(int *)optval));
2040:Middlewares/Third_Party/LwIP/src/api/sockets.c ****       break;
2041:Middlewares/Third_Party/LwIP/src/api/sockets.c ****     case IP_MULTICAST_IF:
2042:Middlewares/Third_Party/LwIP/src/api/sockets.c ****       LWIP_SOCKOPT_CHECK_OPTLEN_CONN_PCB(sock, *optlen, struct in_addr);
2043:Middlewares/Third_Party/LwIP/src/api/sockets.c ****       if (NETCONNTYPE_GROUP(netconn_type(sock->conn)) != NETCONN_UDP) {
2044:Middlewares/Third_Party/LwIP/src/api/sockets.c ****         return ENOPROTOOPT;
2045:Middlewares/Third_Party/LwIP/src/api/sockets.c ****       }
2046:Middlewares/Third_Party/LwIP/src/api/sockets.c ****       inet_addr_from_ip4addr((struct in_addr*)optval, udp_get_multicast_netif_addr(sock->conn->pcb.
2047:Middlewares/Third_Party/LwIP/src/api/sockets.c ****       LWIP_DEBUGF(SOCKETS_DEBUG, ("lwip_getsockopt(%d, IPPROTO_IP, IP_MULTICAST_IF) = 0x%"X32_F"\n"
2048:Middlewares/Third_Party/LwIP/src/api/sockets.c ****                   s, *(u32_t *)optval));
2049:Middlewares/Third_Party/LwIP/src/api/sockets.c ****       break;
2050:Middlewares/Third_Party/LwIP/src/api/sockets.c ****     case IP_MULTICAST_LOOP:
2051:Middlewares/Third_Party/LwIP/src/api/sockets.c ****       LWIP_SOCKOPT_CHECK_OPTLEN_CONN_PCB(sock, *optlen, u8_t);
2052:Middlewares/Third_Party/LwIP/src/api/sockets.c ****       if ((sock->conn->pcb.udp->flags & UDP_FLAGS_MULTICAST_LOOP) != 0) {
2053:Middlewares/Third_Party/LwIP/src/api/sockets.c ****         *(u8_t*)optval = 1;
2054:Middlewares/Third_Party/LwIP/src/api/sockets.c ****       } else {
2055:Middlewares/Third_Party/LwIP/src/api/sockets.c ****         *(u8_t*)optval = 0;
2056:Middlewares/Third_Party/LwIP/src/api/sockets.c ****       }
2057:Middlewares/Third_Party/LwIP/src/api/sockets.c ****       LWIP_DEBUGF(SOCKETS_DEBUG, ("lwip_getsockopt(%d, IPPROTO_IP, IP_MULTICAST_LOOP) = %d\n",
2058:Middlewares/Third_Party/LwIP/src/api/sockets.c ****                   s, *(int *)optval));
2059:Middlewares/Third_Party/LwIP/src/api/sockets.c ****       break;
2060:Middlewares/Third_Party/LwIP/src/api/sockets.c **** #endif /* LWIP_MULTICAST_TX_OPTIONS */
2061:Middlewares/Third_Party/LwIP/src/api/sockets.c ****     default:
2062:Middlewares/Third_Party/LwIP/src/api/sockets.c ****       LWIP_DEBUGF(SOCKETS_DEBUG, ("lwip_getsockopt(%d, IPPROTO_IP, UNIMPL: optname=0x%x, ..)\n",
2063:Middlewares/Third_Party/LwIP/src/api/sockets.c ****                   s, optname));
2064:Middlewares/Third_Party/LwIP/src/api/sockets.c ****       err = ENOPROTOOPT;
2065:Middlewares/Third_Party/LwIP/src/api/sockets.c ****       break;
2066:Middlewares/Third_Party/LwIP/src/api/sockets.c ****     }  /* switch (optname) */
ARM GAS  C:\Users\Student\AppData\Local\Temp\ccf85eJv.s 			page 40


2067:Middlewares/Third_Party/LwIP/src/api/sockets.c ****     break;
2068:Middlewares/Third_Party/LwIP/src/api/sockets.c **** 
2069:Middlewares/Third_Party/LwIP/src/api/sockets.c **** #if LWIP_TCP
2070:Middlewares/Third_Party/LwIP/src/api/sockets.c **** /* Level: IPPROTO_TCP */
2071:Middlewares/Third_Party/LwIP/src/api/sockets.c ****   case IPPROTO_TCP:
2072:Middlewares/Third_Party/LwIP/src/api/sockets.c ****     /* Special case: all IPPROTO_TCP option take an int */
2073:Middlewares/Third_Party/LwIP/src/api/sockets.c ****     LWIP_SOCKOPT_CHECK_OPTLEN_CONN_PCB_TYPE(sock, *optlen, int, NETCONN_TCP);
2074:Middlewares/Third_Party/LwIP/src/api/sockets.c ****     if (sock->conn->pcb.tcp->state == LISTEN) {
2075:Middlewares/Third_Party/LwIP/src/api/sockets.c ****       return EINVAL;
2076:Middlewares/Third_Party/LwIP/src/api/sockets.c ****     }
2077:Middlewares/Third_Party/LwIP/src/api/sockets.c ****     switch (optname) {
2078:Middlewares/Third_Party/LwIP/src/api/sockets.c ****     case TCP_NODELAY:
2079:Middlewares/Third_Party/LwIP/src/api/sockets.c ****       *(int*)optval = tcp_nagle_disabled(sock->conn->pcb.tcp);
2080:Middlewares/Third_Party/LwIP/src/api/sockets.c ****       LWIP_DEBUGF(SOCKETS_DEBUG, ("lwip_getsockopt(%d, IPPROTO_TCP, TCP_NODELAY) = %s\n",
2081:Middlewares/Third_Party/LwIP/src/api/sockets.c ****                   s, (*(int*)optval)?"on":"off") );
2082:Middlewares/Third_Party/LwIP/src/api/sockets.c ****       break;
2083:Middlewares/Third_Party/LwIP/src/api/sockets.c ****     case TCP_KEEPALIVE:
2084:Middlewares/Third_Party/LwIP/src/api/sockets.c ****       *(int*)optval = (int)sock->conn->pcb.tcp->keep_idle;
2085:Middlewares/Third_Party/LwIP/src/api/sockets.c ****       LWIP_DEBUGF(SOCKETS_DEBUG, ("lwip_getsockopt(%d, IPPROTO_TCP, TCP_KEEPALIVE) = %d\n",
2086:Middlewares/Third_Party/LwIP/src/api/sockets.c ****                   s, *(int *)optval));
2087:Middlewares/Third_Party/LwIP/src/api/sockets.c ****       break;
2088:Middlewares/Third_Party/LwIP/src/api/sockets.c **** 
2089:Middlewares/Third_Party/LwIP/src/api/sockets.c **** #if LWIP_TCP_KEEPALIVE
2090:Middlewares/Third_Party/LwIP/src/api/sockets.c ****     case TCP_KEEPIDLE:
2091:Middlewares/Third_Party/LwIP/src/api/sockets.c ****       *(int*)optval = (int)(sock->conn->pcb.tcp->keep_idle/1000);
2092:Middlewares/Third_Party/LwIP/src/api/sockets.c ****       LWIP_DEBUGF(SOCKETS_DEBUG, ("lwip_getsockopt(%d, IPPROTO_TCP, TCP_KEEPIDLE) = %d\n",
2093:Middlewares/Third_Party/LwIP/src/api/sockets.c ****                   s, *(int *)optval));
2094:Middlewares/Third_Party/LwIP/src/api/sockets.c ****       break;
2095:Middlewares/Third_Party/LwIP/src/api/sockets.c ****     case TCP_KEEPINTVL:
2096:Middlewares/Third_Party/LwIP/src/api/sockets.c ****       *(int*)optval = (int)(sock->conn->pcb.tcp->keep_intvl/1000);
2097:Middlewares/Third_Party/LwIP/src/api/sockets.c ****       LWIP_DEBUGF(SOCKETS_DEBUG, ("lwip_getsockopt(%d, IPPROTO_TCP, TCP_KEEPINTVL) = %d\n",
2098:Middlewares/Third_Party/LwIP/src/api/sockets.c ****                   s, *(int *)optval));
2099:Middlewares/Third_Party/LwIP/src/api/sockets.c ****       break;
2100:Middlewares/Third_Party/LwIP/src/api/sockets.c ****     case TCP_KEEPCNT:
2101:Middlewares/Third_Party/LwIP/src/api/sockets.c ****       *(int*)optval = (int)sock->conn->pcb.tcp->keep_cnt;
2102:Middlewares/Third_Party/LwIP/src/api/sockets.c ****       LWIP_DEBUGF(SOCKETS_DEBUG, ("lwip_getsockopt(%d, IPPROTO_TCP, TCP_KEEPCNT) = %d\n",
2103:Middlewares/Third_Party/LwIP/src/api/sockets.c ****                   s, *(int *)optval));
2104:Middlewares/Third_Party/LwIP/src/api/sockets.c ****       break;
2105:Middlewares/Third_Party/LwIP/src/api/sockets.c **** #endif /* LWIP_TCP_KEEPALIVE */
2106:Middlewares/Third_Party/LwIP/src/api/sockets.c ****     default:
2107:Middlewares/Third_Party/LwIP/src/api/sockets.c ****       LWIP_DEBUGF(SOCKETS_DEBUG, ("lwip_getsockopt(%d, IPPROTO_TCP, UNIMPL: optname=0x%x, ..)\n",
2108:Middlewares/Third_Party/LwIP/src/api/sockets.c ****                   s, optname));
2109:Middlewares/Third_Party/LwIP/src/api/sockets.c ****       err = ENOPROTOOPT;
2110:Middlewares/Third_Party/LwIP/src/api/sockets.c ****       break;
2111:Middlewares/Third_Party/LwIP/src/api/sockets.c ****     }  /* switch (optname) */
2112:Middlewares/Third_Party/LwIP/src/api/sockets.c ****     break;
2113:Middlewares/Third_Party/LwIP/src/api/sockets.c **** #endif /* LWIP_TCP */
2114:Middlewares/Third_Party/LwIP/src/api/sockets.c **** 
2115:Middlewares/Third_Party/LwIP/src/api/sockets.c **** #if LWIP_IPV6
2116:Middlewares/Third_Party/LwIP/src/api/sockets.c **** /* Level: IPPROTO_IPV6 */
2117:Middlewares/Third_Party/LwIP/src/api/sockets.c ****   case IPPROTO_IPV6:
2118:Middlewares/Third_Party/LwIP/src/api/sockets.c ****     switch (optname) {
2119:Middlewares/Third_Party/LwIP/src/api/sockets.c ****     case IPV6_V6ONLY:
2120:Middlewares/Third_Party/LwIP/src/api/sockets.c ****       LWIP_SOCKOPT_CHECK_OPTLEN_CONN(sock, *optlen, int);
2121:Middlewares/Third_Party/LwIP/src/api/sockets.c ****       *(int*)optval = (netconn_get_ipv6only(sock->conn) ? 1 : 0);
2122:Middlewares/Third_Party/LwIP/src/api/sockets.c ****       LWIP_DEBUGF(SOCKETS_DEBUG, ("lwip_getsockopt(%d, IPPROTO_IPV6, IPV6_V6ONLY) = %d\n",
2123:Middlewares/Third_Party/LwIP/src/api/sockets.c ****                   s, *(int *)optval));
ARM GAS  C:\Users\Student\AppData\Local\Temp\ccf85eJv.s 			page 41


2124:Middlewares/Third_Party/LwIP/src/api/sockets.c ****       break;
2125:Middlewares/Third_Party/LwIP/src/api/sockets.c ****     default:
2126:Middlewares/Third_Party/LwIP/src/api/sockets.c ****       LWIP_DEBUGF(SOCKETS_DEBUG, ("lwip_getsockopt(%d, IPPROTO_IPV6, UNIMPL: optname=0x%x, ..)\n",
2127:Middlewares/Third_Party/LwIP/src/api/sockets.c ****                   s, optname));
2128:Middlewares/Third_Party/LwIP/src/api/sockets.c ****       err = ENOPROTOOPT;
2129:Middlewares/Third_Party/LwIP/src/api/sockets.c ****       break;
2130:Middlewares/Third_Party/LwIP/src/api/sockets.c ****     }  /* switch (optname) */
2131:Middlewares/Third_Party/LwIP/src/api/sockets.c ****     break;
2132:Middlewares/Third_Party/LwIP/src/api/sockets.c **** #endif /* LWIP_IPV6 */
2133:Middlewares/Third_Party/LwIP/src/api/sockets.c **** 
2134:Middlewares/Third_Party/LwIP/src/api/sockets.c **** #if LWIP_UDP && LWIP_UDPLITE
2135:Middlewares/Third_Party/LwIP/src/api/sockets.c ****   /* Level: IPPROTO_UDPLITE */
2136:Middlewares/Third_Party/LwIP/src/api/sockets.c ****   case IPPROTO_UDPLITE:
2137:Middlewares/Third_Party/LwIP/src/api/sockets.c ****     /* Special case: all IPPROTO_UDPLITE option take an int */
2138:Middlewares/Third_Party/LwIP/src/api/sockets.c ****     LWIP_SOCKOPT_CHECK_OPTLEN_CONN_PCB(sock, *optlen, int);
2139:Middlewares/Third_Party/LwIP/src/api/sockets.c ****     /* If this is no UDP lite socket, ignore any options. */
2140:Middlewares/Third_Party/LwIP/src/api/sockets.c ****     if (!NETCONNTYPE_ISUDPLITE(netconn_type(sock->conn))) {
2141:Middlewares/Third_Party/LwIP/src/api/sockets.c ****       return ENOPROTOOPT;
2142:Middlewares/Third_Party/LwIP/src/api/sockets.c ****     }
2143:Middlewares/Third_Party/LwIP/src/api/sockets.c ****     switch (optname) {
2144:Middlewares/Third_Party/LwIP/src/api/sockets.c ****     case UDPLITE_SEND_CSCOV:
2145:Middlewares/Third_Party/LwIP/src/api/sockets.c ****       *(int*)optval = sock->conn->pcb.udp->chksum_len_tx;
2146:Middlewares/Third_Party/LwIP/src/api/sockets.c ****       LWIP_DEBUGF(SOCKETS_DEBUG, ("lwip_getsockopt(%d, IPPROTO_UDPLITE, UDPLITE_SEND_CSCOV) = %d\n"
2147:Middlewares/Third_Party/LwIP/src/api/sockets.c ****                   s, (*(int*)optval)) );
2148:Middlewares/Third_Party/LwIP/src/api/sockets.c ****       break;
2149:Middlewares/Third_Party/LwIP/src/api/sockets.c ****     case UDPLITE_RECV_CSCOV:
2150:Middlewares/Third_Party/LwIP/src/api/sockets.c ****       *(int*)optval = sock->conn->pcb.udp->chksum_len_rx;
2151:Middlewares/Third_Party/LwIP/src/api/sockets.c ****       LWIP_DEBUGF(SOCKETS_DEBUG, ("lwip_getsockopt(%d, IPPROTO_UDPLITE, UDPLITE_RECV_CSCOV) = %d\n"
2152:Middlewares/Third_Party/LwIP/src/api/sockets.c ****                   s, (*(int*)optval)) );
2153:Middlewares/Third_Party/LwIP/src/api/sockets.c ****       break;
2154:Middlewares/Third_Party/LwIP/src/api/sockets.c ****     default:
2155:Middlewares/Third_Party/LwIP/src/api/sockets.c ****       LWIP_DEBUGF(SOCKETS_DEBUG, ("lwip_getsockopt(%d, IPPROTO_UDPLITE, UNIMPL: optname=0x%x, ..)\n
2156:Middlewares/Third_Party/LwIP/src/api/sockets.c ****                   s, optname));
2157:Middlewares/Third_Party/LwIP/src/api/sockets.c ****       err = ENOPROTOOPT;
2158:Middlewares/Third_Party/LwIP/src/api/sockets.c ****       break;
2159:Middlewares/Third_Party/LwIP/src/api/sockets.c ****     }  /* switch (optname) */
2160:Middlewares/Third_Party/LwIP/src/api/sockets.c ****     break;
2161:Middlewares/Third_Party/LwIP/src/api/sockets.c **** #endif /* LWIP_UDP */
2162:Middlewares/Third_Party/LwIP/src/api/sockets.c ****   /* Level: IPPROTO_RAW */
2163:Middlewares/Third_Party/LwIP/src/api/sockets.c ****   case IPPROTO_RAW:
2164:Middlewares/Third_Party/LwIP/src/api/sockets.c ****     switch (optname) {
2165:Middlewares/Third_Party/LwIP/src/api/sockets.c **** #if LWIP_IPV6 && LWIP_RAW
2166:Middlewares/Third_Party/LwIP/src/api/sockets.c ****     case IPV6_CHECKSUM:
2167:Middlewares/Third_Party/LwIP/src/api/sockets.c ****       LWIP_SOCKOPT_CHECK_OPTLEN_CONN_PCB_TYPE(sock, *optlen, int, NETCONN_RAW);
2168:Middlewares/Third_Party/LwIP/src/api/sockets.c ****       if (sock->conn->pcb.raw->chksum_reqd == 0) {
2169:Middlewares/Third_Party/LwIP/src/api/sockets.c ****         *(int *)optval = -1;
2170:Middlewares/Third_Party/LwIP/src/api/sockets.c ****       } else {
2171:Middlewares/Third_Party/LwIP/src/api/sockets.c ****         *(int *)optval = sock->conn->pcb.raw->chksum_offset;
2172:Middlewares/Third_Party/LwIP/src/api/sockets.c ****       }
2173:Middlewares/Third_Party/LwIP/src/api/sockets.c ****       LWIP_DEBUGF(SOCKETS_DEBUG, ("lwip_getsockopt(%d, IPPROTO_RAW, IPV6_CHECKSUM) = %d\n",
2174:Middlewares/Third_Party/LwIP/src/api/sockets.c ****                   s, (*(int*)optval)) );
2175:Middlewares/Third_Party/LwIP/src/api/sockets.c ****       break;
2176:Middlewares/Third_Party/LwIP/src/api/sockets.c **** #endif /* LWIP_IPV6 && LWIP_RAW */
2177:Middlewares/Third_Party/LwIP/src/api/sockets.c ****     default:
2178:Middlewares/Third_Party/LwIP/src/api/sockets.c ****       LWIP_DEBUGF(SOCKETS_DEBUG, ("lwip_getsockopt(%d, IPPROTO_RAW, UNIMPL: optname=0x%x, ..)\n",
2179:Middlewares/Third_Party/LwIP/src/api/sockets.c ****                   s, optname));
2180:Middlewares/Third_Party/LwIP/src/api/sockets.c ****       err = ENOPROTOOPT;
ARM GAS  C:\Users\Student\AppData\Local\Temp\ccf85eJv.s 			page 42


2181:Middlewares/Third_Party/LwIP/src/api/sockets.c ****       break;
2182:Middlewares/Third_Party/LwIP/src/api/sockets.c ****     }  /* switch (optname) */
2183:Middlewares/Third_Party/LwIP/src/api/sockets.c ****     break;
2184:Middlewares/Third_Party/LwIP/src/api/sockets.c ****   default:
2185:Middlewares/Third_Party/LwIP/src/api/sockets.c ****     LWIP_DEBUGF(SOCKETS_DEBUG, ("lwip_getsockopt(%d, level=0x%x, UNIMPL: optname=0x%x, ..)\n",
2186:Middlewares/Third_Party/LwIP/src/api/sockets.c ****                                 s, level, optname));
2187:Middlewares/Third_Party/LwIP/src/api/sockets.c ****     err = ENOPROTOOPT;
2188:Middlewares/Third_Party/LwIP/src/api/sockets.c ****     break;
2189:Middlewares/Third_Party/LwIP/src/api/sockets.c ****   } /* switch (level) */
2190:Middlewares/Third_Party/LwIP/src/api/sockets.c **** 
2191:Middlewares/Third_Party/LwIP/src/api/sockets.c ****   return err;
2192:Middlewares/Third_Party/LwIP/src/api/sockets.c **** }
2193:Middlewares/Third_Party/LwIP/src/api/sockets.c **** 
2194:Middlewares/Third_Party/LwIP/src/api/sockets.c **** int
2195:Middlewares/Third_Party/LwIP/src/api/sockets.c **** lwip_setsockopt(int s, int level, int optname, const void *optval, socklen_t optlen)
2196:Middlewares/Third_Party/LwIP/src/api/sockets.c **** {
2197:Middlewares/Third_Party/LwIP/src/api/sockets.c ****   u8_t err = 0;
2198:Middlewares/Third_Party/LwIP/src/api/sockets.c ****   struct lwip_sock *sock = get_socket(s);
2199:Middlewares/Third_Party/LwIP/src/api/sockets.c **** #if !LWIP_TCPIP_CORE_LOCKING
2200:Middlewares/Third_Party/LwIP/src/api/sockets.c ****   LWIP_SETGETSOCKOPT_DATA_VAR_DECLARE(data);
2201:Middlewares/Third_Party/LwIP/src/api/sockets.c **** #endif /* !LWIP_TCPIP_CORE_LOCKING */
2202:Middlewares/Third_Party/LwIP/src/api/sockets.c **** 
2203:Middlewares/Third_Party/LwIP/src/api/sockets.c ****   if (!sock) {
2204:Middlewares/Third_Party/LwIP/src/api/sockets.c ****     return -1;
2205:Middlewares/Third_Party/LwIP/src/api/sockets.c ****   }
2206:Middlewares/Third_Party/LwIP/src/api/sockets.c **** 
2207:Middlewares/Third_Party/LwIP/src/api/sockets.c ****   if (NULL == optval) {
2208:Middlewares/Third_Party/LwIP/src/api/sockets.c ****     sock_set_errno(sock, EFAULT);
2209:Middlewares/Third_Party/LwIP/src/api/sockets.c ****     return -1;
2210:Middlewares/Third_Party/LwIP/src/api/sockets.c ****   }
2211:Middlewares/Third_Party/LwIP/src/api/sockets.c **** 
2212:Middlewares/Third_Party/LwIP/src/api/sockets.c **** #if LWIP_TCPIP_CORE_LOCKING
2213:Middlewares/Third_Party/LwIP/src/api/sockets.c ****   /* core-locking can just call the -impl function */
2214:Middlewares/Third_Party/LwIP/src/api/sockets.c ****   LOCK_TCPIP_CORE();
2215:Middlewares/Third_Party/LwIP/src/api/sockets.c ****   err = lwip_setsockopt_impl(s, level, optname, optval, optlen);
2216:Middlewares/Third_Party/LwIP/src/api/sockets.c ****   UNLOCK_TCPIP_CORE();
2217:Middlewares/Third_Party/LwIP/src/api/sockets.c **** 
2218:Middlewares/Third_Party/LwIP/src/api/sockets.c **** #else /* LWIP_TCPIP_CORE_LOCKING */
2219:Middlewares/Third_Party/LwIP/src/api/sockets.c **** 
2220:Middlewares/Third_Party/LwIP/src/api/sockets.c **** #if LWIP_MPU_COMPATIBLE
2221:Middlewares/Third_Party/LwIP/src/api/sockets.c ****   /* MPU_COMPATIBLE copies the optval data, so check for max size here */
2222:Middlewares/Third_Party/LwIP/src/api/sockets.c ****   if (optlen > LWIP_SETGETSOCKOPT_MAXOPTLEN) {
2223:Middlewares/Third_Party/LwIP/src/api/sockets.c ****     sock_set_errno(sock, ENOBUFS);
2224:Middlewares/Third_Party/LwIP/src/api/sockets.c ****     return -1;
2225:Middlewares/Third_Party/LwIP/src/api/sockets.c ****   }
2226:Middlewares/Third_Party/LwIP/src/api/sockets.c **** #endif /* LWIP_MPU_COMPATIBLE */
2227:Middlewares/Third_Party/LwIP/src/api/sockets.c **** 
2228:Middlewares/Third_Party/LwIP/src/api/sockets.c ****   LWIP_SETGETSOCKOPT_DATA_VAR_ALLOC(data, sock);
2229:Middlewares/Third_Party/LwIP/src/api/sockets.c ****   LWIP_SETGETSOCKOPT_DATA_VAR_REF(data).s = s;
2230:Middlewares/Third_Party/LwIP/src/api/sockets.c ****   LWIP_SETGETSOCKOPT_DATA_VAR_REF(data).level = level;
2231:Middlewares/Third_Party/LwIP/src/api/sockets.c ****   LWIP_SETGETSOCKOPT_DATA_VAR_REF(data).optname = optname;
2232:Middlewares/Third_Party/LwIP/src/api/sockets.c ****   LWIP_SETGETSOCKOPT_DATA_VAR_REF(data).optlen = optlen;
2233:Middlewares/Third_Party/LwIP/src/api/sockets.c **** #if LWIP_MPU_COMPATIBLE
2234:Middlewares/Third_Party/LwIP/src/api/sockets.c ****   MEMCPY(LWIP_SETGETSOCKOPT_DATA_VAR_REF(data).optval, optval, optlen);
2235:Middlewares/Third_Party/LwIP/src/api/sockets.c **** #else /* LWIP_MPU_COMPATIBLE */
2236:Middlewares/Third_Party/LwIP/src/api/sockets.c ****   LWIP_SETGETSOCKOPT_DATA_VAR_REF(data).optval.pc = (const void*)optval;
2237:Middlewares/Third_Party/LwIP/src/api/sockets.c **** #endif /* LWIP_MPU_COMPATIBLE */
ARM GAS  C:\Users\Student\AppData\Local\Temp\ccf85eJv.s 			page 43


2238:Middlewares/Third_Party/LwIP/src/api/sockets.c ****   LWIP_SETGETSOCKOPT_DATA_VAR_REF(data).err = 0;
2239:Middlewares/Third_Party/LwIP/src/api/sockets.c **** #if LWIP_NETCONN_SEM_PER_THREAD
2240:Middlewares/Third_Party/LwIP/src/api/sockets.c ****   LWIP_SETGETSOCKOPT_DATA_VAR_REF(data).completed_sem = LWIP_NETCONN_THREAD_SEM_GET();
2241:Middlewares/Third_Party/LwIP/src/api/sockets.c **** #else
2242:Middlewares/Third_Party/LwIP/src/api/sockets.c ****   LWIP_SETGETSOCKOPT_DATA_VAR_REF(data).completed_sem = &sock->conn->op_completed;
2243:Middlewares/Third_Party/LwIP/src/api/sockets.c **** #endif
2244:Middlewares/Third_Party/LwIP/src/api/sockets.c ****   err = tcpip_callback(lwip_setsockopt_callback, &LWIP_SETGETSOCKOPT_DATA_VAR_REF(data));
2245:Middlewares/Third_Party/LwIP/src/api/sockets.c ****   if (err != ERR_OK) {
2246:Middlewares/Third_Party/LwIP/src/api/sockets.c ****     LWIP_SETGETSOCKOPT_DATA_VAR_FREE(data);
2247:Middlewares/Third_Party/LwIP/src/api/sockets.c ****     sock_set_errno(sock, err_to_errno(err));
2248:Middlewares/Third_Party/LwIP/src/api/sockets.c ****     return -1;
2249:Middlewares/Third_Party/LwIP/src/api/sockets.c ****   }
2250:Middlewares/Third_Party/LwIP/src/api/sockets.c ****   sys_arch_sem_wait((sys_sem_t*)(LWIP_SETGETSOCKOPT_DATA_VAR_REF(data).completed_sem), 0);
2251:Middlewares/Third_Party/LwIP/src/api/sockets.c **** 
2252:Middlewares/Third_Party/LwIP/src/api/sockets.c ****   /* maybe lwip_getsockopt_internal has changed err */
2253:Middlewares/Third_Party/LwIP/src/api/sockets.c ****   err = LWIP_SETGETSOCKOPT_DATA_VAR_REF(data).err;
2254:Middlewares/Third_Party/LwIP/src/api/sockets.c ****   LWIP_SETGETSOCKOPT_DATA_VAR_FREE(data);
2255:Middlewares/Third_Party/LwIP/src/api/sockets.c **** #endif  /* LWIP_TCPIP_CORE_LOCKING */
2256:Middlewares/Third_Party/LwIP/src/api/sockets.c **** 
2257:Middlewares/Third_Party/LwIP/src/api/sockets.c ****   sock_set_errno(sock, err);
2258:Middlewares/Third_Party/LwIP/src/api/sockets.c ****   return err ? -1 : 0;
2259:Middlewares/Third_Party/LwIP/src/api/sockets.c **** }
2260:Middlewares/Third_Party/LwIP/src/api/sockets.c **** 
2261:Middlewares/Third_Party/LwIP/src/api/sockets.c **** #if !LWIP_TCPIP_CORE_LOCKING
2262:Middlewares/Third_Party/LwIP/src/api/sockets.c **** /** lwip_setsockopt_callback: only used without CORE_LOCKING
2263:Middlewares/Third_Party/LwIP/src/api/sockets.c ****  * to get into the tcpip_thread
2264:Middlewares/Third_Party/LwIP/src/api/sockets.c ****  */
2265:Middlewares/Third_Party/LwIP/src/api/sockets.c **** static void
2266:Middlewares/Third_Party/LwIP/src/api/sockets.c **** lwip_setsockopt_callback(void *arg)
2267:Middlewares/Third_Party/LwIP/src/api/sockets.c **** {
2268:Middlewares/Third_Party/LwIP/src/api/sockets.c ****   struct lwip_setgetsockopt_data *data;
2269:Middlewares/Third_Party/LwIP/src/api/sockets.c ****   LWIP_ASSERT("arg != NULL", arg != NULL);
2270:Middlewares/Third_Party/LwIP/src/api/sockets.c ****   data = (struct lwip_setgetsockopt_data*)arg;
2271:Middlewares/Third_Party/LwIP/src/api/sockets.c **** 
2272:Middlewares/Third_Party/LwIP/src/api/sockets.c ****   data->err = lwip_setsockopt_impl(data->s, data->level, data->optname,
2273:Middlewares/Third_Party/LwIP/src/api/sockets.c **** #if LWIP_MPU_COMPATIBLE
2274:Middlewares/Third_Party/LwIP/src/api/sockets.c ****     data->optval,
2275:Middlewares/Third_Party/LwIP/src/api/sockets.c **** #else /* LWIP_MPU_COMPATIBLE */
2276:Middlewares/Third_Party/LwIP/src/api/sockets.c ****     data->optval.pc,
2277:Middlewares/Third_Party/LwIP/src/api/sockets.c **** #endif /* LWIP_MPU_COMPATIBLE */
2278:Middlewares/Third_Party/LwIP/src/api/sockets.c ****     data->optlen);
2279:Middlewares/Third_Party/LwIP/src/api/sockets.c **** 
2280:Middlewares/Third_Party/LwIP/src/api/sockets.c ****   sys_sem_signal((sys_sem_t*)(data->completed_sem));
2281:Middlewares/Third_Party/LwIP/src/api/sockets.c **** }
2282:Middlewares/Third_Party/LwIP/src/api/sockets.c **** #endif  /* LWIP_TCPIP_CORE_LOCKING */
2283:Middlewares/Third_Party/LwIP/src/api/sockets.c **** 
2284:Middlewares/Third_Party/LwIP/src/api/sockets.c **** /** lwip_setsockopt_impl: the actual implementation of setsockopt:
2285:Middlewares/Third_Party/LwIP/src/api/sockets.c ****  * same argument as lwip_setsockopt, either called directly or through callback
2286:Middlewares/Third_Party/LwIP/src/api/sockets.c ****  */
2287:Middlewares/Third_Party/LwIP/src/api/sockets.c **** static u8_t
2288:Middlewares/Third_Party/LwIP/src/api/sockets.c **** lwip_setsockopt_impl(int s, int level, int optname, const void *optval, socklen_t optlen)
2289:Middlewares/Third_Party/LwIP/src/api/sockets.c **** {
 156              		.loc 1 2289 0
 157              		.cfi_startproc
 158              		@ args = 4, pretend = 0, frame = 0
 159              		@ frame_needed = 0, uses_anonymous_args = 0
 160              	.LVL15:
ARM GAS  C:\Users\Student\AppData\Local\Temp\ccf85eJv.s 			page 44


 161 0000 70B5     		push	{r4, r5, r6, lr}
 162              	.LCFI3:
 163              		.cfi_def_cfa_offset 16
 164              		.cfi_offset 4, -16
 165              		.cfi_offset 5, -12
 166              		.cfi_offset 6, -8
 167              		.cfi_offset 14, -4
 168 0002 0C46     		mov	r4, r1
 169 0004 1546     		mov	r5, r2
 170 0006 1E46     		mov	r6, r3
 171              	.LVL16:
2290:Middlewares/Third_Party/LwIP/src/api/sockets.c ****   u8_t err = 0;
2291:Middlewares/Third_Party/LwIP/src/api/sockets.c ****   struct lwip_sock *sock = tryget_socket(s);
 172              		.loc 1 2291 0
 173 0008 FFF7FEFF 		bl	tryget_socket
 174              	.LVL17:
2292:Middlewares/Third_Party/LwIP/src/api/sockets.c ****   if (!sock) {
 175              		.loc 1 2292 0
 176 000c 0028     		cmp	r0, #0
 177 000e 00F09F80 		beq	.L31
 178 0012 0346     		mov	r3, r0
2293:Middlewares/Third_Party/LwIP/src/api/sockets.c ****     return EBADF;
2294:Middlewares/Third_Party/LwIP/src/api/sockets.c ****   }
2295:Middlewares/Third_Party/LwIP/src/api/sockets.c **** 
2296:Middlewares/Third_Party/LwIP/src/api/sockets.c ****   switch (level) {
 179              		.loc 1 2296 0
 180 0014 062C     		cmp	r4, #6
 181 0016 6DD0     		beq	.L19
 182 0018 40F6FF72 		movw	r2, #4095
 183 001c 9442     		cmp	r4, r2
 184 001e 03D0     		beq	.L20
 185 0020 002C     		cmp	r4, #0
 186 0022 45D0     		beq	.L59
2297:Middlewares/Third_Party/LwIP/src/api/sockets.c **** 
2298:Middlewares/Third_Party/LwIP/src/api/sockets.c **** /* Level: SOL_SOCKET */
2299:Middlewares/Third_Party/LwIP/src/api/sockets.c ****   case SOL_SOCKET:
2300:Middlewares/Third_Party/LwIP/src/api/sockets.c ****     switch (optname) {
2301:Middlewares/Third_Party/LwIP/src/api/sockets.c **** 
2302:Middlewares/Third_Party/LwIP/src/api/sockets.c ****     /* SO_ACCEPTCONN is get-only */
2303:Middlewares/Third_Party/LwIP/src/api/sockets.c **** 
2304:Middlewares/Third_Party/LwIP/src/api/sockets.c ****     /* The option flags */
2305:Middlewares/Third_Party/LwIP/src/api/sockets.c ****     case SO_BROADCAST:
2306:Middlewares/Third_Party/LwIP/src/api/sockets.c ****     case SO_KEEPALIVE:
2307:Middlewares/Third_Party/LwIP/src/api/sockets.c **** #if SO_REUSE
2308:Middlewares/Third_Party/LwIP/src/api/sockets.c ****     case SO_REUSEADDR:
2309:Middlewares/Third_Party/LwIP/src/api/sockets.c **** #endif /* SO_REUSE */
2310:Middlewares/Third_Party/LwIP/src/api/sockets.c ****       LWIP_SOCKOPT_CHECK_OPTLEN_CONN_PCB(sock, optlen, int);
2311:Middlewares/Third_Party/LwIP/src/api/sockets.c ****       if (*(const int*)optval) {
2312:Middlewares/Third_Party/LwIP/src/api/sockets.c ****         ip_set_option(sock->conn->pcb.ip, optname);
2313:Middlewares/Third_Party/LwIP/src/api/sockets.c ****       } else {
2314:Middlewares/Third_Party/LwIP/src/api/sockets.c ****         ip_reset_option(sock->conn->pcb.ip, optname);
2315:Middlewares/Third_Party/LwIP/src/api/sockets.c ****       }
2316:Middlewares/Third_Party/LwIP/src/api/sockets.c ****       LWIP_DEBUGF(SOCKETS_DEBUG, ("lwip_setsockopt(%d, SOL_SOCKET, optname=0x%x, ..) -> %s\n",
2317:Middlewares/Third_Party/LwIP/src/api/sockets.c ****                   s, optname, (*(const int*)optval?"on":"off")));
2318:Middlewares/Third_Party/LwIP/src/api/sockets.c ****       break;
2319:Middlewares/Third_Party/LwIP/src/api/sockets.c **** 
2320:Middlewares/Third_Party/LwIP/src/api/sockets.c ****     /* SO_TYPE is get-only */
ARM GAS  C:\Users\Student\AppData\Local\Temp\ccf85eJv.s 			page 45


2321:Middlewares/Third_Party/LwIP/src/api/sockets.c ****     /* SO_ERROR is get-only */
2322:Middlewares/Third_Party/LwIP/src/api/sockets.c **** 
2323:Middlewares/Third_Party/LwIP/src/api/sockets.c **** #if LWIP_SO_SNDTIMEO
2324:Middlewares/Third_Party/LwIP/src/api/sockets.c ****     case SO_SNDTIMEO:
2325:Middlewares/Third_Party/LwIP/src/api/sockets.c ****       LWIP_SOCKOPT_CHECK_OPTLEN_CONN(sock, optlen, LWIP_SO_SNDRCVTIMEO_OPTTYPE);
2326:Middlewares/Third_Party/LwIP/src/api/sockets.c ****       netconn_set_sendtimeout(sock->conn, LWIP_SO_SNDRCVTIMEO_GET_MS(optval));
2327:Middlewares/Third_Party/LwIP/src/api/sockets.c ****       break;
2328:Middlewares/Third_Party/LwIP/src/api/sockets.c **** #endif /* LWIP_SO_SNDTIMEO */
2329:Middlewares/Third_Party/LwIP/src/api/sockets.c **** #if LWIP_SO_RCVTIMEO
2330:Middlewares/Third_Party/LwIP/src/api/sockets.c ****     case SO_RCVTIMEO:
2331:Middlewares/Third_Party/LwIP/src/api/sockets.c ****       LWIP_SOCKOPT_CHECK_OPTLEN_CONN(sock, optlen, LWIP_SO_SNDRCVTIMEO_OPTTYPE);
2332:Middlewares/Third_Party/LwIP/src/api/sockets.c ****       netconn_set_recvtimeout(sock->conn, (int)LWIP_SO_SNDRCVTIMEO_GET_MS(optval));
2333:Middlewares/Third_Party/LwIP/src/api/sockets.c ****       break;
2334:Middlewares/Third_Party/LwIP/src/api/sockets.c **** #endif /* LWIP_SO_RCVTIMEO */
2335:Middlewares/Third_Party/LwIP/src/api/sockets.c **** #if LWIP_SO_RCVBUF
2336:Middlewares/Third_Party/LwIP/src/api/sockets.c ****     case SO_RCVBUF:
2337:Middlewares/Third_Party/LwIP/src/api/sockets.c ****       LWIP_SOCKOPT_CHECK_OPTLEN_CONN(sock, optlen, int);
2338:Middlewares/Third_Party/LwIP/src/api/sockets.c ****       netconn_set_recvbufsize(sock->conn, *(const int*)optval);
2339:Middlewares/Third_Party/LwIP/src/api/sockets.c ****       break;
2340:Middlewares/Third_Party/LwIP/src/api/sockets.c **** #endif /* LWIP_SO_RCVBUF */
2341:Middlewares/Third_Party/LwIP/src/api/sockets.c **** #if LWIP_SO_LINGER
2342:Middlewares/Third_Party/LwIP/src/api/sockets.c ****     case SO_LINGER:
2343:Middlewares/Third_Party/LwIP/src/api/sockets.c ****       {
2344:Middlewares/Third_Party/LwIP/src/api/sockets.c ****         const struct linger* linger = (const struct linger*)optval;
2345:Middlewares/Third_Party/LwIP/src/api/sockets.c ****         LWIP_SOCKOPT_CHECK_OPTLEN_CONN(sock, optlen, struct linger);
2346:Middlewares/Third_Party/LwIP/src/api/sockets.c ****         if (linger->l_onoff) {
2347:Middlewares/Third_Party/LwIP/src/api/sockets.c ****           int lingersec = linger->l_linger;
2348:Middlewares/Third_Party/LwIP/src/api/sockets.c ****           if (lingersec < 0) {
2349:Middlewares/Third_Party/LwIP/src/api/sockets.c ****             return EINVAL;
2350:Middlewares/Third_Party/LwIP/src/api/sockets.c ****           }
2351:Middlewares/Third_Party/LwIP/src/api/sockets.c ****           if (lingersec > 0xFFFF) {
2352:Middlewares/Third_Party/LwIP/src/api/sockets.c ****             lingersec = 0xFFFF;
2353:Middlewares/Third_Party/LwIP/src/api/sockets.c ****           }
2354:Middlewares/Third_Party/LwIP/src/api/sockets.c ****           sock->conn->linger = (s16_t)lingersec;
2355:Middlewares/Third_Party/LwIP/src/api/sockets.c ****         } else {
2356:Middlewares/Third_Party/LwIP/src/api/sockets.c ****           sock->conn->linger = -1;
2357:Middlewares/Third_Party/LwIP/src/api/sockets.c ****         }
2358:Middlewares/Third_Party/LwIP/src/api/sockets.c ****       }
2359:Middlewares/Third_Party/LwIP/src/api/sockets.c ****       break;
2360:Middlewares/Third_Party/LwIP/src/api/sockets.c **** #endif /* LWIP_SO_LINGER */
2361:Middlewares/Third_Party/LwIP/src/api/sockets.c **** #if LWIP_UDP
2362:Middlewares/Third_Party/LwIP/src/api/sockets.c ****     case SO_NO_CHECK:
2363:Middlewares/Third_Party/LwIP/src/api/sockets.c ****       LWIP_SOCKOPT_CHECK_OPTLEN_CONN_PCB_TYPE(sock, optlen, int, NETCONN_UDP);
2364:Middlewares/Third_Party/LwIP/src/api/sockets.c **** #if LWIP_UDPLITE
2365:Middlewares/Third_Party/LwIP/src/api/sockets.c ****       if ((udp_flags(sock->conn->pcb.udp) & UDP_FLAGS_UDPLITE) != 0) {
2366:Middlewares/Third_Party/LwIP/src/api/sockets.c ****         /* this flag is only available for UDP, not for UDP lite */
2367:Middlewares/Third_Party/LwIP/src/api/sockets.c ****         return EAFNOSUPPORT;
2368:Middlewares/Third_Party/LwIP/src/api/sockets.c ****       }
2369:Middlewares/Third_Party/LwIP/src/api/sockets.c **** #endif /* LWIP_UDPLITE */
2370:Middlewares/Third_Party/LwIP/src/api/sockets.c ****       if (*(const int*)optval) {
2371:Middlewares/Third_Party/LwIP/src/api/sockets.c ****         udp_setflags(sock->conn->pcb.udp, udp_flags(sock->conn->pcb.udp) | UDP_FLAGS_NOCHKSUM);
2372:Middlewares/Third_Party/LwIP/src/api/sockets.c ****       } else {
2373:Middlewares/Third_Party/LwIP/src/api/sockets.c ****         udp_setflags(sock->conn->pcb.udp, udp_flags(sock->conn->pcb.udp) & ~UDP_FLAGS_NOCHKSUM);
2374:Middlewares/Third_Party/LwIP/src/api/sockets.c ****       }
2375:Middlewares/Third_Party/LwIP/src/api/sockets.c ****       break;
2376:Middlewares/Third_Party/LwIP/src/api/sockets.c **** #endif /* LWIP_UDP */
2377:Middlewares/Third_Party/LwIP/src/api/sockets.c ****     default:
ARM GAS  C:\Users\Student\AppData\Local\Temp\ccf85eJv.s 			page 46


2378:Middlewares/Third_Party/LwIP/src/api/sockets.c ****       LWIP_DEBUGF(SOCKETS_DEBUG, ("lwip_setsockopt(%d, SOL_SOCKET, UNIMPL: optname=0x%x, ..)\n",
2379:Middlewares/Third_Party/LwIP/src/api/sockets.c ****                   s, optname));
2380:Middlewares/Third_Party/LwIP/src/api/sockets.c ****       err = ENOPROTOOPT;
2381:Middlewares/Third_Party/LwIP/src/api/sockets.c ****       break;
2382:Middlewares/Third_Party/LwIP/src/api/sockets.c ****     }  /* switch (optname) */
2383:Middlewares/Third_Party/LwIP/src/api/sockets.c ****     break;
2384:Middlewares/Third_Party/LwIP/src/api/sockets.c **** 
2385:Middlewares/Third_Party/LwIP/src/api/sockets.c **** /* Level: IPPROTO_IP */
2386:Middlewares/Third_Party/LwIP/src/api/sockets.c ****   case IPPROTO_IP:
2387:Middlewares/Third_Party/LwIP/src/api/sockets.c ****     switch (optname) {
2388:Middlewares/Third_Party/LwIP/src/api/sockets.c ****     case IP_TTL:
2389:Middlewares/Third_Party/LwIP/src/api/sockets.c ****       LWIP_SOCKOPT_CHECK_OPTLEN_CONN_PCB(sock, optlen, int);
2390:Middlewares/Third_Party/LwIP/src/api/sockets.c ****       sock->conn->pcb.ip->ttl = (u8_t)(*(const int*)optval);
2391:Middlewares/Third_Party/LwIP/src/api/sockets.c ****       LWIP_DEBUGF(SOCKETS_DEBUG, ("lwip_setsockopt(%d, IPPROTO_IP, IP_TTL, ..) -> %d\n",
2392:Middlewares/Third_Party/LwIP/src/api/sockets.c ****                   s, sock->conn->pcb.ip->ttl));
2393:Middlewares/Third_Party/LwIP/src/api/sockets.c ****       break;
2394:Middlewares/Third_Party/LwIP/src/api/sockets.c ****     case IP_TOS:
2395:Middlewares/Third_Party/LwIP/src/api/sockets.c ****       LWIP_SOCKOPT_CHECK_OPTLEN_CONN_PCB(sock, optlen, int);
2396:Middlewares/Third_Party/LwIP/src/api/sockets.c ****       sock->conn->pcb.ip->tos = (u8_t)(*(const int*)optval);
2397:Middlewares/Third_Party/LwIP/src/api/sockets.c ****       LWIP_DEBUGF(SOCKETS_DEBUG, ("lwip_setsockopt(%d, IPPROTO_IP, IP_TOS, ..)-> %d\n",
2398:Middlewares/Third_Party/LwIP/src/api/sockets.c ****                   s, sock->conn->pcb.ip->tos));
2399:Middlewares/Third_Party/LwIP/src/api/sockets.c ****       break;
2400:Middlewares/Third_Party/LwIP/src/api/sockets.c **** #if LWIP_MULTICAST_TX_OPTIONS
2401:Middlewares/Third_Party/LwIP/src/api/sockets.c ****     case IP_MULTICAST_TTL:
2402:Middlewares/Third_Party/LwIP/src/api/sockets.c ****       LWIP_SOCKOPT_CHECK_OPTLEN_CONN_PCB_TYPE(sock, optlen, u8_t, NETCONN_UDP);
2403:Middlewares/Third_Party/LwIP/src/api/sockets.c ****       udp_set_multicast_ttl(sock->conn->pcb.udp, (u8_t)(*(const u8_t*)optval));
2404:Middlewares/Third_Party/LwIP/src/api/sockets.c ****       break;
2405:Middlewares/Third_Party/LwIP/src/api/sockets.c ****     case IP_MULTICAST_IF:
2406:Middlewares/Third_Party/LwIP/src/api/sockets.c ****       {
2407:Middlewares/Third_Party/LwIP/src/api/sockets.c ****         ip4_addr_t if_addr;
2408:Middlewares/Third_Party/LwIP/src/api/sockets.c ****         LWIP_SOCKOPT_CHECK_OPTLEN_CONN_PCB_TYPE(sock, optlen, struct in_addr, NETCONN_UDP);
2409:Middlewares/Third_Party/LwIP/src/api/sockets.c ****         inet_addr_to_ip4addr(&if_addr, (const struct in_addr*)optval);
2410:Middlewares/Third_Party/LwIP/src/api/sockets.c ****         udp_set_multicast_netif_addr(sock->conn->pcb.udp, &if_addr);
2411:Middlewares/Third_Party/LwIP/src/api/sockets.c ****       }
2412:Middlewares/Third_Party/LwIP/src/api/sockets.c ****       break;
2413:Middlewares/Third_Party/LwIP/src/api/sockets.c ****     case IP_MULTICAST_LOOP:
2414:Middlewares/Third_Party/LwIP/src/api/sockets.c ****       LWIP_SOCKOPT_CHECK_OPTLEN_CONN_PCB_TYPE(sock, optlen, u8_t, NETCONN_UDP);
2415:Middlewares/Third_Party/LwIP/src/api/sockets.c ****       if (*(const u8_t*)optval) {
2416:Middlewares/Third_Party/LwIP/src/api/sockets.c ****         udp_setflags(sock->conn->pcb.udp, udp_flags(sock->conn->pcb.udp) | UDP_FLAGS_MULTICAST_LOOP
2417:Middlewares/Third_Party/LwIP/src/api/sockets.c ****       } else {
2418:Middlewares/Third_Party/LwIP/src/api/sockets.c ****         udp_setflags(sock->conn->pcb.udp, udp_flags(sock->conn->pcb.udp) & ~UDP_FLAGS_MULTICAST_LOO
2419:Middlewares/Third_Party/LwIP/src/api/sockets.c ****       }
2420:Middlewares/Third_Party/LwIP/src/api/sockets.c ****       break;
2421:Middlewares/Third_Party/LwIP/src/api/sockets.c **** #endif /* LWIP_MULTICAST_TX_OPTIONS */
2422:Middlewares/Third_Party/LwIP/src/api/sockets.c **** #if LWIP_IGMP
2423:Middlewares/Third_Party/LwIP/src/api/sockets.c ****     case IP_ADD_MEMBERSHIP:
2424:Middlewares/Third_Party/LwIP/src/api/sockets.c ****     case IP_DROP_MEMBERSHIP:
2425:Middlewares/Third_Party/LwIP/src/api/sockets.c ****       {
2426:Middlewares/Third_Party/LwIP/src/api/sockets.c ****         /* If this is a TCP or a RAW socket, ignore these options. */
2427:Middlewares/Third_Party/LwIP/src/api/sockets.c ****         /* @todo: assign membership to this socket so that it is dropped when closing the socket */
2428:Middlewares/Third_Party/LwIP/src/api/sockets.c ****         err_t igmp_err;
2429:Middlewares/Third_Party/LwIP/src/api/sockets.c ****         const struct ip_mreq *imr = (const struct ip_mreq *)optval;
2430:Middlewares/Third_Party/LwIP/src/api/sockets.c ****         ip4_addr_t if_addr;
2431:Middlewares/Third_Party/LwIP/src/api/sockets.c ****         ip4_addr_t multi_addr;
2432:Middlewares/Third_Party/LwIP/src/api/sockets.c ****         LWIP_SOCKOPT_CHECK_OPTLEN_CONN_PCB_TYPE(sock, optlen, struct ip_mreq, NETCONN_UDP);
2433:Middlewares/Third_Party/LwIP/src/api/sockets.c ****         inet_addr_to_ip4addr(&if_addr, &imr->imr_interface);
2434:Middlewares/Third_Party/LwIP/src/api/sockets.c ****         inet_addr_to_ip4addr(&multi_addr, &imr->imr_multiaddr);
ARM GAS  C:\Users\Student\AppData\Local\Temp\ccf85eJv.s 			page 47


2435:Middlewares/Third_Party/LwIP/src/api/sockets.c ****         if (optname == IP_ADD_MEMBERSHIP) {
2436:Middlewares/Third_Party/LwIP/src/api/sockets.c ****           if (!lwip_socket_register_membership(s, &if_addr, &multi_addr)) {
2437:Middlewares/Third_Party/LwIP/src/api/sockets.c ****             /* cannot track membership (out of memory) */
2438:Middlewares/Third_Party/LwIP/src/api/sockets.c ****             err = ENOMEM;
2439:Middlewares/Third_Party/LwIP/src/api/sockets.c ****             igmp_err = ERR_OK;
2440:Middlewares/Third_Party/LwIP/src/api/sockets.c ****           } else {
2441:Middlewares/Third_Party/LwIP/src/api/sockets.c ****             igmp_err = igmp_joingroup(&if_addr, &multi_addr);
2442:Middlewares/Third_Party/LwIP/src/api/sockets.c ****           }
2443:Middlewares/Third_Party/LwIP/src/api/sockets.c ****         } else {
2444:Middlewares/Third_Party/LwIP/src/api/sockets.c ****           igmp_err = igmp_leavegroup(&if_addr, &multi_addr);
2445:Middlewares/Third_Party/LwIP/src/api/sockets.c ****           lwip_socket_unregister_membership(s, &if_addr, &multi_addr);
2446:Middlewares/Third_Party/LwIP/src/api/sockets.c ****         }
2447:Middlewares/Third_Party/LwIP/src/api/sockets.c ****         if (igmp_err != ERR_OK) {
2448:Middlewares/Third_Party/LwIP/src/api/sockets.c ****           err = EADDRNOTAVAIL;
2449:Middlewares/Third_Party/LwIP/src/api/sockets.c ****         }
2450:Middlewares/Third_Party/LwIP/src/api/sockets.c ****       }
2451:Middlewares/Third_Party/LwIP/src/api/sockets.c ****       break;
2452:Middlewares/Third_Party/LwIP/src/api/sockets.c **** #endif /* LWIP_IGMP */
2453:Middlewares/Third_Party/LwIP/src/api/sockets.c ****     default:
2454:Middlewares/Third_Party/LwIP/src/api/sockets.c ****       LWIP_DEBUGF(SOCKETS_DEBUG, ("lwip_setsockopt(%d, IPPROTO_IP, UNIMPL: optname=0x%x, ..)\n",
2455:Middlewares/Third_Party/LwIP/src/api/sockets.c ****                   s, optname));
2456:Middlewares/Third_Party/LwIP/src/api/sockets.c ****       err = ENOPROTOOPT;
2457:Middlewares/Third_Party/LwIP/src/api/sockets.c ****       break;
2458:Middlewares/Third_Party/LwIP/src/api/sockets.c ****     }  /* switch (optname) */
2459:Middlewares/Third_Party/LwIP/src/api/sockets.c ****     break;
2460:Middlewares/Third_Party/LwIP/src/api/sockets.c **** 
2461:Middlewares/Third_Party/LwIP/src/api/sockets.c **** #if LWIP_TCP
2462:Middlewares/Third_Party/LwIP/src/api/sockets.c **** /* Level: IPPROTO_TCP */
2463:Middlewares/Third_Party/LwIP/src/api/sockets.c ****   case IPPROTO_TCP:
2464:Middlewares/Third_Party/LwIP/src/api/sockets.c ****     /* Special case: all IPPROTO_TCP option take an int */
2465:Middlewares/Third_Party/LwIP/src/api/sockets.c ****     LWIP_SOCKOPT_CHECK_OPTLEN_CONN_PCB_TYPE(sock, optlen, int, NETCONN_TCP);
2466:Middlewares/Third_Party/LwIP/src/api/sockets.c ****     if (sock->conn->pcb.tcp->state == LISTEN) {
2467:Middlewares/Third_Party/LwIP/src/api/sockets.c ****       return EINVAL;
2468:Middlewares/Third_Party/LwIP/src/api/sockets.c ****     }
2469:Middlewares/Third_Party/LwIP/src/api/sockets.c ****     switch (optname) {
2470:Middlewares/Third_Party/LwIP/src/api/sockets.c ****     case TCP_NODELAY:
2471:Middlewares/Third_Party/LwIP/src/api/sockets.c ****       if (*(const int*)optval) {
2472:Middlewares/Third_Party/LwIP/src/api/sockets.c ****         tcp_nagle_disable(sock->conn->pcb.tcp);
2473:Middlewares/Third_Party/LwIP/src/api/sockets.c ****       } else {
2474:Middlewares/Third_Party/LwIP/src/api/sockets.c ****         tcp_nagle_enable(sock->conn->pcb.tcp);
2475:Middlewares/Third_Party/LwIP/src/api/sockets.c ****       }
2476:Middlewares/Third_Party/LwIP/src/api/sockets.c ****       LWIP_DEBUGF(SOCKETS_DEBUG, ("lwip_setsockopt(%d, IPPROTO_TCP, TCP_NODELAY) -> %s\n",
2477:Middlewares/Third_Party/LwIP/src/api/sockets.c ****                   s, (*(const int *)optval)?"on":"off") );
2478:Middlewares/Third_Party/LwIP/src/api/sockets.c ****       break;
2479:Middlewares/Third_Party/LwIP/src/api/sockets.c ****     case TCP_KEEPALIVE:
2480:Middlewares/Third_Party/LwIP/src/api/sockets.c ****       sock->conn->pcb.tcp->keep_idle = (u32_t)(*(const int*)optval);
2481:Middlewares/Third_Party/LwIP/src/api/sockets.c ****       LWIP_DEBUGF(SOCKETS_DEBUG, ("lwip_setsockopt(%d, IPPROTO_TCP, TCP_KEEPALIVE) -> %"U32_F"\n",
2482:Middlewares/Third_Party/LwIP/src/api/sockets.c ****                   s, sock->conn->pcb.tcp->keep_idle));
2483:Middlewares/Third_Party/LwIP/src/api/sockets.c ****       break;
2484:Middlewares/Third_Party/LwIP/src/api/sockets.c **** 
2485:Middlewares/Third_Party/LwIP/src/api/sockets.c **** #if LWIP_TCP_KEEPALIVE
2486:Middlewares/Third_Party/LwIP/src/api/sockets.c ****     case TCP_KEEPIDLE:
2487:Middlewares/Third_Party/LwIP/src/api/sockets.c ****       sock->conn->pcb.tcp->keep_idle = 1000*(u32_t)(*(const int*)optval);
2488:Middlewares/Third_Party/LwIP/src/api/sockets.c ****       LWIP_DEBUGF(SOCKETS_DEBUG, ("lwip_setsockopt(%d, IPPROTO_TCP, TCP_KEEPIDLE) -> %"U32_F"\n",
2489:Middlewares/Third_Party/LwIP/src/api/sockets.c ****                   s, sock->conn->pcb.tcp->keep_idle));
2490:Middlewares/Third_Party/LwIP/src/api/sockets.c ****       break;
2491:Middlewares/Third_Party/LwIP/src/api/sockets.c ****     case TCP_KEEPINTVL:
ARM GAS  C:\Users\Student\AppData\Local\Temp\ccf85eJv.s 			page 48


2492:Middlewares/Third_Party/LwIP/src/api/sockets.c ****       sock->conn->pcb.tcp->keep_intvl = 1000*(u32_t)(*(const int*)optval);
2493:Middlewares/Third_Party/LwIP/src/api/sockets.c ****       LWIP_DEBUGF(SOCKETS_DEBUG, ("lwip_setsockopt(%d, IPPROTO_TCP, TCP_KEEPINTVL) -> %"U32_F"\n",
2494:Middlewares/Third_Party/LwIP/src/api/sockets.c ****                   s, sock->conn->pcb.tcp->keep_intvl));
2495:Middlewares/Third_Party/LwIP/src/api/sockets.c ****       break;
2496:Middlewares/Third_Party/LwIP/src/api/sockets.c ****     case TCP_KEEPCNT:
2497:Middlewares/Third_Party/LwIP/src/api/sockets.c ****       sock->conn->pcb.tcp->keep_cnt = (u32_t)(*(const int*)optval);
2498:Middlewares/Third_Party/LwIP/src/api/sockets.c ****       LWIP_DEBUGF(SOCKETS_DEBUG, ("lwip_setsockopt(%d, IPPROTO_TCP, TCP_KEEPCNT) -> %"U32_F"\n",
2499:Middlewares/Third_Party/LwIP/src/api/sockets.c ****                   s, sock->conn->pcb.tcp->keep_cnt));
2500:Middlewares/Third_Party/LwIP/src/api/sockets.c ****       break;
2501:Middlewares/Third_Party/LwIP/src/api/sockets.c **** #endif /* LWIP_TCP_KEEPALIVE */
2502:Middlewares/Third_Party/LwIP/src/api/sockets.c ****     default:
2503:Middlewares/Third_Party/LwIP/src/api/sockets.c ****       LWIP_DEBUGF(SOCKETS_DEBUG, ("lwip_setsockopt(%d, IPPROTO_TCP, UNIMPL: optname=0x%x, ..)\n",
2504:Middlewares/Third_Party/LwIP/src/api/sockets.c ****                   s, optname));
2505:Middlewares/Third_Party/LwIP/src/api/sockets.c ****       err = ENOPROTOOPT;
2506:Middlewares/Third_Party/LwIP/src/api/sockets.c ****       break;
2507:Middlewares/Third_Party/LwIP/src/api/sockets.c ****     }  /* switch (optname) */
2508:Middlewares/Third_Party/LwIP/src/api/sockets.c ****     break;
2509:Middlewares/Third_Party/LwIP/src/api/sockets.c **** #endif /* LWIP_TCP*/
2510:Middlewares/Third_Party/LwIP/src/api/sockets.c **** 
2511:Middlewares/Third_Party/LwIP/src/api/sockets.c **** #if LWIP_IPV6
2512:Middlewares/Third_Party/LwIP/src/api/sockets.c **** /* Level: IPPROTO_IPV6 */
2513:Middlewares/Third_Party/LwIP/src/api/sockets.c ****   case IPPROTO_IPV6:
2514:Middlewares/Third_Party/LwIP/src/api/sockets.c ****     switch (optname) {
2515:Middlewares/Third_Party/LwIP/src/api/sockets.c ****     case IPV6_V6ONLY:
2516:Middlewares/Third_Party/LwIP/src/api/sockets.c ****       LWIP_SOCKOPT_CHECK_OPTLEN_CONN_PCB_TYPE(sock, optlen, int, NETCONN_TCP);
2517:Middlewares/Third_Party/LwIP/src/api/sockets.c ****       if (*(const int*)optval) {
2518:Middlewares/Third_Party/LwIP/src/api/sockets.c ****         netconn_set_ipv6only(sock->conn, 1);
2519:Middlewares/Third_Party/LwIP/src/api/sockets.c ****       } else {
2520:Middlewares/Third_Party/LwIP/src/api/sockets.c ****         netconn_set_ipv6only(sock->conn, 0);
2521:Middlewares/Third_Party/LwIP/src/api/sockets.c ****       }
2522:Middlewares/Third_Party/LwIP/src/api/sockets.c ****       LWIP_DEBUGF(SOCKETS_DEBUG, ("lwip_setsockopt(%d, IPPROTO_IPV6, IPV6_V6ONLY, ..) -> %d\n",
2523:Middlewares/Third_Party/LwIP/src/api/sockets.c ****                   s, (netconn_get_ipv6only(sock->conn) ? 1 : 0)));
2524:Middlewares/Third_Party/LwIP/src/api/sockets.c ****       break;
2525:Middlewares/Third_Party/LwIP/src/api/sockets.c ****     default:
2526:Middlewares/Third_Party/LwIP/src/api/sockets.c ****       LWIP_DEBUGF(SOCKETS_DEBUG, ("lwip_setsockopt(%d, IPPROTO_IPV6, UNIMPL: optname=0x%x, ..)\n",
2527:Middlewares/Third_Party/LwIP/src/api/sockets.c ****                   s, optname));
2528:Middlewares/Third_Party/LwIP/src/api/sockets.c ****       err = ENOPROTOOPT;
2529:Middlewares/Third_Party/LwIP/src/api/sockets.c ****       break;
2530:Middlewares/Third_Party/LwIP/src/api/sockets.c ****     }  /* switch (optname) */
2531:Middlewares/Third_Party/LwIP/src/api/sockets.c ****     break;
2532:Middlewares/Third_Party/LwIP/src/api/sockets.c **** #endif /* LWIP_IPV6 */
2533:Middlewares/Third_Party/LwIP/src/api/sockets.c **** 
2534:Middlewares/Third_Party/LwIP/src/api/sockets.c **** #if LWIP_UDP && LWIP_UDPLITE
2535:Middlewares/Third_Party/LwIP/src/api/sockets.c ****   /* Level: IPPROTO_UDPLITE */
2536:Middlewares/Third_Party/LwIP/src/api/sockets.c ****   case IPPROTO_UDPLITE:
2537:Middlewares/Third_Party/LwIP/src/api/sockets.c ****     /* Special case: all IPPROTO_UDPLITE option take an int */
2538:Middlewares/Third_Party/LwIP/src/api/sockets.c ****     LWIP_SOCKOPT_CHECK_OPTLEN_CONN_PCB(sock, optlen, int);
2539:Middlewares/Third_Party/LwIP/src/api/sockets.c ****     /* If this is no UDP lite socket, ignore any options. */
2540:Middlewares/Third_Party/LwIP/src/api/sockets.c ****     if (!NETCONNTYPE_ISUDPLITE(netconn_type(sock->conn))) {
2541:Middlewares/Third_Party/LwIP/src/api/sockets.c ****       return ENOPROTOOPT;
2542:Middlewares/Third_Party/LwIP/src/api/sockets.c ****     }
2543:Middlewares/Third_Party/LwIP/src/api/sockets.c ****     switch (optname) {
2544:Middlewares/Third_Party/LwIP/src/api/sockets.c ****     case UDPLITE_SEND_CSCOV:
2545:Middlewares/Third_Party/LwIP/src/api/sockets.c ****       if ((*(const int*)optval != 0) && ((*(const int*)optval < 8) || (*(const int*)optval > 0xffff
2546:Middlewares/Third_Party/LwIP/src/api/sockets.c ****         /* don't allow illegal values! */
2547:Middlewares/Third_Party/LwIP/src/api/sockets.c ****         sock->conn->pcb.udp->chksum_len_tx = 8;
2548:Middlewares/Third_Party/LwIP/src/api/sockets.c ****       } else {
ARM GAS  C:\Users\Student\AppData\Local\Temp\ccf85eJv.s 			page 49


2549:Middlewares/Third_Party/LwIP/src/api/sockets.c ****         sock->conn->pcb.udp->chksum_len_tx = (u16_t)*(const int*)optval;
2550:Middlewares/Third_Party/LwIP/src/api/sockets.c ****       }
2551:Middlewares/Third_Party/LwIP/src/api/sockets.c ****       LWIP_DEBUGF(SOCKETS_DEBUG, ("lwip_setsockopt(%d, IPPROTO_UDPLITE, UDPLITE_SEND_CSCOV) -> %d\n
2552:Middlewares/Third_Party/LwIP/src/api/sockets.c ****                   s, (*(const int*)optval)) );
2553:Middlewares/Third_Party/LwIP/src/api/sockets.c ****       break;
2554:Middlewares/Third_Party/LwIP/src/api/sockets.c ****     case UDPLITE_RECV_CSCOV:
2555:Middlewares/Third_Party/LwIP/src/api/sockets.c ****       if ((*(const int*)optval != 0) && ((*(const int*)optval < 8) || (*(const int*)optval > 0xffff
2556:Middlewares/Third_Party/LwIP/src/api/sockets.c ****         /* don't allow illegal values! */
2557:Middlewares/Third_Party/LwIP/src/api/sockets.c ****         sock->conn->pcb.udp->chksum_len_rx = 8;
2558:Middlewares/Third_Party/LwIP/src/api/sockets.c ****       } else {
2559:Middlewares/Third_Party/LwIP/src/api/sockets.c ****         sock->conn->pcb.udp->chksum_len_rx = (u16_t)*(const int*)optval;
2560:Middlewares/Third_Party/LwIP/src/api/sockets.c ****       }
2561:Middlewares/Third_Party/LwIP/src/api/sockets.c ****       LWIP_DEBUGF(SOCKETS_DEBUG, ("lwip_setsockopt(%d, IPPROTO_UDPLITE, UDPLITE_RECV_CSCOV) -> %d\n
2562:Middlewares/Third_Party/LwIP/src/api/sockets.c ****                   s, (*(const int*)optval)) );
2563:Middlewares/Third_Party/LwIP/src/api/sockets.c ****       break;
2564:Middlewares/Third_Party/LwIP/src/api/sockets.c ****     default:
2565:Middlewares/Third_Party/LwIP/src/api/sockets.c ****       LWIP_DEBUGF(SOCKETS_DEBUG, ("lwip_setsockopt(%d, IPPROTO_UDPLITE, UNIMPL: optname=0x%x, ..)\n
2566:Middlewares/Third_Party/LwIP/src/api/sockets.c ****                   s, optname));
2567:Middlewares/Third_Party/LwIP/src/api/sockets.c ****       err = ENOPROTOOPT;
2568:Middlewares/Third_Party/LwIP/src/api/sockets.c ****       break;
2569:Middlewares/Third_Party/LwIP/src/api/sockets.c ****     }  /* switch (optname) */
2570:Middlewares/Third_Party/LwIP/src/api/sockets.c ****     break;
2571:Middlewares/Third_Party/LwIP/src/api/sockets.c **** #endif /* LWIP_UDP */
2572:Middlewares/Third_Party/LwIP/src/api/sockets.c ****   /* Level: IPPROTO_RAW */
2573:Middlewares/Third_Party/LwIP/src/api/sockets.c ****   case IPPROTO_RAW:
2574:Middlewares/Third_Party/LwIP/src/api/sockets.c ****     switch (optname) {
2575:Middlewares/Third_Party/LwIP/src/api/sockets.c **** #if LWIP_IPV6 && LWIP_RAW
2576:Middlewares/Third_Party/LwIP/src/api/sockets.c ****     case IPV6_CHECKSUM:
2577:Middlewares/Third_Party/LwIP/src/api/sockets.c ****       /* It should not be possible to disable the checksum generation with ICMPv6
2578:Middlewares/Third_Party/LwIP/src/api/sockets.c ****        * as per RFC 3542 chapter 3.1 */
2579:Middlewares/Third_Party/LwIP/src/api/sockets.c ****       if(sock->conn->pcb.raw->protocol == IPPROTO_ICMPV6) {
2580:Middlewares/Third_Party/LwIP/src/api/sockets.c ****         return EINVAL;
2581:Middlewares/Third_Party/LwIP/src/api/sockets.c ****       }
2582:Middlewares/Third_Party/LwIP/src/api/sockets.c **** 
2583:Middlewares/Third_Party/LwIP/src/api/sockets.c ****       LWIP_SOCKOPT_CHECK_OPTLEN_CONN_PCB_TYPE(sock, optlen, int, NETCONN_RAW);
2584:Middlewares/Third_Party/LwIP/src/api/sockets.c ****       if (*(const int *)optval < 0) {
2585:Middlewares/Third_Party/LwIP/src/api/sockets.c ****         sock->conn->pcb.raw->chksum_reqd = 0;
2586:Middlewares/Third_Party/LwIP/src/api/sockets.c ****       } else if (*(const int *)optval & 1) {
2587:Middlewares/Third_Party/LwIP/src/api/sockets.c ****         /* Per RFC3542, odd offsets are not allowed */
2588:Middlewares/Third_Party/LwIP/src/api/sockets.c ****         return EINVAL;
2589:Middlewares/Third_Party/LwIP/src/api/sockets.c ****       } else {
2590:Middlewares/Third_Party/LwIP/src/api/sockets.c ****         sock->conn->pcb.raw->chksum_reqd = 1;
2591:Middlewares/Third_Party/LwIP/src/api/sockets.c ****         sock->conn->pcb.raw->chksum_offset = (u16_t)*(const int *)optval;
2592:Middlewares/Third_Party/LwIP/src/api/sockets.c ****       }
2593:Middlewares/Third_Party/LwIP/src/api/sockets.c ****       LWIP_DEBUGF(SOCKETS_DEBUG, ("lwip_setsockopt(%d, IPPROTO_RAW, IPV6_CHECKSUM, ..) -> %d\n",
2594:Middlewares/Third_Party/LwIP/src/api/sockets.c ****                   s, sock->conn->pcb.raw->chksum_reqd));
2595:Middlewares/Third_Party/LwIP/src/api/sockets.c ****       break;
2596:Middlewares/Third_Party/LwIP/src/api/sockets.c **** #endif /* LWIP_IPV6 && LWIP_RAW */
2597:Middlewares/Third_Party/LwIP/src/api/sockets.c ****     default:
2598:Middlewares/Third_Party/LwIP/src/api/sockets.c ****       LWIP_DEBUGF(SOCKETS_DEBUG, ("lwip_setsockopt(%d, IPPROTO_RAW, UNIMPL: optname=0x%x, ..)\n",
2599:Middlewares/Third_Party/LwIP/src/api/sockets.c ****                                   s, optname));
2600:Middlewares/Third_Party/LwIP/src/api/sockets.c ****       err = ENOPROTOOPT;
 187              		.loc 1 2600 0
 188 0024 5C20     		movs	r0, #92
 189              	.LVL18:
 190 0026 70BD     		pop	{r4, r5, r6, pc}
 191              	.LVL19:
ARM GAS  C:\Users\Student\AppData\Local\Temp\ccf85eJv.s 			page 50


 192              	.L20:
2300:Middlewares/Third_Party/LwIP/src/api/sockets.c **** 
 193              		.loc 1 2300 0
 194 0028 202D     		cmp	r5, #32
 195 002a 07D0     		beq	.L22
 196 002c 41F20A02 		movw	r2, #4106
 197 0030 9542     		cmp	r5, r2
 198 0032 1DD0     		beq	.L23
 199 0034 082D     		cmp	r5, #8
 200 0036 01D0     		beq	.L22
2380:Middlewares/Third_Party/LwIP/src/api/sockets.c ****       break;
 201              		.loc 1 2380 0
 202 0038 5C20     		movs	r0, #92
 203              	.LVL20:
 204 003a 70BD     		pop	{r4, r5, r6, pc}
 205              	.LVL21:
 206              	.L22:
2310:Middlewares/Third_Party/LwIP/src/api/sockets.c ****       if (*(const int*)optval) {
 207              		.loc 1 2310 0
 208 003c 049A     		ldr	r2, [sp, #16]
 209 003e 032A     		cmp	r2, #3
 210 0040 01D8     		bhi	.L60
 211 0042 1620     		movs	r0, #22
 212              	.LVL22:
 213 0044 70BD     		pop	{r4, r5, r6, pc}
 214              	.LVL23:
 215              	.L60:
2310:Middlewares/Third_Party/LwIP/src/api/sockets.c ****       if (*(const int*)optval) {
 216              		.loc 1 2310 0 is_stmt 0 discriminator 2
 217 0046 1B68     		ldr	r3, [r3]
 218 0048 002B     		cmp	r3, #0
 219 004a 00F08380 		beq	.L35
2310:Middlewares/Third_Party/LwIP/src/api/sockets.c ****       if (*(const int*)optval) {
 220              		.loc 1 2310 0 discriminator 4
 221 004e 5B68     		ldr	r3, [r3, #4]
 222 0050 002B     		cmp	r3, #0
 223 0052 00F08180 		beq	.L36
2311:Middlewares/Third_Party/LwIP/src/api/sockets.c ****         ip_set_option(sock->conn->pcb.ip, optname);
 224              		.loc 1 2311 0 is_stmt 1
 225 0056 3268     		ldr	r2, [r6]
 226 0058 22B1     		cbz	r2, .L24
2312:Middlewares/Third_Party/LwIP/src/api/sockets.c ****       } else {
 227              		.loc 1 2312 0
 228 005a 1A7A     		ldrb	r2, [r3, #8]	@ zero_extendqisi2
 229 005c 1543     		orrs	r5, r5, r2
 230              	.LVL24:
 231 005e 1D72     		strb	r5, [r3, #8]
2290:Middlewares/Third_Party/LwIP/src/api/sockets.c ****   struct lwip_sock *sock = tryget_socket(s);
 232              		.loc 1 2290 0
 233 0060 0020     		movs	r0, #0
 234              	.LVL25:
 235 0062 70BD     		pop	{r4, r5, r6, pc}
 236              	.LVL26:
 237              	.L24:
2314:Middlewares/Third_Party/LwIP/src/api/sockets.c ****       }
 238              		.loc 1 2314 0
 239 0064 1A7A     		ldrb	r2, [r3, #8]	@ zero_extendqisi2
ARM GAS  C:\Users\Student\AppData\Local\Temp\ccf85eJv.s 			page 51


 240 0066 22EA0505 		bic	r5, r2, r5
 241              	.LVL27:
 242 006a 1D72     		strb	r5, [r3, #8]
2290:Middlewares/Third_Party/LwIP/src/api/sockets.c ****   struct lwip_sock *sock = tryget_socket(s);
 243              		.loc 1 2290 0
 244 006c 0020     		movs	r0, #0
 245              	.LVL28:
 246 006e 70BD     		pop	{r4, r5, r6, pc}
 247              	.LVL29:
 248              	.L23:
2363:Middlewares/Third_Party/LwIP/src/api/sockets.c **** #if LWIP_UDPLITE
 249              		.loc 1 2363 0
 250 0070 049A     		ldr	r2, [sp, #16]
 251 0072 032A     		cmp	r2, #3
 252 0074 01D8     		bhi	.L61
 253 0076 1620     		movs	r0, #22
 254              	.LVL30:
 255 0078 70BD     		pop	{r4, r5, r6, pc}
 256              	.LVL31:
 257              	.L61:
2363:Middlewares/Third_Party/LwIP/src/api/sockets.c **** #if LWIP_UDPLITE
 258              		.loc 1 2363 0 is_stmt 0 discriminator 2
 259 007a 0368     		ldr	r3, [r0]
 260 007c 002B     		cmp	r3, #0
 261 007e 6DD0     		beq	.L38
2363:Middlewares/Third_Party/LwIP/src/api/sockets.c **** #if LWIP_UDPLITE
 262              		.loc 1 2363 0 discriminator 4
 263 0080 5A68     		ldr	r2, [r3, #4]
 264 0082 002A     		cmp	r2, #0
 265 0084 6CD0     		beq	.L39
2363:Middlewares/Third_Party/LwIP/src/api/sockets.c **** #if LWIP_UDPLITE
 266              		.loc 1 2363 0 discriminator 6
 267 0086 1B78     		ldrb	r3, [r3]	@ zero_extendqisi2
 268 0088 03F0F003 		and	r3, r3, #240
 269 008c 202B     		cmp	r3, #32
 270 008e 01D0     		beq	.L62
2363:Middlewares/Third_Party/LwIP/src/api/sockets.c **** #if LWIP_UDPLITE
 271              		.loc 1 2363 0
 272 0090 5C20     		movs	r0, #92
 273              	.LVL32:
 274 0092 70BD     		pop	{r4, r5, r6, pc}
 275              	.LVL33:
 276              	.L62:
2370:Middlewares/Third_Party/LwIP/src/api/sockets.c ****         udp_setflags(sock->conn->pcb.udp, udp_flags(sock->conn->pcb.udp) | UDP_FLAGS_NOCHKSUM);
 277              		.loc 1 2370 0 is_stmt 1
 278 0094 3368     		ldr	r3, [r6]
 279 0096 2BB1     		cbz	r3, .L25
2371:Middlewares/Third_Party/LwIP/src/api/sockets.c ****       } else {
 280              		.loc 1 2371 0
 281 0098 137C     		ldrb	r3, [r2, #16]	@ zero_extendqisi2
 282 009a 43F00103 		orr	r3, r3, #1
 283 009e 1374     		strb	r3, [r2, #16]
2290:Middlewares/Third_Party/LwIP/src/api/sockets.c ****   struct lwip_sock *sock = tryget_socket(s);
 284              		.loc 1 2290 0
 285 00a0 0020     		movs	r0, #0
 286              	.LVL34:
 287 00a2 70BD     		pop	{r4, r5, r6, pc}
ARM GAS  C:\Users\Student\AppData\Local\Temp\ccf85eJv.s 			page 52


 288              	.LVL35:
 289              	.L25:
2373:Middlewares/Third_Party/LwIP/src/api/sockets.c ****       }
 290              		.loc 1 2373 0
 291 00a4 137C     		ldrb	r3, [r2, #16]	@ zero_extendqisi2
