ARM GAS  C:\Users\Patryk\AppData\Local\Temp\ccutd4KM.s 			page 1


   1              		.cpu cortex-m7
   2              		.eabi_attribute 27, 1
   3              		.eabi_attribute 28, 1
   4              		.eabi_attribute 20, 1
   5              		.eabi_attribute 21, 1
   6              		.eabi_attribute 23, 3
   7              		.eabi_attribute 24, 1
   8              		.eabi_attribute 25, 1
   9              		.eabi_attribute 26, 1
  10              		.eabi_attribute 30, 1
  11              		.eabi_attribute 34, 1
  12              		.eabi_attribute 18, 4
  13              		.file	"stm32f7xx_hal_spdifrx.c"
  14              		.text
  15              	.Ltext0:
  16              		.cfi_sections	.debug_frame
  17              		.section	.text.SPDIFRX_WaitOnFlagUntilTimeout,"ax",%progbits
  18              		.align	1
  19              		.syntax unified
  20              		.thumb
  21              		.thumb_func
  22              		.fpu fpv5-sp-d16
  24              	SPDIFRX_WaitOnFlagUntilTimeout:
  25              	.LFB165:
  26              		.file 1 "Drivers/STM32F7xx_HAL_Driver/Src/stm32f7xx_hal_spdifrx.c"
   1:Drivers/STM32F7xx_HAL_Driver/Src/stm32f7xx_hal_spdifrx.c **** /**
   2:Drivers/STM32F7xx_HAL_Driver/Src/stm32f7xx_hal_spdifrx.c ****   ******************************************************************************
   3:Drivers/STM32F7xx_HAL_Driver/Src/stm32f7xx_hal_spdifrx.c ****   * @file    stm32f7xx_hal_spdifrx.c
   4:Drivers/STM32F7xx_HAL_Driver/Src/stm32f7xx_hal_spdifrx.c ****   * @author  MCD Application Team
   5:Drivers/STM32F7xx_HAL_Driver/Src/stm32f7xx_hal_spdifrx.c ****   * @brief   This file provides firmware functions to manage the following 
   6:Drivers/STM32F7xx_HAL_Driver/Src/stm32f7xx_hal_spdifrx.c ****   *          functionalities of the SPDIFRX audio interface:
   7:Drivers/STM32F7xx_HAL_Driver/Src/stm32f7xx_hal_spdifrx.c ****   *           + Initialization and Configuration
   8:Drivers/STM32F7xx_HAL_Driver/Src/stm32f7xx_hal_spdifrx.c ****   *           + Data transfers functions
   9:Drivers/STM32F7xx_HAL_Driver/Src/stm32f7xx_hal_spdifrx.c ****   *           + DMA transfers management
  10:Drivers/STM32F7xx_HAL_Driver/Src/stm32f7xx_hal_spdifrx.c ****   *           + Interrupts and flags management 
  11:Drivers/STM32F7xx_HAL_Driver/Src/stm32f7xx_hal_spdifrx.c ****   @verbatim
  12:Drivers/STM32F7xx_HAL_Driver/Src/stm32f7xx_hal_spdifrx.c ****  ===============================================================================
  13:Drivers/STM32F7xx_HAL_Driver/Src/stm32f7xx_hal_spdifrx.c ****                   ##### How to use this driver #####
  14:Drivers/STM32F7xx_HAL_Driver/Src/stm32f7xx_hal_spdifrx.c ****  ===============================================================================
  15:Drivers/STM32F7xx_HAL_Driver/Src/stm32f7xx_hal_spdifrx.c ****  [..]
  16:Drivers/STM32F7xx_HAL_Driver/Src/stm32f7xx_hal_spdifrx.c ****     The SPDIFRX HAL driver can be used as follow:
  17:Drivers/STM32F7xx_HAL_Driver/Src/stm32f7xx_hal_spdifrx.c ****     
  18:Drivers/STM32F7xx_HAL_Driver/Src/stm32f7xx_hal_spdifrx.c ****     (#) Declare SPDIFRX_HandleTypeDef handle structure.
  19:Drivers/STM32F7xx_HAL_Driver/Src/stm32f7xx_hal_spdifrx.c ****     (#) Initialize the SPDIFRX low level resources by implement the HAL_SPDIFRX_MspInit() API:
  20:Drivers/STM32F7xx_HAL_Driver/Src/stm32f7xx_hal_spdifrx.c ****         (##) Enable the SPDIFRX interface clock.                      
  21:Drivers/STM32F7xx_HAL_Driver/Src/stm32f7xx_hal_spdifrx.c ****         (##) SPDIFRX pins configuration:
  22:Drivers/STM32F7xx_HAL_Driver/Src/stm32f7xx_hal_spdifrx.c ****             (+++) Enable the clock for the SPDIFRX GPIOs.
  23:Drivers/STM32F7xx_HAL_Driver/Src/stm32f7xx_hal_spdifrx.c ****             (+++) Configure these SPDIFRX pins as alternate function pull-up.
  24:Drivers/STM32F7xx_HAL_Driver/Src/stm32f7xx_hal_spdifrx.c ****         (##) NVIC configuration if you need to use interrupt process (HAL_SPDIFRX_ReceiveControlFlo
  25:Drivers/STM32F7xx_HAL_Driver/Src/stm32f7xx_hal_spdifrx.c ****             (+++) Configure the SPDIFRX interrupt priority.
  26:Drivers/STM32F7xx_HAL_Driver/Src/stm32f7xx_hal_spdifrx.c ****             (+++) Enable the NVIC SPDIFRX IRQ handle.
  27:Drivers/STM32F7xx_HAL_Driver/Src/stm32f7xx_hal_spdifrx.c ****         (##) DMA Configuration if you need to use DMA process (HAL_SPDIFRX_ReceiveDataFlow_DMA() an
  28:Drivers/STM32F7xx_HAL_Driver/Src/stm32f7xx_hal_spdifrx.c ****             (+++) Declare a DMA handle structure for the reception of the Data Flow channel.
  29:Drivers/STM32F7xx_HAL_Driver/Src/stm32f7xx_hal_spdifrx.c ****             (+++) Declare a DMA handle structure for the reception of the Control Flow channel.
  30:Drivers/STM32F7xx_HAL_Driver/Src/stm32f7xx_hal_spdifrx.c ****             (+++) Enable the DMAx interface clock.
  31:Drivers/STM32F7xx_HAL_Driver/Src/stm32f7xx_hal_spdifrx.c ****             (+++) Configure the declared DMA handle structure CtrlRx/DataRx with the required param
  32:Drivers/STM32F7xx_HAL_Driver/Src/stm32f7xx_hal_spdifrx.c ****             (+++) Configure the DMA Channel.
ARM GAS  C:\Users\Patryk\AppData\Local\Temp\ccutd4KM.s 			page 2


  33:Drivers/STM32F7xx_HAL_Driver/Src/stm32f7xx_hal_spdifrx.c ****             (+++) Associate the initialized DMA handle to the SPDIFRX DMA CtrlRx/DataRx handle.
  34:Drivers/STM32F7xx_HAL_Driver/Src/stm32f7xx_hal_spdifrx.c ****             (+++) Configure the priority and enable the NVIC for the transfer complete interrupt on
  35:Drivers/STM32F7xx_HAL_Driver/Src/stm32f7xx_hal_spdifrx.c ****                 DMA CtrlRx/DataRx channel.
  36:Drivers/STM32F7xx_HAL_Driver/Src/stm32f7xx_hal_spdifrx.c ****   
  37:Drivers/STM32F7xx_HAL_Driver/Src/stm32f7xx_hal_spdifrx.c ****    (#) Program the input selection, re-tries number, wait for activity, channel status selection, d
  38:Drivers/STM32F7xx_HAL_Driver/Src/stm32f7xx_hal_spdifrx.c ****        using HAL_SPDIFRX_Init() function.
  39:Drivers/STM32F7xx_HAL_Driver/Src/stm32f7xx_hal_spdifrx.c **** 
  40:Drivers/STM32F7xx_HAL_Driver/Src/stm32f7xx_hal_spdifrx.c ****    -@- The specific SPDIFRX interrupts (RXNE/CSRNE and Error Interrupts) will be managed using the 
  41:Drivers/STM32F7xx_HAL_Driver/Src/stm32f7xx_hal_spdifrx.c ****        __SPDIFRX_ENABLE_IT() and __SPDIFRX_DISABLE_IT() inside the receive process.
  42:Drivers/STM32F7xx_HAL_Driver/Src/stm32f7xx_hal_spdifrx.c ****    -@- Make sure that ck_spdif clock is configured. 
  43:Drivers/STM32F7xx_HAL_Driver/Src/stm32f7xx_hal_spdifrx.c ****    
  44:Drivers/STM32F7xx_HAL_Driver/Src/stm32f7xx_hal_spdifrx.c ****    (#) Three operation modes are available within this driver :
  45:Drivers/STM32F7xx_HAL_Driver/Src/stm32f7xx_hal_spdifrx.c ****   
  46:Drivers/STM32F7xx_HAL_Driver/Src/stm32f7xx_hal_spdifrx.c ****    *** Polling mode for reception operation (for debug purpose) ***
  47:Drivers/STM32F7xx_HAL_Driver/Src/stm32f7xx_hal_spdifrx.c ****    ================================================================
  48:Drivers/STM32F7xx_HAL_Driver/Src/stm32f7xx_hal_spdifrx.c ****    [..]    
  49:Drivers/STM32F7xx_HAL_Driver/Src/stm32f7xx_hal_spdifrx.c ****      (+) Receive data flow in blocking mode using HAL_SPDIFRX_ReceiveDataFlow()
  50:Drivers/STM32F7xx_HAL_Driver/Src/stm32f7xx_hal_spdifrx.c ****          (+) Receive control flow of data in blocking mode using HAL_SPDIFRX_ReceiveControlFlow()
  51:Drivers/STM32F7xx_HAL_Driver/Src/stm32f7xx_hal_spdifrx.c ****    
  52:Drivers/STM32F7xx_HAL_Driver/Src/stm32f7xx_hal_spdifrx.c ****    *** Interrupt mode for reception operation ***
  53:Drivers/STM32F7xx_HAL_Driver/Src/stm32f7xx_hal_spdifrx.c ****    =========================================
  54:Drivers/STM32F7xx_HAL_Driver/Src/stm32f7xx_hal_spdifrx.c ****    [..]    
  55:Drivers/STM32F7xx_HAL_Driver/Src/stm32f7xx_hal_spdifrx.c ****      (+) Receive an amount of data (Data Flow) in non blocking mode using HAL_SPDIFRX_ReceiveDataFl
  56:Drivers/STM32F7xx_HAL_Driver/Src/stm32f7xx_hal_spdifrx.c ****          (+) Receive an amount of data (Control Flow) in non blocking mode using HAL_SPDIFRX_Receiv
  57:Drivers/STM32F7xx_HAL_Driver/Src/stm32f7xx_hal_spdifrx.c ****      (+) At reception end of half transfer HAL_SPDIFRX_RxHalfCpltCallback is executed and user can 
  58:Drivers/STM32F7xx_HAL_Driver/Src/stm32f7xx_hal_spdifrx.c ****          add his own code by customization of function pointer HAL_SPDIFRX_RxHalfCpltCallback 
  59:Drivers/STM32F7xx_HAL_Driver/Src/stm32f7xx_hal_spdifrx.c ****      (+) At reception end of transfer HAL_SPDIFRX_RxCpltCallback is executed and user can 
  60:Drivers/STM32F7xx_HAL_Driver/Src/stm32f7xx_hal_spdifrx.c ****          add his own code by customization of function pointer HAL_SPDIFRX_RxCpltCallback
  61:Drivers/STM32F7xx_HAL_Driver/Src/stm32f7xx_hal_spdifrx.c ****      (+) In case of transfer Error, HAL_SPDIFRX_ErrorCallback() function is executed and user can 
  62:Drivers/STM32F7xx_HAL_Driver/Src/stm32f7xx_hal_spdifrx.c ****          add his own code by customization of function pointer HAL_SPDIFRX_ErrorCallback
  63:Drivers/STM32F7xx_HAL_Driver/Src/stm32f7xx_hal_spdifrx.c **** 
  64:Drivers/STM32F7xx_HAL_Driver/Src/stm32f7xx_hal_spdifrx.c ****    *** DMA mode for reception operation ***
  65:Drivers/STM32F7xx_HAL_Driver/Src/stm32f7xx_hal_spdifrx.c ****    ========================================
  66:Drivers/STM32F7xx_HAL_Driver/Src/stm32f7xx_hal_spdifrx.c ****    [..] 
  67:Drivers/STM32F7xx_HAL_Driver/Src/stm32f7xx_hal_spdifrx.c ****      (+) Receive an amount of data (Data Flow) in non blocking mode (DMA) using HAL_SPDIFRX_Receive
  68:Drivers/STM32F7xx_HAL_Driver/Src/stm32f7xx_hal_spdifrx.c ****          (+) Receive an amount of data (Control Flow) in non blocking mode (DMA) using HAL_SPDIFRX_
  69:Drivers/STM32F7xx_HAL_Driver/Src/stm32f7xx_hal_spdifrx.c ****      (+) At reception end of half transfer HAL_SPDIFRX_RxHalfCpltCallback is executed and user can 
  70:Drivers/STM32F7xx_HAL_Driver/Src/stm32f7xx_hal_spdifrx.c ****          add his own code by customization of function pointer HAL_SPDIFRX_RxHalfCpltCallback 
  71:Drivers/STM32F7xx_HAL_Driver/Src/stm32f7xx_hal_spdifrx.c ****      (+) At reception end of transfer HAL_SPDIFRX_RxCpltCallback is executed and user can 
  72:Drivers/STM32F7xx_HAL_Driver/Src/stm32f7xx_hal_spdifrx.c ****          add his own code by customization of function pointer HAL_SPDIFRX_RxCpltCallback
  73:Drivers/STM32F7xx_HAL_Driver/Src/stm32f7xx_hal_spdifrx.c ****      (+) In case of transfer Error, HAL_SPDIFRX_ErrorCallback() function is executed and user can 
  74:Drivers/STM32F7xx_HAL_Driver/Src/stm32f7xx_hal_spdifrx.c ****          add his own code by customization of function pointer HAL_SPDIFRX_ErrorCallback
  75:Drivers/STM32F7xx_HAL_Driver/Src/stm32f7xx_hal_spdifrx.c ****      (+) Stop the DMA Transfer using HAL_SPDIFRX_DMAStop()
  76:Drivers/STM32F7xx_HAL_Driver/Src/stm32f7xx_hal_spdifrx.c **** 
  77:Drivers/STM32F7xx_HAL_Driver/Src/stm32f7xx_hal_spdifrx.c ****    *** SPDIFRX HAL driver macros list ***
  78:Drivers/STM32F7xx_HAL_Driver/Src/stm32f7xx_hal_spdifrx.c ****    =============================================
  79:Drivers/STM32F7xx_HAL_Driver/Src/stm32f7xx_hal_spdifrx.c ****    [..]
  80:Drivers/STM32F7xx_HAL_Driver/Src/stm32f7xx_hal_spdifrx.c ****      Below the list of most used macros in USART HAL driver.
  81:Drivers/STM32F7xx_HAL_Driver/Src/stm32f7xx_hal_spdifrx.c ****       (+) __HAL_SPDIFRX_IDLE: Disable the specified SPDIFRX peripheral (IDEL State)
  82:Drivers/STM32F7xx_HAL_Driver/Src/stm32f7xx_hal_spdifrx.c ****       (+) __HAL_SPDIFRX_SYNC: Enable the synchronization state of the specified SPDIFRX peripheral 
  83:Drivers/STM32F7xx_HAL_Driver/Src/stm32f7xx_hal_spdifrx.c ****       (+) __HAL_SPDIFRX_RCV: Enable the receive state of the specified SPDIFRX peripheral (RCV Stat
  84:Drivers/STM32F7xx_HAL_Driver/Src/stm32f7xx_hal_spdifrx.c ****       (+) __HAL_SPDIFRX_ENABLE_IT : Enable the specified SPDIFRX interrupts
  85:Drivers/STM32F7xx_HAL_Driver/Src/stm32f7xx_hal_spdifrx.c ****       (+) __HAL_SPDIFRX_DISABLE_IT : Disable the specified SPDIFRX interrupts
  86:Drivers/STM32F7xx_HAL_Driver/Src/stm32f7xx_hal_spdifrx.c ****       (+) __HAL_SPDIFRX_GET_FLAG: Check whether the specified SPDIFRX flag is set or not.
  87:Drivers/STM32F7xx_HAL_Driver/Src/stm32f7xx_hal_spdifrx.c **** 
  88:Drivers/STM32F7xx_HAL_Driver/Src/stm32f7xx_hal_spdifrx.c ****     [..]
  89:Drivers/STM32F7xx_HAL_Driver/Src/stm32f7xx_hal_spdifrx.c ****       (@) You can refer to the SPDIFRX HAL driver header file for more useful macros
ARM GAS  C:\Users\Patryk\AppData\Local\Temp\ccutd4KM.s 			page 3


  90:Drivers/STM32F7xx_HAL_Driver/Src/stm32f7xx_hal_spdifrx.c **** 
  91:Drivers/STM32F7xx_HAL_Driver/Src/stm32f7xx_hal_spdifrx.c ****   @endverbatim
  92:Drivers/STM32F7xx_HAL_Driver/Src/stm32f7xx_hal_spdifrx.c ****   ******************************************************************************
  93:Drivers/STM32F7xx_HAL_Driver/Src/stm32f7xx_hal_spdifrx.c ****   * @attention
  94:Drivers/STM32F7xx_HAL_Driver/Src/stm32f7xx_hal_spdifrx.c ****   *
  95:Drivers/STM32F7xx_HAL_Driver/Src/stm32f7xx_hal_spdifrx.c ****   * <h2><center>&copy; COPYRIGHT(c) 2017 STMicroelectronics</center></h2>
  96:Drivers/STM32F7xx_HAL_Driver/Src/stm32f7xx_hal_spdifrx.c ****   *
  97:Drivers/STM32F7xx_HAL_Driver/Src/stm32f7xx_hal_spdifrx.c ****   * Redistribution and use in source and binary forms, with or without modification,
  98:Drivers/STM32F7xx_HAL_Driver/Src/stm32f7xx_hal_spdifrx.c ****   * are permitted provided that the following conditions are met:
  99:Drivers/STM32F7xx_HAL_Driver/Src/stm32f7xx_hal_spdifrx.c ****   *   1. Redistributions of source code must retain the above copyright notice,
 100:Drivers/STM32F7xx_HAL_Driver/Src/stm32f7xx_hal_spdifrx.c ****   *      this list of conditions and the following disclaimer.
 101:Drivers/STM32F7xx_HAL_Driver/Src/stm32f7xx_hal_spdifrx.c ****   *   2. Redistributions in binary form must reproduce the above copyright notice,
 102:Drivers/STM32F7xx_HAL_Driver/Src/stm32f7xx_hal_spdifrx.c ****   *      this list of conditions and the following disclaimer in the documentation
 103:Drivers/STM32F7xx_HAL_Driver/Src/stm32f7xx_hal_spdifrx.c ****   *      and/or other materials provided with the distribution.
 104:Drivers/STM32F7xx_HAL_Driver/Src/stm32f7xx_hal_spdifrx.c ****   *   3. Neither the name of STMicroelectronics nor the names of its contributors
 105:Drivers/STM32F7xx_HAL_Driver/Src/stm32f7xx_hal_spdifrx.c ****   *      may be used to endorse or promote products derived from this software
 106:Drivers/STM32F7xx_HAL_Driver/Src/stm32f7xx_hal_spdifrx.c ****   *      without specific prior written permission.
 107:Drivers/STM32F7xx_HAL_Driver/Src/stm32f7xx_hal_spdifrx.c ****   *
 108:Drivers/STM32F7xx_HAL_Driver/Src/stm32f7xx_hal_spdifrx.c ****   * THIS SOFTWARE IS PROVIDED BY THE COPYRIGHT HOLDERS AND CONTRIBUTORS "AS IS"
 109:Drivers/STM32F7xx_HAL_Driver/Src/stm32f7xx_hal_spdifrx.c ****   * AND ANY EXPRESS OR IMPLIED WARRANTIES, INCLUDING, BUT NOT LIMITED TO, THE
 110:Drivers/STM32F7xx_HAL_Driver/Src/stm32f7xx_hal_spdifrx.c ****   * IMPLIED WARRANTIES OF MERCHANTABILITY AND FITNESS FOR A PARTICULAR PURPOSE ARE
 111:Drivers/STM32F7xx_HAL_Driver/Src/stm32f7xx_hal_spdifrx.c ****   * DISCLAIMED. IN NO EVENT SHALL THE COPYRIGHT HOLDER OR CONTRIBUTORS BE LIABLE
 112:Drivers/STM32F7xx_HAL_Driver/Src/stm32f7xx_hal_spdifrx.c ****   * FOR ANY DIRECT, INDIRECT, INCIDENTAL, SPECIAL, EXEMPLARY, OR CONSEQUENTIAL
 113:Drivers/STM32F7xx_HAL_Driver/Src/stm32f7xx_hal_spdifrx.c ****   * DAMAGES (INCLUDING, BUT NOT LIMITED TO, PROCUREMENT OF SUBSTITUTE GOODS OR
 114:Drivers/STM32F7xx_HAL_Driver/Src/stm32f7xx_hal_spdifrx.c ****   * SERVICES; LOSS OF USE, DATA, OR PROFITS; OR BUSINESS INTERRUPTION) HOWEVER
 115:Drivers/STM32F7xx_HAL_Driver/Src/stm32f7xx_hal_spdifrx.c ****   * CAUSED AND ON ANY THEORY OF LIABILITY, WHETHER IN CONTRACT, STRICT LIABILITY,
 116:Drivers/STM32F7xx_HAL_Driver/Src/stm32f7xx_hal_spdifrx.c ****   * OR TORT (INCLUDING NEGLIGENCE OR OTHERWISE) ARISING IN ANY WAY OUT OF THE USE
 117:Drivers/STM32F7xx_HAL_Driver/Src/stm32f7xx_hal_spdifrx.c ****   * OF THIS SOFTWARE, EVEN IF ADVISED OF THE POSSIBILITY OF SUCH DAMAGE.
 118:Drivers/STM32F7xx_HAL_Driver/Src/stm32f7xx_hal_spdifrx.c ****   *
 119:Drivers/STM32F7xx_HAL_Driver/Src/stm32f7xx_hal_spdifrx.c ****   ******************************************************************************
 120:Drivers/STM32F7xx_HAL_Driver/Src/stm32f7xx_hal_spdifrx.c ****   */ 
 121:Drivers/STM32F7xx_HAL_Driver/Src/stm32f7xx_hal_spdifrx.c **** 
 122:Drivers/STM32F7xx_HAL_Driver/Src/stm32f7xx_hal_spdifrx.c **** /* Includes ------------------------------------------------------------------*/
 123:Drivers/STM32F7xx_HAL_Driver/Src/stm32f7xx_hal_spdifrx.c **** #include "stm32f7xx_hal.h"
 124:Drivers/STM32F7xx_HAL_Driver/Src/stm32f7xx_hal_spdifrx.c **** 
 125:Drivers/STM32F7xx_HAL_Driver/Src/stm32f7xx_hal_spdifrx.c **** /** @addtogroup STM32F7xx_HAL_Driver
 126:Drivers/STM32F7xx_HAL_Driver/Src/stm32f7xx_hal_spdifrx.c ****   * @{
 127:Drivers/STM32F7xx_HAL_Driver/Src/stm32f7xx_hal_spdifrx.c ****   */
 128:Drivers/STM32F7xx_HAL_Driver/Src/stm32f7xx_hal_spdifrx.c **** /** @defgroup SPDIFRX SPDIFRX
 129:Drivers/STM32F7xx_HAL_Driver/Src/stm32f7xx_hal_spdifrx.c **** * @brief SPDIFRX HAL module driver
 130:Drivers/STM32F7xx_HAL_Driver/Src/stm32f7xx_hal_spdifrx.c **** * @{
 131:Drivers/STM32F7xx_HAL_Driver/Src/stm32f7xx_hal_spdifrx.c **** */
 132:Drivers/STM32F7xx_HAL_Driver/Src/stm32f7xx_hal_spdifrx.c **** 
 133:Drivers/STM32F7xx_HAL_Driver/Src/stm32f7xx_hal_spdifrx.c **** #ifdef HAL_SPDIFRX_MODULE_ENABLED
 134:Drivers/STM32F7xx_HAL_Driver/Src/stm32f7xx_hal_spdifrx.c **** #if defined (SPDIFRX)
 135:Drivers/STM32F7xx_HAL_Driver/Src/stm32f7xx_hal_spdifrx.c **** 
 136:Drivers/STM32F7xx_HAL_Driver/Src/stm32f7xx_hal_spdifrx.c **** /* Private typedef -----------------------------------------------------------*/
 137:Drivers/STM32F7xx_HAL_Driver/Src/stm32f7xx_hal_spdifrx.c **** /* Private define ------------------------------------------------------------*/
 138:Drivers/STM32F7xx_HAL_Driver/Src/stm32f7xx_hal_spdifrx.c **** #define SPDIFRX_TIMEOUT_VALUE  0xFFFF
 139:Drivers/STM32F7xx_HAL_Driver/Src/stm32f7xx_hal_spdifrx.c **** 
 140:Drivers/STM32F7xx_HAL_Driver/Src/stm32f7xx_hal_spdifrx.c **** /* Private macro -------------------------------------------------------------*/
 141:Drivers/STM32F7xx_HAL_Driver/Src/stm32f7xx_hal_spdifrx.c **** /* Private variables ---------------------------------------------------------*/
 142:Drivers/STM32F7xx_HAL_Driver/Src/stm32f7xx_hal_spdifrx.c **** /* Private function prototypes -----------------------------------------------*/
 143:Drivers/STM32F7xx_HAL_Driver/Src/stm32f7xx_hal_spdifrx.c **** /** @addtogroup SPDIFRX_Private_Functions
 144:Drivers/STM32F7xx_HAL_Driver/Src/stm32f7xx_hal_spdifrx.c ****   * @{
 145:Drivers/STM32F7xx_HAL_Driver/Src/stm32f7xx_hal_spdifrx.c ****   */
 146:Drivers/STM32F7xx_HAL_Driver/Src/stm32f7xx_hal_spdifrx.c **** static void  SPDIFRX_DMARxCplt(DMA_HandleTypeDef *hdma);
ARM GAS  C:\Users\Patryk\AppData\Local\Temp\ccutd4KM.s 			page 4


 147:Drivers/STM32F7xx_HAL_Driver/Src/stm32f7xx_hal_spdifrx.c **** static void  SPDIFRX_DMARxHalfCplt(DMA_HandleTypeDef *hdma);
 148:Drivers/STM32F7xx_HAL_Driver/Src/stm32f7xx_hal_spdifrx.c **** static void  SPDIFRX_DMACxCplt(DMA_HandleTypeDef *hdma);
 149:Drivers/STM32F7xx_HAL_Driver/Src/stm32f7xx_hal_spdifrx.c **** static void  SPDIFRX_DMACxHalfCplt(DMA_HandleTypeDef *hdma);
 150:Drivers/STM32F7xx_HAL_Driver/Src/stm32f7xx_hal_spdifrx.c **** static void  SPDIFRX_DMAError(DMA_HandleTypeDef *hdma);
 151:Drivers/STM32F7xx_HAL_Driver/Src/stm32f7xx_hal_spdifrx.c **** static void  SPDIFRX_ReceiveControlFlow_IT(SPDIFRX_HandleTypeDef *hspdif);
 152:Drivers/STM32F7xx_HAL_Driver/Src/stm32f7xx_hal_spdifrx.c **** static void  SPDIFRX_ReceiveDataFlow_IT(SPDIFRX_HandleTypeDef *hspdif);
 153:Drivers/STM32F7xx_HAL_Driver/Src/stm32f7xx_hal_spdifrx.c **** static HAL_StatusTypeDef  SPDIFRX_WaitOnFlagUntilTimeout(SPDIFRX_HandleTypeDef *hspdif, uint32_t Fl
 154:Drivers/STM32F7xx_HAL_Driver/Src/stm32f7xx_hal_spdifrx.c **** /**
 155:Drivers/STM32F7xx_HAL_Driver/Src/stm32f7xx_hal_spdifrx.c ****   * @}
 156:Drivers/STM32F7xx_HAL_Driver/Src/stm32f7xx_hal_spdifrx.c ****   */
 157:Drivers/STM32F7xx_HAL_Driver/Src/stm32f7xx_hal_spdifrx.c **** /* Exported functions ---------------------------------------------------------*/
 158:Drivers/STM32F7xx_HAL_Driver/Src/stm32f7xx_hal_spdifrx.c **** 
 159:Drivers/STM32F7xx_HAL_Driver/Src/stm32f7xx_hal_spdifrx.c **** /** @defgroup SPDIFRX_Exported_Functions SPDIFRX Exported Functions
 160:Drivers/STM32F7xx_HAL_Driver/Src/stm32f7xx_hal_spdifrx.c ****   * @{
 161:Drivers/STM32F7xx_HAL_Driver/Src/stm32f7xx_hal_spdifrx.c ****   */
 162:Drivers/STM32F7xx_HAL_Driver/Src/stm32f7xx_hal_spdifrx.c **** 
 163:Drivers/STM32F7xx_HAL_Driver/Src/stm32f7xx_hal_spdifrx.c **** /** @defgroup  SPDIFRX_Exported_Functions_Group1 Initialization and de-initialization functions 
 164:Drivers/STM32F7xx_HAL_Driver/Src/stm32f7xx_hal_spdifrx.c ****   *  @brief    Initialization and Configuration functions 
 165:Drivers/STM32F7xx_HAL_Driver/Src/stm32f7xx_hal_spdifrx.c ****   *
 166:Drivers/STM32F7xx_HAL_Driver/Src/stm32f7xx_hal_spdifrx.c ****   @verbatim    
 167:Drivers/STM32F7xx_HAL_Driver/Src/stm32f7xx_hal_spdifrx.c ****   ===============================================================================
 168:Drivers/STM32F7xx_HAL_Driver/Src/stm32f7xx_hal_spdifrx.c ****   ##### Initialization and de-initialization functions #####
 169:Drivers/STM32F7xx_HAL_Driver/Src/stm32f7xx_hal_spdifrx.c ****   ===============================================================================
 170:Drivers/STM32F7xx_HAL_Driver/Src/stm32f7xx_hal_spdifrx.c ****   [..]  This subsection provides a set of functions allowing to initialize and 
 171:Drivers/STM32F7xx_HAL_Driver/Src/stm32f7xx_hal_spdifrx.c ****   de-initialize the SPDIFRX peripheral:
 172:Drivers/STM32F7xx_HAL_Driver/Src/stm32f7xx_hal_spdifrx.c ****   
 173:Drivers/STM32F7xx_HAL_Driver/Src/stm32f7xx_hal_spdifrx.c ****   (+) User must Implement HAL_SPDIFRX_MspInit() function in which he configures 
 174:Drivers/STM32F7xx_HAL_Driver/Src/stm32f7xx_hal_spdifrx.c ****   all related peripherals resources (CLOCK, GPIO, DMA, IT and NVIC ).
 175:Drivers/STM32F7xx_HAL_Driver/Src/stm32f7xx_hal_spdifrx.c ****   
 176:Drivers/STM32F7xx_HAL_Driver/Src/stm32f7xx_hal_spdifrx.c ****   (+) Call the function HAL_SPDIFRX_Init() to configure the SPDIFRX peripheral with 
 177:Drivers/STM32F7xx_HAL_Driver/Src/stm32f7xx_hal_spdifrx.c ****   the selected configuration:
 178:Drivers/STM32F7xx_HAL_Driver/Src/stm32f7xx_hal_spdifrx.c ****   (++) Input Selection (IN0, IN1,...)
 179:Drivers/STM32F7xx_HAL_Driver/Src/stm32f7xx_hal_spdifrx.c ****   (++) Maximum allowed re-tries during synchronization phase
 180:Drivers/STM32F7xx_HAL_Driver/Src/stm32f7xx_hal_spdifrx.c ****   (++) Wait for activity on SPDIF selected input
 181:Drivers/STM32F7xx_HAL_Driver/Src/stm32f7xx_hal_spdifrx.c ****   (++) Channel status selection (from channel A or B)
 182:Drivers/STM32F7xx_HAL_Driver/Src/stm32f7xx_hal_spdifrx.c ****   (++) Data format (LSB, MSB, ...)
 183:Drivers/STM32F7xx_HAL_Driver/Src/stm32f7xx_hal_spdifrx.c ****   (++) Stereo mode
 184:Drivers/STM32F7xx_HAL_Driver/Src/stm32f7xx_hal_spdifrx.c ****   (++) User bits masking (PT,C,U,V,...)
 185:Drivers/STM32F7xx_HAL_Driver/Src/stm32f7xx_hal_spdifrx.c ****   
 186:Drivers/STM32F7xx_HAL_Driver/Src/stm32f7xx_hal_spdifrx.c ****   (+) Call the function HAL_SPDIFRX_DeInit() to restore the default configuration 
 187:Drivers/STM32F7xx_HAL_Driver/Src/stm32f7xx_hal_spdifrx.c ****   of the selected SPDIFRXx peripheral. 
 188:Drivers/STM32F7xx_HAL_Driver/Src/stm32f7xx_hal_spdifrx.c ****   @endverbatim
 189:Drivers/STM32F7xx_HAL_Driver/Src/stm32f7xx_hal_spdifrx.c ****   * @{
 190:Drivers/STM32F7xx_HAL_Driver/Src/stm32f7xx_hal_spdifrx.c ****   */
 191:Drivers/STM32F7xx_HAL_Driver/Src/stm32f7xx_hal_spdifrx.c **** 
 192:Drivers/STM32F7xx_HAL_Driver/Src/stm32f7xx_hal_spdifrx.c **** /**
 193:Drivers/STM32F7xx_HAL_Driver/Src/stm32f7xx_hal_spdifrx.c ****   * @brief Initializes the SPDIFRX according to the specified parameters 
 194:Drivers/STM32F7xx_HAL_Driver/Src/stm32f7xx_hal_spdifrx.c ****   *        in the SPDIFRX_InitTypeDef and create the associated handle.
 195:Drivers/STM32F7xx_HAL_Driver/Src/stm32f7xx_hal_spdifrx.c ****   * @param hspdif SPDIFRX handle
 196:Drivers/STM32F7xx_HAL_Driver/Src/stm32f7xx_hal_spdifrx.c ****   * @retval HAL status
 197:Drivers/STM32F7xx_HAL_Driver/Src/stm32f7xx_hal_spdifrx.c ****   */
 198:Drivers/STM32F7xx_HAL_Driver/Src/stm32f7xx_hal_spdifrx.c **** HAL_StatusTypeDef HAL_SPDIFRX_Init(SPDIFRX_HandleTypeDef *hspdif)
 199:Drivers/STM32F7xx_HAL_Driver/Src/stm32f7xx_hal_spdifrx.c **** {
 200:Drivers/STM32F7xx_HAL_Driver/Src/stm32f7xx_hal_spdifrx.c ****   uint32_t tmpreg = 0;
 201:Drivers/STM32F7xx_HAL_Driver/Src/stm32f7xx_hal_spdifrx.c ****   
 202:Drivers/STM32F7xx_HAL_Driver/Src/stm32f7xx_hal_spdifrx.c ****   /* Check the SPDIFRX handle allocation */
 203:Drivers/STM32F7xx_HAL_Driver/Src/stm32f7xx_hal_spdifrx.c ****   if(hspdif == NULL)
ARM GAS  C:\Users\Patryk\AppData\Local\Temp\ccutd4KM.s 			page 5


 204:Drivers/STM32F7xx_HAL_Driver/Src/stm32f7xx_hal_spdifrx.c ****   {
 205:Drivers/STM32F7xx_HAL_Driver/Src/stm32f7xx_hal_spdifrx.c ****     return HAL_ERROR;
 206:Drivers/STM32F7xx_HAL_Driver/Src/stm32f7xx_hal_spdifrx.c ****   }
 207:Drivers/STM32F7xx_HAL_Driver/Src/stm32f7xx_hal_spdifrx.c ****   
 208:Drivers/STM32F7xx_HAL_Driver/Src/stm32f7xx_hal_spdifrx.c ****   /* Check the SPDIFRX parameters */
 209:Drivers/STM32F7xx_HAL_Driver/Src/stm32f7xx_hal_spdifrx.c ****   assert_param(IS_STEREO_MODE(hspdif->Init.StereoMode));
 210:Drivers/STM32F7xx_HAL_Driver/Src/stm32f7xx_hal_spdifrx.c ****   assert_param(IS_SPDIFRX_INPUT_SELECT(hspdif->Init.InputSelection));
 211:Drivers/STM32F7xx_HAL_Driver/Src/stm32f7xx_hal_spdifrx.c ****   assert_param(IS_SPDIFRX_MAX_RETRIES(hspdif->Init.Retries));
 212:Drivers/STM32F7xx_HAL_Driver/Src/stm32f7xx_hal_spdifrx.c ****   assert_param(IS_SPDIFRX_WAIT_FOR_ACTIVITY(hspdif->Init.WaitForActivity));
 213:Drivers/STM32F7xx_HAL_Driver/Src/stm32f7xx_hal_spdifrx.c ****   assert_param(IS_SPDIFRX_CHANNEL(hspdif->Init.ChannelSelection));
 214:Drivers/STM32F7xx_HAL_Driver/Src/stm32f7xx_hal_spdifrx.c ****   assert_param(IS_SPDIFRX_DATA_FORMAT(hspdif->Init.DataFormat));
 215:Drivers/STM32F7xx_HAL_Driver/Src/stm32f7xx_hal_spdifrx.c ****   assert_param(IS_PREAMBLE_TYPE_MASK(hspdif->Init.PreambleTypeMask));
 216:Drivers/STM32F7xx_HAL_Driver/Src/stm32f7xx_hal_spdifrx.c ****   assert_param(IS_CHANNEL_STATUS_MASK(hspdif->Init.ChannelStatusMask));
 217:Drivers/STM32F7xx_HAL_Driver/Src/stm32f7xx_hal_spdifrx.c ****   assert_param(IS_VALIDITY_MASK(hspdif->Init.ValidityBitMask));
 218:Drivers/STM32F7xx_HAL_Driver/Src/stm32f7xx_hal_spdifrx.c ****   assert_param(IS_PARITY_ERROR_MASK(hspdif->Init.ParityErrorMask));
 219:Drivers/STM32F7xx_HAL_Driver/Src/stm32f7xx_hal_spdifrx.c ****   
 220:Drivers/STM32F7xx_HAL_Driver/Src/stm32f7xx_hal_spdifrx.c ****   if(hspdif->State == HAL_SPDIFRX_STATE_RESET)
 221:Drivers/STM32F7xx_HAL_Driver/Src/stm32f7xx_hal_spdifrx.c ****   {
 222:Drivers/STM32F7xx_HAL_Driver/Src/stm32f7xx_hal_spdifrx.c ****     /* Allocate lock resource and initialize it */
 223:Drivers/STM32F7xx_HAL_Driver/Src/stm32f7xx_hal_spdifrx.c ****     hspdif->Lock = HAL_UNLOCKED;
 224:Drivers/STM32F7xx_HAL_Driver/Src/stm32f7xx_hal_spdifrx.c ****     /* Init the low level hardware : GPIO, CLOCK, CORTEX...etc */
 225:Drivers/STM32F7xx_HAL_Driver/Src/stm32f7xx_hal_spdifrx.c ****     HAL_SPDIFRX_MspInit(hspdif);
 226:Drivers/STM32F7xx_HAL_Driver/Src/stm32f7xx_hal_spdifrx.c ****   }
 227:Drivers/STM32F7xx_HAL_Driver/Src/stm32f7xx_hal_spdifrx.c ****   
 228:Drivers/STM32F7xx_HAL_Driver/Src/stm32f7xx_hal_spdifrx.c ****   /* SPDIFRX peripheral state is BUSY*/
 229:Drivers/STM32F7xx_HAL_Driver/Src/stm32f7xx_hal_spdifrx.c ****   hspdif->State = HAL_SPDIFRX_STATE_BUSY;  
 230:Drivers/STM32F7xx_HAL_Driver/Src/stm32f7xx_hal_spdifrx.c ****   
 231:Drivers/STM32F7xx_HAL_Driver/Src/stm32f7xx_hal_spdifrx.c ****   /* Disable SPDIFRX interface (IDLE State) */
 232:Drivers/STM32F7xx_HAL_Driver/Src/stm32f7xx_hal_spdifrx.c ****   __HAL_SPDIFRX_IDLE(hspdif);
 233:Drivers/STM32F7xx_HAL_Driver/Src/stm32f7xx_hal_spdifrx.c ****   
 234:Drivers/STM32F7xx_HAL_Driver/Src/stm32f7xx_hal_spdifrx.c ****   /* Reset the old SPDIFRX CR configuration */
 235:Drivers/STM32F7xx_HAL_Driver/Src/stm32f7xx_hal_spdifrx.c ****   tmpreg = hspdif->Instance->CR;
 236:Drivers/STM32F7xx_HAL_Driver/Src/stm32f7xx_hal_spdifrx.c ****   
 237:Drivers/STM32F7xx_HAL_Driver/Src/stm32f7xx_hal_spdifrx.c ****   tmpreg &= ~((uint16_t) SPDIFRX_CR_RXSTEO  | SPDIFRX_CR_DRFMT  | SPDIFRX_CR_PMSK |
 238:Drivers/STM32F7xx_HAL_Driver/Src/stm32f7xx_hal_spdifrx.c ****               SPDIFRX_CR_VMSK | SPDIFRX_CR_CUMSK | SPDIFRX_CR_PTMSK  |
 239:Drivers/STM32F7xx_HAL_Driver/Src/stm32f7xx_hal_spdifrx.c ****               SPDIFRX_CR_CHSEL | SPDIFRX_CR_NBTR | SPDIFRX_CR_WFA | SPDIFRX_CR_INSEL); 
 240:Drivers/STM32F7xx_HAL_Driver/Src/stm32f7xx_hal_spdifrx.c ****   
 241:Drivers/STM32F7xx_HAL_Driver/Src/stm32f7xx_hal_spdifrx.c ****   /* Sets the new configuration of the SPDIFRX peripheral */
 242:Drivers/STM32F7xx_HAL_Driver/Src/stm32f7xx_hal_spdifrx.c ****   tmpreg |= ((uint16_t) hspdif->Init.StereoMode |
 243:Drivers/STM32F7xx_HAL_Driver/Src/stm32f7xx_hal_spdifrx.c ****              hspdif->Init.InputSelection |
 244:Drivers/STM32F7xx_HAL_Driver/Src/stm32f7xx_hal_spdifrx.c ****              hspdif->Init.Retries |
 245:Drivers/STM32F7xx_HAL_Driver/Src/stm32f7xx_hal_spdifrx.c ****              hspdif->Init.WaitForActivity |
 246:Drivers/STM32F7xx_HAL_Driver/Src/stm32f7xx_hal_spdifrx.c ****              hspdif->Init.ChannelSelection |
 247:Drivers/STM32F7xx_HAL_Driver/Src/stm32f7xx_hal_spdifrx.c ****              hspdif->Init.DataFormat |
 248:Drivers/STM32F7xx_HAL_Driver/Src/stm32f7xx_hal_spdifrx.c ****              hspdif->Init.PreambleTypeMask |
 249:Drivers/STM32F7xx_HAL_Driver/Src/stm32f7xx_hal_spdifrx.c ****              hspdif->Init.ChannelStatusMask |
 250:Drivers/STM32F7xx_HAL_Driver/Src/stm32f7xx_hal_spdifrx.c ****              hspdif->Init.ValidityBitMask |
 251:Drivers/STM32F7xx_HAL_Driver/Src/stm32f7xx_hal_spdifrx.c ****              hspdif->Init.ParityErrorMask);
 252:Drivers/STM32F7xx_HAL_Driver/Src/stm32f7xx_hal_spdifrx.c ****   
 253:Drivers/STM32F7xx_HAL_Driver/Src/stm32f7xx_hal_spdifrx.c ****   hspdif->Instance->CR = tmpreg;  
 254:Drivers/STM32F7xx_HAL_Driver/Src/stm32f7xx_hal_spdifrx.c ****   
 255:Drivers/STM32F7xx_HAL_Driver/Src/stm32f7xx_hal_spdifrx.c ****   hspdif->ErrorCode = HAL_SPDIFRX_ERROR_NONE;
 256:Drivers/STM32F7xx_HAL_Driver/Src/stm32f7xx_hal_spdifrx.c ****   
 257:Drivers/STM32F7xx_HAL_Driver/Src/stm32f7xx_hal_spdifrx.c ****   /* SPDIFRX peripheral state is READY*/
 258:Drivers/STM32F7xx_HAL_Driver/Src/stm32f7xx_hal_spdifrx.c ****   hspdif->State = HAL_SPDIFRX_STATE_READY;
 259:Drivers/STM32F7xx_HAL_Driver/Src/stm32f7xx_hal_spdifrx.c ****   
 260:Drivers/STM32F7xx_HAL_Driver/Src/stm32f7xx_hal_spdifrx.c ****   return HAL_OK;
ARM GAS  C:\Users\Patryk\AppData\Local\Temp\ccutd4KM.s 			page 6


 261:Drivers/STM32F7xx_HAL_Driver/Src/stm32f7xx_hal_spdifrx.c **** }
 262:Drivers/STM32F7xx_HAL_Driver/Src/stm32f7xx_hal_spdifrx.c **** 
 263:Drivers/STM32F7xx_HAL_Driver/Src/stm32f7xx_hal_spdifrx.c **** /**
 264:Drivers/STM32F7xx_HAL_Driver/Src/stm32f7xx_hal_spdifrx.c ****   * @brief DeInitializes the SPDIFRX peripheral 
 265:Drivers/STM32F7xx_HAL_Driver/Src/stm32f7xx_hal_spdifrx.c ****   * @param hspdif SPDIFRX handle
 266:Drivers/STM32F7xx_HAL_Driver/Src/stm32f7xx_hal_spdifrx.c ****   * @retval HAL status
 267:Drivers/STM32F7xx_HAL_Driver/Src/stm32f7xx_hal_spdifrx.c ****   */
 268:Drivers/STM32F7xx_HAL_Driver/Src/stm32f7xx_hal_spdifrx.c **** HAL_StatusTypeDef HAL_SPDIFRX_DeInit(SPDIFRX_HandleTypeDef *hspdif)
 269:Drivers/STM32F7xx_HAL_Driver/Src/stm32f7xx_hal_spdifrx.c **** {
 270:Drivers/STM32F7xx_HAL_Driver/Src/stm32f7xx_hal_spdifrx.c ****   /* Check the SPDIFRX handle allocation */
 271:Drivers/STM32F7xx_HAL_Driver/Src/stm32f7xx_hal_spdifrx.c ****   if(hspdif == NULL)
 272:Drivers/STM32F7xx_HAL_Driver/Src/stm32f7xx_hal_spdifrx.c ****   {
 273:Drivers/STM32F7xx_HAL_Driver/Src/stm32f7xx_hal_spdifrx.c ****     return HAL_ERROR;
 274:Drivers/STM32F7xx_HAL_Driver/Src/stm32f7xx_hal_spdifrx.c ****   }
 275:Drivers/STM32F7xx_HAL_Driver/Src/stm32f7xx_hal_spdifrx.c ****   
 276:Drivers/STM32F7xx_HAL_Driver/Src/stm32f7xx_hal_spdifrx.c ****   /* Check the parameters */
 277:Drivers/STM32F7xx_HAL_Driver/Src/stm32f7xx_hal_spdifrx.c ****   assert_param(IS_SPDIFRX_ALL_INSTANCE(hspdif->Instance));
 278:Drivers/STM32F7xx_HAL_Driver/Src/stm32f7xx_hal_spdifrx.c ****   
 279:Drivers/STM32F7xx_HAL_Driver/Src/stm32f7xx_hal_spdifrx.c ****   hspdif->State = HAL_SPDIFRX_STATE_BUSY;
 280:Drivers/STM32F7xx_HAL_Driver/Src/stm32f7xx_hal_spdifrx.c ****   
 281:Drivers/STM32F7xx_HAL_Driver/Src/stm32f7xx_hal_spdifrx.c ****   /* Disable SPDIFRX interface (IDLE state) */
 282:Drivers/STM32F7xx_HAL_Driver/Src/stm32f7xx_hal_spdifrx.c ****   __HAL_SPDIFRX_IDLE(hspdif);
 283:Drivers/STM32F7xx_HAL_Driver/Src/stm32f7xx_hal_spdifrx.c ****   
 284:Drivers/STM32F7xx_HAL_Driver/Src/stm32f7xx_hal_spdifrx.c ****   /* DeInit the low level hardware: GPIO, CLOCK, NVIC... */
 285:Drivers/STM32F7xx_HAL_Driver/Src/stm32f7xx_hal_spdifrx.c ****   HAL_SPDIFRX_MspDeInit(hspdif);
 286:Drivers/STM32F7xx_HAL_Driver/Src/stm32f7xx_hal_spdifrx.c ****   
 287:Drivers/STM32F7xx_HAL_Driver/Src/stm32f7xx_hal_spdifrx.c ****   hspdif->ErrorCode = HAL_SPDIFRX_ERROR_NONE;
 288:Drivers/STM32F7xx_HAL_Driver/Src/stm32f7xx_hal_spdifrx.c ****   
 289:Drivers/STM32F7xx_HAL_Driver/Src/stm32f7xx_hal_spdifrx.c ****   /* SPDIFRX peripheral state is RESET*/
 290:Drivers/STM32F7xx_HAL_Driver/Src/stm32f7xx_hal_spdifrx.c ****   hspdif->State = HAL_SPDIFRX_STATE_RESET;
 291:Drivers/STM32F7xx_HAL_Driver/Src/stm32f7xx_hal_spdifrx.c ****   
 292:Drivers/STM32F7xx_HAL_Driver/Src/stm32f7xx_hal_spdifrx.c ****   /* Release Lock */
 293:Drivers/STM32F7xx_HAL_Driver/Src/stm32f7xx_hal_spdifrx.c ****   __HAL_UNLOCK(hspdif);
 294:Drivers/STM32F7xx_HAL_Driver/Src/stm32f7xx_hal_spdifrx.c ****   
 295:Drivers/STM32F7xx_HAL_Driver/Src/stm32f7xx_hal_spdifrx.c ****   return HAL_OK;
 296:Drivers/STM32F7xx_HAL_Driver/Src/stm32f7xx_hal_spdifrx.c **** }
 297:Drivers/STM32F7xx_HAL_Driver/Src/stm32f7xx_hal_spdifrx.c **** 
 298:Drivers/STM32F7xx_HAL_Driver/Src/stm32f7xx_hal_spdifrx.c **** /**
 299:Drivers/STM32F7xx_HAL_Driver/Src/stm32f7xx_hal_spdifrx.c ****   * @brief SPDIFRX MSP Init
 300:Drivers/STM32F7xx_HAL_Driver/Src/stm32f7xx_hal_spdifrx.c ****   * @param hspdif SPDIFRX handle
 301:Drivers/STM32F7xx_HAL_Driver/Src/stm32f7xx_hal_spdifrx.c ****   * @retval None
 302:Drivers/STM32F7xx_HAL_Driver/Src/stm32f7xx_hal_spdifrx.c ****   */
 303:Drivers/STM32F7xx_HAL_Driver/Src/stm32f7xx_hal_spdifrx.c **** __weak void HAL_SPDIFRX_MspInit(SPDIFRX_HandleTypeDef *hspdif)
 304:Drivers/STM32F7xx_HAL_Driver/Src/stm32f7xx_hal_spdifrx.c **** {
 305:Drivers/STM32F7xx_HAL_Driver/Src/stm32f7xx_hal_spdifrx.c ****   /* Prevent unused argument(s) compilation warning */
 306:Drivers/STM32F7xx_HAL_Driver/Src/stm32f7xx_hal_spdifrx.c ****   UNUSED(hspdif);
 307:Drivers/STM32F7xx_HAL_Driver/Src/stm32f7xx_hal_spdifrx.c ****   
 308:Drivers/STM32F7xx_HAL_Driver/Src/stm32f7xx_hal_spdifrx.c ****   /* NOTE : This function Should not be modified, when the callback is needed,
 309:Drivers/STM32F7xx_HAL_Driver/Src/stm32f7xx_hal_spdifrx.c ****   the HAL_SPDIFRX_MspInit could be implemented in the user file
 310:Drivers/STM32F7xx_HAL_Driver/Src/stm32f7xx_hal_spdifrx.c ****   */ 
 311:Drivers/STM32F7xx_HAL_Driver/Src/stm32f7xx_hal_spdifrx.c **** }
 312:Drivers/STM32F7xx_HAL_Driver/Src/stm32f7xx_hal_spdifrx.c **** 
 313:Drivers/STM32F7xx_HAL_Driver/Src/stm32f7xx_hal_spdifrx.c **** /**
 314:Drivers/STM32F7xx_HAL_Driver/Src/stm32f7xx_hal_spdifrx.c ****   * @brief SPDIFRX MSP DeInit
 315:Drivers/STM32F7xx_HAL_Driver/Src/stm32f7xx_hal_spdifrx.c ****   * @param hspdif SPDIFRX handle
 316:Drivers/STM32F7xx_HAL_Driver/Src/stm32f7xx_hal_spdifrx.c ****   * @retval None
 317:Drivers/STM32F7xx_HAL_Driver/Src/stm32f7xx_hal_spdifrx.c ****   */
ARM GAS  C:\Users\Patryk\AppData\Local\Temp\ccutd4KM.s 			page 7


 318:Drivers/STM32F7xx_HAL_Driver/Src/stm32f7xx_hal_spdifrx.c **** __weak void HAL_SPDIFRX_MspDeInit(SPDIFRX_HandleTypeDef *hspdif)
 319:Drivers/STM32F7xx_HAL_Driver/Src/stm32f7xx_hal_spdifrx.c **** {
 320:Drivers/STM32F7xx_HAL_Driver/Src/stm32f7xx_hal_spdifrx.c ****   /* Prevent unused argument(s) compilation warning */
 321:Drivers/STM32F7xx_HAL_Driver/Src/stm32f7xx_hal_spdifrx.c ****   UNUSED(hspdif);
 322:Drivers/STM32F7xx_HAL_Driver/Src/stm32f7xx_hal_spdifrx.c ****   
 323:Drivers/STM32F7xx_HAL_Driver/Src/stm32f7xx_hal_spdifrx.c ****   /* NOTE : This function Should not be modified, when the callback is needed,
 324:Drivers/STM32F7xx_HAL_Driver/Src/stm32f7xx_hal_spdifrx.c ****   the HAL_SPDIFRX_MspDeInit could be implemented in the user file
 325:Drivers/STM32F7xx_HAL_Driver/Src/stm32f7xx_hal_spdifrx.c ****   */ 
 326:Drivers/STM32F7xx_HAL_Driver/Src/stm32f7xx_hal_spdifrx.c **** }
 327:Drivers/STM32F7xx_HAL_Driver/Src/stm32f7xx_hal_spdifrx.c **** 
 328:Drivers/STM32F7xx_HAL_Driver/Src/stm32f7xx_hal_spdifrx.c **** /**
 329:Drivers/STM32F7xx_HAL_Driver/Src/stm32f7xx_hal_spdifrx.c ****   * @brief Sets the SPDIFRX  dtat format according to the specified parameters 
 330:Drivers/STM32F7xx_HAL_Driver/Src/stm32f7xx_hal_spdifrx.c ****   *        in the SPDIFRX_InitTypeDef.
 331:Drivers/STM32F7xx_HAL_Driver/Src/stm32f7xx_hal_spdifrx.c ****   * @param hspdif SPDIFRX handle
 332:Drivers/STM32F7xx_HAL_Driver/Src/stm32f7xx_hal_spdifrx.c ****   * @param sDataFormat SPDIFRX data format
 333:Drivers/STM32F7xx_HAL_Driver/Src/stm32f7xx_hal_spdifrx.c ****   * @retval HAL status
 334:Drivers/STM32F7xx_HAL_Driver/Src/stm32f7xx_hal_spdifrx.c ****   */
 335:Drivers/STM32F7xx_HAL_Driver/Src/stm32f7xx_hal_spdifrx.c **** HAL_StatusTypeDef HAL_SPDIFRX_SetDataFormat(SPDIFRX_HandleTypeDef *hspdif, SPDIFRX_SetDataFormatTyp
 336:Drivers/STM32F7xx_HAL_Driver/Src/stm32f7xx_hal_spdifrx.c **** {
 337:Drivers/STM32F7xx_HAL_Driver/Src/stm32f7xx_hal_spdifrx.c ****   uint32_t tmpreg = 0;
 338:Drivers/STM32F7xx_HAL_Driver/Src/stm32f7xx_hal_spdifrx.c ****   
 339:Drivers/STM32F7xx_HAL_Driver/Src/stm32f7xx_hal_spdifrx.c ****   /* Check the SPDIFRX handle allocation */
 340:Drivers/STM32F7xx_HAL_Driver/Src/stm32f7xx_hal_spdifrx.c ****   if(hspdif == NULL)
 341:Drivers/STM32F7xx_HAL_Driver/Src/stm32f7xx_hal_spdifrx.c ****   {
 342:Drivers/STM32F7xx_HAL_Driver/Src/stm32f7xx_hal_spdifrx.c ****     return HAL_ERROR;
 343:Drivers/STM32F7xx_HAL_Driver/Src/stm32f7xx_hal_spdifrx.c ****   }
 344:Drivers/STM32F7xx_HAL_Driver/Src/stm32f7xx_hal_spdifrx.c ****   
 345:Drivers/STM32F7xx_HAL_Driver/Src/stm32f7xx_hal_spdifrx.c ****   /* Check the SPDIFRX parameters */
 346:Drivers/STM32F7xx_HAL_Driver/Src/stm32f7xx_hal_spdifrx.c ****   assert_param(IS_STEREO_MODE(sDataFormat.StereoMode));
 347:Drivers/STM32F7xx_HAL_Driver/Src/stm32f7xx_hal_spdifrx.c ****   assert_param(IS_SPDIFRX_DATA_FORMAT(sDataFormat.DataFormat));
 348:Drivers/STM32F7xx_HAL_Driver/Src/stm32f7xx_hal_spdifrx.c ****   assert_param(IS_PREAMBLE_TYPE_MASK(sDataFormat.PreambleTypeMask));
 349:Drivers/STM32F7xx_HAL_Driver/Src/stm32f7xx_hal_spdifrx.c ****   assert_param(IS_CHANNEL_STATUS_MASK(sDataFormat.ChannelStatusMask));
 350:Drivers/STM32F7xx_HAL_Driver/Src/stm32f7xx_hal_spdifrx.c ****   assert_param(IS_VALIDITY_MASK(sDataFormat.ValidityBitMask));
 351:Drivers/STM32F7xx_HAL_Driver/Src/stm32f7xx_hal_spdifrx.c ****   assert_param(IS_PARITY_ERROR_MASK(sDataFormat.ParityErrorMask));
 352:Drivers/STM32F7xx_HAL_Driver/Src/stm32f7xx_hal_spdifrx.c ****   
 353:Drivers/STM32F7xx_HAL_Driver/Src/stm32f7xx_hal_spdifrx.c ****   /* Reset the old SPDIFRX CR configuration */
 354:Drivers/STM32F7xx_HAL_Driver/Src/stm32f7xx_hal_spdifrx.c ****   tmpreg = hspdif->Instance->CR;
 355:Drivers/STM32F7xx_HAL_Driver/Src/stm32f7xx_hal_spdifrx.c ****   
 356:Drivers/STM32F7xx_HAL_Driver/Src/stm32f7xx_hal_spdifrx.c ****   if(((tmpreg & SPDIFRX_STATE_RCV) == SPDIFRX_STATE_RCV) &&
 357:Drivers/STM32F7xx_HAL_Driver/Src/stm32f7xx_hal_spdifrx.c ****      (((tmpreg & SPDIFRX_CR_DRFMT) != sDataFormat.DataFormat) ||
 358:Drivers/STM32F7xx_HAL_Driver/Src/stm32f7xx_hal_spdifrx.c ****       ((tmpreg & SPDIFRX_CR_RXSTEO) != sDataFormat.StereoMode)))  
 359:Drivers/STM32F7xx_HAL_Driver/Src/stm32f7xx_hal_spdifrx.c ****   {
 360:Drivers/STM32F7xx_HAL_Driver/Src/stm32f7xx_hal_spdifrx.c ****     return HAL_ERROR;    
 361:Drivers/STM32F7xx_HAL_Driver/Src/stm32f7xx_hal_spdifrx.c ****   }  
 362:Drivers/STM32F7xx_HAL_Driver/Src/stm32f7xx_hal_spdifrx.c ****   
 363:Drivers/STM32F7xx_HAL_Driver/Src/stm32f7xx_hal_spdifrx.c ****   tmpreg &= ~((uint16_t) SPDIFRX_CR_RXSTEO  | SPDIFRX_CR_DRFMT  | SPDIFRX_CR_PMSK |
 364:Drivers/STM32F7xx_HAL_Driver/Src/stm32f7xx_hal_spdifrx.c ****               SPDIFRX_CR_VMSK | SPDIFRX_CR_CUMSK | SPDIFRX_CR_PTMSK);   
 365:Drivers/STM32F7xx_HAL_Driver/Src/stm32f7xx_hal_spdifrx.c ****   
 366:Drivers/STM32F7xx_HAL_Driver/Src/stm32f7xx_hal_spdifrx.c ****   /* Sets the new configuration of the SPDIFRX peripheral */
 367:Drivers/STM32F7xx_HAL_Driver/Src/stm32f7xx_hal_spdifrx.c ****   tmpreg |= ((uint16_t) sDataFormat.StereoMode |
 368:Drivers/STM32F7xx_HAL_Driver/Src/stm32f7xx_hal_spdifrx.c ****              sDataFormat.DataFormat |
 369:Drivers/STM32F7xx_HAL_Driver/Src/stm32f7xx_hal_spdifrx.c ****              sDataFormat.PreambleTypeMask |
 370:Drivers/STM32F7xx_HAL_Driver/Src/stm32f7xx_hal_spdifrx.c ****              sDataFormat.ChannelStatusMask |
 371:Drivers/STM32F7xx_HAL_Driver/Src/stm32f7xx_hal_spdifrx.c ****              sDataFormat.ValidityBitMask |
 372:Drivers/STM32F7xx_HAL_Driver/Src/stm32f7xx_hal_spdifrx.c ****              sDataFormat.ParityErrorMask);
 373:Drivers/STM32F7xx_HAL_Driver/Src/stm32f7xx_hal_spdifrx.c ****   
 374:Drivers/STM32F7xx_HAL_Driver/Src/stm32f7xx_hal_spdifrx.c ****   hspdif->Instance->CR = tmpreg;  
ARM GAS  C:\Users\Patryk\AppData\Local\Temp\ccutd4KM.s 			page 8


 375:Drivers/STM32F7xx_HAL_Driver/Src/stm32f7xx_hal_spdifrx.c ****   
 376:Drivers/STM32F7xx_HAL_Driver/Src/stm32f7xx_hal_spdifrx.c ****   return HAL_OK;
 377:Drivers/STM32F7xx_HAL_Driver/Src/stm32f7xx_hal_spdifrx.c **** }
 378:Drivers/STM32F7xx_HAL_Driver/Src/stm32f7xx_hal_spdifrx.c **** 
 379:Drivers/STM32F7xx_HAL_Driver/Src/stm32f7xx_hal_spdifrx.c **** /**
 380:Drivers/STM32F7xx_HAL_Driver/Src/stm32f7xx_hal_spdifrx.c ****   * @}
 381:Drivers/STM32F7xx_HAL_Driver/Src/stm32f7xx_hal_spdifrx.c ****   */
 382:Drivers/STM32F7xx_HAL_Driver/Src/stm32f7xx_hal_spdifrx.c **** 
 383:Drivers/STM32F7xx_HAL_Driver/Src/stm32f7xx_hal_spdifrx.c **** /** @defgroup SPDIFRX_Exported_Functions_Group2 IO operation functions 
 384:Drivers/STM32F7xx_HAL_Driver/Src/stm32f7xx_hal_spdifrx.c ****   *  @brief Data transfers functions 
 385:Drivers/STM32F7xx_HAL_Driver/Src/stm32f7xx_hal_spdifrx.c ****   *
 386:Drivers/STM32F7xx_HAL_Driver/Src/stm32f7xx_hal_spdifrx.c **** @verbatim   
 387:Drivers/STM32F7xx_HAL_Driver/Src/stm32f7xx_hal_spdifrx.c **** ===============================================================================
 388:Drivers/STM32F7xx_HAL_Driver/Src/stm32f7xx_hal_spdifrx.c ****                      ##### IO operation functions #####
 389:Drivers/STM32F7xx_HAL_Driver/Src/stm32f7xx_hal_spdifrx.c **** ===============================================================================  
 390:Drivers/STM32F7xx_HAL_Driver/Src/stm32f7xx_hal_spdifrx.c ****     [..]
 391:Drivers/STM32F7xx_HAL_Driver/Src/stm32f7xx_hal_spdifrx.c ****     This subsection provides a set of functions allowing to manage the SPDIFRX data 
 392:Drivers/STM32F7xx_HAL_Driver/Src/stm32f7xx_hal_spdifrx.c ****     transfers.
 393:Drivers/STM32F7xx_HAL_Driver/Src/stm32f7xx_hal_spdifrx.c **** 
 394:Drivers/STM32F7xx_HAL_Driver/Src/stm32f7xx_hal_spdifrx.c ****     (#) There is two mode of transfer:
 395:Drivers/STM32F7xx_HAL_Driver/Src/stm32f7xx_hal_spdifrx.c ****         (++) Blocking mode : The communication is performed in the polling mode. 
 396:Drivers/STM32F7xx_HAL_Driver/Src/stm32f7xx_hal_spdifrx.c ****              The status of all data processing is returned by the same function 
 397:Drivers/STM32F7xx_HAL_Driver/Src/stm32f7xx_hal_spdifrx.c ****              after finishing transfer.  
 398:Drivers/STM32F7xx_HAL_Driver/Src/stm32f7xx_hal_spdifrx.c ****         (++) No-Blocking mode : The communication is performed using Interrupts 
 399:Drivers/STM32F7xx_HAL_Driver/Src/stm32f7xx_hal_spdifrx.c ****              or DMA. These functions return the status of the transfer start-up.
 400:Drivers/STM32F7xx_HAL_Driver/Src/stm32f7xx_hal_spdifrx.c ****              The end of the data processing will be indicated through the 
 401:Drivers/STM32F7xx_HAL_Driver/Src/stm32f7xx_hal_spdifrx.c ****              dedicated SPDIFRX IRQ when using Interrupt mode or the DMA IRQ when 
 402:Drivers/STM32F7xx_HAL_Driver/Src/stm32f7xx_hal_spdifrx.c ****              using DMA mode.
 403:Drivers/STM32F7xx_HAL_Driver/Src/stm32f7xx_hal_spdifrx.c **** 
 404:Drivers/STM32F7xx_HAL_Driver/Src/stm32f7xx_hal_spdifrx.c ****     (#) Blocking mode functions are :
 405:Drivers/STM32F7xx_HAL_Driver/Src/stm32f7xx_hal_spdifrx.c ****         (++) HAL_SPDIFRX_ReceiveDataFlow()
 406:Drivers/STM32F7xx_HAL_Driver/Src/stm32f7xx_hal_spdifrx.c ****         (++) HAL_SPDIFRX_ReceiveControlFlow()
 407:Drivers/STM32F7xx_HAL_Driver/Src/stm32f7xx_hal_spdifrx.c ****                 (+@) Do not use blocking mode to receive both control and data flow at the same tim
 408:Drivers/STM32F7xx_HAL_Driver/Src/stm32f7xx_hal_spdifrx.c **** 
 409:Drivers/STM32F7xx_HAL_Driver/Src/stm32f7xx_hal_spdifrx.c ****     (#) No-Blocking mode functions with Interrupt are :
 410:Drivers/STM32F7xx_HAL_Driver/Src/stm32f7xx_hal_spdifrx.c ****         (++) HAL_SPDIFRX_ReceiveControlFlow_IT()
 411:Drivers/STM32F7xx_HAL_Driver/Src/stm32f7xx_hal_spdifrx.c ****         (++) HAL_SPDIFRX_ReceiveDataFlow_IT()
 412:Drivers/STM32F7xx_HAL_Driver/Src/stm32f7xx_hal_spdifrx.c **** 
 413:Drivers/STM32F7xx_HAL_Driver/Src/stm32f7xx_hal_spdifrx.c ****     (#) No-Blocking mode functions with DMA are :
 414:Drivers/STM32F7xx_HAL_Driver/Src/stm32f7xx_hal_spdifrx.c ****         (++) HAL_SPDIFRX_ReceiveControlFlow_DMA()
 415:Drivers/STM32F7xx_HAL_Driver/Src/stm32f7xx_hal_spdifrx.c ****         (++) HAL_SPDIFRX_ReceiveDataFlow_DMA()
 416:Drivers/STM32F7xx_HAL_Driver/Src/stm32f7xx_hal_spdifrx.c **** 
 417:Drivers/STM32F7xx_HAL_Driver/Src/stm32f7xx_hal_spdifrx.c ****     (#) A set of Transfer Complete Callbacks are provided in No_Blocking mode:
 418:Drivers/STM32F7xx_HAL_Driver/Src/stm32f7xx_hal_spdifrx.c ****         (++) HAL_SPDIFRX_RxCpltCallback()
 419:Drivers/STM32F7xx_HAL_Driver/Src/stm32f7xx_hal_spdifrx.c ****         (++) HAL_SPDIFRX_ErrorCallback()
 420:Drivers/STM32F7xx_HAL_Driver/Src/stm32f7xx_hal_spdifrx.c **** 
 421:Drivers/STM32F7xx_HAL_Driver/Src/stm32f7xx_hal_spdifrx.c **** @endverbatim
 422:Drivers/STM32F7xx_HAL_Driver/Src/stm32f7xx_hal_spdifrx.c **** * @{
 423:Drivers/STM32F7xx_HAL_Driver/Src/stm32f7xx_hal_spdifrx.c **** */
 424:Drivers/STM32F7xx_HAL_Driver/Src/stm32f7xx_hal_spdifrx.c **** 
 425:Drivers/STM32F7xx_HAL_Driver/Src/stm32f7xx_hal_spdifrx.c **** 
 426:Drivers/STM32F7xx_HAL_Driver/Src/stm32f7xx_hal_spdifrx.c **** /**
 427:Drivers/STM32F7xx_HAL_Driver/Src/stm32f7xx_hal_spdifrx.c ****   * @brief  Receives an amount of data (Data Flow) in blocking mode. 
 428:Drivers/STM32F7xx_HAL_Driver/Src/stm32f7xx_hal_spdifrx.c ****   * @param  hspdif pointer to SPDIFRX_HandleTypeDef structure that contains
 429:Drivers/STM32F7xx_HAL_Driver/Src/stm32f7xx_hal_spdifrx.c ****   *                 the configuration information for SPDIFRX module.
 430:Drivers/STM32F7xx_HAL_Driver/Src/stm32f7xx_hal_spdifrx.c ****   * @param  pData Pointer to data buffer
 431:Drivers/STM32F7xx_HAL_Driver/Src/stm32f7xx_hal_spdifrx.c ****   * @param  Size Amount of data to be received
ARM GAS  C:\Users\Patryk\AppData\Local\Temp\ccutd4KM.s 			page 9


 432:Drivers/STM32F7xx_HAL_Driver/Src/stm32f7xx_hal_spdifrx.c ****   * @param  Timeout Timeout duration
 433:Drivers/STM32F7xx_HAL_Driver/Src/stm32f7xx_hal_spdifrx.c ****   * @retval HAL status
 434:Drivers/STM32F7xx_HAL_Driver/Src/stm32f7xx_hal_spdifrx.c ****   */
 435:Drivers/STM32F7xx_HAL_Driver/Src/stm32f7xx_hal_spdifrx.c **** HAL_StatusTypeDef HAL_SPDIFRX_ReceiveDataFlow(SPDIFRX_HandleTypeDef *hspdif, uint32_t *pData, uint1
 436:Drivers/STM32F7xx_HAL_Driver/Src/stm32f7xx_hal_spdifrx.c **** {
 437:Drivers/STM32F7xx_HAL_Driver/Src/stm32f7xx_hal_spdifrx.c ****   uint32_t tickstart = 0U;
 438:Drivers/STM32F7xx_HAL_Driver/Src/stm32f7xx_hal_spdifrx.c ****   
 439:Drivers/STM32F7xx_HAL_Driver/Src/stm32f7xx_hal_spdifrx.c ****   if((pData == NULL ) || (Size == 0U)) 
 440:Drivers/STM32F7xx_HAL_Driver/Src/stm32f7xx_hal_spdifrx.c ****   {
 441:Drivers/STM32F7xx_HAL_Driver/Src/stm32f7xx_hal_spdifrx.c ****     return  HAL_ERROR;
 442:Drivers/STM32F7xx_HAL_Driver/Src/stm32f7xx_hal_spdifrx.c ****   }
 443:Drivers/STM32F7xx_HAL_Driver/Src/stm32f7xx_hal_spdifrx.c ****   
 444:Drivers/STM32F7xx_HAL_Driver/Src/stm32f7xx_hal_spdifrx.c ****   if(hspdif->State == HAL_SPDIFRX_STATE_READY)
 445:Drivers/STM32F7xx_HAL_Driver/Src/stm32f7xx_hal_spdifrx.c ****   { 
 446:Drivers/STM32F7xx_HAL_Driver/Src/stm32f7xx_hal_spdifrx.c ****     /* Process Locked */
 447:Drivers/STM32F7xx_HAL_Driver/Src/stm32f7xx_hal_spdifrx.c ****     __HAL_LOCK(hspdif);
 448:Drivers/STM32F7xx_HAL_Driver/Src/stm32f7xx_hal_spdifrx.c ****     
 449:Drivers/STM32F7xx_HAL_Driver/Src/stm32f7xx_hal_spdifrx.c ****     hspdif->State = HAL_SPDIFRX_STATE_BUSY;
 450:Drivers/STM32F7xx_HAL_Driver/Src/stm32f7xx_hal_spdifrx.c ****     
 451:Drivers/STM32F7xx_HAL_Driver/Src/stm32f7xx_hal_spdifrx.c ****     /* Start synchronisation */
 452:Drivers/STM32F7xx_HAL_Driver/Src/stm32f7xx_hal_spdifrx.c ****     __HAL_SPDIFRX_SYNC(hspdif);
 453:Drivers/STM32F7xx_HAL_Driver/Src/stm32f7xx_hal_spdifrx.c ****     
 454:Drivers/STM32F7xx_HAL_Driver/Src/stm32f7xx_hal_spdifrx.c ****     /* Get tick */ 
 455:Drivers/STM32F7xx_HAL_Driver/Src/stm32f7xx_hal_spdifrx.c ****     tickstart = HAL_GetTick();
 456:Drivers/STM32F7xx_HAL_Driver/Src/stm32f7xx_hal_spdifrx.c ****     
 457:Drivers/STM32F7xx_HAL_Driver/Src/stm32f7xx_hal_spdifrx.c ****     /* Wait until SYNCD flag is set */
 458:Drivers/STM32F7xx_HAL_Driver/Src/stm32f7xx_hal_spdifrx.c ****     if(SPDIFRX_WaitOnFlagUntilTimeout(hspdif, SPDIFRX_FLAG_SYNCD, RESET, Timeout, tickstart) != HAL
 459:Drivers/STM32F7xx_HAL_Driver/Src/stm32f7xx_hal_spdifrx.c ****     { 
 460:Drivers/STM32F7xx_HAL_Driver/Src/stm32f7xx_hal_spdifrx.c ****       return HAL_TIMEOUT;
 461:Drivers/STM32F7xx_HAL_Driver/Src/stm32f7xx_hal_spdifrx.c ****     }  
 462:Drivers/STM32F7xx_HAL_Driver/Src/stm32f7xx_hal_spdifrx.c ****     
 463:Drivers/STM32F7xx_HAL_Driver/Src/stm32f7xx_hal_spdifrx.c ****     /* Start reception */    
 464:Drivers/STM32F7xx_HAL_Driver/Src/stm32f7xx_hal_spdifrx.c ****     __HAL_SPDIFRX_RCV(hspdif);
 465:Drivers/STM32F7xx_HAL_Driver/Src/stm32f7xx_hal_spdifrx.c ****     
 466:Drivers/STM32F7xx_HAL_Driver/Src/stm32f7xx_hal_spdifrx.c ****     /* Receive data flow */
 467:Drivers/STM32F7xx_HAL_Driver/Src/stm32f7xx_hal_spdifrx.c ****     while(Size > 0U)
 468:Drivers/STM32F7xx_HAL_Driver/Src/stm32f7xx_hal_spdifrx.c ****     {     
 469:Drivers/STM32F7xx_HAL_Driver/Src/stm32f7xx_hal_spdifrx.c ****       /* Get tick */ 
 470:Drivers/STM32F7xx_HAL_Driver/Src/stm32f7xx_hal_spdifrx.c ****       tickstart = HAL_GetTick();
 471:Drivers/STM32F7xx_HAL_Driver/Src/stm32f7xx_hal_spdifrx.c ****       
 472:Drivers/STM32F7xx_HAL_Driver/Src/stm32f7xx_hal_spdifrx.c ****       /* Wait until RXNE flag is set */
 473:Drivers/STM32F7xx_HAL_Driver/Src/stm32f7xx_hal_spdifrx.c ****       if(SPDIFRX_WaitOnFlagUntilTimeout(hspdif, SPDIFRX_FLAG_RXNE, RESET, Timeout, tickstart) != HA
 474:Drivers/STM32F7xx_HAL_Driver/Src/stm32f7xx_hal_spdifrx.c ****       { 
 475:Drivers/STM32F7xx_HAL_Driver/Src/stm32f7xx_hal_spdifrx.c ****         return HAL_TIMEOUT;
 476:Drivers/STM32F7xx_HAL_Driver/Src/stm32f7xx_hal_spdifrx.c ****       }  
 477:Drivers/STM32F7xx_HAL_Driver/Src/stm32f7xx_hal_spdifrx.c ****       
 478:Drivers/STM32F7xx_HAL_Driver/Src/stm32f7xx_hal_spdifrx.c ****       (*pData++) = hspdif->Instance->DR;
 479:Drivers/STM32F7xx_HAL_Driver/Src/stm32f7xx_hal_spdifrx.c ****       Size--; 
 480:Drivers/STM32F7xx_HAL_Driver/Src/stm32f7xx_hal_spdifrx.c ****     }      
 481:Drivers/STM32F7xx_HAL_Driver/Src/stm32f7xx_hal_spdifrx.c ****     
 482:Drivers/STM32F7xx_HAL_Driver/Src/stm32f7xx_hal_spdifrx.c ****     /* SPDIFRX ready */
 483:Drivers/STM32F7xx_HAL_Driver/Src/stm32f7xx_hal_spdifrx.c ****     hspdif->State = HAL_SPDIFRX_STATE_READY;
 484:Drivers/STM32F7xx_HAL_Driver/Src/stm32f7xx_hal_spdifrx.c ****     
 485:Drivers/STM32F7xx_HAL_Driver/Src/stm32f7xx_hal_spdifrx.c ****     /* Process Unlocked */
 486:Drivers/STM32F7xx_HAL_Driver/Src/stm32f7xx_hal_spdifrx.c ****     __HAL_UNLOCK(hspdif);
 487:Drivers/STM32F7xx_HAL_Driver/Src/stm32f7xx_hal_spdifrx.c ****     
 488:Drivers/STM32F7xx_HAL_Driver/Src/stm32f7xx_hal_spdifrx.c ****     return HAL_OK;
ARM GAS  C:\Users\Patryk\AppData\Local\Temp\ccutd4KM.s 			page 10


 489:Drivers/STM32F7xx_HAL_Driver/Src/stm32f7xx_hal_spdifrx.c ****   }
 490:Drivers/STM32F7xx_HAL_Driver/Src/stm32f7xx_hal_spdifrx.c ****   else
 491:Drivers/STM32F7xx_HAL_Driver/Src/stm32f7xx_hal_spdifrx.c ****   {
 492:Drivers/STM32F7xx_HAL_Driver/Src/stm32f7xx_hal_spdifrx.c ****     return HAL_BUSY;
 493:Drivers/STM32F7xx_HAL_Driver/Src/stm32f7xx_hal_spdifrx.c ****   }
 494:Drivers/STM32F7xx_HAL_Driver/Src/stm32f7xx_hal_spdifrx.c **** }
 495:Drivers/STM32F7xx_HAL_Driver/Src/stm32f7xx_hal_spdifrx.c **** 
 496:Drivers/STM32F7xx_HAL_Driver/Src/stm32f7xx_hal_spdifrx.c **** /**
 497:Drivers/STM32F7xx_HAL_Driver/Src/stm32f7xx_hal_spdifrx.c ****   * @brief  Receives an amount of data (Control Flow) in blocking mode. 
 498:Drivers/STM32F7xx_HAL_Driver/Src/stm32f7xx_hal_spdifrx.c ****   * @param  hspdif pointer to a SPDIFRX_HandleTypeDef structure that contains
 499:Drivers/STM32F7xx_HAL_Driver/Src/stm32f7xx_hal_spdifrx.c ****   *                 the configuration information for SPDIFRX module.
 500:Drivers/STM32F7xx_HAL_Driver/Src/stm32f7xx_hal_spdifrx.c ****   * @param  pData Pointer to data buffer
 501:Drivers/STM32F7xx_HAL_Driver/Src/stm32f7xx_hal_spdifrx.c ****   * @param  Size Amount of data to be received
 502:Drivers/STM32F7xx_HAL_Driver/Src/stm32f7xx_hal_spdifrx.c ****   * @param  Timeout Timeout duration
 503:Drivers/STM32F7xx_HAL_Driver/Src/stm32f7xx_hal_spdifrx.c ****   * @retval HAL status
 504:Drivers/STM32F7xx_HAL_Driver/Src/stm32f7xx_hal_spdifrx.c ****   */
 505:Drivers/STM32F7xx_HAL_Driver/Src/stm32f7xx_hal_spdifrx.c **** HAL_StatusTypeDef HAL_SPDIFRX_ReceiveControlFlow(SPDIFRX_HandleTypeDef *hspdif, uint32_t *pData, ui
 506:Drivers/STM32F7xx_HAL_Driver/Src/stm32f7xx_hal_spdifrx.c **** {
 507:Drivers/STM32F7xx_HAL_Driver/Src/stm32f7xx_hal_spdifrx.c ****   uint32_t tickstart = 0U;
 508:Drivers/STM32F7xx_HAL_Driver/Src/stm32f7xx_hal_spdifrx.c ****   
 509:Drivers/STM32F7xx_HAL_Driver/Src/stm32f7xx_hal_spdifrx.c ****   if((pData == NULL ) || (Size == 0U)) 
 510:Drivers/STM32F7xx_HAL_Driver/Src/stm32f7xx_hal_spdifrx.c ****   {
 511:Drivers/STM32F7xx_HAL_Driver/Src/stm32f7xx_hal_spdifrx.c ****     return  HAL_ERROR;
 512:Drivers/STM32F7xx_HAL_Driver/Src/stm32f7xx_hal_spdifrx.c ****   }
 513:Drivers/STM32F7xx_HAL_Driver/Src/stm32f7xx_hal_spdifrx.c ****   
 514:Drivers/STM32F7xx_HAL_Driver/Src/stm32f7xx_hal_spdifrx.c ****   if(hspdif->State == HAL_SPDIFRX_STATE_READY)
 515:Drivers/STM32F7xx_HAL_Driver/Src/stm32f7xx_hal_spdifrx.c ****   { 
 516:Drivers/STM32F7xx_HAL_Driver/Src/stm32f7xx_hal_spdifrx.c ****     /* Process Locked */
 517:Drivers/STM32F7xx_HAL_Driver/Src/stm32f7xx_hal_spdifrx.c ****     __HAL_LOCK(hspdif);
 518:Drivers/STM32F7xx_HAL_Driver/Src/stm32f7xx_hal_spdifrx.c ****     
 519:Drivers/STM32F7xx_HAL_Driver/Src/stm32f7xx_hal_spdifrx.c ****     hspdif->State = HAL_SPDIFRX_STATE_BUSY;
 520:Drivers/STM32F7xx_HAL_Driver/Src/stm32f7xx_hal_spdifrx.c ****     
 521:Drivers/STM32F7xx_HAL_Driver/Src/stm32f7xx_hal_spdifrx.c ****     /* Start synchronization */
 522:Drivers/STM32F7xx_HAL_Driver/Src/stm32f7xx_hal_spdifrx.c ****     __HAL_SPDIFRX_SYNC(hspdif);
 523:Drivers/STM32F7xx_HAL_Driver/Src/stm32f7xx_hal_spdifrx.c ****     
 524:Drivers/STM32F7xx_HAL_Driver/Src/stm32f7xx_hal_spdifrx.c ****     /* Get tick */ 
 525:Drivers/STM32F7xx_HAL_Driver/Src/stm32f7xx_hal_spdifrx.c ****     tickstart = HAL_GetTick();
 526:Drivers/STM32F7xx_HAL_Driver/Src/stm32f7xx_hal_spdifrx.c ****     
 527:Drivers/STM32F7xx_HAL_Driver/Src/stm32f7xx_hal_spdifrx.c ****     /* Wait until SYNCD flag is set */
 528:Drivers/STM32F7xx_HAL_Driver/Src/stm32f7xx_hal_spdifrx.c ****     if(SPDIFRX_WaitOnFlagUntilTimeout(hspdif, SPDIFRX_FLAG_SYNCD, RESET, Timeout, tickstart) != HAL
 529:Drivers/STM32F7xx_HAL_Driver/Src/stm32f7xx_hal_spdifrx.c ****     { 
 530:Drivers/STM32F7xx_HAL_Driver/Src/stm32f7xx_hal_spdifrx.c ****       return HAL_TIMEOUT;
 531:Drivers/STM32F7xx_HAL_Driver/Src/stm32f7xx_hal_spdifrx.c ****     }  
 532:Drivers/STM32F7xx_HAL_Driver/Src/stm32f7xx_hal_spdifrx.c ****     
 533:Drivers/STM32F7xx_HAL_Driver/Src/stm32f7xx_hal_spdifrx.c ****     /* Start reception */    
 534:Drivers/STM32F7xx_HAL_Driver/Src/stm32f7xx_hal_spdifrx.c ****     __HAL_SPDIFRX_RCV(hspdif);
 535:Drivers/STM32F7xx_HAL_Driver/Src/stm32f7xx_hal_spdifrx.c ****     
 536:Drivers/STM32F7xx_HAL_Driver/Src/stm32f7xx_hal_spdifrx.c ****     /* Receive control flow */
 537:Drivers/STM32F7xx_HAL_Driver/Src/stm32f7xx_hal_spdifrx.c ****     while(Size > 0U)
 538:Drivers/STM32F7xx_HAL_Driver/Src/stm32f7xx_hal_spdifrx.c ****     {      
 539:Drivers/STM32F7xx_HAL_Driver/Src/stm32f7xx_hal_spdifrx.c ****       /* Get tick */ 
 540:Drivers/STM32F7xx_HAL_Driver/Src/stm32f7xx_hal_spdifrx.c ****       tickstart = HAL_GetTick();
 541:Drivers/STM32F7xx_HAL_Driver/Src/stm32f7xx_hal_spdifrx.c ****       
 542:Drivers/STM32F7xx_HAL_Driver/Src/stm32f7xx_hal_spdifrx.c ****       /* Wait until CSRNE flag is set */
 543:Drivers/STM32F7xx_HAL_Driver/Src/stm32f7xx_hal_spdifrx.c ****       if(SPDIFRX_WaitOnFlagUntilTimeout(hspdif, SPDIFRX_FLAG_CSRNE, RESET, Timeout, tickstart) != H
 544:Drivers/STM32F7xx_HAL_Driver/Src/stm32f7xx_hal_spdifrx.c ****       { 
 545:Drivers/STM32F7xx_HAL_Driver/Src/stm32f7xx_hal_spdifrx.c ****         return HAL_TIMEOUT;
ARM GAS  C:\Users\Patryk\AppData\Local\Temp\ccutd4KM.s 			page 11


 546:Drivers/STM32F7xx_HAL_Driver/Src/stm32f7xx_hal_spdifrx.c ****       }  
 547:Drivers/STM32F7xx_HAL_Driver/Src/stm32f7xx_hal_spdifrx.c ****       
 548:Drivers/STM32F7xx_HAL_Driver/Src/stm32f7xx_hal_spdifrx.c ****       (*pData++) = hspdif->Instance->CSR;
 549:Drivers/STM32F7xx_HAL_Driver/Src/stm32f7xx_hal_spdifrx.c ****       Size--; 
 550:Drivers/STM32F7xx_HAL_Driver/Src/stm32f7xx_hal_spdifrx.c ****     }      
 551:Drivers/STM32F7xx_HAL_Driver/Src/stm32f7xx_hal_spdifrx.c ****     
 552:Drivers/STM32F7xx_HAL_Driver/Src/stm32f7xx_hal_spdifrx.c ****     /* SPDIFRX ready */
 553:Drivers/STM32F7xx_HAL_Driver/Src/stm32f7xx_hal_spdifrx.c ****     hspdif->State = HAL_SPDIFRX_STATE_READY;
 554:Drivers/STM32F7xx_HAL_Driver/Src/stm32f7xx_hal_spdifrx.c ****     
 555:Drivers/STM32F7xx_HAL_Driver/Src/stm32f7xx_hal_spdifrx.c ****     /* Process Unlocked */
 556:Drivers/STM32F7xx_HAL_Driver/Src/stm32f7xx_hal_spdifrx.c ****     __HAL_UNLOCK(hspdif);
 557:Drivers/STM32F7xx_HAL_Driver/Src/stm32f7xx_hal_spdifrx.c ****     
 558:Drivers/STM32F7xx_HAL_Driver/Src/stm32f7xx_hal_spdifrx.c ****     return HAL_OK;
 559:Drivers/STM32F7xx_HAL_Driver/Src/stm32f7xx_hal_spdifrx.c ****   }
 560:Drivers/STM32F7xx_HAL_Driver/Src/stm32f7xx_hal_spdifrx.c ****   else
 561:Drivers/STM32F7xx_HAL_Driver/Src/stm32f7xx_hal_spdifrx.c ****   {
 562:Drivers/STM32F7xx_HAL_Driver/Src/stm32f7xx_hal_spdifrx.c ****     return HAL_BUSY;
 563:Drivers/STM32F7xx_HAL_Driver/Src/stm32f7xx_hal_spdifrx.c ****   }
 564:Drivers/STM32F7xx_HAL_Driver/Src/stm32f7xx_hal_spdifrx.c **** }
 565:Drivers/STM32F7xx_HAL_Driver/Src/stm32f7xx_hal_spdifrx.c **** 
 566:Drivers/STM32F7xx_HAL_Driver/Src/stm32f7xx_hal_spdifrx.c **** /**
 567:Drivers/STM32F7xx_HAL_Driver/Src/stm32f7xx_hal_spdifrx.c ****   * @brief Receive an amount of data (Data Flow) in non-blocking mode with Interrupt
 568:Drivers/STM32F7xx_HAL_Driver/Src/stm32f7xx_hal_spdifrx.c ****   * @param hspdif SPDIFRX handle
 569:Drivers/STM32F7xx_HAL_Driver/Src/stm32f7xx_hal_spdifrx.c ****   * @param pData a 32-bit pointer to the Receive data buffer.
 570:Drivers/STM32F7xx_HAL_Driver/Src/stm32f7xx_hal_spdifrx.c ****   * @param Size number of data sample to be received .
 571:Drivers/STM32F7xx_HAL_Driver/Src/stm32f7xx_hal_spdifrx.c ****   * @retval HAL status
 572:Drivers/STM32F7xx_HAL_Driver/Src/stm32f7xx_hal_spdifrx.c ****   */
 573:Drivers/STM32F7xx_HAL_Driver/Src/stm32f7xx_hal_spdifrx.c **** HAL_StatusTypeDef HAL_SPDIFRX_ReceiveDataFlow_IT(SPDIFRX_HandleTypeDef *hspdif, uint32_t *pData, ui
 574:Drivers/STM32F7xx_HAL_Driver/Src/stm32f7xx_hal_spdifrx.c **** {
 575:Drivers/STM32F7xx_HAL_Driver/Src/stm32f7xx_hal_spdifrx.c ****   uint32_t tickstart = 0U;
 576:Drivers/STM32F7xx_HAL_Driver/Src/stm32f7xx_hal_spdifrx.c ****   
 577:Drivers/STM32F7xx_HAL_Driver/Src/stm32f7xx_hal_spdifrx.c ****   if((hspdif->State == HAL_SPDIFRX_STATE_READY) || (hspdif->State == HAL_SPDIFRX_STATE_BUSY_CX))
 578:Drivers/STM32F7xx_HAL_Driver/Src/stm32f7xx_hal_spdifrx.c ****   {
 579:Drivers/STM32F7xx_HAL_Driver/Src/stm32f7xx_hal_spdifrx.c ****     if((pData == NULL) || (Size == 0U)) 
 580:Drivers/STM32F7xx_HAL_Driver/Src/stm32f7xx_hal_spdifrx.c ****     {
 581:Drivers/STM32F7xx_HAL_Driver/Src/stm32f7xx_hal_spdifrx.c ****       return HAL_ERROR;
 582:Drivers/STM32F7xx_HAL_Driver/Src/stm32f7xx_hal_spdifrx.c ****     }
 583:Drivers/STM32F7xx_HAL_Driver/Src/stm32f7xx_hal_spdifrx.c ****     
 584:Drivers/STM32F7xx_HAL_Driver/Src/stm32f7xx_hal_spdifrx.c ****     /* Process Locked */
 585:Drivers/STM32F7xx_HAL_Driver/Src/stm32f7xx_hal_spdifrx.c ****     __HAL_LOCK(hspdif);
 586:Drivers/STM32F7xx_HAL_Driver/Src/stm32f7xx_hal_spdifrx.c ****     
 587:Drivers/STM32F7xx_HAL_Driver/Src/stm32f7xx_hal_spdifrx.c ****     hspdif->pRxBuffPtr = pData;
 588:Drivers/STM32F7xx_HAL_Driver/Src/stm32f7xx_hal_spdifrx.c ****     hspdif->RxXferSize = Size;
 589:Drivers/STM32F7xx_HAL_Driver/Src/stm32f7xx_hal_spdifrx.c ****     hspdif->RxXferCount = Size;
 590:Drivers/STM32F7xx_HAL_Driver/Src/stm32f7xx_hal_spdifrx.c ****     
 591:Drivers/STM32F7xx_HAL_Driver/Src/stm32f7xx_hal_spdifrx.c ****     hspdif->ErrorCode = HAL_SPDIFRX_ERROR_NONE;
 592:Drivers/STM32F7xx_HAL_Driver/Src/stm32f7xx_hal_spdifrx.c ****     
 593:Drivers/STM32F7xx_HAL_Driver/Src/stm32f7xx_hal_spdifrx.c ****     /* Check if a receive process is ongoing or not */
 594:Drivers/STM32F7xx_HAL_Driver/Src/stm32f7xx_hal_spdifrx.c ****     hspdif->State = HAL_SPDIFRX_STATE_BUSY_RX;
 595:Drivers/STM32F7xx_HAL_Driver/Src/stm32f7xx_hal_spdifrx.c ****     
 596:Drivers/STM32F7xx_HAL_Driver/Src/stm32f7xx_hal_spdifrx.c ****     
 597:Drivers/STM32F7xx_HAL_Driver/Src/stm32f7xx_hal_spdifrx.c ****     /* Enable the SPDIFRX  PE Error Interrupt */
 598:Drivers/STM32F7xx_HAL_Driver/Src/stm32f7xx_hal_spdifrx.c ****     __HAL_SPDIFRX_ENABLE_IT(hspdif, SPDIFRX_IT_PERRIE);
 599:Drivers/STM32F7xx_HAL_Driver/Src/stm32f7xx_hal_spdifrx.c ****     
 600:Drivers/STM32F7xx_HAL_Driver/Src/stm32f7xx_hal_spdifrx.c ****     /* Enable the SPDIFRX  OVR Error Interrupt */
 601:Drivers/STM32F7xx_HAL_Driver/Src/stm32f7xx_hal_spdifrx.c ****     __HAL_SPDIFRX_ENABLE_IT(hspdif, SPDIFRX_IT_OVRIE);
 602:Drivers/STM32F7xx_HAL_Driver/Src/stm32f7xx_hal_spdifrx.c ****     
ARM GAS  C:\Users\Patryk\AppData\Local\Temp\ccutd4KM.s 			page 12


 603:Drivers/STM32F7xx_HAL_Driver/Src/stm32f7xx_hal_spdifrx.c ****     /* Process Unlocked */
 604:Drivers/STM32F7xx_HAL_Driver/Src/stm32f7xx_hal_spdifrx.c ****     __HAL_UNLOCK(hspdif);
 605:Drivers/STM32F7xx_HAL_Driver/Src/stm32f7xx_hal_spdifrx.c ****     
 606:Drivers/STM32F7xx_HAL_Driver/Src/stm32f7xx_hal_spdifrx.c ****     /* Enable the SPDIFRX RXNE interrupt */
 607:Drivers/STM32F7xx_HAL_Driver/Src/stm32f7xx_hal_spdifrx.c ****     __HAL_SPDIFRX_ENABLE_IT(hspdif, SPDIFRX_IT_RXNE);
 608:Drivers/STM32F7xx_HAL_Driver/Src/stm32f7xx_hal_spdifrx.c ****     
 609:Drivers/STM32F7xx_HAL_Driver/Src/stm32f7xx_hal_spdifrx.c ****     if (((SPDIFRX->CR & SPDIFRX_CR_SPDIFEN) != SPDIFRX_STATE_SYNC) || ((SPDIFRX->CR & SPDIFRX_CR_SP
 610:Drivers/STM32F7xx_HAL_Driver/Src/stm32f7xx_hal_spdifrx.c ****     {
 611:Drivers/STM32F7xx_HAL_Driver/Src/stm32f7xx_hal_spdifrx.c ****       /* Start synchronization */
 612:Drivers/STM32F7xx_HAL_Driver/Src/stm32f7xx_hal_spdifrx.c ****       __HAL_SPDIFRX_SYNC(hspdif);
 613:Drivers/STM32F7xx_HAL_Driver/Src/stm32f7xx_hal_spdifrx.c ****       
 614:Drivers/STM32F7xx_HAL_Driver/Src/stm32f7xx_hal_spdifrx.c ****       /* Get tick */ 
 615:Drivers/STM32F7xx_HAL_Driver/Src/stm32f7xx_hal_spdifrx.c ****       tickstart = HAL_GetTick();
 616:Drivers/STM32F7xx_HAL_Driver/Src/stm32f7xx_hal_spdifrx.c ****       
 617:Drivers/STM32F7xx_HAL_Driver/Src/stm32f7xx_hal_spdifrx.c ****       /* Wait until SYNCD flag is set */
 618:Drivers/STM32F7xx_HAL_Driver/Src/stm32f7xx_hal_spdifrx.c ****       if(SPDIFRX_WaitOnFlagUntilTimeout(hspdif, SPDIFRX_FLAG_SYNCD, RESET, SPDIFRX_TIMEOUT_VALUE, t
 619:Drivers/STM32F7xx_HAL_Driver/Src/stm32f7xx_hal_spdifrx.c ****       { 
 620:Drivers/STM32F7xx_HAL_Driver/Src/stm32f7xx_hal_spdifrx.c ****         return HAL_TIMEOUT;
 621:Drivers/STM32F7xx_HAL_Driver/Src/stm32f7xx_hal_spdifrx.c ****       }  
 622:Drivers/STM32F7xx_HAL_Driver/Src/stm32f7xx_hal_spdifrx.c ****       
 623:Drivers/STM32F7xx_HAL_Driver/Src/stm32f7xx_hal_spdifrx.c ****       /* Start reception */    
 624:Drivers/STM32F7xx_HAL_Driver/Src/stm32f7xx_hal_spdifrx.c ****       __HAL_SPDIFRX_RCV(hspdif);
 625:Drivers/STM32F7xx_HAL_Driver/Src/stm32f7xx_hal_spdifrx.c ****     }
 626:Drivers/STM32F7xx_HAL_Driver/Src/stm32f7xx_hal_spdifrx.c ****     
 627:Drivers/STM32F7xx_HAL_Driver/Src/stm32f7xx_hal_spdifrx.c ****     return HAL_OK;
 628:Drivers/STM32F7xx_HAL_Driver/Src/stm32f7xx_hal_spdifrx.c ****   }
 629:Drivers/STM32F7xx_HAL_Driver/Src/stm32f7xx_hal_spdifrx.c ****   else
 630:Drivers/STM32F7xx_HAL_Driver/Src/stm32f7xx_hal_spdifrx.c ****   {
 631:Drivers/STM32F7xx_HAL_Driver/Src/stm32f7xx_hal_spdifrx.c ****     return HAL_BUSY; 
 632:Drivers/STM32F7xx_HAL_Driver/Src/stm32f7xx_hal_spdifrx.c ****   }
 633:Drivers/STM32F7xx_HAL_Driver/Src/stm32f7xx_hal_spdifrx.c **** }
 634:Drivers/STM32F7xx_HAL_Driver/Src/stm32f7xx_hal_spdifrx.c **** 
 635:Drivers/STM32F7xx_HAL_Driver/Src/stm32f7xx_hal_spdifrx.c **** /**
 636:Drivers/STM32F7xx_HAL_Driver/Src/stm32f7xx_hal_spdifrx.c ****   * @brief Receive an amount of data (Control Flow) with Interrupt
 637:Drivers/STM32F7xx_HAL_Driver/Src/stm32f7xx_hal_spdifrx.c ****   * @param hspdif SPDIFRX handle
 638:Drivers/STM32F7xx_HAL_Driver/Src/stm32f7xx_hal_spdifrx.c ****   * @param pData a 32-bit pointer to the Receive data buffer.
 639:Drivers/STM32F7xx_HAL_Driver/Src/stm32f7xx_hal_spdifrx.c ****   * @param Size number of data sample (Control Flow) to be received :
 640:Drivers/STM32F7xx_HAL_Driver/Src/stm32f7xx_hal_spdifrx.c ****   * @retval HAL status
 641:Drivers/STM32F7xx_HAL_Driver/Src/stm32f7xx_hal_spdifrx.c ****   */
 642:Drivers/STM32F7xx_HAL_Driver/Src/stm32f7xx_hal_spdifrx.c **** HAL_StatusTypeDef HAL_SPDIFRX_ReceiveControlFlow_IT(SPDIFRX_HandleTypeDef *hspdif, uint32_t *pData,
 643:Drivers/STM32F7xx_HAL_Driver/Src/stm32f7xx_hal_spdifrx.c **** {
 644:Drivers/STM32F7xx_HAL_Driver/Src/stm32f7xx_hal_spdifrx.c ****   uint32_t tickstart = 0U;
 645:Drivers/STM32F7xx_HAL_Driver/Src/stm32f7xx_hal_spdifrx.c ****   
 646:Drivers/STM32F7xx_HAL_Driver/Src/stm32f7xx_hal_spdifrx.c ****   if((hspdif->State == HAL_SPDIFRX_STATE_READY) || (hspdif->State == HAL_SPDIFRX_STATE_BUSY_RX))
 647:Drivers/STM32F7xx_HAL_Driver/Src/stm32f7xx_hal_spdifrx.c ****   {
 648:Drivers/STM32F7xx_HAL_Driver/Src/stm32f7xx_hal_spdifrx.c ****     if((pData == NULL ) || (Size == 0U)) 
 649:Drivers/STM32F7xx_HAL_Driver/Src/stm32f7xx_hal_spdifrx.c ****     {
 650:Drivers/STM32F7xx_HAL_Driver/Src/stm32f7xx_hal_spdifrx.c ****       return HAL_ERROR;
 651:Drivers/STM32F7xx_HAL_Driver/Src/stm32f7xx_hal_spdifrx.c ****     }
 652:Drivers/STM32F7xx_HAL_Driver/Src/stm32f7xx_hal_spdifrx.c ****     
 653:Drivers/STM32F7xx_HAL_Driver/Src/stm32f7xx_hal_spdifrx.c ****     /* Process Locked */
 654:Drivers/STM32F7xx_HAL_Driver/Src/stm32f7xx_hal_spdifrx.c ****     __HAL_LOCK(hspdif);
 655:Drivers/STM32F7xx_HAL_Driver/Src/stm32f7xx_hal_spdifrx.c ****     
 656:Drivers/STM32F7xx_HAL_Driver/Src/stm32f7xx_hal_spdifrx.c ****     hspdif->pCsBuffPtr = pData;
 657:Drivers/STM32F7xx_HAL_Driver/Src/stm32f7xx_hal_spdifrx.c ****     hspdif->CsXferSize = Size;
 658:Drivers/STM32F7xx_HAL_Driver/Src/stm32f7xx_hal_spdifrx.c ****     hspdif->CsXferCount = Size;
 659:Drivers/STM32F7xx_HAL_Driver/Src/stm32f7xx_hal_spdifrx.c ****     
ARM GAS  C:\Users\Patryk\AppData\Local\Temp\ccutd4KM.s 			page 13


 660:Drivers/STM32F7xx_HAL_Driver/Src/stm32f7xx_hal_spdifrx.c ****     hspdif->ErrorCode = HAL_SPDIFRX_ERROR_NONE;
 661:Drivers/STM32F7xx_HAL_Driver/Src/stm32f7xx_hal_spdifrx.c ****     
 662:Drivers/STM32F7xx_HAL_Driver/Src/stm32f7xx_hal_spdifrx.c ****     /* Check if a receive process is ongoing or not */
 663:Drivers/STM32F7xx_HAL_Driver/Src/stm32f7xx_hal_spdifrx.c ****     hspdif->State = HAL_SPDIFRX_STATE_BUSY_CX;
 664:Drivers/STM32F7xx_HAL_Driver/Src/stm32f7xx_hal_spdifrx.c ****     
 665:Drivers/STM32F7xx_HAL_Driver/Src/stm32f7xx_hal_spdifrx.c ****     
 666:Drivers/STM32F7xx_HAL_Driver/Src/stm32f7xx_hal_spdifrx.c ****     /* Enable the SPDIFRX PE Error Interrupt */
 667:Drivers/STM32F7xx_HAL_Driver/Src/stm32f7xx_hal_spdifrx.c ****     __HAL_SPDIFRX_ENABLE_IT(hspdif, SPDIFRX_IT_PERRIE);
 668:Drivers/STM32F7xx_HAL_Driver/Src/stm32f7xx_hal_spdifrx.c ****     
 669:Drivers/STM32F7xx_HAL_Driver/Src/stm32f7xx_hal_spdifrx.c ****     /* Enable the SPDIFRX OVR Error Interrupt */
 670:Drivers/STM32F7xx_HAL_Driver/Src/stm32f7xx_hal_spdifrx.c ****     __HAL_SPDIFRX_ENABLE_IT(hspdif, SPDIFRX_IT_OVRIE);
 671:Drivers/STM32F7xx_HAL_Driver/Src/stm32f7xx_hal_spdifrx.c ****     
 672:Drivers/STM32F7xx_HAL_Driver/Src/stm32f7xx_hal_spdifrx.c ****     /* Process Unlocked */
 673:Drivers/STM32F7xx_HAL_Driver/Src/stm32f7xx_hal_spdifrx.c ****     __HAL_UNLOCK(hspdif);
 674:Drivers/STM32F7xx_HAL_Driver/Src/stm32f7xx_hal_spdifrx.c ****     
 675:Drivers/STM32F7xx_HAL_Driver/Src/stm32f7xx_hal_spdifrx.c ****     /* Enable the SPDIFRX CSRNE interrupt */
 676:Drivers/STM32F7xx_HAL_Driver/Src/stm32f7xx_hal_spdifrx.c ****     __HAL_SPDIFRX_ENABLE_IT(hspdif, SPDIFRX_IT_CSRNE);
 677:Drivers/STM32F7xx_HAL_Driver/Src/stm32f7xx_hal_spdifrx.c ****     
 678:Drivers/STM32F7xx_HAL_Driver/Src/stm32f7xx_hal_spdifrx.c ****     if (((SPDIFRX->CR & SPDIFRX_CR_SPDIFEN) != SPDIFRX_STATE_SYNC) || ((SPDIFRX->CR & SPDIFRX_CR_SP
 679:Drivers/STM32F7xx_HAL_Driver/Src/stm32f7xx_hal_spdifrx.c ****     {
 680:Drivers/STM32F7xx_HAL_Driver/Src/stm32f7xx_hal_spdifrx.c ****       /* Start synchronization */
 681:Drivers/STM32F7xx_HAL_Driver/Src/stm32f7xx_hal_spdifrx.c ****       __HAL_SPDIFRX_SYNC(hspdif);
 682:Drivers/STM32F7xx_HAL_Driver/Src/stm32f7xx_hal_spdifrx.c ****       
 683:Drivers/STM32F7xx_HAL_Driver/Src/stm32f7xx_hal_spdifrx.c ****       /* Get tick */ 
 684:Drivers/STM32F7xx_HAL_Driver/Src/stm32f7xx_hal_spdifrx.c ****       tickstart = HAL_GetTick();
 685:Drivers/STM32F7xx_HAL_Driver/Src/stm32f7xx_hal_spdifrx.c ****       
 686:Drivers/STM32F7xx_HAL_Driver/Src/stm32f7xx_hal_spdifrx.c ****       /* Wait until SYNCD flag is set */
 687:Drivers/STM32F7xx_HAL_Driver/Src/stm32f7xx_hal_spdifrx.c ****       if(SPDIFRX_WaitOnFlagUntilTimeout(hspdif, SPDIFRX_FLAG_SYNCD, RESET, SPDIFRX_TIMEOUT_VALUE, t
 688:Drivers/STM32F7xx_HAL_Driver/Src/stm32f7xx_hal_spdifrx.c ****       { 
 689:Drivers/STM32F7xx_HAL_Driver/Src/stm32f7xx_hal_spdifrx.c ****         return HAL_TIMEOUT;
 690:Drivers/STM32F7xx_HAL_Driver/Src/stm32f7xx_hal_spdifrx.c ****       }  
 691:Drivers/STM32F7xx_HAL_Driver/Src/stm32f7xx_hal_spdifrx.c ****       
 692:Drivers/STM32F7xx_HAL_Driver/Src/stm32f7xx_hal_spdifrx.c ****       /* Start reception */    
 693:Drivers/STM32F7xx_HAL_Driver/Src/stm32f7xx_hal_spdifrx.c ****       __HAL_SPDIFRX_RCV(hspdif);
 694:Drivers/STM32F7xx_HAL_Driver/Src/stm32f7xx_hal_spdifrx.c ****     }
 695:Drivers/STM32F7xx_HAL_Driver/Src/stm32f7xx_hal_spdifrx.c ****     
 696:Drivers/STM32F7xx_HAL_Driver/Src/stm32f7xx_hal_spdifrx.c ****     return HAL_OK;
 697:Drivers/STM32F7xx_HAL_Driver/Src/stm32f7xx_hal_spdifrx.c ****   }
 698:Drivers/STM32F7xx_HAL_Driver/Src/stm32f7xx_hal_spdifrx.c ****   else
 699:Drivers/STM32F7xx_HAL_Driver/Src/stm32f7xx_hal_spdifrx.c ****   {
 700:Drivers/STM32F7xx_HAL_Driver/Src/stm32f7xx_hal_spdifrx.c ****     return HAL_BUSY; 
 701:Drivers/STM32F7xx_HAL_Driver/Src/stm32f7xx_hal_spdifrx.c ****   }
 702:Drivers/STM32F7xx_HAL_Driver/Src/stm32f7xx_hal_spdifrx.c **** }
 703:Drivers/STM32F7xx_HAL_Driver/Src/stm32f7xx_hal_spdifrx.c **** 
 704:Drivers/STM32F7xx_HAL_Driver/Src/stm32f7xx_hal_spdifrx.c **** /**
 705:Drivers/STM32F7xx_HAL_Driver/Src/stm32f7xx_hal_spdifrx.c ****   * @brief Receive an amount of data (Data Flow) mode with DMA 
 706:Drivers/STM32F7xx_HAL_Driver/Src/stm32f7xx_hal_spdifrx.c ****   * @param hspdif SPDIFRX handle
 707:Drivers/STM32F7xx_HAL_Driver/Src/stm32f7xx_hal_spdifrx.c ****   * @param pData a 32-bit pointer to the Receive data buffer.
 708:Drivers/STM32F7xx_HAL_Driver/Src/stm32f7xx_hal_spdifrx.c ****   * @param Size number of data sample to be received :
 709:Drivers/STM32F7xx_HAL_Driver/Src/stm32f7xx_hal_spdifrx.c ****   * @retval HAL status
 710:Drivers/STM32F7xx_HAL_Driver/Src/stm32f7xx_hal_spdifrx.c ****   */
 711:Drivers/STM32F7xx_HAL_Driver/Src/stm32f7xx_hal_spdifrx.c **** HAL_StatusTypeDef HAL_SPDIFRX_ReceiveDataFlow_DMA(SPDIFRX_HandleTypeDef *hspdif, uint32_t *pData, u
 712:Drivers/STM32F7xx_HAL_Driver/Src/stm32f7xx_hal_spdifrx.c **** {
 713:Drivers/STM32F7xx_HAL_Driver/Src/stm32f7xx_hal_spdifrx.c ****   uint32_t tickstart = 0U;
 714:Drivers/STM32F7xx_HAL_Driver/Src/stm32f7xx_hal_spdifrx.c ****   
 715:Drivers/STM32F7xx_HAL_Driver/Src/stm32f7xx_hal_spdifrx.c ****   if((pData == NULL) || (Size == 0U)) 
 716:Drivers/STM32F7xx_HAL_Driver/Src/stm32f7xx_hal_spdifrx.c ****   {
ARM GAS  C:\Users\Patryk\AppData\Local\Temp\ccutd4KM.s 			page 14


 717:Drivers/STM32F7xx_HAL_Driver/Src/stm32f7xx_hal_spdifrx.c ****     return  HAL_ERROR;                                    
 718:Drivers/STM32F7xx_HAL_Driver/Src/stm32f7xx_hal_spdifrx.c ****   } 
 719:Drivers/STM32F7xx_HAL_Driver/Src/stm32f7xx_hal_spdifrx.c ****   
 720:Drivers/STM32F7xx_HAL_Driver/Src/stm32f7xx_hal_spdifrx.c ****   if((hspdif->State == HAL_SPDIFRX_STATE_READY) || (hspdif->State == HAL_SPDIFRX_STATE_BUSY_CX))
 721:Drivers/STM32F7xx_HAL_Driver/Src/stm32f7xx_hal_spdifrx.c ****   {   
 722:Drivers/STM32F7xx_HAL_Driver/Src/stm32f7xx_hal_spdifrx.c ****     hspdif->pRxBuffPtr = pData;
 723:Drivers/STM32F7xx_HAL_Driver/Src/stm32f7xx_hal_spdifrx.c ****     hspdif->RxXferSize = Size;
 724:Drivers/STM32F7xx_HAL_Driver/Src/stm32f7xx_hal_spdifrx.c ****     hspdif->RxXferCount = Size;
 725:Drivers/STM32F7xx_HAL_Driver/Src/stm32f7xx_hal_spdifrx.c ****     
 726:Drivers/STM32F7xx_HAL_Driver/Src/stm32f7xx_hal_spdifrx.c ****     /* Process Locked */
 727:Drivers/STM32F7xx_HAL_Driver/Src/stm32f7xx_hal_spdifrx.c ****     __HAL_LOCK(hspdif);
 728:Drivers/STM32F7xx_HAL_Driver/Src/stm32f7xx_hal_spdifrx.c ****     
 729:Drivers/STM32F7xx_HAL_Driver/Src/stm32f7xx_hal_spdifrx.c ****     hspdif->ErrorCode = HAL_SPDIFRX_ERROR_NONE;
 730:Drivers/STM32F7xx_HAL_Driver/Src/stm32f7xx_hal_spdifrx.c ****     hspdif->State = HAL_SPDIFRX_STATE_BUSY_RX;
 731:Drivers/STM32F7xx_HAL_Driver/Src/stm32f7xx_hal_spdifrx.c ****     
 732:Drivers/STM32F7xx_HAL_Driver/Src/stm32f7xx_hal_spdifrx.c ****     /* Set the SPDIFRX Rx DMA Half transfer complete callback */
 733:Drivers/STM32F7xx_HAL_Driver/Src/stm32f7xx_hal_spdifrx.c ****     hspdif->hdmaDrRx->XferHalfCpltCallback = SPDIFRX_DMARxHalfCplt;
 734:Drivers/STM32F7xx_HAL_Driver/Src/stm32f7xx_hal_spdifrx.c ****     
 735:Drivers/STM32F7xx_HAL_Driver/Src/stm32f7xx_hal_spdifrx.c ****     /* Set the SPDIFRX Rx DMA transfer complete callback */
 736:Drivers/STM32F7xx_HAL_Driver/Src/stm32f7xx_hal_spdifrx.c ****     hspdif->hdmaDrRx->XferCpltCallback = SPDIFRX_DMARxCplt;
 737:Drivers/STM32F7xx_HAL_Driver/Src/stm32f7xx_hal_spdifrx.c ****     
 738:Drivers/STM32F7xx_HAL_Driver/Src/stm32f7xx_hal_spdifrx.c ****     /* Set the DMA error callback */
 739:Drivers/STM32F7xx_HAL_Driver/Src/stm32f7xx_hal_spdifrx.c ****     hspdif->hdmaDrRx->XferErrorCallback = SPDIFRX_DMAError;
 740:Drivers/STM32F7xx_HAL_Driver/Src/stm32f7xx_hal_spdifrx.c ****     
 741:Drivers/STM32F7xx_HAL_Driver/Src/stm32f7xx_hal_spdifrx.c ****     /* Enable the DMA request */
 742:Drivers/STM32F7xx_HAL_Driver/Src/stm32f7xx_hal_spdifrx.c ****     HAL_DMA_Start_IT(hspdif->hdmaDrRx, (uint32_t)&hspdif->Instance->DR, (uint32_t)hspdif->pRxBuffPt
 743:Drivers/STM32F7xx_HAL_Driver/Src/stm32f7xx_hal_spdifrx.c ****     
 744:Drivers/STM32F7xx_HAL_Driver/Src/stm32f7xx_hal_spdifrx.c ****     /* Enable RXDMAEN bit in SPDIFRX CR register for data flow reception*/
 745:Drivers/STM32F7xx_HAL_Driver/Src/stm32f7xx_hal_spdifrx.c ****     hspdif->Instance->CR |= SPDIFRX_CR_RXDMAEN;
 746:Drivers/STM32F7xx_HAL_Driver/Src/stm32f7xx_hal_spdifrx.c ****     
 747:Drivers/STM32F7xx_HAL_Driver/Src/stm32f7xx_hal_spdifrx.c ****     if (((SPDIFRX->CR & SPDIFRX_CR_SPDIFEN) != SPDIFRX_STATE_SYNC) || ((SPDIFRX->CR & SPDIFRX_CR_SP
 748:Drivers/STM32F7xx_HAL_Driver/Src/stm32f7xx_hal_spdifrx.c ****     {
 749:Drivers/STM32F7xx_HAL_Driver/Src/stm32f7xx_hal_spdifrx.c ****       /* Start synchronization */
 750:Drivers/STM32F7xx_HAL_Driver/Src/stm32f7xx_hal_spdifrx.c ****       __HAL_SPDIFRX_SYNC(hspdif);
 751:Drivers/STM32F7xx_HAL_Driver/Src/stm32f7xx_hal_spdifrx.c ****       
 752:Drivers/STM32F7xx_HAL_Driver/Src/stm32f7xx_hal_spdifrx.c ****       /* Get tick */ 
 753:Drivers/STM32F7xx_HAL_Driver/Src/stm32f7xx_hal_spdifrx.c ****       tickstart = HAL_GetTick();
 754:Drivers/STM32F7xx_HAL_Driver/Src/stm32f7xx_hal_spdifrx.c ****       
 755:Drivers/STM32F7xx_HAL_Driver/Src/stm32f7xx_hal_spdifrx.c ****       /* Wait until SYNCD flag is set */
 756:Drivers/STM32F7xx_HAL_Driver/Src/stm32f7xx_hal_spdifrx.c ****       if(SPDIFRX_WaitOnFlagUntilTimeout(hspdif, SPDIFRX_FLAG_SYNCD, RESET, SPDIFRX_TIMEOUT_VALUE, t
 757:Drivers/STM32F7xx_HAL_Driver/Src/stm32f7xx_hal_spdifrx.c ****       { 
 758:Drivers/STM32F7xx_HAL_Driver/Src/stm32f7xx_hal_spdifrx.c ****         return HAL_TIMEOUT;
 759:Drivers/STM32F7xx_HAL_Driver/Src/stm32f7xx_hal_spdifrx.c ****       }  
 760:Drivers/STM32F7xx_HAL_Driver/Src/stm32f7xx_hal_spdifrx.c ****       
 761:Drivers/STM32F7xx_HAL_Driver/Src/stm32f7xx_hal_spdifrx.c ****       /* Start reception */    
 762:Drivers/STM32F7xx_HAL_Driver/Src/stm32f7xx_hal_spdifrx.c ****       __HAL_SPDIFRX_RCV(hspdif);
 763:Drivers/STM32F7xx_HAL_Driver/Src/stm32f7xx_hal_spdifrx.c ****     }
 764:Drivers/STM32F7xx_HAL_Driver/Src/stm32f7xx_hal_spdifrx.c ****     
 765:Drivers/STM32F7xx_HAL_Driver/Src/stm32f7xx_hal_spdifrx.c ****     /* Process Unlocked */
 766:Drivers/STM32F7xx_HAL_Driver/Src/stm32f7xx_hal_spdifrx.c ****     __HAL_UNLOCK(hspdif);
 767:Drivers/STM32F7xx_HAL_Driver/Src/stm32f7xx_hal_spdifrx.c ****     
 768:Drivers/STM32F7xx_HAL_Driver/Src/stm32f7xx_hal_spdifrx.c ****     return HAL_OK;
 769:Drivers/STM32F7xx_HAL_Driver/Src/stm32f7xx_hal_spdifrx.c ****   }
 770:Drivers/STM32F7xx_HAL_Driver/Src/stm32f7xx_hal_spdifrx.c ****   else
 771:Drivers/STM32F7xx_HAL_Driver/Src/stm32f7xx_hal_spdifrx.c ****   {
 772:Drivers/STM32F7xx_HAL_Driver/Src/stm32f7xx_hal_spdifrx.c ****     return HAL_BUSY; 
 773:Drivers/STM32F7xx_HAL_Driver/Src/stm32f7xx_hal_spdifrx.c ****   }
ARM GAS  C:\Users\Patryk\AppData\Local\Temp\ccutd4KM.s 			page 15


 774:Drivers/STM32F7xx_HAL_Driver/Src/stm32f7xx_hal_spdifrx.c **** }
 775:Drivers/STM32F7xx_HAL_Driver/Src/stm32f7xx_hal_spdifrx.c **** 
 776:Drivers/STM32F7xx_HAL_Driver/Src/stm32f7xx_hal_spdifrx.c **** /**
 777:Drivers/STM32F7xx_HAL_Driver/Src/stm32f7xx_hal_spdifrx.c ****   * @brief Receive an amount of data (Control Flow) with DMA 
 778:Drivers/STM32F7xx_HAL_Driver/Src/stm32f7xx_hal_spdifrx.c ****   * @param hspdif SPDIFRX handle
 779:Drivers/STM32F7xx_HAL_Driver/Src/stm32f7xx_hal_spdifrx.c ****   * @param pData a 32-bit pointer to the Receive data buffer.
 780:Drivers/STM32F7xx_HAL_Driver/Src/stm32f7xx_hal_spdifrx.c ****   * @param Size number of data (Control Flow) sample to be received :
 781:Drivers/STM32F7xx_HAL_Driver/Src/stm32f7xx_hal_spdifrx.c ****   * @retval HAL status
 782:Drivers/STM32F7xx_HAL_Driver/Src/stm32f7xx_hal_spdifrx.c ****   */
 783:Drivers/STM32F7xx_HAL_Driver/Src/stm32f7xx_hal_spdifrx.c **** HAL_StatusTypeDef HAL_SPDIFRX_ReceiveControlFlow_DMA(SPDIFRX_HandleTypeDef *hspdif, uint32_t *pData
 784:Drivers/STM32F7xx_HAL_Driver/Src/stm32f7xx_hal_spdifrx.c **** {
 785:Drivers/STM32F7xx_HAL_Driver/Src/stm32f7xx_hal_spdifrx.c ****   uint32_t tickstart = 0U;
 786:Drivers/STM32F7xx_HAL_Driver/Src/stm32f7xx_hal_spdifrx.c ****   
 787:Drivers/STM32F7xx_HAL_Driver/Src/stm32f7xx_hal_spdifrx.c ****   if((pData == NULL) || (Size == 0U)) 
 788:Drivers/STM32F7xx_HAL_Driver/Src/stm32f7xx_hal_spdifrx.c ****   {
 789:Drivers/STM32F7xx_HAL_Driver/Src/stm32f7xx_hal_spdifrx.c ****     return  HAL_ERROR;                                    
 790:Drivers/STM32F7xx_HAL_Driver/Src/stm32f7xx_hal_spdifrx.c ****   } 
 791:Drivers/STM32F7xx_HAL_Driver/Src/stm32f7xx_hal_spdifrx.c ****   
 792:Drivers/STM32F7xx_HAL_Driver/Src/stm32f7xx_hal_spdifrx.c ****   if((hspdif->State == HAL_SPDIFRX_STATE_READY) || (hspdif->State == HAL_SPDIFRX_STATE_BUSY_RX))
 793:Drivers/STM32F7xx_HAL_Driver/Src/stm32f7xx_hal_spdifrx.c ****   {    
 794:Drivers/STM32F7xx_HAL_Driver/Src/stm32f7xx_hal_spdifrx.c ****     hspdif->pCsBuffPtr = pData;
 795:Drivers/STM32F7xx_HAL_Driver/Src/stm32f7xx_hal_spdifrx.c ****     hspdif->CsXferSize = Size;
 796:Drivers/STM32F7xx_HAL_Driver/Src/stm32f7xx_hal_spdifrx.c ****     hspdif->CsXferCount = Size;
 797:Drivers/STM32F7xx_HAL_Driver/Src/stm32f7xx_hal_spdifrx.c ****     
 798:Drivers/STM32F7xx_HAL_Driver/Src/stm32f7xx_hal_spdifrx.c ****     /* Process Locked */
 799:Drivers/STM32F7xx_HAL_Driver/Src/stm32f7xx_hal_spdifrx.c ****     __HAL_LOCK(hspdif);
 800:Drivers/STM32F7xx_HAL_Driver/Src/stm32f7xx_hal_spdifrx.c ****     
 801:Drivers/STM32F7xx_HAL_Driver/Src/stm32f7xx_hal_spdifrx.c ****     hspdif->ErrorCode = HAL_SPDIFRX_ERROR_NONE;
 802:Drivers/STM32F7xx_HAL_Driver/Src/stm32f7xx_hal_spdifrx.c ****     hspdif->State = HAL_SPDIFRX_STATE_BUSY_CX;
 803:Drivers/STM32F7xx_HAL_Driver/Src/stm32f7xx_hal_spdifrx.c ****     
 804:Drivers/STM32F7xx_HAL_Driver/Src/stm32f7xx_hal_spdifrx.c ****     /* Set the SPDIFRX Rx DMA Half transfer complete callback */
 805:Drivers/STM32F7xx_HAL_Driver/Src/stm32f7xx_hal_spdifrx.c ****     hspdif->hdmaCsRx->XferHalfCpltCallback = SPDIFRX_DMACxHalfCplt;
 806:Drivers/STM32F7xx_HAL_Driver/Src/stm32f7xx_hal_spdifrx.c ****     
 807:Drivers/STM32F7xx_HAL_Driver/Src/stm32f7xx_hal_spdifrx.c ****     /* Set the SPDIFRX Rx DMA transfer complete callback */
 808:Drivers/STM32F7xx_HAL_Driver/Src/stm32f7xx_hal_spdifrx.c ****     hspdif->hdmaCsRx->XferCpltCallback = SPDIFRX_DMACxCplt;
 809:Drivers/STM32F7xx_HAL_Driver/Src/stm32f7xx_hal_spdifrx.c ****     
 810:Drivers/STM32F7xx_HAL_Driver/Src/stm32f7xx_hal_spdifrx.c ****     /* Set the DMA error callback */
 811:Drivers/STM32F7xx_HAL_Driver/Src/stm32f7xx_hal_spdifrx.c ****     hspdif->hdmaCsRx->XferErrorCallback = SPDIFRX_DMAError;
 812:Drivers/STM32F7xx_HAL_Driver/Src/stm32f7xx_hal_spdifrx.c ****     
 813:Drivers/STM32F7xx_HAL_Driver/Src/stm32f7xx_hal_spdifrx.c ****     /* Enable the DMA request */
 814:Drivers/STM32F7xx_HAL_Driver/Src/stm32f7xx_hal_spdifrx.c ****     HAL_DMA_Start_IT(hspdif->hdmaCsRx, (uint32_t)&hspdif->Instance->CSR, (uint32_t)hspdif->pCsBuffP
 815:Drivers/STM32F7xx_HAL_Driver/Src/stm32f7xx_hal_spdifrx.c ****     
 816:Drivers/STM32F7xx_HAL_Driver/Src/stm32f7xx_hal_spdifrx.c ****     /* Enable CBDMAEN bit in SPDIFRX CR register for control flow reception*/
 817:Drivers/STM32F7xx_HAL_Driver/Src/stm32f7xx_hal_spdifrx.c ****     hspdif->Instance->CR |= SPDIFRX_CR_CBDMAEN;
 818:Drivers/STM32F7xx_HAL_Driver/Src/stm32f7xx_hal_spdifrx.c ****     
 819:Drivers/STM32F7xx_HAL_Driver/Src/stm32f7xx_hal_spdifrx.c ****     if (((SPDIFRX->CR & SPDIFRX_CR_SPDIFEN) != SPDIFRX_STATE_SYNC) || ((SPDIFRX->CR & SPDIFRX_CR_SP
 820:Drivers/STM32F7xx_HAL_Driver/Src/stm32f7xx_hal_spdifrx.c ****     {
 821:Drivers/STM32F7xx_HAL_Driver/Src/stm32f7xx_hal_spdifrx.c ****       /* Start synchronization */
 822:Drivers/STM32F7xx_HAL_Driver/Src/stm32f7xx_hal_spdifrx.c ****       __HAL_SPDIFRX_SYNC(hspdif);
 823:Drivers/STM32F7xx_HAL_Driver/Src/stm32f7xx_hal_spdifrx.c ****       
 824:Drivers/STM32F7xx_HAL_Driver/Src/stm32f7xx_hal_spdifrx.c ****       /* Get tick */ 
 825:Drivers/STM32F7xx_HAL_Driver/Src/stm32f7xx_hal_spdifrx.c ****       tickstart = HAL_GetTick();
 826:Drivers/STM32F7xx_HAL_Driver/Src/stm32f7xx_hal_spdifrx.c ****       
 827:Drivers/STM32F7xx_HAL_Driver/Src/stm32f7xx_hal_spdifrx.c ****       /* Wait until SYNCD flag is set */
 828:Drivers/STM32F7xx_HAL_Driver/Src/stm32f7xx_hal_spdifrx.c ****       if(SPDIFRX_WaitOnFlagUntilTimeout(hspdif, SPDIFRX_FLAG_SYNCD, RESET, SPDIFRX_TIMEOUT_VALUE, t
 829:Drivers/STM32F7xx_HAL_Driver/Src/stm32f7xx_hal_spdifrx.c ****       { 
 830:Drivers/STM32F7xx_HAL_Driver/Src/stm32f7xx_hal_spdifrx.c ****         return HAL_TIMEOUT;
ARM GAS  C:\Users\Patryk\AppData\Local\Temp\ccutd4KM.s 			page 16


 831:Drivers/STM32F7xx_HAL_Driver/Src/stm32f7xx_hal_spdifrx.c ****       }  
 832:Drivers/STM32F7xx_HAL_Driver/Src/stm32f7xx_hal_spdifrx.c ****       
 833:Drivers/STM32F7xx_HAL_Driver/Src/stm32f7xx_hal_spdifrx.c ****       /* Start reception */    
 834:Drivers/STM32F7xx_HAL_Driver/Src/stm32f7xx_hal_spdifrx.c ****       __HAL_SPDIFRX_RCV(hspdif);
 835:Drivers/STM32F7xx_HAL_Driver/Src/stm32f7xx_hal_spdifrx.c ****     }
 836:Drivers/STM32F7xx_HAL_Driver/Src/stm32f7xx_hal_spdifrx.c ****     
 837:Drivers/STM32F7xx_HAL_Driver/Src/stm32f7xx_hal_spdifrx.c ****     /* Process Unlocked */
 838:Drivers/STM32F7xx_HAL_Driver/Src/stm32f7xx_hal_spdifrx.c ****     __HAL_UNLOCK(hspdif);
 839:Drivers/STM32F7xx_HAL_Driver/Src/stm32f7xx_hal_spdifrx.c ****     
 840:Drivers/STM32F7xx_HAL_Driver/Src/stm32f7xx_hal_spdifrx.c ****     return HAL_OK;
 841:Drivers/STM32F7xx_HAL_Driver/Src/stm32f7xx_hal_spdifrx.c ****   }
 842:Drivers/STM32F7xx_HAL_Driver/Src/stm32f7xx_hal_spdifrx.c ****   else
 843:Drivers/STM32F7xx_HAL_Driver/Src/stm32f7xx_hal_spdifrx.c ****   {
 844:Drivers/STM32F7xx_HAL_Driver/Src/stm32f7xx_hal_spdifrx.c ****     return HAL_BUSY; 
 845:Drivers/STM32F7xx_HAL_Driver/Src/stm32f7xx_hal_spdifrx.c ****   }
 846:Drivers/STM32F7xx_HAL_Driver/Src/stm32f7xx_hal_spdifrx.c **** }
 847:Drivers/STM32F7xx_HAL_Driver/Src/stm32f7xx_hal_spdifrx.c **** 
 848:Drivers/STM32F7xx_HAL_Driver/Src/stm32f7xx_hal_spdifrx.c **** /**
 849:Drivers/STM32F7xx_HAL_Driver/Src/stm32f7xx_hal_spdifrx.c ****   * @brief stop the audio stream receive from the Media.
 850:Drivers/STM32F7xx_HAL_Driver/Src/stm32f7xx_hal_spdifrx.c ****   * @param hspdif SPDIFRX handle
 851:Drivers/STM32F7xx_HAL_Driver/Src/stm32f7xx_hal_spdifrx.c ****   * @retval None
 852:Drivers/STM32F7xx_HAL_Driver/Src/stm32f7xx_hal_spdifrx.c ****   */
 853:Drivers/STM32F7xx_HAL_Driver/Src/stm32f7xx_hal_spdifrx.c **** HAL_StatusTypeDef HAL_SPDIFRX_DMAStop(SPDIFRX_HandleTypeDef *hspdif)
 854:Drivers/STM32F7xx_HAL_Driver/Src/stm32f7xx_hal_spdifrx.c **** {
 855:Drivers/STM32F7xx_HAL_Driver/Src/stm32f7xx_hal_spdifrx.c ****   /* Process Locked */
 856:Drivers/STM32F7xx_HAL_Driver/Src/stm32f7xx_hal_spdifrx.c ****   __HAL_LOCK(hspdif);
 857:Drivers/STM32F7xx_HAL_Driver/Src/stm32f7xx_hal_spdifrx.c ****   
 858:Drivers/STM32F7xx_HAL_Driver/Src/stm32f7xx_hal_spdifrx.c ****   /* Disable the SPDIFRX DMA requests */
 859:Drivers/STM32F7xx_HAL_Driver/Src/stm32f7xx_hal_spdifrx.c ****   hspdif->Instance->CR &= (uint16_t)(~SPDIFRX_CR_RXDMAEN);
 860:Drivers/STM32F7xx_HAL_Driver/Src/stm32f7xx_hal_spdifrx.c ****   hspdif->Instance->CR &= (uint16_t)(~SPDIFRX_CR_CBDMAEN);
 861:Drivers/STM32F7xx_HAL_Driver/Src/stm32f7xx_hal_spdifrx.c ****   
 862:Drivers/STM32F7xx_HAL_Driver/Src/stm32f7xx_hal_spdifrx.c ****   /* Disable the SPDIFRX DMA channel */
 863:Drivers/STM32F7xx_HAL_Driver/Src/stm32f7xx_hal_spdifrx.c ****   __HAL_DMA_DISABLE(hspdif->hdmaDrRx);
 864:Drivers/STM32F7xx_HAL_Driver/Src/stm32f7xx_hal_spdifrx.c ****   __HAL_DMA_DISABLE(hspdif->hdmaCsRx);
 865:Drivers/STM32F7xx_HAL_Driver/Src/stm32f7xx_hal_spdifrx.c ****   
 866:Drivers/STM32F7xx_HAL_Driver/Src/stm32f7xx_hal_spdifrx.c ****   /* Disable SPDIFRX peripheral */
 867:Drivers/STM32F7xx_HAL_Driver/Src/stm32f7xx_hal_spdifrx.c ****   __HAL_SPDIFRX_IDLE(hspdif);
 868:Drivers/STM32F7xx_HAL_Driver/Src/stm32f7xx_hal_spdifrx.c ****   
 869:Drivers/STM32F7xx_HAL_Driver/Src/stm32f7xx_hal_spdifrx.c ****   hspdif->State = HAL_SPDIFRX_STATE_READY;
 870:Drivers/STM32F7xx_HAL_Driver/Src/stm32f7xx_hal_spdifrx.c ****   
 871:Drivers/STM32F7xx_HAL_Driver/Src/stm32f7xx_hal_spdifrx.c ****   /* Process Unlocked */
 872:Drivers/STM32F7xx_HAL_Driver/Src/stm32f7xx_hal_spdifrx.c ****   __HAL_UNLOCK(hspdif);
 873:Drivers/STM32F7xx_HAL_Driver/Src/stm32f7xx_hal_spdifrx.c ****   
 874:Drivers/STM32F7xx_HAL_Driver/Src/stm32f7xx_hal_spdifrx.c ****   return HAL_OK;
 875:Drivers/STM32F7xx_HAL_Driver/Src/stm32f7xx_hal_spdifrx.c **** }
 876:Drivers/STM32F7xx_HAL_Driver/Src/stm32f7xx_hal_spdifrx.c **** 
 877:Drivers/STM32F7xx_HAL_Driver/Src/stm32f7xx_hal_spdifrx.c **** /**
 878:Drivers/STM32F7xx_HAL_Driver/Src/stm32f7xx_hal_spdifrx.c ****   * @brief  This function handles SPDIFRX interrupt request.
 879:Drivers/STM32F7xx_HAL_Driver/Src/stm32f7xx_hal_spdifrx.c ****   * @param  hspdif SPDIFRX handle
 880:Drivers/STM32F7xx_HAL_Driver/Src/stm32f7xx_hal_spdifrx.c ****   * @retval HAL status
 881:Drivers/STM32F7xx_HAL_Driver/Src/stm32f7xx_hal_spdifrx.c ****   */
 882:Drivers/STM32F7xx_HAL_Driver/Src/stm32f7xx_hal_spdifrx.c **** void HAL_SPDIFRX_IRQHandler(SPDIFRX_HandleTypeDef *hspdif)
 883:Drivers/STM32F7xx_HAL_Driver/Src/stm32f7xx_hal_spdifrx.c **** {  
 884:Drivers/STM32F7xx_HAL_Driver/Src/stm32f7xx_hal_spdifrx.c ****   /* SPDIFRX in mode Data Flow Reception ------------------------------------------------*/
 885:Drivers/STM32F7xx_HAL_Driver/Src/stm32f7xx_hal_spdifrx.c ****   if((__HAL_SPDIFRX_GET_FLAG(hspdif, SPDIFRX_FLAG_RXNE) != RESET) && (__HAL_SPDIFRX_GET_IT_SOURCE(h
 886:Drivers/STM32F7xx_HAL_Driver/Src/stm32f7xx_hal_spdifrx.c ****   {
 887:Drivers/STM32F7xx_HAL_Driver/Src/stm32f7xx_hal_spdifrx.c ****     __HAL_SPDIFRX_CLEAR_IT(hspdif, SPDIFRX_IT_RXNE);
ARM GAS  C:\Users\Patryk\AppData\Local\Temp\ccutd4KM.s 			page 17


 888:Drivers/STM32F7xx_HAL_Driver/Src/stm32f7xx_hal_spdifrx.c ****     SPDIFRX_ReceiveDataFlow_IT(hspdif);
 889:Drivers/STM32F7xx_HAL_Driver/Src/stm32f7xx_hal_spdifrx.c ****   }
 890:Drivers/STM32F7xx_HAL_Driver/Src/stm32f7xx_hal_spdifrx.c ****   
 891:Drivers/STM32F7xx_HAL_Driver/Src/stm32f7xx_hal_spdifrx.c ****   /* SPDIFRX in mode Control Flow Reception ------------------------------------------------*/
 892:Drivers/STM32F7xx_HAL_Driver/Src/stm32f7xx_hal_spdifrx.c ****   if((__HAL_SPDIFRX_GET_FLAG(hspdif, SPDIFRX_FLAG_CSRNE) != RESET) && (__HAL_SPDIFRX_GET_IT_SOURCE(
 893:Drivers/STM32F7xx_HAL_Driver/Src/stm32f7xx_hal_spdifrx.c ****   {
 894:Drivers/STM32F7xx_HAL_Driver/Src/stm32f7xx_hal_spdifrx.c ****     __HAL_SPDIFRX_CLEAR_IT(hspdif, SPDIFRX_IT_CSRNE);
 895:Drivers/STM32F7xx_HAL_Driver/Src/stm32f7xx_hal_spdifrx.c ****     SPDIFRX_ReceiveControlFlow_IT(hspdif);
 896:Drivers/STM32F7xx_HAL_Driver/Src/stm32f7xx_hal_spdifrx.c ****   }
 897:Drivers/STM32F7xx_HAL_Driver/Src/stm32f7xx_hal_spdifrx.c ****   
 898:Drivers/STM32F7xx_HAL_Driver/Src/stm32f7xx_hal_spdifrx.c ****   /* SPDIFRX Overrun error interrupt occurred ---------------------------------*/
 899:Drivers/STM32F7xx_HAL_Driver/Src/stm32f7xx_hal_spdifrx.c ****   if((__HAL_SPDIFRX_GET_FLAG(hspdif, SPDIFRX_FLAG_OVR) != RESET) && (__HAL_SPDIFRX_GET_IT_SOURCE(hs
 900:Drivers/STM32F7xx_HAL_Driver/Src/stm32f7xx_hal_spdifrx.c ****   {
 901:Drivers/STM32F7xx_HAL_Driver/Src/stm32f7xx_hal_spdifrx.c ****     __HAL_SPDIFRX_CLEAR_IT(hspdif, SPDIFRX_FLAG_OVR);
 902:Drivers/STM32F7xx_HAL_Driver/Src/stm32f7xx_hal_spdifrx.c ****     
 903:Drivers/STM32F7xx_HAL_Driver/Src/stm32f7xx_hal_spdifrx.c ****     /* Change the SPDIFRX error code */
 904:Drivers/STM32F7xx_HAL_Driver/Src/stm32f7xx_hal_spdifrx.c ****     hspdif->ErrorCode |= HAL_SPDIFRX_ERROR_OVR;
 905:Drivers/STM32F7xx_HAL_Driver/Src/stm32f7xx_hal_spdifrx.c ****     
 906:Drivers/STM32F7xx_HAL_Driver/Src/stm32f7xx_hal_spdifrx.c ****     /* the transfer is not stopped */
 907:Drivers/STM32F7xx_HAL_Driver/Src/stm32f7xx_hal_spdifrx.c ****     HAL_SPDIFRX_ErrorCallback(hspdif);
 908:Drivers/STM32F7xx_HAL_Driver/Src/stm32f7xx_hal_spdifrx.c ****   } 
 909:Drivers/STM32F7xx_HAL_Driver/Src/stm32f7xx_hal_spdifrx.c ****   
 910:Drivers/STM32F7xx_HAL_Driver/Src/stm32f7xx_hal_spdifrx.c ****   /* SPDIFRX Parity error interrupt occurred ---------------------------------*/
 911:Drivers/STM32F7xx_HAL_Driver/Src/stm32f7xx_hal_spdifrx.c ****   if((__HAL_SPDIFRX_GET_FLAG(hspdif, SPDIFRX_FLAG_PERR) != RESET) && (__HAL_SPDIFRX_GET_IT_SOURCE(h
 912:Drivers/STM32F7xx_HAL_Driver/Src/stm32f7xx_hal_spdifrx.c ****   {
 913:Drivers/STM32F7xx_HAL_Driver/Src/stm32f7xx_hal_spdifrx.c ****     __HAL_SPDIFRX_CLEAR_IT(hspdif, SPDIFRX_FLAG_PERR);
 914:Drivers/STM32F7xx_HAL_Driver/Src/stm32f7xx_hal_spdifrx.c ****     
 915:Drivers/STM32F7xx_HAL_Driver/Src/stm32f7xx_hal_spdifrx.c ****     /* Change the SPDIFRX error code */
 916:Drivers/STM32F7xx_HAL_Driver/Src/stm32f7xx_hal_spdifrx.c ****     hspdif->ErrorCode |= HAL_SPDIFRX_ERROR_PE;
 917:Drivers/STM32F7xx_HAL_Driver/Src/stm32f7xx_hal_spdifrx.c ****     
 918:Drivers/STM32F7xx_HAL_Driver/Src/stm32f7xx_hal_spdifrx.c ****     /* the transfer is not stopped */
 919:Drivers/STM32F7xx_HAL_Driver/Src/stm32f7xx_hal_spdifrx.c ****     HAL_SPDIFRX_ErrorCallback(hspdif);
 920:Drivers/STM32F7xx_HAL_Driver/Src/stm32f7xx_hal_spdifrx.c ****   } 
 921:Drivers/STM32F7xx_HAL_Driver/Src/stm32f7xx_hal_spdifrx.c **** }
 922:Drivers/STM32F7xx_HAL_Driver/Src/stm32f7xx_hal_spdifrx.c **** 
 923:Drivers/STM32F7xx_HAL_Driver/Src/stm32f7xx_hal_spdifrx.c **** /**
 924:Drivers/STM32F7xx_HAL_Driver/Src/stm32f7xx_hal_spdifrx.c ****   * @brief Rx Transfer (Data flow) half completed callbacks
 925:Drivers/STM32F7xx_HAL_Driver/Src/stm32f7xx_hal_spdifrx.c ****   * @param hspdif SPDIFRX handle
 926:Drivers/STM32F7xx_HAL_Driver/Src/stm32f7xx_hal_spdifrx.c ****   * @retval None
 927:Drivers/STM32F7xx_HAL_Driver/Src/stm32f7xx_hal_spdifrx.c ****   */
 928:Drivers/STM32F7xx_HAL_Driver/Src/stm32f7xx_hal_spdifrx.c **** __weak void HAL_SPDIFRX_RxHalfCpltCallback(SPDIFRX_HandleTypeDef *hspdif)
 929:Drivers/STM32F7xx_HAL_Driver/Src/stm32f7xx_hal_spdifrx.c **** {
 930:Drivers/STM32F7xx_HAL_Driver/Src/stm32f7xx_hal_spdifrx.c ****   /* Prevent unused argument(s) compilation warning */
 931:Drivers/STM32F7xx_HAL_Driver/Src/stm32f7xx_hal_spdifrx.c ****   UNUSED(hspdif);
 932:Drivers/STM32F7xx_HAL_Driver/Src/stm32f7xx_hal_spdifrx.c ****   
 933:Drivers/STM32F7xx_HAL_Driver/Src/stm32f7xx_hal_spdifrx.c ****   /* NOTE : This function Should not be modified, when the callback is needed,
 934:Drivers/STM32F7xx_HAL_Driver/Src/stm32f7xx_hal_spdifrx.c ****   the HAL_SPDIFRX_RxCpltCallback could be implemented in the user file
 935:Drivers/STM32F7xx_HAL_Driver/Src/stm32f7xx_hal_spdifrx.c ****   */
 936:Drivers/STM32F7xx_HAL_Driver/Src/stm32f7xx_hal_spdifrx.c **** }
 937:Drivers/STM32F7xx_HAL_Driver/Src/stm32f7xx_hal_spdifrx.c **** 
 938:Drivers/STM32F7xx_HAL_Driver/Src/stm32f7xx_hal_spdifrx.c **** /**
 939:Drivers/STM32F7xx_HAL_Driver/Src/stm32f7xx_hal_spdifrx.c ****   * @brief Rx Transfer (Data flow) completed callbacks
 940:Drivers/STM32F7xx_HAL_Driver/Src/stm32f7xx_hal_spdifrx.c ****   * @param hspdif SPDIFRX handle
 941:Drivers/STM32F7xx_HAL_Driver/Src/stm32f7xx_hal_spdifrx.c ****   * @retval None
 942:Drivers/STM32F7xx_HAL_Driver/Src/stm32f7xx_hal_spdifrx.c ****   */
 943:Drivers/STM32F7xx_HAL_Driver/Src/stm32f7xx_hal_spdifrx.c **** __weak void HAL_SPDIFRX_RxCpltCallback(SPDIFRX_HandleTypeDef *hspdif)
 944:Drivers/STM32F7xx_HAL_Driver/Src/stm32f7xx_hal_spdifrx.c **** {
ARM GAS  C:\Users\Patryk\AppData\Local\Temp\ccutd4KM.s 			page 18


 945:Drivers/STM32F7xx_HAL_Driver/Src/stm32f7xx_hal_spdifrx.c ****   /* Prevent unused argument(s) compilation warning */
 946:Drivers/STM32F7xx_HAL_Driver/Src/stm32f7xx_hal_spdifrx.c ****   UNUSED(hspdif);
 947:Drivers/STM32F7xx_HAL_Driver/Src/stm32f7xx_hal_spdifrx.c ****   
 948:Drivers/STM32F7xx_HAL_Driver/Src/stm32f7xx_hal_spdifrx.c ****   /* NOTE : This function Should not be modified, when the callback is needed,
 949:Drivers/STM32F7xx_HAL_Driver/Src/stm32f7xx_hal_spdifrx.c ****   the HAL_SPDIFRX_RxCpltCallback could be implemented in the user file
 950:Drivers/STM32F7xx_HAL_Driver/Src/stm32f7xx_hal_spdifrx.c ****   */
 951:Drivers/STM32F7xx_HAL_Driver/Src/stm32f7xx_hal_spdifrx.c **** }
 952:Drivers/STM32F7xx_HAL_Driver/Src/stm32f7xx_hal_spdifrx.c **** 
 953:Drivers/STM32F7xx_HAL_Driver/Src/stm32f7xx_hal_spdifrx.c **** /**
 954:Drivers/STM32F7xx_HAL_Driver/Src/stm32f7xx_hal_spdifrx.c ****   * @brief Rx (Control flow) Transfer half completed callbacks
 955:Drivers/STM32F7xx_HAL_Driver/Src/stm32f7xx_hal_spdifrx.c ****   * @param hspdif SPDIFRX handle
 956:Drivers/STM32F7xx_HAL_Driver/Src/stm32f7xx_hal_spdifrx.c ****   * @retval None
 957:Drivers/STM32F7xx_HAL_Driver/Src/stm32f7xx_hal_spdifrx.c ****   */
 958:Drivers/STM32F7xx_HAL_Driver/Src/stm32f7xx_hal_spdifrx.c **** __weak void HAL_SPDIFRX_CxHalfCpltCallback(SPDIFRX_HandleTypeDef *hspdif)
 959:Drivers/STM32F7xx_HAL_Driver/Src/stm32f7xx_hal_spdifrx.c **** {
 960:Drivers/STM32F7xx_HAL_Driver/Src/stm32f7xx_hal_spdifrx.c ****   /* Prevent unused argument(s) compilation warning */
 961:Drivers/STM32F7xx_HAL_Driver/Src/stm32f7xx_hal_spdifrx.c ****   UNUSED(hspdif);
 962:Drivers/STM32F7xx_HAL_Driver/Src/stm32f7xx_hal_spdifrx.c ****   
 963:Drivers/STM32F7xx_HAL_Driver/Src/stm32f7xx_hal_spdifrx.c ****   /* NOTE : This function Should not be modified, when the callback is needed,
 964:Drivers/STM32F7xx_HAL_Driver/Src/stm32f7xx_hal_spdifrx.c ****   the HAL_SPDIFRX_RxCpltCallback could be implemented in the user file
 965:Drivers/STM32F7xx_HAL_Driver/Src/stm32f7xx_hal_spdifrx.c ****   */
 966:Drivers/STM32F7xx_HAL_Driver/Src/stm32f7xx_hal_spdifrx.c **** }
 967:Drivers/STM32F7xx_HAL_Driver/Src/stm32f7xx_hal_spdifrx.c **** 
 968:Drivers/STM32F7xx_HAL_Driver/Src/stm32f7xx_hal_spdifrx.c **** /**
 969:Drivers/STM32F7xx_HAL_Driver/Src/stm32f7xx_hal_spdifrx.c ****   * @brief Rx Transfer (Control flow) completed callbacks
 970:Drivers/STM32F7xx_HAL_Driver/Src/stm32f7xx_hal_spdifrx.c ****   * @param hspdif SPDIFRX handle
 971:Drivers/STM32F7xx_HAL_Driver/Src/stm32f7xx_hal_spdifrx.c ****   * @retval None
 972:Drivers/STM32F7xx_HAL_Driver/Src/stm32f7xx_hal_spdifrx.c ****   */
 973:Drivers/STM32F7xx_HAL_Driver/Src/stm32f7xx_hal_spdifrx.c **** __weak void HAL_SPDIFRX_CxCpltCallback(SPDIFRX_HandleTypeDef *hspdif)
 974:Drivers/STM32F7xx_HAL_Driver/Src/stm32f7xx_hal_spdifrx.c **** {
 975:Drivers/STM32F7xx_HAL_Driver/Src/stm32f7xx_hal_spdifrx.c ****   /* Prevent unused argument(s) compilation warning */
 976:Drivers/STM32F7xx_HAL_Driver/Src/stm32f7xx_hal_spdifrx.c ****   UNUSED(hspdif);
 977:Drivers/STM32F7xx_HAL_Driver/Src/stm32f7xx_hal_spdifrx.c ****   
 978:Drivers/STM32F7xx_HAL_Driver/Src/stm32f7xx_hal_spdifrx.c ****   /* NOTE : This function Should not be modified, when the callback is needed,
 979:Drivers/STM32F7xx_HAL_Driver/Src/stm32f7xx_hal_spdifrx.c ****   the HAL_SPDIFRX_RxCpltCallback could be implemented in the user file
 980:Drivers/STM32F7xx_HAL_Driver/Src/stm32f7xx_hal_spdifrx.c ****   */
 981:Drivers/STM32F7xx_HAL_Driver/Src/stm32f7xx_hal_spdifrx.c **** }
 982:Drivers/STM32F7xx_HAL_Driver/Src/stm32f7xx_hal_spdifrx.c **** 
 983:Drivers/STM32F7xx_HAL_Driver/Src/stm32f7xx_hal_spdifrx.c **** /**
 984:Drivers/STM32F7xx_HAL_Driver/Src/stm32f7xx_hal_spdifrx.c ****   * @brief SPDIFRX error callbacks
 985:Drivers/STM32F7xx_HAL_Driver/Src/stm32f7xx_hal_spdifrx.c ****   * @param hspdif SPDIFRX handle
 986:Drivers/STM32F7xx_HAL_Driver/Src/stm32f7xx_hal_spdifrx.c ****   * @retval None
 987:Drivers/STM32F7xx_HAL_Driver/Src/stm32f7xx_hal_spdifrx.c ****   */
 988:Drivers/STM32F7xx_HAL_Driver/Src/stm32f7xx_hal_spdifrx.c **** __weak void HAL_SPDIFRX_ErrorCallback(SPDIFRX_HandleTypeDef *hspdif)
 989:Drivers/STM32F7xx_HAL_Driver/Src/stm32f7xx_hal_spdifrx.c **** {
 990:Drivers/STM32F7xx_HAL_Driver/Src/stm32f7xx_hal_spdifrx.c ****   /* Prevent unused argument(s) compilation warning */
 991:Drivers/STM32F7xx_HAL_Driver/Src/stm32f7xx_hal_spdifrx.c ****   UNUSED(hspdif);
 992:Drivers/STM32F7xx_HAL_Driver/Src/stm32f7xx_hal_spdifrx.c ****   
 993:Drivers/STM32F7xx_HAL_Driver/Src/stm32f7xx_hal_spdifrx.c ****   /* NOTE : This function Should not be modified, when the callback is needed,
 994:Drivers/STM32F7xx_HAL_Driver/Src/stm32f7xx_hal_spdifrx.c ****   the HAL_SPDIFRX_ErrorCallback could be implemented in the user file
 995:Drivers/STM32F7xx_HAL_Driver/Src/stm32f7xx_hal_spdifrx.c ****   */ 
 996:Drivers/STM32F7xx_HAL_Driver/Src/stm32f7xx_hal_spdifrx.c **** }
 997:Drivers/STM32F7xx_HAL_Driver/Src/stm32f7xx_hal_spdifrx.c **** 
 998:Drivers/STM32F7xx_HAL_Driver/Src/stm32f7xx_hal_spdifrx.c **** /**
 999:Drivers/STM32F7xx_HAL_Driver/Src/stm32f7xx_hal_spdifrx.c ****   * @}
1000:Drivers/STM32F7xx_HAL_Driver/Src/stm32f7xx_hal_spdifrx.c ****   */
1001:Drivers/STM32F7xx_HAL_Driver/Src/stm32f7xx_hal_spdifrx.c **** 
ARM GAS  C:\Users\Patryk\AppData\Local\Temp\ccutd4KM.s 			page 19


1002:Drivers/STM32F7xx_HAL_Driver/Src/stm32f7xx_hal_spdifrx.c **** /** @defgroup SPDIFRX_Exported_Functions_Group3 Peripheral State and Errors functions 
1003:Drivers/STM32F7xx_HAL_Driver/Src/stm32f7xx_hal_spdifrx.c ****   *  @brief   Peripheral State functions 
1004:Drivers/STM32F7xx_HAL_Driver/Src/stm32f7xx_hal_spdifrx.c ****   *
1005:Drivers/STM32F7xx_HAL_Driver/Src/stm32f7xx_hal_spdifrx.c **** @verbatim   
1006:Drivers/STM32F7xx_HAL_Driver/Src/stm32f7xx_hal_spdifrx.c **** ===============================================================================
1007:Drivers/STM32F7xx_HAL_Driver/Src/stm32f7xx_hal_spdifrx.c **** ##### Peripheral State and Errors functions #####
1008:Drivers/STM32F7xx_HAL_Driver/Src/stm32f7xx_hal_spdifrx.c **** ===============================================================================  
1009:Drivers/STM32F7xx_HAL_Driver/Src/stm32f7xx_hal_spdifrx.c **** [..]
1010:Drivers/STM32F7xx_HAL_Driver/Src/stm32f7xx_hal_spdifrx.c **** This subsection permit to get in run-time the status of the peripheral 
1011:Drivers/STM32F7xx_HAL_Driver/Src/stm32f7xx_hal_spdifrx.c **** and the data flow.
1012:Drivers/STM32F7xx_HAL_Driver/Src/stm32f7xx_hal_spdifrx.c **** 
1013:Drivers/STM32F7xx_HAL_Driver/Src/stm32f7xx_hal_spdifrx.c **** @endverbatim
1014:Drivers/STM32F7xx_HAL_Driver/Src/stm32f7xx_hal_spdifrx.c ****   * @{
1015:Drivers/STM32F7xx_HAL_Driver/Src/stm32f7xx_hal_spdifrx.c ****   */
1016:Drivers/STM32F7xx_HAL_Driver/Src/stm32f7xx_hal_spdifrx.c **** 
1017:Drivers/STM32F7xx_HAL_Driver/Src/stm32f7xx_hal_spdifrx.c **** /**
1018:Drivers/STM32F7xx_HAL_Driver/Src/stm32f7xx_hal_spdifrx.c ****   * @brief  Return the SPDIFRX state
1019:Drivers/STM32F7xx_HAL_Driver/Src/stm32f7xx_hal_spdifrx.c ****   * @param  hspdif  SPDIFRX handle
1020:Drivers/STM32F7xx_HAL_Driver/Src/stm32f7xx_hal_spdifrx.c ****   * @retval HAL state
1021:Drivers/STM32F7xx_HAL_Driver/Src/stm32f7xx_hal_spdifrx.c ****   */
1022:Drivers/STM32F7xx_HAL_Driver/Src/stm32f7xx_hal_spdifrx.c **** HAL_SPDIFRX_StateTypeDef HAL_SPDIFRX_GetState(SPDIFRX_HandleTypeDef *hspdif)
1023:Drivers/STM32F7xx_HAL_Driver/Src/stm32f7xx_hal_spdifrx.c **** {
1024:Drivers/STM32F7xx_HAL_Driver/Src/stm32f7xx_hal_spdifrx.c ****   return hspdif->State;
1025:Drivers/STM32F7xx_HAL_Driver/Src/stm32f7xx_hal_spdifrx.c **** }
1026:Drivers/STM32F7xx_HAL_Driver/Src/stm32f7xx_hal_spdifrx.c **** 
1027:Drivers/STM32F7xx_HAL_Driver/Src/stm32f7xx_hal_spdifrx.c **** /**
1028:Drivers/STM32F7xx_HAL_Driver/Src/stm32f7xx_hal_spdifrx.c ****   * @brief  Return the SPDIFRX error code
1029:Drivers/STM32F7xx_HAL_Driver/Src/stm32f7xx_hal_spdifrx.c ****   * @param  hspdif  SPDIFRX handle
1030:Drivers/STM32F7xx_HAL_Driver/Src/stm32f7xx_hal_spdifrx.c ****   * @retval SPDIFRX Error Code
1031:Drivers/STM32F7xx_HAL_Driver/Src/stm32f7xx_hal_spdifrx.c ****   */
1032:Drivers/STM32F7xx_HAL_Driver/Src/stm32f7xx_hal_spdifrx.c **** uint32_t HAL_SPDIFRX_GetError(SPDIFRX_HandleTypeDef *hspdif)
1033:Drivers/STM32F7xx_HAL_Driver/Src/stm32f7xx_hal_spdifrx.c **** {
1034:Drivers/STM32F7xx_HAL_Driver/Src/stm32f7xx_hal_spdifrx.c ****   return hspdif->ErrorCode;
1035:Drivers/STM32F7xx_HAL_Driver/Src/stm32f7xx_hal_spdifrx.c **** }
1036:Drivers/STM32F7xx_HAL_Driver/Src/stm32f7xx_hal_spdifrx.c **** 
1037:Drivers/STM32F7xx_HAL_Driver/Src/stm32f7xx_hal_spdifrx.c **** /**
1038:Drivers/STM32F7xx_HAL_Driver/Src/stm32f7xx_hal_spdifrx.c ****   * @}
1039:Drivers/STM32F7xx_HAL_Driver/Src/stm32f7xx_hal_spdifrx.c ****   */  
1040:Drivers/STM32F7xx_HAL_Driver/Src/stm32f7xx_hal_spdifrx.c **** 
1041:Drivers/STM32F7xx_HAL_Driver/Src/stm32f7xx_hal_spdifrx.c **** /**
1042:Drivers/STM32F7xx_HAL_Driver/Src/stm32f7xx_hal_spdifrx.c ****   * @brief DMA SPDIFRX receive process (Data flow) complete callback 
1043:Drivers/STM32F7xx_HAL_Driver/Src/stm32f7xx_hal_spdifrx.c ****   * @param hdma  DMA handle
1044:Drivers/STM32F7xx_HAL_Driver/Src/stm32f7xx_hal_spdifrx.c ****   * @retval None
1045:Drivers/STM32F7xx_HAL_Driver/Src/stm32f7xx_hal_spdifrx.c ****   */
1046:Drivers/STM32F7xx_HAL_Driver/Src/stm32f7xx_hal_spdifrx.c **** static void SPDIFRX_DMARxCplt(DMA_HandleTypeDef *hdma)
1047:Drivers/STM32F7xx_HAL_Driver/Src/stm32f7xx_hal_spdifrx.c **** {
1048:Drivers/STM32F7xx_HAL_Driver/Src/stm32f7xx_hal_spdifrx.c ****   SPDIFRX_HandleTypeDef* hspdif = ( SPDIFRX_HandleTypeDef* )((DMA_HandleTypeDef* )hdma)->Parent;
1049:Drivers/STM32F7xx_HAL_Driver/Src/stm32f7xx_hal_spdifrx.c ****   
1050:Drivers/STM32F7xx_HAL_Driver/Src/stm32f7xx_hal_spdifrx.c ****   /* Disable Rx DMA Request */
1051:Drivers/STM32F7xx_HAL_Driver/Src/stm32f7xx_hal_spdifrx.c ****   if((hdma->Instance->CR & DMA_SxCR_CIRC) == 0)
1052:Drivers/STM32F7xx_HAL_Driver/Src/stm32f7xx_hal_spdifrx.c ****   {
1053:Drivers/STM32F7xx_HAL_Driver/Src/stm32f7xx_hal_spdifrx.c ****     hspdif->Instance->CR &= (uint16_t)(~SPDIFRX_CR_RXDMAEN);
1054:Drivers/STM32F7xx_HAL_Driver/Src/stm32f7xx_hal_spdifrx.c ****     hspdif->RxXferCount = 0;
1055:Drivers/STM32F7xx_HAL_Driver/Src/stm32f7xx_hal_spdifrx.c ****     hspdif->State = HAL_SPDIFRX_STATE_READY; 
1056:Drivers/STM32F7xx_HAL_Driver/Src/stm32f7xx_hal_spdifrx.c ****   }
1057:Drivers/STM32F7xx_HAL_Driver/Src/stm32f7xx_hal_spdifrx.c ****   HAL_SPDIFRX_RxCpltCallback(hspdif); 
1058:Drivers/STM32F7xx_HAL_Driver/Src/stm32f7xx_hal_spdifrx.c **** }
ARM GAS  C:\Users\Patryk\AppData\Local\Temp\ccutd4KM.s 			page 20


1059:Drivers/STM32F7xx_HAL_Driver/Src/stm32f7xx_hal_spdifrx.c **** 
1060:Drivers/STM32F7xx_HAL_Driver/Src/stm32f7xx_hal_spdifrx.c **** /**
1061:Drivers/STM32F7xx_HAL_Driver/Src/stm32f7xx_hal_spdifrx.c ****   * @brief DMA SPDIFRX receive process (Data flow) half complete callback 
1062:Drivers/STM32F7xx_HAL_Driver/Src/stm32f7xx_hal_spdifrx.c ****   * @param hdma  DMA handle
1063:Drivers/STM32F7xx_HAL_Driver/Src/stm32f7xx_hal_spdifrx.c ****   * @retval None
1064:Drivers/STM32F7xx_HAL_Driver/Src/stm32f7xx_hal_spdifrx.c ****   */
1065:Drivers/STM32F7xx_HAL_Driver/Src/stm32f7xx_hal_spdifrx.c **** static void SPDIFRX_DMARxHalfCplt(DMA_HandleTypeDef *hdma)
1066:Drivers/STM32F7xx_HAL_Driver/Src/stm32f7xx_hal_spdifrx.c **** {
1067:Drivers/STM32F7xx_HAL_Driver/Src/stm32f7xx_hal_spdifrx.c ****   SPDIFRX_HandleTypeDef* hspdif = (SPDIFRX_HandleTypeDef*)((DMA_HandleTypeDef*)hdma)->Parent;
1068:Drivers/STM32F7xx_HAL_Driver/Src/stm32f7xx_hal_spdifrx.c ****   
1069:Drivers/STM32F7xx_HAL_Driver/Src/stm32f7xx_hal_spdifrx.c ****   HAL_SPDIFRX_RxHalfCpltCallback(hspdif); 
1070:Drivers/STM32F7xx_HAL_Driver/Src/stm32f7xx_hal_spdifrx.c **** }
1071:Drivers/STM32F7xx_HAL_Driver/Src/stm32f7xx_hal_spdifrx.c **** 
1072:Drivers/STM32F7xx_HAL_Driver/Src/stm32f7xx_hal_spdifrx.c **** 
1073:Drivers/STM32F7xx_HAL_Driver/Src/stm32f7xx_hal_spdifrx.c **** /**
1074:Drivers/STM32F7xx_HAL_Driver/Src/stm32f7xx_hal_spdifrx.c ****   * @brief DMA SPDIFRX receive process (Control flow) complete callback 
1075:Drivers/STM32F7xx_HAL_Driver/Src/stm32f7xx_hal_spdifrx.c ****   * @param hdma  DMA handle
1076:Drivers/STM32F7xx_HAL_Driver/Src/stm32f7xx_hal_spdifrx.c ****   * @retval None
1077:Drivers/STM32F7xx_HAL_Driver/Src/stm32f7xx_hal_spdifrx.c ****   */
1078:Drivers/STM32F7xx_HAL_Driver/Src/stm32f7xx_hal_spdifrx.c **** static void SPDIFRX_DMACxCplt(DMA_HandleTypeDef *hdma)
1079:Drivers/STM32F7xx_HAL_Driver/Src/stm32f7xx_hal_spdifrx.c **** {
1080:Drivers/STM32F7xx_HAL_Driver/Src/stm32f7xx_hal_spdifrx.c ****   SPDIFRX_HandleTypeDef* hspdif = ( SPDIFRX_HandleTypeDef* )((DMA_HandleTypeDef* )hdma)->Parent;
1081:Drivers/STM32F7xx_HAL_Driver/Src/stm32f7xx_hal_spdifrx.c ****   
1082:Drivers/STM32F7xx_HAL_Driver/Src/stm32f7xx_hal_spdifrx.c ****   /* Disable Cb DMA Request */
1083:Drivers/STM32F7xx_HAL_Driver/Src/stm32f7xx_hal_spdifrx.c ****   hspdif->Instance->CR &= (uint16_t)(~SPDIFRX_CR_CBDMAEN);
1084:Drivers/STM32F7xx_HAL_Driver/Src/stm32f7xx_hal_spdifrx.c ****   hspdif->CsXferCount = 0;
1085:Drivers/STM32F7xx_HAL_Driver/Src/stm32f7xx_hal_spdifrx.c ****   
1086:Drivers/STM32F7xx_HAL_Driver/Src/stm32f7xx_hal_spdifrx.c ****   hspdif->State = HAL_SPDIFRX_STATE_READY; 
1087:Drivers/STM32F7xx_HAL_Driver/Src/stm32f7xx_hal_spdifrx.c ****   HAL_SPDIFRX_CxCpltCallback(hspdif); 
1088:Drivers/STM32F7xx_HAL_Driver/Src/stm32f7xx_hal_spdifrx.c **** }
1089:Drivers/STM32F7xx_HAL_Driver/Src/stm32f7xx_hal_spdifrx.c **** 
1090:Drivers/STM32F7xx_HAL_Driver/Src/stm32f7xx_hal_spdifrx.c **** /**
1091:Drivers/STM32F7xx_HAL_Driver/Src/stm32f7xx_hal_spdifrx.c ****   * @brief DMA SPDIFRX receive process (Control flow) half complete callback 
1092:Drivers/STM32F7xx_HAL_Driver/Src/stm32f7xx_hal_spdifrx.c ****   * @param hdma  DMA handle
1093:Drivers/STM32F7xx_HAL_Driver/Src/stm32f7xx_hal_spdifrx.c ****   * @retval None
1094:Drivers/STM32F7xx_HAL_Driver/Src/stm32f7xx_hal_spdifrx.c ****   */
1095:Drivers/STM32F7xx_HAL_Driver/Src/stm32f7xx_hal_spdifrx.c **** static void SPDIFRX_DMACxHalfCplt(DMA_HandleTypeDef *hdma)
1096:Drivers/STM32F7xx_HAL_Driver/Src/stm32f7xx_hal_spdifrx.c **** {
1097:Drivers/STM32F7xx_HAL_Driver/Src/stm32f7xx_hal_spdifrx.c ****   SPDIFRX_HandleTypeDef* hspdif = (SPDIFRX_HandleTypeDef*)((DMA_HandleTypeDef*)hdma)->Parent;
1098:Drivers/STM32F7xx_HAL_Driver/Src/stm32f7xx_hal_spdifrx.c ****   
1099:Drivers/STM32F7xx_HAL_Driver/Src/stm32f7xx_hal_spdifrx.c ****   HAL_SPDIFRX_CxHalfCpltCallback(hspdif); 
1100:Drivers/STM32F7xx_HAL_Driver/Src/stm32f7xx_hal_spdifrx.c **** }
1101:Drivers/STM32F7xx_HAL_Driver/Src/stm32f7xx_hal_spdifrx.c **** 
1102:Drivers/STM32F7xx_HAL_Driver/Src/stm32f7xx_hal_spdifrx.c **** /**
1103:Drivers/STM32F7xx_HAL_Driver/Src/stm32f7xx_hal_spdifrx.c ****   * @brief DMA SPDIFRX communication error callback 
1104:Drivers/STM32F7xx_HAL_Driver/Src/stm32f7xx_hal_spdifrx.c ****   * @param hdma  DMA handle
1105:Drivers/STM32F7xx_HAL_Driver/Src/stm32f7xx_hal_spdifrx.c ****   * @retval None
1106:Drivers/STM32F7xx_HAL_Driver/Src/stm32f7xx_hal_spdifrx.c ****   */
1107:Drivers/STM32F7xx_HAL_Driver/Src/stm32f7xx_hal_spdifrx.c **** static void SPDIFRX_DMAError(DMA_HandleTypeDef *hdma)
1108:Drivers/STM32F7xx_HAL_Driver/Src/stm32f7xx_hal_spdifrx.c **** {
1109:Drivers/STM32F7xx_HAL_Driver/Src/stm32f7xx_hal_spdifrx.c ****   SPDIFRX_HandleTypeDef* hspdif = ( SPDIFRX_HandleTypeDef* )((DMA_HandleTypeDef* )hdma)->Parent;
1110:Drivers/STM32F7xx_HAL_Driver/Src/stm32f7xx_hal_spdifrx.c ****   
1111:Drivers/STM32F7xx_HAL_Driver/Src/stm32f7xx_hal_spdifrx.c ****   /* Disable Rx and Cb DMA Request */
1112:Drivers/STM32F7xx_HAL_Driver/Src/stm32f7xx_hal_spdifrx.c ****   hspdif->Instance->CR &= (uint16_t)(~(SPDIFRX_CR_RXDMAEN | SPDIFRX_CR_CBDMAEN));
1113:Drivers/STM32F7xx_HAL_Driver/Src/stm32f7xx_hal_spdifrx.c ****   hspdif->RxXferCount = 0;
1114:Drivers/STM32F7xx_HAL_Driver/Src/stm32f7xx_hal_spdifrx.c ****   
1115:Drivers/STM32F7xx_HAL_Driver/Src/stm32f7xx_hal_spdifrx.c ****   hspdif->State= HAL_SPDIFRX_STATE_READY;
ARM GAS  C:\Users\Patryk\AppData\Local\Temp\ccutd4KM.s 			page 21


1116:Drivers/STM32F7xx_HAL_Driver/Src/stm32f7xx_hal_spdifrx.c ****   
1117:Drivers/STM32F7xx_HAL_Driver/Src/stm32f7xx_hal_spdifrx.c ****   /* Set the error code and execute error callback*/
1118:Drivers/STM32F7xx_HAL_Driver/Src/stm32f7xx_hal_spdifrx.c ****   hspdif->ErrorCode |= HAL_SPDIFRX_ERROR_DMA;
1119:Drivers/STM32F7xx_HAL_Driver/Src/stm32f7xx_hal_spdifrx.c ****   HAL_SPDIFRX_ErrorCallback(hspdif);
1120:Drivers/STM32F7xx_HAL_Driver/Src/stm32f7xx_hal_spdifrx.c **** }
1121:Drivers/STM32F7xx_HAL_Driver/Src/stm32f7xx_hal_spdifrx.c **** 
1122:Drivers/STM32F7xx_HAL_Driver/Src/stm32f7xx_hal_spdifrx.c **** /**
1123:Drivers/STM32F7xx_HAL_Driver/Src/stm32f7xx_hal_spdifrx.c ****   * @brief Receive an amount of data (Data Flow) with Interrupt
1124:Drivers/STM32F7xx_HAL_Driver/Src/stm32f7xx_hal_spdifrx.c ****   * @param hspdif SPDIFRX handle
1125:Drivers/STM32F7xx_HAL_Driver/Src/stm32f7xx_hal_spdifrx.c ****   * @retval None
1126:Drivers/STM32F7xx_HAL_Driver/Src/stm32f7xx_hal_spdifrx.c ****   */
1127:Drivers/STM32F7xx_HAL_Driver/Src/stm32f7xx_hal_spdifrx.c **** static void SPDIFRX_ReceiveDataFlow_IT(SPDIFRX_HandleTypeDef *hspdif)
1128:Drivers/STM32F7xx_HAL_Driver/Src/stm32f7xx_hal_spdifrx.c **** {
1129:Drivers/STM32F7xx_HAL_Driver/Src/stm32f7xx_hal_spdifrx.c ****   /* Receive data */
1130:Drivers/STM32F7xx_HAL_Driver/Src/stm32f7xx_hal_spdifrx.c ****   (*hspdif->pRxBuffPtr++) = hspdif->Instance->DR;
1131:Drivers/STM32F7xx_HAL_Driver/Src/stm32f7xx_hal_spdifrx.c ****   hspdif->RxXferCount--;
1132:Drivers/STM32F7xx_HAL_Driver/Src/stm32f7xx_hal_spdifrx.c ****   
1133:Drivers/STM32F7xx_HAL_Driver/Src/stm32f7xx_hal_spdifrx.c ****   if(hspdif->RxXferCount == 0)
1134:Drivers/STM32F7xx_HAL_Driver/Src/stm32f7xx_hal_spdifrx.c ****   {            
1135:Drivers/STM32F7xx_HAL_Driver/Src/stm32f7xx_hal_spdifrx.c ****     /* Disable RXNE/PE and OVR interrupts */
1136:Drivers/STM32F7xx_HAL_Driver/Src/stm32f7xx_hal_spdifrx.c ****     __HAL_SPDIFRX_DISABLE_IT(hspdif, SPDIFRX_IT_OVRIE | SPDIFRX_IT_PERRIE | SPDIFRX_IT_RXNE);
1137:Drivers/STM32F7xx_HAL_Driver/Src/stm32f7xx_hal_spdifrx.c ****     
1138:Drivers/STM32F7xx_HAL_Driver/Src/stm32f7xx_hal_spdifrx.c ****     hspdif->State = HAL_SPDIFRX_STATE_READY;
1139:Drivers/STM32F7xx_HAL_Driver/Src/stm32f7xx_hal_spdifrx.c ****     
1140:Drivers/STM32F7xx_HAL_Driver/Src/stm32f7xx_hal_spdifrx.c ****     /* Process Unlocked */
1141:Drivers/STM32F7xx_HAL_Driver/Src/stm32f7xx_hal_spdifrx.c ****     __HAL_UNLOCK(hspdif);
1142:Drivers/STM32F7xx_HAL_Driver/Src/stm32f7xx_hal_spdifrx.c ****     
1143:Drivers/STM32F7xx_HAL_Driver/Src/stm32f7xx_hal_spdifrx.c ****     HAL_SPDIFRX_RxCpltCallback(hspdif);
1144:Drivers/STM32F7xx_HAL_Driver/Src/stm32f7xx_hal_spdifrx.c ****   }
1145:Drivers/STM32F7xx_HAL_Driver/Src/stm32f7xx_hal_spdifrx.c **** }
1146:Drivers/STM32F7xx_HAL_Driver/Src/stm32f7xx_hal_spdifrx.c **** 
1147:Drivers/STM32F7xx_HAL_Driver/Src/stm32f7xx_hal_spdifrx.c **** /**
1148:Drivers/STM32F7xx_HAL_Driver/Src/stm32f7xx_hal_spdifrx.c ****   * @brief Receive an amount of data (Control Flow) with Interrupt
1149:Drivers/STM32F7xx_HAL_Driver/Src/stm32f7xx_hal_spdifrx.c ****   * @param hspdif SPDIFRX handle
1150:Drivers/STM32F7xx_HAL_Driver/Src/stm32f7xx_hal_spdifrx.c ****   * @retval None
1151:Drivers/STM32F7xx_HAL_Driver/Src/stm32f7xx_hal_spdifrx.c ****   */
1152:Drivers/STM32F7xx_HAL_Driver/Src/stm32f7xx_hal_spdifrx.c **** static void SPDIFRX_ReceiveControlFlow_IT(SPDIFRX_HandleTypeDef *hspdif)
1153:Drivers/STM32F7xx_HAL_Driver/Src/stm32f7xx_hal_spdifrx.c **** {
1154:Drivers/STM32F7xx_HAL_Driver/Src/stm32f7xx_hal_spdifrx.c ****   /* Receive data */
1155:Drivers/STM32F7xx_HAL_Driver/Src/stm32f7xx_hal_spdifrx.c ****   (*hspdif->pCsBuffPtr++) = hspdif->Instance->CSR;
1156:Drivers/STM32F7xx_HAL_Driver/Src/stm32f7xx_hal_spdifrx.c ****   hspdif->CsXferCount--;
1157:Drivers/STM32F7xx_HAL_Driver/Src/stm32f7xx_hal_spdifrx.c ****   
1158:Drivers/STM32F7xx_HAL_Driver/Src/stm32f7xx_hal_spdifrx.c ****   if(hspdif->CsXferCount == 0)
1159:Drivers/STM32F7xx_HAL_Driver/Src/stm32f7xx_hal_spdifrx.c ****   {        
1160:Drivers/STM32F7xx_HAL_Driver/Src/stm32f7xx_hal_spdifrx.c ****     /* Disable CSRNE interrupt */
1161:Drivers/STM32F7xx_HAL_Driver/Src/stm32f7xx_hal_spdifrx.c ****     __HAL_SPDIFRX_DISABLE_IT(hspdif, SPDIFRX_IT_CSRNE);
1162:Drivers/STM32F7xx_HAL_Driver/Src/stm32f7xx_hal_spdifrx.c ****     
1163:Drivers/STM32F7xx_HAL_Driver/Src/stm32f7xx_hal_spdifrx.c ****     hspdif->State = HAL_SPDIFRX_STATE_READY; 
1164:Drivers/STM32F7xx_HAL_Driver/Src/stm32f7xx_hal_spdifrx.c ****     
1165:Drivers/STM32F7xx_HAL_Driver/Src/stm32f7xx_hal_spdifrx.c ****     /* Process Unlocked */
1166:Drivers/STM32F7xx_HAL_Driver/Src/stm32f7xx_hal_spdifrx.c ****     __HAL_UNLOCK(hspdif);
1167:Drivers/STM32F7xx_HAL_Driver/Src/stm32f7xx_hal_spdifrx.c ****     
1168:Drivers/STM32F7xx_HAL_Driver/Src/stm32f7xx_hal_spdifrx.c ****     HAL_SPDIFRX_CxCpltCallback(hspdif);
1169:Drivers/STM32F7xx_HAL_Driver/Src/stm32f7xx_hal_spdifrx.c ****   }
1170:Drivers/STM32F7xx_HAL_Driver/Src/stm32f7xx_hal_spdifrx.c **** }
1171:Drivers/STM32F7xx_HAL_Driver/Src/stm32f7xx_hal_spdifrx.c **** 
1172:Drivers/STM32F7xx_HAL_Driver/Src/stm32f7xx_hal_spdifrx.c **** /**
ARM GAS  C:\Users\Patryk\AppData\Local\Temp\ccutd4KM.s 			page 22


1173:Drivers/STM32F7xx_HAL_Driver/Src/stm32f7xx_hal_spdifrx.c ****   * @brief This function handles SPDIFRX Communication Timeout.
1174:Drivers/STM32F7xx_HAL_Driver/Src/stm32f7xx_hal_spdifrx.c ****   * @param hspdif SPDIFRX handle
1175:Drivers/STM32F7xx_HAL_Driver/Src/stm32f7xx_hal_spdifrx.c ****   * @param Flag Flag checked
1176:Drivers/STM32F7xx_HAL_Driver/Src/stm32f7xx_hal_spdifrx.c ****   * @param Status Value of the flag expected
1177:Drivers/STM32F7xx_HAL_Driver/Src/stm32f7xx_hal_spdifrx.c ****   * @param Timeout Duration of the timeout
1178:Drivers/STM32F7xx_HAL_Driver/Src/stm32f7xx_hal_spdifrx.c ****   * @param tickstart Tick start value
1179:Drivers/STM32F7xx_HAL_Driver/Src/stm32f7xx_hal_spdifrx.c ****   * @retval HAL status
1180:Drivers/STM32F7xx_HAL_Driver/Src/stm32f7xx_hal_spdifrx.c ****   */
1181:Drivers/STM32F7xx_HAL_Driver/Src/stm32f7xx_hal_spdifrx.c **** static HAL_StatusTypeDef SPDIFRX_WaitOnFlagUntilTimeout(SPDIFRX_HandleTypeDef *hspdif, uint32_t Fla
1182:Drivers/STM32F7xx_HAL_Driver/Src/stm32f7xx_hal_spdifrx.c **** {
  27              		.loc 1 1182 0
  28              		.cfi_startproc
  29              		@ args = 4, pretend = 0, frame = 0
  30              		@ frame_needed = 0, uses_anonymous_args = 0
  31              	.LVL0:
  32 0000 70B5     		push	{r4, r5, r6, lr}
  33              	.LCFI0:
  34              		.cfi_def_cfa_offset 16
  35              		.cfi_offset 4, -16
  36              		.cfi_offset 5, -12
  37              		.cfi_offset 6, -8
  38              		.cfi_offset 14, -4
  39 0002 0546     		mov	r5, r0
  40 0004 0E46     		mov	r6, r1
  41 0006 1C46     		mov	r4, r3
1183:Drivers/STM32F7xx_HAL_Driver/Src/stm32f7xx_hal_spdifrx.c ****   /* Wait until flag is set */
1184:Drivers/STM32F7xx_HAL_Driver/Src/stm32f7xx_hal_spdifrx.c ****   if(Status == RESET)
  42              		.loc 1 1184 0
  43 0008 002A     		cmp	r2, #0
  44 000a 48D0     		beq	.L4
  45              	.LVL1:
  46              	.L8:
1185:Drivers/STM32F7xx_HAL_Driver/Src/stm32f7xx_hal_spdifrx.c ****   {
1186:Drivers/STM32F7xx_HAL_Driver/Src/stm32f7xx_hal_spdifrx.c ****     while(__HAL_SPDIFRX_GET_FLAG(hspdif, Flag) == RESET)
1187:Drivers/STM32F7xx_HAL_Driver/Src/stm32f7xx_hal_spdifrx.c ****     {
1188:Drivers/STM32F7xx_HAL_Driver/Src/stm32f7xx_hal_spdifrx.c ****       /* Check for the Timeout */
1189:Drivers/STM32F7xx_HAL_Driver/Src/stm32f7xx_hal_spdifrx.c ****       if(Timeout != HAL_MAX_DELAY)
1190:Drivers/STM32F7xx_HAL_Driver/Src/stm32f7xx_hal_spdifrx.c ****       {
1191:Drivers/STM32F7xx_HAL_Driver/Src/stm32f7xx_hal_spdifrx.c ****         if((Timeout == 0U)||((HAL_GetTick() - tickstart ) > Timeout))
1192:Drivers/STM32F7xx_HAL_Driver/Src/stm32f7xx_hal_spdifrx.c ****         {
1193:Drivers/STM32F7xx_HAL_Driver/Src/stm32f7xx_hal_spdifrx.c ****           /* Disable TXE, RXNE, PE and ERR (Frame error, noise error, overrun error) interrupts for
1194:Drivers/STM32F7xx_HAL_Driver/Src/stm32f7xx_hal_spdifrx.c ****           __HAL_SPDIFRX_DISABLE_IT(hspdif, SPDIFRX_IT_RXNE);
1195:Drivers/STM32F7xx_HAL_Driver/Src/stm32f7xx_hal_spdifrx.c ****           __HAL_SPDIFRX_DISABLE_IT(hspdif, SPDIFRX_IT_CSRNE);
1196:Drivers/STM32F7xx_HAL_Driver/Src/stm32f7xx_hal_spdifrx.c ****           __HAL_SPDIFRX_DISABLE_IT(hspdif, SPDIFRX_IT_PERRIE);
1197:Drivers/STM32F7xx_HAL_Driver/Src/stm32f7xx_hal_spdifrx.c ****           __HAL_SPDIFRX_DISABLE_IT(hspdif, SPDIFRX_IT_OVRIE);
1198:Drivers/STM32F7xx_HAL_Driver/Src/stm32f7xx_hal_spdifrx.c ****           __HAL_SPDIFRX_DISABLE_IT(hspdif, SPDIFRX_IT_SBLKIE);
1199:Drivers/STM32F7xx_HAL_Driver/Src/stm32f7xx_hal_spdifrx.c ****           __HAL_SPDIFRX_DISABLE_IT(hspdif, SPDIFRX_IT_SYNCDIE);
1200:Drivers/STM32F7xx_HAL_Driver/Src/stm32f7xx_hal_spdifrx.c ****           __HAL_SPDIFRX_DISABLE_IT(hspdif, SPDIFRX_IT_IFEIE);
1201:Drivers/STM32F7xx_HAL_Driver/Src/stm32f7xx_hal_spdifrx.c ****           
1202:Drivers/STM32F7xx_HAL_Driver/Src/stm32f7xx_hal_spdifrx.c ****           hspdif->State= HAL_SPDIFRX_STATE_READY;
1203:Drivers/STM32F7xx_HAL_Driver/Src/stm32f7xx_hal_spdifrx.c ****           
1204:Drivers/STM32F7xx_HAL_Driver/Src/stm32f7xx_hal_spdifrx.c ****           /* Process Unlocked */
1205:Drivers/STM32F7xx_HAL_Driver/Src/stm32f7xx_hal_spdifrx.c ****           __HAL_UNLOCK(hspdif);
1206:Drivers/STM32F7xx_HAL_Driver/Src/stm32f7xx_hal_spdifrx.c ****           
1207:Drivers/STM32F7xx_HAL_Driver/Src/stm32f7xx_hal_spdifrx.c ****           return HAL_TIMEOUT;
1208:Drivers/STM32F7xx_HAL_Driver/Src/stm32f7xx_hal_spdifrx.c ****         }
1209:Drivers/STM32F7xx_HAL_Driver/Src/stm32f7xx_hal_spdifrx.c ****       }
ARM GAS  C:\Users\Patryk\AppData\Local\Temp\ccutd4KM.s 			page 23


1210:Drivers/STM32F7xx_HAL_Driver/Src/stm32f7xx_hal_spdifrx.c ****     }
1211:Drivers/STM32F7xx_HAL_Driver/Src/stm32f7xx_hal_spdifrx.c ****   }
1212:Drivers/STM32F7xx_HAL_Driver/Src/stm32f7xx_hal_spdifrx.c ****   else
1213:Drivers/STM32F7xx_HAL_Driver/Src/stm32f7xx_hal_spdifrx.c ****   {
1214:Drivers/STM32F7xx_HAL_Driver/Src/stm32f7xx_hal_spdifrx.c ****     while(__HAL_SPDIFRX_GET_FLAG(hspdif, Flag) != RESET)
  47              		.loc 1 1214 0
  48 000c 2B68     		ldr	r3, [r5]
  49 000e 9B68     		ldr	r3, [r3, #8]
  50 0010 36EA0303 		bics	r3, r6, r3
  51 0014 40F08D80 		bne	.L12
1215:Drivers/STM32F7xx_HAL_Driver/Src/stm32f7xx_hal_spdifrx.c ****     {
1216:Drivers/STM32F7xx_HAL_Driver/Src/stm32f7xx_hal_spdifrx.c ****       /* Check for the Timeout */
1217:Drivers/STM32F7xx_HAL_Driver/Src/stm32f7xx_hal_spdifrx.c ****       if(Timeout != HAL_MAX_DELAY)
  52              		.loc 1 1217 0
  53 0018 B4F1FF3F 		cmp	r4, #-1
  54 001c F6D0     		beq	.L8
1218:Drivers/STM32F7xx_HAL_Driver/Src/stm32f7xx_hal_spdifrx.c ****       {
1219:Drivers/STM32F7xx_HAL_Driver/Src/stm32f7xx_hal_spdifrx.c ****         if((Timeout == 0U)||((HAL_GetTick() - tickstart ) > Timeout))
  55              		.loc 1 1219 0
  56 001e 2CB1     		cbz	r4, .L9
  57              		.loc 1 1219 0 is_stmt 0 discriminator 1
  58 0020 FFF7FEFF 		bl	HAL_GetTick
  59              	.LVL2:
  60 0024 049B     		ldr	r3, [sp, #16]
  61 0026 C01A     		subs	r0, r0, r3
  62 0028 A042     		cmp	r0, r4
  63 002a EFD9     		bls	.L8
  64              	.L9:
1220:Drivers/STM32F7xx_HAL_Driver/Src/stm32f7xx_hal_spdifrx.c ****         {
1221:Drivers/STM32F7xx_HAL_Driver/Src/stm32f7xx_hal_spdifrx.c ****           /* Disable TXE, RXNE, PE and ERR (Frame error, noise error, overrun error) interrupts for
1222:Drivers/STM32F7xx_HAL_Driver/Src/stm32f7xx_hal_spdifrx.c ****           __HAL_SPDIFRX_DISABLE_IT(hspdif, SPDIFRX_IT_RXNE);
  65              		.loc 1 1222 0 is_stmt 1
  66 002c 2A68     		ldr	r2, [r5]
  67 002e 5368     		ldr	r3, [r2, #4]
  68 0030 23F00103 		bic	r3, r3, #1
  69 0034 1B04     		lsls	r3, r3, #16
  70 0036 1B0C     		lsrs	r3, r3, #16
  71 0038 5360     		str	r3, [r2, #4]
1223:Drivers/STM32F7xx_HAL_Driver/Src/stm32f7xx_hal_spdifrx.c ****           __HAL_SPDIFRX_DISABLE_IT(hspdif, SPDIFRX_IT_CSRNE);
  72              		.loc 1 1223 0
  73 003a 2A68     		ldr	r2, [r5]
  74 003c 5368     		ldr	r3, [r2, #4]
  75 003e 23F00203 		bic	r3, r3, #2
  76 0042 1B04     		lsls	r3, r3, #16
  77 0044 1B0C     		lsrs	r3, r3, #16
  78 0046 5360     		str	r3, [r2, #4]
1224:Drivers/STM32F7xx_HAL_Driver/Src/stm32f7xx_hal_spdifrx.c ****           __HAL_SPDIFRX_DISABLE_IT(hspdif, SPDIFRX_IT_PERRIE);
  79              		.loc 1 1224 0
  80 0048 2A68     		ldr	r2, [r5]
  81 004a 5368     		ldr	r3, [r2, #4]
  82 004c 23F00403 		bic	r3, r3, #4
  83 0050 1B04     		lsls	r3, r3, #16
  84 0052 1B0C     		lsrs	r3, r3, #16
  85 0054 5360     		str	r3, [r2, #4]
1225:Drivers/STM32F7xx_HAL_Driver/Src/stm32f7xx_hal_spdifrx.c ****           __HAL_SPDIFRX_DISABLE_IT(hspdif, SPDIFRX_IT_OVRIE);
  86              		.loc 1 1225 0
  87 0056 2A68     		ldr	r2, [r5]
ARM GAS  C:\Users\Patryk\AppData\Local\Temp\ccutd4KM.s 			page 24


  88 0058 5368     		ldr	r3, [r2, #4]
  89 005a 23F00803 		bic	r3, r3, #8
  90 005e 1B04     		lsls	r3, r3, #16
  91 0060 1B0C     		lsrs	r3, r3, #16
  92 0062 5360     		str	r3, [r2, #4]
1226:Drivers/STM32F7xx_HAL_Driver/Src/stm32f7xx_hal_spdifrx.c ****           __HAL_SPDIFRX_DISABLE_IT(hspdif, SPDIFRX_IT_SBLKIE);
  93              		.loc 1 1226 0
  94 0064 2A68     		ldr	r2, [r5]
  95 0066 5368     		ldr	r3, [r2, #4]
  96 0068 23F01003 		bic	r3, r3, #16
  97 006c 1B04     		lsls	r3, r3, #16
  98 006e 1B0C     		lsrs	r3, r3, #16
  99 0070 5360     		str	r3, [r2, #4]
1227:Drivers/STM32F7xx_HAL_Driver/Src/stm32f7xx_hal_spdifrx.c ****           __HAL_SPDIFRX_DISABLE_IT(hspdif, SPDIFRX_IT_SYNCDIE);
 100              		.loc 1 1227 0
 101 0072 2A68     		ldr	r2, [r5]
 102 0074 5368     		ldr	r3, [r2, #4]
 103 0076 23F02003 		bic	r3, r3, #32
 104 007a 1B04     		lsls	r3, r3, #16
 105 007c 1B0C     		lsrs	r3, r3, #16
 106 007e 5360     		str	r3, [r2, #4]
1228:Drivers/STM32F7xx_HAL_Driver/Src/stm32f7xx_hal_spdifrx.c ****           __HAL_SPDIFRX_DISABLE_IT(hspdif, SPDIFRX_IT_IFEIE);
 107              		.loc 1 1228 0
 108 0080 2A68     		ldr	r2, [r5]
 109 0082 5368     		ldr	r3, [r2, #4]
 110 0084 23F04003 		bic	r3, r3, #64
 111 0088 1B04     		lsls	r3, r3, #16
 112 008a 1B0C     		lsrs	r3, r3, #16
 113 008c 5360     		str	r3, [r2, #4]
1229:Drivers/STM32F7xx_HAL_Driver/Src/stm32f7xx_hal_spdifrx.c ****           
1230:Drivers/STM32F7xx_HAL_Driver/Src/stm32f7xx_hal_spdifrx.c ****           hspdif->State= HAL_SPDIFRX_STATE_READY;
 114              		.loc 1 1230 0
 115 008e 0123     		movs	r3, #1
 116 0090 85F84530 		strb	r3, [r5, #69]
1231:Drivers/STM32F7xx_HAL_Driver/Src/stm32f7xx_hal_spdifrx.c ****           
1232:Drivers/STM32F7xx_HAL_Driver/Src/stm32f7xx_hal_spdifrx.c ****           /* Process Unlocked */
1233:Drivers/STM32F7xx_HAL_Driver/Src/stm32f7xx_hal_spdifrx.c ****           __HAL_UNLOCK(hspdif);
 117              		.loc 1 1233 0
 118 0094 0023     		movs	r3, #0
 119 0096 85F84430 		strb	r3, [r5, #68]
1234:Drivers/STM32F7xx_HAL_Driver/Src/stm32f7xx_hal_spdifrx.c ****           
1235:Drivers/STM32F7xx_HAL_Driver/Src/stm32f7xx_hal_spdifrx.c ****           return HAL_TIMEOUT;
 120              		.loc 1 1235 0
 121 009a 0320     		movs	r0, #3
 122 009c 48E0     		b	.L6
 123              	.L4:
1186:Drivers/STM32F7xx_HAL_Driver/Src/stm32f7xx_hal_spdifrx.c ****     {
 124              		.loc 1 1186 0
 125 009e 2B68     		ldr	r3, [r5]
 126 00a0 9B68     		ldr	r3, [r3, #8]
 127 00a2 36EA0303 		bics	r3, r6, r3
 128 00a6 42D0     		beq	.L13
1189:Drivers/STM32F7xx_HAL_Driver/Src/stm32f7xx_hal_spdifrx.c ****       {
 129              		.loc 1 1189 0
 130 00a8 B4F1FF3F 		cmp	r4, #-1
 131 00ac F7D0     		beq	.L4
1191:Drivers/STM32F7xx_HAL_Driver/Src/stm32f7xx_hal_spdifrx.c ****         {
ARM GAS  C:\Users\Patryk\AppData\Local\Temp\ccutd4KM.s 			page 25


 132              		.loc 1 1191 0
 133 00ae 2CB1     		cbz	r4, .L5
1191:Drivers/STM32F7xx_HAL_Driver/Src/stm32f7xx_hal_spdifrx.c ****         {
 134              		.loc 1 1191 0 is_stmt 0 discriminator 1
 135 00b0 FFF7FEFF 		bl	HAL_GetTick
 136              	.LVL3:
 137 00b4 049B     		ldr	r3, [sp, #16]
 138 00b6 C01A     		subs	r0, r0, r3
 139 00b8 A042     		cmp	r0, r4
 140 00ba F0D9     		bls	.L4
 141              	.L5:
1194:Drivers/STM32F7xx_HAL_Driver/Src/stm32f7xx_hal_spdifrx.c ****           __HAL_SPDIFRX_DISABLE_IT(hspdif, SPDIFRX_IT_CSRNE);
 142              		.loc 1 1194 0 is_stmt 1
 143 00bc 2A68     		ldr	r2, [r5]
 144 00be 5368     		ldr	r3, [r2, #4]
 145 00c0 23F00103 		bic	r3, r3, #1
 146 00c4 1B04     		lsls	r3, r3, #16
 147 00c6 1B0C     		lsrs	r3, r3, #16
 148 00c8 5360     		str	r3, [r2, #4]
1195:Drivers/STM32F7xx_HAL_Driver/Src/stm32f7xx_hal_spdifrx.c ****           __HAL_SPDIFRX_DISABLE_IT(hspdif, SPDIFRX_IT_PERRIE);
 149              		.loc 1 1195 0
 150 00ca 2A68     		ldr	r2, [r5]
 151 00cc 5368     		ldr	r3, [r2, #4]
 152 00ce 23F00203 		bic	r3, r3, #2
 153 00d2 1B04     		lsls	r3, r3, #16
 154 00d4 1B0C     		lsrs	r3, r3, #16
 155 00d6 5360     		str	r3, [r2, #4]
1196:Drivers/STM32F7xx_HAL_Driver/Src/stm32f7xx_hal_spdifrx.c ****           __HAL_SPDIFRX_DISABLE_IT(hspdif, SPDIFRX_IT_OVRIE);
 156              		.loc 1 1196 0
 157 00d8 2A68     		ldr	r2, [r5]
 158 00da 5368     		ldr	r3, [r2, #4]
 159 00dc 23F00403 		bic	r3, r3, #4
 160 00e0 1B04     		lsls	r3, r3, #16
 161 00e2 1B0C     		lsrs	r3, r3, #16
 162 00e4 5360     		str	r3, [r2, #4]
1197:Drivers/STM32F7xx_HAL_Driver/Src/stm32f7xx_hal_spdifrx.c ****           __HAL_SPDIFRX_DISABLE_IT(hspdif, SPDIFRX_IT_SBLKIE);
 163              		.loc 1 1197 0
 164 00e6 2A68     		ldr	r2, [r5]
 165 00e8 5368     		ldr	r3, [r2, #4]
 166 00ea 23F00803 		bic	r3, r3, #8
 167 00ee 1B04     		lsls	r3, r3, #16
 168 00f0 1B0C     		lsrs	r3, r3, #16
 169 00f2 5360     		str	r3, [r2, #4]
1198:Drivers/STM32F7xx_HAL_Driver/Src/stm32f7xx_hal_spdifrx.c ****           __HAL_SPDIFRX_DISABLE_IT(hspdif, SPDIFRX_IT_SYNCDIE);
 170              		.loc 1 1198 0
 171 00f4 2A68     		ldr	r2, [r5]
 172 00f6 5368     		ldr	r3, [r2, #4]
 173 00f8 23F01003 		bic	r3, r3, #16
 174 00fc 1B04     		lsls	r3, r3, #16
 175 00fe 1B0C     		lsrs	r3, r3, #16
 176 0100 5360     		str	r3, [r2, #4]
1199:Drivers/STM32F7xx_HAL_Driver/Src/stm32f7xx_hal_spdifrx.c ****           __HAL_SPDIFRX_DISABLE_IT(hspdif, SPDIFRX_IT_IFEIE);
 177              		.loc 1 1199 0
 178 0102 2A68     		ldr	r2, [r5]
 179 0104 5368     		ldr	r3, [r2, #4]
 180 0106 23F02003 		bic	r3, r3, #32
 181 010a 1B04     		lsls	r3, r3, #16
ARM GAS  C:\Users\Patryk\AppData\Local\Temp\ccutd4KM.s 			page 26


 182 010c 1B0C     		lsrs	r3, r3, #16
 183 010e 5360     		str	r3, [r2, #4]
1200:Drivers/STM32F7xx_HAL_Driver/Src/stm32f7xx_hal_spdifrx.c ****           
 184              		.loc 1 1200 0
 185 0110 2A68     		ldr	r2, [r5]
 186 0112 5368     		ldr	r3, [r2, #4]
 187 0114 23F04003 		bic	r3, r3, #64
 188 0118 1B04     		lsls	r3, r3, #16
 189 011a 1B0C     		lsrs	r3, r3, #16
 190 011c 5360     		str	r3, [r2, #4]
1202:Drivers/STM32F7xx_HAL_Driver/Src/stm32f7xx_hal_spdifrx.c ****           
 191              		.loc 1 1202 0
 192 011e 0123     		movs	r3, #1
 193 0120 85F84530 		strb	r3, [r5, #69]
1205:Drivers/STM32F7xx_HAL_Driver/Src/stm32f7xx_hal_spdifrx.c ****           
 194              		.loc 1 1205 0
 195 0124 0023     		movs	r3, #0
 196 0126 85F84430 		strb	r3, [r5, #68]
1207:Drivers/STM32F7xx_HAL_Driver/Src/stm32f7xx_hal_spdifrx.c ****         }
 197              		.loc 1 1207 0
 198 012a 0320     		movs	r0, #3
 199 012c 00E0     		b	.L6
 200              	.L13:
1236:Drivers/STM32F7xx_HAL_Driver/Src/stm32f7xx_hal_spdifrx.c ****         }
1237:Drivers/STM32F7xx_HAL_Driver/Src/stm32f7xx_hal_spdifrx.c ****       }
1238:Drivers/STM32F7xx_HAL_Driver/Src/stm32f7xx_hal_spdifrx.c ****     }
1239:Drivers/STM32F7xx_HAL_Driver/Src/stm32f7xx_hal_spdifrx.c ****   }
1240:Drivers/STM32F7xx_HAL_Driver/Src/stm32f7xx_hal_spdifrx.c ****   return HAL_OK;
 201              		.loc 1 1240 0
 202 012e 0020     		movs	r0, #0
 203              	.L6:
1241:Drivers/STM32F7xx_HAL_Driver/Src/stm32f7xx_hal_spdifrx.c **** }
 204              		.loc 1 1241 0
 205 0130 70BD     		pop	{r4, r5, r6, pc}
 206              	.LVL4:
 207              	.L12:
1240:Drivers/STM32F7xx_HAL_Driver/Src/stm32f7xx_hal_spdifrx.c **** }
 208              		.loc 1 1240 0
 209 0132 0020     		movs	r0, #0
 210 0134 FCE7     		b	.L6
 211              		.cfi_endproc
 212              	.LFE165:
 214              		.section	.text.HAL_SPDIFRX_MspInit,"ax",%progbits
 215              		.align	1
 216              		.weak	HAL_SPDIFRX_MspInit
 217              		.syntax unified
 218              		.thumb
 219              		.thumb_func
 220              		.fpu fpv5-sp-d16
 222              	HAL_SPDIFRX_MspInit:
 223              	.LFB140:
 304:Drivers/STM32F7xx_HAL_Driver/Src/stm32f7xx_hal_spdifrx.c ****   /* Prevent unused argument(s) compilation warning */
 224              		.loc 1 304 0
 225              		.cfi_startproc
 226              		@ args = 0, pretend = 0, frame = 0
 227              		@ frame_needed = 0, uses_anonymous_args = 0
 228              		@ link register save eliminated.
ARM GAS  C:\Users\Patryk\AppData\Local\Temp\ccutd4KM.s 			page 27


 229              	.LVL5:
 311:Drivers/STM32F7xx_HAL_Driver/Src/stm32f7xx_hal_spdifrx.c **** 
 230              		.loc 1 311 0
 231 0000 7047     		bx	lr
 232              		.cfi_endproc
 233              	.LFE140:
 235              		.section	.text.HAL_SPDIFRX_Init,"ax",%progbits
 236              		.align	1
 237              		.global	HAL_SPDIFRX_Init
 238              		.syntax unified
 239              		.thumb
 240              		.thumb_func
 241              		.fpu fpv5-sp-d16
 243              	HAL_SPDIFRX_Init:
 244              	.LFB138:
 199:Drivers/STM32F7xx_HAL_Driver/Src/stm32f7xx_hal_spdifrx.c ****   uint32_t tmpreg = 0;
 245              		.loc 1 199 0
 246              		.cfi_startproc
 247              		@ args = 0, pretend = 0, frame = 0
 248              		@ frame_needed = 0, uses_anonymous_args = 0
 249              	.LVL6:
 203:Drivers/STM32F7xx_HAL_Driver/Src/stm32f7xx_hal_spdifrx.c ****   {
 250              		.loc 1 203 0
 251 0000 0028     		cmp	r0, #0
 252 0002 30D0     		beq	.L18
 199:Drivers/STM32F7xx_HAL_Driver/Src/stm32f7xx_hal_spdifrx.c ****   uint32_t tmpreg = 0;
 253              		.loc 1 199 0
 254 0004 10B5     		push	{r4, lr}
 255              	.LCFI1:
 256              		.cfi_def_cfa_offset 8
 257              		.cfi_offset 4, -8
 258              		.cfi_offset 14, -4
 259 0006 0446     		mov	r4, r0
 220:Drivers/STM32F7xx_HAL_Driver/Src/stm32f7xx_hal_spdifrx.c ****   {
 260              		.loc 1 220 0
 261 0008 90F84530 		ldrb	r3, [r0, #69]	@ zero_extendqisi2
 262 000c 33B3     		cbz	r3, .L23
 263              	.LVL7:
 264              	.L17:
 229:Drivers/STM32F7xx_HAL_Driver/Src/stm32f7xx_hal_spdifrx.c ****   
 265              		.loc 1 229 0
 266 000e 0223     		movs	r3, #2
 267 0010 84F84530 		strb	r3, [r4, #69]
 232:Drivers/STM32F7xx_HAL_Driver/Src/stm32f7xx_hal_spdifrx.c ****   
 268              		.loc 1 232 0
 269 0014 2268     		ldr	r2, [r4]
 270 0016 1368     		ldr	r3, [r2]
 271 0018 23F00303 		bic	r3, r3, #3
 272 001c 1360     		str	r3, [r2]
 235:Drivers/STM32F7xx_HAL_Driver/Src/stm32f7xx_hal_spdifrx.c ****   
 273              		.loc 1 235 0
 274 001e 2168     		ldr	r1, [r4]
 275 0020 0B68     		ldr	r3, [r1]
 276              	.LVL8:
 237:Drivers/STM32F7xx_HAL_Driver/Src/stm32f7xx_hal_spdifrx.c ****               SPDIFRX_CR_VMSK | SPDIFRX_CR_CUMSK | SPDIFRX_CR_PTMSK  |
 277              		.loc 1 237 0
 278 0022 124A     		ldr	r2, .L24
ARM GAS  C:\Users\Patryk\AppData\Local\Temp\ccutd4KM.s 			page 28


 279 0024 1A40     		ands	r2, r2, r3
 280              	.LVL9:
 243:Drivers/STM32F7xx_HAL_Driver/Src/stm32f7xx_hal_spdifrx.c ****              hspdif->Init.Retries |
 281              		.loc 1 243 0
 282 0026 6068     		ldr	r0, [r4, #4]
 242:Drivers/STM32F7xx_HAL_Driver/Src/stm32f7xx_hal_spdifrx.c ****              hspdif->Init.InputSelection |
 283              		.loc 1 242 0
 284 0028 238B     		ldrh	r3, [r4, #24]
 285 002a 0343     		orrs	r3, r3, r0
 244:Drivers/STM32F7xx_HAL_Driver/Src/stm32f7xx_hal_spdifrx.c ****              hspdif->Init.WaitForActivity |
 286              		.loc 1 244 0
 287 002c A068     		ldr	r0, [r4, #8]
 243:Drivers/STM32F7xx_HAL_Driver/Src/stm32f7xx_hal_spdifrx.c ****              hspdif->Init.Retries |
 288              		.loc 1 243 0
 289 002e 0343     		orrs	r3, r3, r0
 245:Drivers/STM32F7xx_HAL_Driver/Src/stm32f7xx_hal_spdifrx.c ****              hspdif->Init.ChannelSelection |
 290              		.loc 1 245 0
 291 0030 E068     		ldr	r0, [r4, #12]
 244:Drivers/STM32F7xx_HAL_Driver/Src/stm32f7xx_hal_spdifrx.c ****              hspdif->Init.WaitForActivity |
 292              		.loc 1 244 0
 293 0032 0343     		orrs	r3, r3, r0
 246:Drivers/STM32F7xx_HAL_Driver/Src/stm32f7xx_hal_spdifrx.c ****              hspdif->Init.DataFormat |
 294              		.loc 1 246 0
 295 0034 2069     		ldr	r0, [r4, #16]
 245:Drivers/STM32F7xx_HAL_Driver/Src/stm32f7xx_hal_spdifrx.c ****              hspdif->Init.ChannelSelection |
 296              		.loc 1 245 0
 297 0036 0343     		orrs	r3, r3, r0
 247:Drivers/STM32F7xx_HAL_Driver/Src/stm32f7xx_hal_spdifrx.c ****              hspdif->Init.PreambleTypeMask |
 298              		.loc 1 247 0
 299 0038 6069     		ldr	r0, [r4, #20]
 246:Drivers/STM32F7xx_HAL_Driver/Src/stm32f7xx_hal_spdifrx.c ****              hspdif->Init.DataFormat |
 300              		.loc 1 246 0
 301 003a 0343     		orrs	r3, r3, r0
 248:Drivers/STM32F7xx_HAL_Driver/Src/stm32f7xx_hal_spdifrx.c ****              hspdif->Init.ChannelStatusMask |
 302              		.loc 1 248 0
 303 003c E069     		ldr	r0, [r4, #28]
 247:Drivers/STM32F7xx_HAL_Driver/Src/stm32f7xx_hal_spdifrx.c ****              hspdif->Init.PreambleTypeMask |
 304              		.loc 1 247 0
 305 003e 0343     		orrs	r3, r3, r0
 249:Drivers/STM32F7xx_HAL_Driver/Src/stm32f7xx_hal_spdifrx.c ****              hspdif->Init.ValidityBitMask |
 306              		.loc 1 249 0
 307 0040 206A     		ldr	r0, [r4, #32]
 248:Drivers/STM32F7xx_HAL_Driver/Src/stm32f7xx_hal_spdifrx.c ****              hspdif->Init.ChannelStatusMask |
 308              		.loc 1 248 0
 309 0042 0343     		orrs	r3, r3, r0
 250:Drivers/STM32F7xx_HAL_Driver/Src/stm32f7xx_hal_spdifrx.c ****              hspdif->Init.ParityErrorMask);
 310              		.loc 1 250 0
 311 0044 606A     		ldr	r0, [r4, #36]
 249:Drivers/STM32F7xx_HAL_Driver/Src/stm32f7xx_hal_spdifrx.c ****              hspdif->Init.ValidityBitMask |
 312              		.loc 1 249 0
 313 0046 0343     		orrs	r3, r3, r0
 251:Drivers/STM32F7xx_HAL_Driver/Src/stm32f7xx_hal_spdifrx.c ****   
 314              		.loc 1 251 0
 315 0048 A06A     		ldr	r0, [r4, #40]
 250:Drivers/STM32F7xx_HAL_Driver/Src/stm32f7xx_hal_spdifrx.c ****              hspdif->Init.ParityErrorMask);
 316              		.loc 1 250 0
 317 004a 0343     		orrs	r3, r3, r0
ARM GAS  C:\Users\Patryk\AppData\Local\Temp\ccutd4KM.s 			page 29


 242:Drivers/STM32F7xx_HAL_Driver/Src/stm32f7xx_hal_spdifrx.c ****              hspdif->Init.InputSelection |
 318              		.loc 1 242 0
 319 004c 1343     		orrs	r3, r3, r2
 320              	.LVL10:
 253:Drivers/STM32F7xx_HAL_Driver/Src/stm32f7xx_hal_spdifrx.c ****   
 321              		.loc 1 253 0
 322 004e 0B60     		str	r3, [r1]
 255:Drivers/STM32F7xx_HAL_Driver/Src/stm32f7xx_hal_spdifrx.c ****   
 323              		.loc 1 255 0
 324 0050 0020     		movs	r0, #0
 325 0052 A064     		str	r0, [r4, #72]
 258:Drivers/STM32F7xx_HAL_Driver/Src/stm32f7xx_hal_spdifrx.c ****   
 326              		.loc 1 258 0
 327 0054 0123     		movs	r3, #1
 328              	.LVL11:
 329 0056 84F84530 		strb	r3, [r4, #69]
 261:Drivers/STM32F7xx_HAL_Driver/Src/stm32f7xx_hal_spdifrx.c **** 
 330              		.loc 1 261 0
 331 005a 10BD     		pop	{r4, pc}
 332              	.LVL12:
 333              	.L23:
 223:Drivers/STM32F7xx_HAL_Driver/Src/stm32f7xx_hal_spdifrx.c ****     /* Init the low level hardware : GPIO, CLOCK, CORTEX...etc */
 334              		.loc 1 223 0
 335 005c 80F84430 		strb	r3, [r0, #68]
 225:Drivers/STM32F7xx_HAL_Driver/Src/stm32f7xx_hal_spdifrx.c ****   }
 336              		.loc 1 225 0
 337 0060 FFF7FEFF 		bl	HAL_SPDIFRX_MspInit
 338              	.LVL13:
 339 0064 D3E7     		b	.L17
 340              	.LVL14:
 341              	.L18:
 342              	.LCFI2:
 343              		.cfi_def_cfa_offset 0
 344              		.cfi_restore 4
 345              		.cfi_restore 14
 205:Drivers/STM32F7xx_HAL_Driver/Src/stm32f7xx_hal_spdifrx.c ****   }
 346              		.loc 1 205 0
 347 0066 0120     		movs	r0, #1
 348              	.LVL15:
 261:Drivers/STM32F7xx_HAL_Driver/Src/stm32f7xx_hal_spdifrx.c **** 
 349              		.loc 1 261 0
 350 0068 7047     		bx	lr
 351              	.L25:
 352 006a 00BF     		.align	2
 353              	.L24:
 354 006c 0784F8FF 		.word	-490489
 355              		.cfi_endproc
 356              	.LFE138:
 358              		.section	.text.HAL_SPDIFRX_MspDeInit,"ax",%progbits
 359              		.align	1
 360              		.weak	HAL_SPDIFRX_MspDeInit
 361              		.syntax unified
 362              		.thumb
 363              		.thumb_func
 364              		.fpu fpv5-sp-d16
 366              	HAL_SPDIFRX_MspDeInit:
 367              	.LFB141:
ARM GAS  C:\Users\Patryk\AppData\Local\Temp\ccutd4KM.s 			page 30


 319:Drivers/STM32F7xx_HAL_Driver/Src/stm32f7xx_hal_spdifrx.c ****   /* Prevent unused argument(s) compilation warning */
 368              		.loc 1 319 0
 369              		.cfi_startproc
 370              		@ args = 0, pretend = 0, frame = 0
 371              		@ frame_needed = 0, uses_anonymous_args = 0
 372              		@ link register save eliminated.
 373              	.LVL16:
 326:Drivers/STM32F7xx_HAL_Driver/Src/stm32f7xx_hal_spdifrx.c **** 
 374              		.loc 1 326 0
 375 0000 7047     		bx	lr
 376              		.cfi_endproc
 377              	.LFE141:
 379              		.section	.text.HAL_SPDIFRX_DeInit,"ax",%progbits
 380              		.align	1
 381              		.global	HAL_SPDIFRX_DeInit
 382              		.syntax unified
 383              		.thumb
 384              		.thumb_func
 385              		.fpu fpv5-sp-d16
 387              	HAL_SPDIFRX_DeInit:
 388              	.LFB139:
 269:Drivers/STM32F7xx_HAL_Driver/Src/stm32f7xx_hal_spdifrx.c ****   /* Check the SPDIFRX handle allocation */
 389              		.loc 1 269 0
 390              		.cfi_startproc
 391              		@ args = 0, pretend = 0, frame = 0
 392              		@ frame_needed = 0, uses_anonymous_args = 0
 393              	.LVL17:
 271:Drivers/STM32F7xx_HAL_Driver/Src/stm32f7xx_hal_spdifrx.c ****   {
 394              		.loc 1 271 0
 395 0000 90B1     		cbz	r0, .L29
 269:Drivers/STM32F7xx_HAL_Driver/Src/stm32f7xx_hal_spdifrx.c ****   /* Check the SPDIFRX handle allocation */
 396              		.loc 1 269 0
 397 0002 10B5     		push	{r4, lr}
 398              	.LCFI3:
 399              		.cfi_def_cfa_offset 8
 400              		.cfi_offset 4, -8
 401              		.cfi_offset 14, -4
 402 0004 0446     		mov	r4, r0
 279:Drivers/STM32F7xx_HAL_Driver/Src/stm32f7xx_hal_spdifrx.c ****   
 403              		.loc 1 279 0
 404 0006 0223     		movs	r3, #2
 405 0008 80F84530 		strb	r3, [r0, #69]
 282:Drivers/STM32F7xx_HAL_Driver/Src/stm32f7xx_hal_spdifrx.c ****   
 406              		.loc 1 282 0
 407 000c 0268     		ldr	r2, [r0]
 408 000e 1368     		ldr	r3, [r2]
 409 0010 23F00303 		bic	r3, r3, #3
 410 0014 1360     		str	r3, [r2]
 285:Drivers/STM32F7xx_HAL_Driver/Src/stm32f7xx_hal_spdifrx.c ****   
 411              		.loc 1 285 0
 412 0016 FFF7FEFF 		bl	HAL_SPDIFRX_MspDeInit
 413              	.LVL18:
 287:Drivers/STM32F7xx_HAL_Driver/Src/stm32f7xx_hal_spdifrx.c ****   
 414              		.loc 1 287 0
 415 001a 0020     		movs	r0, #0
 416 001c A064     		str	r0, [r4, #72]
 290:Drivers/STM32F7xx_HAL_Driver/Src/stm32f7xx_hal_spdifrx.c ****   
ARM GAS  C:\Users\Patryk\AppData\Local\Temp\ccutd4KM.s 			page 31


 417              		.loc 1 290 0
 418 001e 84F84500 		strb	r0, [r4, #69]
 293:Drivers/STM32F7xx_HAL_Driver/Src/stm32f7xx_hal_spdifrx.c ****   
 419              		.loc 1 293 0
 420 0022 84F84400 		strb	r0, [r4, #68]
 296:Drivers/STM32F7xx_HAL_Driver/Src/stm32f7xx_hal_spdifrx.c **** 
 421              		.loc 1 296 0
 422 0026 10BD     		pop	{r4, pc}
 423              	.LVL19:
 424              	.L29:
 425              	.LCFI4:
 426              		.cfi_def_cfa_offset 0
 427              		.cfi_restore 4
 428              		.cfi_restore 14
 273:Drivers/STM32F7xx_HAL_Driver/Src/stm32f7xx_hal_spdifrx.c ****   }
 429              		.loc 1 273 0
 430 0028 0120     		movs	r0, #1
 431              	.LVL20:
 296:Drivers/STM32F7xx_HAL_Driver/Src/stm32f7xx_hal_spdifrx.c **** 
 432              		.loc 1 296 0
 433 002a 7047     		bx	lr
 434              		.cfi_endproc
 435              	.LFE139:
 437              		.section	.text.HAL_SPDIFRX_SetDataFormat,"ax",%progbits
 438              		.align	1
 439              		.global	HAL_SPDIFRX_SetDataFormat
 440              		.syntax unified
 441              		.thumb
 442              		.thumb_func
 443              		.fpu fpv5-sp-d16
 445              	HAL_SPDIFRX_SetDataFormat:
 446              	.LFB142:
 336:Drivers/STM32F7xx_HAL_Driver/Src/stm32f7xx_hal_spdifrx.c ****   uint32_t tmpreg = 0;
 447              		.loc 1 336 0
 448              		.cfi_startproc
 449              		@ args = 28, pretend = 16, frame = 0
 450              		@ frame_needed = 0, uses_anonymous_args = 0
 451              		@ link register save eliminated.
 452              	.LVL21:
 453 0000 84B0     		sub	sp, sp, #16
 454              	.LCFI5:
 455              		.cfi_def_cfa_offset 16
 456 0002 10B4     		push	{r4}
 457              	.LCFI6:
 458              		.cfi_def_cfa_offset 20
 459              		.cfi_offset 4, -20
 460 0004 02AC     		add	r4, sp, #8
 461 0006 84E80E00 		stm	r4, {r1, r2, r3}
 462              	.LVL22:
 340:Drivers/STM32F7xx_HAL_Driver/Src/stm32f7xx_hal_spdifrx.c ****   {
 463              		.loc 1 340 0
 464 000a 40B3     		cbz	r0, .L37
 354:Drivers/STM32F7xx_HAL_Driver/Src/stm32f7xx_hal_spdifrx.c ****   
 465              		.loc 1 354 0
 466 000c 0168     		ldr	r1, [r0]
 467 000e 0B68     		ldr	r3, [r1]
 468              	.LVL23:
ARM GAS  C:\Users\Patryk\AppData\Local\Temp\ccutd4KM.s 			page 32


 356:Drivers/STM32F7xx_HAL_Driver/Src/stm32f7xx_hal_spdifrx.c ****      (((tmpreg & SPDIFRX_CR_DRFMT) != sDataFormat.DataFormat) ||
 469              		.loc 1 356 0
 470 0010 03F00302 		and	r2, r3, #3
 471 0014 032A     		cmp	r2, #3
 472 0016 14D0     		beq	.L41
 473              	.LVL24:
 474              	.L36:
 363:Drivers/STM32F7xx_HAL_Driver/Src/stm32f7xx_hal_spdifrx.c ****               SPDIFRX_CR_VMSK | SPDIFRX_CR_CUMSK | SPDIFRX_CR_PTMSK);   
 475              		.loc 1 363 0
 476 0018 23F47E72 		bic	r2, r3, #1016
 477              	.LVL25:
 367:Drivers/STM32F7xx_HAL_Driver/Src/stm32f7xx_hal_spdifrx.c ****              sDataFormat.DataFormat |
 478              		.loc 1 367 0
 479 001c BDF80C30 		ldrh	r3, [sp, #12]
 480 0020 0298     		ldr	r0, [sp, #8]
 481 0022 0343     		orrs	r3, r3, r0
 369:Drivers/STM32F7xx_HAL_Driver/Src/stm32f7xx_hal_spdifrx.c ****              sDataFormat.ChannelStatusMask |
 482              		.loc 1 369 0
 483 0024 0498     		ldr	r0, [sp, #16]
 368:Drivers/STM32F7xx_HAL_Driver/Src/stm32f7xx_hal_spdifrx.c ****              sDataFormat.PreambleTypeMask |
 484              		.loc 1 368 0
 485 0026 0343     		orrs	r3, r3, r0
 370:Drivers/STM32F7xx_HAL_Driver/Src/stm32f7xx_hal_spdifrx.c ****              sDataFormat.ValidityBitMask |
 486              		.loc 1 370 0
 487 0028 0598     		ldr	r0, [sp, #20]
 369:Drivers/STM32F7xx_HAL_Driver/Src/stm32f7xx_hal_spdifrx.c ****              sDataFormat.ChannelStatusMask |
 488              		.loc 1 369 0
 489 002a 0343     		orrs	r3, r3, r0
 371:Drivers/STM32F7xx_HAL_Driver/Src/stm32f7xx_hal_spdifrx.c ****              sDataFormat.ParityErrorMask);
 490              		.loc 1 371 0
 491 002c 0698     		ldr	r0, [sp, #24]
 370:Drivers/STM32F7xx_HAL_Driver/Src/stm32f7xx_hal_spdifrx.c ****              sDataFormat.ValidityBitMask |
 492              		.loc 1 370 0
 493 002e 0343     		orrs	r3, r3, r0
 372:Drivers/STM32F7xx_HAL_Driver/Src/stm32f7xx_hal_spdifrx.c ****   
 494              		.loc 1 372 0
 495 0030 0798     		ldr	r0, [sp, #28]
 371:Drivers/STM32F7xx_HAL_Driver/Src/stm32f7xx_hal_spdifrx.c ****              sDataFormat.ParityErrorMask);
 496              		.loc 1 371 0
 497 0032 0343     		orrs	r3, r3, r0
 367:Drivers/STM32F7xx_HAL_Driver/Src/stm32f7xx_hal_spdifrx.c ****              sDataFormat.DataFormat |
 498              		.loc 1 367 0
 499 0034 1343     		orrs	r3, r3, r2
 500              	.LVL26:
 374:Drivers/STM32F7xx_HAL_Driver/Src/stm32f7xx_hal_spdifrx.c ****   
 501              		.loc 1 374 0
 502 0036 0B60     		str	r3, [r1]
 376:Drivers/STM32F7xx_HAL_Driver/Src/stm32f7xx_hal_spdifrx.c **** }
 503              		.loc 1 376 0
 504 0038 0020     		movs	r0, #0
 505              	.LVL27:
 506              	.L35:
 377:Drivers/STM32F7xx_HAL_Driver/Src/stm32f7xx_hal_spdifrx.c **** 
 507              		.loc 1 377 0
 508 003a 5DF8044B 		ldr	r4, [sp], #4
 509              	.LCFI7:
 510              		.cfi_remember_state
ARM GAS  C:\Users\Patryk\AppData\Local\Temp\ccutd4KM.s 			page 33


 511              		.cfi_restore 4
 512              		.cfi_def_cfa_offset 16
 513 003e 04B0     		add	sp, sp, #16
 514              	.LCFI8:
 515              		.cfi_def_cfa_offset 0
 516 0040 7047     		bx	lr
 517              	.LVL28:
 518              	.L41:
 519              	.LCFI9:
 520              		.cfi_restore_state
 357:Drivers/STM32F7xx_HAL_Driver/Src/stm32f7xx_hal_spdifrx.c ****       ((tmpreg & SPDIFRX_CR_RXSTEO) != sDataFormat.StereoMode)))  
 521              		.loc 1 357 0 discriminator 1
 522 0042 03F03002 		and	r2, r3, #48
 523 0046 0298     		ldr	r0, [sp, #8]
 524              	.LVL29:
 356:Drivers/STM32F7xx_HAL_Driver/Src/stm32f7xx_hal_spdifrx.c ****      (((tmpreg & SPDIFRX_CR_DRFMT) != sDataFormat.DataFormat) ||
 525              		.loc 1 356 0 discriminator 1
 526 0048 8242     		cmp	r2, r0
 527 004a 01D0     		beq	.L42
 360:Drivers/STM32F7xx_HAL_Driver/Src/stm32f7xx_hal_spdifrx.c ****   }  
 528              		.loc 1 360 0
 529 004c 0120     		movs	r0, #1
 530 004e F4E7     		b	.L35
 531              	.L42:
 358:Drivers/STM32F7xx_HAL_Driver/Src/stm32f7xx_hal_spdifrx.c ****   {
 532              		.loc 1 358 0
 533 0050 03F00802 		and	r2, r3, #8
 534 0054 0398     		ldr	r0, [sp, #12]
 357:Drivers/STM32F7xx_HAL_Driver/Src/stm32f7xx_hal_spdifrx.c ****       ((tmpreg & SPDIFRX_CR_RXSTEO) != sDataFormat.StereoMode)))  
 535              		.loc 1 357 0
 536 0056 8242     		cmp	r2, r0
 537 0058 DED0     		beq	.L36
 360:Drivers/STM32F7xx_HAL_Driver/Src/stm32f7xx_hal_spdifrx.c ****   }  
 538              		.loc 1 360 0
 539 005a 0120     		movs	r0, #1
 540 005c EDE7     		b	.L35
 541              	.LVL30:
 542              	.L37:
 342:Drivers/STM32F7xx_HAL_Driver/Src/stm32f7xx_hal_spdifrx.c ****   }
 543              		.loc 1 342 0
 544 005e 0120     		movs	r0, #1
 545              	.LVL31:
 546 0060 EBE7     		b	.L35
 547              		.cfi_endproc
 548              	.LFE142:
 550              		.section	.text.HAL_SPDIFRX_ReceiveDataFlow,"ax",%progbits
 551              		.align	1
 552              		.global	HAL_SPDIFRX_ReceiveDataFlow
 553              		.syntax unified
 554              		.thumb
 555              		.thumb_func
 556              		.fpu fpv5-sp-d16
 558              	HAL_SPDIFRX_ReceiveDataFlow:
 559              	.LFB143:
 436:Drivers/STM32F7xx_HAL_Driver/Src/stm32f7xx_hal_spdifrx.c ****   uint32_t tickstart = 0U;
 560              		.loc 1 436 0
 561              		.cfi_startproc
ARM GAS  C:\Users\Patryk\AppData\Local\Temp\ccutd4KM.s 			page 34


 562              		@ args = 0, pretend = 0, frame = 0
 563              		@ frame_needed = 0, uses_anonymous_args = 0
 564              	.LVL32:
 565 0000 2DE9F041 		push	{r4, r5, r6, r7, r8, lr}
 566              	.LCFI10:
 567              		.cfi_def_cfa_offset 24
 568              		.cfi_offset 4, -24
 569              		.cfi_offset 5, -20
 570              		.cfi_offset 6, -16
 571              		.cfi_offset 7, -12
 572              		.cfi_offset 8, -8
 573              		.cfi_offset 14, -4
 574 0004 82B0     		sub	sp, sp, #8
 575              	.LCFI11:
 576              		.cfi_def_cfa_offset 32
 577              	.LVL33:
 439:Drivers/STM32F7xx_HAL_Driver/Src/stm32f7xx_hal_spdifrx.c ****   {
 578              		.loc 1 439 0
 579 0006 1446     		mov	r4, r2
 580 0008 B2FA82F2 		clz	r2, r2
 581              	.LVL34:
 582 000c 5209     		lsrs	r2, r2, #5
 583 000e 0029     		cmp	r1, #0
 584 0010 08BF     		it	eq
 585 0012 0122     		moveq	r2, #1
 586 0014 002A     		cmp	r2, #0
 587 0016 40D1     		bne	.L47
 588 0018 0546     		mov	r5, r0
 589 001a 1F46     		mov	r7, r3
 590 001c 0E46     		mov	r6, r1
 444:Drivers/STM32F7xx_HAL_Driver/Src/stm32f7xx_hal_spdifrx.c ****   { 
 591              		.loc 1 444 0
 592 001e 90F84530 		ldrb	r3, [r0, #69]	@ zero_extendqisi2
 593              	.LVL35:
 594 0022 DBB2     		uxtb	r3, r3
 595 0024 012B     		cmp	r3, #1
 596 0026 3ED1     		bne	.L48
 447:Drivers/STM32F7xx_HAL_Driver/Src/stm32f7xx_hal_spdifrx.c ****     
 597              		.loc 1 447 0
 598 0028 90F84430 		ldrb	r3, [r0, #68]	@ zero_extendqisi2
 599 002c DBB2     		uxtb	r3, r3
 600 002e 012B     		cmp	r3, #1
 601 0030 3CD0     		beq	.L49
 447:Drivers/STM32F7xx_HAL_Driver/Src/stm32f7xx_hal_spdifrx.c ****     
 602              		.loc 1 447 0 is_stmt 0 discriminator 2
 603 0032 0123     		movs	r3, #1
 604 0034 80F84430 		strb	r3, [r0, #68]
 449:Drivers/STM32F7xx_HAL_Driver/Src/stm32f7xx_hal_spdifrx.c ****     
 605              		.loc 1 449 0 is_stmt 1 discriminator 2
 606 0038 0223     		movs	r3, #2
 607 003a 80F84530 		strb	r3, [r0, #69]
 452:Drivers/STM32F7xx_HAL_Driver/Src/stm32f7xx_hal_spdifrx.c ****     
 608              		.loc 1 452 0 discriminator 2
 609 003e 0268     		ldr	r2, [r0]
 610 0040 1368     		ldr	r3, [r2]
 611 0042 43F00103 		orr	r3, r3, #1
 612 0046 1360     		str	r3, [r2]
ARM GAS  C:\Users\Patryk\AppData\Local\Temp\ccutd4KM.s 			page 35


 455:Drivers/STM32F7xx_HAL_Driver/Src/stm32f7xx_hal_spdifrx.c ****     
 613              		.loc 1 455 0 discriminator 2
 614 0048 FFF7FEFF 		bl	HAL_GetTick
 615              	.LVL36:
 458:Drivers/STM32F7xx_HAL_Driver/Src/stm32f7xx_hal_spdifrx.c ****     { 
 616              		.loc 1 458 0 discriminator 2
 617 004c 0090     		str	r0, [sp]
 618 004e 3B46     		mov	r3, r7
 619 0050 0022     		movs	r2, #0
 620 0052 2021     		movs	r1, #32
 621 0054 2846     		mov	r0, r5
 622              	.LVL37:
 623 0056 FFF7FEFF 		bl	SPDIFRX_WaitOnFlagUntilTimeout
 624              	.LVL38:
 625 005a 8046     		mov	r8, r0
 626 005c 48BB     		cbnz	r0, .L50
 464:Drivers/STM32F7xx_HAL_Driver/Src/stm32f7xx_hal_spdifrx.c ****     
 627              		.loc 1 464 0
 628 005e 2A68     		ldr	r2, [r5]
 629 0060 1368     		ldr	r3, [r2]
 630 0062 43F00303 		orr	r3, r3, #3
 631 0066 1360     		str	r3, [r2]
 632              	.LVL39:
 633              	.L45:
 467:Drivers/STM32F7xx_HAL_Driver/Src/stm32f7xx_hal_spdifrx.c ****     {     
 634              		.loc 1 467 0
 635 0068 84B1     		cbz	r4, .L53
 470:Drivers/STM32F7xx_HAL_Driver/Src/stm32f7xx_hal_spdifrx.c ****       
 636              		.loc 1 470 0
 637 006a FFF7FEFF 		bl	HAL_GetTick
 638              	.LVL40:
 473:Drivers/STM32F7xx_HAL_Driver/Src/stm32f7xx_hal_spdifrx.c ****       { 
 639              		.loc 1 473 0
 640 006e 0090     		str	r0, [sp]
 641 0070 3B46     		mov	r3, r7
 642 0072 0022     		movs	r2, #0
 643 0074 0121     		movs	r1, #1
 644 0076 2846     		mov	r0, r5
 645              	.LVL41:
 646 0078 FFF7FEFF 		bl	SPDIFRX_WaitOnFlagUntilTimeout
 647              	.LVL42:
 648 007c E0B9     		cbnz	r0, .L51
 478:Drivers/STM32F7xx_HAL_Driver/Src/stm32f7xx_hal_spdifrx.c ****       Size--; 
 649              		.loc 1 478 0
 650 007e 2B68     		ldr	r3, [r5]
 651              	.LVL43:
 652 0080 1B69     		ldr	r3, [r3, #16]
 653 0082 3360     		str	r3, [r6]
 479:Drivers/STM32F7xx_HAL_Driver/Src/stm32f7xx_hal_spdifrx.c ****     }      
 654              		.loc 1 479 0
 655 0084 013C     		subs	r4, r4, #1
 656              	.LVL44:
 657 0086 A4B2     		uxth	r4, r4
 658              	.LVL45:
 478:Drivers/STM32F7xx_HAL_Driver/Src/stm32f7xx_hal_spdifrx.c ****       Size--; 
 659              		.loc 1 478 0
 660 0088 0436     		adds	r6, r6, #4
ARM GAS  C:\Users\Patryk\AppData\Local\Temp\ccutd4KM.s 			page 36


 661              	.LVL46:
 662 008a EDE7     		b	.L45
 663              	.L53:
 483:Drivers/STM32F7xx_HAL_Driver/Src/stm32f7xx_hal_spdifrx.c ****     
 664              		.loc 1 483 0
 665 008c 0123     		movs	r3, #1
 666 008e 85F84530 		strb	r3, [r5, #69]
 486:Drivers/STM32F7xx_HAL_Driver/Src/stm32f7xx_hal_spdifrx.c ****     
 667              		.loc 1 486 0
 668 0092 0023     		movs	r3, #0
 669 0094 85F84430 		strb	r3, [r5, #68]
 488:Drivers/STM32F7xx_HAL_Driver/Src/stm32f7xx_hal_spdifrx.c ****   }
 670              		.loc 1 488 0
 671 0098 01E0     		b	.L44
 672              	.LVL47:
 673              	.L47:
 441:Drivers/STM32F7xx_HAL_Driver/Src/stm32f7xx_hal_spdifrx.c ****   }
 674              		.loc 1 441 0
 675 009a 4FF00108 		mov	r8, #1
 676              	.LVL48:
 677              	.L44:
 494:Drivers/STM32F7xx_HAL_Driver/Src/stm32f7xx_hal_spdifrx.c **** 
 678              		.loc 1 494 0
 679 009e 4046     		mov	r0, r8
 680 00a0 02B0     		add	sp, sp, #8
 681              	.LCFI12:
 682              		.cfi_remember_state
 683              		.cfi_def_cfa_offset 24
 684              		@ sp needed
 685 00a2 BDE8F081 		pop	{r4, r5, r6, r7, r8, pc}
 686              	.LVL49:
 687              	.L48:
 688              	.LCFI13:
 689              		.cfi_restore_state
 492:Drivers/STM32F7xx_HAL_Driver/Src/stm32f7xx_hal_spdifrx.c ****   }
 690              		.loc 1 492 0
 691 00a6 4FF00208 		mov	r8, #2
 692 00aa F8E7     		b	.L44
 693              	.L49:
 447:Drivers/STM32F7xx_HAL_Driver/Src/stm32f7xx_hal_spdifrx.c ****     
 694              		.loc 1 447 0
 695 00ac 4FF00208 		mov	r8, #2
 696 00b0 F5E7     		b	.L44
 697              	.LVL50:
 698              	.L50:
 460:Drivers/STM32F7xx_HAL_Driver/Src/stm32f7xx_hal_spdifrx.c ****     }  
 699              		.loc 1 460 0
 700 00b2 4FF00308 		mov	r8, #3
 701 00b6 F2E7     		b	.L44
 702              	.LVL51:
 703              	.L51:
 475:Drivers/STM32F7xx_HAL_Driver/Src/stm32f7xx_hal_spdifrx.c ****       }  
 704              		.loc 1 475 0
 705 00b8 4FF00308 		mov	r8, #3
 706 00bc EFE7     		b	.L44
 707              		.cfi_endproc
 708              	.LFE143:
ARM GAS  C:\Users\Patryk\AppData\Local\Temp\ccutd4KM.s 			page 37


 710              		.section	.text.HAL_SPDIFRX_ReceiveControlFlow,"ax",%progbits
 711              		.align	1
 712              		.global	HAL_SPDIFRX_ReceiveControlFlow
 713              		.syntax unified
 714              		.thumb
 715              		.thumb_func
 716              		.fpu fpv5-sp-d16
 718              	HAL_SPDIFRX_ReceiveControlFlow:
 719              	.LFB144:
 506:Drivers/STM32F7xx_HAL_Driver/Src/stm32f7xx_hal_spdifrx.c ****   uint32_t tickstart = 0U;
 720              		.loc 1 506 0
 721              		.cfi_startproc
 722              		@ args = 0, pretend = 0, frame = 0
 723              		@ frame_needed = 0, uses_anonymous_args = 0
 724              	.LVL52:
 725 0000 2DE9F041 		push	{r4, r5, r6, r7, r8, lr}
 726              	.LCFI14:
 727              		.cfi_def_cfa_offset 24
 728              		.cfi_offset 4, -24
 729              		.cfi_offset 5, -20
 730              		.cfi_offset 6, -16
 731              		.cfi_offset 7, -12
 732              		.cfi_offset 8, -8
 733              		.cfi_offset 14, -4
 734 0004 82B0     		sub	sp, sp, #8
 735              	.LCFI15:
 736              		.cfi_def_cfa_offset 32
 737              	.LVL53:
 509:Drivers/STM32F7xx_HAL_Driver/Src/stm32f7xx_hal_spdifrx.c ****   {
 738              		.loc 1 509 0
 739 0006 1446     		mov	r4, r2
 740 0008 B2FA82F2 		clz	r2, r2
 741              	.LVL54:
 742 000c 5209     		lsrs	r2, r2, #5
 743 000e 0029     		cmp	r1, #0
 744 0010 08BF     		it	eq
 745 0012 0122     		moveq	r2, #1
 746 0014 002A     		cmp	r2, #0
 747 0016 40D1     		bne	.L58
 748 0018 0546     		mov	r5, r0
 749 001a 1F46     		mov	r7, r3
 750 001c 0E46     		mov	r6, r1
 514:Drivers/STM32F7xx_HAL_Driver/Src/stm32f7xx_hal_spdifrx.c ****   { 
 751              		.loc 1 514 0
 752 001e 90F84530 		ldrb	r3, [r0, #69]	@ zero_extendqisi2
 753              	.LVL55:
 754 0022 DBB2     		uxtb	r3, r3
 755 0024 012B     		cmp	r3, #1
 756 0026 3ED1     		bne	.L59
 517:Drivers/STM32F7xx_HAL_Driver/Src/stm32f7xx_hal_spdifrx.c ****     
 757              		.loc 1 517 0
 758 0028 90F84430 		ldrb	r3, [r0, #68]	@ zero_extendqisi2
 759 002c DBB2     		uxtb	r3, r3
 760 002e 012B     		cmp	r3, #1
 761 0030 3CD0     		beq	.L60
 517:Drivers/STM32F7xx_HAL_Driver/Src/stm32f7xx_hal_spdifrx.c ****     
 762              		.loc 1 517 0 is_stmt 0 discriminator 2
ARM GAS  C:\Users\Patryk\AppData\Local\Temp\ccutd4KM.s 			page 38


 763 0032 0123     		movs	r3, #1
 764 0034 80F84430 		strb	r3, [r0, #68]
 519:Drivers/STM32F7xx_HAL_Driver/Src/stm32f7xx_hal_spdifrx.c ****     
 765              		.loc 1 519 0 is_stmt 1 discriminator 2
 766 0038 0223     		movs	r3, #2
 767 003a 80F84530 		strb	r3, [r0, #69]
 522:Drivers/STM32F7xx_HAL_Driver/Src/stm32f7xx_hal_spdifrx.c ****     
 768              		.loc 1 522 0 discriminator 2
 769 003e 0268     		ldr	r2, [r0]
 770 0040 1368     		ldr	r3, [r2]
 771 0042 43F00103 		orr	r3, r3, #1
 772 0046 1360     		str	r3, [r2]
 525:Drivers/STM32F7xx_HAL_Driver/Src/stm32f7xx_hal_spdifrx.c ****     
 773              		.loc 1 525 0 discriminator 2
 774 0048 FFF7FEFF 		bl	HAL_GetTick
 775              	.LVL56:
 528:Drivers/STM32F7xx_HAL_Driver/Src/stm32f7xx_hal_spdifrx.c ****     { 
 776              		.loc 1 528 0 discriminator 2
 777 004c 0090     		str	r0, [sp]
 778 004e 3B46     		mov	r3, r7
 779 0050 0022     		movs	r2, #0
 780 0052 2021     		movs	r1, #32
 781 0054 2846     		mov	r0, r5
 782              	.LVL57:
 783 0056 FFF7FEFF 		bl	SPDIFRX_WaitOnFlagUntilTimeout
 784              	.LVL58:
 785 005a 8046     		mov	r8, r0
 786 005c 48BB     		cbnz	r0, .L61
 534:Drivers/STM32F7xx_HAL_Driver/Src/stm32f7xx_hal_spdifrx.c ****     
 787              		.loc 1 534 0
 788 005e 2A68     		ldr	r2, [r5]
 789 0060 1368     		ldr	r3, [r2]
 790 0062 43F00303 		orr	r3, r3, #3
 791 0066 1360     		str	r3, [r2]
 792              	.LVL59:
 793              	.L56:
 537:Drivers/STM32F7xx_HAL_Driver/Src/stm32f7xx_hal_spdifrx.c ****     {      
 794              		.loc 1 537 0
 795 0068 84B1     		cbz	r4, .L64
 540:Drivers/STM32F7xx_HAL_Driver/Src/stm32f7xx_hal_spdifrx.c ****       
 796              		.loc 1 540 0
 797 006a FFF7FEFF 		bl	HAL_GetTick
 798              	.LVL60:
 543:Drivers/STM32F7xx_HAL_Driver/Src/stm32f7xx_hal_spdifrx.c ****       { 
 799              		.loc 1 543 0
 800 006e 0090     		str	r0, [sp]
 801 0070 3B46     		mov	r3, r7
 802 0072 0022     		movs	r2, #0
 803 0074 0221     		movs	r1, #2
 804 0076 2846     		mov	r0, r5
 805              	.LVL61:
 806 0078 FFF7FEFF 		bl	SPDIFRX_WaitOnFlagUntilTimeout
 807              	.LVL62:
 808 007c E0B9     		cbnz	r0, .L62
 548:Drivers/STM32F7xx_HAL_Driver/Src/stm32f7xx_hal_spdifrx.c ****       Size--; 
 809              		.loc 1 548 0
 810 007e 2B68     		ldr	r3, [r5]
ARM GAS  C:\Users\Patryk\AppData\Local\Temp\ccutd4KM.s 			page 39


 811              	.LVL63:
 812 0080 5B69     		ldr	r3, [r3, #20]
 813 0082 3360     		str	r3, [r6]
 549:Drivers/STM32F7xx_HAL_Driver/Src/stm32f7xx_hal_spdifrx.c ****     }      
 814              		.loc 1 549 0
 815 0084 013C     		subs	r4, r4, #1
 816              	.LVL64:
 817 0086 A4B2     		uxth	r4, r4
 818              	.LVL65:
 548:Drivers/STM32F7xx_HAL_Driver/Src/stm32f7xx_hal_spdifrx.c ****       Size--; 
 819              		.loc 1 548 0
 820 0088 0436     		adds	r6, r6, #4
 821              	.LVL66:
 822 008a EDE7     		b	.L56
 823              	.L64:
 553:Drivers/STM32F7xx_HAL_Driver/Src/stm32f7xx_hal_spdifrx.c ****     
 824              		.loc 1 553 0
 825 008c 0123     		movs	r3, #1
 826 008e 85F84530 		strb	r3, [r5, #69]
 556:Drivers/STM32F7xx_HAL_Driver/Src/stm32f7xx_hal_spdifrx.c ****     
 827              		.loc 1 556 0
 828 0092 0023     		movs	r3, #0
 829 0094 85F84430 		strb	r3, [r5, #68]
 558:Drivers/STM32F7xx_HAL_Driver/Src/stm32f7xx_hal_spdifrx.c ****   }
 830              		.loc 1 558 0
 831 0098 01E0     		b	.L55
 832              	.LVL67:
 833              	.L58:
 511:Drivers/STM32F7xx_HAL_Driver/Src/stm32f7xx_hal_spdifrx.c ****   }
 834              		.loc 1 511 0
 835 009a 4FF00108 		mov	r8, #1
 836              	.LVL68:
 837              	.L55:
 564:Drivers/STM32F7xx_HAL_Driver/Src/stm32f7xx_hal_spdifrx.c **** 
 838              		.loc 1 564 0
 839 009e 4046     		mov	r0, r8
 840 00a0 02B0     		add	sp, sp, #8
 841              	.LCFI16:
 842              		.cfi_remember_state
 843              		.cfi_def_cfa_offset 24
 844              		@ sp needed
 845 00a2 BDE8F081 		pop	{r4, r5, r6, r7, r8, pc}
 846              	.LVL69:
 847              	.L59:
 848              	.LCFI17:
 849              		.cfi_restore_state
 562:Drivers/STM32F7xx_HAL_Driver/Src/stm32f7xx_hal_spdifrx.c ****   }
 850              		.loc 1 562 0
 851 00a6 4FF00208 		mov	r8, #2
 852 00aa F8E7     		b	.L55
 853              	.L60:
 517:Drivers/STM32F7xx_HAL_Driver/Src/stm32f7xx_hal_spdifrx.c ****     
 854              		.loc 1 517 0
 855 00ac 4FF00208 		mov	r8, #2
 856 00b0 F5E7     		b	.L55
 857              	.LVL70:
 858              	.L61:
ARM GAS  C:\Users\Patryk\AppData\Local\Temp\ccutd4KM.s 			page 40


 530:Drivers/STM32F7xx_HAL_Driver/Src/stm32f7xx_hal_spdifrx.c ****     }  
 859              		.loc 1 530 0
 860 00b2 4FF00308 		mov	r8, #3
 861 00b6 F2E7     		b	.L55
 862              	.LVL71:
 863              	.L62:
 545:Drivers/STM32F7xx_HAL_Driver/Src/stm32f7xx_hal_spdifrx.c ****       }  
 864              		.loc 1 545 0
 865 00b8 4FF00308 		mov	r8, #3
 866 00bc EFE7     		b	.L55
 867              		.cfi_endproc
 868              	.LFE144:
 870              		.section	.text.HAL_SPDIFRX_ReceiveDataFlow_IT,"ax",%progbits
 871              		.align	1
 872              		.global	HAL_SPDIFRX_ReceiveDataFlow_IT
 873              		.syntax unified
 874              		.thumb
 875              		.thumb_func
 876              		.fpu fpv5-sp-d16
 878              	HAL_SPDIFRX_ReceiveDataFlow_IT:
 879              	.LFB145:
 574:Drivers/STM32F7xx_HAL_Driver/Src/stm32f7xx_hal_spdifrx.c ****   uint32_t tickstart = 0U;
 880              		.loc 1 574 0
 881              		.cfi_startproc
 882              		@ args = 0, pretend = 0, frame = 0
 883              		@ frame_needed = 0, uses_anonymous_args = 0
 884              	.LVL72:
 577:Drivers/STM32F7xx_HAL_Driver/Src/stm32f7xx_hal_spdifrx.c ****   {
 885              		.loc 1 577 0
 886 0000 90F84530 		ldrb	r3, [r0, #69]	@ zero_extendqisi2
 887 0004 DBB2     		uxtb	r3, r3
 888 0006 012B     		cmp	r3, #1
 889 0008 04D0     		beq	.L66
 577:Drivers/STM32F7xx_HAL_Driver/Src/stm32f7xx_hal_spdifrx.c ****   {
 890              		.loc 1 577 0 is_stmt 0 discriminator 1
 891 000a 90F84530 		ldrb	r3, [r0, #69]	@ zero_extendqisi2
 892 000e DBB2     		uxtb	r3, r3
 893 0010 042B     		cmp	r3, #4
 894 0012 51D1     		bne	.L69
 895              	.L66:
 579:Drivers/STM32F7xx_HAL_Driver/Src/stm32f7xx_hal_spdifrx.c ****     {
 896              		.loc 1 579 0 is_stmt 1
 897 0014 B2FA82F3 		clz	r3, r2
 898 0018 5B09     		lsrs	r3, r3, #5
 899 001a 0029     		cmp	r1, #0
 900 001c 08BF     		it	eq
 901 001e 0123     		moveq	r3, #1
 902 0020 002B     		cmp	r3, #0
 903 0022 4BD1     		bne	.L70
 585:Drivers/STM32F7xx_HAL_Driver/Src/stm32f7xx_hal_spdifrx.c ****     
 904              		.loc 1 585 0
 905 0024 90F84430 		ldrb	r3, [r0, #68]	@ zero_extendqisi2
 906 0028 DBB2     		uxtb	r3, r3
 907 002a 012B     		cmp	r3, #1
 908 002c 49D0     		beq	.L71
 585:Drivers/STM32F7xx_HAL_Driver/Src/stm32f7xx_hal_spdifrx.c ****     
 909              		.loc 1 585 0 is_stmt 0 discriminator 2
ARM GAS  C:\Users\Patryk\AppData\Local\Temp\ccutd4KM.s 			page 41


 910 002e 0123     		movs	r3, #1
 911 0030 80F84430 		strb	r3, [r0, #68]
 587:Drivers/STM32F7xx_HAL_Driver/Src/stm32f7xx_hal_spdifrx.c ****     hspdif->RxXferSize = Size;
 912              		.loc 1 587 0 is_stmt 1 discriminator 2
 913 0034 C162     		str	r1, [r0, #44]
 588:Drivers/STM32F7xx_HAL_Driver/Src/stm32f7xx_hal_spdifrx.c ****     hspdif->RxXferCount = Size;
 914              		.loc 1 588 0 discriminator 2
 915 0036 8286     		strh	r2, [r0, #52]	@ movhi
 589:Drivers/STM32F7xx_HAL_Driver/Src/stm32f7xx_hal_spdifrx.c ****     
 916              		.loc 1 589 0 discriminator 2
 917 0038 C286     		strh	r2, [r0, #54]	@ movhi
 591:Drivers/STM32F7xx_HAL_Driver/Src/stm32f7xx_hal_spdifrx.c ****     
 918              		.loc 1 591 0 discriminator 2
 919 003a 0022     		movs	r2, #0
 920              	.LVL73:
 921 003c 8264     		str	r2, [r0, #72]
 922              	.LVL74:
 594:Drivers/STM32F7xx_HAL_Driver/Src/stm32f7xx_hal_spdifrx.c ****     
 923              		.loc 1 594 0 discriminator 2
 924 003e 0323     		movs	r3, #3
 925 0040 80F84530 		strb	r3, [r0, #69]
 598:Drivers/STM32F7xx_HAL_Driver/Src/stm32f7xx_hal_spdifrx.c ****     
 926              		.loc 1 598 0 discriminator 2
 927 0044 0168     		ldr	r1, [r0]
 928              	.LVL75:
 929 0046 4B68     		ldr	r3, [r1, #4]
 930 0048 43F00403 		orr	r3, r3, #4
 931 004c 4B60     		str	r3, [r1, #4]
 932              	.LVL76:
 601:Drivers/STM32F7xx_HAL_Driver/Src/stm32f7xx_hal_spdifrx.c ****     
 933              		.loc 1 601 0 discriminator 2
 934 004e 0168     		ldr	r1, [r0]
 935 0050 4B68     		ldr	r3, [r1, #4]
 936 0052 43F00803 		orr	r3, r3, #8
 937 0056 4B60     		str	r3, [r1, #4]
 604:Drivers/STM32F7xx_HAL_Driver/Src/stm32f7xx_hal_spdifrx.c ****     
 938              		.loc 1 604 0 discriminator 2
 939 0058 80F84420 		strb	r2, [r0, #68]
 607:Drivers/STM32F7xx_HAL_Driver/Src/stm32f7xx_hal_spdifrx.c ****     
 940              		.loc 1 607 0 discriminator 2
 941 005c 0268     		ldr	r2, [r0]
 942 005e 5368     		ldr	r3, [r2, #4]
 943 0060 43F00103 		orr	r3, r3, #1
 944 0064 5360     		str	r3, [r2, #4]
 609:Drivers/STM32F7xx_HAL_Driver/Src/stm32f7xx_hal_spdifrx.c ****     {
 945              		.loc 1 609 0 discriminator 2
 946 0066 4FF04023 		mov	r3, #1073758208
 947 006a 1B68     		ldr	r3, [r3]
 948 006c 03F00303 		and	r3, r3, #3
 949 0070 012B     		cmp	r3, #1
 950 0072 05D1     		bne	.L68
 609:Drivers/STM32F7xx_HAL_Driver/Src/stm32f7xx_hal_spdifrx.c ****     {
 951              		.loc 1 609 0 is_stmt 0 discriminator 1
 952 0074 4FF04023 		mov	r3, #1073758208
 953 0078 1B68     		ldr	r3, [r3]
 954 007a 13F0030F 		tst	r3, #3
 955 007e 22D0     		beq	.L72
ARM GAS  C:\Users\Patryk\AppData\Local\Temp\ccutd4KM.s 			page 42


 956              	.L68:
 574:Drivers/STM32F7xx_HAL_Driver/Src/stm32f7xx_hal_spdifrx.c ****   uint32_t tickstart = 0U;
 957              		.loc 1 574 0 is_stmt 1
 958 0080 10B5     		push	{r4, lr}
 959              	.LCFI18:
 960              		.cfi_def_cfa_offset 8
 961              		.cfi_offset 4, -8
 962              		.cfi_offset 14, -4
 963 0082 82B0     		sub	sp, sp, #8
 964              	.LCFI19:
 965              		.cfi_def_cfa_offset 16
 966 0084 0446     		mov	r4, r0
 612:Drivers/STM32F7xx_HAL_Driver/Src/stm32f7xx_hal_spdifrx.c ****       
 967              		.loc 1 612 0
 968 0086 0268     		ldr	r2, [r0]
 969 0088 1368     		ldr	r3, [r2]
 970 008a 43F00103 		orr	r3, r3, #1
 971 008e 1360     		str	r3, [r2]
 615:Drivers/STM32F7xx_HAL_Driver/Src/stm32f7xx_hal_spdifrx.c ****       
 972              		.loc 1 615 0
 973 0090 FFF7FEFF 		bl	HAL_GetTick
 974              	.LVL77:
 618:Drivers/STM32F7xx_HAL_Driver/Src/stm32f7xx_hal_spdifrx.c ****       { 
 975              		.loc 1 618 0
 976 0094 0090     		str	r0, [sp]
 977 0096 4FF6FF73 		movw	r3, #65535
 978 009a 0022     		movs	r2, #0
 979 009c 2021     		movs	r1, #32
 980 009e 2046     		mov	r0, r4
 981              	.LVL78:
 982 00a0 FFF7FEFF 		bl	SPDIFRX_WaitOnFlagUntilTimeout
 983              	.LVL79:
 984 00a4 0346     		mov	r3, r0
 985 00a6 80B9     		cbnz	r0, .L73
 624:Drivers/STM32F7xx_HAL_Driver/Src/stm32f7xx_hal_spdifrx.c ****     }
 986              		.loc 1 624 0
 987 00a8 2168     		ldr	r1, [r4]
 988 00aa 0A68     		ldr	r2, [r1]
 989 00ac 42F00302 		orr	r2, r2, #3
 990 00b0 0A60     		str	r2, [r1]
 991              	.L67:
 633:Drivers/STM32F7xx_HAL_Driver/Src/stm32f7xx_hal_spdifrx.c **** 
 992              		.loc 1 633 0
 993 00b2 1846     		mov	r0, r3
 994 00b4 02B0     		add	sp, sp, #8
 995              	.LCFI20:
 996              		.cfi_def_cfa_offset 8
 997              		@ sp needed
 998 00b6 10BD     		pop	{r4, pc}
 999              	.LVL80:
 1000              	.L69:
 1001              	.LCFI21:
 1002              		.cfi_def_cfa_offset 0
 1003              		.cfi_restore 4
 1004              		.cfi_restore 14
 631:Drivers/STM32F7xx_HAL_Driver/Src/stm32f7xx_hal_spdifrx.c ****   }
 1005              		.loc 1 631 0
ARM GAS  C:\Users\Patryk\AppData\Local\Temp\ccutd4KM.s 			page 43


 1006 00b8 0223     		movs	r3, #2
 1007 00ba 00E0     		b	.L75
 1008              	.L70:
 581:Drivers/STM32F7xx_HAL_Driver/Src/stm32f7xx_hal_spdifrx.c ****     }
 1009              		.loc 1 581 0
 1010 00bc 0123     		movs	r3, #1
 1011              	.LVL81:
 1012              	.L75:
 633:Drivers/STM32F7xx_HAL_Driver/Src/stm32f7xx_hal_spdifrx.c **** 
 1013              		.loc 1 633 0
 1014 00be 1846     		mov	r0, r3
 1015              	.LVL82:
 1016 00c0 7047     		bx	lr
 1017              	.LVL83:
 1018              	.L71:
 585:Drivers/STM32F7xx_HAL_Driver/Src/stm32f7xx_hal_spdifrx.c ****     
 1019              		.loc 1 585 0
 1020 00c2 0223     		movs	r3, #2
 1021 00c4 FBE7     		b	.L75
 1022              	.LVL84:
 1023              	.L72:
 627:Drivers/STM32F7xx_HAL_Driver/Src/stm32f7xx_hal_spdifrx.c ****   }
 1024              		.loc 1 627 0
 1025 00c6 0023     		movs	r3, #0
 1026 00c8 F9E7     		b	.L75
 1027              	.LVL85:
 1028              	.L73:
 1029              	.LCFI22:
 1030              		.cfi_def_cfa_offset 16
 1031              		.cfi_offset 4, -8
 1032              		.cfi_offset 14, -4
 620:Drivers/STM32F7xx_HAL_Driver/Src/stm32f7xx_hal_spdifrx.c ****       }  
 1033              		.loc 1 620 0
 1034 00ca 0323     		movs	r3, #3
 1035 00cc F1E7     		b	.L67
 1036              		.cfi_endproc
 1037              	.LFE145:
 1039              		.section	.text.HAL_SPDIFRX_ReceiveControlFlow_IT,"ax",%progbits
 1040              		.align	1
 1041              		.global	HAL_SPDIFRX_ReceiveControlFlow_IT
 1042              		.syntax unified
 1043              		.thumb
 1044              		.thumb_func
 1045              		.fpu fpv5-sp-d16
 1047              	HAL_SPDIFRX_ReceiveControlFlow_IT:
 1048              	.LFB146:
 643:Drivers/STM32F7xx_HAL_Driver/Src/stm32f7xx_hal_spdifrx.c ****   uint32_t tickstart = 0U;
 1049              		.loc 1 643 0
 1050              		.cfi_startproc
 1051              		@ args = 0, pretend = 0, frame = 0
 1052              		@ frame_needed = 0, uses_anonymous_args = 0
 1053              	.LVL86:
 646:Drivers/STM32F7xx_HAL_Driver/Src/stm32f7xx_hal_spdifrx.c ****   {
 1054              		.loc 1 646 0
 1055 0000 90F84530 		ldrb	r3, [r0, #69]	@ zero_extendqisi2
 1056 0004 DBB2     		uxtb	r3, r3
 1057 0006 012B     		cmp	r3, #1
ARM GAS  C:\Users\Patryk\AppData\Local\Temp\ccutd4KM.s 			page 44


 1058 0008 04D0     		beq	.L78
 646:Drivers/STM32F7xx_HAL_Driver/Src/stm32f7xx_hal_spdifrx.c ****   {
 1059              		.loc 1 646 0 is_stmt 0 discriminator 1
 1060 000a 90F84530 		ldrb	r3, [r0, #69]	@ zero_extendqisi2
 1061 000e DBB2     		uxtb	r3, r3
 1062 0010 032B     		cmp	r3, #3
 1063 0012 51D1     		bne	.L81
 1064              	.L78:
 648:Drivers/STM32F7xx_HAL_Driver/Src/stm32f7xx_hal_spdifrx.c ****     {
 1065              		.loc 1 648 0 is_stmt 1
 1066 0014 B2FA82F3 		clz	r3, r2
 1067 0018 5B09     		lsrs	r3, r3, #5
 1068 001a 0029     		cmp	r1, #0
 1069 001c 08BF     		it	eq
 1070 001e 0123     		moveq	r3, #1
 1071 0020 002B     		cmp	r3, #0
 1072 0022 4BD1     		bne	.L82
 654:Drivers/STM32F7xx_HAL_Driver/Src/stm32f7xx_hal_spdifrx.c ****     
 1073              		.loc 1 654 0
 1074 0024 90F84430 		ldrb	r3, [r0, #68]	@ zero_extendqisi2
 1075 0028 DBB2     		uxtb	r3, r3
 1076 002a 012B     		cmp	r3, #1
 1077 002c 49D0     		beq	.L83
 654:Drivers/STM32F7xx_HAL_Driver/Src/stm32f7xx_hal_spdifrx.c ****     
 1078              		.loc 1 654 0 is_stmt 0 discriminator 2
 1079 002e 0123     		movs	r3, #1
 1080 0030 80F84430 		strb	r3, [r0, #68]
 656:Drivers/STM32F7xx_HAL_Driver/Src/stm32f7xx_hal_spdifrx.c ****     hspdif->CsXferSize = Size;
 1081              		.loc 1 656 0 is_stmt 1 discriminator 2
 1082 0034 0163     		str	r1, [r0, #48]
 657:Drivers/STM32F7xx_HAL_Driver/Src/stm32f7xx_hal_spdifrx.c ****     hspdif->CsXferCount = Size;
 1083              		.loc 1 657 0 discriminator 2
 1084 0036 0287     		strh	r2, [r0, #56]	@ movhi
 658:Drivers/STM32F7xx_HAL_Driver/Src/stm32f7xx_hal_spdifrx.c ****     
 1085              		.loc 1 658 0 discriminator 2
 1086 0038 4287     		strh	r2, [r0, #58]	@ movhi
 660:Drivers/STM32F7xx_HAL_Driver/Src/stm32f7xx_hal_spdifrx.c ****     
 1087              		.loc 1 660 0 discriminator 2
 1088 003a 0022     		movs	r2, #0
 1089              	.LVL87:
 1090 003c 8264     		str	r2, [r0, #72]
 1091              	.LVL88:
 663:Drivers/STM32F7xx_HAL_Driver/Src/stm32f7xx_hal_spdifrx.c ****     
 1092              		.loc 1 663 0 discriminator 2
 1093 003e 0423     		movs	r3, #4
 1094 0040 80F84530 		strb	r3, [r0, #69]
 667:Drivers/STM32F7xx_HAL_Driver/Src/stm32f7xx_hal_spdifrx.c ****     
 1095              		.loc 1 667 0 discriminator 2
 1096 0044 0168     		ldr	r1, [r0]
 1097              	.LVL89:
 1098 0046 4B68     		ldr	r3, [r1, #4]
 1099 0048 43F00403 		orr	r3, r3, #4
 1100 004c 4B60     		str	r3, [r1, #4]
 1101              	.LVL90:
 670:Drivers/STM32F7xx_HAL_Driver/Src/stm32f7xx_hal_spdifrx.c ****     
 1102              		.loc 1 670 0 discriminator 2
 1103 004e 0168     		ldr	r1, [r0]
ARM GAS  C:\Users\Patryk\AppData\Local\Temp\ccutd4KM.s 			page 45


 1104 0050 4B68     		ldr	r3, [r1, #4]
 1105 0052 43F00803 		orr	r3, r3, #8
 1106 0056 4B60     		str	r3, [r1, #4]
 673:Drivers/STM32F7xx_HAL_Driver/Src/stm32f7xx_hal_spdifrx.c ****     
 1107              		.loc 1 673 0 discriminator 2
 1108 0058 80F84420 		strb	r2, [r0, #68]
 676:Drivers/STM32F7xx_HAL_Driver/Src/stm32f7xx_hal_spdifrx.c ****     
 1109              		.loc 1 676 0 discriminator 2
 1110 005c 0268     		ldr	r2, [r0]
 1111 005e 5368     		ldr	r3, [r2, #4]
 1112 0060 43F00203 		orr	r3, r3, #2
 1113 0064 5360     		str	r3, [r2, #4]
 678:Drivers/STM32F7xx_HAL_Driver/Src/stm32f7xx_hal_spdifrx.c ****     {
 1114              		.loc 1 678 0 discriminator 2
 1115 0066 4FF04023 		mov	r3, #1073758208
 1116 006a 1B68     		ldr	r3, [r3]
 1117 006c 03F00303 		and	r3, r3, #3
 1118 0070 012B     		cmp	r3, #1
 1119 0072 05D1     		bne	.L80
 678:Drivers/STM32F7xx_HAL_Driver/Src/stm32f7xx_hal_spdifrx.c ****     {
 1120              		.loc 1 678 0 is_stmt 0 discriminator 1
 1121 0074 4FF04023 		mov	r3, #1073758208
 1122 0078 1B68     		ldr	r3, [r3]
 1123 007a 13F0030F 		tst	r3, #3
 1124 007e 22D0     		beq	.L84
 1125              	.L80:
 643:Drivers/STM32F7xx_HAL_Driver/Src/stm32f7xx_hal_spdifrx.c ****   uint32_t tickstart = 0U;
 1126              		.loc 1 643 0 is_stmt 1
 1127 0080 10B5     		push	{r4, lr}
 1128              	.LCFI23:
 1129              		.cfi_def_cfa_offset 8
 1130              		.cfi_offset 4, -8
 1131              		.cfi_offset 14, -4
 1132 0082 82B0     		sub	sp, sp, #8
 1133              	.LCFI24:
 1134              		.cfi_def_cfa_offset 16
 1135 0084 0446     		mov	r4, r0
 681:Drivers/STM32F7xx_HAL_Driver/Src/stm32f7xx_hal_spdifrx.c ****       
 1136              		.loc 1 681 0
 1137 0086 0268     		ldr	r2, [r0]
 1138 0088 1368     		ldr	r3, [r2]
 1139 008a 43F00103 		orr	r3, r3, #1
 1140 008e 1360     		str	r3, [r2]
 684:Drivers/STM32F7xx_HAL_Driver/Src/stm32f7xx_hal_spdifrx.c ****       
 1141              		.loc 1 684 0
 1142 0090 FFF7FEFF 		bl	HAL_GetTick
 1143              	.LVL91:
 687:Drivers/STM32F7xx_HAL_Driver/Src/stm32f7xx_hal_spdifrx.c ****       { 
 1144              		.loc 1 687 0
 1145 0094 0090     		str	r0, [sp]
 1146 0096 4FF6FF73 		movw	r3, #65535
 1147 009a 0022     		movs	r2, #0
 1148 009c 2021     		movs	r1, #32
 1149 009e 2046     		mov	r0, r4
 1150              	.LVL92:
 1151 00a0 FFF7FEFF 		bl	SPDIFRX_WaitOnFlagUntilTimeout
 1152              	.LVL93:
ARM GAS  C:\Users\Patryk\AppData\Local\Temp\ccutd4KM.s 			page 46


 1153 00a4 0346     		mov	r3, r0
 1154 00a6 80B9     		cbnz	r0, .L85
 693:Drivers/STM32F7xx_HAL_Driver/Src/stm32f7xx_hal_spdifrx.c ****     }
 1155              		.loc 1 693 0
 1156 00a8 2168     		ldr	r1, [r4]
 1157 00aa 0A68     		ldr	r2, [r1]
 1158 00ac 42F00302 		orr	r2, r2, #3
 1159 00b0 0A60     		str	r2, [r1]
 1160              	.L79:
 702:Drivers/STM32F7xx_HAL_Driver/Src/stm32f7xx_hal_spdifrx.c **** 
 1161              		.loc 1 702 0
 1162 00b2 1846     		mov	r0, r3
 1163 00b4 02B0     		add	sp, sp, #8
 1164              	.LCFI25:
 1165              		.cfi_def_cfa_offset 8
 1166              		@ sp needed
 1167 00b6 10BD     		pop	{r4, pc}
 1168              	.LVL94:
 1169              	.L81:
 1170              	.LCFI26:
 1171              		.cfi_def_cfa_offset 0
 1172              		.cfi_restore 4
 1173              		.cfi_restore 14
 700:Drivers/STM32F7xx_HAL_Driver/Src/stm32f7xx_hal_spdifrx.c ****   }
 1174              		.loc 1 700 0
 1175 00b8 0223     		movs	r3, #2
 1176 00ba 00E0     		b	.L87
 1177              	.L82:
 650:Drivers/STM32F7xx_HAL_Driver/Src/stm32f7xx_hal_spdifrx.c ****     }
 1178              		.loc 1 650 0
 1179 00bc 0123     		movs	r3, #1
 1180              	.LVL95:
 1181              	.L87:
 702:Drivers/STM32F7xx_HAL_Driver/Src/stm32f7xx_hal_spdifrx.c **** 
 1182              		.loc 1 702 0
 1183 00be 1846     		mov	r0, r3
 1184              	.LVL96:
 1185 00c0 7047     		bx	lr
 1186              	.LVL97:
 1187              	.L83:
 654:Drivers/STM32F7xx_HAL_Driver/Src/stm32f7xx_hal_spdifrx.c ****     
 1188              		.loc 1 654 0
 1189 00c2 0223     		movs	r3, #2
 1190 00c4 FBE7     		b	.L87
 1191              	.LVL98:
 1192              	.L84:
 696:Drivers/STM32F7xx_HAL_Driver/Src/stm32f7xx_hal_spdifrx.c ****   }
 1193              		.loc 1 696 0
 1194 00c6 0023     		movs	r3, #0
 1195 00c8 F9E7     		b	.L87
 1196              	.LVL99:
 1197              	.L85:
 1198              	.LCFI27:
 1199              		.cfi_def_cfa_offset 16
 1200              		.cfi_offset 4, -8
 1201              		.cfi_offset 14, -4
 689:Drivers/STM32F7xx_HAL_Driver/Src/stm32f7xx_hal_spdifrx.c ****       }  
ARM GAS  C:\Users\Patryk\AppData\Local\Temp\ccutd4KM.s 			page 47


 1202              		.loc 1 689 0
 1203 00ca 0323     		movs	r3, #3
 1204 00cc F1E7     		b	.L79
 1205              		.cfi_endproc
 1206              	.LFE146:
 1208              		.section	.text.HAL_SPDIFRX_ReceiveDataFlow_DMA,"ax",%progbits
 1209              		.align	1
 1210              		.global	HAL_SPDIFRX_ReceiveDataFlow_DMA
 1211              		.syntax unified
 1212              		.thumb
 1213              		.thumb_func
 1214              		.fpu fpv5-sp-d16
 1216              	HAL_SPDIFRX_ReceiveDataFlow_DMA:
 1217              	.LFB147:
 712:Drivers/STM32F7xx_HAL_Driver/Src/stm32f7xx_hal_spdifrx.c ****   uint32_t tickstart = 0U;
 1218              		.loc 1 712 0
 1219              		.cfi_startproc
 1220              		@ args = 0, pretend = 0, frame = 0
 1221              		@ frame_needed = 0, uses_anonymous_args = 0
 1222              	.LVL100:
 715:Drivers/STM32F7xx_HAL_Driver/Src/stm32f7xx_hal_spdifrx.c ****   {
 1223              		.loc 1 715 0
 1224 0000 1346     		mov	r3, r2
 1225 0002 B2FA82F2 		clz	r2, r2
 1226              	.LVL101:
 1227 0006 5209     		lsrs	r2, r2, #5
 1228 0008 0029     		cmp	r1, #0
 1229 000a 08BF     		it	eq
 1230 000c 0122     		moveq	r2, #1
 1231 000e 002A     		cmp	r2, #0
 1232 0010 58D1     		bne	.L94
 712:Drivers/STM32F7xx_HAL_Driver/Src/stm32f7xx_hal_spdifrx.c ****   uint32_t tickstart = 0U;
 1233              		.loc 1 712 0
 1234 0012 10B5     		push	{r4, lr}
 1235              	.LCFI28:
 1236              		.cfi_def_cfa_offset 8
 1237              		.cfi_offset 4, -8
 1238              		.cfi_offset 14, -4
 1239 0014 82B0     		sub	sp, sp, #8
 1240              	.LCFI29:
 1241              		.cfi_def_cfa_offset 16
 1242 0016 0C46     		mov	r4, r1
 720:Drivers/STM32F7xx_HAL_Driver/Src/stm32f7xx_hal_spdifrx.c ****   {   
 1243              		.loc 1 720 0
 1244 0018 90F84520 		ldrb	r2, [r0, #69]	@ zero_extendqisi2
 1245 001c D2B2     		uxtb	r2, r2
 1246 001e 012A     		cmp	r2, #1
 1247 0020 04D0     		beq	.L91
 720:Drivers/STM32F7xx_HAL_Driver/Src/stm32f7xx_hal_spdifrx.c ****   {   
 1248              		.loc 1 720 0 is_stmt 0 discriminator 1
 1249 0022 90F84520 		ldrb	r2, [r0, #69]	@ zero_extendqisi2
 1250 0026 D2B2     		uxtb	r2, r2
 1251 0028 042A     		cmp	r2, #4
 1252 002a 4DD1     		bne	.L95
 1253              	.L91:
 722:Drivers/STM32F7xx_HAL_Driver/Src/stm32f7xx_hal_spdifrx.c ****     hspdif->RxXferSize = Size;
 1254              		.loc 1 722 0 is_stmt 1
ARM GAS  C:\Users\Patryk\AppData\Local\Temp\ccutd4KM.s 			page 48


 1255 002c C462     		str	r4, [r0, #44]
 723:Drivers/STM32F7xx_HAL_Driver/Src/stm32f7xx_hal_spdifrx.c ****     hspdif->RxXferCount = Size;
 1256              		.loc 1 723 0
 1257 002e 8386     		strh	r3, [r0, #52]	@ movhi
 724:Drivers/STM32F7xx_HAL_Driver/Src/stm32f7xx_hal_spdifrx.c ****     
 1258              		.loc 1 724 0
 1259 0030 C386     		strh	r3, [r0, #54]	@ movhi
 727:Drivers/STM32F7xx_HAL_Driver/Src/stm32f7xx_hal_spdifrx.c ****     
 1260              		.loc 1 727 0
 1261 0032 90F84420 		ldrb	r2, [r0, #68]	@ zero_extendqisi2
 1262 0036 D2B2     		uxtb	r2, r2
 1263 0038 012A     		cmp	r2, #1
 1264 003a 47D0     		beq	.L96
 1265 003c 0446     		mov	r4, r0
 727:Drivers/STM32F7xx_HAL_Driver/Src/stm32f7xx_hal_spdifrx.c ****     
 1266              		.loc 1 727 0 is_stmt 0 discriminator 2
 1267 003e 0122     		movs	r2, #1
 1268 0040 80F84420 		strb	r2, [r0, #68]
 729:Drivers/STM32F7xx_HAL_Driver/Src/stm32f7xx_hal_spdifrx.c ****     hspdif->State = HAL_SPDIFRX_STATE_BUSY_RX;
 1269              		.loc 1 729 0 is_stmt 1 discriminator 2
 1270 0044 0022     		movs	r2, #0
 1271 0046 8264     		str	r2, [r0, #72]
 730:Drivers/STM32F7xx_HAL_Driver/Src/stm32f7xx_hal_spdifrx.c ****     
 1272              		.loc 1 730 0 discriminator 2
 1273 0048 0322     		movs	r2, #3
 1274 004a 80F84520 		strb	r2, [r0, #69]
 733:Drivers/STM32F7xx_HAL_Driver/Src/stm32f7xx_hal_spdifrx.c ****     
 1275              		.loc 1 733 0 discriminator 2
 1276 004e 026C     		ldr	r2, [r0, #64]
 1277 0050 2049     		ldr	r1, .L102
 1278              	.LVL102:
 1279 0052 1164     		str	r1, [r2, #64]
 1280              	.LVL103:
 736:Drivers/STM32F7xx_HAL_Driver/Src/stm32f7xx_hal_spdifrx.c ****     
 1281              		.loc 1 736 0 discriminator 2
 1282 0054 026C     		ldr	r2, [r0, #64]
 1283 0056 2049     		ldr	r1, .L102+4
 1284 0058 D163     		str	r1, [r2, #60]
 739:Drivers/STM32F7xx_HAL_Driver/Src/stm32f7xx_hal_spdifrx.c ****     
 1285              		.loc 1 739 0 discriminator 2
 1286 005a 026C     		ldr	r2, [r0, #64]
 1287 005c 1F49     		ldr	r1, .L102+8
 1288 005e D164     		str	r1, [r2, #76]
 742:Drivers/STM32F7xx_HAL_Driver/Src/stm32f7xx_hal_spdifrx.c ****     
 1289              		.loc 1 742 0 discriminator 2
 1290 0060 0168     		ldr	r1, [r0]
 1291 0062 C26A     		ldr	r2, [r0, #44]
 1292 0064 1031     		adds	r1, r1, #16
 1293 0066 006C     		ldr	r0, [r0, #64]
 1294              	.LVL104:
 1295 0068 FFF7FEFF 		bl	HAL_DMA_Start_IT
 1296              	.LVL105:
 745:Drivers/STM32F7xx_HAL_Driver/Src/stm32f7xx_hal_spdifrx.c ****     
 1297              		.loc 1 745 0 discriminator 2
 1298 006c 2268     		ldr	r2, [r4]
 1299 006e 1368     		ldr	r3, [r2]
 1300 0070 43F00403 		orr	r3, r3, #4
ARM GAS  C:\Users\Patryk\AppData\Local\Temp\ccutd4KM.s 			page 49


 1301 0074 1360     		str	r3, [r2]
 747:Drivers/STM32F7xx_HAL_Driver/Src/stm32f7xx_hal_spdifrx.c ****     {
 1302              		.loc 1 747 0 discriminator 2
 1303 0076 4FF04023 		mov	r3, #1073758208
 1304 007a 1B68     		ldr	r3, [r3]
 1305 007c 03F00303 		and	r3, r3, #3
 1306 0080 012B     		cmp	r3, #1
 1307 0082 05D1     		bne	.L92
 747:Drivers/STM32F7xx_HAL_Driver/Src/stm32f7xx_hal_spdifrx.c ****     {
 1308              		.loc 1 747 0 is_stmt 0 discriminator 1
 1309 0084 4FF04023 		mov	r3, #1073758208
 1310 0088 1B68     		ldr	r3, [r3]
 1311 008a 13F0030F 		tst	r3, #3
 1312 008e 14D0     		beq	.L93
 1313              	.L92:
 750:Drivers/STM32F7xx_HAL_Driver/Src/stm32f7xx_hal_spdifrx.c ****       
 1314              		.loc 1 750 0 is_stmt 1
 1315 0090 2268     		ldr	r2, [r4]
 1316 0092 1368     		ldr	r3, [r2]
 1317 0094 43F00103 		orr	r3, r3, #1
 1318 0098 1360     		str	r3, [r2]
 753:Drivers/STM32F7xx_HAL_Driver/Src/stm32f7xx_hal_spdifrx.c ****       
 1319              		.loc 1 753 0
 1320 009a FFF7FEFF 		bl	HAL_GetTick
 1321              	.LVL106:
 756:Drivers/STM32F7xx_HAL_Driver/Src/stm32f7xx_hal_spdifrx.c ****       { 
 1322              		.loc 1 756 0
 1323 009e 0090     		str	r0, [sp]
 1324 00a0 4FF6FF73 		movw	r3, #65535
 1325 00a4 0022     		movs	r2, #0
 1326 00a6 2021     		movs	r1, #32
 1327 00a8 2046     		mov	r0, r4
 1328              	.LVL107:
 1329 00aa FFF7FEFF 		bl	SPDIFRX_WaitOnFlagUntilTimeout
 1330              	.LVL108:
 1331 00ae 78B9     		cbnz	r0, .L97
 762:Drivers/STM32F7xx_HAL_Driver/Src/stm32f7xx_hal_spdifrx.c ****     }
 1332              		.loc 1 762 0
 1333 00b0 2268     		ldr	r2, [r4]
 1334 00b2 1368     		ldr	r3, [r2]
 1335 00b4 43F00303 		orr	r3, r3, #3
 1336 00b8 1360     		str	r3, [r2]
 1337              	.L93:
 766:Drivers/STM32F7xx_HAL_Driver/Src/stm32f7xx_hal_spdifrx.c ****     
 1338              		.loc 1 766 0
 1339 00ba 0020     		movs	r0, #0
 1340 00bc 84F84400 		strb	r0, [r4, #68]
 1341              	.LVL109:
 1342              	.L90:
 774:Drivers/STM32F7xx_HAL_Driver/Src/stm32f7xx_hal_spdifrx.c **** 
 1343              		.loc 1 774 0
 1344 00c0 02B0     		add	sp, sp, #8
 1345              	.LCFI30:
 1346              		.cfi_def_cfa_offset 8
 1347              		@ sp needed
 1348 00c2 10BD     		pop	{r4, pc}
 1349              	.LVL110:
ARM GAS  C:\Users\Patryk\AppData\Local\Temp\ccutd4KM.s 			page 50


 1350              	.L94:
 1351              	.LCFI31:
 1352              		.cfi_def_cfa_offset 0
 1353              		.cfi_restore 4
 1354              		.cfi_restore 14
 717:Drivers/STM32F7xx_HAL_Driver/Src/stm32f7xx_hal_spdifrx.c ****   } 
 1355              		.loc 1 717 0
 1356 00c4 0120     		movs	r0, #1
 1357              	.LVL111:
 774:Drivers/STM32F7xx_HAL_Driver/Src/stm32f7xx_hal_spdifrx.c **** 
 1358              		.loc 1 774 0
 1359 00c6 7047     		bx	lr
 1360              	.LVL112:
 1361              	.L95:
 1362              	.LCFI32:
 1363              		.cfi_def_cfa_offset 16
 1364              		.cfi_offset 4, -8
 1365              		.cfi_offset 14, -4
 772:Drivers/STM32F7xx_HAL_Driver/Src/stm32f7xx_hal_spdifrx.c ****   }
 1366              		.loc 1 772 0
 1367 00c8 0220     		movs	r0, #2
 1368              	.LVL113:
 1369 00ca F9E7     		b	.L90
 1370              	.LVL114:
 1371              	.L96:
 727:Drivers/STM32F7xx_HAL_Driver/Src/stm32f7xx_hal_spdifrx.c ****     
 1372              		.loc 1 727 0
 1373 00cc 0220     		movs	r0, #2
 1374              	.LVL115:
 1375 00ce F7E7     		b	.L90
 1376              	.LVL116:
 1377              	.L97:
 758:Drivers/STM32F7xx_HAL_Driver/Src/stm32f7xx_hal_spdifrx.c ****       }  
 1378              		.loc 1 758 0
 1379 00d0 0320     		movs	r0, #3
 1380 00d2 F5E7     		b	.L90
 1381              	.L103:
 1382              		.align	2
 1383              	.L102:
 1384 00d4 00000000 		.word	SPDIFRX_DMARxHalfCplt
 1385 00d8 00000000 		.word	SPDIFRX_DMARxCplt
 1386 00dc 00000000 		.word	SPDIFRX_DMAError
 1387              		.cfi_endproc
 1388              	.LFE147:
 1390              		.section	.text.HAL_SPDIFRX_ReceiveControlFlow_DMA,"ax",%progbits
 1391              		.align	1
 1392              		.global	HAL_SPDIFRX_ReceiveControlFlow_DMA
 1393              		.syntax unified
 1394              		.thumb
 1395              		.thumb_func
 1396              		.fpu fpv5-sp-d16
 1398              	HAL_SPDIFRX_ReceiveControlFlow_DMA:
 1399              	.LFB148:
 784:Drivers/STM32F7xx_HAL_Driver/Src/stm32f7xx_hal_spdifrx.c ****   uint32_t tickstart = 0U;
 1400              		.loc 1 784 0
 1401              		.cfi_startproc
 1402              		@ args = 0, pretend = 0, frame = 0
ARM GAS  C:\Users\Patryk\AppData\Local\Temp\ccutd4KM.s 			page 51


 1403              		@ frame_needed = 0, uses_anonymous_args = 0
 1404              	.LVL117:
 787:Drivers/STM32F7xx_HAL_Driver/Src/stm32f7xx_hal_spdifrx.c ****   {
 1405              		.loc 1 787 0
 1406 0000 1346     		mov	r3, r2
 1407 0002 B2FA82F2 		clz	r2, r2
 1408              	.LVL118:
 1409 0006 5209     		lsrs	r2, r2, #5
 1410 0008 0029     		cmp	r1, #0
 1411 000a 08BF     		it	eq
 1412 000c 0122     		moveq	r2, #1
 1413 000e 002A     		cmp	r2, #0
 1414 0010 58D1     		bne	.L109
 784:Drivers/STM32F7xx_HAL_Driver/Src/stm32f7xx_hal_spdifrx.c ****   uint32_t tickstart = 0U;
 1415              		.loc 1 784 0
 1416 0012 10B5     		push	{r4, lr}
 1417              	.LCFI33:
 1418              		.cfi_def_cfa_offset 8
 1419              		.cfi_offset 4, -8
 1420              		.cfi_offset 14, -4
 1421 0014 82B0     		sub	sp, sp, #8
 1422              	.LCFI34:
 1423              		.cfi_def_cfa_offset 16
 1424 0016 0C46     		mov	r4, r1
 792:Drivers/STM32F7xx_HAL_Driver/Src/stm32f7xx_hal_spdifrx.c ****   {    
 1425              		.loc 1 792 0
 1426 0018 90F84520 		ldrb	r2, [r0, #69]	@ zero_extendqisi2
 1427 001c D2B2     		uxtb	r2, r2
 1428 001e 012A     		cmp	r2, #1
 1429 0020 04D0     		beq	.L106
 792:Drivers/STM32F7xx_HAL_Driver/Src/stm32f7xx_hal_spdifrx.c ****   {    
 1430              		.loc 1 792 0 is_stmt 0 discriminator 1
 1431 0022 90F84520 		ldrb	r2, [r0, #69]	@ zero_extendqisi2
 1432 0026 D2B2     		uxtb	r2, r2
 1433 0028 032A     		cmp	r2, #3
 1434 002a 4DD1     		bne	.L110
 1435              	.L106:
 794:Drivers/STM32F7xx_HAL_Driver/Src/stm32f7xx_hal_spdifrx.c ****     hspdif->CsXferSize = Size;
 1436              		.loc 1 794 0 is_stmt 1
 1437 002c 0463     		str	r4, [r0, #48]
 795:Drivers/STM32F7xx_HAL_Driver/Src/stm32f7xx_hal_spdifrx.c ****     hspdif->CsXferCount = Size;
 1438              		.loc 1 795 0
 1439 002e 0387     		strh	r3, [r0, #56]	@ movhi
 796:Drivers/STM32F7xx_HAL_Driver/Src/stm32f7xx_hal_spdifrx.c ****     
 1440              		.loc 1 796 0
 1441 0030 4387     		strh	r3, [r0, #58]	@ movhi
 799:Drivers/STM32F7xx_HAL_Driver/Src/stm32f7xx_hal_spdifrx.c ****     
 1442              		.loc 1 799 0
 1443 0032 90F84420 		ldrb	r2, [r0, #68]	@ zero_extendqisi2
 1444 0036 D2B2     		uxtb	r2, r2
 1445 0038 012A     		cmp	r2, #1
 1446 003a 47D0     		beq	.L111
 1447 003c 0446     		mov	r4, r0
 799:Drivers/STM32F7xx_HAL_Driver/Src/stm32f7xx_hal_spdifrx.c ****     
 1448              		.loc 1 799 0 is_stmt 0 discriminator 2
 1449 003e 0122     		movs	r2, #1
 1450 0040 80F84420 		strb	r2, [r0, #68]
ARM GAS  C:\Users\Patryk\AppData\Local\Temp\ccutd4KM.s 			page 52


 801:Drivers/STM32F7xx_HAL_Driver/Src/stm32f7xx_hal_spdifrx.c ****     hspdif->State = HAL_SPDIFRX_STATE_BUSY_CX;
 1451              		.loc 1 801 0 is_stmt 1 discriminator 2
 1452 0044 0022     		movs	r2, #0
 1453 0046 8264     		str	r2, [r0, #72]
 802:Drivers/STM32F7xx_HAL_Driver/Src/stm32f7xx_hal_spdifrx.c ****     
 1454              		.loc 1 802 0 discriminator 2
 1455 0048 0422     		movs	r2, #4
 1456 004a 80F84520 		strb	r2, [r0, #69]
 805:Drivers/STM32F7xx_HAL_Driver/Src/stm32f7xx_hal_spdifrx.c ****     
 1457              		.loc 1 805 0 discriminator 2
 1458 004e C26B     		ldr	r2, [r0, #60]
 1459 0050 2049     		ldr	r1, .L117
 1460              	.LVL119:
 1461 0052 1164     		str	r1, [r2, #64]
 1462              	.LVL120:
 808:Drivers/STM32F7xx_HAL_Driver/Src/stm32f7xx_hal_spdifrx.c ****     
 1463              		.loc 1 808 0 discriminator 2
 1464 0054 C26B     		ldr	r2, [r0, #60]
 1465 0056 2049     		ldr	r1, .L117+4
 1466 0058 D163     		str	r1, [r2, #60]
 811:Drivers/STM32F7xx_HAL_Driver/Src/stm32f7xx_hal_spdifrx.c ****     
 1467              		.loc 1 811 0 discriminator 2
 1468 005a C26B     		ldr	r2, [r0, #60]
 1469 005c 1F49     		ldr	r1, .L117+8
 1470 005e D164     		str	r1, [r2, #76]
 814:Drivers/STM32F7xx_HAL_Driver/Src/stm32f7xx_hal_spdifrx.c ****     
 1471              		.loc 1 814 0 discriminator 2
 1472 0060 0168     		ldr	r1, [r0]
 1473 0062 026B     		ldr	r2, [r0, #48]
 1474 0064 1431     		adds	r1, r1, #20
 1475 0066 C06B     		ldr	r0, [r0, #60]
 1476              	.LVL121:
 1477 0068 FFF7FEFF 		bl	HAL_DMA_Start_IT
 1478              	.LVL122:
 817:Drivers/STM32F7xx_HAL_Driver/Src/stm32f7xx_hal_spdifrx.c ****     
 1479              		.loc 1 817 0 discriminator 2
 1480 006c 2268     		ldr	r2, [r4]
 1481 006e 1368     		ldr	r3, [r2]
 1482 0070 43F48063 		orr	r3, r3, #1024
 1483 0074 1360     		str	r3, [r2]
 819:Drivers/STM32F7xx_HAL_Driver/Src/stm32f7xx_hal_spdifrx.c ****     {
 1484              		.loc 1 819 0 discriminator 2
 1485 0076 4FF04023 		mov	r3, #1073758208
 1486 007a 1B68     		ldr	r3, [r3]
 1487 007c 03F00303 		and	r3, r3, #3
 1488 0080 012B     		cmp	r3, #1
 1489 0082 05D1     		bne	.L107
 819:Drivers/STM32F7xx_HAL_Driver/Src/stm32f7xx_hal_spdifrx.c ****     {
 1490              		.loc 1 819 0 is_stmt 0 discriminator 1
 1491 0084 4FF04023 		mov	r3, #1073758208
 1492 0088 1B68     		ldr	r3, [r3]
 1493 008a 13F0030F 		tst	r3, #3
 1494 008e 14D0     		beq	.L108
 1495              	.L107:
 822:Drivers/STM32F7xx_HAL_Driver/Src/stm32f7xx_hal_spdifrx.c ****       
 1496              		.loc 1 822 0 is_stmt 1
 1497 0090 2268     		ldr	r2, [r4]
ARM GAS  C:\Users\Patryk\AppData\Local\Temp\ccutd4KM.s 			page 53


 1498 0092 1368     		ldr	r3, [r2]
 1499 0094 43F00103 		orr	r3, r3, #1
 1500 0098 1360     		str	r3, [r2]
 825:Drivers/STM32F7xx_HAL_Driver/Src/stm32f7xx_hal_spdifrx.c ****       
 1501              		.loc 1 825 0
 1502 009a FFF7FEFF 		bl	HAL_GetTick
 1503              	.LVL123:
 828:Drivers/STM32F7xx_HAL_Driver/Src/stm32f7xx_hal_spdifrx.c ****       { 
 1504              		.loc 1 828 0
 1505 009e 0090     		str	r0, [sp]
 1506 00a0 4FF6FF73 		movw	r3, #65535
 1507 00a4 0022     		movs	r2, #0
 1508 00a6 2021     		movs	r1, #32
 1509 00a8 2046     		mov	r0, r4
 1510              	.LVL124:
 1511 00aa FFF7FEFF 		bl	SPDIFRX_WaitOnFlagUntilTimeout
 1512              	.LVL125:
 1513 00ae 78B9     		cbnz	r0, .L112
 834:Drivers/STM32F7xx_HAL_Driver/Src/stm32f7xx_hal_spdifrx.c ****     }
 1514              		.loc 1 834 0
 1515 00b0 2268     		ldr	r2, [r4]
 1516 00b2 1368     		ldr	r3, [r2]
 1517 00b4 43F00303 		orr	r3, r3, #3
 1518 00b8 1360     		str	r3, [r2]
 1519              	.L108:
 838:Drivers/STM32F7xx_HAL_Driver/Src/stm32f7xx_hal_spdifrx.c ****     
 1520              		.loc 1 838 0
 1521 00ba 0020     		movs	r0, #0
 1522 00bc 84F84400 		strb	r0, [r4, #68]
 1523              	.LVL126:
 1524              	.L105:
 846:Drivers/STM32F7xx_HAL_Driver/Src/stm32f7xx_hal_spdifrx.c **** 
 1525              		.loc 1 846 0
 1526 00c0 02B0     		add	sp, sp, #8
 1527              	.LCFI35:
 1528              		.cfi_def_cfa_offset 8
 1529              		@ sp needed
 1530 00c2 10BD     		pop	{r4, pc}
 1531              	.LVL127:
 1532              	.L109:
 1533              	.LCFI36:
 1534              		.cfi_def_cfa_offset 0
 1535              		.cfi_restore 4
 1536              		.cfi_restore 14
 789:Drivers/STM32F7xx_HAL_Driver/Src/stm32f7xx_hal_spdifrx.c ****   } 
 1537              		.loc 1 789 0
 1538 00c4 0120     		movs	r0, #1
 1539              	.LVL128:
 846:Drivers/STM32F7xx_HAL_Driver/Src/stm32f7xx_hal_spdifrx.c **** 
 1540              		.loc 1 846 0
 1541 00c6 7047     		bx	lr
 1542              	.LVL129:
 1543              	.L110:
 1544              	.LCFI37:
 1545              		.cfi_def_cfa_offset 16
 1546              		.cfi_offset 4, -8
 1547              		.cfi_offset 14, -4
ARM GAS  C:\Users\Patryk\AppData\Local\Temp\ccutd4KM.s 			page 54


 844:Drivers/STM32F7xx_HAL_Driver/Src/stm32f7xx_hal_spdifrx.c ****   }
 1548              		.loc 1 844 0
 1549 00c8 0220     		movs	r0, #2
 1550              	.LVL130:
 1551 00ca F9E7     		b	.L105
 1552              	.LVL131:
 1553              	.L111:
 799:Drivers/STM32F7xx_HAL_Driver/Src/stm32f7xx_hal_spdifrx.c ****     
 1554              		.loc 1 799 0
 1555 00cc 0220     		movs	r0, #2
 1556              	.LVL132:
 1557 00ce F7E7     		b	.L105
 1558              	.LVL133:
 1559              	.L112:
 830:Drivers/STM32F7xx_HAL_Driver/Src/stm32f7xx_hal_spdifrx.c ****       }  
 1560              		.loc 1 830 0
 1561 00d0 0320     		movs	r0, #3
 1562 00d2 F5E7     		b	.L105
 1563              	.L118:
 1564              		.align	2
 1565              	.L117:
 1566 00d4 00000000 		.word	SPDIFRX_DMACxHalfCplt
 1567 00d8 00000000 		.word	SPDIFRX_DMACxCplt
 1568 00dc 00000000 		.word	SPDIFRX_DMAError
 1569              		.cfi_endproc
 1570              	.LFE148:
 1572              		.section	.text.HAL_SPDIFRX_DMAStop,"ax",%progbits
 1573              		.align	1
 1574              		.global	HAL_SPDIFRX_DMAStop
 1575              		.syntax unified
 1576              		.thumb
 1577              		.thumb_func
 1578              		.fpu fpv5-sp-d16
 1580              	HAL_SPDIFRX_DMAStop:
 1581              	.LFB149:
 854:Drivers/STM32F7xx_HAL_Driver/Src/stm32f7xx_hal_spdifrx.c ****   /* Process Locked */
 1582              		.loc 1 854 0
 1583              		.cfi_startproc
 1584              		@ args = 0, pretend = 0, frame = 0
 1585              		@ frame_needed = 0, uses_anonymous_args = 0
 1586              		@ link register save eliminated.
 1587              	.LVL134:
 856:Drivers/STM32F7xx_HAL_Driver/Src/stm32f7xx_hal_spdifrx.c ****   
 1588              		.loc 1 856 0
 1589 0000 90F84430 		ldrb	r3, [r0, #68]	@ zero_extendqisi2
 1590 0004 DBB2     		uxtb	r3, r3
 1591 0006 012B     		cmp	r3, #1
 1592 0008 28D0     		beq	.L121
 856:Drivers/STM32F7xx_HAL_Driver/Src/stm32f7xx_hal_spdifrx.c ****   
 1593              		.loc 1 856 0 is_stmt 0 discriminator 2
 1594 000a 0122     		movs	r2, #1
 1595 000c 80F84420 		strb	r2, [r0, #68]
 859:Drivers/STM32F7xx_HAL_Driver/Src/stm32f7xx_hal_spdifrx.c ****   hspdif->Instance->CR &= (uint16_t)(~SPDIFRX_CR_CBDMAEN);
 1596              		.loc 1 859 0 is_stmt 1 discriminator 2
 1597 0010 0168     		ldr	r1, [r0]
 1598 0012 0B68     		ldr	r3, [r1]
 1599 0014 23F00403 		bic	r3, r3, #4
ARM GAS  C:\Users\Patryk\AppData\Local\Temp\ccutd4KM.s 			page 55


 1600 0018 1B04     		lsls	r3, r3, #16
 1601 001a 1B0C     		lsrs	r3, r3, #16
 1602 001c 0B60     		str	r3, [r1]
 860:Drivers/STM32F7xx_HAL_Driver/Src/stm32f7xx_hal_spdifrx.c ****   
 1603              		.loc 1 860 0 discriminator 2
 1604 001e 0168     		ldr	r1, [r0]
 1605 0020 0B68     		ldr	r3, [r1]
 1606 0022 23F48063 		bic	r3, r3, #1024
 1607 0026 1B04     		lsls	r3, r3, #16
 1608 0028 1B0C     		lsrs	r3, r3, #16
 1609 002a 0B60     		str	r3, [r1]
 863:Drivers/STM32F7xx_HAL_Driver/Src/stm32f7xx_hal_spdifrx.c ****   __HAL_DMA_DISABLE(hspdif->hdmaCsRx);
 1610              		.loc 1 863 0 discriminator 2
 1611 002c 036C     		ldr	r3, [r0, #64]
 1612 002e 1968     		ldr	r1, [r3]
 1613 0030 0B68     		ldr	r3, [r1]
 1614 0032 23F00103 		bic	r3, r3, #1
 1615 0036 0B60     		str	r3, [r1]
 864:Drivers/STM32F7xx_HAL_Driver/Src/stm32f7xx_hal_spdifrx.c ****   
 1616              		.loc 1 864 0 discriminator 2
 1617 0038 C36B     		ldr	r3, [r0, #60]
 1618 003a 1968     		ldr	r1, [r3]
 1619 003c 0B68     		ldr	r3, [r1]
 1620 003e 23F00103 		bic	r3, r3, #1
 1621 0042 0B60     		str	r3, [r1]
 867:Drivers/STM32F7xx_HAL_Driver/Src/stm32f7xx_hal_spdifrx.c ****   
 1622              		.loc 1 867 0 discriminator 2
 1623 0044 0168     		ldr	r1, [r0]
 1624 0046 0B68     		ldr	r3, [r1]
 1625 0048 23F00303 		bic	r3, r3, #3
 1626 004c 0B60     		str	r3, [r1]
 869:Drivers/STM32F7xx_HAL_Driver/Src/stm32f7xx_hal_spdifrx.c ****   
 1627              		.loc 1 869 0 discriminator 2
 1628 004e 80F84520 		strb	r2, [r0, #69]
 872:Drivers/STM32F7xx_HAL_Driver/Src/stm32f7xx_hal_spdifrx.c ****   
 1629              		.loc 1 872 0 discriminator 2
 1630 0052 0023     		movs	r3, #0
 1631 0054 80F84430 		strb	r3, [r0, #68]
 874:Drivers/STM32F7xx_HAL_Driver/Src/stm32f7xx_hal_spdifrx.c **** }
 1632              		.loc 1 874 0 discriminator 2
 1633 0058 1846     		mov	r0, r3
 1634              	.LVL135:
 1635 005a 7047     		bx	lr
 1636              	.LVL136:
 1637              	.L121:
 856:Drivers/STM32F7xx_HAL_Driver/Src/stm32f7xx_hal_spdifrx.c ****   
 1638              		.loc 1 856 0
 1639 005c 0220     		movs	r0, #2
 1640              	.LVL137:
 875:Drivers/STM32F7xx_HAL_Driver/Src/stm32f7xx_hal_spdifrx.c **** 
 1641              		.loc 1 875 0
 1642 005e 7047     		bx	lr
 1643              		.cfi_endproc
 1644              	.LFE149:
 1646              		.section	.text.HAL_SPDIFRX_RxHalfCpltCallback,"ax",%progbits
 1647              		.align	1
 1648              		.weak	HAL_SPDIFRX_RxHalfCpltCallback
ARM GAS  C:\Users\Patryk\AppData\Local\Temp\ccutd4KM.s 			page 56


 1649              		.syntax unified
 1650              		.thumb
 1651              		.thumb_func
 1652              		.fpu fpv5-sp-d16
 1654              	HAL_SPDIFRX_RxHalfCpltCallback:
 1655              	.LFB151:
 929:Drivers/STM32F7xx_HAL_Driver/Src/stm32f7xx_hal_spdifrx.c ****   /* Prevent unused argument(s) compilation warning */
 1656              		.loc 1 929 0
 1657              		.cfi_startproc
 1658              		@ args = 0, pretend = 0, frame = 0
 1659              		@ frame_needed = 0, uses_anonymous_args = 0
 1660              		@ link register save eliminated.
 1661              	.LVL138:
 936:Drivers/STM32F7xx_HAL_Driver/Src/stm32f7xx_hal_spdifrx.c **** 
 1662              		.loc 1 936 0
 1663 0000 7047     		bx	lr
 1664              		.cfi_endproc
 1665              	.LFE151:
 1667              		.section	.text.SPDIFRX_DMARxHalfCplt,"ax",%progbits
 1668              		.align	1
 1669              		.syntax unified
 1670              		.thumb
 1671              		.thumb_func
 1672              		.fpu fpv5-sp-d16
 1674              	SPDIFRX_DMARxHalfCplt:
 1675              	.LFB159:
1066:Drivers/STM32F7xx_HAL_Driver/Src/stm32f7xx_hal_spdifrx.c ****   SPDIFRX_HandleTypeDef* hspdif = (SPDIFRX_HandleTypeDef*)((DMA_HandleTypeDef*)hdma)->Parent;
 1676              		.loc 1 1066 0
 1677              		.cfi_startproc
 1678              		@ args = 0, pretend = 0, frame = 0
 1679              		@ frame_needed = 0, uses_anonymous_args = 0
 1680              	.LVL139:
 1681 0000 08B5     		push	{r3, lr}
 1682              	.LCFI38:
 1683              		.cfi_def_cfa_offset 8
 1684              		.cfi_offset 3, -8
 1685              		.cfi_offset 14, -4
 1686              	.LVL140:
1069:Drivers/STM32F7xx_HAL_Driver/Src/stm32f7xx_hal_spdifrx.c **** }
 1687              		.loc 1 1069 0
 1688 0002 806B     		ldr	r0, [r0, #56]
 1689              	.LVL141:
 1690 0004 FFF7FEFF 		bl	HAL_SPDIFRX_RxHalfCpltCallback
 1691              	.LVL142:
1070:Drivers/STM32F7xx_HAL_Driver/Src/stm32f7xx_hal_spdifrx.c **** 
 1692              		.loc 1 1070 0
 1693 0008 08BD     		pop	{r3, pc}
 1694              		.cfi_endproc
 1695              	.LFE159:
 1697              		.section	.text.HAL_SPDIFRX_RxCpltCallback,"ax",%progbits
 1698              		.align	1
 1699              		.weak	HAL_SPDIFRX_RxCpltCallback
 1700              		.syntax unified
 1701              		.thumb
 1702              		.thumb_func
 1703              		.fpu fpv5-sp-d16
 1705              	HAL_SPDIFRX_RxCpltCallback:
ARM GAS  C:\Users\Patryk\AppData\Local\Temp\ccutd4KM.s 			page 57


 1706              	.LFB152:
 944:Drivers/STM32F7xx_HAL_Driver/Src/stm32f7xx_hal_spdifrx.c ****   /* Prevent unused argument(s) compilation warning */
 1707              		.loc 1 944 0
 1708              		.cfi_startproc
 1709              		@ args = 0, pretend = 0, frame = 0
 1710              		@ frame_needed = 0, uses_anonymous_args = 0
 1711              		@ link register save eliminated.
 1712              	.LVL143:
 951:Drivers/STM32F7xx_HAL_Driver/Src/stm32f7xx_hal_spdifrx.c **** 
 1713              		.loc 1 951 0
 1714 0000 7047     		bx	lr
 1715              		.cfi_endproc
 1716              	.LFE152:
 1718              		.section	.text.SPDIFRX_DMARxCplt,"ax",%progbits
 1719              		.align	1
 1720              		.syntax unified
 1721              		.thumb
 1722              		.thumb_func
 1723              		.fpu fpv5-sp-d16
 1725              	SPDIFRX_DMARxCplt:
 1726              	.LFB158:
1047:Drivers/STM32F7xx_HAL_Driver/Src/stm32f7xx_hal_spdifrx.c ****   SPDIFRX_HandleTypeDef* hspdif = ( SPDIFRX_HandleTypeDef* )((DMA_HandleTypeDef* )hdma)->Parent;
 1727              		.loc 1 1047 0
 1728              		.cfi_startproc
 1729              		@ args = 0, pretend = 0, frame = 0
 1730              		@ frame_needed = 0, uses_anonymous_args = 0
 1731              	.LVL144:
 1732 0000 08B5     		push	{r3, lr}
 1733              	.LCFI39:
 1734              		.cfi_def_cfa_offset 8
 1735              		.cfi_offset 3, -8
 1736              		.cfi_offset 14, -4
1048:Drivers/STM32F7xx_HAL_Driver/Src/stm32f7xx_hal_spdifrx.c ****   
 1737              		.loc 1 1048 0
 1738 0002 836B     		ldr	r3, [r0, #56]
 1739              	.LVL145:
1051:Drivers/STM32F7xx_HAL_Driver/Src/stm32f7xx_hal_spdifrx.c ****   {
 1740              		.loc 1 1051 0
 1741 0004 0268     		ldr	r2, [r0]
 1742 0006 1268     		ldr	r2, [r2]
 1743 0008 12F4807F 		tst	r2, #256
 1744 000c 0BD1     		bne	.L127
1053:Drivers/STM32F7xx_HAL_Driver/Src/stm32f7xx_hal_spdifrx.c ****     hspdif->RxXferCount = 0;
 1745              		.loc 1 1053 0
 1746 000e 1968     		ldr	r1, [r3]
 1747 0010 0A68     		ldr	r2, [r1]
 1748 0012 22F00402 		bic	r2, r2, #4
 1749 0016 1204     		lsls	r2, r2, #16
 1750 0018 120C     		lsrs	r2, r2, #16
 1751 001a 0A60     		str	r2, [r1]
1054:Drivers/STM32F7xx_HAL_Driver/Src/stm32f7xx_hal_spdifrx.c ****     hspdif->State = HAL_SPDIFRX_STATE_READY; 
 1752              		.loc 1 1054 0
 1753 001c 0022     		movs	r2, #0
 1754 001e DA86     		strh	r2, [r3, #54]	@ movhi
1055:Drivers/STM32F7xx_HAL_Driver/Src/stm32f7xx_hal_spdifrx.c ****   }
 1755              		.loc 1 1055 0
 1756 0020 0122     		movs	r2, #1
ARM GAS  C:\Users\Patryk\AppData\Local\Temp\ccutd4KM.s 			page 58


 1757 0022 83F84520 		strb	r2, [r3, #69]
 1758              	.L127:
1057:Drivers/STM32F7xx_HAL_Driver/Src/stm32f7xx_hal_spdifrx.c **** }
 1759              		.loc 1 1057 0
 1760 0026 1846     		mov	r0, r3
 1761              	.LVL146:
 1762 0028 FFF7FEFF 		bl	HAL_SPDIFRX_RxCpltCallback
 1763              	.LVL147:
1058:Drivers/STM32F7xx_HAL_Driver/Src/stm32f7xx_hal_spdifrx.c **** 
 1764              		.loc 1 1058 0
 1765 002c 08BD     		pop	{r3, pc}
 1766              		.cfi_endproc
 1767              	.LFE158:
 1769              		.section	.text.SPDIFRX_ReceiveDataFlow_IT,"ax",%progbits
 1770              		.align	1
 1771              		.syntax unified
 1772              		.thumb
 1773              		.thumb_func
 1774              		.fpu fpv5-sp-d16
 1776              	SPDIFRX_ReceiveDataFlow_IT:
 1777              	.LFB163:
1128:Drivers/STM32F7xx_HAL_Driver/Src/stm32f7xx_hal_spdifrx.c ****   /* Receive data */
 1778              		.loc 1 1128 0
 1779              		.cfi_startproc
 1780              		@ args = 0, pretend = 0, frame = 0
 1781              		@ frame_needed = 0, uses_anonymous_args = 0
 1782              	.LVL148:
 1783 0000 08B5     		push	{r3, lr}
 1784              	.LCFI40:
 1785              		.cfi_def_cfa_offset 8
 1786              		.cfi_offset 3, -8
 1787              		.cfi_offset 14, -4
1130:Drivers/STM32F7xx_HAL_Driver/Src/stm32f7xx_hal_spdifrx.c ****   hspdif->RxXferCount--;
 1788              		.loc 1 1130 0
 1789 0002 0268     		ldr	r2, [r0]
 1790 0004 C36A     		ldr	r3, [r0, #44]
 1791 0006 191D     		adds	r1, r3, #4
 1792 0008 C162     		str	r1, [r0, #44]
 1793 000a 1269     		ldr	r2, [r2, #16]
 1794 000c 1A60     		str	r2, [r3]
1131:Drivers/STM32F7xx_HAL_Driver/Src/stm32f7xx_hal_spdifrx.c ****   
 1795              		.loc 1 1131 0
 1796 000e C38E     		ldrh	r3, [r0, #54]
 1797 0010 013B     		subs	r3, r3, #1
 1798 0012 9BB2     		uxth	r3, r3
 1799 0014 C386     		strh	r3, [r0, #54]	@ movhi
1133:Drivers/STM32F7xx_HAL_Driver/Src/stm32f7xx_hal_spdifrx.c ****   {            
 1800              		.loc 1 1133 0
 1801 0016 C38E     		ldrh	r3, [r0, #54]
 1802 0018 9BB2     		uxth	r3, r3
 1803 001a 03B1     		cbz	r3, .L132
 1804              	.LVL149:
 1805              	.L129:
1145:Drivers/STM32F7xx_HAL_Driver/Src/stm32f7xx_hal_spdifrx.c **** 
 1806              		.loc 1 1145 0
 1807 001c 08BD     		pop	{r3, pc}
 1808              	.LVL150:
ARM GAS  C:\Users\Patryk\AppData\Local\Temp\ccutd4KM.s 			page 59


 1809              	.L132:
1136:Drivers/STM32F7xx_HAL_Driver/Src/stm32f7xx_hal_spdifrx.c ****     
 1810              		.loc 1 1136 0
 1811 001e 0268     		ldr	r2, [r0]
 1812 0020 5368     		ldr	r3, [r2, #4]
 1813 0022 23F00D03 		bic	r3, r3, #13
 1814 0026 1B04     		lsls	r3, r3, #16
 1815 0028 1B0C     		lsrs	r3, r3, #16
 1816 002a 5360     		str	r3, [r2, #4]
1138:Drivers/STM32F7xx_HAL_Driver/Src/stm32f7xx_hal_spdifrx.c ****     
 1817              		.loc 1 1138 0
 1818 002c 0123     		movs	r3, #1
 1819 002e 80F84530 		strb	r3, [r0, #69]
1141:Drivers/STM32F7xx_HAL_Driver/Src/stm32f7xx_hal_spdifrx.c ****     
 1820              		.loc 1 1141 0
 1821 0032 0023     		movs	r3, #0
 1822 0034 80F84430 		strb	r3, [r0, #68]
1143:Drivers/STM32F7xx_HAL_Driver/Src/stm32f7xx_hal_spdifrx.c ****   }
 1823              		.loc 1 1143 0
 1824 0038 FFF7FEFF 		bl	HAL_SPDIFRX_RxCpltCallback
 1825              	.LVL151:
1145:Drivers/STM32F7xx_HAL_Driver/Src/stm32f7xx_hal_spdifrx.c **** 
 1826              		.loc 1 1145 0
 1827 003c EEE7     		b	.L129
 1828              		.cfi_endproc
 1829              	.LFE163:
 1831              		.section	.text.HAL_SPDIFRX_CxHalfCpltCallback,"ax",%progbits
 1832              		.align	1
 1833              		.weak	HAL_SPDIFRX_CxHalfCpltCallback
 1834              		.syntax unified
 1835              		.thumb
 1836              		.thumb_func
 1837              		.fpu fpv5-sp-d16
 1839              	HAL_SPDIFRX_CxHalfCpltCallback:
 1840              	.LFB153:
 959:Drivers/STM32F7xx_HAL_Driver/Src/stm32f7xx_hal_spdifrx.c ****   /* Prevent unused argument(s) compilation warning */
 1841              		.loc 1 959 0
 1842              		.cfi_startproc
 1843              		@ args = 0, pretend = 0, frame = 0
 1844              		@ frame_needed = 0, uses_anonymous_args = 0
 1845              		@ link register save eliminated.
 1846              	.LVL152:
 966:Drivers/STM32F7xx_HAL_Driver/Src/stm32f7xx_hal_spdifrx.c **** 
 1847              		.loc 1 966 0
 1848 0000 7047     		bx	lr
 1849              		.cfi_endproc
 1850              	.LFE153:
 1852              		.section	.text.SPDIFRX_DMACxHalfCplt,"ax",%progbits
 1853              		.align	1
 1854              		.syntax unified
 1855              		.thumb
 1856              		.thumb_func
 1857              		.fpu fpv5-sp-d16
 1859              	SPDIFRX_DMACxHalfCplt:
 1860              	.LFB161:
1096:Drivers/STM32F7xx_HAL_Driver/Src/stm32f7xx_hal_spdifrx.c ****   SPDIFRX_HandleTypeDef* hspdif = (SPDIFRX_HandleTypeDef*)((DMA_HandleTypeDef*)hdma)->Parent;
 1861              		.loc 1 1096 0
ARM GAS  C:\Users\Patryk\AppData\Local\Temp\ccutd4KM.s 			page 60


 1862              		.cfi_startproc
 1863              		@ args = 0, pretend = 0, frame = 0
 1864              		@ frame_needed = 0, uses_anonymous_args = 0
 1865              	.LVL153:
 1866 0000 08B5     		push	{r3, lr}
 1867              	.LCFI41:
 1868              		.cfi_def_cfa_offset 8
 1869              		.cfi_offset 3, -8
 1870              		.cfi_offset 14, -4
 1871              	.LVL154:
1099:Drivers/STM32F7xx_HAL_Driver/Src/stm32f7xx_hal_spdifrx.c **** }
 1872              		.loc 1 1099 0
 1873 0002 806B     		ldr	r0, [r0, #56]
 1874              	.LVL155:
 1875 0004 FFF7FEFF 		bl	HAL_SPDIFRX_CxHalfCpltCallback
 1876              	.LVL156:
1100:Drivers/STM32F7xx_HAL_Driver/Src/stm32f7xx_hal_spdifrx.c **** 
 1877              		.loc 1 1100 0
 1878 0008 08BD     		pop	{r3, pc}
 1879              		.cfi_endproc
 1880              	.LFE161:
 1882              		.section	.text.HAL_SPDIFRX_CxCpltCallback,"ax",%progbits
 1883              		.align	1
 1884              		.weak	HAL_SPDIFRX_CxCpltCallback
 1885              		.syntax unified
 1886              		.thumb
 1887              		.thumb_func
 1888              		.fpu fpv5-sp-d16
 1890              	HAL_SPDIFRX_CxCpltCallback:
 1891              	.LFB154:
 974:Drivers/STM32F7xx_HAL_Driver/Src/stm32f7xx_hal_spdifrx.c ****   /* Prevent unused argument(s) compilation warning */
 1892              		.loc 1 974 0
 1893              		.cfi_startproc
 1894              		@ args = 0, pretend = 0, frame = 0
 1895              		@ frame_needed = 0, uses_anonymous_args = 0
 1896              		@ link register save eliminated.
 1897              	.LVL157:
 981:Drivers/STM32F7xx_HAL_Driver/Src/stm32f7xx_hal_spdifrx.c **** 
 1898              		.loc 1 981 0
 1899 0000 7047     		bx	lr
 1900              		.cfi_endproc
 1901              	.LFE154:
 1903              		.section	.text.SPDIFRX_DMACxCplt,"ax",%progbits
 1904              		.align	1
 1905              		.syntax unified
 1906              		.thumb
 1907              		.thumb_func
 1908              		.fpu fpv5-sp-d16
 1910              	SPDIFRX_DMACxCplt:
 1911              	.LFB160:
1079:Drivers/STM32F7xx_HAL_Driver/Src/stm32f7xx_hal_spdifrx.c ****   SPDIFRX_HandleTypeDef* hspdif = ( SPDIFRX_HandleTypeDef* )((DMA_HandleTypeDef* )hdma)->Parent;
 1912              		.loc 1 1079 0
 1913              		.cfi_startproc
 1914              		@ args = 0, pretend = 0, frame = 0
 1915              		@ frame_needed = 0, uses_anonymous_args = 0
 1916              	.LVL158:
 1917 0000 08B5     		push	{r3, lr}
ARM GAS  C:\Users\Patryk\AppData\Local\Temp\ccutd4KM.s 			page 61


 1918              	.LCFI42:
 1919              		.cfi_def_cfa_offset 8
 1920              		.cfi_offset 3, -8
 1921              		.cfi_offset 14, -4
1080:Drivers/STM32F7xx_HAL_Driver/Src/stm32f7xx_hal_spdifrx.c ****   
 1922              		.loc 1 1080 0
 1923 0002 806B     		ldr	r0, [r0, #56]
 1924              	.LVL159:
1083:Drivers/STM32F7xx_HAL_Driver/Src/stm32f7xx_hal_spdifrx.c ****   hspdif->CsXferCount = 0;
 1925              		.loc 1 1083 0
 1926 0004 0268     		ldr	r2, [r0]
 1927 0006 1368     		ldr	r3, [r2]
 1928 0008 23F48063 		bic	r3, r3, #1024
 1929 000c 1B04     		lsls	r3, r3, #16
 1930 000e 1B0C     		lsrs	r3, r3, #16
 1931 0010 1360     		str	r3, [r2]
1084:Drivers/STM32F7xx_HAL_Driver/Src/stm32f7xx_hal_spdifrx.c ****   
 1932              		.loc 1 1084 0
 1933 0012 0023     		movs	r3, #0
 1934 0014 4387     		strh	r3, [r0, #58]	@ movhi
1086:Drivers/STM32F7xx_HAL_Driver/Src/stm32f7xx_hal_spdifrx.c ****   HAL_SPDIFRX_CxCpltCallback(hspdif); 
 1935              		.loc 1 1086 0
 1936 0016 0123     		movs	r3, #1
 1937 0018 80F84530 		strb	r3, [r0, #69]
1087:Drivers/STM32F7xx_HAL_Driver/Src/stm32f7xx_hal_spdifrx.c **** }
 1938              		.loc 1 1087 0
 1939 001c FFF7FEFF 		bl	HAL_SPDIFRX_CxCpltCallback
 1940              	.LVL160:
1088:Drivers/STM32F7xx_HAL_Driver/Src/stm32f7xx_hal_spdifrx.c **** 
 1941              		.loc 1 1088 0
 1942 0020 08BD     		pop	{r3, pc}
 1943              		.cfi_endproc
 1944              	.LFE160:
 1946              		.section	.text.SPDIFRX_ReceiveControlFlow_IT,"ax",%progbits
 1947              		.align	1
 1948              		.syntax unified
 1949              		.thumb
 1950              		.thumb_func
 1951              		.fpu fpv5-sp-d16
 1953              	SPDIFRX_ReceiveControlFlow_IT:
 1954              	.LFB164:
1153:Drivers/STM32F7xx_HAL_Driver/Src/stm32f7xx_hal_spdifrx.c ****   /* Receive data */
 1955              		.loc 1 1153 0
 1956              		.cfi_startproc
 1957              		@ args = 0, pretend = 0, frame = 0
 1958              		@ frame_needed = 0, uses_anonymous_args = 0
 1959              	.LVL161:
 1960 0000 08B5     		push	{r3, lr}
 1961              	.LCFI43:
 1962              		.cfi_def_cfa_offset 8
 1963              		.cfi_offset 3, -8
 1964              		.cfi_offset 14, -4
1155:Drivers/STM32F7xx_HAL_Driver/Src/stm32f7xx_hal_spdifrx.c ****   hspdif->CsXferCount--;
 1965              		.loc 1 1155 0
 1966 0002 0268     		ldr	r2, [r0]
 1967 0004 036B     		ldr	r3, [r0, #48]
 1968 0006 191D     		adds	r1, r3, #4
ARM GAS  C:\Users\Patryk\AppData\Local\Temp\ccutd4KM.s 			page 62


 1969 0008 0163     		str	r1, [r0, #48]
 1970 000a 5269     		ldr	r2, [r2, #20]
 1971 000c 1A60     		str	r2, [r3]
1156:Drivers/STM32F7xx_HAL_Driver/Src/stm32f7xx_hal_spdifrx.c ****   
 1972              		.loc 1 1156 0
 1973 000e 438F     		ldrh	r3, [r0, #58]
 1974 0010 013B     		subs	r3, r3, #1
 1975 0012 9BB2     		uxth	r3, r3
 1976 0014 4387     		strh	r3, [r0, #58]	@ movhi
1158:Drivers/STM32F7xx_HAL_Driver/Src/stm32f7xx_hal_spdifrx.c ****   {        
 1977              		.loc 1 1158 0
 1978 0016 438F     		ldrh	r3, [r0, #58]
 1979 0018 9BB2     		uxth	r3, r3
 1980 001a 03B1     		cbz	r3, .L142
 1981              	.LVL162:
 1982              	.L139:
1170:Drivers/STM32F7xx_HAL_Driver/Src/stm32f7xx_hal_spdifrx.c **** 
 1983              		.loc 1 1170 0
 1984 001c 08BD     		pop	{r3, pc}
 1985              	.LVL163:
 1986              	.L142:
1161:Drivers/STM32F7xx_HAL_Driver/Src/stm32f7xx_hal_spdifrx.c ****     
 1987              		.loc 1 1161 0
 1988 001e 0268     		ldr	r2, [r0]
 1989 0020 5368     		ldr	r3, [r2, #4]
 1990 0022 23F00203 		bic	r3, r3, #2
 1991 0026 1B04     		lsls	r3, r3, #16
 1992 0028 1B0C     		lsrs	r3, r3, #16
 1993 002a 5360     		str	r3, [r2, #4]
1163:Drivers/STM32F7xx_HAL_Driver/Src/stm32f7xx_hal_spdifrx.c ****     
 1994              		.loc 1 1163 0
 1995 002c 0123     		movs	r3, #1
 1996 002e 80F84530 		strb	r3, [r0, #69]
1166:Drivers/STM32F7xx_HAL_Driver/Src/stm32f7xx_hal_spdifrx.c ****     
 1997              		.loc 1 1166 0
 1998 0032 0023     		movs	r3, #0
 1999 0034 80F84430 		strb	r3, [r0, #68]
1168:Drivers/STM32F7xx_HAL_Driver/Src/stm32f7xx_hal_spdifrx.c ****   }
 2000              		.loc 1 1168 0
 2001 0038 FFF7FEFF 		bl	HAL_SPDIFRX_CxCpltCallback
 2002              	.LVL164:
1170:Drivers/STM32F7xx_HAL_Driver/Src/stm32f7xx_hal_spdifrx.c **** 
 2003              		.loc 1 1170 0
 2004 003c EEE7     		b	.L139
 2005              		.cfi_endproc
 2006              	.LFE164:
 2008              		.section	.text.HAL_SPDIFRX_ErrorCallback,"ax",%progbits
 2009              		.align	1
 2010              		.weak	HAL_SPDIFRX_ErrorCallback
 2011              		.syntax unified
 2012              		.thumb
 2013              		.thumb_func
 2014              		.fpu fpv5-sp-d16
 2016              	HAL_SPDIFRX_ErrorCallback:
 2017              	.LFB155:
 989:Drivers/STM32F7xx_HAL_Driver/Src/stm32f7xx_hal_spdifrx.c ****   /* Prevent unused argument(s) compilation warning */
 2018              		.loc 1 989 0
ARM GAS  C:\Users\Patryk\AppData\Local\Temp\ccutd4KM.s 			page 63


 2019              		.cfi_startproc
 2020              		@ args = 0, pretend = 0, frame = 0
 2021              		@ frame_needed = 0, uses_anonymous_args = 0
 2022              		@ link register save eliminated.
 2023              	.LVL165:
 996:Drivers/STM32F7xx_HAL_Driver/Src/stm32f7xx_hal_spdifrx.c **** 
 2024              		.loc 1 996 0
 2025 0000 7047     		bx	lr
 2026              		.cfi_endproc
 2027              	.LFE155:
 2029              		.section	.text.SPDIFRX_DMAError,"ax",%progbits
 2030              		.align	1
 2031              		.syntax unified
 2032              		.thumb
 2033              		.thumb_func
 2034              		.fpu fpv5-sp-d16
 2036              	SPDIFRX_DMAError:
 2037              	.LFB162:
1108:Drivers/STM32F7xx_HAL_Driver/Src/stm32f7xx_hal_spdifrx.c ****   SPDIFRX_HandleTypeDef* hspdif = ( SPDIFRX_HandleTypeDef* )((DMA_HandleTypeDef* )hdma)->Parent;
 2038              		.loc 1 1108 0
 2039              		.cfi_startproc
 2040              		@ args = 0, pretend = 0, frame = 0
 2041              		@ frame_needed = 0, uses_anonymous_args = 0
 2042              	.LVL166:
 2043 0000 08B5     		push	{r3, lr}
 2044              	.LCFI44:
 2045              		.cfi_def_cfa_offset 8
 2046              		.cfi_offset 3, -8
 2047              		.cfi_offset 14, -4
1109:Drivers/STM32F7xx_HAL_Driver/Src/stm32f7xx_hal_spdifrx.c ****   
 2048              		.loc 1 1109 0
 2049 0002 806B     		ldr	r0, [r0, #56]
 2050              	.LVL167:
1112:Drivers/STM32F7xx_HAL_Driver/Src/stm32f7xx_hal_spdifrx.c ****   hspdif->RxXferCount = 0;
 2051              		.loc 1 1112 0
 2052 0004 0268     		ldr	r2, [r0]
 2053 0006 1368     		ldr	r3, [r2]
 2054 0008 23F48063 		bic	r3, r3, #1024
 2055 000c 23F00403 		bic	r3, r3, #4
 2056 0010 1B04     		lsls	r3, r3, #16
 2057 0012 1B0C     		lsrs	r3, r3, #16
 2058 0014 1360     		str	r3, [r2]
1113:Drivers/STM32F7xx_HAL_Driver/Src/stm32f7xx_hal_spdifrx.c ****   
 2059              		.loc 1 1113 0
 2060 0016 0023     		movs	r3, #0
 2061 0018 C386     		strh	r3, [r0, #54]	@ movhi
1115:Drivers/STM32F7xx_HAL_Driver/Src/stm32f7xx_hal_spdifrx.c ****   
 2062              		.loc 1 1115 0
 2063 001a 0123     		movs	r3, #1
 2064 001c 80F84530 		strb	r3, [r0, #69]
1118:Drivers/STM32F7xx_HAL_Driver/Src/stm32f7xx_hal_spdifrx.c ****   HAL_SPDIFRX_ErrorCallback(hspdif);
 2065              		.loc 1 1118 0
 2066 0020 836C     		ldr	r3, [r0, #72]
 2067 0022 43F00803 		orr	r3, r3, #8
 2068 0026 8364     		str	r3, [r0, #72]
1119:Drivers/STM32F7xx_HAL_Driver/Src/stm32f7xx_hal_spdifrx.c **** }
 2069              		.loc 1 1119 0
ARM GAS  C:\Users\Patryk\AppData\Local\Temp\ccutd4KM.s 			page 64


 2070 0028 FFF7FEFF 		bl	HAL_SPDIFRX_ErrorCallback
 2071              	.LVL168:
1120:Drivers/STM32F7xx_HAL_Driver/Src/stm32f7xx_hal_spdifrx.c **** 
 2072              		.loc 1 1120 0
 2073 002c 08BD     		pop	{r3, pc}
 2074              		.cfi_endproc
 2075              	.LFE162:
 2077              		.section	.text.HAL_SPDIFRX_IRQHandler,"ax",%progbits
 2078              		.align	1
 2079              		.global	HAL_SPDIFRX_IRQHandler
 2080              		.syntax unified
 2081              		.thumb
 2082              		.thumb_func
 2083              		.fpu fpv5-sp-d16
 2085              	HAL_SPDIFRX_IRQHandler:
 2086              	.LFB150:
 883:Drivers/STM32F7xx_HAL_Driver/Src/stm32f7xx_hal_spdifrx.c ****   /* SPDIFRX in mode Data Flow Reception ------------------------------------------------*/
 2087              		.loc 1 883 0
 2088              		.cfi_startproc
 2089              		@ args = 0, pretend = 0, frame = 0
 2090              		@ frame_needed = 0, uses_anonymous_args = 0
 2091              	.LVL169:
 2092 0000 10B5     		push	{r4, lr}
 2093              	.LCFI45:
 2094              		.cfi_def_cfa_offset 8
 2095              		.cfi_offset 4, -8
 2096              		.cfi_offset 14, -4
 2097 0002 0446     		mov	r4, r0
 885:Drivers/STM32F7xx_HAL_Driver/Src/stm32f7xx_hal_spdifrx.c ****   {
 2098              		.loc 1 885 0
 2099 0004 0368     		ldr	r3, [r0]
 2100 0006 9A68     		ldr	r2, [r3, #8]
 2101 0008 12F0010F 		tst	r2, #1
 2102 000c 03D0     		beq	.L147
 885:Drivers/STM32F7xx_HAL_Driver/Src/stm32f7xx_hal_spdifrx.c ****   {
 2103              		.loc 1 885 0 is_stmt 0 discriminator 1
 2104 000e 5A68     		ldr	r2, [r3, #4]
 2105 0010 12F0010F 		tst	r2, #1
 2106 0014 1BD1     		bne	.L152
 2107              	.LVL170:
 2108              	.L147:
 892:Drivers/STM32F7xx_HAL_Driver/Src/stm32f7xx_hal_spdifrx.c ****   {
 2109              		.loc 1 892 0 is_stmt 1
 2110 0016 2368     		ldr	r3, [r4]
 2111 0018 9A68     		ldr	r2, [r3, #8]
 2112 001a 12F0020F 		tst	r2, #2
 2113 001e 03D0     		beq	.L148
 892:Drivers/STM32F7xx_HAL_Driver/Src/stm32f7xx_hal_spdifrx.c ****   {
 2114              		.loc 1 892 0 is_stmt 0 discriminator 1
 2115 0020 5A68     		ldr	r2, [r3, #4]
 2116 0022 12F0020F 		tst	r2, #2
 2117 0026 17D1     		bne	.L153
 2118              	.L148:
 899:Drivers/STM32F7xx_HAL_Driver/Src/stm32f7xx_hal_spdifrx.c ****   {
 2119              		.loc 1 899 0 is_stmt 1
 2120 0028 2368     		ldr	r3, [r4]
 2121 002a 9A68     		ldr	r2, [r3, #8]
ARM GAS  C:\Users\Patryk\AppData\Local\Temp\ccutd4KM.s 			page 65


 2122 002c 12F0080F 		tst	r2, #8
 2123 0030 03D0     		beq	.L149
 899:Drivers/STM32F7xx_HAL_Driver/Src/stm32f7xx_hal_spdifrx.c ****   {
 2124              		.loc 1 899 0 is_stmt 0 discriminator 1
 2125 0032 5A68     		ldr	r2, [r3, #4]
 2126 0034 12F0080F 		tst	r2, #8
 2127 0038 14D1     		bne	.L154
 2128              	.L149:
 911:Drivers/STM32F7xx_HAL_Driver/Src/stm32f7xx_hal_spdifrx.c ****   {
 2129              		.loc 1 911 0 is_stmt 1
 2130 003a 2368     		ldr	r3, [r4]
 2131 003c 9A68     		ldr	r2, [r3, #8]
 2132 003e 12F0040F 		tst	r2, #4
 2133 0042 03D0     		beq	.L146
 911:Drivers/STM32F7xx_HAL_Driver/Src/stm32f7xx_hal_spdifrx.c ****   {
 2134              		.loc 1 911 0 is_stmt 0 discriminator 1
 2135 0044 5A68     		ldr	r2, [r3, #4]
 2136 0046 12F0040F 		tst	r2, #4
 2137 004a 15D1     		bne	.L155
 2138              	.L146:
 921:Drivers/STM32F7xx_HAL_Driver/Src/stm32f7xx_hal_spdifrx.c **** 
 2139              		.loc 1 921 0 is_stmt 1
 2140 004c 10BD     		pop	{r4, pc}
 2141              	.LVL171:
 2142              	.L152:
 887:Drivers/STM32F7xx_HAL_Driver/Src/stm32f7xx_hal_spdifrx.c ****     SPDIFRX_ReceiveDataFlow_IT(hspdif);
 2143              		.loc 1 887 0
 2144 004e 0122     		movs	r2, #1
 2145 0050 DA60     		str	r2, [r3, #12]
 888:Drivers/STM32F7xx_HAL_Driver/Src/stm32f7xx_hal_spdifrx.c ****   }
 2146              		.loc 1 888 0
 2147 0052 FFF7FEFF 		bl	SPDIFRX_ReceiveDataFlow_IT
 2148              	.LVL172:
 2149 0056 DEE7     		b	.L147
 2150              	.L153:
 894:Drivers/STM32F7xx_HAL_Driver/Src/stm32f7xx_hal_spdifrx.c ****     SPDIFRX_ReceiveControlFlow_IT(hspdif);
 2151              		.loc 1 894 0
 2152 0058 0222     		movs	r2, #2
 2153 005a DA60     		str	r2, [r3, #12]
 895:Drivers/STM32F7xx_HAL_Driver/Src/stm32f7xx_hal_spdifrx.c ****   }
 2154              		.loc 1 895 0
 2155 005c 2046     		mov	r0, r4
 2156 005e FFF7FEFF 		bl	SPDIFRX_ReceiveControlFlow_IT
 2157              	.LVL173:
 2158 0062 E1E7     		b	.L148
 2159              	.L154:
 901:Drivers/STM32F7xx_HAL_Driver/Src/stm32f7xx_hal_spdifrx.c ****     
 2160              		.loc 1 901 0
 2161 0064 0822     		movs	r2, #8
 2162 0066 DA60     		str	r2, [r3, #12]
 904:Drivers/STM32F7xx_HAL_Driver/Src/stm32f7xx_hal_spdifrx.c ****     
 2163              		.loc 1 904 0
 2164 0068 A36C     		ldr	r3, [r4, #72]
 2165 006a 43F00203 		orr	r3, r3, #2
 2166 006e A364     		str	r3, [r4, #72]
 907:Drivers/STM32F7xx_HAL_Driver/Src/stm32f7xx_hal_spdifrx.c ****   } 
 2167              		.loc 1 907 0
ARM GAS  C:\Users\Patryk\AppData\Local\Temp\ccutd4KM.s 			page 66


 2168 0070 2046     		mov	r0, r4
 2169 0072 FFF7FEFF 		bl	HAL_SPDIFRX_ErrorCallback
 2170              	.LVL174:
 2171 0076 E0E7     		b	.L149
 2172              	.L155:
 913:Drivers/STM32F7xx_HAL_Driver/Src/stm32f7xx_hal_spdifrx.c ****     
 2173              		.loc 1 913 0
 2174 0078 0422     		movs	r2, #4
 2175 007a DA60     		str	r2, [r3, #12]
 916:Drivers/STM32F7xx_HAL_Driver/Src/stm32f7xx_hal_spdifrx.c ****     
 2176              		.loc 1 916 0
 2177 007c A36C     		ldr	r3, [r4, #72]
 2178 007e 1343     		orrs	r3, r3, r2
 2179 0080 A364     		str	r3, [r4, #72]
 919:Drivers/STM32F7xx_HAL_Driver/Src/stm32f7xx_hal_spdifrx.c ****   } 
 2180              		.loc 1 919 0
 2181 0082 2046     		mov	r0, r4
 2182 0084 FFF7FEFF 		bl	HAL_SPDIFRX_ErrorCallback
 2183              	.LVL175:
 921:Drivers/STM32F7xx_HAL_Driver/Src/stm32f7xx_hal_spdifrx.c **** 
 2184              		.loc 1 921 0
 2185 0088 E0E7     		b	.L146
 2186              		.cfi_endproc
 2187              	.LFE150:
 2189              		.section	.text.HAL_SPDIFRX_GetState,"ax",%progbits
 2190              		.align	1
 2191              		.global	HAL_SPDIFRX_GetState
 2192              		.syntax unified
 2193              		.thumb
 2194              		.thumb_func
 2195              		.fpu fpv5-sp-d16
 2197              	HAL_SPDIFRX_GetState:
 2198              	.LFB156:
1023:Drivers/STM32F7xx_HAL_Driver/Src/stm32f7xx_hal_spdifrx.c ****   return hspdif->State;
 2199              		.loc 1 1023 0
 2200              		.cfi_startproc
 2201              		@ args = 0, pretend = 0, frame = 0
 2202              		@ frame_needed = 0, uses_anonymous_args = 0
 2203              		@ link register save eliminated.
 2204              	.LVL176:
1024:Drivers/STM32F7xx_HAL_Driver/Src/stm32f7xx_hal_spdifrx.c **** }
 2205              		.loc 1 1024 0
 2206 0000 90F84500 		ldrb	r0, [r0, #69]	@ zero_extendqisi2
 2207              	.LVL177:
1025:Drivers/STM32F7xx_HAL_Driver/Src/stm32f7xx_hal_spdifrx.c **** 
 2208              		.loc 1 1025 0
 2209 0004 7047     		bx	lr
 2210              		.cfi_endproc
 2211              	.LFE156:
 2213              		.section	.text.HAL_SPDIFRX_GetError,"ax",%progbits
 2214              		.align	1
 2215              		.global	HAL_SPDIFRX_GetError
 2216              		.syntax unified
 2217              		.thumb
 2218              		.thumb_func
 2219              		.fpu fpv5-sp-d16
 2221              	HAL_SPDIFRX_GetError:
ARM GAS  C:\Users\Patryk\AppData\Local\Temp\ccutd4KM.s 			page 67


 2222              	.LFB157:
1033:Drivers/STM32F7xx_HAL_Driver/Src/stm32f7xx_hal_spdifrx.c ****   return hspdif->ErrorCode;
 2223              		.loc 1 1033 0
 2224              		.cfi_startproc
 2225              		@ args = 0, pretend = 0, frame = 0
 2226              		@ frame_needed = 0, uses_anonymous_args = 0
 2227              		@ link register save eliminated.
 2228              	.LVL178:
1034:Drivers/STM32F7xx_HAL_Driver/Src/stm32f7xx_hal_spdifrx.c **** }
 2229              		.loc 1 1034 0
 2230 0000 806C     		ldr	r0, [r0, #72]
 2231              	.LVL179:
1035:Drivers/STM32F7xx_HAL_Driver/Src/stm32f7xx_hal_spdifrx.c **** 
 2232              		.loc 1 1035 0
 2233 0002 7047     		bx	lr
 2234              		.cfi_endproc
 2235              	.LFE157:
 2237              		.text
 2238              	.Letext0:
 2239              		.file 2 "c:\\program files (x86)\\gnu\\7_2018-q2-update\\arm-none-eabi\\include\\machine\\_default
 2240              		.file 3 "c:\\program files (x86)\\gnu\\7_2018-q2-update\\arm-none-eabi\\include\\sys\\_stdint.h"
 2241              		.file 4 "Drivers/CMSIS/Include/core_cm7.h"
 2242              		.file 5 "Drivers/CMSIS/Device/ST/STM32F7xx/Include/system_stm32f7xx.h"
 2243              		.file 6 "Drivers/CMSIS/Device/ST/STM32F7xx/Include/stm32f746xx.h"
 2244              		.file 7 "Drivers/CMSIS/Device/ST/STM32F7xx/Include/stm32f7xx.h"
 2245              		.file 8 "c:\\program files (x86)\\gnu\\7_2018-q2-update\\arm-none-eabi\\include\\sys\\lock.h"
 2246              		.file 9 "c:\\program files (x86)\\gnu\\7_2018-q2-update\\arm-none-eabi\\include\\sys\\_types.h"
 2247              		.file 10 "c:\\program files (x86)\\gnu\\7_2018-q2-update\\lib\\gcc\\arm-none-eabi\\7.3.1\\include\
 2248              		.file 11 "c:\\program files (x86)\\gnu\\7_2018-q2-update\\arm-none-eabi\\include\\sys\\reent.h"
 2249              		.file 12 "Drivers/STM32F7xx_HAL_Driver/Inc/stm32f7xx_hal_def.h"
 2250              		.file 13 "Drivers/STM32F7xx_HAL_Driver/Inc/stm32f7xx_hal_dma.h"
 2251              		.file 14 "Drivers/STM32F7xx_HAL_Driver/Inc/stm32f7xx_hal_spdifrx.h"
 2252              		.file 15 "Drivers/STM32F7xx_HAL_Driver/Inc/stm32f7xx_hal.h"
ARM GAS  C:\Users\Patryk\AppData\Local\Temp\ccutd4KM.s 			page 68


DEFINED SYMBOLS
                            *ABS*:00000000 stm32f7xx_hal_spdifrx.c
C:\Users\Patryk\AppData\Local\Temp\ccutd4KM.s:18     .text.SPDIFRX_WaitOnFlagUntilTimeout:00000000 $t
C:\Users\Patryk\AppData\Local\Temp\ccutd4KM.s:24     .text.SPDIFRX_WaitOnFlagUntilTimeout:00000000 SPDIFRX_WaitOnFlagUntilTimeout
C:\Users\Patryk\AppData\Local\Temp\ccutd4KM.s:215    .text.HAL_SPDIFRX_MspInit:00000000 $t
C:\Users\Patryk\AppData\Local\Temp\ccutd4KM.s:222    .text.HAL_SPDIFRX_MspInit:00000000 HAL_SPDIFRX_MspInit
C:\Users\Patryk\AppData\Local\Temp\ccutd4KM.s:236    .text.HAL_SPDIFRX_Init:00000000 $t
C:\Users\Patryk\AppData\Local\Temp\ccutd4KM.s:243    .text.HAL_SPDIFRX_Init:00000000 HAL_SPDIFRX_Init
C:\Users\Patryk\AppData\Local\Temp\ccutd4KM.s:354    .text.HAL_SPDIFRX_Init:0000006c $d
C:\Users\Patryk\AppData\Local\Temp\ccutd4KM.s:359    .text.HAL_SPDIFRX_MspDeInit:00000000 $t
C:\Users\Patryk\AppData\Local\Temp\ccutd4KM.s:366    .text.HAL_SPDIFRX_MspDeInit:00000000 HAL_SPDIFRX_MspDeInit
C:\Users\Patryk\AppData\Local\Temp\ccutd4KM.s:380    .text.HAL_SPDIFRX_DeInit:00000000 $t
C:\Users\Patryk\AppData\Local\Temp\ccutd4KM.s:387    .text.HAL_SPDIFRX_DeInit:00000000 HAL_SPDIFRX_DeInit
C:\Users\Patryk\AppData\Local\Temp\ccutd4KM.s:438    .text.HAL_SPDIFRX_SetDataFormat:00000000 $t
C:\Users\Patryk\AppData\Local\Temp\ccutd4KM.s:445    .text.HAL_SPDIFRX_SetDataFormat:00000000 HAL_SPDIFRX_SetDataFormat
C:\Users\Patryk\AppData\Local\Temp\ccutd4KM.s:551    .text.HAL_SPDIFRX_ReceiveDataFlow:00000000 $t
C:\Users\Patryk\AppData\Local\Temp\ccutd4KM.s:558    .text.HAL_SPDIFRX_ReceiveDataFlow:00000000 HAL_SPDIFRX_ReceiveDataFlow
C:\Users\Patryk\AppData\Local\Temp\ccutd4KM.s:711    .text.HAL_SPDIFRX_ReceiveControlFlow:00000000 $t
C:\Users\Patryk\AppData\Local\Temp\ccutd4KM.s:718    .text.HAL_SPDIFRX_ReceiveControlFlow:00000000 HAL_SPDIFRX_ReceiveControlFlow
C:\Users\Patryk\AppData\Local\Temp\ccutd4KM.s:871    .text.HAL_SPDIFRX_ReceiveDataFlow_IT:00000000 $t
C:\Users\Patryk\AppData\Local\Temp\ccutd4KM.s:878    .text.HAL_SPDIFRX_ReceiveDataFlow_IT:00000000 HAL_SPDIFRX_ReceiveDataFlow_IT
C:\Users\Patryk\AppData\Local\Temp\ccutd4KM.s:1040   .text.HAL_SPDIFRX_ReceiveControlFlow_IT:00000000 $t
C:\Users\Patryk\AppData\Local\Temp\ccutd4KM.s:1047   .text.HAL_SPDIFRX_ReceiveControlFlow_IT:00000000 HAL_SPDIFRX_ReceiveControlFlow_IT
C:\Users\Patryk\AppData\Local\Temp\ccutd4KM.s:1209   .text.HAL_SPDIFRX_ReceiveDataFlow_DMA:00000000 $t
C:\Users\Patryk\AppData\Local\Temp\ccutd4KM.s:1216   .text.HAL_SPDIFRX_ReceiveDataFlow_DMA:00000000 HAL_SPDIFRX_ReceiveDataFlow_DMA
C:\Users\Patryk\AppData\Local\Temp\ccutd4KM.s:1384   .text.HAL_SPDIFRX_ReceiveDataFlow_DMA:000000d4 $d
C:\Users\Patryk\AppData\Local\Temp\ccutd4KM.s:1674   .text.SPDIFRX_DMARxHalfCplt:00000000 SPDIFRX_DMARxHalfCplt
C:\Users\Patryk\AppData\Local\Temp\ccutd4KM.s:1725   .text.SPDIFRX_DMARxCplt:00000000 SPDIFRX_DMARxCplt
C:\Users\Patryk\AppData\Local\Temp\ccutd4KM.s:2036   .text.SPDIFRX_DMAError:00000000 SPDIFRX_DMAError
C:\Users\Patryk\AppData\Local\Temp\ccutd4KM.s:1391   .text.HAL_SPDIFRX_ReceiveControlFlow_DMA:00000000 $t
C:\Users\Patryk\AppData\Local\Temp\ccutd4KM.s:1398   .text.HAL_SPDIFRX_ReceiveControlFlow_DMA:00000000 HAL_SPDIFRX_ReceiveControlFlow_DMA
C:\Users\Patryk\AppData\Local\Temp\ccutd4KM.s:1566   .text.HAL_SPDIFRX_ReceiveControlFlow_DMA:000000d4 $d
C:\Users\Patryk\AppData\Local\Temp\ccutd4KM.s:1859   .text.SPDIFRX_DMACxHalfCplt:00000000 SPDIFRX_DMACxHalfCplt
C:\Users\Patryk\AppData\Local\Temp\ccutd4KM.s:1910   .text.SPDIFRX_DMACxCplt:00000000 SPDIFRX_DMACxCplt
C:\Users\Patryk\AppData\Local\Temp\ccutd4KM.s:1573   .text.HAL_SPDIFRX_DMAStop:00000000 $t
C:\Users\Patryk\AppData\Local\Temp\ccutd4KM.s:1580   .text.HAL_SPDIFRX_DMAStop:00000000 HAL_SPDIFRX_DMAStop
C:\Users\Patryk\AppData\Local\Temp\ccutd4KM.s:1647   .text.HAL_SPDIFRX_RxHalfCpltCallback:00000000 $t
C:\Users\Patryk\AppData\Local\Temp\ccutd4KM.s:1654   .text.HAL_SPDIFRX_RxHalfCpltCallback:00000000 HAL_SPDIFRX_RxHalfCpltCallback
C:\Users\Patryk\AppData\Local\Temp\ccutd4KM.s:1668   .text.SPDIFRX_DMARxHalfCplt:00000000 $t
C:\Users\Patryk\AppData\Local\Temp\ccutd4KM.s:1698   .text.HAL_SPDIFRX_RxCpltCallback:00000000 $t
C:\Users\Patryk\AppData\Local\Temp\ccutd4KM.s:1705   .text.HAL_SPDIFRX_RxCpltCallback:00000000 HAL_SPDIFRX_RxCpltCallback
C:\Users\Patryk\AppData\Local\Temp\ccutd4KM.s:1719   .text.SPDIFRX_DMARxCplt:00000000 $t
C:\Users\Patryk\AppData\Local\Temp\ccutd4KM.s:1770   .text.SPDIFRX_ReceiveDataFlow_IT:00000000 $t
C:\Users\Patryk\AppData\Local\Temp\ccutd4KM.s:1776   .text.SPDIFRX_ReceiveDataFlow_IT:00000000 SPDIFRX_ReceiveDataFlow_IT
C:\Users\Patryk\AppData\Local\Temp\ccutd4KM.s:1832   .text.HAL_SPDIFRX_CxHalfCpltCallback:00000000 $t
C:\Users\Patryk\AppData\Local\Temp\ccutd4KM.s:1839   .text.HAL_SPDIFRX_CxHalfCpltCallback:00000000 HAL_SPDIFRX_CxHalfCpltCallback
C:\Users\Patryk\AppData\Local\Temp\ccutd4KM.s:1853   .text.SPDIFRX_DMACxHalfCplt:00000000 $t
C:\Users\Patryk\AppData\Local\Temp\ccutd4KM.s:1883   .text.HAL_SPDIFRX_CxCpltCallback:00000000 $t
C:\Users\Patryk\AppData\Local\Temp\ccutd4KM.s:1890   .text.HAL_SPDIFRX_CxCpltCallback:00000000 HAL_SPDIFRX_CxCpltCallback
C:\Users\Patryk\AppData\Local\Temp\ccutd4KM.s:1904   .text.SPDIFRX_DMACxCplt:00000000 $t
C:\Users\Patryk\AppData\Local\Temp\ccutd4KM.s:1947   .text.SPDIFRX_ReceiveControlFlow_IT:00000000 $t
C:\Users\Patryk\AppData\Local\Temp\ccutd4KM.s:1953   .text.SPDIFRX_ReceiveControlFlow_IT:00000000 SPDIFRX_ReceiveControlFlow_IT
C:\Users\Patryk\AppData\Local\Temp\ccutd4KM.s:2009   .text.HAL_SPDIFRX_ErrorCallback:00000000 $t
C:\Users\Patryk\AppData\Local\Temp\ccutd4KM.s:2016   .text.HAL_SPDIFRX_ErrorCallback:00000000 HAL_SPDIFRX_ErrorCallback
C:\Users\Patryk\AppData\Local\Temp\ccutd4KM.s:2030   .text.SPDIFRX_DMAError:00000000 $t
C:\Users\Patryk\AppData\Local\Temp\ccutd4KM.s:2078   .text.HAL_SPDIFRX_IRQHandler:00000000 $t
C:\Users\Patryk\AppData\Local\Temp\ccutd4KM.s:2085   .text.HAL_SPDIFRX_IRQHandler:00000000 HAL_SPDIFRX_IRQHandler
ARM GAS  C:\Users\Patryk\AppData\Local\Temp\ccutd4KM.s 			page 69


C:\Users\Patryk\AppData\Local\Temp\ccutd4KM.s:2190   .text.HAL_SPDIFRX_GetState:00000000 $t
C:\Users\Patryk\AppData\Local\Temp\ccutd4KM.s:2197   .text.HAL_SPDIFRX_GetState:00000000 HAL_SPDIFRX_GetState
C:\Users\Patryk\AppData\Local\Temp\ccutd4KM.s:2214   .text.HAL_SPDIFRX_GetError:00000000 $t
C:\Users\Patryk\AppData\Local\Temp\ccutd4KM.s:2221   .text.HAL_SPDIFRX_GetError:00000000 HAL_SPDIFRX_GetError

UNDEFINED SYMBOLS
HAL_GetTick
HAL_DMA_Start_IT
