ARM GAS  C:\Users\Patryk\AppData\Local\Temp\cc1IRkRa.s 			page 1


   1              		.cpu cortex-m7
   2              		.eabi_attribute 27, 1
   3              		.eabi_attribute 28, 1
   4              		.eabi_attribute 20, 1
   5              		.eabi_attribute 21, 1
   6              		.eabi_attribute 23, 3
   7              		.eabi_attribute 24, 1
   8              		.eabi_attribute 25, 1
   9              		.eabi_attribute 26, 1
  10              		.eabi_attribute 30, 1
  11              		.eabi_attribute 34, 1
  12              		.eabi_attribute 18, 4
  13              		.file	"stm32f7xx_hal_msp.c"
  14              		.text
  15              	.Ltext0:
  16              		.cfi_sections	.debug_frame
  17              		.section	.text.HAL_FMC_MspInit,"ax",%progbits
  18              		.align	1
  19              		.syntax unified
  20              		.thumb
  21              		.thumb_func
  22              		.fpu fpv5-sp-d16
  24              	HAL_FMC_MspInit:
  25              	.LFB168:
  26              		.file 1 "Src/stm32f7xx_hal_msp.c"
   1:Src/stm32f7xx_hal_msp.c **** /**
   2:Src/stm32f7xx_hal_msp.c ****   ******************************************************************************
   3:Src/stm32f7xx_hal_msp.c ****   * File Name          : stm32f7xx_hal_msp.c
   4:Src/stm32f7xx_hal_msp.c ****   * Description        : This file provides code for the MSP Initialization 
   5:Src/stm32f7xx_hal_msp.c ****   *                      and de-Initialization codes.
   6:Src/stm32f7xx_hal_msp.c ****   ******************************************************************************
   7:Src/stm32f7xx_hal_msp.c ****   * This notice applies to any and all portions of this file
   8:Src/stm32f7xx_hal_msp.c ****   * that are not between comment pairs USER CODE BEGIN and
   9:Src/stm32f7xx_hal_msp.c ****   * USER CODE END. Other portions of this file, whether 
  10:Src/stm32f7xx_hal_msp.c ****   * inserted by the user or by software development tools
  11:Src/stm32f7xx_hal_msp.c ****   * are owned by their respective copyright owners.
  12:Src/stm32f7xx_hal_msp.c ****   *
  13:Src/stm32f7xx_hal_msp.c ****   * Copyright (c) 2018 STMicroelectronics International N.V. 
  14:Src/stm32f7xx_hal_msp.c ****   * All rights reserved.
  15:Src/stm32f7xx_hal_msp.c ****   *
  16:Src/stm32f7xx_hal_msp.c ****   * Redistribution and use in source and binary forms, with or without 
  17:Src/stm32f7xx_hal_msp.c ****   * modification, are permitted, provided that the following conditions are met:
  18:Src/stm32f7xx_hal_msp.c ****   *
  19:Src/stm32f7xx_hal_msp.c ****   * 1. Redistribution of source code must retain the above copyright notice, 
  20:Src/stm32f7xx_hal_msp.c ****   *    this list of conditions and the following disclaimer.
  21:Src/stm32f7xx_hal_msp.c ****   * 2. Redistributions in binary form must reproduce the above copyright notice,
  22:Src/stm32f7xx_hal_msp.c ****   *    this list of conditions and the following disclaimer in the documentation
  23:Src/stm32f7xx_hal_msp.c ****   *    and/or other materials provided with the distribution.
  24:Src/stm32f7xx_hal_msp.c ****   * 3. Neither the name of STMicroelectronics nor the names of other 
  25:Src/stm32f7xx_hal_msp.c ****   *    contributors to this software may be used to endorse or promote products 
  26:Src/stm32f7xx_hal_msp.c ****   *    derived from this software without specific written permission.
  27:Src/stm32f7xx_hal_msp.c ****   * 4. This software, including modifications and/or derivative works of this 
  28:Src/stm32f7xx_hal_msp.c ****   *    software, must execute solely and exclusively on microcontroller or
  29:Src/stm32f7xx_hal_msp.c ****   *    microprocessor devices manufactured by or for STMicroelectronics.
  30:Src/stm32f7xx_hal_msp.c ****   * 5. Redistribution and use of this software other than as permitted under 
  31:Src/stm32f7xx_hal_msp.c ****   *    this license is void and will automatically terminate your rights under 
  32:Src/stm32f7xx_hal_msp.c ****   *    this license. 
ARM GAS  C:\Users\Patryk\AppData\Local\Temp\cc1IRkRa.s 			page 2


  33:Src/stm32f7xx_hal_msp.c ****   *
  34:Src/stm32f7xx_hal_msp.c ****   * THIS SOFTWARE IS PROVIDED BY STMICROELECTRONICS AND CONTRIBUTORS "AS IS" 
  35:Src/stm32f7xx_hal_msp.c ****   * AND ANY EXPRESS, IMPLIED OR STATUTORY WARRANTIES, INCLUDING, BUT NOT 
  36:Src/stm32f7xx_hal_msp.c ****   * LIMITED TO, THE IMPLIED WARRANTIES OF MERCHANTABILITY, FITNESS FOR A 
  37:Src/stm32f7xx_hal_msp.c ****   * PARTICULAR PURPOSE AND NON-INFRINGEMENT OF THIRD PARTY INTELLECTUAL PROPERTY
  38:Src/stm32f7xx_hal_msp.c ****   * RIGHTS ARE DISCLAIMED TO THE FULLEST EXTENT PERMITTED BY LAW. IN NO EVENT 
  39:Src/stm32f7xx_hal_msp.c ****   * SHALL STMICROELECTRONICS OR CONTRIBUTORS BE LIABLE FOR ANY DIRECT, INDIRECT,
  40:Src/stm32f7xx_hal_msp.c ****   * INCIDENTAL, SPECIAL, EXEMPLARY, OR CONSEQUENTIAL DAMAGES (INCLUDING, BUT NOT
  41:Src/stm32f7xx_hal_msp.c ****   * LIMITED TO, PROCUREMENT OF SUBSTITUTE GOODS OR SERVICES; LOSS OF USE, DATA, 
  42:Src/stm32f7xx_hal_msp.c ****   * OR PROFITS; OR BUSINESS INTERRUPTION) HOWEVER CAUSED AND ON ANY THEORY OF 
  43:Src/stm32f7xx_hal_msp.c ****   * LIABILITY, WHETHER IN CONTRACT, STRICT LIABILITY, OR TORT (INCLUDING 
  44:Src/stm32f7xx_hal_msp.c ****   * NEGLIGENCE OR OTHERWISE) ARISING IN ANY WAY OUT OF THE USE OF THIS SOFTWARE,
  45:Src/stm32f7xx_hal_msp.c ****   * EVEN IF ADVISED OF THE POSSIBILITY OF SUCH DAMAGE.
  46:Src/stm32f7xx_hal_msp.c ****   *
  47:Src/stm32f7xx_hal_msp.c ****   ******************************************************************************
  48:Src/stm32f7xx_hal_msp.c ****   */
  49:Src/stm32f7xx_hal_msp.c **** /* Includes ------------------------------------------------------------------*/
  50:Src/stm32f7xx_hal_msp.c **** #include "stm32f7xx_hal.h"
  51:Src/stm32f7xx_hal_msp.c **** extern void _Error_Handler(char *, int);
  52:Src/stm32f7xx_hal_msp.c **** /* USER CODE BEGIN 0 */
  53:Src/stm32f7xx_hal_msp.c **** 
  54:Src/stm32f7xx_hal_msp.c **** /* USER CODE END 0 */
  55:Src/stm32f7xx_hal_msp.c ****                         
  56:Src/stm32f7xx_hal_msp.c **** void HAL_TIM_MspPostInit(TIM_HandleTypeDef *htim);
  57:Src/stm32f7xx_hal_msp.c ****                                                                                                    
  58:Src/stm32f7xx_hal_msp.c ****   * Initializes the Global MSP.
  59:Src/stm32f7xx_hal_msp.c ****   */
  60:Src/stm32f7xx_hal_msp.c **** void HAL_MspInit(void)
  61:Src/stm32f7xx_hal_msp.c **** {
  62:Src/stm32f7xx_hal_msp.c ****   /* USER CODE BEGIN MspInit 0 */
  63:Src/stm32f7xx_hal_msp.c **** 
  64:Src/stm32f7xx_hal_msp.c ****   /* USER CODE END MspInit 0 */
  65:Src/stm32f7xx_hal_msp.c **** 
  66:Src/stm32f7xx_hal_msp.c ****   __HAL_RCC_PWR_CLK_ENABLE();
  67:Src/stm32f7xx_hal_msp.c ****   __HAL_RCC_SYSCFG_CLK_ENABLE();
  68:Src/stm32f7xx_hal_msp.c **** 
  69:Src/stm32f7xx_hal_msp.c ****   HAL_NVIC_SetPriorityGrouping(NVIC_PRIORITYGROUP_4);
  70:Src/stm32f7xx_hal_msp.c **** 
  71:Src/stm32f7xx_hal_msp.c ****   /* System interrupt init*/
  72:Src/stm32f7xx_hal_msp.c ****   /* MemoryManagement_IRQn interrupt configuration */
  73:Src/stm32f7xx_hal_msp.c ****   HAL_NVIC_SetPriority(MemoryManagement_IRQn, 0, 0);
  74:Src/stm32f7xx_hal_msp.c ****   /* BusFault_IRQn interrupt configuration */
  75:Src/stm32f7xx_hal_msp.c ****   HAL_NVIC_SetPriority(BusFault_IRQn, 0, 0);
  76:Src/stm32f7xx_hal_msp.c ****   /* UsageFault_IRQn interrupt configuration */
  77:Src/stm32f7xx_hal_msp.c ****   HAL_NVIC_SetPriority(UsageFault_IRQn, 0, 0);
  78:Src/stm32f7xx_hal_msp.c ****   /* SVCall_IRQn interrupt configuration */
  79:Src/stm32f7xx_hal_msp.c ****   HAL_NVIC_SetPriority(SVCall_IRQn, 0, 0);
  80:Src/stm32f7xx_hal_msp.c ****   /* DebugMonitor_IRQn interrupt configuration */
  81:Src/stm32f7xx_hal_msp.c ****   HAL_NVIC_SetPriority(DebugMonitor_IRQn, 0, 0);
  82:Src/stm32f7xx_hal_msp.c ****   /* PendSV_IRQn interrupt configuration */
  83:Src/stm32f7xx_hal_msp.c ****   HAL_NVIC_SetPriority(PendSV_IRQn, 15, 0);
  84:Src/stm32f7xx_hal_msp.c ****   /* SysTick_IRQn interrupt configuration */
  85:Src/stm32f7xx_hal_msp.c ****   HAL_NVIC_SetPriority(SysTick_IRQn, 15, 0);
  86:Src/stm32f7xx_hal_msp.c **** 
  87:Src/stm32f7xx_hal_msp.c ****   /* USER CODE BEGIN MspInit 1 */
  88:Src/stm32f7xx_hal_msp.c **** 
  89:Src/stm32f7xx_hal_msp.c ****   /* USER CODE END MspInit 1 */
ARM GAS  C:\Users\Patryk\AppData\Local\Temp\cc1IRkRa.s 			page 3


  90:Src/stm32f7xx_hal_msp.c **** }
  91:Src/stm32f7xx_hal_msp.c **** 
  92:Src/stm32f7xx_hal_msp.c **** void HAL_ADC_MspInit(ADC_HandleTypeDef* hadc)
  93:Src/stm32f7xx_hal_msp.c **** {
  94:Src/stm32f7xx_hal_msp.c **** 
  95:Src/stm32f7xx_hal_msp.c ****   GPIO_InitTypeDef GPIO_InitStruct;
  96:Src/stm32f7xx_hal_msp.c ****   if(hadc->Instance==ADC3)
  97:Src/stm32f7xx_hal_msp.c ****   {
  98:Src/stm32f7xx_hal_msp.c ****   /* USER CODE BEGIN ADC3_MspInit 0 */
  99:Src/stm32f7xx_hal_msp.c **** 
 100:Src/stm32f7xx_hal_msp.c ****   /* USER CODE END ADC3_MspInit 0 */
 101:Src/stm32f7xx_hal_msp.c ****     /* Peripheral clock enable */
 102:Src/stm32f7xx_hal_msp.c ****     __HAL_RCC_ADC3_CLK_ENABLE();
 103:Src/stm32f7xx_hal_msp.c ****   
 104:Src/stm32f7xx_hal_msp.c ****     /**ADC3 GPIO Configuration    
 105:Src/stm32f7xx_hal_msp.c ****     PF7     ------> ADC3_IN5
 106:Src/stm32f7xx_hal_msp.c ****     PF6     ------> ADC3_IN4
 107:Src/stm32f7xx_hal_msp.c ****     PF10     ------> ADC3_IN8
 108:Src/stm32f7xx_hal_msp.c ****     PF9     ------> ADC3_IN7
 109:Src/stm32f7xx_hal_msp.c ****     PF8     ------> ADC3_IN6
 110:Src/stm32f7xx_hal_msp.c ****     PA0/WKUP     ------> ADC3_IN0 
 111:Src/stm32f7xx_hal_msp.c ****     */
 112:Src/stm32f7xx_hal_msp.c ****     GPIO_InitStruct.Pin = ARDUINO_A4_Pin|ARDUINO_A5_Pin|ARDUINO_A1_Pin|ARDUINO_A2_Pin 
 113:Src/stm32f7xx_hal_msp.c ****                           |ARDUINO_A3_Pin;
 114:Src/stm32f7xx_hal_msp.c ****     GPIO_InitStruct.Mode = GPIO_MODE_ANALOG;
 115:Src/stm32f7xx_hal_msp.c ****     GPIO_InitStruct.Pull = GPIO_NOPULL;
 116:Src/stm32f7xx_hal_msp.c ****     HAL_GPIO_Init(GPIOF, &GPIO_InitStruct);
 117:Src/stm32f7xx_hal_msp.c **** 
 118:Src/stm32f7xx_hal_msp.c ****     GPIO_InitStruct.Pin = ARDUINO_A0_Pin;
 119:Src/stm32f7xx_hal_msp.c ****     GPIO_InitStruct.Mode = GPIO_MODE_ANALOG;
 120:Src/stm32f7xx_hal_msp.c ****     GPIO_InitStruct.Pull = GPIO_NOPULL;
 121:Src/stm32f7xx_hal_msp.c ****     HAL_GPIO_Init(ARDUINO_A0_GPIO_Port, &GPIO_InitStruct);
 122:Src/stm32f7xx_hal_msp.c **** 
 123:Src/stm32f7xx_hal_msp.c ****   /* USER CODE BEGIN ADC3_MspInit 1 */
 124:Src/stm32f7xx_hal_msp.c **** 
 125:Src/stm32f7xx_hal_msp.c ****   /* USER CODE END ADC3_MspInit 1 */
 126:Src/stm32f7xx_hal_msp.c ****   }
 127:Src/stm32f7xx_hal_msp.c **** 
 128:Src/stm32f7xx_hal_msp.c **** }
 129:Src/stm32f7xx_hal_msp.c **** 
 130:Src/stm32f7xx_hal_msp.c **** void HAL_ADC_MspDeInit(ADC_HandleTypeDef* hadc)
 131:Src/stm32f7xx_hal_msp.c **** {
 132:Src/stm32f7xx_hal_msp.c **** 
 133:Src/stm32f7xx_hal_msp.c ****   if(hadc->Instance==ADC3)
 134:Src/stm32f7xx_hal_msp.c ****   {
 135:Src/stm32f7xx_hal_msp.c ****   /* USER CODE BEGIN ADC3_MspDeInit 0 */
 136:Src/stm32f7xx_hal_msp.c **** 
 137:Src/stm32f7xx_hal_msp.c ****   /* USER CODE END ADC3_MspDeInit 0 */
 138:Src/stm32f7xx_hal_msp.c ****     /* Peripheral clock disable */
 139:Src/stm32f7xx_hal_msp.c ****     __HAL_RCC_ADC3_CLK_DISABLE();
 140:Src/stm32f7xx_hal_msp.c ****   
 141:Src/stm32f7xx_hal_msp.c ****     /**ADC3 GPIO Configuration    
 142:Src/stm32f7xx_hal_msp.c ****     PF7     ------> ADC3_IN5
 143:Src/stm32f7xx_hal_msp.c ****     PF6     ------> ADC3_IN4
 144:Src/stm32f7xx_hal_msp.c ****     PF10     ------> ADC3_IN8
 145:Src/stm32f7xx_hal_msp.c ****     PF9     ------> ADC3_IN7
 146:Src/stm32f7xx_hal_msp.c ****     PF8     ------> ADC3_IN6
ARM GAS  C:\Users\Patryk\AppData\Local\Temp\cc1IRkRa.s 			page 4


 147:Src/stm32f7xx_hal_msp.c ****     PA0/WKUP     ------> ADC3_IN0 
 148:Src/stm32f7xx_hal_msp.c ****     */
 149:Src/stm32f7xx_hal_msp.c ****     HAL_GPIO_DeInit(GPIOF, ARDUINO_A4_Pin|ARDUINO_A5_Pin|ARDUINO_A1_Pin|ARDUINO_A2_Pin 
 150:Src/stm32f7xx_hal_msp.c ****                           |ARDUINO_A3_Pin);
 151:Src/stm32f7xx_hal_msp.c **** 
 152:Src/stm32f7xx_hal_msp.c ****     HAL_GPIO_DeInit(ARDUINO_A0_GPIO_Port, ARDUINO_A0_Pin);
 153:Src/stm32f7xx_hal_msp.c **** 
 154:Src/stm32f7xx_hal_msp.c ****   /* USER CODE BEGIN ADC3_MspDeInit 1 */
 155:Src/stm32f7xx_hal_msp.c **** 
 156:Src/stm32f7xx_hal_msp.c ****   /* USER CODE END ADC3_MspDeInit 1 */
 157:Src/stm32f7xx_hal_msp.c ****   }
 158:Src/stm32f7xx_hal_msp.c **** 
 159:Src/stm32f7xx_hal_msp.c **** }
 160:Src/stm32f7xx_hal_msp.c **** 
 161:Src/stm32f7xx_hal_msp.c **** void HAL_CRC_MspInit(CRC_HandleTypeDef* hcrc)
 162:Src/stm32f7xx_hal_msp.c **** {
 163:Src/stm32f7xx_hal_msp.c **** 
 164:Src/stm32f7xx_hal_msp.c ****   if(hcrc->Instance==CRC)
 165:Src/stm32f7xx_hal_msp.c ****   {
 166:Src/stm32f7xx_hal_msp.c ****   /* USER CODE BEGIN CRC_MspInit 0 */
 167:Src/stm32f7xx_hal_msp.c **** 
 168:Src/stm32f7xx_hal_msp.c ****   /* USER CODE END CRC_MspInit 0 */
 169:Src/stm32f7xx_hal_msp.c ****     /* Peripheral clock enable */
 170:Src/stm32f7xx_hal_msp.c ****     __HAL_RCC_CRC_CLK_ENABLE();
 171:Src/stm32f7xx_hal_msp.c ****   /* USER CODE BEGIN CRC_MspInit 1 */
 172:Src/stm32f7xx_hal_msp.c **** 
 173:Src/stm32f7xx_hal_msp.c ****   /* USER CODE END CRC_MspInit 1 */
 174:Src/stm32f7xx_hal_msp.c ****   }
 175:Src/stm32f7xx_hal_msp.c **** 
 176:Src/stm32f7xx_hal_msp.c **** }
 177:Src/stm32f7xx_hal_msp.c **** 
 178:Src/stm32f7xx_hal_msp.c **** void HAL_CRC_MspDeInit(CRC_HandleTypeDef* hcrc)
 179:Src/stm32f7xx_hal_msp.c **** {
 180:Src/stm32f7xx_hal_msp.c **** 
 181:Src/stm32f7xx_hal_msp.c ****   if(hcrc->Instance==CRC)
 182:Src/stm32f7xx_hal_msp.c ****   {
 183:Src/stm32f7xx_hal_msp.c ****   /* USER CODE BEGIN CRC_MspDeInit 0 */
 184:Src/stm32f7xx_hal_msp.c **** 
 185:Src/stm32f7xx_hal_msp.c ****   /* USER CODE END CRC_MspDeInit 0 */
 186:Src/stm32f7xx_hal_msp.c ****     /* Peripheral clock disable */
 187:Src/stm32f7xx_hal_msp.c ****     __HAL_RCC_CRC_CLK_DISABLE();
 188:Src/stm32f7xx_hal_msp.c ****   /* USER CODE BEGIN CRC_MspDeInit 1 */
 189:Src/stm32f7xx_hal_msp.c **** 
 190:Src/stm32f7xx_hal_msp.c ****   /* USER CODE END CRC_MspDeInit 1 */
 191:Src/stm32f7xx_hal_msp.c ****   }
 192:Src/stm32f7xx_hal_msp.c **** 
 193:Src/stm32f7xx_hal_msp.c **** }
 194:Src/stm32f7xx_hal_msp.c **** 
 195:Src/stm32f7xx_hal_msp.c **** void HAL_DCMI_MspInit(DCMI_HandleTypeDef* hdcmi)
 196:Src/stm32f7xx_hal_msp.c **** {
 197:Src/stm32f7xx_hal_msp.c **** 
 198:Src/stm32f7xx_hal_msp.c ****   GPIO_InitTypeDef GPIO_InitStruct;
 199:Src/stm32f7xx_hal_msp.c ****   if(hdcmi->Instance==DCMI)
 200:Src/stm32f7xx_hal_msp.c ****   {
 201:Src/stm32f7xx_hal_msp.c ****   /* USER CODE BEGIN DCMI_MspInit 0 */
 202:Src/stm32f7xx_hal_msp.c **** 
 203:Src/stm32f7xx_hal_msp.c ****   /* USER CODE END DCMI_MspInit 0 */
ARM GAS  C:\Users\Patryk\AppData\Local\Temp\cc1IRkRa.s 			page 5


 204:Src/stm32f7xx_hal_msp.c ****     /* Peripheral clock enable */
 205:Src/stm32f7xx_hal_msp.c ****     __HAL_RCC_DCMI_CLK_ENABLE();
 206:Src/stm32f7xx_hal_msp.c ****   
 207:Src/stm32f7xx_hal_msp.c ****     /**DCMI GPIO Configuration    
 208:Src/stm32f7xx_hal_msp.c ****     PE5     ------> DCMI_D6
 209:Src/stm32f7xx_hal_msp.c ****     PE6     ------> DCMI_D7
 210:Src/stm32f7xx_hal_msp.c ****     PD3     ------> DCMI_D5
 211:Src/stm32f7xx_hal_msp.c ****     PG9     ------> DCMI_VSYNC
 212:Src/stm32f7xx_hal_msp.c ****     PH14     ------> DCMI_D4
 213:Src/stm32f7xx_hal_msp.c ****     PH12     ------> DCMI_D3
 214:Src/stm32f7xx_hal_msp.c ****     PA4     ------> DCMI_HSYNC
 215:Src/stm32f7xx_hal_msp.c ****     PH9     ------> DCMI_D0
 216:Src/stm32f7xx_hal_msp.c ****     PH11     ------> DCMI_D2
 217:Src/stm32f7xx_hal_msp.c ****     PA6     ------> DCMI_PIXCLK
 218:Src/stm32f7xx_hal_msp.c ****     PH10     ------> DCMI_D1 
 219:Src/stm32f7xx_hal_msp.c ****     */
 220:Src/stm32f7xx_hal_msp.c ****     GPIO_InitStruct.Pin = DCMI_D6_Pin|DCMI_D7_Pin;
 221:Src/stm32f7xx_hal_msp.c ****     GPIO_InitStruct.Mode = GPIO_MODE_AF_PP;
 222:Src/stm32f7xx_hal_msp.c ****     GPIO_InitStruct.Pull = GPIO_NOPULL;
 223:Src/stm32f7xx_hal_msp.c ****     GPIO_InitStruct.Speed = GPIO_SPEED_FREQ_LOW;
 224:Src/stm32f7xx_hal_msp.c ****     GPIO_InitStruct.Alternate = GPIO_AF13_DCMI;
 225:Src/stm32f7xx_hal_msp.c ****     HAL_GPIO_Init(GPIOE, &GPIO_InitStruct);
 226:Src/stm32f7xx_hal_msp.c **** 
 227:Src/stm32f7xx_hal_msp.c ****     GPIO_InitStruct.Pin = DCMI_D5_Pin;
 228:Src/stm32f7xx_hal_msp.c ****     GPIO_InitStruct.Mode = GPIO_MODE_AF_PP;
 229:Src/stm32f7xx_hal_msp.c ****     GPIO_InitStruct.Pull = GPIO_NOPULL;
 230:Src/stm32f7xx_hal_msp.c ****     GPIO_InitStruct.Speed = GPIO_SPEED_FREQ_LOW;
 231:Src/stm32f7xx_hal_msp.c ****     GPIO_InitStruct.Alternate = GPIO_AF13_DCMI;
 232:Src/stm32f7xx_hal_msp.c ****     HAL_GPIO_Init(DCMI_D5_GPIO_Port, &GPIO_InitStruct);
 233:Src/stm32f7xx_hal_msp.c **** 
 234:Src/stm32f7xx_hal_msp.c ****     GPIO_InitStruct.Pin = DCMI_VSYNC_Pin;
 235:Src/stm32f7xx_hal_msp.c ****     GPIO_InitStruct.Mode = GPIO_MODE_AF_PP;
 236:Src/stm32f7xx_hal_msp.c ****     GPIO_InitStruct.Pull = GPIO_NOPULL;
 237:Src/stm32f7xx_hal_msp.c ****     GPIO_InitStruct.Speed = GPIO_SPEED_FREQ_LOW;
 238:Src/stm32f7xx_hal_msp.c ****     GPIO_InitStruct.Alternate = GPIO_AF13_DCMI;
 239:Src/stm32f7xx_hal_msp.c ****     HAL_GPIO_Init(DCMI_VSYNC_GPIO_Port, &GPIO_InitStruct);
 240:Src/stm32f7xx_hal_msp.c **** 
 241:Src/stm32f7xx_hal_msp.c ****     GPIO_InitStruct.Pin = DCMI_D4_Pin|DCMI_D3_Pin|DCMI_D0_Pin|DCMI_D2_Pin 
 242:Src/stm32f7xx_hal_msp.c ****                           |DCMI_D1_Pin;
 243:Src/stm32f7xx_hal_msp.c ****     GPIO_InitStruct.Mode = GPIO_MODE_AF_PP;
 244:Src/stm32f7xx_hal_msp.c ****     GPIO_InitStruct.Pull = GPIO_NOPULL;
 245:Src/stm32f7xx_hal_msp.c ****     GPIO_InitStruct.Speed = GPIO_SPEED_FREQ_LOW;
 246:Src/stm32f7xx_hal_msp.c ****     GPIO_InitStruct.Alternate = GPIO_AF13_DCMI;
 247:Src/stm32f7xx_hal_msp.c ****     HAL_GPIO_Init(GPIOH, &GPIO_InitStruct);
 248:Src/stm32f7xx_hal_msp.c **** 
 249:Src/stm32f7xx_hal_msp.c ****     GPIO_InitStruct.Pin = DCMI_HSYNC_Pin|GPIO_PIN_6;
 250:Src/stm32f7xx_hal_msp.c ****     GPIO_InitStruct.Mode = GPIO_MODE_AF_PP;
 251:Src/stm32f7xx_hal_msp.c ****     GPIO_InitStruct.Pull = GPIO_NOPULL;
 252:Src/stm32f7xx_hal_msp.c ****     GPIO_InitStruct.Speed = GPIO_SPEED_FREQ_LOW;
 253:Src/stm32f7xx_hal_msp.c ****     GPIO_InitStruct.Alternate = GPIO_AF13_DCMI;
 254:Src/stm32f7xx_hal_msp.c ****     HAL_GPIO_Init(GPIOA, &GPIO_InitStruct);
 255:Src/stm32f7xx_hal_msp.c **** 
 256:Src/stm32f7xx_hal_msp.c ****   /* USER CODE BEGIN DCMI_MspInit 1 */
 257:Src/stm32f7xx_hal_msp.c **** 
 258:Src/stm32f7xx_hal_msp.c ****   /* USER CODE END DCMI_MspInit 1 */
 259:Src/stm32f7xx_hal_msp.c ****   }
 260:Src/stm32f7xx_hal_msp.c **** 
ARM GAS  C:\Users\Patryk\AppData\Local\Temp\cc1IRkRa.s 			page 6


 261:Src/stm32f7xx_hal_msp.c **** }
 262:Src/stm32f7xx_hal_msp.c **** 
 263:Src/stm32f7xx_hal_msp.c **** void HAL_DCMI_MspDeInit(DCMI_HandleTypeDef* hdcmi)
 264:Src/stm32f7xx_hal_msp.c **** {
 265:Src/stm32f7xx_hal_msp.c **** 
 266:Src/stm32f7xx_hal_msp.c ****   if(hdcmi->Instance==DCMI)
 267:Src/stm32f7xx_hal_msp.c ****   {
 268:Src/stm32f7xx_hal_msp.c ****   /* USER CODE BEGIN DCMI_MspDeInit 0 */
 269:Src/stm32f7xx_hal_msp.c **** 
 270:Src/stm32f7xx_hal_msp.c ****   /* USER CODE END DCMI_MspDeInit 0 */
 271:Src/stm32f7xx_hal_msp.c ****     /* Peripheral clock disable */
 272:Src/stm32f7xx_hal_msp.c ****     __HAL_RCC_DCMI_CLK_DISABLE();
 273:Src/stm32f7xx_hal_msp.c ****   
 274:Src/stm32f7xx_hal_msp.c ****     /**DCMI GPIO Configuration    
 275:Src/stm32f7xx_hal_msp.c ****     PE5     ------> DCMI_D6
 276:Src/stm32f7xx_hal_msp.c ****     PE6     ------> DCMI_D7
 277:Src/stm32f7xx_hal_msp.c ****     PD3     ------> DCMI_D5
 278:Src/stm32f7xx_hal_msp.c ****     PG9     ------> DCMI_VSYNC
 279:Src/stm32f7xx_hal_msp.c ****     PH14     ------> DCMI_D4
 280:Src/stm32f7xx_hal_msp.c ****     PH12     ------> DCMI_D3
 281:Src/stm32f7xx_hal_msp.c ****     PA4     ------> DCMI_HSYNC
 282:Src/stm32f7xx_hal_msp.c ****     PH9     ------> DCMI_D0
 283:Src/stm32f7xx_hal_msp.c ****     PH11     ------> DCMI_D2
 284:Src/stm32f7xx_hal_msp.c ****     PA6     ------> DCMI_PIXCLK
 285:Src/stm32f7xx_hal_msp.c ****     PH10     ------> DCMI_D1 
 286:Src/stm32f7xx_hal_msp.c ****     */
 287:Src/stm32f7xx_hal_msp.c ****     HAL_GPIO_DeInit(GPIOE, DCMI_D6_Pin|DCMI_D7_Pin);
 288:Src/stm32f7xx_hal_msp.c **** 
 289:Src/stm32f7xx_hal_msp.c ****     HAL_GPIO_DeInit(DCMI_D5_GPIO_Port, DCMI_D5_Pin);
 290:Src/stm32f7xx_hal_msp.c **** 
 291:Src/stm32f7xx_hal_msp.c ****     HAL_GPIO_DeInit(DCMI_VSYNC_GPIO_Port, DCMI_VSYNC_Pin);
 292:Src/stm32f7xx_hal_msp.c **** 
 293:Src/stm32f7xx_hal_msp.c ****     HAL_GPIO_DeInit(GPIOH, DCMI_D4_Pin|DCMI_D3_Pin|DCMI_D0_Pin|DCMI_D2_Pin 
 294:Src/stm32f7xx_hal_msp.c ****                           |DCMI_D1_Pin);
 295:Src/stm32f7xx_hal_msp.c **** 
 296:Src/stm32f7xx_hal_msp.c ****     HAL_GPIO_DeInit(GPIOA, DCMI_HSYNC_Pin|GPIO_PIN_6);
 297:Src/stm32f7xx_hal_msp.c **** 
 298:Src/stm32f7xx_hal_msp.c ****   /* USER CODE BEGIN DCMI_MspDeInit 1 */
 299:Src/stm32f7xx_hal_msp.c **** 
 300:Src/stm32f7xx_hal_msp.c ****   /* USER CODE END DCMI_MspDeInit 1 */
 301:Src/stm32f7xx_hal_msp.c ****   }
 302:Src/stm32f7xx_hal_msp.c **** 
 303:Src/stm32f7xx_hal_msp.c **** }
 304:Src/stm32f7xx_hal_msp.c **** 
 305:Src/stm32f7xx_hal_msp.c **** void HAL_DMA2D_MspInit(DMA2D_HandleTypeDef* hdma2d)
 306:Src/stm32f7xx_hal_msp.c **** {
 307:Src/stm32f7xx_hal_msp.c **** 
 308:Src/stm32f7xx_hal_msp.c ****   if(hdma2d->Instance==DMA2D)
 309:Src/stm32f7xx_hal_msp.c ****   {
 310:Src/stm32f7xx_hal_msp.c ****   /* USER CODE BEGIN DMA2D_MspInit 0 */
 311:Src/stm32f7xx_hal_msp.c **** 
 312:Src/stm32f7xx_hal_msp.c ****   /* USER CODE END DMA2D_MspInit 0 */
 313:Src/stm32f7xx_hal_msp.c ****     /* Peripheral clock enable */
 314:Src/stm32f7xx_hal_msp.c ****     __HAL_RCC_DMA2D_CLK_ENABLE();
 315:Src/stm32f7xx_hal_msp.c ****     /* DMA2D interrupt Init */
 316:Src/stm32f7xx_hal_msp.c ****     HAL_NVIC_SetPriority(DMA2D_IRQn, 5, 0);
 317:Src/stm32f7xx_hal_msp.c ****     HAL_NVIC_EnableIRQ(DMA2D_IRQn);
ARM GAS  C:\Users\Patryk\AppData\Local\Temp\cc1IRkRa.s 			page 7


 318:Src/stm32f7xx_hal_msp.c ****   /* USER CODE BEGIN DMA2D_MspInit 1 */
 319:Src/stm32f7xx_hal_msp.c **** 
 320:Src/stm32f7xx_hal_msp.c ****   /* USER CODE END DMA2D_MspInit 1 */
 321:Src/stm32f7xx_hal_msp.c ****   }
 322:Src/stm32f7xx_hal_msp.c **** 
 323:Src/stm32f7xx_hal_msp.c **** }
 324:Src/stm32f7xx_hal_msp.c **** 
 325:Src/stm32f7xx_hal_msp.c **** void HAL_DMA2D_MspDeInit(DMA2D_HandleTypeDef* hdma2d)
 326:Src/stm32f7xx_hal_msp.c **** {
 327:Src/stm32f7xx_hal_msp.c **** 
 328:Src/stm32f7xx_hal_msp.c ****   if(hdma2d->Instance==DMA2D)
 329:Src/stm32f7xx_hal_msp.c ****   {
 330:Src/stm32f7xx_hal_msp.c ****   /* USER CODE BEGIN DMA2D_MspDeInit 0 */
 331:Src/stm32f7xx_hal_msp.c **** 
 332:Src/stm32f7xx_hal_msp.c ****   /* USER CODE END DMA2D_MspDeInit 0 */
 333:Src/stm32f7xx_hal_msp.c ****     /* Peripheral clock disable */
 334:Src/stm32f7xx_hal_msp.c ****     __HAL_RCC_DMA2D_CLK_DISABLE();
 335:Src/stm32f7xx_hal_msp.c **** 
 336:Src/stm32f7xx_hal_msp.c ****     /* DMA2D interrupt DeInit */
 337:Src/stm32f7xx_hal_msp.c ****     HAL_NVIC_DisableIRQ(DMA2D_IRQn);
 338:Src/stm32f7xx_hal_msp.c ****   /* USER CODE BEGIN DMA2D_MspDeInit 1 */
 339:Src/stm32f7xx_hal_msp.c **** 
 340:Src/stm32f7xx_hal_msp.c ****   /* USER CODE END DMA2D_MspDeInit 1 */
 341:Src/stm32f7xx_hal_msp.c ****   }
 342:Src/stm32f7xx_hal_msp.c **** 
 343:Src/stm32f7xx_hal_msp.c **** }
 344:Src/stm32f7xx_hal_msp.c **** 
 345:Src/stm32f7xx_hal_msp.c **** void HAL_I2C_MspInit(I2C_HandleTypeDef* hi2c)
 346:Src/stm32f7xx_hal_msp.c **** {
 347:Src/stm32f7xx_hal_msp.c **** 
 348:Src/stm32f7xx_hal_msp.c ****   GPIO_InitTypeDef GPIO_InitStruct;
 349:Src/stm32f7xx_hal_msp.c ****   if(hi2c->Instance==I2C1)
 350:Src/stm32f7xx_hal_msp.c ****   {
 351:Src/stm32f7xx_hal_msp.c ****   /* USER CODE BEGIN I2C1_MspInit 0 */
 352:Src/stm32f7xx_hal_msp.c **** 
 353:Src/stm32f7xx_hal_msp.c ****   /* USER CODE END I2C1_MspInit 0 */
 354:Src/stm32f7xx_hal_msp.c ****   
 355:Src/stm32f7xx_hal_msp.c ****     /**I2C1 GPIO Configuration    
 356:Src/stm32f7xx_hal_msp.c ****     PB8     ------> I2C1_SCL
 357:Src/stm32f7xx_hal_msp.c ****     PB9     ------> I2C1_SDA 
 358:Src/stm32f7xx_hal_msp.c ****     */
 359:Src/stm32f7xx_hal_msp.c ****     GPIO_InitStruct.Pin = ARDUINO_SCL_D15_Pin|ARDUINO_SDA_D14_Pin;
 360:Src/stm32f7xx_hal_msp.c ****     GPIO_InitStruct.Mode = GPIO_MODE_AF_OD;
 361:Src/stm32f7xx_hal_msp.c ****     GPIO_InitStruct.Pull = GPIO_PULLUP;
 362:Src/stm32f7xx_hal_msp.c ****     GPIO_InitStruct.Speed = GPIO_SPEED_FREQ_LOW;
 363:Src/stm32f7xx_hal_msp.c ****     GPIO_InitStruct.Alternate = GPIO_AF4_I2C1;
 364:Src/stm32f7xx_hal_msp.c ****     HAL_GPIO_Init(GPIOB, &GPIO_InitStruct);
 365:Src/stm32f7xx_hal_msp.c **** 
 366:Src/stm32f7xx_hal_msp.c ****     /* Peripheral clock enable */
 367:Src/stm32f7xx_hal_msp.c ****     __HAL_RCC_I2C1_CLK_ENABLE();
 368:Src/stm32f7xx_hal_msp.c ****   /* USER CODE BEGIN I2C1_MspInit 1 */
 369:Src/stm32f7xx_hal_msp.c **** 
 370:Src/stm32f7xx_hal_msp.c ****   /* USER CODE END I2C1_MspInit 1 */
 371:Src/stm32f7xx_hal_msp.c ****   }
 372:Src/stm32f7xx_hal_msp.c ****   else if(hi2c->Instance==I2C3)
 373:Src/stm32f7xx_hal_msp.c ****   {
 374:Src/stm32f7xx_hal_msp.c ****   /* USER CODE BEGIN I2C3_MspInit 0 */
ARM GAS  C:\Users\Patryk\AppData\Local\Temp\cc1IRkRa.s 			page 8


 375:Src/stm32f7xx_hal_msp.c **** 
 376:Src/stm32f7xx_hal_msp.c ****   /* USER CODE END I2C3_MspInit 0 */
 377:Src/stm32f7xx_hal_msp.c ****   
 378:Src/stm32f7xx_hal_msp.c ****     /**I2C3 GPIO Configuration    
 379:Src/stm32f7xx_hal_msp.c ****     PH7     ------> I2C3_SCL
 380:Src/stm32f7xx_hal_msp.c ****     PH8     ------> I2C3_SDA 
 381:Src/stm32f7xx_hal_msp.c ****     */
 382:Src/stm32f7xx_hal_msp.c ****     GPIO_InitStruct.Pin = LCD_SCL_Pin|LCD_SDA_Pin;
 383:Src/stm32f7xx_hal_msp.c ****     GPIO_InitStruct.Mode = GPIO_MODE_AF_OD;
 384:Src/stm32f7xx_hal_msp.c ****     GPIO_InitStruct.Pull = GPIO_PULLUP;
 385:Src/stm32f7xx_hal_msp.c ****     GPIO_InitStruct.Speed = GPIO_SPEED_FREQ_VERY_HIGH;
 386:Src/stm32f7xx_hal_msp.c ****     GPIO_InitStruct.Alternate = GPIO_AF4_I2C3;
 387:Src/stm32f7xx_hal_msp.c ****     HAL_GPIO_Init(GPIOH, &GPIO_InitStruct);
 388:Src/stm32f7xx_hal_msp.c **** 
 389:Src/stm32f7xx_hal_msp.c ****     /* Peripheral clock enable */
 390:Src/stm32f7xx_hal_msp.c ****     __HAL_RCC_I2C3_CLK_ENABLE();
 391:Src/stm32f7xx_hal_msp.c ****   /* USER CODE BEGIN I2C3_MspInit 1 */
 392:Src/stm32f7xx_hal_msp.c **** 
 393:Src/stm32f7xx_hal_msp.c ****   /* USER CODE END I2C3_MspInit 1 */
 394:Src/stm32f7xx_hal_msp.c ****   }
 395:Src/stm32f7xx_hal_msp.c **** 
 396:Src/stm32f7xx_hal_msp.c **** }
 397:Src/stm32f7xx_hal_msp.c **** 
 398:Src/stm32f7xx_hal_msp.c **** void HAL_I2C_MspDeInit(I2C_HandleTypeDef* hi2c)
 399:Src/stm32f7xx_hal_msp.c **** {
 400:Src/stm32f7xx_hal_msp.c **** 
 401:Src/stm32f7xx_hal_msp.c ****   if(hi2c->Instance==I2C1)
 402:Src/stm32f7xx_hal_msp.c ****   {
 403:Src/stm32f7xx_hal_msp.c ****   /* USER CODE BEGIN I2C1_MspDeInit 0 */
 404:Src/stm32f7xx_hal_msp.c **** 
 405:Src/stm32f7xx_hal_msp.c ****   /* USER CODE END I2C1_MspDeInit 0 */
 406:Src/stm32f7xx_hal_msp.c ****     /* Peripheral clock disable */
 407:Src/stm32f7xx_hal_msp.c ****     __HAL_RCC_I2C1_CLK_DISABLE();
 408:Src/stm32f7xx_hal_msp.c ****   
 409:Src/stm32f7xx_hal_msp.c ****     /**I2C1 GPIO Configuration    
 410:Src/stm32f7xx_hal_msp.c ****     PB8     ------> I2C1_SCL
 411:Src/stm32f7xx_hal_msp.c ****     PB9     ------> I2C1_SDA 
 412:Src/stm32f7xx_hal_msp.c ****     */
 413:Src/stm32f7xx_hal_msp.c ****     HAL_GPIO_DeInit(GPIOB, ARDUINO_SCL_D15_Pin|ARDUINO_SDA_D14_Pin);
 414:Src/stm32f7xx_hal_msp.c **** 
 415:Src/stm32f7xx_hal_msp.c ****   /* USER CODE BEGIN I2C1_MspDeInit 1 */
 416:Src/stm32f7xx_hal_msp.c **** 
 417:Src/stm32f7xx_hal_msp.c ****   /* USER CODE END I2C1_MspDeInit 1 */
 418:Src/stm32f7xx_hal_msp.c ****   }
 419:Src/stm32f7xx_hal_msp.c ****   else if(hi2c->Instance==I2C3)
 420:Src/stm32f7xx_hal_msp.c ****   {
 421:Src/stm32f7xx_hal_msp.c ****   /* USER CODE BEGIN I2C3_MspDeInit 0 */
 422:Src/stm32f7xx_hal_msp.c **** 
 423:Src/stm32f7xx_hal_msp.c ****   /* USER CODE END I2C3_MspDeInit 0 */
 424:Src/stm32f7xx_hal_msp.c ****     /* Peripheral clock disable */
 425:Src/stm32f7xx_hal_msp.c ****     __HAL_RCC_I2C3_CLK_DISABLE();
 426:Src/stm32f7xx_hal_msp.c ****   
 427:Src/stm32f7xx_hal_msp.c ****     /**I2C3 GPIO Configuration    
 428:Src/stm32f7xx_hal_msp.c ****     PH7     ------> I2C3_SCL
 429:Src/stm32f7xx_hal_msp.c ****     PH8     ------> I2C3_SDA 
 430:Src/stm32f7xx_hal_msp.c ****     */
 431:Src/stm32f7xx_hal_msp.c ****     HAL_GPIO_DeInit(GPIOH, LCD_SCL_Pin|LCD_SDA_Pin);
ARM GAS  C:\Users\Patryk\AppData\Local\Temp\cc1IRkRa.s 			page 9


 432:Src/stm32f7xx_hal_msp.c **** 
 433:Src/stm32f7xx_hal_msp.c ****   /* USER CODE BEGIN I2C3_MspDeInit 1 */
 434:Src/stm32f7xx_hal_msp.c **** 
 435:Src/stm32f7xx_hal_msp.c ****   /* USER CODE END I2C3_MspDeInit 1 */
 436:Src/stm32f7xx_hal_msp.c ****   }
 437:Src/stm32f7xx_hal_msp.c **** 
 438:Src/stm32f7xx_hal_msp.c **** }
 439:Src/stm32f7xx_hal_msp.c **** 
 440:Src/stm32f7xx_hal_msp.c **** void HAL_LTDC_MspInit(LTDC_HandleTypeDef* hltdc)
 441:Src/stm32f7xx_hal_msp.c **** {
 442:Src/stm32f7xx_hal_msp.c **** 
 443:Src/stm32f7xx_hal_msp.c ****   GPIO_InitTypeDef GPIO_InitStruct;
 444:Src/stm32f7xx_hal_msp.c ****   if(hltdc->Instance==LTDC)
 445:Src/stm32f7xx_hal_msp.c ****   {
 446:Src/stm32f7xx_hal_msp.c ****   /* USER CODE BEGIN LTDC_MspInit 0 */
 447:Src/stm32f7xx_hal_msp.c **** 
 448:Src/stm32f7xx_hal_msp.c ****   /* USER CODE END LTDC_MspInit 0 */
 449:Src/stm32f7xx_hal_msp.c ****     /* Peripheral clock enable */
 450:Src/stm32f7xx_hal_msp.c ****     __HAL_RCC_LTDC_CLK_ENABLE();
 451:Src/stm32f7xx_hal_msp.c ****   
 452:Src/stm32f7xx_hal_msp.c ****     /**LTDC GPIO Configuration    
 453:Src/stm32f7xx_hal_msp.c ****     PE4     ------> LTDC_B0
 454:Src/stm32f7xx_hal_msp.c ****     PJ13     ------> LTDC_B1
 455:Src/stm32f7xx_hal_msp.c ****     PK7     ------> LTDC_DE
 456:Src/stm32f7xx_hal_msp.c ****     PK6     ------> LTDC_B7
 457:Src/stm32f7xx_hal_msp.c ****     PK5     ------> LTDC_B6
 458:Src/stm32f7xx_hal_msp.c ****     PG12     ------> LTDC_B4
 459:Src/stm32f7xx_hal_msp.c ****     PJ14     ------> LTDC_B2
 460:Src/stm32f7xx_hal_msp.c ****     PI10     ------> LTDC_HSYNC
 461:Src/stm32f7xx_hal_msp.c ****     PK4     ------> LTDC_B5
 462:Src/stm32f7xx_hal_msp.c ****     PJ15     ------> LTDC_B3
 463:Src/stm32f7xx_hal_msp.c ****     PI9     ------> LTDC_VSYNC
 464:Src/stm32f7xx_hal_msp.c ****     PK1     ------> LTDC_G6
 465:Src/stm32f7xx_hal_msp.c ****     PK2     ------> LTDC_G7
 466:Src/stm32f7xx_hal_msp.c ****     PI15     ------> LTDC_R0
 467:Src/stm32f7xx_hal_msp.c ****     PJ11     ------> LTDC_G4
 468:Src/stm32f7xx_hal_msp.c ****     PK0     ------> LTDC_G5
 469:Src/stm32f7xx_hal_msp.c ****     PI14     ------> LTDC_CLK
 470:Src/stm32f7xx_hal_msp.c ****     PJ8     ------> LTDC_G1
 471:Src/stm32f7xx_hal_msp.c ****     PJ10     ------> LTDC_G3
 472:Src/stm32f7xx_hal_msp.c ****     PJ7     ------> LTDC_G0
 473:Src/stm32f7xx_hal_msp.c ****     PJ9     ------> LTDC_G2
 474:Src/stm32f7xx_hal_msp.c ****     PJ6     ------> LTDC_R7
 475:Src/stm32f7xx_hal_msp.c ****     PJ4     ------> LTDC_R5
 476:Src/stm32f7xx_hal_msp.c ****     PJ5     ------> LTDC_R6
 477:Src/stm32f7xx_hal_msp.c ****     PJ3     ------> LTDC_R4
 478:Src/stm32f7xx_hal_msp.c ****     PJ2     ------> LTDC_R3
 479:Src/stm32f7xx_hal_msp.c ****     PJ0     ------> LTDC_R1
 480:Src/stm32f7xx_hal_msp.c ****     PJ1     ------> LTDC_R2 
 481:Src/stm32f7xx_hal_msp.c ****     */
 482:Src/stm32f7xx_hal_msp.c ****     GPIO_InitStruct.Pin = LCD_B0_Pin;
 483:Src/stm32f7xx_hal_msp.c ****     GPIO_InitStruct.Mode = GPIO_MODE_AF_PP;
 484:Src/stm32f7xx_hal_msp.c ****     GPIO_InitStruct.Pull = GPIO_NOPULL;
 485:Src/stm32f7xx_hal_msp.c ****     GPIO_InitStruct.Speed = GPIO_SPEED_FREQ_LOW;
 486:Src/stm32f7xx_hal_msp.c ****     GPIO_InitStruct.Alternate = GPIO_AF14_LTDC;
 487:Src/stm32f7xx_hal_msp.c ****     HAL_GPIO_Init(LCD_B0_GPIO_Port, &GPIO_InitStruct);
 488:Src/stm32f7xx_hal_msp.c **** 
ARM GAS  C:\Users\Patryk\AppData\Local\Temp\cc1IRkRa.s 			page 10


 489:Src/stm32f7xx_hal_msp.c ****     GPIO_InitStruct.Pin = LCD_B1_Pin|LCD_B2_Pin|LCD_B3_Pin|LCD_G4_Pin 
 490:Src/stm32f7xx_hal_msp.c ****                           |LCD_G1_Pin|LCD_G3_Pin|LCD_G0_Pin|LCD_G2_Pin 
 491:Src/stm32f7xx_hal_msp.c ****                           |LCD_R7_Pin|LCD_R5_Pin|LCD_R6_Pin|LCD_R4_Pin 
 492:Src/stm32f7xx_hal_msp.c ****                           |LCD_R3_Pin|LCD_R1_Pin|LCD_R2_Pin;
 493:Src/stm32f7xx_hal_msp.c ****     GPIO_InitStruct.Mode = GPIO_MODE_AF_PP;
 494:Src/stm32f7xx_hal_msp.c ****     GPIO_InitStruct.Pull = GPIO_NOPULL;
 495:Src/stm32f7xx_hal_msp.c ****     GPIO_InitStruct.Speed = GPIO_SPEED_FREQ_LOW;
 496:Src/stm32f7xx_hal_msp.c ****     GPIO_InitStruct.Alternate = GPIO_AF14_LTDC;
 497:Src/stm32f7xx_hal_msp.c ****     HAL_GPIO_Init(GPIOJ, &GPIO_InitStruct);
 498:Src/stm32f7xx_hal_msp.c **** 
 499:Src/stm32f7xx_hal_msp.c ****     GPIO_InitStruct.Pin = LCD_DE_Pin|LCD_B7_Pin|LCD_B6_Pin|LCD_B5_Pin 
 500:Src/stm32f7xx_hal_msp.c ****                           |LCD_G6_Pin|LCD_G7_Pin|LCD_G5_Pin;
 501:Src/stm32f7xx_hal_msp.c ****     GPIO_InitStruct.Mode = GPIO_MODE_AF_PP;
 502:Src/stm32f7xx_hal_msp.c ****     GPIO_InitStruct.Pull = GPIO_NOPULL;
 503:Src/stm32f7xx_hal_msp.c ****     GPIO_InitStruct.Speed = GPIO_SPEED_FREQ_LOW;
 504:Src/stm32f7xx_hal_msp.c ****     GPIO_InitStruct.Alternate = GPIO_AF14_LTDC;
 505:Src/stm32f7xx_hal_msp.c ****     HAL_GPIO_Init(GPIOK, &GPIO_InitStruct);
 506:Src/stm32f7xx_hal_msp.c **** 
 507:Src/stm32f7xx_hal_msp.c ****     GPIO_InitStruct.Pin = LCD_B4_Pin;
 508:Src/stm32f7xx_hal_msp.c ****     GPIO_InitStruct.Mode = GPIO_MODE_AF_PP;
 509:Src/stm32f7xx_hal_msp.c ****     GPIO_InitStruct.Pull = GPIO_NOPULL;
 510:Src/stm32f7xx_hal_msp.c ****     GPIO_InitStruct.Speed = GPIO_SPEED_FREQ_LOW;
 511:Src/stm32f7xx_hal_msp.c ****     GPIO_InitStruct.Alternate = GPIO_AF9_LTDC;
 512:Src/stm32f7xx_hal_msp.c ****     HAL_GPIO_Init(LCD_B4_GPIO_Port, &GPIO_InitStruct);
 513:Src/stm32f7xx_hal_msp.c **** 
 514:Src/stm32f7xx_hal_msp.c ****     GPIO_InitStruct.Pin = LCD_HSYNC_Pin|LCD_VSYNC_Pin|LCD_R0_Pin|LCD_CLK_Pin;
 515:Src/stm32f7xx_hal_msp.c ****     GPIO_InitStruct.Mode = GPIO_MODE_AF_PP;
 516:Src/stm32f7xx_hal_msp.c ****     GPIO_InitStruct.Pull = GPIO_NOPULL;
 517:Src/stm32f7xx_hal_msp.c ****     GPIO_InitStruct.Speed = GPIO_SPEED_FREQ_LOW;
 518:Src/stm32f7xx_hal_msp.c ****     GPIO_InitStruct.Alternate = GPIO_AF14_LTDC;
 519:Src/stm32f7xx_hal_msp.c ****     HAL_GPIO_Init(GPIOI, &GPIO_InitStruct);
 520:Src/stm32f7xx_hal_msp.c **** 
 521:Src/stm32f7xx_hal_msp.c ****     /* LTDC interrupt Init */
 522:Src/stm32f7xx_hal_msp.c ****     HAL_NVIC_SetPriority(LTDC_IRQn, 5, 0);
 523:Src/stm32f7xx_hal_msp.c ****     HAL_NVIC_EnableIRQ(LTDC_IRQn);
 524:Src/stm32f7xx_hal_msp.c ****   /* USER CODE BEGIN LTDC_MspInit 1 */
 525:Src/stm32f7xx_hal_msp.c **** 
 526:Src/stm32f7xx_hal_msp.c ****   /* USER CODE END LTDC_MspInit 1 */
 527:Src/stm32f7xx_hal_msp.c ****   }
 528:Src/stm32f7xx_hal_msp.c **** 
 529:Src/stm32f7xx_hal_msp.c **** }
 530:Src/stm32f7xx_hal_msp.c **** 
 531:Src/stm32f7xx_hal_msp.c **** void HAL_LTDC_MspDeInit(LTDC_HandleTypeDef* hltdc)
 532:Src/stm32f7xx_hal_msp.c **** {
 533:Src/stm32f7xx_hal_msp.c **** 
 534:Src/stm32f7xx_hal_msp.c ****   if(hltdc->Instance==LTDC)
 535:Src/stm32f7xx_hal_msp.c ****   {
 536:Src/stm32f7xx_hal_msp.c ****   /* USER CODE BEGIN LTDC_MspDeInit 0 */
 537:Src/stm32f7xx_hal_msp.c **** 
 538:Src/stm32f7xx_hal_msp.c ****   /* USER CODE END LTDC_MspDeInit 0 */
 539:Src/stm32f7xx_hal_msp.c ****     /* Peripheral clock disable */
 540:Src/stm32f7xx_hal_msp.c ****     __HAL_RCC_LTDC_CLK_DISABLE();
 541:Src/stm32f7xx_hal_msp.c ****   
 542:Src/stm32f7xx_hal_msp.c ****     /**LTDC GPIO Configuration    
 543:Src/stm32f7xx_hal_msp.c ****     PE4     ------> LTDC_B0
 544:Src/stm32f7xx_hal_msp.c ****     PJ13     ------> LTDC_B1
 545:Src/stm32f7xx_hal_msp.c ****     PK7     ------> LTDC_DE
ARM GAS  C:\Users\Patryk\AppData\Local\Temp\cc1IRkRa.s 			page 11


 546:Src/stm32f7xx_hal_msp.c ****     PK6     ------> LTDC_B7
 547:Src/stm32f7xx_hal_msp.c ****     PK5     ------> LTDC_B6
 548:Src/stm32f7xx_hal_msp.c ****     PG12     ------> LTDC_B4
 549:Src/stm32f7xx_hal_msp.c ****     PJ14     ------> LTDC_B2
 550:Src/stm32f7xx_hal_msp.c ****     PI10     ------> LTDC_HSYNC
 551:Src/stm32f7xx_hal_msp.c ****     PK4     ------> LTDC_B5
 552:Src/stm32f7xx_hal_msp.c ****     PJ15     ------> LTDC_B3
 553:Src/stm32f7xx_hal_msp.c ****     PI9     ------> LTDC_VSYNC
 554:Src/stm32f7xx_hal_msp.c ****     PK1     ------> LTDC_G6
 555:Src/stm32f7xx_hal_msp.c ****     PK2     ------> LTDC_G7
 556:Src/stm32f7xx_hal_msp.c ****     PI15     ------> LTDC_R0
 557:Src/stm32f7xx_hal_msp.c ****     PJ11     ------> LTDC_G4
 558:Src/stm32f7xx_hal_msp.c ****     PK0     ------> LTDC_G5
 559:Src/stm32f7xx_hal_msp.c ****     PI14     ------> LTDC_CLK
 560:Src/stm32f7xx_hal_msp.c ****     PJ8     ------> LTDC_G1
 561:Src/stm32f7xx_hal_msp.c ****     PJ10     ------> LTDC_G3
 562:Src/stm32f7xx_hal_msp.c ****     PJ7     ------> LTDC_G0
 563:Src/stm32f7xx_hal_msp.c ****     PJ9     ------> LTDC_G2
 564:Src/stm32f7xx_hal_msp.c ****     PJ6     ------> LTDC_R7
 565:Src/stm32f7xx_hal_msp.c ****     PJ4     ------> LTDC_R5
 566:Src/stm32f7xx_hal_msp.c ****     PJ5     ------> LTDC_R6
 567:Src/stm32f7xx_hal_msp.c ****     PJ3     ------> LTDC_R4
 568:Src/stm32f7xx_hal_msp.c ****     PJ2     ------> LTDC_R3
 569:Src/stm32f7xx_hal_msp.c ****     PJ0     ------> LTDC_R1
 570:Src/stm32f7xx_hal_msp.c ****     PJ1     ------> LTDC_R2 
 571:Src/stm32f7xx_hal_msp.c ****     */
 572:Src/stm32f7xx_hal_msp.c ****     HAL_GPIO_DeInit(LCD_B0_GPIO_Port, LCD_B0_Pin);
 573:Src/stm32f7xx_hal_msp.c **** 
 574:Src/stm32f7xx_hal_msp.c ****     HAL_GPIO_DeInit(GPIOJ, LCD_B1_Pin|LCD_B2_Pin|LCD_B3_Pin|LCD_G4_Pin 
 575:Src/stm32f7xx_hal_msp.c ****                           |LCD_G1_Pin|LCD_G3_Pin|LCD_G0_Pin|LCD_G2_Pin 
 576:Src/stm32f7xx_hal_msp.c ****                           |LCD_R7_Pin|LCD_R5_Pin|LCD_R6_Pin|LCD_R4_Pin 
 577:Src/stm32f7xx_hal_msp.c ****                           |LCD_R3_Pin|LCD_R1_Pin|LCD_R2_Pin);
 578:Src/stm32f7xx_hal_msp.c **** 
 579:Src/stm32f7xx_hal_msp.c ****     HAL_GPIO_DeInit(GPIOK, LCD_DE_Pin|LCD_B7_Pin|LCD_B6_Pin|LCD_B5_Pin 
 580:Src/stm32f7xx_hal_msp.c ****                           |LCD_G6_Pin|LCD_G7_Pin|LCD_G5_Pin);
 581:Src/stm32f7xx_hal_msp.c **** 
 582:Src/stm32f7xx_hal_msp.c ****     HAL_GPIO_DeInit(LCD_B4_GPIO_Port, LCD_B4_Pin);
 583:Src/stm32f7xx_hal_msp.c **** 
 584:Src/stm32f7xx_hal_msp.c ****     HAL_GPIO_DeInit(GPIOI, LCD_HSYNC_Pin|LCD_VSYNC_Pin|LCD_R0_Pin|LCD_CLK_Pin);
 585:Src/stm32f7xx_hal_msp.c **** 
 586:Src/stm32f7xx_hal_msp.c ****     /* LTDC interrupt DeInit */
 587:Src/stm32f7xx_hal_msp.c ****     HAL_NVIC_DisableIRQ(LTDC_IRQn);
 588:Src/stm32f7xx_hal_msp.c ****   /* USER CODE BEGIN LTDC_MspDeInit 1 */
 589:Src/stm32f7xx_hal_msp.c **** 
 590:Src/stm32f7xx_hal_msp.c ****   /* USER CODE END LTDC_MspDeInit 1 */
 591:Src/stm32f7xx_hal_msp.c ****   }
 592:Src/stm32f7xx_hal_msp.c **** 
 593:Src/stm32f7xx_hal_msp.c **** }
 594:Src/stm32f7xx_hal_msp.c **** 
 595:Src/stm32f7xx_hal_msp.c **** void HAL_QSPI_MspInit(QSPI_HandleTypeDef* hqspi)
 596:Src/stm32f7xx_hal_msp.c **** {
 597:Src/stm32f7xx_hal_msp.c **** 
 598:Src/stm32f7xx_hal_msp.c ****   GPIO_InitTypeDef GPIO_InitStruct;
 599:Src/stm32f7xx_hal_msp.c ****   if(hqspi->Instance==QUADSPI)
 600:Src/stm32f7xx_hal_msp.c ****   {
 601:Src/stm32f7xx_hal_msp.c ****   /* USER CODE BEGIN QUADSPI_MspInit 0 */
 602:Src/stm32f7xx_hal_msp.c **** 
ARM GAS  C:\Users\Patryk\AppData\Local\Temp\cc1IRkRa.s 			page 12


 603:Src/stm32f7xx_hal_msp.c ****   /* USER CODE END QUADSPI_MspInit 0 */
 604:Src/stm32f7xx_hal_msp.c ****     /* Peripheral clock enable */
 605:Src/stm32f7xx_hal_msp.c ****     __HAL_RCC_QSPI_CLK_ENABLE();
 606:Src/stm32f7xx_hal_msp.c ****   
 607:Src/stm32f7xx_hal_msp.c ****     /**QUADSPI GPIO Configuration    
 608:Src/stm32f7xx_hal_msp.c ****     PE2     ------> QUADSPI_BK1_IO2
 609:Src/stm32f7xx_hal_msp.c ****     PB6     ------> QUADSPI_BK1_NCS
 610:Src/stm32f7xx_hal_msp.c ****     PB2     ------> QUADSPI_CLK
 611:Src/stm32f7xx_hal_msp.c ****     PD12     ------> QUADSPI_BK1_IO1
 612:Src/stm32f7xx_hal_msp.c ****     PD13     ------> QUADSPI_BK1_IO3
 613:Src/stm32f7xx_hal_msp.c ****     PD11     ------> QUADSPI_BK1_IO0 
 614:Src/stm32f7xx_hal_msp.c ****     */
 615:Src/stm32f7xx_hal_msp.c ****     GPIO_InitStruct.Pin = QSPI_D2_Pin;
 616:Src/stm32f7xx_hal_msp.c ****     GPIO_InitStruct.Mode = GPIO_MODE_AF_PP;
 617:Src/stm32f7xx_hal_msp.c ****     GPIO_InitStruct.Pull = GPIO_NOPULL;
 618:Src/stm32f7xx_hal_msp.c ****     GPIO_InitStruct.Speed = GPIO_SPEED_FREQ_VERY_HIGH;
 619:Src/stm32f7xx_hal_msp.c ****     GPIO_InitStruct.Alternate = GPIO_AF9_QUADSPI;
 620:Src/stm32f7xx_hal_msp.c ****     HAL_GPIO_Init(QSPI_D2_GPIO_Port, &GPIO_InitStruct);
 621:Src/stm32f7xx_hal_msp.c **** 
 622:Src/stm32f7xx_hal_msp.c ****     GPIO_InitStruct.Pin = QSPI_NCS_Pin;
 623:Src/stm32f7xx_hal_msp.c ****     GPIO_InitStruct.Mode = GPIO_MODE_AF_PP;
 624:Src/stm32f7xx_hal_msp.c ****     GPIO_InitStruct.Pull = GPIO_NOPULL;
 625:Src/stm32f7xx_hal_msp.c ****     GPIO_InitStruct.Speed = GPIO_SPEED_FREQ_VERY_HIGH;
 626:Src/stm32f7xx_hal_msp.c ****     GPIO_InitStruct.Alternate = GPIO_AF10_QUADSPI;
 627:Src/stm32f7xx_hal_msp.c ****     HAL_GPIO_Init(QSPI_NCS_GPIO_Port, &GPIO_InitStruct);
 628:Src/stm32f7xx_hal_msp.c **** 
 629:Src/stm32f7xx_hal_msp.c ****     GPIO_InitStruct.Pin = GPIO_PIN_2;
 630:Src/stm32f7xx_hal_msp.c ****     GPIO_InitStruct.Mode = GPIO_MODE_AF_PP;
 631:Src/stm32f7xx_hal_msp.c ****     GPIO_InitStruct.Pull = GPIO_NOPULL;
 632:Src/stm32f7xx_hal_msp.c ****     GPIO_InitStruct.Speed = GPIO_SPEED_FREQ_VERY_HIGH;
 633:Src/stm32f7xx_hal_msp.c ****     GPIO_InitStruct.Alternate = GPIO_AF9_QUADSPI;
 634:Src/stm32f7xx_hal_msp.c ****     HAL_GPIO_Init(GPIOB, &GPIO_InitStruct);
 635:Src/stm32f7xx_hal_msp.c **** 
 636:Src/stm32f7xx_hal_msp.c ****     GPIO_InitStruct.Pin = QSPI_D1_Pin|QSPI_D3_Pin|QSPI_D0_Pin;
 637:Src/stm32f7xx_hal_msp.c ****     GPIO_InitStruct.Mode = GPIO_MODE_AF_PP;
 638:Src/stm32f7xx_hal_msp.c ****     GPIO_InitStruct.Pull = GPIO_NOPULL;
 639:Src/stm32f7xx_hal_msp.c ****     GPIO_InitStruct.Speed = GPIO_SPEED_FREQ_VERY_HIGH;
 640:Src/stm32f7xx_hal_msp.c ****     GPIO_InitStruct.Alternate = GPIO_AF9_QUADSPI;
 641:Src/stm32f7xx_hal_msp.c ****     HAL_GPIO_Init(GPIOD, &GPIO_InitStruct);
 642:Src/stm32f7xx_hal_msp.c **** 
 643:Src/stm32f7xx_hal_msp.c ****   /* USER CODE BEGIN QUADSPI_MspInit 1 */
 644:Src/stm32f7xx_hal_msp.c **** 
 645:Src/stm32f7xx_hal_msp.c ****   /* USER CODE END QUADSPI_MspInit 1 */
 646:Src/stm32f7xx_hal_msp.c ****   }
 647:Src/stm32f7xx_hal_msp.c **** 
 648:Src/stm32f7xx_hal_msp.c **** }
 649:Src/stm32f7xx_hal_msp.c **** 
 650:Src/stm32f7xx_hal_msp.c **** void HAL_QSPI_MspDeInit(QSPI_HandleTypeDef* hqspi)
 651:Src/stm32f7xx_hal_msp.c **** {
 652:Src/stm32f7xx_hal_msp.c **** 
 653:Src/stm32f7xx_hal_msp.c ****   if(hqspi->Instance==QUADSPI)
 654:Src/stm32f7xx_hal_msp.c ****   {
 655:Src/stm32f7xx_hal_msp.c ****   /* USER CODE BEGIN QUADSPI_MspDeInit 0 */
 656:Src/stm32f7xx_hal_msp.c **** 
 657:Src/stm32f7xx_hal_msp.c ****   /* USER CODE END QUADSPI_MspDeInit 0 */
 658:Src/stm32f7xx_hal_msp.c ****     /* Peripheral clock disable */
 659:Src/stm32f7xx_hal_msp.c ****     __HAL_RCC_QSPI_CLK_DISABLE();
ARM GAS  C:\Users\Patryk\AppData\Local\Temp\cc1IRkRa.s 			page 13


 660:Src/stm32f7xx_hal_msp.c ****   
 661:Src/stm32f7xx_hal_msp.c ****     /**QUADSPI GPIO Configuration    
 662:Src/stm32f7xx_hal_msp.c ****     PE2     ------> QUADSPI_BK1_IO2
 663:Src/stm32f7xx_hal_msp.c ****     PB6     ------> QUADSPI_BK1_NCS
 664:Src/stm32f7xx_hal_msp.c ****     PB2     ------> QUADSPI_CLK
 665:Src/stm32f7xx_hal_msp.c ****     PD12     ------> QUADSPI_BK1_IO1
 666:Src/stm32f7xx_hal_msp.c ****     PD13     ------> QUADSPI_BK1_IO3
 667:Src/stm32f7xx_hal_msp.c ****     PD11     ------> QUADSPI_BK1_IO0 
 668:Src/stm32f7xx_hal_msp.c ****     */
 669:Src/stm32f7xx_hal_msp.c ****     HAL_GPIO_DeInit(QSPI_D2_GPIO_Port, QSPI_D2_Pin);
 670:Src/stm32f7xx_hal_msp.c **** 
 671:Src/stm32f7xx_hal_msp.c ****     HAL_GPIO_DeInit(GPIOB, QSPI_NCS_Pin|GPIO_PIN_2);
 672:Src/stm32f7xx_hal_msp.c **** 
 673:Src/stm32f7xx_hal_msp.c ****     HAL_GPIO_DeInit(GPIOD, QSPI_D1_Pin|QSPI_D3_Pin|QSPI_D0_Pin);
 674:Src/stm32f7xx_hal_msp.c **** 
 675:Src/stm32f7xx_hal_msp.c ****   /* USER CODE BEGIN QUADSPI_MspDeInit 1 */
 676:Src/stm32f7xx_hal_msp.c **** 
 677:Src/stm32f7xx_hal_msp.c ****   /* USER CODE END QUADSPI_MspDeInit 1 */
 678:Src/stm32f7xx_hal_msp.c ****   }
 679:Src/stm32f7xx_hal_msp.c **** 
 680:Src/stm32f7xx_hal_msp.c **** }
 681:Src/stm32f7xx_hal_msp.c **** 
 682:Src/stm32f7xx_hal_msp.c **** void HAL_RTC_MspInit(RTC_HandleTypeDef* hrtc)
 683:Src/stm32f7xx_hal_msp.c **** {
 684:Src/stm32f7xx_hal_msp.c **** 
 685:Src/stm32f7xx_hal_msp.c ****   if(hrtc->Instance==RTC)
 686:Src/stm32f7xx_hal_msp.c ****   {
 687:Src/stm32f7xx_hal_msp.c ****   /* USER CODE BEGIN RTC_MspInit 0 */
 688:Src/stm32f7xx_hal_msp.c **** 
 689:Src/stm32f7xx_hal_msp.c ****   /* USER CODE END RTC_MspInit 0 */
 690:Src/stm32f7xx_hal_msp.c ****     /* Peripheral clock enable */
 691:Src/stm32f7xx_hal_msp.c ****     __HAL_RCC_RTC_ENABLE();
 692:Src/stm32f7xx_hal_msp.c ****   /* USER CODE BEGIN RTC_MspInit 1 */
 693:Src/stm32f7xx_hal_msp.c **** 
 694:Src/stm32f7xx_hal_msp.c ****   /* USER CODE END RTC_MspInit 1 */
 695:Src/stm32f7xx_hal_msp.c ****   }
 696:Src/stm32f7xx_hal_msp.c **** 
 697:Src/stm32f7xx_hal_msp.c **** }
 698:Src/stm32f7xx_hal_msp.c **** 
 699:Src/stm32f7xx_hal_msp.c **** void HAL_RTC_MspDeInit(RTC_HandleTypeDef* hrtc)
 700:Src/stm32f7xx_hal_msp.c **** {
 701:Src/stm32f7xx_hal_msp.c **** 
 702:Src/stm32f7xx_hal_msp.c ****   if(hrtc->Instance==RTC)
 703:Src/stm32f7xx_hal_msp.c ****   {
 704:Src/stm32f7xx_hal_msp.c ****   /* USER CODE BEGIN RTC_MspDeInit 0 */
 705:Src/stm32f7xx_hal_msp.c **** 
 706:Src/stm32f7xx_hal_msp.c ****   /* USER CODE END RTC_MspDeInit 0 */
 707:Src/stm32f7xx_hal_msp.c ****     /* Peripheral clock disable */
 708:Src/stm32f7xx_hal_msp.c ****     __HAL_RCC_RTC_DISABLE();
 709:Src/stm32f7xx_hal_msp.c ****   /* USER CODE BEGIN RTC_MspDeInit 1 */
 710:Src/stm32f7xx_hal_msp.c **** 
 711:Src/stm32f7xx_hal_msp.c ****   /* USER CODE END RTC_MspDeInit 1 */
 712:Src/stm32f7xx_hal_msp.c ****   }
 713:Src/stm32f7xx_hal_msp.c **** 
 714:Src/stm32f7xx_hal_msp.c **** }
 715:Src/stm32f7xx_hal_msp.c **** 
 716:Src/stm32f7xx_hal_msp.c **** void HAL_SD_MspInit(SD_HandleTypeDef* hsd)
ARM GAS  C:\Users\Patryk\AppData\Local\Temp\cc1IRkRa.s 			page 14


 717:Src/stm32f7xx_hal_msp.c **** {
 718:Src/stm32f7xx_hal_msp.c **** 
 719:Src/stm32f7xx_hal_msp.c ****   GPIO_InitTypeDef GPIO_InitStruct;
 720:Src/stm32f7xx_hal_msp.c ****   if(hsd->Instance==SDMMC1)
 721:Src/stm32f7xx_hal_msp.c ****   {
 722:Src/stm32f7xx_hal_msp.c ****   /* USER CODE BEGIN SDMMC1_MspInit 0 */
 723:Src/stm32f7xx_hal_msp.c **** 
 724:Src/stm32f7xx_hal_msp.c ****   /* USER CODE END SDMMC1_MspInit 0 */
 725:Src/stm32f7xx_hal_msp.c ****     /* Peripheral clock enable */
 726:Src/stm32f7xx_hal_msp.c ****     __HAL_RCC_SDMMC1_CLK_ENABLE();
 727:Src/stm32f7xx_hal_msp.c ****   
 728:Src/stm32f7xx_hal_msp.c ****     /**SDMMC1 GPIO Configuration    
 729:Src/stm32f7xx_hal_msp.c ****     PC12     ------> SDMMC1_CK
 730:Src/stm32f7xx_hal_msp.c ****     PC11     ------> SDMMC1_D3
 731:Src/stm32f7xx_hal_msp.c ****     PC10     ------> SDMMC1_D2
 732:Src/stm32f7xx_hal_msp.c ****     PD2     ------> SDMMC1_CMD
 733:Src/stm32f7xx_hal_msp.c ****     PC9     ------> SDMMC1_D1
 734:Src/stm32f7xx_hal_msp.c ****     PC8     ------> SDMMC1_D0 
 735:Src/stm32f7xx_hal_msp.c ****     */
 736:Src/stm32f7xx_hal_msp.c ****     GPIO_InitStruct.Pin = SDMMC_CK_Pin|SDMMC_D3_Pin|SDMMC_D2_Pin|GPIO_PIN_9 
 737:Src/stm32f7xx_hal_msp.c ****                           |GPIO_PIN_8;
 738:Src/stm32f7xx_hal_msp.c ****     GPIO_InitStruct.Mode = GPIO_MODE_AF_PP;
 739:Src/stm32f7xx_hal_msp.c ****     GPIO_InitStruct.Pull = GPIO_NOPULL;
 740:Src/stm32f7xx_hal_msp.c ****     GPIO_InitStruct.Speed = GPIO_SPEED_FREQ_VERY_HIGH;
 741:Src/stm32f7xx_hal_msp.c ****     GPIO_InitStruct.Alternate = GPIO_AF12_SDMMC1;
 742:Src/stm32f7xx_hal_msp.c ****     HAL_GPIO_Init(GPIOC, &GPIO_InitStruct);
 743:Src/stm32f7xx_hal_msp.c **** 
 744:Src/stm32f7xx_hal_msp.c ****     GPIO_InitStruct.Pin = SDMMC_CMD_Pin;
 745:Src/stm32f7xx_hal_msp.c ****     GPIO_InitStruct.Mode = GPIO_MODE_AF_PP;
 746:Src/stm32f7xx_hal_msp.c ****     GPIO_InitStruct.Pull = GPIO_NOPULL;
 747:Src/stm32f7xx_hal_msp.c ****     GPIO_InitStruct.Speed = GPIO_SPEED_FREQ_VERY_HIGH;
 748:Src/stm32f7xx_hal_msp.c ****     GPIO_InitStruct.Alternate = GPIO_AF12_SDMMC1;
 749:Src/stm32f7xx_hal_msp.c ****     HAL_GPIO_Init(SDMMC_CMD_GPIO_Port, &GPIO_InitStruct);
 750:Src/stm32f7xx_hal_msp.c **** 
 751:Src/stm32f7xx_hal_msp.c ****   /* USER CODE BEGIN SDMMC1_MspInit 1 */
 752:Src/stm32f7xx_hal_msp.c **** 
 753:Src/stm32f7xx_hal_msp.c ****   /* USER CODE END SDMMC1_MspInit 1 */
 754:Src/stm32f7xx_hal_msp.c ****   }
 755:Src/stm32f7xx_hal_msp.c **** 
 756:Src/stm32f7xx_hal_msp.c **** }
 757:Src/stm32f7xx_hal_msp.c **** 
 758:Src/stm32f7xx_hal_msp.c **** void HAL_SD_MspDeInit(SD_HandleTypeDef* hsd)
 759:Src/stm32f7xx_hal_msp.c **** {
 760:Src/stm32f7xx_hal_msp.c **** 
 761:Src/stm32f7xx_hal_msp.c ****   if(hsd->Instance==SDMMC1)
 762:Src/stm32f7xx_hal_msp.c ****   {
 763:Src/stm32f7xx_hal_msp.c ****   /* USER CODE BEGIN SDMMC1_MspDeInit 0 */
 764:Src/stm32f7xx_hal_msp.c **** 
 765:Src/stm32f7xx_hal_msp.c ****   /* USER CODE END SDMMC1_MspDeInit 0 */
 766:Src/stm32f7xx_hal_msp.c ****     /* Peripheral clock disable */
 767:Src/stm32f7xx_hal_msp.c ****     __HAL_RCC_SDMMC1_CLK_DISABLE();
 768:Src/stm32f7xx_hal_msp.c ****   
 769:Src/stm32f7xx_hal_msp.c ****     /**SDMMC1 GPIO Configuration    
 770:Src/stm32f7xx_hal_msp.c ****     PC12     ------> SDMMC1_CK
 771:Src/stm32f7xx_hal_msp.c ****     PC11     ------> SDMMC1_D3
 772:Src/stm32f7xx_hal_msp.c ****     PC10     ------> SDMMC1_D2
 773:Src/stm32f7xx_hal_msp.c ****     PD2     ------> SDMMC1_CMD
ARM GAS  C:\Users\Patryk\AppData\Local\Temp\cc1IRkRa.s 			page 15


 774:Src/stm32f7xx_hal_msp.c ****     PC9     ------> SDMMC1_D1
 775:Src/stm32f7xx_hal_msp.c ****     PC8     ------> SDMMC1_D0 
 776:Src/stm32f7xx_hal_msp.c ****     */
 777:Src/stm32f7xx_hal_msp.c ****     HAL_GPIO_DeInit(GPIOC, SDMMC_CK_Pin|SDMMC_D3_Pin|SDMMC_D2_Pin|GPIO_PIN_9 
 778:Src/stm32f7xx_hal_msp.c ****                           |GPIO_PIN_8);
 779:Src/stm32f7xx_hal_msp.c **** 
 780:Src/stm32f7xx_hal_msp.c ****     HAL_GPIO_DeInit(SDMMC_CMD_GPIO_Port, SDMMC_CMD_Pin);
 781:Src/stm32f7xx_hal_msp.c **** 
 782:Src/stm32f7xx_hal_msp.c ****   /* USER CODE BEGIN SDMMC1_MspDeInit 1 */
 783:Src/stm32f7xx_hal_msp.c **** 
 784:Src/stm32f7xx_hal_msp.c ****   /* USER CODE END SDMMC1_MspDeInit 1 */
 785:Src/stm32f7xx_hal_msp.c ****   }
 786:Src/stm32f7xx_hal_msp.c **** 
 787:Src/stm32f7xx_hal_msp.c **** }
 788:Src/stm32f7xx_hal_msp.c **** 
 789:Src/stm32f7xx_hal_msp.c **** void HAL_SPDIFRX_MspInit(SPDIFRX_HandleTypeDef* hspdifrx)
 790:Src/stm32f7xx_hal_msp.c **** {
 791:Src/stm32f7xx_hal_msp.c **** 
 792:Src/stm32f7xx_hal_msp.c ****   GPIO_InitTypeDef GPIO_InitStruct;
 793:Src/stm32f7xx_hal_msp.c ****   if(hspdifrx->Instance==SPDIFRX)
 794:Src/stm32f7xx_hal_msp.c ****   {
 795:Src/stm32f7xx_hal_msp.c ****   /* USER CODE BEGIN SPDIFRX_MspInit 0 */
 796:Src/stm32f7xx_hal_msp.c **** 
 797:Src/stm32f7xx_hal_msp.c ****   /* USER CODE END SPDIFRX_MspInit 0 */
 798:Src/stm32f7xx_hal_msp.c ****     /* Peripheral clock enable */
 799:Src/stm32f7xx_hal_msp.c ****     __HAL_RCC_SPDIFRX_CLK_ENABLE();
 800:Src/stm32f7xx_hal_msp.c ****   
 801:Src/stm32f7xx_hal_msp.c ****     /**SPDIFRX GPIO Configuration    
 802:Src/stm32f7xx_hal_msp.c ****     PD7     ------> SPDIFRX_IN0 
 803:Src/stm32f7xx_hal_msp.c ****     */
 804:Src/stm32f7xx_hal_msp.c ****     GPIO_InitStruct.Pin = SPDIF_RX0_Pin;
 805:Src/stm32f7xx_hal_msp.c ****     GPIO_InitStruct.Mode = GPIO_MODE_AF_PP;
 806:Src/stm32f7xx_hal_msp.c ****     GPIO_InitStruct.Pull = GPIO_NOPULL;
 807:Src/stm32f7xx_hal_msp.c ****     GPIO_InitStruct.Speed = GPIO_SPEED_FREQ_LOW;
 808:Src/stm32f7xx_hal_msp.c ****     GPIO_InitStruct.Alternate = GPIO_AF8_SPDIFRX;
 809:Src/stm32f7xx_hal_msp.c ****     HAL_GPIO_Init(SPDIF_RX0_GPIO_Port, &GPIO_InitStruct);
 810:Src/stm32f7xx_hal_msp.c **** 
 811:Src/stm32f7xx_hal_msp.c ****   /* USER CODE BEGIN SPDIFRX_MspInit 1 */
 812:Src/stm32f7xx_hal_msp.c **** 
 813:Src/stm32f7xx_hal_msp.c ****   /* USER CODE END SPDIFRX_MspInit 1 */
 814:Src/stm32f7xx_hal_msp.c ****   }
 815:Src/stm32f7xx_hal_msp.c **** 
 816:Src/stm32f7xx_hal_msp.c **** }
 817:Src/stm32f7xx_hal_msp.c **** 
 818:Src/stm32f7xx_hal_msp.c **** void HAL_SPDIFRX_MspDeInit(SPDIFRX_HandleTypeDef* hspdifrx)
 819:Src/stm32f7xx_hal_msp.c **** {
 820:Src/stm32f7xx_hal_msp.c **** 
 821:Src/stm32f7xx_hal_msp.c ****   if(hspdifrx->Instance==SPDIFRX)
 822:Src/stm32f7xx_hal_msp.c ****   {
 823:Src/stm32f7xx_hal_msp.c ****   /* USER CODE BEGIN SPDIFRX_MspDeInit 0 */
 824:Src/stm32f7xx_hal_msp.c **** 
 825:Src/stm32f7xx_hal_msp.c ****   /* USER CODE END SPDIFRX_MspDeInit 0 */
 826:Src/stm32f7xx_hal_msp.c ****     /* Peripheral clock disable */
 827:Src/stm32f7xx_hal_msp.c ****     __HAL_RCC_SPDIFRX_CLK_DISABLE();
 828:Src/stm32f7xx_hal_msp.c ****   
 829:Src/stm32f7xx_hal_msp.c ****     /**SPDIFRX GPIO Configuration    
 830:Src/stm32f7xx_hal_msp.c ****     PD7     ------> SPDIFRX_IN0 
ARM GAS  C:\Users\Patryk\AppData\Local\Temp\cc1IRkRa.s 			page 16


 831:Src/stm32f7xx_hal_msp.c ****     */
 832:Src/stm32f7xx_hal_msp.c ****     HAL_GPIO_DeInit(SPDIF_RX0_GPIO_Port, SPDIF_RX0_Pin);
 833:Src/stm32f7xx_hal_msp.c **** 
 834:Src/stm32f7xx_hal_msp.c ****   /* USER CODE BEGIN SPDIFRX_MspDeInit 1 */
 835:Src/stm32f7xx_hal_msp.c **** 
 836:Src/stm32f7xx_hal_msp.c ****   /* USER CODE END SPDIFRX_MspDeInit 1 */
 837:Src/stm32f7xx_hal_msp.c ****   }
 838:Src/stm32f7xx_hal_msp.c **** 
 839:Src/stm32f7xx_hal_msp.c **** }
 840:Src/stm32f7xx_hal_msp.c **** 
 841:Src/stm32f7xx_hal_msp.c **** void HAL_SPI_MspInit(SPI_HandleTypeDef* hspi)
 842:Src/stm32f7xx_hal_msp.c **** {
 843:Src/stm32f7xx_hal_msp.c **** 
 844:Src/stm32f7xx_hal_msp.c ****   GPIO_InitTypeDef GPIO_InitStruct;
 845:Src/stm32f7xx_hal_msp.c ****   if(hspi->Instance==SPI2)
 846:Src/stm32f7xx_hal_msp.c ****   {
 847:Src/stm32f7xx_hal_msp.c ****   /* USER CODE BEGIN SPI2_MspInit 0 */
 848:Src/stm32f7xx_hal_msp.c **** 
 849:Src/stm32f7xx_hal_msp.c ****   /* USER CODE END SPI2_MspInit 0 */
 850:Src/stm32f7xx_hal_msp.c ****     /* Peripheral clock enable */
 851:Src/stm32f7xx_hal_msp.c ****     __HAL_RCC_SPI2_CLK_ENABLE();
 852:Src/stm32f7xx_hal_msp.c ****   
 853:Src/stm32f7xx_hal_msp.c ****     /**SPI2 GPIO Configuration    
 854:Src/stm32f7xx_hal_msp.c ****     PI1     ------> SPI2_SCK
 855:Src/stm32f7xx_hal_msp.c ****     PB14     ------> SPI2_MISO
 856:Src/stm32f7xx_hal_msp.c ****     PB15     ------> SPI2_MOSI 
 857:Src/stm32f7xx_hal_msp.c ****     */
 858:Src/stm32f7xx_hal_msp.c ****     GPIO_InitStruct.Pin = ARDUINO_SCK_D13_Pin;
 859:Src/stm32f7xx_hal_msp.c ****     GPIO_InitStruct.Mode = GPIO_MODE_AF_PP;
 860:Src/stm32f7xx_hal_msp.c ****     GPIO_InitStruct.Pull = GPIO_NOPULL;
 861:Src/stm32f7xx_hal_msp.c ****     GPIO_InitStruct.Speed = GPIO_SPEED_FREQ_LOW;
 862:Src/stm32f7xx_hal_msp.c ****     GPIO_InitStruct.Alternate = GPIO_AF5_SPI2;
 863:Src/stm32f7xx_hal_msp.c ****     HAL_GPIO_Init(ARDUINO_SCK_D13_GPIO_Port, &GPIO_InitStruct);
 864:Src/stm32f7xx_hal_msp.c **** 
 865:Src/stm32f7xx_hal_msp.c ****     GPIO_InitStruct.Pin = ARDUINO_MISO_D12_Pin|ARDUINO_MOSI_PWM_D11_Pin;
 866:Src/stm32f7xx_hal_msp.c ****     GPIO_InitStruct.Mode = GPIO_MODE_AF_PP;
 867:Src/stm32f7xx_hal_msp.c ****     GPIO_InitStruct.Pull = GPIO_NOPULL;
 868:Src/stm32f7xx_hal_msp.c ****     GPIO_InitStruct.Speed = GPIO_SPEED_FREQ_LOW;
 869:Src/stm32f7xx_hal_msp.c ****     GPIO_InitStruct.Alternate = GPIO_AF5_SPI2;
 870:Src/stm32f7xx_hal_msp.c ****     HAL_GPIO_Init(GPIOB, &GPIO_InitStruct);
 871:Src/stm32f7xx_hal_msp.c **** 
 872:Src/stm32f7xx_hal_msp.c ****   /* USER CODE BEGIN SPI2_MspInit 1 */
 873:Src/stm32f7xx_hal_msp.c **** 
 874:Src/stm32f7xx_hal_msp.c ****   /* USER CODE END SPI2_MspInit 1 */
 875:Src/stm32f7xx_hal_msp.c ****   }
 876:Src/stm32f7xx_hal_msp.c **** 
 877:Src/stm32f7xx_hal_msp.c **** }
 878:Src/stm32f7xx_hal_msp.c **** 
 879:Src/stm32f7xx_hal_msp.c **** void HAL_SPI_MspDeInit(SPI_HandleTypeDef* hspi)
 880:Src/stm32f7xx_hal_msp.c **** {
 881:Src/stm32f7xx_hal_msp.c **** 
 882:Src/stm32f7xx_hal_msp.c ****   if(hspi->Instance==SPI2)
 883:Src/stm32f7xx_hal_msp.c ****   {
 884:Src/stm32f7xx_hal_msp.c ****   /* USER CODE BEGIN SPI2_MspDeInit 0 */
 885:Src/stm32f7xx_hal_msp.c **** 
 886:Src/stm32f7xx_hal_msp.c ****   /* USER CODE END SPI2_MspDeInit 0 */
 887:Src/stm32f7xx_hal_msp.c ****     /* Peripheral clock disable */
ARM GAS  C:\Users\Patryk\AppData\Local\Temp\cc1IRkRa.s 			page 17


 888:Src/stm32f7xx_hal_msp.c ****     __HAL_RCC_SPI2_CLK_DISABLE();
 889:Src/stm32f7xx_hal_msp.c ****   
 890:Src/stm32f7xx_hal_msp.c ****     /**SPI2 GPIO Configuration    
 891:Src/stm32f7xx_hal_msp.c ****     PI1     ------> SPI2_SCK
 892:Src/stm32f7xx_hal_msp.c ****     PB14     ------> SPI2_MISO
 893:Src/stm32f7xx_hal_msp.c ****     PB15     ------> SPI2_MOSI 
 894:Src/stm32f7xx_hal_msp.c ****     */
 895:Src/stm32f7xx_hal_msp.c ****     HAL_GPIO_DeInit(ARDUINO_SCK_D13_GPIO_Port, ARDUINO_SCK_D13_Pin);
 896:Src/stm32f7xx_hal_msp.c **** 
 897:Src/stm32f7xx_hal_msp.c ****     HAL_GPIO_DeInit(GPIOB, ARDUINO_MISO_D12_Pin|ARDUINO_MOSI_PWM_D11_Pin);
 898:Src/stm32f7xx_hal_msp.c **** 
 899:Src/stm32f7xx_hal_msp.c ****   /* USER CODE BEGIN SPI2_MspDeInit 1 */
 900:Src/stm32f7xx_hal_msp.c **** 
 901:Src/stm32f7xx_hal_msp.c ****   /* USER CODE END SPI2_MspDeInit 1 */
 902:Src/stm32f7xx_hal_msp.c ****   }
 903:Src/stm32f7xx_hal_msp.c **** 
 904:Src/stm32f7xx_hal_msp.c **** }
 905:Src/stm32f7xx_hal_msp.c **** 
 906:Src/stm32f7xx_hal_msp.c **** void HAL_TIM_Base_MspInit(TIM_HandleTypeDef* htim_base)
 907:Src/stm32f7xx_hal_msp.c **** {
 908:Src/stm32f7xx_hal_msp.c **** 
 909:Src/stm32f7xx_hal_msp.c ****   if(htim_base->Instance==TIM1)
 910:Src/stm32f7xx_hal_msp.c ****   {
 911:Src/stm32f7xx_hal_msp.c ****   /* USER CODE BEGIN TIM1_MspInit 0 */
 912:Src/stm32f7xx_hal_msp.c **** 
 913:Src/stm32f7xx_hal_msp.c ****   /* USER CODE END TIM1_MspInit 0 */
 914:Src/stm32f7xx_hal_msp.c ****     /* Peripheral clock enable */
 915:Src/stm32f7xx_hal_msp.c ****     __HAL_RCC_TIM1_CLK_ENABLE();
 916:Src/stm32f7xx_hal_msp.c ****   /* USER CODE BEGIN TIM1_MspInit 1 */
 917:Src/stm32f7xx_hal_msp.c **** 
 918:Src/stm32f7xx_hal_msp.c ****   /* USER CODE END TIM1_MspInit 1 */
 919:Src/stm32f7xx_hal_msp.c ****   }
 920:Src/stm32f7xx_hal_msp.c ****   else if(htim_base->Instance==TIM2)
 921:Src/stm32f7xx_hal_msp.c ****   {
 922:Src/stm32f7xx_hal_msp.c ****   /* USER CODE BEGIN TIM2_MspInit 0 */
 923:Src/stm32f7xx_hal_msp.c **** 
 924:Src/stm32f7xx_hal_msp.c ****   /* USER CODE END TIM2_MspInit 0 */
 925:Src/stm32f7xx_hal_msp.c ****     /* Peripheral clock enable */
 926:Src/stm32f7xx_hal_msp.c ****     __HAL_RCC_TIM2_CLK_ENABLE();
 927:Src/stm32f7xx_hal_msp.c ****   /* USER CODE BEGIN TIM2_MspInit 1 */
 928:Src/stm32f7xx_hal_msp.c **** 
 929:Src/stm32f7xx_hal_msp.c ****   /* USER CODE END TIM2_MspInit 1 */
 930:Src/stm32f7xx_hal_msp.c ****   }
 931:Src/stm32f7xx_hal_msp.c ****   else if(htim_base->Instance==TIM3)
 932:Src/stm32f7xx_hal_msp.c ****   {
 933:Src/stm32f7xx_hal_msp.c ****   /* USER CODE BEGIN TIM3_MspInit 0 */
 934:Src/stm32f7xx_hal_msp.c **** 
 935:Src/stm32f7xx_hal_msp.c ****   /* USER CODE END TIM3_MspInit 0 */
 936:Src/stm32f7xx_hal_msp.c ****     /* Peripheral clock enable */
 937:Src/stm32f7xx_hal_msp.c ****     __HAL_RCC_TIM3_CLK_ENABLE();
 938:Src/stm32f7xx_hal_msp.c ****   /* USER CODE BEGIN TIM3_MspInit 1 */
 939:Src/stm32f7xx_hal_msp.c **** 
 940:Src/stm32f7xx_hal_msp.c ****   /* USER CODE END TIM3_MspInit 1 */
 941:Src/stm32f7xx_hal_msp.c ****   }
 942:Src/stm32f7xx_hal_msp.c ****   else if(htim_base->Instance==TIM5)
 943:Src/stm32f7xx_hal_msp.c ****   {
 944:Src/stm32f7xx_hal_msp.c ****   /* USER CODE BEGIN TIM5_MspInit 0 */
ARM GAS  C:\Users\Patryk\AppData\Local\Temp\cc1IRkRa.s 			page 18


 945:Src/stm32f7xx_hal_msp.c **** 
 946:Src/stm32f7xx_hal_msp.c ****   /* USER CODE END TIM5_MspInit 0 */
 947:Src/stm32f7xx_hal_msp.c ****     /* Peripheral clock enable */
 948:Src/stm32f7xx_hal_msp.c ****     __HAL_RCC_TIM5_CLK_ENABLE();
 949:Src/stm32f7xx_hal_msp.c ****   /* USER CODE BEGIN TIM5_MspInit 1 */
 950:Src/stm32f7xx_hal_msp.c **** 
 951:Src/stm32f7xx_hal_msp.c ****   /* USER CODE END TIM5_MspInit 1 */
 952:Src/stm32f7xx_hal_msp.c ****   }
 953:Src/stm32f7xx_hal_msp.c ****   else if(htim_base->Instance==TIM7)
 954:Src/stm32f7xx_hal_msp.c ****   {
 955:Src/stm32f7xx_hal_msp.c ****   /* USER CODE BEGIN TIM7_MspInit 0 */
 956:Src/stm32f7xx_hal_msp.c **** 
 957:Src/stm32f7xx_hal_msp.c ****   /* USER CODE END TIM7_MspInit 0 */
 958:Src/stm32f7xx_hal_msp.c ****     /* Peripheral clock enable */
 959:Src/stm32f7xx_hal_msp.c ****     __HAL_RCC_TIM7_CLK_ENABLE();
 960:Src/stm32f7xx_hal_msp.c ****   /* USER CODE BEGIN TIM7_MspInit 1 */
 961:Src/stm32f7xx_hal_msp.c **** 
 962:Src/stm32f7xx_hal_msp.c ****   /* USER CODE END TIM7_MspInit 1 */
 963:Src/stm32f7xx_hal_msp.c ****   }
 964:Src/stm32f7xx_hal_msp.c ****   else if(htim_base->Instance==TIM8)
 965:Src/stm32f7xx_hal_msp.c ****   {
 966:Src/stm32f7xx_hal_msp.c ****   /* USER CODE BEGIN TIM8_MspInit 0 */
 967:Src/stm32f7xx_hal_msp.c **** 
 968:Src/stm32f7xx_hal_msp.c ****   /* USER CODE END TIM8_MspInit 0 */
 969:Src/stm32f7xx_hal_msp.c ****     /* Peripheral clock enable */
 970:Src/stm32f7xx_hal_msp.c ****     __HAL_RCC_TIM8_CLK_ENABLE();
 971:Src/stm32f7xx_hal_msp.c ****   /* USER CODE BEGIN TIM8_MspInit 1 */
 972:Src/stm32f7xx_hal_msp.c **** 
 973:Src/stm32f7xx_hal_msp.c ****   /* USER CODE END TIM8_MspInit 1 */
 974:Src/stm32f7xx_hal_msp.c ****   }
 975:Src/stm32f7xx_hal_msp.c **** 
 976:Src/stm32f7xx_hal_msp.c **** }
 977:Src/stm32f7xx_hal_msp.c **** 
 978:Src/stm32f7xx_hal_msp.c **** void HAL_TIM_PWM_MspInit(TIM_HandleTypeDef* htim_pwm)
 979:Src/stm32f7xx_hal_msp.c **** {
 980:Src/stm32f7xx_hal_msp.c **** 
 981:Src/stm32f7xx_hal_msp.c ****   if(htim_pwm->Instance==TIM12)
 982:Src/stm32f7xx_hal_msp.c ****   {
 983:Src/stm32f7xx_hal_msp.c ****   /* USER CODE BEGIN TIM12_MspInit 0 */
 984:Src/stm32f7xx_hal_msp.c **** 
 985:Src/stm32f7xx_hal_msp.c ****   /* USER CODE END TIM12_MspInit 0 */
 986:Src/stm32f7xx_hal_msp.c ****     /* Peripheral clock enable */
 987:Src/stm32f7xx_hal_msp.c ****     __HAL_RCC_TIM12_CLK_ENABLE();
 988:Src/stm32f7xx_hal_msp.c ****   /* USER CODE BEGIN TIM12_MspInit 1 */
 989:Src/stm32f7xx_hal_msp.c **** 
 990:Src/stm32f7xx_hal_msp.c ****   /* USER CODE END TIM12_MspInit 1 */
 991:Src/stm32f7xx_hal_msp.c ****   }
 992:Src/stm32f7xx_hal_msp.c **** 
 993:Src/stm32f7xx_hal_msp.c **** }
 994:Src/stm32f7xx_hal_msp.c **** 
 995:Src/stm32f7xx_hal_msp.c **** void HAL_TIM_MspPostInit(TIM_HandleTypeDef* htim)
 996:Src/stm32f7xx_hal_msp.c **** {
 997:Src/stm32f7xx_hal_msp.c **** 
 998:Src/stm32f7xx_hal_msp.c ****   GPIO_InitTypeDef GPIO_InitStruct;
 999:Src/stm32f7xx_hal_msp.c ****   if(htim->Instance==TIM1)
1000:Src/stm32f7xx_hal_msp.c ****   {
1001:Src/stm32f7xx_hal_msp.c ****   /* USER CODE BEGIN TIM1_MspPostInit 0 */
ARM GAS  C:\Users\Patryk\AppData\Local\Temp\cc1IRkRa.s 			page 19


1002:Src/stm32f7xx_hal_msp.c **** 
1003:Src/stm32f7xx_hal_msp.c ****   /* USER CODE END TIM1_MspPostInit 0 */
1004:Src/stm32f7xx_hal_msp.c ****     /**TIM1 GPIO Configuration    
1005:Src/stm32f7xx_hal_msp.c ****     PA8     ------> TIM1_CH1 
1006:Src/stm32f7xx_hal_msp.c ****     */
1007:Src/stm32f7xx_hal_msp.c ****     GPIO_InitStruct.Pin = ARDUINO_PWM_D10_Pin;
1008:Src/stm32f7xx_hal_msp.c ****     GPIO_InitStruct.Mode = GPIO_MODE_AF_PP;
1009:Src/stm32f7xx_hal_msp.c ****     GPIO_InitStruct.Pull = GPIO_NOPULL;
1010:Src/stm32f7xx_hal_msp.c ****     GPIO_InitStruct.Speed = GPIO_SPEED_FREQ_LOW;
1011:Src/stm32f7xx_hal_msp.c ****     GPIO_InitStruct.Alternate = GPIO_AF1_TIM1;
1012:Src/stm32f7xx_hal_msp.c ****     HAL_GPIO_Init(ARDUINO_PWM_D10_GPIO_Port, &GPIO_InitStruct);
1013:Src/stm32f7xx_hal_msp.c **** 
1014:Src/stm32f7xx_hal_msp.c ****   /* USER CODE BEGIN TIM1_MspPostInit 1 */
1015:Src/stm32f7xx_hal_msp.c **** 
1016:Src/stm32f7xx_hal_msp.c ****   /* USER CODE END TIM1_MspPostInit 1 */
1017:Src/stm32f7xx_hal_msp.c ****   }
1018:Src/stm32f7xx_hal_msp.c ****   else if(htim->Instance==TIM2)
1019:Src/stm32f7xx_hal_msp.c ****   {
1020:Src/stm32f7xx_hal_msp.c ****   /* USER CODE BEGIN TIM2_MspPostInit 0 */
1021:Src/stm32f7xx_hal_msp.c **** 
1022:Src/stm32f7xx_hal_msp.c ****   /* USER CODE END TIM2_MspPostInit 0 */
1023:Src/stm32f7xx_hal_msp.c ****   
1024:Src/stm32f7xx_hal_msp.c ****     /**TIM2 GPIO Configuration    
1025:Src/stm32f7xx_hal_msp.c ****     PA15     ------> TIM2_CH1 
1026:Src/stm32f7xx_hal_msp.c ****     */
1027:Src/stm32f7xx_hal_msp.c ****     GPIO_InitStruct.Pin = ARDUINO_PWM_D9_Pin;
1028:Src/stm32f7xx_hal_msp.c ****     GPIO_InitStruct.Mode = GPIO_MODE_AF_PP;
1029:Src/stm32f7xx_hal_msp.c ****     GPIO_InitStruct.Pull = GPIO_NOPULL;
1030:Src/stm32f7xx_hal_msp.c ****     GPIO_InitStruct.Speed = GPIO_SPEED_FREQ_LOW;
1031:Src/stm32f7xx_hal_msp.c ****     GPIO_InitStruct.Alternate = GPIO_AF1_TIM2;
1032:Src/stm32f7xx_hal_msp.c ****     HAL_GPIO_Init(ARDUINO_PWM_D9_GPIO_Port, &GPIO_InitStruct);
1033:Src/stm32f7xx_hal_msp.c **** 
1034:Src/stm32f7xx_hal_msp.c ****   /* USER CODE BEGIN TIM2_MspPostInit 1 */
1035:Src/stm32f7xx_hal_msp.c **** 
1036:Src/stm32f7xx_hal_msp.c ****   /* USER CODE END TIM2_MspPostInit 1 */
1037:Src/stm32f7xx_hal_msp.c ****   }
1038:Src/stm32f7xx_hal_msp.c ****   else if(htim->Instance==TIM3)
1039:Src/stm32f7xx_hal_msp.c ****   {
1040:Src/stm32f7xx_hal_msp.c ****   /* USER CODE BEGIN TIM3_MspPostInit 0 */
1041:Src/stm32f7xx_hal_msp.c **** 
1042:Src/stm32f7xx_hal_msp.c ****   /* USER CODE END TIM3_MspPostInit 0 */
1043:Src/stm32f7xx_hal_msp.c ****   
1044:Src/stm32f7xx_hal_msp.c ****     /**TIM3 GPIO Configuration    
1045:Src/stm32f7xx_hal_msp.c ****     PB4     ------> TIM3_CH1 
1046:Src/stm32f7xx_hal_msp.c ****     */
1047:Src/stm32f7xx_hal_msp.c ****     GPIO_InitStruct.Pin = ARDUINO_PWM_D3_Pin;
1048:Src/stm32f7xx_hal_msp.c ****     GPIO_InitStruct.Mode = GPIO_MODE_AF_PP;
1049:Src/stm32f7xx_hal_msp.c ****     GPIO_InitStruct.Pull = GPIO_NOPULL;
1050:Src/stm32f7xx_hal_msp.c ****     GPIO_InitStruct.Speed = GPIO_SPEED_FREQ_LOW;
1051:Src/stm32f7xx_hal_msp.c ****     GPIO_InitStruct.Alternate = GPIO_AF2_TIM3;
1052:Src/stm32f7xx_hal_msp.c ****     HAL_GPIO_Init(ARDUINO_PWM_D3_GPIO_Port, &GPIO_InitStruct);
1053:Src/stm32f7xx_hal_msp.c **** 
1054:Src/stm32f7xx_hal_msp.c ****   /* USER CODE BEGIN TIM3_MspPostInit 1 */
1055:Src/stm32f7xx_hal_msp.c **** 
1056:Src/stm32f7xx_hal_msp.c ****   /* USER CODE END TIM3_MspPostInit 1 */
1057:Src/stm32f7xx_hal_msp.c ****   }
1058:Src/stm32f7xx_hal_msp.c ****   else if(htim->Instance==TIM5)
ARM GAS  C:\Users\Patryk\AppData\Local\Temp\cc1IRkRa.s 			page 20


1059:Src/stm32f7xx_hal_msp.c ****   {
1060:Src/stm32f7xx_hal_msp.c ****   /* USER CODE BEGIN TIM5_MspPostInit 0 */
1061:Src/stm32f7xx_hal_msp.c **** 
1062:Src/stm32f7xx_hal_msp.c ****   /* USER CODE END TIM5_MspPostInit 0 */
1063:Src/stm32f7xx_hal_msp.c ****   
1064:Src/stm32f7xx_hal_msp.c ****     /**TIM5 GPIO Configuration    
1065:Src/stm32f7xx_hal_msp.c ****     PI0     ------> TIM5_CH4 
1066:Src/stm32f7xx_hal_msp.c ****     */
1067:Src/stm32f7xx_hal_msp.c ****     GPIO_InitStruct.Pin = ARDUINO_PWM_CS_D5_Pin;
1068:Src/stm32f7xx_hal_msp.c ****     GPIO_InitStruct.Mode = GPIO_MODE_AF_PP;
1069:Src/stm32f7xx_hal_msp.c ****     GPIO_InitStruct.Pull = GPIO_NOPULL;
1070:Src/stm32f7xx_hal_msp.c ****     GPIO_InitStruct.Speed = GPIO_SPEED_FREQ_LOW;
1071:Src/stm32f7xx_hal_msp.c ****     GPIO_InitStruct.Alternate = GPIO_AF2_TIM5;
1072:Src/stm32f7xx_hal_msp.c ****     HAL_GPIO_Init(ARDUINO_PWM_CS_D5_GPIO_Port, &GPIO_InitStruct);
1073:Src/stm32f7xx_hal_msp.c **** 
1074:Src/stm32f7xx_hal_msp.c ****   /* USER CODE BEGIN TIM5_MspPostInit 1 */
1075:Src/stm32f7xx_hal_msp.c **** 
1076:Src/stm32f7xx_hal_msp.c ****   /* USER CODE END TIM5_MspPostInit 1 */
1077:Src/stm32f7xx_hal_msp.c ****   }
1078:Src/stm32f7xx_hal_msp.c ****   else if(htim->Instance==TIM12)
1079:Src/stm32f7xx_hal_msp.c ****   {
1080:Src/stm32f7xx_hal_msp.c ****   /* USER CODE BEGIN TIM12_MspPostInit 0 */
1081:Src/stm32f7xx_hal_msp.c **** 
1082:Src/stm32f7xx_hal_msp.c ****   /* USER CODE END TIM12_MspPostInit 0 */
1083:Src/stm32f7xx_hal_msp.c ****   
1084:Src/stm32f7xx_hal_msp.c ****     /**TIM12 GPIO Configuration    
1085:Src/stm32f7xx_hal_msp.c ****     PH6     ------> TIM12_CH1 
1086:Src/stm32f7xx_hal_msp.c ****     */
1087:Src/stm32f7xx_hal_msp.c ****     GPIO_InitStruct.Pin = ARDUINO_PWM_D6_Pin;
1088:Src/stm32f7xx_hal_msp.c ****     GPIO_InitStruct.Mode = GPIO_MODE_AF_PP;
1089:Src/stm32f7xx_hal_msp.c ****     GPIO_InitStruct.Pull = GPIO_NOPULL;
1090:Src/stm32f7xx_hal_msp.c ****     GPIO_InitStruct.Speed = GPIO_SPEED_FREQ_LOW;
1091:Src/stm32f7xx_hal_msp.c ****     GPIO_InitStruct.Alternate = GPIO_AF9_TIM12;
1092:Src/stm32f7xx_hal_msp.c ****     HAL_GPIO_Init(ARDUINO_PWM_D6_GPIO_Port, &GPIO_InitStruct);
1093:Src/stm32f7xx_hal_msp.c **** 
1094:Src/stm32f7xx_hal_msp.c ****   /* USER CODE BEGIN TIM12_MspPostInit 1 */
1095:Src/stm32f7xx_hal_msp.c **** 
1096:Src/stm32f7xx_hal_msp.c ****   /* USER CODE END TIM12_MspPostInit 1 */
1097:Src/stm32f7xx_hal_msp.c ****   }
1098:Src/stm32f7xx_hal_msp.c **** 
1099:Src/stm32f7xx_hal_msp.c **** }
1100:Src/stm32f7xx_hal_msp.c **** 
1101:Src/stm32f7xx_hal_msp.c **** void HAL_TIM_Base_MspDeInit(TIM_HandleTypeDef* htim_base)
1102:Src/stm32f7xx_hal_msp.c **** {
1103:Src/stm32f7xx_hal_msp.c **** 
1104:Src/stm32f7xx_hal_msp.c ****   if(htim_base->Instance==TIM1)
1105:Src/stm32f7xx_hal_msp.c ****   {
1106:Src/stm32f7xx_hal_msp.c ****   /* USER CODE BEGIN TIM1_MspDeInit 0 */
1107:Src/stm32f7xx_hal_msp.c **** 
1108:Src/stm32f7xx_hal_msp.c ****   /* USER CODE END TIM1_MspDeInit 0 */
1109:Src/stm32f7xx_hal_msp.c ****     /* Peripheral clock disable */
1110:Src/stm32f7xx_hal_msp.c ****     __HAL_RCC_TIM1_CLK_DISABLE();
1111:Src/stm32f7xx_hal_msp.c ****   /* USER CODE BEGIN TIM1_MspDeInit 1 */
1112:Src/stm32f7xx_hal_msp.c **** 
1113:Src/stm32f7xx_hal_msp.c ****   /* USER CODE END TIM1_MspDeInit 1 */
1114:Src/stm32f7xx_hal_msp.c ****   }
1115:Src/stm32f7xx_hal_msp.c ****   else if(htim_base->Instance==TIM2)
ARM GAS  C:\Users\Patryk\AppData\Local\Temp\cc1IRkRa.s 			page 21


1116:Src/stm32f7xx_hal_msp.c ****   {
1117:Src/stm32f7xx_hal_msp.c ****   /* USER CODE BEGIN TIM2_MspDeInit 0 */
1118:Src/stm32f7xx_hal_msp.c **** 
1119:Src/stm32f7xx_hal_msp.c ****   /* USER CODE END TIM2_MspDeInit 0 */
1120:Src/stm32f7xx_hal_msp.c ****     /* Peripheral clock disable */
1121:Src/stm32f7xx_hal_msp.c ****     __HAL_RCC_TIM2_CLK_DISABLE();
1122:Src/stm32f7xx_hal_msp.c ****   /* USER CODE BEGIN TIM2_MspDeInit 1 */
1123:Src/stm32f7xx_hal_msp.c **** 
1124:Src/stm32f7xx_hal_msp.c ****   /* USER CODE END TIM2_MspDeInit 1 */
1125:Src/stm32f7xx_hal_msp.c ****   }
1126:Src/stm32f7xx_hal_msp.c ****   else if(htim_base->Instance==TIM3)
1127:Src/stm32f7xx_hal_msp.c ****   {
1128:Src/stm32f7xx_hal_msp.c ****   /* USER CODE BEGIN TIM3_MspDeInit 0 */
1129:Src/stm32f7xx_hal_msp.c **** 
1130:Src/stm32f7xx_hal_msp.c ****   /* USER CODE END TIM3_MspDeInit 0 */
1131:Src/stm32f7xx_hal_msp.c ****     /* Peripheral clock disable */
1132:Src/stm32f7xx_hal_msp.c ****     __HAL_RCC_TIM3_CLK_DISABLE();
1133:Src/stm32f7xx_hal_msp.c ****   /* USER CODE BEGIN TIM3_MspDeInit 1 */
1134:Src/stm32f7xx_hal_msp.c **** 
1135:Src/stm32f7xx_hal_msp.c ****   /* USER CODE END TIM3_MspDeInit 1 */
1136:Src/stm32f7xx_hal_msp.c ****   }
1137:Src/stm32f7xx_hal_msp.c ****   else if(htim_base->Instance==TIM5)
1138:Src/stm32f7xx_hal_msp.c ****   {
1139:Src/stm32f7xx_hal_msp.c ****   /* USER CODE BEGIN TIM5_MspDeInit 0 */
1140:Src/stm32f7xx_hal_msp.c **** 
1141:Src/stm32f7xx_hal_msp.c ****   /* USER CODE END TIM5_MspDeInit 0 */
1142:Src/stm32f7xx_hal_msp.c ****     /* Peripheral clock disable */
1143:Src/stm32f7xx_hal_msp.c ****     __HAL_RCC_TIM5_CLK_DISABLE();
1144:Src/stm32f7xx_hal_msp.c ****   /* USER CODE BEGIN TIM5_MspDeInit 1 */
1145:Src/stm32f7xx_hal_msp.c **** 
1146:Src/stm32f7xx_hal_msp.c ****   /* USER CODE END TIM5_MspDeInit 1 */
1147:Src/stm32f7xx_hal_msp.c ****   }
1148:Src/stm32f7xx_hal_msp.c ****   else if(htim_base->Instance==TIM7)
1149:Src/stm32f7xx_hal_msp.c ****   {
1150:Src/stm32f7xx_hal_msp.c ****   /* USER CODE BEGIN TIM7_MspDeInit 0 */
1151:Src/stm32f7xx_hal_msp.c **** 
1152:Src/stm32f7xx_hal_msp.c ****   /* USER CODE END TIM7_MspDeInit 0 */
1153:Src/stm32f7xx_hal_msp.c ****     /* Peripheral clock disable */
1154:Src/stm32f7xx_hal_msp.c ****     __HAL_RCC_TIM7_CLK_DISABLE();
1155:Src/stm32f7xx_hal_msp.c ****   /* USER CODE BEGIN TIM7_MspDeInit 1 */
1156:Src/stm32f7xx_hal_msp.c **** 
1157:Src/stm32f7xx_hal_msp.c ****   /* USER CODE END TIM7_MspDeInit 1 */
1158:Src/stm32f7xx_hal_msp.c ****   }
1159:Src/stm32f7xx_hal_msp.c ****   else if(htim_base->Instance==TIM8)
1160:Src/stm32f7xx_hal_msp.c ****   {
1161:Src/stm32f7xx_hal_msp.c ****   /* USER CODE BEGIN TIM8_MspDeInit 0 */
1162:Src/stm32f7xx_hal_msp.c **** 
1163:Src/stm32f7xx_hal_msp.c ****   /* USER CODE END TIM8_MspDeInit 0 */
1164:Src/stm32f7xx_hal_msp.c ****     /* Peripheral clock disable */
1165:Src/stm32f7xx_hal_msp.c ****     __HAL_RCC_TIM8_CLK_DISABLE();
1166:Src/stm32f7xx_hal_msp.c ****   /* USER CODE BEGIN TIM8_MspDeInit 1 */
1167:Src/stm32f7xx_hal_msp.c **** 
1168:Src/stm32f7xx_hal_msp.c ****   /* USER CODE END TIM8_MspDeInit 1 */
1169:Src/stm32f7xx_hal_msp.c ****   }
1170:Src/stm32f7xx_hal_msp.c **** 
1171:Src/stm32f7xx_hal_msp.c **** }
1172:Src/stm32f7xx_hal_msp.c **** 
ARM GAS  C:\Users\Patryk\AppData\Local\Temp\cc1IRkRa.s 			page 22


1173:Src/stm32f7xx_hal_msp.c **** void HAL_TIM_PWM_MspDeInit(TIM_HandleTypeDef* htim_pwm)
1174:Src/stm32f7xx_hal_msp.c **** {
1175:Src/stm32f7xx_hal_msp.c **** 
1176:Src/stm32f7xx_hal_msp.c ****   if(htim_pwm->Instance==TIM12)
1177:Src/stm32f7xx_hal_msp.c ****   {
1178:Src/stm32f7xx_hal_msp.c ****   /* USER CODE BEGIN TIM12_MspDeInit 0 */
1179:Src/stm32f7xx_hal_msp.c **** 
1180:Src/stm32f7xx_hal_msp.c ****   /* USER CODE END TIM12_MspDeInit 0 */
1181:Src/stm32f7xx_hal_msp.c ****     /* Peripheral clock disable */
1182:Src/stm32f7xx_hal_msp.c ****     __HAL_RCC_TIM12_CLK_DISABLE();
1183:Src/stm32f7xx_hal_msp.c ****   /* USER CODE BEGIN TIM12_MspDeInit 1 */
1184:Src/stm32f7xx_hal_msp.c **** 
1185:Src/stm32f7xx_hal_msp.c ****   /* USER CODE END TIM12_MspDeInit 1 */
1186:Src/stm32f7xx_hal_msp.c ****   }
1187:Src/stm32f7xx_hal_msp.c **** 
1188:Src/stm32f7xx_hal_msp.c **** }
1189:Src/stm32f7xx_hal_msp.c **** 
1190:Src/stm32f7xx_hal_msp.c **** void HAL_UART_MspInit(UART_HandleTypeDef* huart)
1191:Src/stm32f7xx_hal_msp.c **** {
1192:Src/stm32f7xx_hal_msp.c **** 
1193:Src/stm32f7xx_hal_msp.c ****   GPIO_InitTypeDef GPIO_InitStruct;
1194:Src/stm32f7xx_hal_msp.c ****   if(huart->Instance==USART1)
1195:Src/stm32f7xx_hal_msp.c ****   {
1196:Src/stm32f7xx_hal_msp.c ****   /* USER CODE BEGIN USART1_MspInit 0 */
1197:Src/stm32f7xx_hal_msp.c **** 
1198:Src/stm32f7xx_hal_msp.c ****   /* USER CODE END USART1_MspInit 0 */
1199:Src/stm32f7xx_hal_msp.c ****     /* Peripheral clock enable */
1200:Src/stm32f7xx_hal_msp.c ****     __HAL_RCC_USART1_CLK_ENABLE();
1201:Src/stm32f7xx_hal_msp.c ****   
1202:Src/stm32f7xx_hal_msp.c ****     /**USART1 GPIO Configuration    
1203:Src/stm32f7xx_hal_msp.c ****     PB7     ------> USART1_RX
1204:Src/stm32f7xx_hal_msp.c ****     PA9     ------> USART1_TX 
1205:Src/stm32f7xx_hal_msp.c ****     */
1206:Src/stm32f7xx_hal_msp.c ****     GPIO_InitStruct.Pin = VCP_RX_Pin;
1207:Src/stm32f7xx_hal_msp.c ****     GPIO_InitStruct.Mode = GPIO_MODE_AF_PP;
1208:Src/stm32f7xx_hal_msp.c ****     GPIO_InitStruct.Pull = GPIO_NOPULL;
1209:Src/stm32f7xx_hal_msp.c ****     GPIO_InitStruct.Speed = GPIO_SPEED_FREQ_LOW;
1210:Src/stm32f7xx_hal_msp.c ****     GPIO_InitStruct.Alternate = GPIO_AF7_USART1;
1211:Src/stm32f7xx_hal_msp.c ****     HAL_GPIO_Init(VCP_RX_GPIO_Port, &GPIO_InitStruct);
1212:Src/stm32f7xx_hal_msp.c **** 
1213:Src/stm32f7xx_hal_msp.c ****     GPIO_InitStruct.Pin = VCP_TX_Pin;
1214:Src/stm32f7xx_hal_msp.c ****     GPIO_InitStruct.Mode = GPIO_MODE_AF_PP;
1215:Src/stm32f7xx_hal_msp.c ****     GPIO_InitStruct.Pull = GPIO_NOPULL;
1216:Src/stm32f7xx_hal_msp.c ****     GPIO_InitStruct.Speed = GPIO_SPEED_FREQ_LOW;
1217:Src/stm32f7xx_hal_msp.c ****     GPIO_InitStruct.Alternate = GPIO_AF7_USART1;
1218:Src/stm32f7xx_hal_msp.c ****     HAL_GPIO_Init(VCP_TX_GPIO_Port, &GPIO_InitStruct);
1219:Src/stm32f7xx_hal_msp.c **** 
1220:Src/stm32f7xx_hal_msp.c ****   /* USER CODE BEGIN USART1_MspInit 1 */
1221:Src/stm32f7xx_hal_msp.c **** 
1222:Src/stm32f7xx_hal_msp.c ****   /* USER CODE END USART1_MspInit 1 */
1223:Src/stm32f7xx_hal_msp.c ****   }
1224:Src/stm32f7xx_hal_msp.c ****   else if(huart->Instance==USART6)
1225:Src/stm32f7xx_hal_msp.c ****   {
1226:Src/stm32f7xx_hal_msp.c ****   /* USER CODE BEGIN USART6_MspInit 0 */
1227:Src/stm32f7xx_hal_msp.c **** 
1228:Src/stm32f7xx_hal_msp.c ****   /* USER CODE END USART6_MspInit 0 */
1229:Src/stm32f7xx_hal_msp.c ****     /* Peripheral clock enable */
ARM GAS  C:\Users\Patryk\AppData\Local\Temp\cc1IRkRa.s 			page 23


1230:Src/stm32f7xx_hal_msp.c ****     __HAL_RCC_USART6_CLK_ENABLE();
1231:Src/stm32f7xx_hal_msp.c ****   
1232:Src/stm32f7xx_hal_msp.c ****     /**USART6 GPIO Configuration    
1233:Src/stm32f7xx_hal_msp.c ****     PC7     ------> USART6_RX
1234:Src/stm32f7xx_hal_msp.c ****     PC6     ------> USART6_TX 
1235:Src/stm32f7xx_hal_msp.c ****     */
1236:Src/stm32f7xx_hal_msp.c ****     GPIO_InitStruct.Pin = ARDUINO_RX_D0_Pin|ARDUINO_TX_D1_Pin;
1237:Src/stm32f7xx_hal_msp.c ****     GPIO_InitStruct.Mode = GPIO_MODE_AF_PP;
1238:Src/stm32f7xx_hal_msp.c ****     GPIO_InitStruct.Pull = GPIO_NOPULL;
1239:Src/stm32f7xx_hal_msp.c ****     GPIO_InitStruct.Speed = GPIO_SPEED_FREQ_VERY_HIGH;
1240:Src/stm32f7xx_hal_msp.c ****     GPIO_InitStruct.Alternate = GPIO_AF8_USART6;
1241:Src/stm32f7xx_hal_msp.c ****     HAL_GPIO_Init(GPIOC, &GPIO_InitStruct);
1242:Src/stm32f7xx_hal_msp.c **** 
1243:Src/stm32f7xx_hal_msp.c ****   /* USER CODE BEGIN USART6_MspInit 1 */
1244:Src/stm32f7xx_hal_msp.c **** 
1245:Src/stm32f7xx_hal_msp.c ****   /* USER CODE END USART6_MspInit 1 */
1246:Src/stm32f7xx_hal_msp.c ****   }
1247:Src/stm32f7xx_hal_msp.c **** 
1248:Src/stm32f7xx_hal_msp.c **** }
1249:Src/stm32f7xx_hal_msp.c **** 
1250:Src/stm32f7xx_hal_msp.c **** void HAL_UART_MspDeInit(UART_HandleTypeDef* huart)
1251:Src/stm32f7xx_hal_msp.c **** {
1252:Src/stm32f7xx_hal_msp.c **** 
1253:Src/stm32f7xx_hal_msp.c ****   if(huart->Instance==USART1)
1254:Src/stm32f7xx_hal_msp.c ****   {
1255:Src/stm32f7xx_hal_msp.c ****   /* USER CODE BEGIN USART1_MspDeInit 0 */
1256:Src/stm32f7xx_hal_msp.c **** 
1257:Src/stm32f7xx_hal_msp.c ****   /* USER CODE END USART1_MspDeInit 0 */
1258:Src/stm32f7xx_hal_msp.c ****     /* Peripheral clock disable */
1259:Src/stm32f7xx_hal_msp.c ****     __HAL_RCC_USART1_CLK_DISABLE();
1260:Src/stm32f7xx_hal_msp.c ****   
1261:Src/stm32f7xx_hal_msp.c ****     /**USART1 GPIO Configuration    
1262:Src/stm32f7xx_hal_msp.c ****     PB7     ------> USART1_RX
1263:Src/stm32f7xx_hal_msp.c ****     PA9     ------> USART1_TX 
1264:Src/stm32f7xx_hal_msp.c ****     */
1265:Src/stm32f7xx_hal_msp.c ****     HAL_GPIO_DeInit(VCP_RX_GPIO_Port, VCP_RX_Pin);
1266:Src/stm32f7xx_hal_msp.c **** 
1267:Src/stm32f7xx_hal_msp.c ****     HAL_GPIO_DeInit(VCP_TX_GPIO_Port, VCP_TX_Pin);
1268:Src/stm32f7xx_hal_msp.c **** 
1269:Src/stm32f7xx_hal_msp.c ****   /* USER CODE BEGIN USART1_MspDeInit 1 */
1270:Src/stm32f7xx_hal_msp.c **** 
1271:Src/stm32f7xx_hal_msp.c ****   /* USER CODE END USART1_MspDeInit 1 */
1272:Src/stm32f7xx_hal_msp.c ****   }
1273:Src/stm32f7xx_hal_msp.c ****   else if(huart->Instance==USART6)
1274:Src/stm32f7xx_hal_msp.c ****   {
1275:Src/stm32f7xx_hal_msp.c ****   /* USER CODE BEGIN USART6_MspDeInit 0 */
1276:Src/stm32f7xx_hal_msp.c **** 
1277:Src/stm32f7xx_hal_msp.c ****   /* USER CODE END USART6_MspDeInit 0 */
1278:Src/stm32f7xx_hal_msp.c ****     /* Peripheral clock disable */
1279:Src/stm32f7xx_hal_msp.c ****     __HAL_RCC_USART6_CLK_DISABLE();
1280:Src/stm32f7xx_hal_msp.c ****   
1281:Src/stm32f7xx_hal_msp.c ****     /**USART6 GPIO Configuration    
1282:Src/stm32f7xx_hal_msp.c ****     PC7     ------> USART6_RX
1283:Src/stm32f7xx_hal_msp.c ****     PC6     ------> USART6_TX 
1284:Src/stm32f7xx_hal_msp.c ****     */
1285:Src/stm32f7xx_hal_msp.c ****     HAL_GPIO_DeInit(GPIOC, ARDUINO_RX_D0_Pin|ARDUINO_TX_D1_Pin);
1286:Src/stm32f7xx_hal_msp.c **** 
ARM GAS  C:\Users\Patryk\AppData\Local\Temp\cc1IRkRa.s 			page 24


1287:Src/stm32f7xx_hal_msp.c ****   /* USER CODE BEGIN USART6_MspDeInit 1 */
1288:Src/stm32f7xx_hal_msp.c **** 
1289:Src/stm32f7xx_hal_msp.c ****   /* USER CODE END USART6_MspDeInit 1 */
1290:Src/stm32f7xx_hal_msp.c ****   }
1291:Src/stm32f7xx_hal_msp.c **** 
1292:Src/stm32f7xx_hal_msp.c **** }
1293:Src/stm32f7xx_hal_msp.c **** 
1294:Src/stm32f7xx_hal_msp.c **** static uint32_t FMC_Initialized = 0;
1295:Src/stm32f7xx_hal_msp.c **** 
1296:Src/stm32f7xx_hal_msp.c **** static void HAL_FMC_MspInit(void){
  27              		.loc 1 1296 0
  28              		.cfi_startproc
  29              		@ args = 0, pretend = 0, frame = 24
  30              		@ frame_needed = 0, uses_anonymous_args = 0
1297:Src/stm32f7xx_hal_msp.c ****   /* USER CODE BEGIN FMC_MspInit 0 */
1298:Src/stm32f7xx_hal_msp.c **** 
1299:Src/stm32f7xx_hal_msp.c ****   /* USER CODE END FMC_MspInit 0 */
1300:Src/stm32f7xx_hal_msp.c ****   GPIO_InitTypeDef GPIO_InitStruct;
1301:Src/stm32f7xx_hal_msp.c ****   if (FMC_Initialized) {
  31              		.loc 1 1301 0
  32 0000 2C4B     		ldr	r3, .L9
  33 0002 1B68     		ldr	r3, [r3]
  34 0004 03B1     		cbz	r3, .L8
  35 0006 7047     		bx	lr
  36              	.L8:
1296:Src/stm32f7xx_hal_msp.c ****   /* USER CODE BEGIN FMC_MspInit 0 */
  37              		.loc 1 1296 0
  38 0008 F0B5     		push	{r4, r5, r6, r7, lr}
  39              	.LCFI0:
  40              		.cfi_def_cfa_offset 20
  41              		.cfi_offset 4, -20
  42              		.cfi_offset 5, -16
  43              		.cfi_offset 6, -12
  44              		.cfi_offset 7, -8
  45              		.cfi_offset 14, -4
  46 000a 87B0     		sub	sp, sp, #28
  47              	.LCFI1:
  48              		.cfi_def_cfa_offset 48
1302:Src/stm32f7xx_hal_msp.c ****     return;
1303:Src/stm32f7xx_hal_msp.c ****   }
1304:Src/stm32f7xx_hal_msp.c ****   FMC_Initialized = 1;
  49              		.loc 1 1304 0
  50 000c 294B     		ldr	r3, .L9
  51 000e 0122     		movs	r2, #1
  52 0010 1A60     		str	r2, [r3]
  53              	.LBB2:
1305:Src/stm32f7xx_hal_msp.c ****   /* Peripheral clock enable */
1306:Src/stm32f7xx_hal_msp.c ****   __HAL_RCC_FMC_CLK_ENABLE();
  54              		.loc 1 1306 0
  55 0012 294B     		ldr	r3, .L9+4
  56 0014 9A6B     		ldr	r2, [r3, #56]
  57 0016 42F00102 		orr	r2, r2, #1
  58 001a 9A63     		str	r2, [r3, #56]
  59 001c 9B6B     		ldr	r3, [r3, #56]
  60 001e 03F00103 		and	r3, r3, #1
  61 0022 0093     		str	r3, [sp]
  62 0024 009B     		ldr	r3, [sp]
ARM GAS  C:\Users\Patryk\AppData\Local\Temp\cc1IRkRa.s 			page 25


  63              	.LBE2:
1307:Src/stm32f7xx_hal_msp.c ****   
1308:Src/stm32f7xx_hal_msp.c ****   /** FMC GPIO Configuration  
1309:Src/stm32f7xx_hal_msp.c ****   PE1   ------> FMC_NBL1
1310:Src/stm32f7xx_hal_msp.c ****   PE0   ------> FMC_NBL0
1311:Src/stm32f7xx_hal_msp.c ****   PG15   ------> FMC_SDNCAS
1312:Src/stm32f7xx_hal_msp.c ****   PD0   ------> FMC_D2
1313:Src/stm32f7xx_hal_msp.c ****   PD1   ------> FMC_D3
1314:Src/stm32f7xx_hal_msp.c ****   PF0   ------> FMC_A0
1315:Src/stm32f7xx_hal_msp.c ****   PF1   ------> FMC_A1
1316:Src/stm32f7xx_hal_msp.c ****   PF2   ------> FMC_A2
1317:Src/stm32f7xx_hal_msp.c ****   PF3   ------> FMC_A3
1318:Src/stm32f7xx_hal_msp.c ****   PG8   ------> FMC_SDCLK
1319:Src/stm32f7xx_hal_msp.c ****   PF4   ------> FMC_A4
1320:Src/stm32f7xx_hal_msp.c ****   PH5   ------> FMC_SDNWE
1321:Src/stm32f7xx_hal_msp.c ****   PH3   ------> FMC_SDNE0
1322:Src/stm32f7xx_hal_msp.c ****   PF5   ------> FMC_A5
1323:Src/stm32f7xx_hal_msp.c ****   PD15   ------> FMC_D1
1324:Src/stm32f7xx_hal_msp.c ****   PD10   ------> FMC_D15
1325:Src/stm32f7xx_hal_msp.c ****   PC3   ------> FMC_SDCKE0
1326:Src/stm32f7xx_hal_msp.c ****   PD14   ------> FMC_D0
1327:Src/stm32f7xx_hal_msp.c ****   PD9   ------> FMC_D14
1328:Src/stm32f7xx_hal_msp.c ****   PD8   ------> FMC_D13
1329:Src/stm32f7xx_hal_msp.c ****   PF12   ------> FMC_A6
1330:Src/stm32f7xx_hal_msp.c ****   PG1   ------> FMC_A11
1331:Src/stm32f7xx_hal_msp.c ****   PF15   ------> FMC_A9
1332:Src/stm32f7xx_hal_msp.c ****   PF13   ------> FMC_A7
1333:Src/stm32f7xx_hal_msp.c ****   PG0   ------> FMC_A10
1334:Src/stm32f7xx_hal_msp.c ****   PE8   ------> FMC_D5
1335:Src/stm32f7xx_hal_msp.c ****   PG5   ------> FMC_BA1
1336:Src/stm32f7xx_hal_msp.c ****   PG4   ------> FMC_BA0
1337:Src/stm32f7xx_hal_msp.c ****   PF14   ------> FMC_A8
1338:Src/stm32f7xx_hal_msp.c ****   PF11   ------> FMC_SDNRAS
1339:Src/stm32f7xx_hal_msp.c ****   PE9   ------> FMC_D6
1340:Src/stm32f7xx_hal_msp.c ****   PE11   ------> FMC_D8
1341:Src/stm32f7xx_hal_msp.c ****   PE14   ------> FMC_D11
1342:Src/stm32f7xx_hal_msp.c ****   PE7   ------> FMC_D4
1343:Src/stm32f7xx_hal_msp.c ****   PE10   ------> FMC_D7
1344:Src/stm32f7xx_hal_msp.c ****   PE12   ------> FMC_D9
1345:Src/stm32f7xx_hal_msp.c ****   PE15   ------> FMC_D12
1346:Src/stm32f7xx_hal_msp.c ****   PE13   ------> FMC_D10
1347:Src/stm32f7xx_hal_msp.c ****   */
1348:Src/stm32f7xx_hal_msp.c ****   GPIO_InitStruct.Pin = FMC_NBL1_Pin|FMC_NBL0_Pin|FMC_D5_Pin|FMC_D6_Pin 
  64              		.loc 1 1348 0
  65 0026 4FF68373 		movw	r3, #65411
  66 002a 0193     		str	r3, [sp, #4]
1349:Src/stm32f7xx_hal_msp.c ****                           |FMC_D8_Pin|FMC_D11_Pin|FMC_D4_Pin|FMC_D7_Pin 
1350:Src/stm32f7xx_hal_msp.c ****                           |FMC_D9_Pin|FMC_D12_Pin|FMC_D10_Pin;
1351:Src/stm32f7xx_hal_msp.c ****   GPIO_InitStruct.Mode = GPIO_MODE_AF_PP;
  67              		.loc 1 1351 0
  68 002c 0227     		movs	r7, #2
  69 002e 0297     		str	r7, [sp, #8]
1352:Src/stm32f7xx_hal_msp.c ****   GPIO_InitStruct.Pull = GPIO_NOPULL;
  70              		.loc 1 1352 0
  71 0030 0026     		movs	r6, #0
  72 0032 0396     		str	r6, [sp, #12]
1353:Src/stm32f7xx_hal_msp.c ****   GPIO_InitStruct.Speed = GPIO_SPEED_FREQ_VERY_HIGH;
ARM GAS  C:\Users\Patryk\AppData\Local\Temp\cc1IRkRa.s 			page 26


  73              		.loc 1 1353 0
  74 0034 0325     		movs	r5, #3
  75 0036 0495     		str	r5, [sp, #16]
1354:Src/stm32f7xx_hal_msp.c ****   GPIO_InitStruct.Alternate = GPIO_AF12_FMC;
  76              		.loc 1 1354 0
  77 0038 0C24     		movs	r4, #12
  78 003a 0594     		str	r4, [sp, #20]
1355:Src/stm32f7xx_hal_msp.c ****   HAL_GPIO_Init(GPIOE, &GPIO_InitStruct);
  79              		.loc 1 1355 0
  80 003c 01A9     		add	r1, sp, #4
  81 003e 1F48     		ldr	r0, .L9+8
  82 0040 FFF7FEFF 		bl	HAL_GPIO_Init
  83              	.LVL0:
1356:Src/stm32f7xx_hal_msp.c **** 
1357:Src/stm32f7xx_hal_msp.c ****   GPIO_InitStruct.Pin = FMC_SDNCAS_Pin|FMC_SDCLK_Pin|FMC_A11_Pin|FMC_A10_Pin 
  84              		.loc 1 1357 0
  85 0044 48F23313 		movw	r3, #33075
  86 0048 0193     		str	r3, [sp, #4]
1358:Src/stm32f7xx_hal_msp.c ****                           |FMC_BA1_Pin|FMC_BA0_Pin;
1359:Src/stm32f7xx_hal_msp.c ****   GPIO_InitStruct.Mode = GPIO_MODE_AF_PP;
  87              		.loc 1 1359 0
  88 004a 0297     		str	r7, [sp, #8]
1360:Src/stm32f7xx_hal_msp.c ****   GPIO_InitStruct.Pull = GPIO_NOPULL;
  89              		.loc 1 1360 0
  90 004c 0396     		str	r6, [sp, #12]
1361:Src/stm32f7xx_hal_msp.c ****   GPIO_InitStruct.Speed = GPIO_SPEED_FREQ_VERY_HIGH;
  91              		.loc 1 1361 0
  92 004e 0495     		str	r5, [sp, #16]
1362:Src/stm32f7xx_hal_msp.c ****   GPIO_InitStruct.Alternate = GPIO_AF12_FMC;
  93              		.loc 1 1362 0
  94 0050 0594     		str	r4, [sp, #20]
1363:Src/stm32f7xx_hal_msp.c ****   HAL_GPIO_Init(GPIOG, &GPIO_InitStruct);
  95              		.loc 1 1363 0
  96 0052 01A9     		add	r1, sp, #4
  97 0054 1A48     		ldr	r0, .L9+12
  98 0056 FFF7FEFF 		bl	HAL_GPIO_Init
  99              	.LVL1:
1364:Src/stm32f7xx_hal_msp.c **** 
1365:Src/stm32f7xx_hal_msp.c ****   GPIO_InitStruct.Pin = FMC_D2_Pin|FMC_D3_Pin|FMC_D1_Pin|FMC_D15_Pin 
 100              		.loc 1 1365 0
 101 005a 4CF20373 		movw	r3, #50947
 102 005e 0193     		str	r3, [sp, #4]
1366:Src/stm32f7xx_hal_msp.c ****                           |FMC_D0_Pin|FMC_D14_Pin|FMC_D13_Pin;
1367:Src/stm32f7xx_hal_msp.c ****   GPIO_InitStruct.Mode = GPIO_MODE_AF_PP;
 103              		.loc 1 1367 0
 104 0060 0297     		str	r7, [sp, #8]
1368:Src/stm32f7xx_hal_msp.c ****   GPIO_InitStruct.Pull = GPIO_NOPULL;
 105              		.loc 1 1368 0
 106 0062 0396     		str	r6, [sp, #12]
1369:Src/stm32f7xx_hal_msp.c ****   GPIO_InitStruct.Speed = GPIO_SPEED_FREQ_VERY_HIGH;
 107              		.loc 1 1369 0
 108 0064 0495     		str	r5, [sp, #16]
1370:Src/stm32f7xx_hal_msp.c ****   GPIO_InitStruct.Alternate = GPIO_AF12_FMC;
 109              		.loc 1 1370 0
 110 0066 0594     		str	r4, [sp, #20]
1371:Src/stm32f7xx_hal_msp.c ****   HAL_GPIO_Init(GPIOD, &GPIO_InitStruct);
 111              		.loc 1 1371 0
ARM GAS  C:\Users\Patryk\AppData\Local\Temp\cc1IRkRa.s 			page 27


 112 0068 01A9     		add	r1, sp, #4
 113 006a 1648     		ldr	r0, .L9+16
 114 006c FFF7FEFF 		bl	HAL_GPIO_Init
 115              	.LVL2:
1372:Src/stm32f7xx_hal_msp.c **** 
1373:Src/stm32f7xx_hal_msp.c ****   GPIO_InitStruct.Pin = FMC_A0_Pin|FMC_A1_Pin|FMC_A2_Pin|FMC_A3_Pin 
 116              		.loc 1 1373 0
 117 0070 4FF63F03 		movw	r3, #63551
 118 0074 0193     		str	r3, [sp, #4]
1374:Src/stm32f7xx_hal_msp.c ****                           |FMC_A4_Pin|FMC_A5_Pin|FMC_A6_Pin|FMC_A9_Pin 
1375:Src/stm32f7xx_hal_msp.c ****                           |FMC_A7_Pin|FMC_A8_Pin|FMC_SDNRAS_Pin;
1376:Src/stm32f7xx_hal_msp.c ****   GPIO_InitStruct.Mode = GPIO_MODE_AF_PP;
 119              		.loc 1 1376 0
 120 0076 0297     		str	r7, [sp, #8]
1377:Src/stm32f7xx_hal_msp.c ****   GPIO_InitStruct.Pull = GPIO_NOPULL;
 121              		.loc 1 1377 0
 122 0078 0396     		str	r6, [sp, #12]
1378:Src/stm32f7xx_hal_msp.c ****   GPIO_InitStruct.Speed = GPIO_SPEED_FREQ_VERY_HIGH;
 123              		.loc 1 1378 0
 124 007a 0495     		str	r5, [sp, #16]
1379:Src/stm32f7xx_hal_msp.c ****   GPIO_InitStruct.Alternate = GPIO_AF12_FMC;
 125              		.loc 1 1379 0
 126 007c 0594     		str	r4, [sp, #20]
1380:Src/stm32f7xx_hal_msp.c ****   HAL_GPIO_Init(GPIOF, &GPIO_InitStruct);
 127              		.loc 1 1380 0
 128 007e 01A9     		add	r1, sp, #4
 129 0080 1148     		ldr	r0, .L9+20
 130 0082 FFF7FEFF 		bl	HAL_GPIO_Init
 131              	.LVL3:
1381:Src/stm32f7xx_hal_msp.c **** 
1382:Src/stm32f7xx_hal_msp.c ****   GPIO_InitStruct.Pin = FMC_SDNME_Pin|FMC_SDNE0_Pin;
 132              		.loc 1 1382 0
 133 0086 2823     		movs	r3, #40
 134 0088 0193     		str	r3, [sp, #4]
1383:Src/stm32f7xx_hal_msp.c ****   GPIO_InitStruct.Mode = GPIO_MODE_AF_PP;
 135              		.loc 1 1383 0
 136 008a 0297     		str	r7, [sp, #8]
1384:Src/stm32f7xx_hal_msp.c ****   GPIO_InitStruct.Pull = GPIO_NOPULL;
 137              		.loc 1 1384 0
 138 008c 0396     		str	r6, [sp, #12]
1385:Src/stm32f7xx_hal_msp.c ****   GPIO_InitStruct.Speed = GPIO_SPEED_FREQ_VERY_HIGH;
 139              		.loc 1 1385 0
 140 008e 0495     		str	r5, [sp, #16]
1386:Src/stm32f7xx_hal_msp.c ****   GPIO_InitStruct.Alternate = GPIO_AF12_FMC;
 141              		.loc 1 1386 0
 142 0090 0594     		str	r4, [sp, #20]
1387:Src/stm32f7xx_hal_msp.c ****   HAL_GPIO_Init(GPIOH, &GPIO_InitStruct);
 143              		.loc 1 1387 0
 144 0092 01A9     		add	r1, sp, #4
 145 0094 0D48     		ldr	r0, .L9+24
 146 0096 FFF7FEFF 		bl	HAL_GPIO_Init
 147              	.LVL4:
1388:Src/stm32f7xx_hal_msp.c **** 
1389:Src/stm32f7xx_hal_msp.c ****   GPIO_InitStruct.Pin = FMC_SDCKE0_Pin;
 148              		.loc 1 1389 0
 149 009a 0823     		movs	r3, #8
 150 009c 0193     		str	r3, [sp, #4]
ARM GAS  C:\Users\Patryk\AppData\Local\Temp\cc1IRkRa.s 			page 28


1390:Src/stm32f7xx_hal_msp.c ****   GPIO_InitStruct.Mode = GPIO_MODE_AF_PP;
 151              		.loc 1 1390 0
 152 009e 0297     		str	r7, [sp, #8]
1391:Src/stm32f7xx_hal_msp.c ****   GPIO_InitStruct.Pull = GPIO_NOPULL;
 153              		.loc 1 1391 0
 154 00a0 0396     		str	r6, [sp, #12]
1392:Src/stm32f7xx_hal_msp.c ****   GPIO_InitStruct.Speed = GPIO_SPEED_FREQ_VERY_HIGH;
 155              		.loc 1 1392 0
 156 00a2 0495     		str	r5, [sp, #16]
1393:Src/stm32f7xx_hal_msp.c ****   GPIO_InitStruct.Alternate = GPIO_AF12_FMC;
 157              		.loc 1 1393 0
 158 00a4 0594     		str	r4, [sp, #20]
1394:Src/stm32f7xx_hal_msp.c ****   HAL_GPIO_Init(FMC_SDCKE0_GPIO_Port, &GPIO_InitStruct);
 159              		.loc 1 1394 0
 160 00a6 01A9     		add	r1, sp, #4
 161 00a8 0948     		ldr	r0, .L9+28
 162 00aa FFF7FEFF 		bl	HAL_GPIO_Init
 163              	.LVL5:
1395:Src/stm32f7xx_hal_msp.c **** 
1396:Src/stm32f7xx_hal_msp.c ****   /* USER CODE BEGIN FMC_MspInit 1 */
1397:Src/stm32f7xx_hal_msp.c **** 
1398:Src/stm32f7xx_hal_msp.c ****   /* USER CODE END FMC_MspInit 1 */
1399:Src/stm32f7xx_hal_msp.c **** }
 164              		.loc 1 1399 0
 165 00ae 07B0     		add	sp, sp, #28
 166              	.LCFI2:
 167              		.cfi_def_cfa_offset 20
 168              		@ sp needed
 169 00b0 F0BD     		pop	{r4, r5, r6, r7, pc}
 170              	.L10:
 171 00b2 00BF     		.align	2
 172              	.L9:
 173 00b4 00000000 		.word	.LANCHOR0
 174 00b8 00380240 		.word	1073887232
 175 00bc 00100240 		.word	1073876992
 176 00c0 00180240 		.word	1073879040
 177 00c4 000C0240 		.word	1073875968
 178 00c8 00140240 		.word	1073878016
 179 00cc 001C0240 		.word	1073880064
 180 00d0 00080240 		.word	1073874944
 181              		.cfi_endproc
 182              	.LFE168:
 184              		.section	.text.HAL_FMC_MspDeInit,"ax",%progbits
 185              		.align	1
 186              		.syntax unified
 187              		.thumb
 188              		.thumb_func
 189              		.fpu fpv5-sp-d16
 191              	HAL_FMC_MspDeInit:
 192              	.LFB170:
1400:Src/stm32f7xx_hal_msp.c **** 
1401:Src/stm32f7xx_hal_msp.c **** void HAL_SDRAM_MspInit(SDRAM_HandleTypeDef* hsdram){
1402:Src/stm32f7xx_hal_msp.c ****   /* USER CODE BEGIN SDRAM_MspInit 0 */
1403:Src/stm32f7xx_hal_msp.c **** 
1404:Src/stm32f7xx_hal_msp.c ****   /* USER CODE END SDRAM_MspInit 0 */
1405:Src/stm32f7xx_hal_msp.c ****   HAL_FMC_MspInit();
1406:Src/stm32f7xx_hal_msp.c ****   /* USER CODE BEGIN SDRAM_MspInit 1 */
ARM GAS  C:\Users\Patryk\AppData\Local\Temp\cc1IRkRa.s 			page 29


1407:Src/stm32f7xx_hal_msp.c **** 
1408:Src/stm32f7xx_hal_msp.c ****   /* USER CODE END SDRAM_MspInit 1 */
1409:Src/stm32f7xx_hal_msp.c **** }
1410:Src/stm32f7xx_hal_msp.c **** 
1411:Src/stm32f7xx_hal_msp.c **** static uint32_t FMC_DeInitialized = 0;
1412:Src/stm32f7xx_hal_msp.c **** 
1413:Src/stm32f7xx_hal_msp.c **** static void HAL_FMC_MspDeInit(void){
 193              		.loc 1 1413 0
 194              		.cfi_startproc
 195              		@ args = 0, pretend = 0, frame = 0
 196              		@ frame_needed = 0, uses_anonymous_args = 0
 197 0000 08B5     		push	{r3, lr}
 198              	.LCFI3:
 199              		.cfi_def_cfa_offset 8
 200              		.cfi_offset 3, -8
 201              		.cfi_offset 14, -4
1414:Src/stm32f7xx_hal_msp.c ****   /* USER CODE BEGIN FMC_MspDeInit 0 */
1415:Src/stm32f7xx_hal_msp.c **** 
1416:Src/stm32f7xx_hal_msp.c ****   /* USER CODE END FMC_MspDeInit 0 */
1417:Src/stm32f7xx_hal_msp.c ****   if (FMC_DeInitialized) {
 202              		.loc 1 1417 0
 203 0002 144B     		ldr	r3, .L15
 204 0004 1B68     		ldr	r3, [r3]
 205 0006 03B1     		cbz	r3, .L14
 206              	.L11:
1418:Src/stm32f7xx_hal_msp.c ****     return;
1419:Src/stm32f7xx_hal_msp.c ****   }
1420:Src/stm32f7xx_hal_msp.c ****   FMC_DeInitialized = 1;
1421:Src/stm32f7xx_hal_msp.c ****   /* Peripheral clock enable */
1422:Src/stm32f7xx_hal_msp.c ****   __HAL_RCC_FMC_CLK_DISABLE();
1423:Src/stm32f7xx_hal_msp.c ****   
1424:Src/stm32f7xx_hal_msp.c ****   /** FMC GPIO Configuration  
1425:Src/stm32f7xx_hal_msp.c ****   PE1   ------> FMC_NBL1
1426:Src/stm32f7xx_hal_msp.c ****   PE0   ------> FMC_NBL0
1427:Src/stm32f7xx_hal_msp.c ****   PG15   ------> FMC_SDNCAS
1428:Src/stm32f7xx_hal_msp.c ****   PD0   ------> FMC_D2
1429:Src/stm32f7xx_hal_msp.c ****   PD1   ------> FMC_D3
1430:Src/stm32f7xx_hal_msp.c ****   PF0   ------> FMC_A0
1431:Src/stm32f7xx_hal_msp.c ****   PF1   ------> FMC_A1
1432:Src/stm32f7xx_hal_msp.c ****   PF2   ------> FMC_A2
1433:Src/stm32f7xx_hal_msp.c ****   PF3   ------> FMC_A3
1434:Src/stm32f7xx_hal_msp.c ****   PG8   ------> FMC_SDCLK
1435:Src/stm32f7xx_hal_msp.c ****   PF4   ------> FMC_A4
1436:Src/stm32f7xx_hal_msp.c ****   PH5   ------> FMC_SDNWE
1437:Src/stm32f7xx_hal_msp.c ****   PH3   ------> FMC_SDNE0
1438:Src/stm32f7xx_hal_msp.c ****   PF5   ------> FMC_A5
1439:Src/stm32f7xx_hal_msp.c ****   PD15   ------> FMC_D1
1440:Src/stm32f7xx_hal_msp.c ****   PD10   ------> FMC_D15
1441:Src/stm32f7xx_hal_msp.c ****   PC3   ------> FMC_SDCKE0
1442:Src/stm32f7xx_hal_msp.c ****   PD14   ------> FMC_D0
1443:Src/stm32f7xx_hal_msp.c ****   PD9   ------> FMC_D14
1444:Src/stm32f7xx_hal_msp.c ****   PD8   ------> FMC_D13
1445:Src/stm32f7xx_hal_msp.c ****   PF12   ------> FMC_A6
1446:Src/stm32f7xx_hal_msp.c ****   PG1   ------> FMC_A11
1447:Src/stm32f7xx_hal_msp.c ****   PF15   ------> FMC_A9
1448:Src/stm32f7xx_hal_msp.c ****   PF13   ------> FMC_A7
1449:Src/stm32f7xx_hal_msp.c ****   PG0   ------> FMC_A10
ARM GAS  C:\Users\Patryk\AppData\Local\Temp\cc1IRkRa.s 			page 30


1450:Src/stm32f7xx_hal_msp.c ****   PE8   ------> FMC_D5
1451:Src/stm32f7xx_hal_msp.c ****   PG5   ------> FMC_BA1
1452:Src/stm32f7xx_hal_msp.c ****   PG4   ------> FMC_BA0
1453:Src/stm32f7xx_hal_msp.c ****   PF14   ------> FMC_A8
1454:Src/stm32f7xx_hal_msp.c ****   PF11   ------> FMC_SDNRAS
1455:Src/stm32f7xx_hal_msp.c ****   PE9   ------> FMC_D6
1456:Src/stm32f7xx_hal_msp.c ****   PE11   ------> FMC_D8
1457:Src/stm32f7xx_hal_msp.c ****   PE14   ------> FMC_D11
1458:Src/stm32f7xx_hal_msp.c ****   PE7   ------> FMC_D4
1459:Src/stm32f7xx_hal_msp.c ****   PE10   ------> FMC_D7
1460:Src/stm32f7xx_hal_msp.c ****   PE12   ------> FMC_D9
1461:Src/stm32f7xx_hal_msp.c ****   PE15   ------> FMC_D12
1462:Src/stm32f7xx_hal_msp.c ****   PE13   ------> FMC_D10
1463:Src/stm32f7xx_hal_msp.c ****   */
1464:Src/stm32f7xx_hal_msp.c ****   HAL_GPIO_DeInit(GPIOE, FMC_NBL1_Pin|FMC_NBL0_Pin|FMC_D5_Pin|FMC_D6_Pin 
1465:Src/stm32f7xx_hal_msp.c ****                           |FMC_D8_Pin|FMC_D11_Pin|FMC_D4_Pin|FMC_D7_Pin 
1466:Src/stm32f7xx_hal_msp.c ****                           |FMC_D9_Pin|FMC_D12_Pin|FMC_D10_Pin);
1467:Src/stm32f7xx_hal_msp.c **** 
1468:Src/stm32f7xx_hal_msp.c ****   HAL_GPIO_DeInit(GPIOG, FMC_SDNCAS_Pin|FMC_SDCLK_Pin|FMC_A11_Pin|FMC_A10_Pin 
1469:Src/stm32f7xx_hal_msp.c ****                           |FMC_BA1_Pin|FMC_BA0_Pin);
1470:Src/stm32f7xx_hal_msp.c **** 
1471:Src/stm32f7xx_hal_msp.c ****   HAL_GPIO_DeInit(GPIOD, FMC_D2_Pin|FMC_D3_Pin|FMC_D1_Pin|FMC_D15_Pin 
1472:Src/stm32f7xx_hal_msp.c ****                           |FMC_D0_Pin|FMC_D14_Pin|FMC_D13_Pin);
1473:Src/stm32f7xx_hal_msp.c **** 
1474:Src/stm32f7xx_hal_msp.c ****   HAL_GPIO_DeInit(GPIOF, FMC_A0_Pin|FMC_A1_Pin|FMC_A2_Pin|FMC_A3_Pin 
1475:Src/stm32f7xx_hal_msp.c ****                           |FMC_A4_Pin|FMC_A5_Pin|FMC_A6_Pin|FMC_A9_Pin 
1476:Src/stm32f7xx_hal_msp.c ****                           |FMC_A7_Pin|FMC_A8_Pin|FMC_SDNRAS_Pin);
1477:Src/stm32f7xx_hal_msp.c **** 
1478:Src/stm32f7xx_hal_msp.c ****   HAL_GPIO_DeInit(GPIOH, FMC_SDNME_Pin|FMC_SDNE0_Pin);
1479:Src/stm32f7xx_hal_msp.c **** 
1480:Src/stm32f7xx_hal_msp.c ****   HAL_GPIO_DeInit(FMC_SDCKE0_GPIO_Port, FMC_SDCKE0_Pin);
1481:Src/stm32f7xx_hal_msp.c **** 
1482:Src/stm32f7xx_hal_msp.c ****   /* USER CODE BEGIN FMC_MspDeInit 1 */
1483:Src/stm32f7xx_hal_msp.c **** 
1484:Src/stm32f7xx_hal_msp.c ****   /* USER CODE END FMC_MspDeInit 1 */
1485:Src/stm32f7xx_hal_msp.c **** }
 207              		.loc 1 1485 0
 208 0008 08BD     		pop	{r3, pc}
 209              	.L14:
1420:Src/stm32f7xx_hal_msp.c ****   /* Peripheral clock enable */
 210              		.loc 1 1420 0
 211 000a 124B     		ldr	r3, .L15
 212 000c 0122     		movs	r2, #1
 213 000e 1A60     		str	r2, [r3]
1422:Src/stm32f7xx_hal_msp.c ****   
 214              		.loc 1 1422 0
 215 0010 114A     		ldr	r2, .L15+4
 216 0012 936B     		ldr	r3, [r2, #56]
 217 0014 23F00103 		bic	r3, r3, #1
 218 0018 9363     		str	r3, [r2, #56]
1464:Src/stm32f7xx_hal_msp.c ****                           |FMC_D8_Pin|FMC_D11_Pin|FMC_D4_Pin|FMC_D7_Pin 
 219              		.loc 1 1464 0
 220 001a 4FF68371 		movw	r1, #65411
 221 001e 0F48     		ldr	r0, .L15+8
 222 0020 FFF7FEFF 		bl	HAL_GPIO_DeInit
 223              	.LVL6:
1468:Src/stm32f7xx_hal_msp.c ****                           |FMC_BA1_Pin|FMC_BA0_Pin);
ARM GAS  C:\Users\Patryk\AppData\Local\Temp\cc1IRkRa.s 			page 31


 224              		.loc 1 1468 0
 225 0024 48F23311 		movw	r1, #33075
 226 0028 0D48     		ldr	r0, .L15+12
 227 002a FFF7FEFF 		bl	HAL_GPIO_DeInit
 228              	.LVL7:
1471:Src/stm32f7xx_hal_msp.c ****                           |FMC_D0_Pin|FMC_D14_Pin|FMC_D13_Pin);
 229              		.loc 1 1471 0
 230 002e 4CF20371 		movw	r1, #50947
 231 0032 0C48     		ldr	r0, .L15+16
 232 0034 FFF7FEFF 		bl	HAL_GPIO_DeInit
 233              	.LVL8:
1474:Src/stm32f7xx_hal_msp.c ****                           |FMC_A4_Pin|FMC_A5_Pin|FMC_A6_Pin|FMC_A9_Pin 
 234              		.loc 1 1474 0
 235 0038 4FF63F01 		movw	r1, #63551
 236 003c 0A48     		ldr	r0, .L15+20
 237 003e FFF7FEFF 		bl	HAL_GPIO_DeInit
 238              	.LVL9:
1478:Src/stm32f7xx_hal_msp.c **** 
 239              		.loc 1 1478 0
 240 0042 2821     		movs	r1, #40
 241 0044 0948     		ldr	r0, .L15+24
 242 0046 FFF7FEFF 		bl	HAL_GPIO_DeInit
 243              	.LVL10:
1480:Src/stm32f7xx_hal_msp.c **** 
 244              		.loc 1 1480 0
 245 004a 0821     		movs	r1, #8
 246 004c 0848     		ldr	r0, .L15+28
 247 004e FFF7FEFF 		bl	HAL_GPIO_DeInit
 248              	.LVL11:
 249 0052 D9E7     		b	.L11
 250              	.L16:
 251              		.align	2
 252              	.L15:
 253 0054 00000000 		.word	.LANCHOR1
 254 0058 00380240 		.word	1073887232
 255 005c 00100240 		.word	1073876992
 256 0060 00180240 		.word	1073879040
 257 0064 000C0240 		.word	1073875968
 258 0068 00140240 		.word	1073878016
 259 006c 001C0240 		.word	1073880064
 260 0070 00080240 		.word	1073874944
 261              		.cfi_endproc
 262              	.LFE170:
 264              		.section	.text.HAL_MspInit,"ax",%progbits
 265              		.align	1
 266              		.global	HAL_MspInit
 267              		.syntax unified
 268              		.thumb
 269              		.thumb_func
 270              		.fpu fpv5-sp-d16
 272              	HAL_MspInit:
 273              	.LFB138:
  61:Src/stm32f7xx_hal_msp.c ****   /* USER CODE BEGIN MspInit 0 */
 274              		.loc 1 61 0
 275              		.cfi_startproc
 276              		@ args = 0, pretend = 0, frame = 8
 277              		@ frame_needed = 0, uses_anonymous_args = 0
ARM GAS  C:\Users\Patryk\AppData\Local\Temp\cc1IRkRa.s 			page 32


 278 0000 00B5     		push	{lr}
 279              	.LCFI4:
 280              		.cfi_def_cfa_offset 4
 281              		.cfi_offset 14, -4
 282 0002 83B0     		sub	sp, sp, #12
 283              	.LCFI5:
 284              		.cfi_def_cfa_offset 16
 285              	.LBB3:
  66:Src/stm32f7xx_hal_msp.c ****   __HAL_RCC_SYSCFG_CLK_ENABLE();
 286              		.loc 1 66 0
 287 0004 214B     		ldr	r3, .L19
 288 0006 1A6C     		ldr	r2, [r3, #64]
 289 0008 42F08052 		orr	r2, r2, #268435456
 290 000c 1A64     		str	r2, [r3, #64]
 291 000e 1A6C     		ldr	r2, [r3, #64]
 292 0010 02F08052 		and	r2, r2, #268435456
 293 0014 0092     		str	r2, [sp]
 294 0016 009A     		ldr	r2, [sp]
 295              	.LBE3:
 296              	.LBB4:
  67:Src/stm32f7xx_hal_msp.c **** 
 297              		.loc 1 67 0
 298 0018 5A6C     		ldr	r2, [r3, #68]
 299 001a 42F48042 		orr	r2, r2, #16384
 300 001e 5A64     		str	r2, [r3, #68]
 301 0020 5B6C     		ldr	r3, [r3, #68]
 302 0022 03F48043 		and	r3, r3, #16384
 303 0026 0193     		str	r3, [sp, #4]
 304 0028 019B     		ldr	r3, [sp, #4]
 305              	.LBE4:
  69:Src/stm32f7xx_hal_msp.c **** 
 306              		.loc 1 69 0
 307 002a 0320     		movs	r0, #3
 308 002c FFF7FEFF 		bl	HAL_NVIC_SetPriorityGrouping
 309              	.LVL12:
  73:Src/stm32f7xx_hal_msp.c ****   /* BusFault_IRQn interrupt configuration */
 310              		.loc 1 73 0
 311 0030 0022     		movs	r2, #0
 312 0032 1146     		mov	r1, r2
 313 0034 6FF00B00 		mvn	r0, #11
 314 0038 FFF7FEFF 		bl	HAL_NVIC_SetPriority
 315              	.LVL13:
  75:Src/stm32f7xx_hal_msp.c ****   /* UsageFault_IRQn interrupt configuration */
 316              		.loc 1 75 0
 317 003c 0022     		movs	r2, #0
 318 003e 1146     		mov	r1, r2
 319 0040 6FF00A00 		mvn	r0, #10
 320 0044 FFF7FEFF 		bl	HAL_NVIC_SetPriority
 321              	.LVL14:
  77:Src/stm32f7xx_hal_msp.c ****   /* SVCall_IRQn interrupt configuration */
 322              		.loc 1 77 0
 323 0048 0022     		movs	r2, #0
 324 004a 1146     		mov	r1, r2
 325 004c 6FF00900 		mvn	r0, #9
 326 0050 FFF7FEFF 		bl	HAL_NVIC_SetPriority
 327              	.LVL15:
  79:Src/stm32f7xx_hal_msp.c ****   /* DebugMonitor_IRQn interrupt configuration */
ARM GAS  C:\Users\Patryk\AppData\Local\Temp\cc1IRkRa.s 			page 33


 328              		.loc 1 79 0
 329 0054 0022     		movs	r2, #0
 330 0056 1146     		mov	r1, r2
 331 0058 6FF00400 		mvn	r0, #4
 332 005c FFF7FEFF 		bl	HAL_NVIC_SetPriority
 333              	.LVL16:
  81:Src/stm32f7xx_hal_msp.c ****   /* PendSV_IRQn interrupt configuration */
 334              		.loc 1 81 0
 335 0060 0022     		movs	r2, #0
 336 0062 1146     		mov	r1, r2
 337 0064 6FF00300 		mvn	r0, #3
 338 0068 FFF7FEFF 		bl	HAL_NVIC_SetPriority
 339              	.LVL17:
  83:Src/stm32f7xx_hal_msp.c ****   /* SysTick_IRQn interrupt configuration */
 340              		.loc 1 83 0
 341 006c 0022     		movs	r2, #0
 342 006e 0F21     		movs	r1, #15
 343 0070 6FF00100 		mvn	r0, #1
 344 0074 FFF7FEFF 		bl	HAL_NVIC_SetPriority
 345              	.LVL18:
  85:Src/stm32f7xx_hal_msp.c **** 
 346              		.loc 1 85 0
 347 0078 0022     		movs	r2, #0
 348 007a 0F21     		movs	r1, #15
 349 007c 4FF0FF30 		mov	r0, #-1
 350 0080 FFF7FEFF 		bl	HAL_NVIC_SetPriority
 351              	.LVL19:
  90:Src/stm32f7xx_hal_msp.c **** 
 352              		.loc 1 90 0
 353 0084 03B0     		add	sp, sp, #12
 354              	.LCFI6:
 355              		.cfi_def_cfa_offset 4
 356              		@ sp needed
 357 0086 5DF804FB 		ldr	pc, [sp], #4
 358              	.L20:
 359 008a 00BF     		.align	2
 360              	.L19:
 361 008c 00380240 		.word	1073887232
 362              		.cfi_endproc
 363              	.LFE138:
 365              		.section	.text.HAL_ADC_MspInit,"ax",%progbits
 366              		.align	1
 367              		.global	HAL_ADC_MspInit
 368              		.syntax unified
 369              		.thumb
 370              		.thumb_func
 371              		.fpu fpv5-sp-d16
 373              	HAL_ADC_MspInit:
 374              	.LFB139:
  93:Src/stm32f7xx_hal_msp.c **** 
 375              		.loc 1 93 0
 376              		.cfi_startproc
 377              		@ args = 0, pretend = 0, frame = 24
 378              		@ frame_needed = 0, uses_anonymous_args = 0
 379              	.LVL20:
  96:Src/stm32f7xx_hal_msp.c ****   {
 380              		.loc 1 96 0
ARM GAS  C:\Users\Patryk\AppData\Local\Temp\cc1IRkRa.s 			page 34


 381 0000 0268     		ldr	r2, [r0]
 382 0002 134B     		ldr	r3, .L28
 383 0004 9A42     		cmp	r2, r3
 384 0006 00D0     		beq	.L27
 385 0008 7047     		bx	lr
 386              	.L27:
  93:Src/stm32f7xx_hal_msp.c **** 
 387              		.loc 1 93 0
 388 000a 30B5     		push	{r4, r5, lr}
 389              	.LCFI7:
 390              		.cfi_def_cfa_offset 12
 391              		.cfi_offset 4, -12
 392              		.cfi_offset 5, -8
 393              		.cfi_offset 14, -4
 394 000c 87B0     		sub	sp, sp, #28
 395              	.LCFI8:
 396              		.cfi_def_cfa_offset 40
 397              	.LBB5:
 102:Src/stm32f7xx_hal_msp.c ****   
 398              		.loc 1 102 0
 399 000e 03F58B33 		add	r3, r3, #71168
 400 0012 5A6C     		ldr	r2, [r3, #68]
 401 0014 42F48062 		orr	r2, r2, #1024
 402 0018 5A64     		str	r2, [r3, #68]
 403 001a 5B6C     		ldr	r3, [r3, #68]
 404 001c 03F48063 		and	r3, r3, #1024
 405 0020 0093     		str	r3, [sp]
 406 0022 009B     		ldr	r3, [sp]
 407              	.LBE5:
 112:Src/stm32f7xx_hal_msp.c ****                           |ARDUINO_A3_Pin;
 408              		.loc 1 112 0
 409 0024 4FF4F863 		mov	r3, #1984
 410 0028 0193     		str	r3, [sp, #4]
 114:Src/stm32f7xx_hal_msp.c ****     GPIO_InitStruct.Pull = GPIO_NOPULL;
 411              		.loc 1 114 0
 412 002a 0325     		movs	r5, #3
 413 002c 0295     		str	r5, [sp, #8]
 115:Src/stm32f7xx_hal_msp.c ****     HAL_GPIO_Init(GPIOF, &GPIO_InitStruct);
 414              		.loc 1 115 0
 415 002e 0024     		movs	r4, #0
 416 0030 0394     		str	r4, [sp, #12]
 116:Src/stm32f7xx_hal_msp.c **** 
 417              		.loc 1 116 0
 418 0032 01A9     		add	r1, sp, #4
 419 0034 0748     		ldr	r0, .L28+4
 420              	.LVL21:
 421 0036 FFF7FEFF 		bl	HAL_GPIO_Init
 422              	.LVL22:
 118:Src/stm32f7xx_hal_msp.c ****     GPIO_InitStruct.Mode = GPIO_MODE_ANALOG;
 423              		.loc 1 118 0
 424 003a 0123     		movs	r3, #1
 425 003c 0193     		str	r3, [sp, #4]
 119:Src/stm32f7xx_hal_msp.c ****     GPIO_InitStruct.Pull = GPIO_NOPULL;
 426              		.loc 1 119 0
 427 003e 0295     		str	r5, [sp, #8]
 120:Src/stm32f7xx_hal_msp.c ****     HAL_GPIO_Init(ARDUINO_A0_GPIO_Port, &GPIO_InitStruct);
 428              		.loc 1 120 0
ARM GAS  C:\Users\Patryk\AppData\Local\Temp\cc1IRkRa.s 			page 35


 429 0040 0394     		str	r4, [sp, #12]
 121:Src/stm32f7xx_hal_msp.c **** 
 430              		.loc 1 121 0
 431 0042 01A9     		add	r1, sp, #4
 432 0044 0448     		ldr	r0, .L28+8
 433 0046 FFF7FEFF 		bl	HAL_GPIO_Init
 434              	.LVL23:
 128:Src/stm32f7xx_hal_msp.c **** 
 435              		.loc 1 128 0
 436 004a 07B0     		add	sp, sp, #28
 437              	.LCFI9:
 438              		.cfi_def_cfa_offset 12
 439              		@ sp needed
 440 004c 30BD     		pop	{r4, r5, pc}
 441              	.L29:
 442 004e 00BF     		.align	2
 443              	.L28:
 444 0050 00220140 		.word	1073816064
 445 0054 00140240 		.word	1073878016
 446 0058 00000240 		.word	1073872896
 447              		.cfi_endproc
 448              	.LFE139:
 450              		.section	.text.HAL_ADC_MspDeInit,"ax",%progbits
 451              		.align	1
 452              		.global	HAL_ADC_MspDeInit
 453              		.syntax unified
 454              		.thumb
 455              		.thumb_func
 456              		.fpu fpv5-sp-d16
 458              	HAL_ADC_MspDeInit:
 459              	.LFB140:
 131:Src/stm32f7xx_hal_msp.c **** 
 460              		.loc 1 131 0
 461              		.cfi_startproc
 462              		@ args = 0, pretend = 0, frame = 0
 463              		@ frame_needed = 0, uses_anonymous_args = 0
 464              	.LVL24:
 465 0000 08B5     		push	{r3, lr}
 466              	.LCFI10:
 467              		.cfi_def_cfa_offset 8
 468              		.cfi_offset 3, -8
 469              		.cfi_offset 14, -4
 133:Src/stm32f7xx_hal_msp.c ****   {
 470              		.loc 1 133 0
 471 0002 0268     		ldr	r2, [r0]
 472 0004 094B     		ldr	r3, .L34
 473 0006 9A42     		cmp	r2, r3
 474 0008 00D0     		beq	.L33
 475              	.LVL25:
 476              	.L30:
 159:Src/stm32f7xx_hal_msp.c **** 
 477              		.loc 1 159 0
 478 000a 08BD     		pop	{r3, pc}
 479              	.LVL26:
 480              	.L33:
 139:Src/stm32f7xx_hal_msp.c ****   
 481              		.loc 1 139 0
ARM GAS  C:\Users\Patryk\AppData\Local\Temp\cc1IRkRa.s 			page 36


 482 000c 084A     		ldr	r2, .L34+4
 483 000e 536C     		ldr	r3, [r2, #68]
 484 0010 23F48063 		bic	r3, r3, #1024
 485 0014 5364     		str	r3, [r2, #68]
 149:Src/stm32f7xx_hal_msp.c ****                           |ARDUINO_A3_Pin);
 486              		.loc 1 149 0
 487 0016 4FF4F861 		mov	r1, #1984
 488 001a 0648     		ldr	r0, .L34+8
 489              	.LVL27:
 490 001c FFF7FEFF 		bl	HAL_GPIO_DeInit
 491              	.LVL28:
 152:Src/stm32f7xx_hal_msp.c **** 
 492              		.loc 1 152 0
 493 0020 0121     		movs	r1, #1
 494 0022 0548     		ldr	r0, .L34+12
 495 0024 FFF7FEFF 		bl	HAL_GPIO_DeInit
 496              	.LVL29:
 159:Src/stm32f7xx_hal_msp.c **** 
 497              		.loc 1 159 0
 498 0028 EFE7     		b	.L30
 499              	.L35:
 500 002a 00BF     		.align	2
 501              	.L34:
 502 002c 00220140 		.word	1073816064
 503 0030 00380240 		.word	1073887232
 504 0034 00140240 		.word	1073878016
 505 0038 00000240 		.word	1073872896
 506              		.cfi_endproc
 507              	.LFE140:
 509              		.section	.text.HAL_CRC_MspInit,"ax",%progbits
 510              		.align	1
 511              		.global	HAL_CRC_MspInit
 512              		.syntax unified
 513              		.thumb
 514              		.thumb_func
 515              		.fpu fpv5-sp-d16
 517              	HAL_CRC_MspInit:
 518              	.LFB141:
 162:Src/stm32f7xx_hal_msp.c **** 
 519              		.loc 1 162 0
 520              		.cfi_startproc
 521              		@ args = 0, pretend = 0, frame = 8
 522              		@ frame_needed = 0, uses_anonymous_args = 0
 523              		@ link register save eliminated.
 524              	.LVL30:
 164:Src/stm32f7xx_hal_msp.c ****   {
 525              		.loc 1 164 0
 526 0000 0268     		ldr	r2, [r0]
 527 0002 094B     		ldr	r3, .L43
 528 0004 9A42     		cmp	r2, r3
 529 0006 00D0     		beq	.L42
 530 0008 7047     		bx	lr
 531              	.L42:
 162:Src/stm32f7xx_hal_msp.c **** 
 532              		.loc 1 162 0
 533 000a 82B0     		sub	sp, sp, #8
 534              	.LCFI11:
ARM GAS  C:\Users\Patryk\AppData\Local\Temp\cc1IRkRa.s 			page 37


 535              		.cfi_def_cfa_offset 8
 536              	.LBB6:
 170:Src/stm32f7xx_hal_msp.c ****   /* USER CODE BEGIN CRC_MspInit 1 */
 537              		.loc 1 170 0
 538 000c 03F50063 		add	r3, r3, #2048
 539 0010 1A6B     		ldr	r2, [r3, #48]
 540 0012 42F48052 		orr	r2, r2, #4096
 541 0016 1A63     		str	r2, [r3, #48]
 542 0018 1B6B     		ldr	r3, [r3, #48]
 543 001a 03F48053 		and	r3, r3, #4096
 544 001e 0193     		str	r3, [sp, #4]
 545 0020 019B     		ldr	r3, [sp, #4]
 546              	.LBE6:
 176:Src/stm32f7xx_hal_msp.c **** 
 547              		.loc 1 176 0
 548 0022 02B0     		add	sp, sp, #8
 549              	.LCFI12:
 550              		.cfi_def_cfa_offset 0
 551              		@ sp needed
 552 0024 7047     		bx	lr
 553              	.L44:
 554 0026 00BF     		.align	2
 555              	.L43:
 556 0028 00300240 		.word	1073885184
 557              		.cfi_endproc
 558              	.LFE141:
 560              		.section	.text.HAL_CRC_MspDeInit,"ax",%progbits
 561              		.align	1
 562              		.global	HAL_CRC_MspDeInit
 563              		.syntax unified
 564              		.thumb
 565              		.thumb_func
 566              		.fpu fpv5-sp-d16
 568              	HAL_CRC_MspDeInit:
 569              	.LFB142:
 179:Src/stm32f7xx_hal_msp.c **** 
 570              		.loc 1 179 0
 571              		.cfi_startproc
 572              		@ args = 0, pretend = 0, frame = 0
 573              		@ frame_needed = 0, uses_anonymous_args = 0
 574              		@ link register save eliminated.
 575              	.LVL31:
 181:Src/stm32f7xx_hal_msp.c ****   {
 576              		.loc 1 181 0
 577 0000 0268     		ldr	r2, [r0]
 578 0002 054B     		ldr	r3, .L48
 579 0004 9A42     		cmp	r2, r3
 580 0006 00D0     		beq	.L47
 581              	.L45:
 193:Src/stm32f7xx_hal_msp.c **** 
 582              		.loc 1 193 0
 583 0008 7047     		bx	lr
 584              	.L47:
 187:Src/stm32f7xx_hal_msp.c ****   /* USER CODE BEGIN CRC_MspDeInit 1 */
 585              		.loc 1 187 0
 586 000a 044A     		ldr	r2, .L48+4
 587 000c 136B     		ldr	r3, [r2, #48]
ARM GAS  C:\Users\Patryk\AppData\Local\Temp\cc1IRkRa.s 			page 38


 588 000e 23F48053 		bic	r3, r3, #4096
 589 0012 1363     		str	r3, [r2, #48]
 193:Src/stm32f7xx_hal_msp.c **** 
 590              		.loc 1 193 0
 591 0014 F8E7     		b	.L45
 592              	.L49:
 593 0016 00BF     		.align	2
 594              	.L48:
 595 0018 00300240 		.word	1073885184
 596 001c 00380240 		.word	1073887232
 597              		.cfi_endproc
 598              	.LFE142:
 600              		.section	.text.HAL_DCMI_MspInit,"ax",%progbits
 601              		.align	1
 602              		.global	HAL_DCMI_MspInit
 603              		.syntax unified
 604              		.thumb
 605              		.thumb_func
 606              		.fpu fpv5-sp-d16
 608              	HAL_DCMI_MspInit:
 609              	.LFB143:
 196:Src/stm32f7xx_hal_msp.c **** 
 610              		.loc 1 196 0
 611              		.cfi_startproc
 612              		@ args = 0, pretend = 0, frame = 24
 613              		@ frame_needed = 0, uses_anonymous_args = 0
 614              	.LVL32:
 199:Src/stm32f7xx_hal_msp.c ****   {
 615              		.loc 1 199 0
 616 0000 0268     		ldr	r2, [r0]
 617 0002 244B     		ldr	r3, .L57
 618 0004 9A42     		cmp	r2, r3
 619 0006 00D0     		beq	.L56
 620 0008 7047     		bx	lr
 621              	.L56:
 196:Src/stm32f7xx_hal_msp.c **** 
 622              		.loc 1 196 0
 623 000a 70B5     		push	{r4, r5, r6, lr}
 624              	.LCFI13:
 625              		.cfi_def_cfa_offset 16
 626              		.cfi_offset 4, -16
 627              		.cfi_offset 5, -12
 628              		.cfi_offset 6, -8
 629              		.cfi_offset 14, -4
 630 000c 86B0     		sub	sp, sp, #24
 631              	.LCFI14:
 632              		.cfi_def_cfa_offset 40
 633              	.LBB7:
 205:Src/stm32f7xx_hal_msp.c ****   
 634              		.loc 1 205 0
 635 000e 224B     		ldr	r3, .L57+4
 636 0010 5A6B     		ldr	r2, [r3, #52]
 637 0012 42F00102 		orr	r2, r2, #1
 638 0016 5A63     		str	r2, [r3, #52]
 639 0018 5B6B     		ldr	r3, [r3, #52]
 640 001a 03F00103 		and	r3, r3, #1
 641 001e 0093     		str	r3, [sp]
ARM GAS  C:\Users\Patryk\AppData\Local\Temp\cc1IRkRa.s 			page 39


 642 0020 009B     		ldr	r3, [sp]
 643              	.LBE7:
 220:Src/stm32f7xx_hal_msp.c ****     GPIO_InitStruct.Mode = GPIO_MODE_AF_PP;
 644              		.loc 1 220 0
 645 0022 6023     		movs	r3, #96
 646 0024 0193     		str	r3, [sp, #4]
 221:Src/stm32f7xx_hal_msp.c ****     GPIO_InitStruct.Pull = GPIO_NOPULL;
 647              		.loc 1 221 0
 648 0026 0226     		movs	r6, #2
 649 0028 0296     		str	r6, [sp, #8]
 222:Src/stm32f7xx_hal_msp.c ****     GPIO_InitStruct.Speed = GPIO_SPEED_FREQ_LOW;
 650              		.loc 1 222 0
 651 002a 0024     		movs	r4, #0
 652 002c 0394     		str	r4, [sp, #12]
 223:Src/stm32f7xx_hal_msp.c ****     GPIO_InitStruct.Alternate = GPIO_AF13_DCMI;
 653              		.loc 1 223 0
 654 002e 0494     		str	r4, [sp, #16]
 224:Src/stm32f7xx_hal_msp.c ****     HAL_GPIO_Init(GPIOE, &GPIO_InitStruct);
 655              		.loc 1 224 0
 656 0030 0D25     		movs	r5, #13
 657 0032 0595     		str	r5, [sp, #20]
 225:Src/stm32f7xx_hal_msp.c **** 
 658              		.loc 1 225 0
 659 0034 01A9     		add	r1, sp, #4
 660 0036 1948     		ldr	r0, .L57+8
 661              	.LVL33:
 662 0038 FFF7FEFF 		bl	HAL_GPIO_Init
 663              	.LVL34:
 227:Src/stm32f7xx_hal_msp.c ****     GPIO_InitStruct.Mode = GPIO_MODE_AF_PP;
 664              		.loc 1 227 0
 665 003c 0823     		movs	r3, #8
 666 003e 0193     		str	r3, [sp, #4]
 228:Src/stm32f7xx_hal_msp.c ****     GPIO_InitStruct.Pull = GPIO_NOPULL;
 667              		.loc 1 228 0
 668 0040 0296     		str	r6, [sp, #8]
 229:Src/stm32f7xx_hal_msp.c ****     GPIO_InitStruct.Speed = GPIO_SPEED_FREQ_LOW;
 669              		.loc 1 229 0
 670 0042 0394     		str	r4, [sp, #12]
 230:Src/stm32f7xx_hal_msp.c ****     GPIO_InitStruct.Alternate = GPIO_AF13_DCMI;
 671              		.loc 1 230 0
 672 0044 0494     		str	r4, [sp, #16]
 231:Src/stm32f7xx_hal_msp.c ****     HAL_GPIO_Init(DCMI_D5_GPIO_Port, &GPIO_InitStruct);
 673              		.loc 1 231 0
 674 0046 0595     		str	r5, [sp, #20]
 232:Src/stm32f7xx_hal_msp.c **** 
 675              		.loc 1 232 0
 676 0048 01A9     		add	r1, sp, #4
 677 004a 1548     		ldr	r0, .L57+12
 678 004c FFF7FEFF 		bl	HAL_GPIO_Init
 679              	.LVL35:
 234:Src/stm32f7xx_hal_msp.c ****     GPIO_InitStruct.Mode = GPIO_MODE_AF_PP;
 680              		.loc 1 234 0
 681 0050 4FF40073 		mov	r3, #512
 682 0054 0193     		str	r3, [sp, #4]
 235:Src/stm32f7xx_hal_msp.c ****     GPIO_InitStruct.Pull = GPIO_NOPULL;
 683              		.loc 1 235 0
 684 0056 0296     		str	r6, [sp, #8]
ARM GAS  C:\Users\Patryk\AppData\Local\Temp\cc1IRkRa.s 			page 40


 236:Src/stm32f7xx_hal_msp.c ****     GPIO_InitStruct.Speed = GPIO_SPEED_FREQ_LOW;
 685              		.loc 1 236 0
 686 0058 0394     		str	r4, [sp, #12]
 237:Src/stm32f7xx_hal_msp.c ****     GPIO_InitStruct.Alternate = GPIO_AF13_DCMI;
 687              		.loc 1 237 0
 688 005a 0494     		str	r4, [sp, #16]
 238:Src/stm32f7xx_hal_msp.c ****     HAL_GPIO_Init(DCMI_VSYNC_GPIO_Port, &GPIO_InitStruct);
 689              		.loc 1 238 0
 690 005c 0595     		str	r5, [sp, #20]
 239:Src/stm32f7xx_hal_msp.c **** 
 691              		.loc 1 239 0
 692 005e 01A9     		add	r1, sp, #4
 693 0060 1048     		ldr	r0, .L57+16
 694 0062 FFF7FEFF 		bl	HAL_GPIO_Init
 695              	.LVL36:
 241:Src/stm32f7xx_hal_msp.c ****                           |DCMI_D1_Pin;
 696              		.loc 1 241 0
 697 0066 4FF4BC43 		mov	r3, #24064
 698 006a 0193     		str	r3, [sp, #4]
 243:Src/stm32f7xx_hal_msp.c ****     GPIO_InitStruct.Pull = GPIO_NOPULL;
 699              		.loc 1 243 0
 700 006c 0296     		str	r6, [sp, #8]
 244:Src/stm32f7xx_hal_msp.c ****     GPIO_InitStruct.Speed = GPIO_SPEED_FREQ_LOW;
 701              		.loc 1 244 0
 702 006e 0394     		str	r4, [sp, #12]
 245:Src/stm32f7xx_hal_msp.c ****     GPIO_InitStruct.Alternate = GPIO_AF13_DCMI;
 703              		.loc 1 245 0
 704 0070 0494     		str	r4, [sp, #16]
 246:Src/stm32f7xx_hal_msp.c ****     HAL_GPIO_Init(GPIOH, &GPIO_InitStruct);
 705              		.loc 1 246 0
 706 0072 0595     		str	r5, [sp, #20]
 247:Src/stm32f7xx_hal_msp.c **** 
 707              		.loc 1 247 0
 708 0074 01A9     		add	r1, sp, #4
 709 0076 0C48     		ldr	r0, .L57+20
 710 0078 FFF7FEFF 		bl	HAL_GPIO_Init
 711              	.LVL37:
 249:Src/stm32f7xx_hal_msp.c ****     GPIO_InitStruct.Mode = GPIO_MODE_AF_PP;
 712              		.loc 1 249 0
 713 007c 5023     		movs	r3, #80
 714 007e 0193     		str	r3, [sp, #4]
 250:Src/stm32f7xx_hal_msp.c ****     GPIO_InitStruct.Pull = GPIO_NOPULL;
 715              		.loc 1 250 0
 716 0080 0296     		str	r6, [sp, #8]
 251:Src/stm32f7xx_hal_msp.c ****     GPIO_InitStruct.Speed = GPIO_SPEED_FREQ_LOW;
 717              		.loc 1 251 0
 718 0082 0394     		str	r4, [sp, #12]
 252:Src/stm32f7xx_hal_msp.c ****     GPIO_InitStruct.Alternate = GPIO_AF13_DCMI;
 719              		.loc 1 252 0
 720 0084 0494     		str	r4, [sp, #16]
 253:Src/stm32f7xx_hal_msp.c ****     HAL_GPIO_Init(GPIOA, &GPIO_InitStruct);
 721              		.loc 1 253 0
 722 0086 0595     		str	r5, [sp, #20]
 254:Src/stm32f7xx_hal_msp.c **** 
 723              		.loc 1 254 0
 724 0088 01A9     		add	r1, sp, #4
 725 008a 0848     		ldr	r0, .L57+24
ARM GAS  C:\Users\Patryk\AppData\Local\Temp\cc1IRkRa.s 			page 41


 726 008c FFF7FEFF 		bl	HAL_GPIO_Init
 727              	.LVL38:
 261:Src/stm32f7xx_hal_msp.c **** 
 728              		.loc 1 261 0
 729 0090 06B0     		add	sp, sp, #24
 730              	.LCFI15:
 731              		.cfi_def_cfa_offset 16
 732              		@ sp needed
 733 0092 70BD     		pop	{r4, r5, r6, pc}
 734              	.L58:
 735              		.align	2
 736              	.L57:
 737 0094 00000550 		.word	1342504960
 738 0098 00380240 		.word	1073887232
 739 009c 00100240 		.word	1073876992
 740 00a0 000C0240 		.word	1073875968
 741 00a4 00180240 		.word	1073879040
 742 00a8 001C0240 		.word	1073880064
 743 00ac 00000240 		.word	1073872896
 744              		.cfi_endproc
 745              	.LFE143:
 747              		.section	.text.HAL_DCMI_MspDeInit,"ax",%progbits
 748              		.align	1
 749              		.global	HAL_DCMI_MspDeInit
 750              		.syntax unified
 751              		.thumb
 752              		.thumb_func
 753              		.fpu fpv5-sp-d16
 755              	HAL_DCMI_MspDeInit:
 756              	.LFB144:
 264:Src/stm32f7xx_hal_msp.c **** 
 757              		.loc 1 264 0
 758              		.cfi_startproc
 759              		@ args = 0, pretend = 0, frame = 0
 760              		@ frame_needed = 0, uses_anonymous_args = 0
 761              	.LVL39:
 762 0000 08B5     		push	{r3, lr}
 763              	.LCFI16:
 764              		.cfi_def_cfa_offset 8
 765              		.cfi_offset 3, -8
 766              		.cfi_offset 14, -4
 266:Src/stm32f7xx_hal_msp.c ****   {
 767              		.loc 1 266 0
 768 0002 0268     		ldr	r2, [r0]
 769 0004 0F4B     		ldr	r3, .L63
 770 0006 9A42     		cmp	r2, r3
 771 0008 00D0     		beq	.L62
 772              	.LVL40:
 773              	.L59:
 303:Src/stm32f7xx_hal_msp.c **** 
 774              		.loc 1 303 0
 775 000a 08BD     		pop	{r3, pc}
 776              	.LVL41:
 777              	.L62:
 272:Src/stm32f7xx_hal_msp.c ****   
 778              		.loc 1 272 0
 779 000c 0E4A     		ldr	r2, .L63+4
ARM GAS  C:\Users\Patryk\AppData\Local\Temp\cc1IRkRa.s 			page 42


 780 000e 536B     		ldr	r3, [r2, #52]
 781 0010 23F00103 		bic	r3, r3, #1
 782 0014 5363     		str	r3, [r2, #52]
 287:Src/stm32f7xx_hal_msp.c **** 
 783              		.loc 1 287 0
 784 0016 6021     		movs	r1, #96
 785 0018 0C48     		ldr	r0, .L63+8
 786              	.LVL42:
 787 001a FFF7FEFF 		bl	HAL_GPIO_DeInit
 788              	.LVL43:
 289:Src/stm32f7xx_hal_msp.c **** 
 789              		.loc 1 289 0
 790 001e 0821     		movs	r1, #8
 791 0020 0B48     		ldr	r0, .L63+12
 792 0022 FFF7FEFF 		bl	HAL_GPIO_DeInit
 793              	.LVL44:
 291:Src/stm32f7xx_hal_msp.c **** 
 794              		.loc 1 291 0
 795 0026 4FF40071 		mov	r1, #512
 796 002a 0A48     		ldr	r0, .L63+16
 797 002c FFF7FEFF 		bl	HAL_GPIO_DeInit
 798              	.LVL45:
 293:Src/stm32f7xx_hal_msp.c ****                           |DCMI_D1_Pin);
 799              		.loc 1 293 0
 800 0030 4FF4BC41 		mov	r1, #24064
 801 0034 0848     		ldr	r0, .L63+20
 802 0036 FFF7FEFF 		bl	HAL_GPIO_DeInit
 803              	.LVL46:
 296:Src/stm32f7xx_hal_msp.c **** 
 804              		.loc 1 296 0
 805 003a 5021     		movs	r1, #80
 806 003c 0748     		ldr	r0, .L63+24
 807 003e FFF7FEFF 		bl	HAL_GPIO_DeInit
 808              	.LVL47:
 303:Src/stm32f7xx_hal_msp.c **** 
 809              		.loc 1 303 0
 810 0042 E2E7     		b	.L59
 811              	.L64:
 812              		.align	2
 813              	.L63:
 814 0044 00000550 		.word	1342504960
 815 0048 00380240 		.word	1073887232
 816 004c 00100240 		.word	1073876992
 817 0050 000C0240 		.word	1073875968
 818 0054 00180240 		.word	1073879040
 819 0058 001C0240 		.word	1073880064
 820 005c 00000240 		.word	1073872896
 821              		.cfi_endproc
 822              	.LFE144:
 824              		.section	.text.HAL_DMA2D_MspInit,"ax",%progbits
 825              		.align	1
 826              		.global	HAL_DMA2D_MspInit
 827              		.syntax unified
 828              		.thumb
 829              		.thumb_func
 830              		.fpu fpv5-sp-d16
 832              	HAL_DMA2D_MspInit:
ARM GAS  C:\Users\Patryk\AppData\Local\Temp\cc1IRkRa.s 			page 43


 833              	.LFB145:
 306:Src/stm32f7xx_hal_msp.c **** 
 834              		.loc 1 306 0
 835              		.cfi_startproc
 836              		@ args = 0, pretend = 0, frame = 8
 837              		@ frame_needed = 0, uses_anonymous_args = 0
 838              	.LVL48:
 308:Src/stm32f7xx_hal_msp.c ****   {
 839              		.loc 1 308 0
 840 0000 0268     		ldr	r2, [r0]
 841 0002 0E4B     		ldr	r3, .L72
 842 0004 9A42     		cmp	r2, r3
 843 0006 00D0     		beq	.L71
 844 0008 7047     		bx	lr
 845              	.L71:
 306:Src/stm32f7xx_hal_msp.c **** 
 846              		.loc 1 306 0
 847 000a 00B5     		push	{lr}
 848              	.LCFI17:
 849              		.cfi_def_cfa_offset 4
 850              		.cfi_offset 14, -4
 851 000c 83B0     		sub	sp, sp, #12
 852              	.LCFI18:
 853              		.cfi_def_cfa_offset 16
 854              	.LBB8:
 314:Src/stm32f7xx_hal_msp.c ****     /* DMA2D interrupt Init */
 855              		.loc 1 314 0
 856 000e A3F5F043 		sub	r3, r3, #30720
 857 0012 1A6B     		ldr	r2, [r3, #48]
 858 0014 42F40002 		orr	r2, r2, #8388608
 859 0018 1A63     		str	r2, [r3, #48]
 860 001a 1B6B     		ldr	r3, [r3, #48]
 861 001c 03F40003 		and	r3, r3, #8388608
 862 0020 0193     		str	r3, [sp, #4]
 863 0022 019B     		ldr	r3, [sp, #4]
 864              	.LBE8:
 316:Src/stm32f7xx_hal_msp.c ****     HAL_NVIC_EnableIRQ(DMA2D_IRQn);
 865              		.loc 1 316 0
 866 0024 0022     		movs	r2, #0
 867 0026 0521     		movs	r1, #5
 868 0028 5A20     		movs	r0, #90
 869              	.LVL49:
 870 002a FFF7FEFF 		bl	HAL_NVIC_SetPriority
 871              	.LVL50:
 317:Src/stm32f7xx_hal_msp.c ****   /* USER CODE BEGIN DMA2D_MspInit 1 */
 872              		.loc 1 317 0
 873 002e 5A20     		movs	r0, #90
 874 0030 FFF7FEFF 		bl	HAL_NVIC_EnableIRQ
 875              	.LVL51:
 323:Src/stm32f7xx_hal_msp.c **** 
 876              		.loc 1 323 0
 877 0034 03B0     		add	sp, sp, #12
 878              	.LCFI19:
 879              		.cfi_def_cfa_offset 4
 880              		@ sp needed
 881 0036 5DF804FB 		ldr	pc, [sp], #4
 882              	.L73:
ARM GAS  C:\Users\Patryk\AppData\Local\Temp\cc1IRkRa.s 			page 44


 883 003a 00BF     		.align	2
 884              	.L72:
 885 003c 00B00240 		.word	1073917952
 886              		.cfi_endproc
 887              	.LFE145:
 889              		.section	.text.HAL_DMA2D_MspDeInit,"ax",%progbits
 890              		.align	1
 891              		.global	HAL_DMA2D_MspDeInit
 892              		.syntax unified
 893              		.thumb
 894              		.thumb_func
 895              		.fpu fpv5-sp-d16
 897              	HAL_DMA2D_MspDeInit:
 898              	.LFB146:
 326:Src/stm32f7xx_hal_msp.c **** 
 899              		.loc 1 326 0
 900              		.cfi_startproc
 901              		@ args = 0, pretend = 0, frame = 0
 902              		@ frame_needed = 0, uses_anonymous_args = 0
 903              	.LVL52:
 904 0000 08B5     		push	{r3, lr}
 905              	.LCFI20:
 906              		.cfi_def_cfa_offset 8
 907              		.cfi_offset 3, -8
 908              		.cfi_offset 14, -4
 328:Src/stm32f7xx_hal_msp.c ****   {
 909              		.loc 1 328 0
 910 0002 0268     		ldr	r2, [r0]
 911 0004 064B     		ldr	r3, .L78
 912 0006 9A42     		cmp	r2, r3
 913 0008 00D0     		beq	.L77
 914              	.LVL53:
 915              	.L74:
 343:Src/stm32f7xx_hal_msp.c **** 
 916              		.loc 1 343 0
 917 000a 08BD     		pop	{r3, pc}
 918              	.LVL54:
 919              	.L77:
 334:Src/stm32f7xx_hal_msp.c **** 
 920              		.loc 1 334 0
 921 000c 054A     		ldr	r2, .L78+4
 922 000e 136B     		ldr	r3, [r2, #48]
 923 0010 23F40003 		bic	r3, r3, #8388608
 924 0014 1363     		str	r3, [r2, #48]
 337:Src/stm32f7xx_hal_msp.c ****   /* USER CODE BEGIN DMA2D_MspDeInit 1 */
 925              		.loc 1 337 0
 926 0016 5A20     		movs	r0, #90
 927              	.LVL55:
 928 0018 FFF7FEFF 		bl	HAL_NVIC_DisableIRQ
 929              	.LVL56:
 343:Src/stm32f7xx_hal_msp.c **** 
 930              		.loc 1 343 0
 931 001c F5E7     		b	.L74
 932              	.L79:
 933 001e 00BF     		.align	2
 934              	.L78:
 935 0020 00B00240 		.word	1073917952
ARM GAS  C:\Users\Patryk\AppData\Local\Temp\cc1IRkRa.s 			page 45


 936 0024 00380240 		.word	1073887232
 937              		.cfi_endproc
 938              	.LFE146:
 940              		.section	.text.HAL_I2C_MspInit,"ax",%progbits
 941              		.align	1
 942              		.global	HAL_I2C_MspInit
 943              		.syntax unified
 944              		.thumb
 945              		.thumb_func
 946              		.fpu fpv5-sp-d16
 948              	HAL_I2C_MspInit:
 949              	.LFB147:
 346:Src/stm32f7xx_hal_msp.c **** 
 950              		.loc 1 346 0
 951              		.cfi_startproc
 952              		@ args = 0, pretend = 0, frame = 32
 953              		@ frame_needed = 0, uses_anonymous_args = 0
 954              	.LVL57:
 955 0000 00B5     		push	{lr}
 956              	.LCFI21:
 957              		.cfi_def_cfa_offset 4
 958              		.cfi_offset 14, -4
 959 0002 89B0     		sub	sp, sp, #36
 960              	.LCFI22:
 961              		.cfi_def_cfa_offset 40
 349:Src/stm32f7xx_hal_msp.c ****   {
 962              		.loc 1 349 0
 963 0004 0368     		ldr	r3, [r0]
 964 0006 1E4A     		ldr	r2, .L86
 965 0008 9342     		cmp	r3, r2
 966 000a 05D0     		beq	.L84
 372:Src/stm32f7xx_hal_msp.c ****   {
 967              		.loc 1 372 0
 968 000c 1D4A     		ldr	r2, .L86+4
 969 000e 9342     		cmp	r3, r2
 970 0010 1CD0     		beq	.L85
 971              	.LVL58:
 972              	.L80:
 396:Src/stm32f7xx_hal_msp.c **** 
 973              		.loc 1 396 0
 974 0012 09B0     		add	sp, sp, #36
 975              	.LCFI23:
 976              		.cfi_remember_state
 977              		.cfi_def_cfa_offset 4
 978              		@ sp needed
 979 0014 5DF804FB 		ldr	pc, [sp], #4
 980              	.LVL59:
 981              	.L84:
 982              	.LCFI24:
 983              		.cfi_restore_state
 359:Src/stm32f7xx_hal_msp.c ****     GPIO_InitStruct.Mode = GPIO_MODE_AF_OD;
 984              		.loc 1 359 0
 985 0018 4FF44073 		mov	r3, #768
 986 001c 0393     		str	r3, [sp, #12]
 360:Src/stm32f7xx_hal_msp.c ****     GPIO_InitStruct.Pull = GPIO_PULLUP;
 987              		.loc 1 360 0
 988 001e 1223     		movs	r3, #18
ARM GAS  C:\Users\Patryk\AppData\Local\Temp\cc1IRkRa.s 			page 46


 989 0020 0493     		str	r3, [sp, #16]
 361:Src/stm32f7xx_hal_msp.c ****     GPIO_InitStruct.Speed = GPIO_SPEED_FREQ_LOW;
 990              		.loc 1 361 0
 991 0022 0123     		movs	r3, #1
 992 0024 0593     		str	r3, [sp, #20]
 362:Src/stm32f7xx_hal_msp.c ****     GPIO_InitStruct.Alternate = GPIO_AF4_I2C1;
 993              		.loc 1 362 0
 994 0026 0023     		movs	r3, #0
 995 0028 0693     		str	r3, [sp, #24]
 363:Src/stm32f7xx_hal_msp.c ****     HAL_GPIO_Init(GPIOB, &GPIO_InitStruct);
 996              		.loc 1 363 0
 997 002a 0423     		movs	r3, #4
 998 002c 0793     		str	r3, [sp, #28]
 364:Src/stm32f7xx_hal_msp.c **** 
 999              		.loc 1 364 0
 1000 002e 03A9     		add	r1, sp, #12
 1001 0030 1548     		ldr	r0, .L86+8
 1002              	.LVL60:
 1003 0032 FFF7FEFF 		bl	HAL_GPIO_Init
 1004              	.LVL61:
 1005              	.LBB9:
 367:Src/stm32f7xx_hal_msp.c ****   /* USER CODE BEGIN I2C1_MspInit 1 */
 1006              		.loc 1 367 0
 1007 0036 154B     		ldr	r3, .L86+12
 1008 0038 1A6C     		ldr	r2, [r3, #64]
 1009 003a 42F40012 		orr	r2, r2, #2097152
 1010 003e 1A64     		str	r2, [r3, #64]
 1011 0040 1B6C     		ldr	r3, [r3, #64]
 1012 0042 03F40013 		and	r3, r3, #2097152
 1013 0046 0193     		str	r3, [sp, #4]
 1014 0048 019B     		ldr	r3, [sp, #4]
 1015              	.LBE9:
 1016 004a E2E7     		b	.L80
 1017              	.LVL62:
 1018              	.L85:
 382:Src/stm32f7xx_hal_msp.c ****     GPIO_InitStruct.Mode = GPIO_MODE_AF_OD;
 1019              		.loc 1 382 0
 1020 004c 4FF4C073 		mov	r3, #384
 1021 0050 0393     		str	r3, [sp, #12]
 383:Src/stm32f7xx_hal_msp.c ****     GPIO_InitStruct.Pull = GPIO_PULLUP;
 1022              		.loc 1 383 0
 1023 0052 1223     		movs	r3, #18
 1024 0054 0493     		str	r3, [sp, #16]
 384:Src/stm32f7xx_hal_msp.c ****     GPIO_InitStruct.Speed = GPIO_SPEED_FREQ_VERY_HIGH;
 1025              		.loc 1 384 0
 1026 0056 0123     		movs	r3, #1
 1027 0058 0593     		str	r3, [sp, #20]
 385:Src/stm32f7xx_hal_msp.c ****     GPIO_InitStruct.Alternate = GPIO_AF4_I2C3;
 1028              		.loc 1 385 0
 1029 005a 0323     		movs	r3, #3
 1030 005c 0693     		str	r3, [sp, #24]
 386:Src/stm32f7xx_hal_msp.c ****     HAL_GPIO_Init(GPIOH, &GPIO_InitStruct);
 1031              		.loc 1 386 0
 1032 005e 0423     		movs	r3, #4
 1033 0060 0793     		str	r3, [sp, #28]
 387:Src/stm32f7xx_hal_msp.c **** 
 1034              		.loc 1 387 0
ARM GAS  C:\Users\Patryk\AppData\Local\Temp\cc1IRkRa.s 			page 47


 1035 0062 03A9     		add	r1, sp, #12
 1036 0064 0A48     		ldr	r0, .L86+16
 1037              	.LVL63:
 1038 0066 FFF7FEFF 		bl	HAL_GPIO_Init
 1039              	.LVL64:
 1040              	.LBB10:
 390:Src/stm32f7xx_hal_msp.c ****   /* USER CODE BEGIN I2C3_MspInit 1 */
 1041              		.loc 1 390 0
 1042 006a 084B     		ldr	r3, .L86+12
 1043 006c 1A6C     		ldr	r2, [r3, #64]
 1044 006e 42F40002 		orr	r2, r2, #8388608
 1045 0072 1A64     		str	r2, [r3, #64]
 1046 0074 1B6C     		ldr	r3, [r3, #64]
 1047 0076 03F40003 		and	r3, r3, #8388608
 1048 007a 0293     		str	r3, [sp, #8]
 1049 007c 029B     		ldr	r3, [sp, #8]
 1050              	.LBE10:
 396:Src/stm32f7xx_hal_msp.c **** 
 1051              		.loc 1 396 0
 1052 007e C8E7     		b	.L80
 1053              	.L87:
 1054              		.align	2
 1055              	.L86:
 1056 0080 00540040 		.word	1073763328
 1057 0084 005C0040 		.word	1073765376
 1058 0088 00040240 		.word	1073873920
 1059 008c 00380240 		.word	1073887232
 1060 0090 001C0240 		.word	1073880064
 1061              		.cfi_endproc
 1062              	.LFE147:
 1064              		.section	.text.HAL_I2C_MspDeInit,"ax",%progbits
 1065              		.align	1
 1066              		.global	HAL_I2C_MspDeInit
 1067              		.syntax unified
 1068              		.thumb
 1069              		.thumb_func
 1070              		.fpu fpv5-sp-d16
 1072              	HAL_I2C_MspDeInit:
 1073              	.LFB148:
 399:Src/stm32f7xx_hal_msp.c **** 
 1074              		.loc 1 399 0
 1075              		.cfi_startproc
 1076              		@ args = 0, pretend = 0, frame = 0
 1077              		@ frame_needed = 0, uses_anonymous_args = 0
 1078              	.LVL65:
 1079 0000 08B5     		push	{r3, lr}
 1080              	.LCFI25:
 1081              		.cfi_def_cfa_offset 8
 1082              		.cfi_offset 3, -8
 1083              		.cfi_offset 14, -4
 401:Src/stm32f7xx_hal_msp.c ****   {
 1084              		.loc 1 401 0
 1085 0002 0368     		ldr	r3, [r0]
 1086 0004 0F4A     		ldr	r2, .L94
 1087 0006 9342     		cmp	r3, r2
 1088 0008 03D0     		beq	.L92
 419:Src/stm32f7xx_hal_msp.c ****   {
ARM GAS  C:\Users\Patryk\AppData\Local\Temp\cc1IRkRa.s 			page 48


 1089              		.loc 1 419 0
 1090 000a 0F4A     		ldr	r2, .L94+4
 1091 000c 9342     		cmp	r3, r2
 1092 000e 0CD0     		beq	.L93
 1093              	.LVL66:
 1094              	.L88:
 438:Src/stm32f7xx_hal_msp.c **** 
 1095              		.loc 1 438 0
 1096 0010 08BD     		pop	{r3, pc}
 1097              	.LVL67:
 1098              	.L92:
 407:Src/stm32f7xx_hal_msp.c ****   
 1099              		.loc 1 407 0
 1100 0012 02F5F232 		add	r2, r2, #123904
 1101 0016 136C     		ldr	r3, [r2, #64]
 1102 0018 23F40013 		bic	r3, r3, #2097152
 1103 001c 1364     		str	r3, [r2, #64]
 413:Src/stm32f7xx_hal_msp.c **** 
 1104              		.loc 1 413 0
 1105 001e 4FF44071 		mov	r1, #768
 1106 0022 0A48     		ldr	r0, .L94+8
 1107              	.LVL68:
 1108 0024 FFF7FEFF 		bl	HAL_GPIO_DeInit
 1109              	.LVL69:
 1110 0028 F2E7     		b	.L88
 1111              	.LVL70:
 1112              	.L93:
 425:Src/stm32f7xx_hal_msp.c ****   
 1113              		.loc 1 425 0
 1114 002a 02F5EE32 		add	r2, r2, #121856
 1115 002e 136C     		ldr	r3, [r2, #64]
 1116 0030 23F40003 		bic	r3, r3, #8388608
 1117 0034 1364     		str	r3, [r2, #64]
 431:Src/stm32f7xx_hal_msp.c **** 
 1118              		.loc 1 431 0
 1119 0036 4FF4C071 		mov	r1, #384
 1120 003a 0548     		ldr	r0, .L94+12
 1121              	.LVL71:
 1122 003c FFF7FEFF 		bl	HAL_GPIO_DeInit
 1123              	.LVL72:
 438:Src/stm32f7xx_hal_msp.c **** 
 1124              		.loc 1 438 0
 1125 0040 E6E7     		b	.L88
 1126              	.L95:
 1127 0042 00BF     		.align	2
 1128              	.L94:
 1129 0044 00540040 		.word	1073763328
 1130 0048 005C0040 		.word	1073765376
 1131 004c 00040240 		.word	1073873920
 1132 0050 001C0240 		.word	1073880064
 1133              		.cfi_endproc
 1134              	.LFE148:
 1136              		.section	.text.HAL_LTDC_MspInit,"ax",%progbits
 1137              		.align	1
 1138              		.global	HAL_LTDC_MspInit
 1139              		.syntax unified
 1140              		.thumb
ARM GAS  C:\Users\Patryk\AppData\Local\Temp\cc1IRkRa.s 			page 49


 1141              		.thumb_func
 1142              		.fpu fpv5-sp-d16
 1144              	HAL_LTDC_MspInit:
 1145              	.LFB149:
 441:Src/stm32f7xx_hal_msp.c **** 
 1146              		.loc 1 441 0
 1147              		.cfi_startproc
 1148              		@ args = 0, pretend = 0, frame = 24
 1149              		@ frame_needed = 0, uses_anonymous_args = 0
 1150              	.LVL73:
 444:Src/stm32f7xx_hal_msp.c ****   {
 1151              		.loc 1 444 0
 1152 0000 0268     		ldr	r2, [r0]
 1153 0002 2A4B     		ldr	r3, .L103
 1154 0004 9A42     		cmp	r2, r3
 1155 0006 00D0     		beq	.L102
 1156 0008 7047     		bx	lr
 1157              	.L102:
 441:Src/stm32f7xx_hal_msp.c **** 
 1158              		.loc 1 441 0
 1159 000a 70B5     		push	{r4, r5, r6, lr}
 1160              	.LCFI26:
 1161              		.cfi_def_cfa_offset 16
 1162              		.cfi_offset 4, -16
 1163              		.cfi_offset 5, -12
 1164              		.cfi_offset 6, -8
 1165              		.cfi_offset 14, -4
 1166 000c 86B0     		sub	sp, sp, #24
 1167              	.LCFI27:
 1168              		.cfi_def_cfa_offset 40
 1169              	.LBB11:
 450:Src/stm32f7xx_hal_msp.c ****   
 1170              		.loc 1 450 0
 1171 000e 03F55043 		add	r3, r3, #53248
 1172 0012 5A6C     		ldr	r2, [r3, #68]
 1173 0014 42F08062 		orr	r2, r2, #67108864
 1174 0018 5A64     		str	r2, [r3, #68]
 1175 001a 5B6C     		ldr	r3, [r3, #68]
 1176 001c 03F08063 		and	r3, r3, #67108864
 1177 0020 0093     		str	r3, [sp]
 1178 0022 009B     		ldr	r3, [sp]
 1179              	.LBE11:
 482:Src/stm32f7xx_hal_msp.c ****     GPIO_InitStruct.Mode = GPIO_MODE_AF_PP;
 1180              		.loc 1 482 0
 1181 0024 1023     		movs	r3, #16
 1182 0026 0193     		str	r3, [sp, #4]
 483:Src/stm32f7xx_hal_msp.c ****     GPIO_InitStruct.Pull = GPIO_NOPULL;
 1183              		.loc 1 483 0
 1184 0028 0225     		movs	r5, #2
 1185 002a 0295     		str	r5, [sp, #8]
 484:Src/stm32f7xx_hal_msp.c ****     GPIO_InitStruct.Speed = GPIO_SPEED_FREQ_LOW;
 1186              		.loc 1 484 0
 1187 002c 0024     		movs	r4, #0
 1188 002e 0394     		str	r4, [sp, #12]
 485:Src/stm32f7xx_hal_msp.c ****     GPIO_InitStruct.Alternate = GPIO_AF14_LTDC;
 1189              		.loc 1 485 0
 1190 0030 0494     		str	r4, [sp, #16]
ARM GAS  C:\Users\Patryk\AppData\Local\Temp\cc1IRkRa.s 			page 50


 486:Src/stm32f7xx_hal_msp.c ****     HAL_GPIO_Init(LCD_B0_GPIO_Port, &GPIO_InitStruct);
 1191              		.loc 1 486 0
 1192 0032 0E26     		movs	r6, #14
 1193 0034 0596     		str	r6, [sp, #20]
 487:Src/stm32f7xx_hal_msp.c **** 
 1194              		.loc 1 487 0
 1195 0036 01A9     		add	r1, sp, #4
 1196 0038 1D48     		ldr	r0, .L103+4
 1197              	.LVL74:
 1198 003a FFF7FEFF 		bl	HAL_GPIO_Init
 1199              	.LVL75:
 489:Src/stm32f7xx_hal_msp.c ****                           |LCD_G1_Pin|LCD_G3_Pin|LCD_G0_Pin|LCD_G2_Pin 
 1200              		.loc 1 489 0
 1201 003e 4EF6FF73 		movw	r3, #61439
 1202 0042 0193     		str	r3, [sp, #4]
 493:Src/stm32f7xx_hal_msp.c ****     GPIO_InitStruct.Pull = GPIO_NOPULL;
 1203              		.loc 1 493 0
 1204 0044 0295     		str	r5, [sp, #8]
 494:Src/stm32f7xx_hal_msp.c ****     GPIO_InitStruct.Speed = GPIO_SPEED_FREQ_LOW;
 1205              		.loc 1 494 0
 1206 0046 0394     		str	r4, [sp, #12]
 495:Src/stm32f7xx_hal_msp.c ****     GPIO_InitStruct.Alternate = GPIO_AF14_LTDC;
 1207              		.loc 1 495 0
 1208 0048 0494     		str	r4, [sp, #16]
 496:Src/stm32f7xx_hal_msp.c ****     HAL_GPIO_Init(GPIOJ, &GPIO_InitStruct);
 1209              		.loc 1 496 0
 1210 004a 0596     		str	r6, [sp, #20]
 497:Src/stm32f7xx_hal_msp.c **** 
 1211              		.loc 1 497 0
 1212 004c 01A9     		add	r1, sp, #4
 1213 004e 1948     		ldr	r0, .L103+8
 1214 0050 FFF7FEFF 		bl	HAL_GPIO_Init
 1215              	.LVL76:
 499:Src/stm32f7xx_hal_msp.c ****                           |LCD_G6_Pin|LCD_G7_Pin|LCD_G5_Pin;
 1216              		.loc 1 499 0
 1217 0054 F723     		movs	r3, #247
 1218 0056 0193     		str	r3, [sp, #4]
 501:Src/stm32f7xx_hal_msp.c ****     GPIO_InitStruct.Pull = GPIO_NOPULL;
 1219              		.loc 1 501 0
 1220 0058 0295     		str	r5, [sp, #8]
 502:Src/stm32f7xx_hal_msp.c ****     GPIO_InitStruct.Speed = GPIO_SPEED_FREQ_LOW;
 1221              		.loc 1 502 0
 1222 005a 0394     		str	r4, [sp, #12]
 503:Src/stm32f7xx_hal_msp.c ****     GPIO_InitStruct.Alternate = GPIO_AF14_LTDC;
 1223              		.loc 1 503 0
 1224 005c 0494     		str	r4, [sp, #16]
 504:Src/stm32f7xx_hal_msp.c ****     HAL_GPIO_Init(GPIOK, &GPIO_InitStruct);
 1225              		.loc 1 504 0
 1226 005e 0596     		str	r6, [sp, #20]
 505:Src/stm32f7xx_hal_msp.c **** 
 1227              		.loc 1 505 0
 1228 0060 01A9     		add	r1, sp, #4
 1229 0062 1548     		ldr	r0, .L103+12
 1230 0064 FFF7FEFF 		bl	HAL_GPIO_Init
 1231              	.LVL77:
 507:Src/stm32f7xx_hal_msp.c ****     GPIO_InitStruct.Mode = GPIO_MODE_AF_PP;
 1232              		.loc 1 507 0
ARM GAS  C:\Users\Patryk\AppData\Local\Temp\cc1IRkRa.s 			page 51


 1233 0068 4FF48053 		mov	r3, #4096
 1234 006c 0193     		str	r3, [sp, #4]
 508:Src/stm32f7xx_hal_msp.c ****     GPIO_InitStruct.Pull = GPIO_NOPULL;
 1235              		.loc 1 508 0
 1236 006e 0295     		str	r5, [sp, #8]
 509:Src/stm32f7xx_hal_msp.c ****     GPIO_InitStruct.Speed = GPIO_SPEED_FREQ_LOW;
 1237              		.loc 1 509 0
 1238 0070 0394     		str	r4, [sp, #12]
 510:Src/stm32f7xx_hal_msp.c ****     GPIO_InitStruct.Alternate = GPIO_AF9_LTDC;
 1239              		.loc 1 510 0
 1240 0072 0494     		str	r4, [sp, #16]
 511:Src/stm32f7xx_hal_msp.c ****     HAL_GPIO_Init(LCD_B4_GPIO_Port, &GPIO_InitStruct);
 1241              		.loc 1 511 0
 1242 0074 0923     		movs	r3, #9
 1243 0076 0593     		str	r3, [sp, #20]
 512:Src/stm32f7xx_hal_msp.c **** 
 1244              		.loc 1 512 0
 1245 0078 01A9     		add	r1, sp, #4
 1246 007a 1048     		ldr	r0, .L103+16
 1247 007c FFF7FEFF 		bl	HAL_GPIO_Init
 1248              	.LVL78:
 514:Src/stm32f7xx_hal_msp.c ****     GPIO_InitStruct.Mode = GPIO_MODE_AF_PP;
 1249              		.loc 1 514 0
 1250 0080 4FF44643 		mov	r3, #50688
 1251 0084 0193     		str	r3, [sp, #4]
 515:Src/stm32f7xx_hal_msp.c ****     GPIO_InitStruct.Pull = GPIO_NOPULL;
 1252              		.loc 1 515 0
 1253 0086 0295     		str	r5, [sp, #8]
 516:Src/stm32f7xx_hal_msp.c ****     GPIO_InitStruct.Speed = GPIO_SPEED_FREQ_LOW;
 1254              		.loc 1 516 0
 1255 0088 0394     		str	r4, [sp, #12]
 517:Src/stm32f7xx_hal_msp.c ****     GPIO_InitStruct.Alternate = GPIO_AF14_LTDC;
 1256              		.loc 1 517 0
 1257 008a 0494     		str	r4, [sp, #16]
 518:Src/stm32f7xx_hal_msp.c ****     HAL_GPIO_Init(GPIOI, &GPIO_InitStruct);
 1258              		.loc 1 518 0
 1259 008c 0596     		str	r6, [sp, #20]
 519:Src/stm32f7xx_hal_msp.c **** 
 1260              		.loc 1 519 0
 1261 008e 01A9     		add	r1, sp, #4
 1262 0090 0B48     		ldr	r0, .L103+20
 1263 0092 FFF7FEFF 		bl	HAL_GPIO_Init
 1264              	.LVL79:
 522:Src/stm32f7xx_hal_msp.c ****     HAL_NVIC_EnableIRQ(LTDC_IRQn);
 1265              		.loc 1 522 0
 1266 0096 2246     		mov	r2, r4
 1267 0098 0521     		movs	r1, #5
 1268 009a 5820     		movs	r0, #88
 1269 009c FFF7FEFF 		bl	HAL_NVIC_SetPriority
 1270              	.LVL80:
 523:Src/stm32f7xx_hal_msp.c ****   /* USER CODE BEGIN LTDC_MspInit 1 */
 1271              		.loc 1 523 0
 1272 00a0 5820     		movs	r0, #88
 1273 00a2 FFF7FEFF 		bl	HAL_NVIC_EnableIRQ
 1274              	.LVL81:
 529:Src/stm32f7xx_hal_msp.c **** 
 1275              		.loc 1 529 0
ARM GAS  C:\Users\Patryk\AppData\Local\Temp\cc1IRkRa.s 			page 52


 1276 00a6 06B0     		add	sp, sp, #24
 1277              	.LCFI28:
 1278              		.cfi_def_cfa_offset 16
 1279              		@ sp needed
 1280 00a8 70BD     		pop	{r4, r5, r6, pc}
 1281              	.L104:
 1282 00aa 00BF     		.align	2
 1283              	.L103:
 1284 00ac 00680140 		.word	1073833984
 1285 00b0 00100240 		.word	1073876992
 1286 00b4 00240240 		.word	1073882112
 1287 00b8 00280240 		.word	1073883136
 1288 00bc 00180240 		.word	1073879040
 1289 00c0 00200240 		.word	1073881088
 1290              		.cfi_endproc
 1291              	.LFE149:
 1293              		.section	.text.HAL_LTDC_MspDeInit,"ax",%progbits
 1294              		.align	1
 1295              		.global	HAL_LTDC_MspDeInit
 1296              		.syntax unified
 1297              		.thumb
 1298              		.thumb_func
 1299              		.fpu fpv5-sp-d16
 1301              	HAL_LTDC_MspDeInit:
 1302              	.LFB150:
 532:Src/stm32f7xx_hal_msp.c **** 
 1303              		.loc 1 532 0
 1304              		.cfi_startproc
 1305              		@ args = 0, pretend = 0, frame = 0
 1306              		@ frame_needed = 0, uses_anonymous_args = 0
 1307              	.LVL82:
 1308 0000 08B5     		push	{r3, lr}
 1309              	.LCFI29:
 1310              		.cfi_def_cfa_offset 8
 1311              		.cfi_offset 3, -8
 1312              		.cfi_offset 14, -4
 534:Src/stm32f7xx_hal_msp.c ****   {
 1313              		.loc 1 534 0
 1314 0002 0268     		ldr	r2, [r0]
 1315 0004 114B     		ldr	r3, .L109
 1316 0006 9A42     		cmp	r2, r3
 1317 0008 00D0     		beq	.L108
 1318              	.LVL83:
 1319              	.L105:
 593:Src/stm32f7xx_hal_msp.c **** 
 1320              		.loc 1 593 0
 1321 000a 08BD     		pop	{r3, pc}
 1322              	.LVL84:
 1323              	.L108:
 540:Src/stm32f7xx_hal_msp.c ****   
 1324              		.loc 1 540 0
 1325 000c 104A     		ldr	r2, .L109+4
 1326 000e 536C     		ldr	r3, [r2, #68]
 1327 0010 23F08063 		bic	r3, r3, #67108864
 1328 0014 5364     		str	r3, [r2, #68]
 572:Src/stm32f7xx_hal_msp.c **** 
 1329              		.loc 1 572 0
ARM GAS  C:\Users\Patryk\AppData\Local\Temp\cc1IRkRa.s 			page 53


 1330 0016 1021     		movs	r1, #16
 1331 0018 0E48     		ldr	r0, .L109+8
 1332              	.LVL85:
 1333 001a FFF7FEFF 		bl	HAL_GPIO_DeInit
 1334              	.LVL86:
 574:Src/stm32f7xx_hal_msp.c ****                           |LCD_G1_Pin|LCD_G3_Pin|LCD_G0_Pin|LCD_G2_Pin 
 1335              		.loc 1 574 0
 1336 001e 4EF6FF71 		movw	r1, #61439
 1337 0022 0D48     		ldr	r0, .L109+12
 1338 0024 FFF7FEFF 		bl	HAL_GPIO_DeInit
 1339              	.LVL87:
 579:Src/stm32f7xx_hal_msp.c ****                           |LCD_G6_Pin|LCD_G7_Pin|LCD_G5_Pin);
 1340              		.loc 1 579 0
 1341 0028 F721     		movs	r1, #247
 1342 002a 0C48     		ldr	r0, .L109+16
 1343 002c FFF7FEFF 		bl	HAL_GPIO_DeInit
 1344              	.LVL88:
 582:Src/stm32f7xx_hal_msp.c **** 
 1345              		.loc 1 582 0
 1346 0030 4FF48051 		mov	r1, #4096
 1347 0034 0A48     		ldr	r0, .L109+20
 1348 0036 FFF7FEFF 		bl	HAL_GPIO_DeInit
 1349              	.LVL89:
 584:Src/stm32f7xx_hal_msp.c **** 
 1350              		.loc 1 584 0
 1351 003a 4FF44641 		mov	r1, #50688
 1352 003e 0948     		ldr	r0, .L109+24
 1353 0040 FFF7FEFF 		bl	HAL_GPIO_DeInit
 1354              	.LVL90:
 587:Src/stm32f7xx_hal_msp.c ****   /* USER CODE BEGIN LTDC_MspDeInit 1 */
 1355              		.loc 1 587 0
 1356 0044 5820     		movs	r0, #88
 1357 0046 FFF7FEFF 		bl	HAL_NVIC_DisableIRQ
 1358              	.LVL91:
 593:Src/stm32f7xx_hal_msp.c **** 
 1359              		.loc 1 593 0
 1360 004a DEE7     		b	.L105
 1361              	.L110:
 1362              		.align	2
 1363              	.L109:
 1364 004c 00680140 		.word	1073833984
 1365 0050 00380240 		.word	1073887232
 1366 0054 00100240 		.word	1073876992
 1367 0058 00240240 		.word	1073882112
 1368 005c 00280240 		.word	1073883136
 1369 0060 00180240 		.word	1073879040
 1370 0064 00200240 		.word	1073881088
 1371              		.cfi_endproc
 1372              	.LFE150:
 1374              		.section	.text.HAL_QSPI_MspInit,"ax",%progbits
 1375              		.align	1
 1376              		.global	HAL_QSPI_MspInit
 1377              		.syntax unified
 1378              		.thumb
 1379              		.thumb_func
 1380              		.fpu fpv5-sp-d16
 1382              	HAL_QSPI_MspInit:
ARM GAS  C:\Users\Patryk\AppData\Local\Temp\cc1IRkRa.s 			page 54


 1383              	.LFB151:
 596:Src/stm32f7xx_hal_msp.c **** 
 1384              		.loc 1 596 0
 1385              		.cfi_startproc
 1386              		@ args = 0, pretend = 0, frame = 24
 1387              		@ frame_needed = 0, uses_anonymous_args = 0
 1388              	.LVL92:
 599:Src/stm32f7xx_hal_msp.c ****   {
 1389              		.loc 1 599 0
 1390 0000 0268     		ldr	r2, [r0]
 1391 0002 254B     		ldr	r3, .L118
 1392 0004 9A42     		cmp	r2, r3
 1393 0006 00D0     		beq	.L117
 1394 0008 7047     		bx	lr
 1395              	.L117:
 596:Src/stm32f7xx_hal_msp.c **** 
 1396              		.loc 1 596 0
 1397 000a 2DE9F043 		push	{r4, r5, r6, r7, r8, r9, lr}
 1398              	.LCFI30:
 1399              		.cfi_def_cfa_offset 28
 1400              		.cfi_offset 4, -28
 1401              		.cfi_offset 5, -24
 1402              		.cfi_offset 6, -20
 1403              		.cfi_offset 7, -16
 1404              		.cfi_offset 8, -12
 1405              		.cfi_offset 9, -8
 1406              		.cfi_offset 14, -4
 1407 000e 87B0     		sub	sp, sp, #28
 1408              	.LCFI31:
 1409              		.cfi_def_cfa_offset 56
 1410              	.LBB12:
 605:Src/stm32f7xx_hal_msp.c ****   
 1411              		.loc 1 605 0
 1412 0010 224B     		ldr	r3, .L118+4
 1413 0012 9A6B     		ldr	r2, [r3, #56]
 1414 0014 42F00202 		orr	r2, r2, #2
 1415 0018 9A63     		str	r2, [r3, #56]
 1416 001a 9B6B     		ldr	r3, [r3, #56]
 1417 001c 03F00203 		and	r3, r3, #2
 1418 0020 0093     		str	r3, [sp]
 1419 0022 009B     		ldr	r3, [sp]
 1420              	.LBE12:
 615:Src/stm32f7xx_hal_msp.c ****     GPIO_InitStruct.Mode = GPIO_MODE_AF_PP;
 1421              		.loc 1 615 0
 1422 0024 4FF00409 		mov	r9, #4
 1423 0028 CDF80490 		str	r9, [sp, #4]
 616:Src/stm32f7xx_hal_msp.c ****     GPIO_InitStruct.Pull = GPIO_NOPULL;
 1424              		.loc 1 616 0
 1425 002c 0226     		movs	r6, #2
 1426 002e 0296     		str	r6, [sp, #8]
 617:Src/stm32f7xx_hal_msp.c ****     GPIO_InitStruct.Speed = GPIO_SPEED_FREQ_VERY_HIGH;
 1427              		.loc 1 617 0
 1428 0030 0025     		movs	r5, #0
 1429 0032 0395     		str	r5, [sp, #12]
 618:Src/stm32f7xx_hal_msp.c ****     GPIO_InitStruct.Alternate = GPIO_AF9_QUADSPI;
 1430              		.loc 1 618 0
 1431 0034 0324     		movs	r4, #3
ARM GAS  C:\Users\Patryk\AppData\Local\Temp\cc1IRkRa.s 			page 55


 1432 0036 0494     		str	r4, [sp, #16]
 619:Src/stm32f7xx_hal_msp.c ****     HAL_GPIO_Init(QSPI_D2_GPIO_Port, &GPIO_InitStruct);
 1433              		.loc 1 619 0
 1434 0038 0927     		movs	r7, #9
 1435 003a 0597     		str	r7, [sp, #20]
 620:Src/stm32f7xx_hal_msp.c **** 
 1436              		.loc 1 620 0
 1437 003c 0DEB0901 		add	r1, sp, r9
 1438 0040 1748     		ldr	r0, .L118+8
 1439              	.LVL93:
 1440 0042 FFF7FEFF 		bl	HAL_GPIO_Init
 1441              	.LVL94:
 622:Src/stm32f7xx_hal_msp.c ****     GPIO_InitStruct.Mode = GPIO_MODE_AF_PP;
 1442              		.loc 1 622 0
 1443 0046 4023     		movs	r3, #64
 1444 0048 0193     		str	r3, [sp, #4]
 623:Src/stm32f7xx_hal_msp.c ****     GPIO_InitStruct.Pull = GPIO_NOPULL;
 1445              		.loc 1 623 0
 1446 004a 0296     		str	r6, [sp, #8]
 624:Src/stm32f7xx_hal_msp.c ****     GPIO_InitStruct.Speed = GPIO_SPEED_FREQ_VERY_HIGH;
 1447              		.loc 1 624 0
 1448 004c 0395     		str	r5, [sp, #12]
 625:Src/stm32f7xx_hal_msp.c ****     GPIO_InitStruct.Alternate = GPIO_AF10_QUADSPI;
 1449              		.loc 1 625 0
 1450 004e 0494     		str	r4, [sp, #16]
 626:Src/stm32f7xx_hal_msp.c ****     HAL_GPIO_Init(QSPI_NCS_GPIO_Port, &GPIO_InitStruct);
 1451              		.loc 1 626 0
 1452 0050 0A23     		movs	r3, #10
 1453 0052 0593     		str	r3, [sp, #20]
 627:Src/stm32f7xx_hal_msp.c **** 
 1454              		.loc 1 627 0
 1455 0054 DFF85080 		ldr	r8, .L118+16
 1456 0058 0DEB0901 		add	r1, sp, r9
 1457 005c 4046     		mov	r0, r8
 1458 005e FFF7FEFF 		bl	HAL_GPIO_Init
 1459              	.LVL95:
 629:Src/stm32f7xx_hal_msp.c ****     GPIO_InitStruct.Mode = GPIO_MODE_AF_PP;
 1460              		.loc 1 629 0
 1461 0062 CDF80490 		str	r9, [sp, #4]
 630:Src/stm32f7xx_hal_msp.c ****     GPIO_InitStruct.Pull = GPIO_NOPULL;
 1462              		.loc 1 630 0
 1463 0066 0296     		str	r6, [sp, #8]
 631:Src/stm32f7xx_hal_msp.c ****     GPIO_InitStruct.Speed = GPIO_SPEED_FREQ_VERY_HIGH;
 1464              		.loc 1 631 0
 1465 0068 0395     		str	r5, [sp, #12]
 632:Src/stm32f7xx_hal_msp.c ****     GPIO_InitStruct.Alternate = GPIO_AF9_QUADSPI;
 1466              		.loc 1 632 0
 1467 006a 0494     		str	r4, [sp, #16]
 633:Src/stm32f7xx_hal_msp.c ****     HAL_GPIO_Init(GPIOB, &GPIO_InitStruct);
 1468              		.loc 1 633 0
 1469 006c 0597     		str	r7, [sp, #20]
 634:Src/stm32f7xx_hal_msp.c **** 
 1470              		.loc 1 634 0
 1471 006e 0DEB0901 		add	r1, sp, r9
 1472 0072 4046     		mov	r0, r8
 1473 0074 FFF7FEFF 		bl	HAL_GPIO_Init
 1474              	.LVL96:
ARM GAS  C:\Users\Patryk\AppData\Local\Temp\cc1IRkRa.s 			page 56


 636:Src/stm32f7xx_hal_msp.c ****     GPIO_InitStruct.Mode = GPIO_MODE_AF_PP;
 1475              		.loc 1 636 0
 1476 0078 4FF46053 		mov	r3, #14336
 1477 007c 0193     		str	r3, [sp, #4]
 637:Src/stm32f7xx_hal_msp.c ****     GPIO_InitStruct.Pull = GPIO_NOPULL;
 1478              		.loc 1 637 0
 1479 007e 0296     		str	r6, [sp, #8]
 638:Src/stm32f7xx_hal_msp.c ****     GPIO_InitStruct.Speed = GPIO_SPEED_FREQ_VERY_HIGH;
 1480              		.loc 1 638 0
 1481 0080 0395     		str	r5, [sp, #12]
 639:Src/stm32f7xx_hal_msp.c ****     GPIO_InitStruct.Alternate = GPIO_AF9_QUADSPI;
 1482              		.loc 1 639 0
 1483 0082 0494     		str	r4, [sp, #16]
 640:Src/stm32f7xx_hal_msp.c ****     HAL_GPIO_Init(GPIOD, &GPIO_InitStruct);
 1484              		.loc 1 640 0
 1485 0084 0597     		str	r7, [sp, #20]
 641:Src/stm32f7xx_hal_msp.c **** 
 1486              		.loc 1 641 0
 1487 0086 0DEB0901 		add	r1, sp, r9
 1488 008a 0648     		ldr	r0, .L118+12
 1489 008c FFF7FEFF 		bl	HAL_GPIO_Init
 1490              	.LVL97:
 648:Src/stm32f7xx_hal_msp.c **** 
 1491              		.loc 1 648 0
 1492 0090 07B0     		add	sp, sp, #28
 1493              	.LCFI32:
 1494              		.cfi_def_cfa_offset 28
 1495              		@ sp needed
 1496 0092 BDE8F083 		pop	{r4, r5, r6, r7, r8, r9, pc}
 1497              	.L119:
 1498 0096 00BF     		.align	2
 1499              	.L118:
 1500 0098 001000A0 		.word	-1610608640
 1501 009c 00380240 		.word	1073887232
 1502 00a0 00100240 		.word	1073876992
 1503 00a4 000C0240 		.word	1073875968
 1504 00a8 00040240 		.word	1073873920
 1505              		.cfi_endproc
 1506              	.LFE151:
 1508              		.section	.text.HAL_QSPI_MspDeInit,"ax",%progbits
 1509              		.align	1
 1510              		.global	HAL_QSPI_MspDeInit
 1511              		.syntax unified
 1512              		.thumb
 1513              		.thumb_func
 1514              		.fpu fpv5-sp-d16
 1516              	HAL_QSPI_MspDeInit:
 1517              	.LFB152:
 651:Src/stm32f7xx_hal_msp.c **** 
 1518              		.loc 1 651 0
 1519              		.cfi_startproc
 1520              		@ args = 0, pretend = 0, frame = 0
 1521              		@ frame_needed = 0, uses_anonymous_args = 0
 1522              	.LVL98:
 1523 0000 08B5     		push	{r3, lr}
 1524              	.LCFI33:
 1525              		.cfi_def_cfa_offset 8
ARM GAS  C:\Users\Patryk\AppData\Local\Temp\cc1IRkRa.s 			page 57


 1526              		.cfi_offset 3, -8
 1527              		.cfi_offset 14, -4
 653:Src/stm32f7xx_hal_msp.c ****   {
 1528              		.loc 1 653 0
 1529 0002 0268     		ldr	r2, [r0]
 1530 0004 0B4B     		ldr	r3, .L124
 1531 0006 9A42     		cmp	r2, r3
 1532 0008 00D0     		beq	.L123
 1533              	.LVL99:
 1534              	.L120:
 680:Src/stm32f7xx_hal_msp.c **** 
 1535              		.loc 1 680 0
 1536 000a 08BD     		pop	{r3, pc}
 1537              	.LVL100:
 1538              	.L123:
 659:Src/stm32f7xx_hal_msp.c ****   
 1539              		.loc 1 659 0
 1540 000c 0A4A     		ldr	r2, .L124+4
 1541 000e 936B     		ldr	r3, [r2, #56]
 1542 0010 23F00203 		bic	r3, r3, #2
 1543 0014 9363     		str	r3, [r2, #56]
 669:Src/stm32f7xx_hal_msp.c **** 
 1544              		.loc 1 669 0
 1545 0016 0421     		movs	r1, #4
 1546 0018 0848     		ldr	r0, .L124+8
 1547              	.LVL101:
 1548 001a FFF7FEFF 		bl	HAL_GPIO_DeInit
 1549              	.LVL102:
 671:Src/stm32f7xx_hal_msp.c **** 
 1550              		.loc 1 671 0
 1551 001e 4421     		movs	r1, #68
 1552 0020 0748     		ldr	r0, .L124+12
 1553 0022 FFF7FEFF 		bl	HAL_GPIO_DeInit
 1554              	.LVL103:
 673:Src/stm32f7xx_hal_msp.c **** 
 1555              		.loc 1 673 0
 1556 0026 4FF46051 		mov	r1, #14336
 1557 002a 0648     		ldr	r0, .L124+16
 1558 002c FFF7FEFF 		bl	HAL_GPIO_DeInit
 1559              	.LVL104:
 680:Src/stm32f7xx_hal_msp.c **** 
 1560              		.loc 1 680 0
 1561 0030 EBE7     		b	.L120
 1562              	.L125:
 1563 0032 00BF     		.align	2
 1564              	.L124:
 1565 0034 001000A0 		.word	-1610608640
 1566 0038 00380240 		.word	1073887232
 1567 003c 00100240 		.word	1073876992
 1568 0040 00040240 		.word	1073873920
 1569 0044 000C0240 		.word	1073875968
 1570              		.cfi_endproc
 1571              	.LFE152:
 1573              		.section	.text.HAL_RTC_MspInit,"ax",%progbits
 1574              		.align	1
 1575              		.global	HAL_RTC_MspInit
 1576              		.syntax unified
ARM GAS  C:\Users\Patryk\AppData\Local\Temp\cc1IRkRa.s 			page 58


 1577              		.thumb
 1578              		.thumb_func
 1579              		.fpu fpv5-sp-d16
 1581              	HAL_RTC_MspInit:
 1582              	.LFB153:
 683:Src/stm32f7xx_hal_msp.c **** 
 1583              		.loc 1 683 0
 1584              		.cfi_startproc
 1585              		@ args = 0, pretend = 0, frame = 0
 1586              		@ frame_needed = 0, uses_anonymous_args = 0
 1587              		@ link register save eliminated.
 1588              	.LVL105:
 685:Src/stm32f7xx_hal_msp.c ****   {
 1589              		.loc 1 685 0
 1590 0000 0268     		ldr	r2, [r0]
 1591 0002 054B     		ldr	r3, .L129
 1592 0004 9A42     		cmp	r2, r3
 1593 0006 00D0     		beq	.L128
 1594              	.L126:
 697:Src/stm32f7xx_hal_msp.c **** 
 1595              		.loc 1 697 0
 1596 0008 7047     		bx	lr
 1597              	.L128:
 691:Src/stm32f7xx_hal_msp.c ****   /* USER CODE BEGIN RTC_MspInit 1 */
 1598              		.loc 1 691 0
 1599 000a 044A     		ldr	r2, .L129+4
 1600 000c 136F     		ldr	r3, [r2, #112]
 1601 000e 43F40043 		orr	r3, r3, #32768
 1602 0012 1367     		str	r3, [r2, #112]
 697:Src/stm32f7xx_hal_msp.c **** 
 1603              		.loc 1 697 0
 1604 0014 F8E7     		b	.L126
 1605              	.L130:
 1606 0016 00BF     		.align	2
 1607              	.L129:
 1608 0018 00280040 		.word	1073752064
 1609 001c 00380240 		.word	1073887232
 1610              		.cfi_endproc
 1611              	.LFE153:
 1613              		.section	.text.HAL_RTC_MspDeInit,"ax",%progbits
 1614              		.align	1
 1615              		.global	HAL_RTC_MspDeInit
 1616              		.syntax unified
 1617              		.thumb
 1618              		.thumb_func
 1619              		.fpu fpv5-sp-d16
 1621              	HAL_RTC_MspDeInit:
 1622              	.LFB154:
 700:Src/stm32f7xx_hal_msp.c **** 
 1623              		.loc 1 700 0
 1624              		.cfi_startproc
 1625              		@ args = 0, pretend = 0, frame = 0
 1626              		@ frame_needed = 0, uses_anonymous_args = 0
 1627              		@ link register save eliminated.
 1628              	.LVL106:
 702:Src/stm32f7xx_hal_msp.c ****   {
 1629              		.loc 1 702 0
ARM GAS  C:\Users\Patryk\AppData\Local\Temp\cc1IRkRa.s 			page 59


 1630 0000 0268     		ldr	r2, [r0]
 1631 0002 054B     		ldr	r3, .L134
 1632 0004 9A42     		cmp	r2, r3
 1633 0006 00D0     		beq	.L133
 1634              	.L131:
 714:Src/stm32f7xx_hal_msp.c **** 
 1635              		.loc 1 714 0
 1636 0008 7047     		bx	lr
 1637              	.L133:
 708:Src/stm32f7xx_hal_msp.c ****   /* USER CODE BEGIN RTC_MspDeInit 1 */
 1638              		.loc 1 708 0
 1639 000a 044A     		ldr	r2, .L134+4
 1640 000c 136F     		ldr	r3, [r2, #112]
 1641 000e 23F40043 		bic	r3, r3, #32768
 1642 0012 1367     		str	r3, [r2, #112]
 714:Src/stm32f7xx_hal_msp.c **** 
 1643              		.loc 1 714 0
 1644 0014 F8E7     		b	.L131
 1645              	.L135:
 1646 0016 00BF     		.align	2
 1647              	.L134:
 1648 0018 00280040 		.word	1073752064
 1649 001c 00380240 		.word	1073887232
 1650              		.cfi_endproc
 1651              	.LFE154:
 1653              		.section	.text.HAL_SD_MspInit,"ax",%progbits
 1654              		.align	1
 1655              		.global	HAL_SD_MspInit
 1656              		.syntax unified
 1657              		.thumb
 1658              		.thumb_func
 1659              		.fpu fpv5-sp-d16
 1661              	HAL_SD_MspInit:
 1662              	.LFB155:
 717:Src/stm32f7xx_hal_msp.c **** 
 1663              		.loc 1 717 0
 1664              		.cfi_startproc
 1665              		@ args = 0, pretend = 0, frame = 24
 1666              		@ frame_needed = 0, uses_anonymous_args = 0
 1667              	.LVL107:
 720:Src/stm32f7xx_hal_msp.c ****   {
 1668              		.loc 1 720 0
 1669 0000 0268     		ldr	r2, [r0]
 1670 0002 164B     		ldr	r3, .L143
 1671 0004 9A42     		cmp	r2, r3
 1672 0006 00D0     		beq	.L142
 1673 0008 7047     		bx	lr
 1674              	.L142:
 717:Src/stm32f7xx_hal_msp.c **** 
 1675              		.loc 1 717 0
 1676 000a F0B5     		push	{r4, r5, r6, r7, lr}
 1677              	.LCFI34:
 1678              		.cfi_def_cfa_offset 20
 1679              		.cfi_offset 4, -20
 1680              		.cfi_offset 5, -16
 1681              		.cfi_offset 6, -12
 1682              		.cfi_offset 7, -8
ARM GAS  C:\Users\Patryk\AppData\Local\Temp\cc1IRkRa.s 			page 60


 1683              		.cfi_offset 14, -4
 1684 000c 87B0     		sub	sp, sp, #28
 1685              	.LCFI35:
 1686              		.cfi_def_cfa_offset 48
 1687              	.LBB13:
 726:Src/stm32f7xx_hal_msp.c ****   
 1688              		.loc 1 726 0
 1689 000e 03F58633 		add	r3, r3, #68608
 1690 0012 5A6C     		ldr	r2, [r3, #68]
 1691 0014 42F40062 		orr	r2, r2, #2048
 1692 0018 5A64     		str	r2, [r3, #68]
 1693 001a 5B6C     		ldr	r3, [r3, #68]
 1694 001c 03F40063 		and	r3, r3, #2048
 1695 0020 0093     		str	r3, [sp]
 1696 0022 009B     		ldr	r3, [sp]
 1697              	.LBE13:
 736:Src/stm32f7xx_hal_msp.c ****                           |GPIO_PIN_8;
 1698              		.loc 1 736 0
 1699 0024 4FF4F853 		mov	r3, #7936
 1700 0028 0193     		str	r3, [sp, #4]
 738:Src/stm32f7xx_hal_msp.c ****     GPIO_InitStruct.Pull = GPIO_NOPULL;
 1701              		.loc 1 738 0
 1702 002a 0227     		movs	r7, #2
 1703 002c 0297     		str	r7, [sp, #8]
 739:Src/stm32f7xx_hal_msp.c ****     GPIO_InitStruct.Speed = GPIO_SPEED_FREQ_VERY_HIGH;
 1704              		.loc 1 739 0
 1705 002e 0026     		movs	r6, #0
 1706 0030 0396     		str	r6, [sp, #12]
 740:Src/stm32f7xx_hal_msp.c ****     GPIO_InitStruct.Alternate = GPIO_AF12_SDMMC1;
 1707              		.loc 1 740 0
 1708 0032 0325     		movs	r5, #3
 1709 0034 0495     		str	r5, [sp, #16]
 741:Src/stm32f7xx_hal_msp.c ****     HAL_GPIO_Init(GPIOC, &GPIO_InitStruct);
 1710              		.loc 1 741 0
 1711 0036 0C24     		movs	r4, #12
 1712 0038 0594     		str	r4, [sp, #20]
 742:Src/stm32f7xx_hal_msp.c **** 
 1713              		.loc 1 742 0
 1714 003a 01A9     		add	r1, sp, #4
 1715 003c 0848     		ldr	r0, .L143+4
 1716              	.LVL108:
 1717 003e FFF7FEFF 		bl	HAL_GPIO_Init
 1718              	.LVL109:
 744:Src/stm32f7xx_hal_msp.c ****     GPIO_InitStruct.Mode = GPIO_MODE_AF_PP;
 1719              		.loc 1 744 0
 1720 0042 0423     		movs	r3, #4
 1721 0044 0193     		str	r3, [sp, #4]
 745:Src/stm32f7xx_hal_msp.c ****     GPIO_InitStruct.Pull = GPIO_NOPULL;
 1722              		.loc 1 745 0
 1723 0046 0297     		str	r7, [sp, #8]
 746:Src/stm32f7xx_hal_msp.c ****     GPIO_InitStruct.Speed = GPIO_SPEED_FREQ_VERY_HIGH;
 1724              		.loc 1 746 0
 1725 0048 0396     		str	r6, [sp, #12]
 747:Src/stm32f7xx_hal_msp.c ****     GPIO_InitStruct.Alternate = GPIO_AF12_SDMMC1;
 1726              		.loc 1 747 0
 1727 004a 0495     		str	r5, [sp, #16]
 748:Src/stm32f7xx_hal_msp.c ****     HAL_GPIO_Init(SDMMC_CMD_GPIO_Port, &GPIO_InitStruct);
ARM GAS  C:\Users\Patryk\AppData\Local\Temp\cc1IRkRa.s 			page 61


 1728              		.loc 1 748 0
 1729 004c 0594     		str	r4, [sp, #20]
 749:Src/stm32f7xx_hal_msp.c **** 
 1730              		.loc 1 749 0
 1731 004e 0DEB0301 		add	r1, sp, r3
 1732 0052 0448     		ldr	r0, .L143+8
 1733 0054 FFF7FEFF 		bl	HAL_GPIO_Init
 1734              	.LVL110:
 756:Src/stm32f7xx_hal_msp.c **** 
 1735              		.loc 1 756 0
 1736 0058 07B0     		add	sp, sp, #28
 1737              	.LCFI36:
 1738              		.cfi_def_cfa_offset 20
 1739              		@ sp needed
 1740 005a F0BD     		pop	{r4, r5, r6, r7, pc}
 1741              	.L144:
 1742              		.align	2
 1743              	.L143:
 1744 005c 002C0140 		.word	1073818624
 1745 0060 00080240 		.word	1073874944
 1746 0064 000C0240 		.word	1073875968
 1747              		.cfi_endproc
 1748              	.LFE155:
 1750              		.section	.text.HAL_SD_MspDeInit,"ax",%progbits
 1751              		.align	1
 1752              		.global	HAL_SD_MspDeInit
 1753              		.syntax unified
 1754              		.thumb
 1755              		.thumb_func
 1756              		.fpu fpv5-sp-d16
 1758              	HAL_SD_MspDeInit:
 1759              	.LFB156:
 759:Src/stm32f7xx_hal_msp.c **** 
 1760              		.loc 1 759 0
 1761              		.cfi_startproc
 1762              		@ args = 0, pretend = 0, frame = 0
 1763              		@ frame_needed = 0, uses_anonymous_args = 0
 1764              	.LVL111:
 1765 0000 08B5     		push	{r3, lr}
 1766              	.LCFI37:
 1767              		.cfi_def_cfa_offset 8
 1768              		.cfi_offset 3, -8
 1769              		.cfi_offset 14, -4
 761:Src/stm32f7xx_hal_msp.c ****   {
 1770              		.loc 1 761 0
 1771 0002 0268     		ldr	r2, [r0]
 1772 0004 094B     		ldr	r3, .L149
 1773 0006 9A42     		cmp	r2, r3
 1774 0008 00D0     		beq	.L148
 1775              	.LVL112:
 1776              	.L145:
 787:Src/stm32f7xx_hal_msp.c **** 
 1777              		.loc 1 787 0
 1778 000a 08BD     		pop	{r3, pc}
 1779              	.LVL113:
 1780              	.L148:
 767:Src/stm32f7xx_hal_msp.c ****   
ARM GAS  C:\Users\Patryk\AppData\Local\Temp\cc1IRkRa.s 			page 62


 1781              		.loc 1 767 0
 1782 000c 084A     		ldr	r2, .L149+4
 1783 000e 536C     		ldr	r3, [r2, #68]
 1784 0010 23F40063 		bic	r3, r3, #2048
 1785 0014 5364     		str	r3, [r2, #68]
 777:Src/stm32f7xx_hal_msp.c ****                           |GPIO_PIN_8);
 1786              		.loc 1 777 0
 1787 0016 4FF4F851 		mov	r1, #7936
 1788 001a 0648     		ldr	r0, .L149+8
 1789              	.LVL114:
 1790 001c FFF7FEFF 		bl	HAL_GPIO_DeInit
 1791              	.LVL115:
 780:Src/stm32f7xx_hal_msp.c **** 
 1792              		.loc 1 780 0
 1793 0020 0421     		movs	r1, #4
 1794 0022 0548     		ldr	r0, .L149+12
 1795 0024 FFF7FEFF 		bl	HAL_GPIO_DeInit
 1796              	.LVL116:
 787:Src/stm32f7xx_hal_msp.c **** 
 1797              		.loc 1 787 0
 1798 0028 EFE7     		b	.L145
 1799              	.L150:
 1800 002a 00BF     		.align	2
 1801              	.L149:
 1802 002c 002C0140 		.word	1073818624
 1803 0030 00380240 		.word	1073887232
 1804 0034 00080240 		.word	1073874944
 1805 0038 000C0240 		.word	1073875968
 1806              		.cfi_endproc
 1807              	.LFE156:
 1809              		.section	.text.HAL_SPDIFRX_MspInit,"ax",%progbits
 1810              		.align	1
 1811              		.global	HAL_SPDIFRX_MspInit
 1812              		.syntax unified
 1813              		.thumb
 1814              		.thumb_func
 1815              		.fpu fpv5-sp-d16
 1817              	HAL_SPDIFRX_MspInit:
 1818              	.LFB157:
 790:Src/stm32f7xx_hal_msp.c **** 
 1819              		.loc 1 790 0
 1820              		.cfi_startproc
 1821              		@ args = 0, pretend = 0, frame = 24
 1822              		@ frame_needed = 0, uses_anonymous_args = 0
 1823              	.LVL117:
 793:Src/stm32f7xx_hal_msp.c ****   {
 1824              		.loc 1 793 0
 1825 0000 0368     		ldr	r3, [r0]
 1826 0002 B3F1402F 		cmp	r3, #1073758208
 1827 0006 00D0     		beq	.L157
 1828 0008 7047     		bx	lr
 1829              	.L157:
 790:Src/stm32f7xx_hal_msp.c **** 
 1830              		.loc 1 790 0
 1831 000a 00B5     		push	{lr}
 1832              	.LCFI38:
 1833              		.cfi_def_cfa_offset 4
ARM GAS  C:\Users\Patryk\AppData\Local\Temp\cc1IRkRa.s 			page 63


 1834              		.cfi_offset 14, -4
 1835 000c 87B0     		sub	sp, sp, #28
 1836              	.LCFI39:
 1837              		.cfi_def_cfa_offset 32
 1838              	.LBB14:
 799:Src/stm32f7xx_hal_msp.c ****   
 1839              		.loc 1 799 0
 1840 000e 03F5FC33 		add	r3, r3, #129024
 1841 0012 1A6C     		ldr	r2, [r3, #64]
 1842 0014 42F48032 		orr	r2, r2, #65536
 1843 0018 1A64     		str	r2, [r3, #64]
 1844 001a 1B6C     		ldr	r3, [r3, #64]
 1845 001c 03F48033 		and	r3, r3, #65536
 1846 0020 0093     		str	r3, [sp]
 1847 0022 009B     		ldr	r3, [sp]
 1848              	.LBE14:
 804:Src/stm32f7xx_hal_msp.c ****     GPIO_InitStruct.Mode = GPIO_MODE_AF_PP;
 1849              		.loc 1 804 0
 1850 0024 8023     		movs	r3, #128
 1851 0026 0193     		str	r3, [sp, #4]
 805:Src/stm32f7xx_hal_msp.c ****     GPIO_InitStruct.Pull = GPIO_NOPULL;
 1852              		.loc 1 805 0
 1853 0028 0223     		movs	r3, #2
 1854 002a 0293     		str	r3, [sp, #8]
 806:Src/stm32f7xx_hal_msp.c ****     GPIO_InitStruct.Speed = GPIO_SPEED_FREQ_LOW;
 1855              		.loc 1 806 0
 1856 002c 0023     		movs	r3, #0
 1857 002e 0393     		str	r3, [sp, #12]
 807:Src/stm32f7xx_hal_msp.c ****     GPIO_InitStruct.Alternate = GPIO_AF8_SPDIFRX;
 1858              		.loc 1 807 0
 1859 0030 0493     		str	r3, [sp, #16]
 808:Src/stm32f7xx_hal_msp.c ****     HAL_GPIO_Init(SPDIF_RX0_GPIO_Port, &GPIO_InitStruct);
 1860              		.loc 1 808 0
 1861 0032 0823     		movs	r3, #8
 1862 0034 0593     		str	r3, [sp, #20]
 809:Src/stm32f7xx_hal_msp.c **** 
 1863              		.loc 1 809 0
 1864 0036 01A9     		add	r1, sp, #4
 1865 0038 0248     		ldr	r0, .L158
 1866              	.LVL118:
 1867 003a FFF7FEFF 		bl	HAL_GPIO_Init
 1868              	.LVL119:
 816:Src/stm32f7xx_hal_msp.c **** 
 1869              		.loc 1 816 0
 1870 003e 07B0     		add	sp, sp, #28
 1871              	.LCFI40:
 1872              		.cfi_def_cfa_offset 4
 1873              		@ sp needed
 1874 0040 5DF804FB 		ldr	pc, [sp], #4
 1875              	.L159:
 1876              		.align	2
 1877              	.L158:
 1878 0044 000C0240 		.word	1073875968
 1879              		.cfi_endproc
 1880              	.LFE157:
 1882              		.section	.text.HAL_SPDIFRX_MspDeInit,"ax",%progbits
 1883              		.align	1
ARM GAS  C:\Users\Patryk\AppData\Local\Temp\cc1IRkRa.s 			page 64


 1884              		.global	HAL_SPDIFRX_MspDeInit
 1885              		.syntax unified
 1886              		.thumb
 1887              		.thumb_func
 1888              		.fpu fpv5-sp-d16
 1890              	HAL_SPDIFRX_MspDeInit:
 1891              	.LFB158:
 819:Src/stm32f7xx_hal_msp.c **** 
 1892              		.loc 1 819 0
 1893              		.cfi_startproc
 1894              		@ args = 0, pretend = 0, frame = 0
 1895              		@ frame_needed = 0, uses_anonymous_args = 0
 1896              	.LVL120:
 1897 0000 08B5     		push	{r3, lr}
 1898              	.LCFI41:
 1899              		.cfi_def_cfa_offset 8
 1900              		.cfi_offset 3, -8
 1901              		.cfi_offset 14, -4
 821:Src/stm32f7xx_hal_msp.c ****   {
 1902              		.loc 1 821 0
 1903 0002 0368     		ldr	r3, [r0]
 1904 0004 B3F1402F 		cmp	r3, #1073758208
 1905 0008 00D0     		beq	.L163
 1906              	.LVL121:
 1907              	.L160:
 839:Src/stm32f7xx_hal_msp.c **** 
 1908              		.loc 1 839 0
 1909 000a 08BD     		pop	{r3, pc}
 1910              	.LVL122:
 1911              	.L163:
 827:Src/stm32f7xx_hal_msp.c ****   
 1912              		.loc 1 827 0
 1913 000c 044A     		ldr	r2, .L164
 1914 000e 136C     		ldr	r3, [r2, #64]
 1915 0010 23F48033 		bic	r3, r3, #65536
 1916 0014 1364     		str	r3, [r2, #64]
 832:Src/stm32f7xx_hal_msp.c **** 
 1917              		.loc 1 832 0
 1918 0016 8021     		movs	r1, #128
 1919 0018 0248     		ldr	r0, .L164+4
 1920              	.LVL123:
 1921 001a FFF7FEFF 		bl	HAL_GPIO_DeInit
 1922              	.LVL124:
 839:Src/stm32f7xx_hal_msp.c **** 
 1923              		.loc 1 839 0
 1924 001e F4E7     		b	.L160
 1925              	.L165:
 1926              		.align	2
 1927              	.L164:
 1928 0020 00380240 		.word	1073887232
 1929 0024 000C0240 		.word	1073875968
 1930              		.cfi_endproc
 1931              	.LFE158:
 1933              		.section	.text.HAL_SPI_MspInit,"ax",%progbits
 1934              		.align	1
 1935              		.global	HAL_SPI_MspInit
 1936              		.syntax unified
ARM GAS  C:\Users\Patryk\AppData\Local\Temp\cc1IRkRa.s 			page 65


 1937              		.thumb
 1938              		.thumb_func
 1939              		.fpu fpv5-sp-d16
 1941              	HAL_SPI_MspInit:
 1942              	.LFB159:
 842:Src/stm32f7xx_hal_msp.c **** 
 1943              		.loc 1 842 0
 1944              		.cfi_startproc
 1945              		@ args = 0, pretend = 0, frame = 24
 1946              		@ frame_needed = 0, uses_anonymous_args = 0
 1947              	.LVL125:
 845:Src/stm32f7xx_hal_msp.c ****   {
 1948              		.loc 1 845 0
 1949 0000 0268     		ldr	r2, [r0]
 1950 0002 154B     		ldr	r3, .L173
 1951 0004 9A42     		cmp	r2, r3
 1952 0006 00D0     		beq	.L172
 1953 0008 7047     		bx	lr
 1954              	.L172:
 842:Src/stm32f7xx_hal_msp.c **** 
 1955              		.loc 1 842 0
 1956 000a 70B5     		push	{r4, r5, r6, lr}
 1957              	.LCFI42:
 1958              		.cfi_def_cfa_offset 16
 1959              		.cfi_offset 4, -16
 1960              		.cfi_offset 5, -12
 1961              		.cfi_offset 6, -8
 1962              		.cfi_offset 14, -4
 1963 000c 86B0     		sub	sp, sp, #24
 1964              	.LCFI43:
 1965              		.cfi_def_cfa_offset 40
 1966              	.LBB15:
 851:Src/stm32f7xx_hal_msp.c ****   
 1967              		.loc 1 851 0
 1968 000e 03F50033 		add	r3, r3, #131072
 1969 0012 1A6C     		ldr	r2, [r3, #64]
 1970 0014 42F48042 		orr	r2, r2, #16384
 1971 0018 1A64     		str	r2, [r3, #64]
 1972 001a 1B6C     		ldr	r3, [r3, #64]
 1973 001c 03F48043 		and	r3, r3, #16384
 1974 0020 0093     		str	r3, [sp]
 1975 0022 009B     		ldr	r3, [sp]
 1976              	.LBE15:
 858:Src/stm32f7xx_hal_msp.c ****     GPIO_InitStruct.Mode = GPIO_MODE_AF_PP;
 1977              		.loc 1 858 0
 1978 0024 0225     		movs	r5, #2
 1979 0026 0195     		str	r5, [sp, #4]
 859:Src/stm32f7xx_hal_msp.c ****     GPIO_InitStruct.Pull = GPIO_NOPULL;
 1980              		.loc 1 859 0
 1981 0028 0295     		str	r5, [sp, #8]
 860:Src/stm32f7xx_hal_msp.c ****     GPIO_InitStruct.Speed = GPIO_SPEED_FREQ_LOW;
 1982              		.loc 1 860 0
 1983 002a 0024     		movs	r4, #0
 1984 002c 0394     		str	r4, [sp, #12]
 861:Src/stm32f7xx_hal_msp.c ****     GPIO_InitStruct.Alternate = GPIO_AF5_SPI2;
 1985              		.loc 1 861 0
 1986 002e 0494     		str	r4, [sp, #16]
ARM GAS  C:\Users\Patryk\AppData\Local\Temp\cc1IRkRa.s 			page 66


 862:Src/stm32f7xx_hal_msp.c ****     HAL_GPIO_Init(ARDUINO_SCK_D13_GPIO_Port, &GPIO_InitStruct);
 1987              		.loc 1 862 0
 1988 0030 0526     		movs	r6, #5
 1989 0032 0596     		str	r6, [sp, #20]
 863:Src/stm32f7xx_hal_msp.c **** 
 1990              		.loc 1 863 0
 1991 0034 01A9     		add	r1, sp, #4
 1992 0036 0948     		ldr	r0, .L173+4
 1993              	.LVL126:
 1994 0038 FFF7FEFF 		bl	HAL_GPIO_Init
 1995              	.LVL127:
 865:Src/stm32f7xx_hal_msp.c ****     GPIO_InitStruct.Mode = GPIO_MODE_AF_PP;
 1996              		.loc 1 865 0
 1997 003c 4FF44043 		mov	r3, #49152
 1998 0040 0193     		str	r3, [sp, #4]
 866:Src/stm32f7xx_hal_msp.c ****     GPIO_InitStruct.Pull = GPIO_NOPULL;
 1999              		.loc 1 866 0
 2000 0042 0295     		str	r5, [sp, #8]
 867:Src/stm32f7xx_hal_msp.c ****     GPIO_InitStruct.Speed = GPIO_SPEED_FREQ_LOW;
 2001              		.loc 1 867 0
 2002 0044 0394     		str	r4, [sp, #12]
 868:Src/stm32f7xx_hal_msp.c ****     GPIO_InitStruct.Alternate = GPIO_AF5_SPI2;
 2003              		.loc 1 868 0
 2004 0046 0494     		str	r4, [sp, #16]
 869:Src/stm32f7xx_hal_msp.c ****     HAL_GPIO_Init(GPIOB, &GPIO_InitStruct);
 2005              		.loc 1 869 0
 2006 0048 0596     		str	r6, [sp, #20]
 870:Src/stm32f7xx_hal_msp.c **** 
 2007              		.loc 1 870 0
 2008 004a 01A9     		add	r1, sp, #4
 2009 004c 0448     		ldr	r0, .L173+8
 2010 004e FFF7FEFF 		bl	HAL_GPIO_Init
 2011              	.LVL128:
 877:Src/stm32f7xx_hal_msp.c **** 
 2012              		.loc 1 877 0
 2013 0052 06B0     		add	sp, sp, #24
 2014              	.LCFI44:
 2015              		.cfi_def_cfa_offset 16
 2016              		@ sp needed
 2017 0054 70BD     		pop	{r4, r5, r6, pc}
 2018              	.L174:
 2019 0056 00BF     		.align	2
 2020              	.L173:
 2021 0058 00380040 		.word	1073756160
 2022 005c 00200240 		.word	1073881088
 2023 0060 00040240 		.word	1073873920
 2024              		.cfi_endproc
 2025              	.LFE159:
 2027              		.section	.text.HAL_SPI_MspDeInit,"ax",%progbits
 2028              		.align	1
 2029              		.global	HAL_SPI_MspDeInit
 2030              		.syntax unified
 2031              		.thumb
 2032              		.thumb_func
 2033              		.fpu fpv5-sp-d16
 2035              	HAL_SPI_MspDeInit:
 2036              	.LFB160:
ARM GAS  C:\Users\Patryk\AppData\Local\Temp\cc1IRkRa.s 			page 67


 880:Src/stm32f7xx_hal_msp.c **** 
 2037              		.loc 1 880 0
 2038              		.cfi_startproc
 2039              		@ args = 0, pretend = 0, frame = 0
 2040              		@ frame_needed = 0, uses_anonymous_args = 0
 2041              	.LVL129:
 2042 0000 08B5     		push	{r3, lr}
 2043              	.LCFI45:
 2044              		.cfi_def_cfa_offset 8
 2045              		.cfi_offset 3, -8
 2046              		.cfi_offset 14, -4
 882:Src/stm32f7xx_hal_msp.c ****   {
 2047              		.loc 1 882 0
 2048 0002 0268     		ldr	r2, [r0]
 2049 0004 094B     		ldr	r3, .L179
 2050 0006 9A42     		cmp	r2, r3
 2051 0008 00D0     		beq	.L178
 2052              	.LVL130:
 2053              	.L175:
 904:Src/stm32f7xx_hal_msp.c **** 
 2054              		.loc 1 904 0
 2055 000a 08BD     		pop	{r3, pc}
 2056              	.LVL131:
 2057              	.L178:
 888:Src/stm32f7xx_hal_msp.c ****   
 2058              		.loc 1 888 0
 2059 000c 084A     		ldr	r2, .L179+4
 2060 000e 136C     		ldr	r3, [r2, #64]
 2061 0010 23F48043 		bic	r3, r3, #16384
 2062 0014 1364     		str	r3, [r2, #64]
 895:Src/stm32f7xx_hal_msp.c **** 
 2063              		.loc 1 895 0
 2064 0016 0221     		movs	r1, #2
 2065 0018 0648     		ldr	r0, .L179+8
 2066              	.LVL132:
 2067 001a FFF7FEFF 		bl	HAL_GPIO_DeInit
 2068              	.LVL133:
 897:Src/stm32f7xx_hal_msp.c **** 
 2069              		.loc 1 897 0
 2070 001e 4FF44041 		mov	r1, #49152
 2071 0022 0548     		ldr	r0, .L179+12
 2072 0024 FFF7FEFF 		bl	HAL_GPIO_DeInit
 2073              	.LVL134:
 904:Src/stm32f7xx_hal_msp.c **** 
 2074              		.loc 1 904 0
 2075 0028 EFE7     		b	.L175
 2076              	.L180:
 2077 002a 00BF     		.align	2
 2078              	.L179:
 2079 002c 00380040 		.word	1073756160
 2080 0030 00380240 		.word	1073887232
 2081 0034 00200240 		.word	1073881088
 2082 0038 00040240 		.word	1073873920
 2083              		.cfi_endproc
 2084              	.LFE160:
 2086              		.section	.text.HAL_TIM_Base_MspInit,"ax",%progbits
 2087              		.align	1
ARM GAS  C:\Users\Patryk\AppData\Local\Temp\cc1IRkRa.s 			page 68


 2088              		.global	HAL_TIM_Base_MspInit
 2089              		.syntax unified
 2090              		.thumb
 2091              		.thumb_func
 2092              		.fpu fpv5-sp-d16
 2094              	HAL_TIM_Base_MspInit:
 2095              	.LFB161:
 907:Src/stm32f7xx_hal_msp.c **** 
 2096              		.loc 1 907 0
 2097              		.cfi_startproc
 2098              		@ args = 0, pretend = 0, frame = 24
 2099              		@ frame_needed = 0, uses_anonymous_args = 0
 2100              		@ link register save eliminated.
 2101              	.LVL135:
 2102 0000 86B0     		sub	sp, sp, #24
 2103              	.LCFI46:
 2104              		.cfi_def_cfa_offset 24
 909:Src/stm32f7xx_hal_msp.c ****   {
 2105              		.loc 1 909 0
 2106 0002 0368     		ldr	r3, [r0]
 2107 0004 2A4A     		ldr	r2, .L194
 2108 0006 9342     		cmp	r3, r2
 2109 0008 19D0     		beq	.L189
 920:Src/stm32f7xx_hal_msp.c ****   {
 2110              		.loc 1 920 0
 2111 000a B3F1804F 		cmp	r3, #1073741824
 2112 000e 22D0     		beq	.L190
 931:Src/stm32f7xx_hal_msp.c ****   {
 2113              		.loc 1 931 0
 2114 0010 284A     		ldr	r2, .L194+4
 2115 0012 9342     		cmp	r3, r2
 2116 0014 2BD0     		beq	.L191
 942:Src/stm32f7xx_hal_msp.c ****   {
 2117              		.loc 1 942 0
 2118 0016 284A     		ldr	r2, .L194+8
 2119 0018 9342     		cmp	r3, r2
 2120 001a 33D0     		beq	.L192
 953:Src/stm32f7xx_hal_msp.c ****   {
 2121              		.loc 1 953 0
 2122 001c 274A     		ldr	r2, .L194+12
 2123 001e 9342     		cmp	r3, r2
 2124 0020 3BD0     		beq	.L193
 964:Src/stm32f7xx_hal_msp.c ****   {
 2125              		.loc 1 964 0
 2126 0022 274A     		ldr	r2, .L194+16
 2127 0024 9342     		cmp	r3, r2
 2128 0026 14D1     		bne	.L181
 2129              	.LBB16:
 970:Src/stm32f7xx_hal_msp.c ****   /* USER CODE BEGIN TIM8_MspInit 1 */
 2130              		.loc 1 970 0
 2131 0028 264B     		ldr	r3, .L194+20
 2132 002a 5A6C     		ldr	r2, [r3, #68]
 2133 002c 42F00202 		orr	r2, r2, #2
 2134 0030 5A64     		str	r2, [r3, #68]
 2135 0032 5B6C     		ldr	r3, [r3, #68]
 2136 0034 03F00203 		and	r3, r3, #2
 2137 0038 0593     		str	r3, [sp, #20]
ARM GAS  C:\Users\Patryk\AppData\Local\Temp\cc1IRkRa.s 			page 69


 2138 003a 059B     		ldr	r3, [sp, #20]
 2139              	.LBE16:
 976:Src/stm32f7xx_hal_msp.c **** 
 2140              		.loc 1 976 0
 2141 003c 09E0     		b	.L181
 2142              	.L189:
 2143              	.LBB17:
 915:Src/stm32f7xx_hal_msp.c ****   /* USER CODE BEGIN TIM1_MspInit 1 */
 2144              		.loc 1 915 0
 2145 003e 214B     		ldr	r3, .L194+20
 2146 0040 5A6C     		ldr	r2, [r3, #68]
 2147 0042 42F00102 		orr	r2, r2, #1
 2148 0046 5A64     		str	r2, [r3, #68]
 2149 0048 5B6C     		ldr	r3, [r3, #68]
 2150 004a 03F00103 		and	r3, r3, #1
 2151 004e 0093     		str	r3, [sp]
 2152 0050 009B     		ldr	r3, [sp]
 2153              	.L181:
 2154              	.LBE17:
 976:Src/stm32f7xx_hal_msp.c **** 
 2155              		.loc 1 976 0
 2156 0052 06B0     		add	sp, sp, #24
 2157              	.LCFI47:
 2158              		.cfi_remember_state
 2159              		.cfi_def_cfa_offset 0
 2160              		@ sp needed
 2161 0054 7047     		bx	lr
 2162              	.L190:
 2163              	.LCFI48:
 2164              		.cfi_restore_state
 2165              	.LBB18:
 926:Src/stm32f7xx_hal_msp.c ****   /* USER CODE BEGIN TIM2_MspInit 1 */
 2166              		.loc 1 926 0
 2167 0056 03F50E33 		add	r3, r3, #145408
 2168 005a 1A6C     		ldr	r2, [r3, #64]
 2169 005c 42F00102 		orr	r2, r2, #1
 2170 0060 1A64     		str	r2, [r3, #64]
 2171 0062 1B6C     		ldr	r3, [r3, #64]
 2172 0064 03F00103 		and	r3, r3, #1
 2173 0068 0193     		str	r3, [sp, #4]
 2174 006a 019B     		ldr	r3, [sp, #4]
 2175              	.LBE18:
 2176 006c F1E7     		b	.L181
 2177              	.L191:
 2178              	.LBB19:
 937:Src/stm32f7xx_hal_msp.c ****   /* USER CODE BEGIN TIM3_MspInit 1 */
 2179              		.loc 1 937 0
 2180 006e 154B     		ldr	r3, .L194+20
 2181 0070 1A6C     		ldr	r2, [r3, #64]
 2182 0072 42F00202 		orr	r2, r2, #2
 2183 0076 1A64     		str	r2, [r3, #64]
 2184 0078 1B6C     		ldr	r3, [r3, #64]
 2185 007a 03F00203 		and	r3, r3, #2
 2186 007e 0293     		str	r3, [sp, #8]
 2187 0080 029B     		ldr	r3, [sp, #8]
 2188              	.LBE19:
 2189 0082 E6E7     		b	.L181
ARM GAS  C:\Users\Patryk\AppData\Local\Temp\cc1IRkRa.s 			page 70


 2190              	.L192:
 2191              	.LBB20:
 948:Src/stm32f7xx_hal_msp.c ****   /* USER CODE BEGIN TIM5_MspInit 1 */
 2192              		.loc 1 948 0
 2193 0084 0F4B     		ldr	r3, .L194+20
 2194 0086 1A6C     		ldr	r2, [r3, #64]
 2195 0088 42F00802 		orr	r2, r2, #8
 2196 008c 1A64     		str	r2, [r3, #64]
 2197 008e 1B6C     		ldr	r3, [r3, #64]
 2198 0090 03F00803 		and	r3, r3, #8
 2199 0094 0393     		str	r3, [sp, #12]
 2200 0096 039B     		ldr	r3, [sp, #12]
 2201              	.LBE20:
 2202 0098 DBE7     		b	.L181
 2203              	.L193:
 2204              	.LBB21:
 959:Src/stm32f7xx_hal_msp.c ****   /* USER CODE BEGIN TIM7_MspInit 1 */
 2205              		.loc 1 959 0
 2206 009a 0A4B     		ldr	r3, .L194+20
 2207 009c 1A6C     		ldr	r2, [r3, #64]
 2208 009e 42F02002 		orr	r2, r2, #32
 2209 00a2 1A64     		str	r2, [r3, #64]
 2210 00a4 1B6C     		ldr	r3, [r3, #64]
 2211 00a6 03F02003 		and	r3, r3, #32
 2212 00aa 0493     		str	r3, [sp, #16]
 2213 00ac 049B     		ldr	r3, [sp, #16]
 2214              	.LBE21:
 2215 00ae D0E7     		b	.L181
 2216              	.L195:
 2217              		.align	2
 2218              	.L194:
 2219 00b0 00000140 		.word	1073807360
 2220 00b4 00040040 		.word	1073742848
 2221 00b8 000C0040 		.word	1073744896
 2222 00bc 00140040 		.word	1073746944
 2223 00c0 00040140 		.word	1073808384
 2224 00c4 00380240 		.word	1073887232
 2225              		.cfi_endproc
 2226              	.LFE161:
 2228              		.section	.text.HAL_TIM_PWM_MspInit,"ax",%progbits
 2229              		.align	1
 2230              		.global	HAL_TIM_PWM_MspInit
 2231              		.syntax unified
 2232              		.thumb
 2233              		.thumb_func
 2234              		.fpu fpv5-sp-d16
 2236              	HAL_TIM_PWM_MspInit:
 2237              	.LFB162:
 979:Src/stm32f7xx_hal_msp.c **** 
 2238              		.loc 1 979 0
 2239              		.cfi_startproc
 2240              		@ args = 0, pretend = 0, frame = 8
 2241              		@ frame_needed = 0, uses_anonymous_args = 0
 2242              		@ link register save eliminated.
 2243              	.LVL136:
 981:Src/stm32f7xx_hal_msp.c ****   {
 2244              		.loc 1 981 0
ARM GAS  C:\Users\Patryk\AppData\Local\Temp\cc1IRkRa.s 			page 71


 2245 0000 0268     		ldr	r2, [r0]
 2246 0002 094B     		ldr	r3, .L203
 2247 0004 9A42     		cmp	r2, r3
 2248 0006 00D0     		beq	.L202
 2249 0008 7047     		bx	lr
 2250              	.L202:
 979:Src/stm32f7xx_hal_msp.c **** 
 2251              		.loc 1 979 0
 2252 000a 82B0     		sub	sp, sp, #8
 2253              	.LCFI49:
 2254              		.cfi_def_cfa_offset 8
 2255              	.LBB22:
 987:Src/stm32f7xx_hal_msp.c ****   /* USER CODE BEGIN TIM12_MspInit 1 */
 2256              		.loc 1 987 0
 2257 000c 03F50833 		add	r3, r3, #139264
 2258 0010 1A6C     		ldr	r2, [r3, #64]
 2259 0012 42F04002 		orr	r2, r2, #64
 2260 0016 1A64     		str	r2, [r3, #64]
 2261 0018 1B6C     		ldr	r3, [r3, #64]
 2262 001a 03F04003 		and	r3, r3, #64
 2263 001e 0193     		str	r3, [sp, #4]
 2264 0020 019B     		ldr	r3, [sp, #4]
 2265              	.LBE22:
 993:Src/stm32f7xx_hal_msp.c **** 
 2266              		.loc 1 993 0
 2267 0022 02B0     		add	sp, sp, #8
 2268              	.LCFI50:
 2269              		.cfi_def_cfa_offset 0
 2270              		@ sp needed
 2271 0024 7047     		bx	lr
 2272              	.L204:
 2273 0026 00BF     		.align	2
 2274              	.L203:
 2275 0028 00180040 		.word	1073747968
 2276              		.cfi_endproc
 2277              	.LFE162:
 2279              		.section	.text.HAL_TIM_MspPostInit,"ax",%progbits
 2280              		.align	1
 2281              		.global	HAL_TIM_MspPostInit
 2282              		.syntax unified
 2283              		.thumb
 2284              		.thumb_func
 2285              		.fpu fpv5-sp-d16
 2287              	HAL_TIM_MspPostInit:
 2288              	.LFB163:
 996:Src/stm32f7xx_hal_msp.c **** 
 2289              		.loc 1 996 0
 2290              		.cfi_startproc
 2291              		@ args = 0, pretend = 0, frame = 24
 2292              		@ frame_needed = 0, uses_anonymous_args = 0
 2293              	.LVL137:
 2294 0000 00B5     		push	{lr}
 2295              	.LCFI51:
 2296              		.cfi_def_cfa_offset 4
 2297              		.cfi_offset 14, -4
 2298 0002 87B0     		sub	sp, sp, #28
 2299              	.LCFI52:
ARM GAS  C:\Users\Patryk\AppData\Local\Temp\cc1IRkRa.s 			page 72


 2300              		.cfi_def_cfa_offset 32
 999:Src/stm32f7xx_hal_msp.c ****   {
 2301              		.loc 1 999 0
 2302 0004 0368     		ldr	r3, [r0]
 2303 0006 2C4A     		ldr	r2, .L217
 2304 0008 9342     		cmp	r3, r2
 2305 000a 0ED0     		beq	.L212
1018:Src/stm32f7xx_hal_msp.c ****   {
 2306              		.loc 1 1018 0
 2307 000c B3F1804F 		cmp	r3, #1073741824
 2308 0010 1AD0     		beq	.L213
1038:Src/stm32f7xx_hal_msp.c ****   {
 2309              		.loc 1 1038 0
 2310 0012 2A4A     		ldr	r2, .L217+4
 2311 0014 9342     		cmp	r3, r2
 2312 0016 26D0     		beq	.L214
1058:Src/stm32f7xx_hal_msp.c ****   {
 2313              		.loc 1 1058 0
 2314 0018 294A     		ldr	r2, .L217+8
 2315 001a 9342     		cmp	r3, r2
 2316 001c 30D0     		beq	.L215
1078:Src/stm32f7xx_hal_msp.c ****   {
 2317              		.loc 1 1078 0
 2318 001e 294A     		ldr	r2, .L217+12
 2319 0020 9342     		cmp	r3, r2
 2320 0022 3AD0     		beq	.L216
 2321              	.LVL138:
 2322              	.L205:
1099:Src/stm32f7xx_hal_msp.c **** 
 2323              		.loc 1 1099 0
 2324 0024 07B0     		add	sp, sp, #28
 2325              	.LCFI53:
 2326              		.cfi_remember_state
 2327              		.cfi_def_cfa_offset 4
 2328              		@ sp needed
 2329 0026 5DF804FB 		ldr	pc, [sp], #4
 2330              	.LVL139:
 2331              	.L212:
 2332              	.LCFI54:
 2333              		.cfi_restore_state
1007:Src/stm32f7xx_hal_msp.c ****     GPIO_InitStruct.Mode = GPIO_MODE_AF_PP;
 2334              		.loc 1 1007 0
 2335 002a 4FF48073 		mov	r3, #256
 2336 002e 0193     		str	r3, [sp, #4]
1008:Src/stm32f7xx_hal_msp.c ****     GPIO_InitStruct.Pull = GPIO_NOPULL;
 2337              		.loc 1 1008 0
 2338 0030 0223     		movs	r3, #2
 2339 0032 0293     		str	r3, [sp, #8]
1009:Src/stm32f7xx_hal_msp.c ****     GPIO_InitStruct.Speed = GPIO_SPEED_FREQ_LOW;
 2340              		.loc 1 1009 0
 2341 0034 0023     		movs	r3, #0
 2342 0036 0393     		str	r3, [sp, #12]
1010:Src/stm32f7xx_hal_msp.c ****     GPIO_InitStruct.Alternate = GPIO_AF1_TIM1;
 2343              		.loc 1 1010 0
 2344 0038 0493     		str	r3, [sp, #16]
1011:Src/stm32f7xx_hal_msp.c ****     HAL_GPIO_Init(ARDUINO_PWM_D10_GPIO_Port, &GPIO_InitStruct);
 2345              		.loc 1 1011 0
ARM GAS  C:\Users\Patryk\AppData\Local\Temp\cc1IRkRa.s 			page 73


 2346 003a 0123     		movs	r3, #1
 2347 003c 0593     		str	r3, [sp, #20]
1012:Src/stm32f7xx_hal_msp.c **** 
 2348              		.loc 1 1012 0
 2349 003e 01A9     		add	r1, sp, #4
 2350 0040 2148     		ldr	r0, .L217+16
 2351              	.LVL140:
 2352 0042 FFF7FEFF 		bl	HAL_GPIO_Init
 2353              	.LVL141:
 2354 0046 EDE7     		b	.L205
 2355              	.LVL142:
 2356              	.L213:
1027:Src/stm32f7xx_hal_msp.c ****     GPIO_InitStruct.Mode = GPIO_MODE_AF_PP;
 2357              		.loc 1 1027 0
 2358 0048 4FF40043 		mov	r3, #32768
 2359 004c 0193     		str	r3, [sp, #4]
1028:Src/stm32f7xx_hal_msp.c ****     GPIO_InitStruct.Pull = GPIO_NOPULL;
 2360              		.loc 1 1028 0
 2361 004e 0223     		movs	r3, #2
 2362 0050 0293     		str	r3, [sp, #8]
1029:Src/stm32f7xx_hal_msp.c ****     GPIO_InitStruct.Speed = GPIO_SPEED_FREQ_LOW;
 2363              		.loc 1 1029 0
 2364 0052 0023     		movs	r3, #0
 2365 0054 0393     		str	r3, [sp, #12]
1030:Src/stm32f7xx_hal_msp.c ****     GPIO_InitStruct.Alternate = GPIO_AF1_TIM2;
 2366              		.loc 1 1030 0
 2367 0056 0493     		str	r3, [sp, #16]
1031:Src/stm32f7xx_hal_msp.c ****     HAL_GPIO_Init(ARDUINO_PWM_D9_GPIO_Port, &GPIO_InitStruct);
 2368              		.loc 1 1031 0
 2369 0058 0123     		movs	r3, #1
 2370 005a 0593     		str	r3, [sp, #20]
1032:Src/stm32f7xx_hal_msp.c **** 
 2371              		.loc 1 1032 0
 2372 005c 01A9     		add	r1, sp, #4
 2373 005e 1A48     		ldr	r0, .L217+16
 2374              	.LVL143:
 2375 0060 FFF7FEFF 		bl	HAL_GPIO_Init
 2376              	.LVL144:
 2377 0064 DEE7     		b	.L205
 2378              	.LVL145:
 2379              	.L214:
1047:Src/stm32f7xx_hal_msp.c ****     GPIO_InitStruct.Mode = GPIO_MODE_AF_PP;
 2380              		.loc 1 1047 0
 2381 0066 1023     		movs	r3, #16
 2382 0068 0193     		str	r3, [sp, #4]
1048:Src/stm32f7xx_hal_msp.c ****     GPIO_InitStruct.Pull = GPIO_NOPULL;
 2383              		.loc 1 1048 0
 2384 006a 0223     		movs	r3, #2
 2385 006c 0293     		str	r3, [sp, #8]
1049:Src/stm32f7xx_hal_msp.c ****     GPIO_InitStruct.Speed = GPIO_SPEED_FREQ_LOW;
 2386              		.loc 1 1049 0
 2387 006e 0022     		movs	r2, #0
 2388 0070 0392     		str	r2, [sp, #12]
1050:Src/stm32f7xx_hal_msp.c ****     GPIO_InitStruct.Alternate = GPIO_AF2_TIM3;
 2389              		.loc 1 1050 0
 2390 0072 0492     		str	r2, [sp, #16]
1051:Src/stm32f7xx_hal_msp.c ****     HAL_GPIO_Init(ARDUINO_PWM_D3_GPIO_Port, &GPIO_InitStruct);
ARM GAS  C:\Users\Patryk\AppData\Local\Temp\cc1IRkRa.s 			page 74


 2391              		.loc 1 1051 0
 2392 0074 0593     		str	r3, [sp, #20]
1052:Src/stm32f7xx_hal_msp.c **** 
 2393              		.loc 1 1052 0
 2394 0076 01A9     		add	r1, sp, #4
 2395 0078 1448     		ldr	r0, .L217+20
 2396              	.LVL146:
 2397 007a FFF7FEFF 		bl	HAL_GPIO_Init
 2398              	.LVL147:
 2399 007e D1E7     		b	.L205
 2400              	.LVL148:
 2401              	.L215:
1067:Src/stm32f7xx_hal_msp.c ****     GPIO_InitStruct.Mode = GPIO_MODE_AF_PP;
 2402              		.loc 1 1067 0
 2403 0080 0123     		movs	r3, #1
 2404 0082 0193     		str	r3, [sp, #4]
1068:Src/stm32f7xx_hal_msp.c ****     GPIO_InitStruct.Pull = GPIO_NOPULL;
 2405              		.loc 1 1068 0
 2406 0084 0223     		movs	r3, #2
 2407 0086 0293     		str	r3, [sp, #8]
1069:Src/stm32f7xx_hal_msp.c ****     GPIO_InitStruct.Speed = GPIO_SPEED_FREQ_LOW;
 2408              		.loc 1 1069 0
 2409 0088 0022     		movs	r2, #0
 2410 008a 0392     		str	r2, [sp, #12]
1070:Src/stm32f7xx_hal_msp.c ****     GPIO_InitStruct.Alternate = GPIO_AF2_TIM5;
 2411              		.loc 1 1070 0
 2412 008c 0492     		str	r2, [sp, #16]
1071:Src/stm32f7xx_hal_msp.c ****     HAL_GPIO_Init(ARDUINO_PWM_CS_D5_GPIO_Port, &GPIO_InitStruct);
 2413              		.loc 1 1071 0
 2414 008e 0593     		str	r3, [sp, #20]
1072:Src/stm32f7xx_hal_msp.c **** 
 2415              		.loc 1 1072 0
 2416 0090 01A9     		add	r1, sp, #4
 2417 0092 0F48     		ldr	r0, .L217+24
 2418              	.LVL149:
 2419 0094 FFF7FEFF 		bl	HAL_GPIO_Init
 2420              	.LVL150:
 2421 0098 C4E7     		b	.L205
 2422              	.LVL151:
 2423              	.L216:
1087:Src/stm32f7xx_hal_msp.c ****     GPIO_InitStruct.Mode = GPIO_MODE_AF_PP;
 2424              		.loc 1 1087 0
 2425 009a 4023     		movs	r3, #64
 2426 009c 0193     		str	r3, [sp, #4]
1088:Src/stm32f7xx_hal_msp.c ****     GPIO_InitStruct.Pull = GPIO_NOPULL;
 2427              		.loc 1 1088 0
 2428 009e 0223     		movs	r3, #2
 2429 00a0 0293     		str	r3, [sp, #8]
1089:Src/stm32f7xx_hal_msp.c ****     GPIO_InitStruct.Speed = GPIO_SPEED_FREQ_LOW;
 2430              		.loc 1 1089 0
 2431 00a2 0023     		movs	r3, #0
 2432 00a4 0393     		str	r3, [sp, #12]
1090:Src/stm32f7xx_hal_msp.c ****     GPIO_InitStruct.Alternate = GPIO_AF9_TIM12;
 2433              		.loc 1 1090 0
 2434 00a6 0493     		str	r3, [sp, #16]
1091:Src/stm32f7xx_hal_msp.c ****     HAL_GPIO_Init(ARDUINO_PWM_D6_GPIO_Port, &GPIO_InitStruct);
 2435              		.loc 1 1091 0
ARM GAS  C:\Users\Patryk\AppData\Local\Temp\cc1IRkRa.s 			page 75


 2436 00a8 0923     		movs	r3, #9
 2437 00aa 0593     		str	r3, [sp, #20]
1092:Src/stm32f7xx_hal_msp.c **** 
 2438              		.loc 1 1092 0
 2439 00ac 01A9     		add	r1, sp, #4
 2440 00ae 0948     		ldr	r0, .L217+28
 2441              	.LVL152:
 2442 00b0 FFF7FEFF 		bl	HAL_GPIO_Init
 2443              	.LVL153:
1099:Src/stm32f7xx_hal_msp.c **** 
 2444              		.loc 1 1099 0
 2445 00b4 B6E7     		b	.L205
 2446              	.L218:
 2447 00b6 00BF     		.align	2
 2448              	.L217:
 2449 00b8 00000140 		.word	1073807360
 2450 00bc 00040040 		.word	1073742848
 2451 00c0 000C0040 		.word	1073744896
 2452 00c4 00180040 		.word	1073747968
 2453 00c8 00000240 		.word	1073872896
 2454 00cc 00040240 		.word	1073873920
 2455 00d0 00200240 		.word	1073881088
 2456 00d4 001C0240 		.word	1073880064
 2457              		.cfi_endproc
 2458              	.LFE163:
 2460              		.section	.text.HAL_TIM_Base_MspDeInit,"ax",%progbits
 2461              		.align	1
 2462              		.global	HAL_TIM_Base_MspDeInit
 2463              		.syntax unified
 2464              		.thumb
 2465              		.thumb_func
 2466              		.fpu fpv5-sp-d16
 2468              	HAL_TIM_Base_MspDeInit:
 2469              	.LFB164:
1102:Src/stm32f7xx_hal_msp.c **** 
 2470              		.loc 1 1102 0
 2471              		.cfi_startproc
 2472              		@ args = 0, pretend = 0, frame = 0
 2473              		@ frame_needed = 0, uses_anonymous_args = 0
 2474              		@ link register save eliminated.
 2475              	.LVL154:
1104:Src/stm32f7xx_hal_msp.c ****   {
 2476              		.loc 1 1104 0
 2477 0000 0368     		ldr	r3, [r0]
 2478 0002 1E4A     		ldr	r2, .L232
 2479 0004 9342     		cmp	r3, r2
 2480 0006 0FD0     		beq	.L226
1115:Src/stm32f7xx_hal_msp.c ****   {
 2481              		.loc 1 1115 0
 2482 0008 B3F1804F 		cmp	r3, #1073741824
 2483 000c 13D0     		beq	.L227
1126:Src/stm32f7xx_hal_msp.c ****   {
 2484              		.loc 1 1126 0
 2485 000e 1C4A     		ldr	r2, .L232+4
 2486 0010 9342     		cmp	r3, r2
 2487 0012 16D0     		beq	.L228
1137:Src/stm32f7xx_hal_msp.c ****   {
ARM GAS  C:\Users\Patryk\AppData\Local\Temp\cc1IRkRa.s 			page 76


 2488              		.loc 1 1137 0
 2489 0014 1B4A     		ldr	r2, .L232+8
 2490 0016 9342     		cmp	r3, r2
 2491 0018 1AD0     		beq	.L229
1148:Src/stm32f7xx_hal_msp.c ****   {
 2492              		.loc 1 1148 0
 2493 001a 1B4A     		ldr	r2, .L232+12
 2494 001c 9342     		cmp	r3, r2
 2495 001e 1ED0     		beq	.L230
1159:Src/stm32f7xx_hal_msp.c ****   {
 2496              		.loc 1 1159 0
 2497 0020 1A4A     		ldr	r2, .L232+16
 2498 0022 9342     		cmp	r3, r2
 2499 0024 22D0     		beq	.L231
 2500              	.L219:
1171:Src/stm32f7xx_hal_msp.c **** 
 2501              		.loc 1 1171 0
 2502 0026 7047     		bx	lr
 2503              	.L226:
1110:Src/stm32f7xx_hal_msp.c ****   /* USER CODE BEGIN TIM1_MspDeInit 1 */
 2504              		.loc 1 1110 0
 2505 0028 02F59C32 		add	r2, r2, #79872
 2506 002c 536C     		ldr	r3, [r2, #68]
 2507 002e 23F00103 		bic	r3, r3, #1
 2508 0032 5364     		str	r3, [r2, #68]
 2509 0034 7047     		bx	lr
 2510              	.L227:
1121:Src/stm32f7xx_hal_msp.c ****   /* USER CODE BEGIN TIM2_MspDeInit 1 */
 2511              		.loc 1 1121 0
 2512 0036 164A     		ldr	r2, .L232+20
 2513 0038 136C     		ldr	r3, [r2, #64]
 2514 003a 23F00103 		bic	r3, r3, #1
 2515 003e 1364     		str	r3, [r2, #64]
 2516 0040 7047     		bx	lr
 2517              	.L228:
1132:Src/stm32f7xx_hal_msp.c ****   /* USER CODE BEGIN TIM3_MspDeInit 1 */
 2518              		.loc 1 1132 0
 2519 0042 02F50D32 		add	r2, r2, #144384
 2520 0046 136C     		ldr	r3, [r2, #64]
 2521 0048 23F00203 		bic	r3, r3, #2
 2522 004c 1364     		str	r3, [r2, #64]
 2523 004e 7047     		bx	lr
 2524              	.L229:
1143:Src/stm32f7xx_hal_msp.c ****   /* USER CODE BEGIN TIM5_MspDeInit 1 */
 2525              		.loc 1 1143 0
 2526 0050 02F50B32 		add	r2, r2, #142336
 2527 0054 136C     		ldr	r3, [r2, #64]
 2528 0056 23F00803 		bic	r3, r3, #8
 2529 005a 1364     		str	r3, [r2, #64]
 2530 005c 7047     		bx	lr
 2531              	.L230:
1154:Src/stm32f7xx_hal_msp.c ****   /* USER CODE BEGIN TIM7_MspDeInit 1 */
 2532              		.loc 1 1154 0
 2533 005e 02F50932 		add	r2, r2, #140288
 2534 0062 136C     		ldr	r3, [r2, #64]
 2535 0064 23F02003 		bic	r3, r3, #32
 2536 0068 1364     		str	r3, [r2, #64]
ARM GAS  C:\Users\Patryk\AppData\Local\Temp\cc1IRkRa.s 			page 77


 2537 006a 7047     		bx	lr
 2538              	.L231:
1165:Src/stm32f7xx_hal_msp.c ****   /* USER CODE BEGIN TIM8_MspDeInit 1 */
 2539              		.loc 1 1165 0
 2540 006c 02F59A32 		add	r2, r2, #78848
 2541 0070 536C     		ldr	r3, [r2, #68]
 2542 0072 23F00203 		bic	r3, r3, #2
 2543 0076 5364     		str	r3, [r2, #68]
1171:Src/stm32f7xx_hal_msp.c **** 
 2544              		.loc 1 1171 0
 2545 0078 D5E7     		b	.L219
 2546              	.L233:
 2547 007a 00BF     		.align	2
 2548              	.L232:
 2549 007c 00000140 		.word	1073807360
 2550 0080 00040040 		.word	1073742848
 2551 0084 000C0040 		.word	1073744896
 2552 0088 00140040 		.word	1073746944
 2553 008c 00040140 		.word	1073808384
 2554 0090 00380240 		.word	1073887232
 2555              		.cfi_endproc
 2556              	.LFE164:
 2558              		.section	.text.HAL_TIM_PWM_MspDeInit,"ax",%progbits
 2559              		.align	1
 2560              		.global	HAL_TIM_PWM_MspDeInit
 2561              		.syntax unified
 2562              		.thumb
 2563              		.thumb_func
 2564              		.fpu fpv5-sp-d16
 2566              	HAL_TIM_PWM_MspDeInit:
 2567              	.LFB165:
1174:Src/stm32f7xx_hal_msp.c **** 
 2568              		.loc 1 1174 0
 2569              		.cfi_startproc
 2570              		@ args = 0, pretend = 0, frame = 0
 2571              		@ frame_needed = 0, uses_anonymous_args = 0
 2572              		@ link register save eliminated.
 2573              	.LVL155:
1176:Src/stm32f7xx_hal_msp.c ****   {
 2574              		.loc 1 1176 0
 2575 0000 0268     		ldr	r2, [r0]
 2576 0002 054B     		ldr	r3, .L237
 2577 0004 9A42     		cmp	r2, r3
 2578 0006 00D0     		beq	.L236
 2579              	.L234:
1188:Src/stm32f7xx_hal_msp.c **** 
 2580              		.loc 1 1188 0
 2581 0008 7047     		bx	lr
 2582              	.L236:
1182:Src/stm32f7xx_hal_msp.c ****   /* USER CODE BEGIN TIM12_MspDeInit 1 */
 2583              		.loc 1 1182 0
 2584 000a 044A     		ldr	r2, .L237+4
 2585 000c 136C     		ldr	r3, [r2, #64]
 2586 000e 23F04003 		bic	r3, r3, #64
 2587 0012 1364     		str	r3, [r2, #64]
1188:Src/stm32f7xx_hal_msp.c **** 
 2588              		.loc 1 1188 0
ARM GAS  C:\Users\Patryk\AppData\Local\Temp\cc1IRkRa.s 			page 78


 2589 0014 F8E7     		b	.L234
 2590              	.L238:
 2591 0016 00BF     		.align	2
 2592              	.L237:
 2593 0018 00180040 		.word	1073747968
 2594 001c 00380240 		.word	1073887232
 2595              		.cfi_endproc
 2596              	.LFE165:
 2598              		.section	.text.HAL_UART_MspInit,"ax",%progbits
 2599              		.align	1
 2600              		.global	HAL_UART_MspInit
 2601              		.syntax unified
 2602              		.thumb
 2603              		.thumb_func
 2604              		.fpu fpv5-sp-d16
 2606              	HAL_UART_MspInit:
 2607              	.LFB166:
1191:Src/stm32f7xx_hal_msp.c **** 
 2608              		.loc 1 1191 0
 2609              		.cfi_startproc
 2610              		@ args = 0, pretend = 0, frame = 32
 2611              		@ frame_needed = 0, uses_anonymous_args = 0
 2612              	.LVL156:
 2613 0000 70B5     		push	{r4, r5, r6, lr}
 2614              	.LCFI55:
 2615              		.cfi_def_cfa_offset 16
 2616              		.cfi_offset 4, -16
 2617              		.cfi_offset 5, -12
 2618              		.cfi_offset 6, -8
 2619              		.cfi_offset 14, -4
 2620 0002 88B0     		sub	sp, sp, #32
 2621              	.LCFI56:
 2622              		.cfi_def_cfa_offset 48
1194:Src/stm32f7xx_hal_msp.c ****   {
 2623              		.loc 1 1194 0
 2624 0004 0368     		ldr	r3, [r0]
 2625 0006 224A     		ldr	r2, .L245
 2626 0008 9342     		cmp	r3, r2
 2627 000a 04D0     		beq	.L243
1224:Src/stm32f7xx_hal_msp.c ****   {
 2628              		.loc 1 1224 0
 2629 000c 214A     		ldr	r2, .L245+4
 2630 000e 9342     		cmp	r3, r2
 2631 0010 24D0     		beq	.L244
 2632              	.LVL157:
 2633              	.L239:
1248:Src/stm32f7xx_hal_msp.c **** 
 2634              		.loc 1 1248 0
 2635 0012 08B0     		add	sp, sp, #32
 2636              	.LCFI57:
 2637              		.cfi_remember_state
 2638              		.cfi_def_cfa_offset 16
 2639              		@ sp needed
 2640 0014 70BD     		pop	{r4, r5, r6, pc}
 2641              	.LVL158:
 2642              	.L243:
 2643              	.LCFI58:
ARM GAS  C:\Users\Patryk\AppData\Local\Temp\cc1IRkRa.s 			page 79


 2644              		.cfi_restore_state
 2645              	.LBB23:
1200:Src/stm32f7xx_hal_msp.c ****   
 2646              		.loc 1 1200 0
 2647 0016 204B     		ldr	r3, .L245+8
 2648 0018 5A6C     		ldr	r2, [r3, #68]
 2649 001a 42F01002 		orr	r2, r2, #16
 2650 001e 5A64     		str	r2, [r3, #68]
 2651 0020 5B6C     		ldr	r3, [r3, #68]
 2652 0022 03F01003 		and	r3, r3, #16
 2653 0026 0193     		str	r3, [sp, #4]
 2654 0028 019B     		ldr	r3, [sp, #4]
 2655              	.LBE23:
1206:Src/stm32f7xx_hal_msp.c ****     GPIO_InitStruct.Mode = GPIO_MODE_AF_PP;
 2656              		.loc 1 1206 0
 2657 002a 8023     		movs	r3, #128
 2658 002c 0393     		str	r3, [sp, #12]
1207:Src/stm32f7xx_hal_msp.c ****     GPIO_InitStruct.Pull = GPIO_NOPULL;
 2659              		.loc 1 1207 0
 2660 002e 0226     		movs	r6, #2
 2661 0030 0496     		str	r6, [sp, #16]
1208:Src/stm32f7xx_hal_msp.c ****     GPIO_InitStruct.Speed = GPIO_SPEED_FREQ_LOW;
 2662              		.loc 1 1208 0
 2663 0032 0024     		movs	r4, #0
 2664 0034 0594     		str	r4, [sp, #20]
1209:Src/stm32f7xx_hal_msp.c ****     GPIO_InitStruct.Alternate = GPIO_AF7_USART1;
 2665              		.loc 1 1209 0
 2666 0036 0694     		str	r4, [sp, #24]
1210:Src/stm32f7xx_hal_msp.c ****     HAL_GPIO_Init(VCP_RX_GPIO_Port, &GPIO_InitStruct);
 2667              		.loc 1 1210 0
 2668 0038 0725     		movs	r5, #7
 2669 003a 0795     		str	r5, [sp, #28]
1211:Src/stm32f7xx_hal_msp.c **** 
 2670              		.loc 1 1211 0
 2671 003c 03A9     		add	r1, sp, #12
 2672 003e 1748     		ldr	r0, .L245+12
 2673              	.LVL159:
 2674 0040 FFF7FEFF 		bl	HAL_GPIO_Init
 2675              	.LVL160:
1213:Src/stm32f7xx_hal_msp.c ****     GPIO_InitStruct.Mode = GPIO_MODE_AF_PP;
 2676              		.loc 1 1213 0
 2677 0044 4FF40073 		mov	r3, #512
 2678 0048 0393     		str	r3, [sp, #12]
1214:Src/stm32f7xx_hal_msp.c ****     GPIO_InitStruct.Pull = GPIO_NOPULL;
 2679              		.loc 1 1214 0
 2680 004a 0496     		str	r6, [sp, #16]
1215:Src/stm32f7xx_hal_msp.c ****     GPIO_InitStruct.Speed = GPIO_SPEED_FREQ_LOW;
 2681              		.loc 1 1215 0
 2682 004c 0594     		str	r4, [sp, #20]
1216:Src/stm32f7xx_hal_msp.c ****     GPIO_InitStruct.Alternate = GPIO_AF7_USART1;
 2683              		.loc 1 1216 0
 2684 004e 0694     		str	r4, [sp, #24]
1217:Src/stm32f7xx_hal_msp.c ****     HAL_GPIO_Init(VCP_TX_GPIO_Port, &GPIO_InitStruct);
 2685              		.loc 1 1217 0
 2686 0050 0795     		str	r5, [sp, #28]
1218:Src/stm32f7xx_hal_msp.c **** 
 2687              		.loc 1 1218 0
ARM GAS  C:\Users\Patryk\AppData\Local\Temp\cc1IRkRa.s 			page 80


 2688 0052 03A9     		add	r1, sp, #12
 2689 0054 1248     		ldr	r0, .L245+16
 2690 0056 FFF7FEFF 		bl	HAL_GPIO_Init
 2691              	.LVL161:
 2692 005a DAE7     		b	.L239
 2693              	.LVL162:
 2694              	.L244:
 2695              	.LBB24:
1230:Src/stm32f7xx_hal_msp.c ****   
 2696              		.loc 1 1230 0
 2697 005c 0E4B     		ldr	r3, .L245+8
 2698 005e 5A6C     		ldr	r2, [r3, #68]
 2699 0060 42F02002 		orr	r2, r2, #32
 2700 0064 5A64     		str	r2, [r3, #68]
 2701 0066 5B6C     		ldr	r3, [r3, #68]
 2702 0068 03F02003 		and	r3, r3, #32
 2703 006c 0293     		str	r3, [sp, #8]
 2704 006e 029B     		ldr	r3, [sp, #8]
 2705              	.LBE24:
1236:Src/stm32f7xx_hal_msp.c ****     GPIO_InitStruct.Mode = GPIO_MODE_AF_PP;
 2706              		.loc 1 1236 0
 2707 0070 C023     		movs	r3, #192
 2708 0072 0393     		str	r3, [sp, #12]
1237:Src/stm32f7xx_hal_msp.c ****     GPIO_InitStruct.Pull = GPIO_NOPULL;
 2709              		.loc 1 1237 0
 2710 0074 0223     		movs	r3, #2
 2711 0076 0493     		str	r3, [sp, #16]
1238:Src/stm32f7xx_hal_msp.c ****     GPIO_InitStruct.Speed = GPIO_SPEED_FREQ_VERY_HIGH;
 2712              		.loc 1 1238 0
 2713 0078 0023     		movs	r3, #0
 2714 007a 0593     		str	r3, [sp, #20]
1239:Src/stm32f7xx_hal_msp.c ****     GPIO_InitStruct.Alternate = GPIO_AF8_USART6;
 2715              		.loc 1 1239 0
 2716 007c 0323     		movs	r3, #3
 2717 007e 0693     		str	r3, [sp, #24]
1240:Src/stm32f7xx_hal_msp.c ****     HAL_GPIO_Init(GPIOC, &GPIO_InitStruct);
 2718              		.loc 1 1240 0
 2719 0080 0823     		movs	r3, #8
 2720 0082 0793     		str	r3, [sp, #28]
1241:Src/stm32f7xx_hal_msp.c **** 
 2721              		.loc 1 1241 0
 2722 0084 03A9     		add	r1, sp, #12
 2723 0086 0748     		ldr	r0, .L245+20
 2724              	.LVL163:
 2725 0088 FFF7FEFF 		bl	HAL_GPIO_Init
 2726              	.LVL164:
1248:Src/stm32f7xx_hal_msp.c **** 
 2727              		.loc 1 1248 0
 2728 008c C1E7     		b	.L239
 2729              	.L246:
 2730 008e 00BF     		.align	2
 2731              	.L245:
 2732 0090 00100140 		.word	1073811456
 2733 0094 00140140 		.word	1073812480
 2734 0098 00380240 		.word	1073887232
 2735 009c 00040240 		.word	1073873920
 2736 00a0 00000240 		.word	1073872896
ARM GAS  C:\Users\Patryk\AppData\Local\Temp\cc1IRkRa.s 			page 81


 2737 00a4 00080240 		.word	1073874944
 2738              		.cfi_endproc
 2739              	.LFE166:
 2741              		.section	.text.HAL_UART_MspDeInit,"ax",%progbits
 2742              		.align	1
 2743              		.global	HAL_UART_MspDeInit
 2744              		.syntax unified
 2745              		.thumb
 2746              		.thumb_func
 2747              		.fpu fpv5-sp-d16
 2749              	HAL_UART_MspDeInit:
 2750              	.LFB167:
1251:Src/stm32f7xx_hal_msp.c **** 
 2751              		.loc 1 1251 0
 2752              		.cfi_startproc
 2753              		@ args = 0, pretend = 0, frame = 0
 2754              		@ frame_needed = 0, uses_anonymous_args = 0
 2755              	.LVL165:
 2756 0000 08B5     		push	{r3, lr}
 2757              	.LCFI59:
 2758              		.cfi_def_cfa_offset 8
 2759              		.cfi_offset 3, -8
 2760              		.cfi_offset 14, -4
1253:Src/stm32f7xx_hal_msp.c ****   {
 2761              		.loc 1 1253 0
 2762 0002 0368     		ldr	r3, [r0]
 2763 0004 104A     		ldr	r2, .L253
 2764 0006 9342     		cmp	r3, r2
 2765 0008 03D0     		beq	.L251
1273:Src/stm32f7xx_hal_msp.c ****   {
 2766              		.loc 1 1273 0
 2767 000a 104A     		ldr	r2, .L253+4
 2768 000c 9342     		cmp	r3, r2
 2769 000e 10D0     		beq	.L252
 2770              	.LVL166:
 2771              	.L247:
1292:Src/stm32f7xx_hal_msp.c **** 
 2772              		.loc 1 1292 0
 2773 0010 08BD     		pop	{r3, pc}
 2774              	.LVL167:
 2775              	.L251:
1259:Src/stm32f7xx_hal_msp.c ****   
 2776              		.loc 1 1259 0
 2777 0012 02F59432 		add	r2, r2, #75776
 2778 0016 536C     		ldr	r3, [r2, #68]
 2779 0018 23F01003 		bic	r3, r3, #16
 2780 001c 5364     		str	r3, [r2, #68]
1265:Src/stm32f7xx_hal_msp.c **** 
 2781              		.loc 1 1265 0
 2782 001e 8021     		movs	r1, #128
 2783 0020 0B48     		ldr	r0, .L253+8
 2784              	.LVL168:
 2785 0022 FFF7FEFF 		bl	HAL_GPIO_DeInit
 2786              	.LVL169:
1267:Src/stm32f7xx_hal_msp.c **** 
 2787              		.loc 1 1267 0
 2788 0026 4FF40071 		mov	r1, #512
ARM GAS  C:\Users\Patryk\AppData\Local\Temp\cc1IRkRa.s 			page 82


 2789 002a 0A48     		ldr	r0, .L253+12
 2790 002c FFF7FEFF 		bl	HAL_GPIO_DeInit
 2791              	.LVL170:
 2792 0030 EEE7     		b	.L247
 2793              	.LVL171:
 2794              	.L252:
1279:Src/stm32f7xx_hal_msp.c ****   
 2795              		.loc 1 1279 0
 2796 0032 02F59232 		add	r2, r2, #74752
 2797 0036 536C     		ldr	r3, [r2, #68]
 2798 0038 23F02003 		bic	r3, r3, #32
 2799 003c 5364     		str	r3, [r2, #68]
1285:Src/stm32f7xx_hal_msp.c **** 
 2800              		.loc 1 1285 0
 2801 003e C021     		movs	r1, #192
 2802 0040 0548     		ldr	r0, .L253+16
 2803              	.LVL172:
 2804 0042 FFF7FEFF 		bl	HAL_GPIO_DeInit
 2805              	.LVL173:
1292:Src/stm32f7xx_hal_msp.c **** 
 2806              		.loc 1 1292 0
 2807 0046 E3E7     		b	.L247
 2808              	.L254:
 2809              		.align	2
 2810              	.L253:
 2811 0048 00100140 		.word	1073811456
 2812 004c 00140140 		.word	1073812480
 2813 0050 00040240 		.word	1073873920
 2814 0054 00000240 		.word	1073872896
 2815 0058 00080240 		.word	1073874944
 2816              		.cfi_endproc
 2817              	.LFE167:
 2819              		.section	.text.HAL_SDRAM_MspInit,"ax",%progbits
 2820              		.align	1
 2821              		.global	HAL_SDRAM_MspInit
 2822              		.syntax unified
 2823              		.thumb
 2824              		.thumb_func
 2825              		.fpu fpv5-sp-d16
 2827              	HAL_SDRAM_MspInit:
 2828              	.LFB169:
1401:Src/stm32f7xx_hal_msp.c ****   /* USER CODE BEGIN SDRAM_MspInit 0 */
 2829              		.loc 1 1401 0
 2830              		.cfi_startproc
 2831              		@ args = 0, pretend = 0, frame = 0
 2832              		@ frame_needed = 0, uses_anonymous_args = 0
 2833              	.LVL174:
 2834 0000 08B5     		push	{r3, lr}
 2835              	.LCFI60:
 2836              		.cfi_def_cfa_offset 8
 2837              		.cfi_offset 3, -8
 2838              		.cfi_offset 14, -4
1405:Src/stm32f7xx_hal_msp.c ****   /* USER CODE BEGIN SDRAM_MspInit 1 */
 2839              		.loc 1 1405 0
 2840 0002 FFF7FEFF 		bl	HAL_FMC_MspInit
 2841              	.LVL175:
1409:Src/stm32f7xx_hal_msp.c **** 
ARM GAS  C:\Users\Patryk\AppData\Local\Temp\cc1IRkRa.s 			page 83


 2842              		.loc 1 1409 0
 2843 0006 08BD     		pop	{r3, pc}
 2844              		.cfi_endproc
 2845              	.LFE169:
 2847              		.section	.text.HAL_SDRAM_MspDeInit,"ax",%progbits
 2848              		.align	1
 2849              		.global	HAL_SDRAM_MspDeInit
 2850              		.syntax unified
 2851              		.thumb
 2852              		.thumb_func
 2853              		.fpu fpv5-sp-d16
 2855              	HAL_SDRAM_MspDeInit:
 2856              	.LFB171:
1486:Src/stm32f7xx_hal_msp.c **** 
1487:Src/stm32f7xx_hal_msp.c **** void HAL_SDRAM_MspDeInit(SDRAM_HandleTypeDef* hsdram){
 2857              		.loc 1 1487 0
 2858              		.cfi_startproc
 2859              		@ args = 0, pretend = 0, frame = 0
 2860              		@ frame_needed = 0, uses_anonymous_args = 0
 2861              	.LVL176:
 2862 0000 08B5     		push	{r3, lr}
 2863              	.LCFI61:
 2864              		.cfi_def_cfa_offset 8
 2865              		.cfi_offset 3, -8
 2866              		.cfi_offset 14, -4
1488:Src/stm32f7xx_hal_msp.c ****   /* USER CODE BEGIN SDRAM_MspDeInit 0 */
1489:Src/stm32f7xx_hal_msp.c **** 
1490:Src/stm32f7xx_hal_msp.c ****   /* USER CODE END SDRAM_MspDeInit 0 */
1491:Src/stm32f7xx_hal_msp.c ****   HAL_FMC_MspDeInit();
 2867              		.loc 1 1491 0
 2868 0002 FFF7FEFF 		bl	HAL_FMC_MspDeInit
 2869              	.LVL177:
1492:Src/stm32f7xx_hal_msp.c ****   /* USER CODE BEGIN SDRAM_MspDeInit 1 */
1493:Src/stm32f7xx_hal_msp.c **** 
1494:Src/stm32f7xx_hal_msp.c ****   /* USER CODE END SDRAM_MspDeInit 1 */
1495:Src/stm32f7xx_hal_msp.c **** }
 2870              		.loc 1 1495 0
 2871 0006 08BD     		pop	{r3, pc}
 2872              		.cfi_endproc
 2873              	.LFE171:
 2875              		.section	.text.HAL_SAI_MspInit,"ax",%progbits
 2876              		.align	1
 2877              		.global	HAL_SAI_MspInit
 2878              		.syntax unified
 2879              		.thumb
 2880              		.thumb_func
 2881              		.fpu fpv5-sp-d16
 2883              	HAL_SAI_MspInit:
 2884              	.LFB172:
1496:Src/stm32f7xx_hal_msp.c **** 
1497:Src/stm32f7xx_hal_msp.c **** static uint32_t SAI2_client =0;
1498:Src/stm32f7xx_hal_msp.c **** 
1499:Src/stm32f7xx_hal_msp.c **** void HAL_SAI_MspInit(SAI_HandleTypeDef* hsai)
1500:Src/stm32f7xx_hal_msp.c **** {
 2885              		.loc 1 1500 0
 2886              		.cfi_startproc
 2887              		@ args = 0, pretend = 0, frame = 32
ARM GAS  C:\Users\Patryk\AppData\Local\Temp\cc1IRkRa.s 			page 84


 2888              		@ frame_needed = 0, uses_anonymous_args = 0
 2889              	.LVL178:
 2890 0000 10B5     		push	{r4, lr}
 2891              	.LCFI62:
 2892              		.cfi_def_cfa_offset 8
 2893              		.cfi_offset 4, -8
 2894              		.cfi_offset 14, -4
 2895 0002 88B0     		sub	sp, sp, #32
 2896              	.LCFI63:
 2897              		.cfi_def_cfa_offset 40
 2898 0004 0446     		mov	r4, r0
1501:Src/stm32f7xx_hal_msp.c **** 
1502:Src/stm32f7xx_hal_msp.c ****   GPIO_InitTypeDef GPIO_InitStruct;
1503:Src/stm32f7xx_hal_msp.c **** /* SAI2 */
1504:Src/stm32f7xx_hal_msp.c ****     if(hsai->Instance==SAI2_Block_A)
 2899              		.loc 1 1504 0
 2900 0006 0268     		ldr	r2, [r0]
 2901 0008 224B     		ldr	r3, .L267
 2902 000a 9A42     		cmp	r2, r3
 2903 000c 05D0     		beq	.L265
 2904              	.LVL179:
 2905              	.L260:
1505:Src/stm32f7xx_hal_msp.c ****     {
1506:Src/stm32f7xx_hal_msp.c ****     /* Peripheral clock enable */
1507:Src/stm32f7xx_hal_msp.c ****     if (SAI2_client == 0)
1508:Src/stm32f7xx_hal_msp.c ****     {
1509:Src/stm32f7xx_hal_msp.c ****        __HAL_RCC_SAI2_CLK_ENABLE();
1510:Src/stm32f7xx_hal_msp.c ****     }
1511:Src/stm32f7xx_hal_msp.c ****     SAI2_client ++;
1512:Src/stm32f7xx_hal_msp.c ****     
1513:Src/stm32f7xx_hal_msp.c ****     /**SAI2_A_Block_A GPIO Configuration    
1514:Src/stm32f7xx_hal_msp.c ****     PI4     ------> SAI2_MCLK_A
1515:Src/stm32f7xx_hal_msp.c ****     PI5     ------> SAI2_SCK_A
1516:Src/stm32f7xx_hal_msp.c ****     PI7     ------> SAI2_FS_A
1517:Src/stm32f7xx_hal_msp.c ****     PI6     ------> SAI2_SD_A 
1518:Src/stm32f7xx_hal_msp.c ****     */
1519:Src/stm32f7xx_hal_msp.c ****     GPIO_InitStruct.Pin = SAI2_MCLKA_Pin|SAI2_SCKA_Pin|SAI2_FSA_Pin|SAI2_SDA_Pin;
1520:Src/stm32f7xx_hal_msp.c ****     GPIO_InitStruct.Mode = GPIO_MODE_AF_PP;
1521:Src/stm32f7xx_hal_msp.c ****     GPIO_InitStruct.Pull = GPIO_NOPULL;
1522:Src/stm32f7xx_hal_msp.c ****     GPIO_InitStruct.Speed = GPIO_SPEED_FREQ_LOW;
1523:Src/stm32f7xx_hal_msp.c ****     GPIO_InitStruct.Alternate = GPIO_AF10_SAI2;
1524:Src/stm32f7xx_hal_msp.c ****     HAL_GPIO_Init(GPIOI, &GPIO_InitStruct);
1525:Src/stm32f7xx_hal_msp.c **** 
1526:Src/stm32f7xx_hal_msp.c ****     }
1527:Src/stm32f7xx_hal_msp.c ****     if(hsai->Instance==SAI2_Block_B)
 2906              		.loc 1 1527 0
 2907 000e 2268     		ldr	r2, [r4]
 2908 0010 214B     		ldr	r3, .L267+4
 2909 0012 9A42     		cmp	r2, r3
 2910 0014 1FD0     		beq	.L266
 2911              	.L259:
1528:Src/stm32f7xx_hal_msp.c ****     {
1529:Src/stm32f7xx_hal_msp.c ****       /* Peripheral clock enable */
1530:Src/stm32f7xx_hal_msp.c ****       if (SAI2_client == 0)
1531:Src/stm32f7xx_hal_msp.c ****       {
1532:Src/stm32f7xx_hal_msp.c ****        __HAL_RCC_SAI2_CLK_ENABLE();
1533:Src/stm32f7xx_hal_msp.c ****       }
ARM GAS  C:\Users\Patryk\AppData\Local\Temp\cc1IRkRa.s 			page 85


1534:Src/stm32f7xx_hal_msp.c ****     SAI2_client ++;
1535:Src/stm32f7xx_hal_msp.c ****     
1536:Src/stm32f7xx_hal_msp.c ****     /**SAI2_B_Block_B GPIO Configuration    
1537:Src/stm32f7xx_hal_msp.c ****     PG10     ------> SAI2_SD_B 
1538:Src/stm32f7xx_hal_msp.c ****     */
1539:Src/stm32f7xx_hal_msp.c ****     GPIO_InitStruct.Pin = SAI2_SDB_Pin;
1540:Src/stm32f7xx_hal_msp.c ****     GPIO_InitStruct.Mode = GPIO_MODE_AF_PP;
1541:Src/stm32f7xx_hal_msp.c ****     GPIO_InitStruct.Pull = GPIO_NOPULL;
1542:Src/stm32f7xx_hal_msp.c ****     GPIO_InitStruct.Speed = GPIO_SPEED_FREQ_LOW;
1543:Src/stm32f7xx_hal_msp.c ****     GPIO_InitStruct.Alternate = GPIO_AF10_SAI2;
1544:Src/stm32f7xx_hal_msp.c ****     HAL_GPIO_Init(SAI2_SDB_GPIO_Port, &GPIO_InitStruct);
1545:Src/stm32f7xx_hal_msp.c **** 
1546:Src/stm32f7xx_hal_msp.c ****     }
1547:Src/stm32f7xx_hal_msp.c **** }
 2912              		.loc 1 1547 0
 2913 0016 08B0     		add	sp, sp, #32
 2914              	.LCFI64:
 2915              		.cfi_remember_state
 2916              		.cfi_def_cfa_offset 8
 2917              		@ sp needed
 2918 0018 10BD     		pop	{r4, pc}
 2919              	.LVL180:
 2920              	.L265:
 2921              	.LCFI65:
 2922              		.cfi_restore_state
1507:Src/stm32f7xx_hal_msp.c ****     {
 2923              		.loc 1 1507 0
 2924 001a 204B     		ldr	r3, .L267+8
 2925 001c 1B68     		ldr	r3, [r3]
 2926 001e 4BB9     		cbnz	r3, .L261
 2927              	.LBB25:
1509:Src/stm32f7xx_hal_msp.c ****     }
 2928              		.loc 1 1509 0
 2929 0020 1F4A     		ldr	r2, .L267+12
 2930 0022 516C     		ldr	r1, [r2, #68]
 2931 0024 41F40001 		orr	r1, r1, #8388608
 2932 0028 5164     		str	r1, [r2, #68]
 2933 002a 526C     		ldr	r2, [r2, #68]
 2934 002c 02F40002 		and	r2, r2, #8388608
 2935 0030 0192     		str	r2, [sp, #4]
 2936 0032 019A     		ldr	r2, [sp, #4]
 2937              	.L261:
 2938              	.LBE25:
1511:Src/stm32f7xx_hal_msp.c ****     
 2939              		.loc 1 1511 0
 2940 0034 0133     		adds	r3, r3, #1
 2941 0036 194A     		ldr	r2, .L267+8
 2942 0038 1360     		str	r3, [r2]
1519:Src/stm32f7xx_hal_msp.c ****     GPIO_InitStruct.Mode = GPIO_MODE_AF_PP;
 2943              		.loc 1 1519 0
 2944 003a F023     		movs	r3, #240
 2945 003c 0393     		str	r3, [sp, #12]
1520:Src/stm32f7xx_hal_msp.c ****     GPIO_InitStruct.Pull = GPIO_NOPULL;
 2946              		.loc 1 1520 0
 2947 003e 0223     		movs	r3, #2
 2948 0040 0493     		str	r3, [sp, #16]
1521:Src/stm32f7xx_hal_msp.c ****     GPIO_InitStruct.Speed = GPIO_SPEED_FREQ_LOW;
ARM GAS  C:\Users\Patryk\AppData\Local\Temp\cc1IRkRa.s 			page 86


 2949              		.loc 1 1521 0
 2950 0042 0023     		movs	r3, #0
 2951 0044 0593     		str	r3, [sp, #20]
1522:Src/stm32f7xx_hal_msp.c ****     GPIO_InitStruct.Alternate = GPIO_AF10_SAI2;
 2952              		.loc 1 1522 0
 2953 0046 0693     		str	r3, [sp, #24]
1523:Src/stm32f7xx_hal_msp.c ****     HAL_GPIO_Init(GPIOI, &GPIO_InitStruct);
 2954              		.loc 1 1523 0
 2955 0048 0A23     		movs	r3, #10
 2956 004a 0793     		str	r3, [sp, #28]
1524:Src/stm32f7xx_hal_msp.c **** 
 2957              		.loc 1 1524 0
 2958 004c 03A9     		add	r1, sp, #12
 2959 004e 1548     		ldr	r0, .L267+16
 2960              	.LVL181:
 2961 0050 FFF7FEFF 		bl	HAL_GPIO_Init
 2962              	.LVL182:
 2963 0054 DBE7     		b	.L260
 2964              	.L266:
1530:Src/stm32f7xx_hal_msp.c ****       {
 2965              		.loc 1 1530 0
 2966 0056 114B     		ldr	r3, .L267+8
 2967 0058 1B68     		ldr	r3, [r3]
 2968 005a 4BB9     		cbnz	r3, .L263
 2969              	.LBB26:
1532:Src/stm32f7xx_hal_msp.c ****       }
 2970              		.loc 1 1532 0
 2971 005c 104A     		ldr	r2, .L267+12
 2972 005e 516C     		ldr	r1, [r2, #68]
 2973 0060 41F40001 		orr	r1, r1, #8388608
 2974 0064 5164     		str	r1, [r2, #68]
 2975 0066 526C     		ldr	r2, [r2, #68]
 2976 0068 02F40002 		and	r2, r2, #8388608
 2977 006c 0292     		str	r2, [sp, #8]
 2978 006e 029A     		ldr	r2, [sp, #8]
 2979              	.L263:
 2980              	.LBE26:
1534:Src/stm32f7xx_hal_msp.c ****     
 2981              		.loc 1 1534 0
 2982 0070 0133     		adds	r3, r3, #1
 2983 0072 0A4A     		ldr	r2, .L267+8
 2984 0074 1360     		str	r3, [r2]
1539:Src/stm32f7xx_hal_msp.c ****     GPIO_InitStruct.Mode = GPIO_MODE_AF_PP;
 2985              		.loc 1 1539 0
 2986 0076 4FF48063 		mov	r3, #1024
 2987 007a 0393     		str	r3, [sp, #12]
1540:Src/stm32f7xx_hal_msp.c ****     GPIO_InitStruct.Pull = GPIO_NOPULL;
 2988              		.loc 1 1540 0
 2989 007c 0223     		movs	r3, #2
 2990 007e 0493     		str	r3, [sp, #16]
1541:Src/stm32f7xx_hal_msp.c ****     GPIO_InitStruct.Speed = GPIO_SPEED_FREQ_LOW;
 2991              		.loc 1 1541 0
 2992 0080 0023     		movs	r3, #0
 2993 0082 0593     		str	r3, [sp, #20]
1542:Src/stm32f7xx_hal_msp.c ****     GPIO_InitStruct.Alternate = GPIO_AF10_SAI2;
 2994              		.loc 1 1542 0
 2995 0084 0693     		str	r3, [sp, #24]
ARM GAS  C:\Users\Patryk\AppData\Local\Temp\cc1IRkRa.s 			page 87


1543:Src/stm32f7xx_hal_msp.c ****     HAL_GPIO_Init(SAI2_SDB_GPIO_Port, &GPIO_InitStruct);
 2996              		.loc 1 1543 0
 2997 0086 0A23     		movs	r3, #10
 2998 0088 0793     		str	r3, [sp, #28]
1544:Src/stm32f7xx_hal_msp.c **** 
 2999              		.loc 1 1544 0
 3000 008a 03A9     		add	r1, sp, #12
 3001 008c 0648     		ldr	r0, .L267+20
 3002 008e FFF7FEFF 		bl	HAL_GPIO_Init
 3003              	.LVL183:
 3004              		.loc 1 1547 0
 3005 0092 C0E7     		b	.L259
 3006              	.L268:
 3007              		.align	2
 3008              	.L267:
 3009 0094 045C0140 		.word	1073830916
 3010 0098 245C0140 		.word	1073830948
 3011 009c 00000000 		.word	.LANCHOR2
 3012 00a0 00380240 		.word	1073887232
 3013 00a4 00200240 		.word	1073881088
 3014 00a8 00180240 		.word	1073879040
 3015              		.cfi_endproc
 3016              	.LFE172:
 3018              		.section	.text.HAL_SAI_MspDeInit,"ax",%progbits
 3019              		.align	1
 3020              		.global	HAL_SAI_MspDeInit
 3021              		.syntax unified
 3022              		.thumb
 3023              		.thumb_func
 3024              		.fpu fpv5-sp-d16
 3026              	HAL_SAI_MspDeInit:
 3027              	.LFB173:
1548:Src/stm32f7xx_hal_msp.c **** 
1549:Src/stm32f7xx_hal_msp.c **** void HAL_SAI_MspDeInit(SAI_HandleTypeDef* hsai)
1550:Src/stm32f7xx_hal_msp.c **** {
 3028              		.loc 1 1550 0
 3029              		.cfi_startproc
 3030              		@ args = 0, pretend = 0, frame = 0
 3031              		@ frame_needed = 0, uses_anonymous_args = 0
 3032              	.LVL184:
 3033 0000 10B5     		push	{r4, lr}
 3034              	.LCFI66:
 3035              		.cfi_def_cfa_offset 8
 3036              		.cfi_offset 4, -8
 3037              		.cfi_offset 14, -4
 3038 0002 0446     		mov	r4, r0
1551:Src/stm32f7xx_hal_msp.c **** 
1552:Src/stm32f7xx_hal_msp.c **** /* SAI2 */
1553:Src/stm32f7xx_hal_msp.c ****     if(hsai->Instance==SAI2_Block_A)
 3039              		.loc 1 1553 0
 3040 0004 0268     		ldr	r2, [r0]
 3041 0006 134B     		ldr	r3, .L277
 3042 0008 9A42     		cmp	r2, r3
 3043 000a 04D0     		beq	.L275
 3044              	.LVL185:
 3045              	.L270:
1554:Src/stm32f7xx_hal_msp.c ****     {
ARM GAS  C:\Users\Patryk\AppData\Local\Temp\cc1IRkRa.s 			page 88


1555:Src/stm32f7xx_hal_msp.c ****     SAI2_client --;
1556:Src/stm32f7xx_hal_msp.c ****     if (SAI2_client == 0)
1557:Src/stm32f7xx_hal_msp.c ****       {
1558:Src/stm32f7xx_hal_msp.c ****       /* Peripheral clock disable */ 
1559:Src/stm32f7xx_hal_msp.c ****        __HAL_RCC_SAI2_CLK_DISABLE();
1560:Src/stm32f7xx_hal_msp.c ****       }
1561:Src/stm32f7xx_hal_msp.c ****     
1562:Src/stm32f7xx_hal_msp.c ****     /**SAI2_A_Block_A GPIO Configuration    
1563:Src/stm32f7xx_hal_msp.c ****     PI4     ------> SAI2_MCLK_A
1564:Src/stm32f7xx_hal_msp.c ****     PI5     ------> SAI2_SCK_A
1565:Src/stm32f7xx_hal_msp.c ****     PI7     ------> SAI2_FS_A
1566:Src/stm32f7xx_hal_msp.c ****     PI6     ------> SAI2_SD_A 
1567:Src/stm32f7xx_hal_msp.c ****     */
1568:Src/stm32f7xx_hal_msp.c ****     HAL_GPIO_DeInit(GPIOI, SAI2_MCLKA_Pin|SAI2_SCKA_Pin|SAI2_FSA_Pin|SAI2_SDA_Pin);
1569:Src/stm32f7xx_hal_msp.c **** 
1570:Src/stm32f7xx_hal_msp.c ****     }
1571:Src/stm32f7xx_hal_msp.c ****     if(hsai->Instance==SAI2_Block_B)
 3046              		.loc 1 1571 0
 3047 000c 2268     		ldr	r2, [r4]
 3048 000e 124B     		ldr	r3, .L277+4
 3049 0010 9A42     		cmp	r2, r3
 3050 0012 0FD0     		beq	.L276
 3051              	.L269:
1572:Src/stm32f7xx_hal_msp.c ****     {
1573:Src/stm32f7xx_hal_msp.c ****     SAI2_client --;
1574:Src/stm32f7xx_hal_msp.c ****       if (SAI2_client == 0)
1575:Src/stm32f7xx_hal_msp.c ****       {
1576:Src/stm32f7xx_hal_msp.c ****       /* Peripheral clock disable */
1577:Src/stm32f7xx_hal_msp.c ****       __HAL_RCC_SAI2_CLK_DISABLE();
1578:Src/stm32f7xx_hal_msp.c ****       }
1579:Src/stm32f7xx_hal_msp.c ****     
1580:Src/stm32f7xx_hal_msp.c ****     /**SAI2_B_Block_B GPIO Configuration    
1581:Src/stm32f7xx_hal_msp.c ****     PG10     ------> SAI2_SD_B 
1582:Src/stm32f7xx_hal_msp.c ****     */
1583:Src/stm32f7xx_hal_msp.c ****     HAL_GPIO_DeInit(SAI2_SDB_GPIO_Port, SAI2_SDB_Pin);
1584:Src/stm32f7xx_hal_msp.c **** 
1585:Src/stm32f7xx_hal_msp.c ****     }
1586:Src/stm32f7xx_hal_msp.c **** }
 3052              		.loc 1 1586 0
 3053 0014 10BD     		pop	{r4, pc}
 3054              	.LVL186:
 3055              	.L275:
1555:Src/stm32f7xx_hal_msp.c ****     if (SAI2_client == 0)
 3056              		.loc 1 1555 0
 3057 0016 114A     		ldr	r2, .L277+8
 3058 0018 1368     		ldr	r3, [r2]
 3059 001a 013B     		subs	r3, r3, #1
 3060 001c 1360     		str	r3, [r2]
1556:Src/stm32f7xx_hal_msp.c ****       {
 3061              		.loc 1 1556 0
 3062 001e 23B9     		cbnz	r3, .L271
1559:Src/stm32f7xx_hal_msp.c ****       }
 3063              		.loc 1 1559 0
 3064 0020 0F4A     		ldr	r2, .L277+12
 3065 0022 536C     		ldr	r3, [r2, #68]
 3066 0024 23F40003 		bic	r3, r3, #8388608
 3067 0028 5364     		str	r3, [r2, #68]
ARM GAS  C:\Users\Patryk\AppData\Local\Temp\cc1IRkRa.s 			page 89


 3068              	.L271:
1568:Src/stm32f7xx_hal_msp.c **** 
 3069              		.loc 1 1568 0
 3070 002a F021     		movs	r1, #240
 3071 002c 0D48     		ldr	r0, .L277+16
 3072              	.LVL187:
 3073 002e FFF7FEFF 		bl	HAL_GPIO_DeInit
 3074              	.LVL188:
 3075 0032 EBE7     		b	.L270
 3076              	.L276:
1573:Src/stm32f7xx_hal_msp.c ****       if (SAI2_client == 0)
 3077              		.loc 1 1573 0
 3078 0034 094A     		ldr	r2, .L277+8
 3079 0036 1368     		ldr	r3, [r2]
 3080 0038 013B     		subs	r3, r3, #1
 3081 003a 1360     		str	r3, [r2]
1574:Src/stm32f7xx_hal_msp.c ****       {
 3082              		.loc 1 1574 0
 3083 003c 23B9     		cbnz	r3, .L273
1577:Src/stm32f7xx_hal_msp.c ****       }
 3084              		.loc 1 1577 0
 3085 003e 084A     		ldr	r2, .L277+12
 3086 0040 536C     		ldr	r3, [r2, #68]
 3087 0042 23F40003 		bic	r3, r3, #8388608
 3088 0046 5364     		str	r3, [r2, #68]
 3089              	.L273:
1583:Src/stm32f7xx_hal_msp.c **** 
 3090              		.loc 1 1583 0
 3091 0048 4FF48061 		mov	r1, #1024
 3092 004c 0648     		ldr	r0, .L277+20
 3093 004e FFF7FEFF 		bl	HAL_GPIO_DeInit
 3094              	.LVL189:
 3095              		.loc 1 1586 0
 3096 0052 DFE7     		b	.L269
 3097              	.L278:
 3098              		.align	2
 3099              	.L277:
 3100 0054 045C0140 		.word	1073830916
 3101 0058 245C0140 		.word	1073830948
 3102 005c 00000000 		.word	.LANCHOR2
 3103 0060 00380240 		.word	1073887232
 3104 0064 00200240 		.word	1073881088
 3105 0068 00180240 		.word	1073879040
 3106              		.cfi_endproc
 3107              	.LFE173:
 3109              		.section	.bss.FMC_DeInitialized,"aw",%nobits
 3110              		.align	2
 3111              		.set	.LANCHOR1,. + 0
 3114              	FMC_DeInitialized:
 3115 0000 00000000 		.space	4
 3116              		.section	.bss.FMC_Initialized,"aw",%nobits
 3117              		.align	2
 3118              		.set	.LANCHOR0,. + 0
 3121              	FMC_Initialized:
 3122 0000 00000000 		.space	4
 3123              		.section	.bss.SAI2_client,"aw",%nobits
 3124              		.align	2
ARM GAS  C:\Users\Patryk\AppData\Local\Temp\cc1IRkRa.s 			page 90


 3125              		.set	.LANCHOR2,. + 0
 3128              	SAI2_client:
 3129 0000 00000000 		.space	4
 3130              		.text
 3131              	.Letext0:
 3132              		.file 2 "c:\\program files (x86)\\gnu\\7_2018-q2-update\\arm-none-eabi\\include\\machine\\_default
 3133              		.file 3 "c:\\program files (x86)\\gnu\\7_2018-q2-update\\arm-none-eabi\\include\\sys\\_stdint.h"
 3134              		.file 4 "Drivers/CMSIS/Include/core_cm7.h"
 3135              		.file 5 "Drivers/CMSIS/Device/ST/STM32F7xx/Include/system_stm32f7xx.h"
 3136              		.file 6 "Drivers/CMSIS/Device/ST/STM32F7xx/Include/stm32f746xx.h"
 3137              		.file 7 "c:\\program files (x86)\\gnu\\7_2018-q2-update\\arm-none-eabi\\include\\sys\\lock.h"
 3138              		.file 8 "c:\\program files (x86)\\gnu\\7_2018-q2-update\\arm-none-eabi\\include\\sys\\_types.h"
 3139              		.file 9 "c:\\program files (x86)\\gnu\\7_2018-q2-update\\lib\\gcc\\arm-none-eabi\\7.3.1\\include\\
 3140              		.file 10 "c:\\program files (x86)\\gnu\\7_2018-q2-update\\arm-none-eabi\\include\\sys\\reent.h"
 3141              		.file 11 "Drivers/STM32F7xx_HAL_Driver/Inc/stm32f7xx_hal_def.h"
 3142              		.file 12 "Drivers/STM32F7xx_HAL_Driver/Inc/stm32f7xx_hal_gpio.h"
 3143              		.file 13 "Drivers/STM32F7xx_HAL_Driver/Inc/stm32f7xx_hal_dma.h"
 3144              		.file 14 "Drivers/STM32F7xx_HAL_Driver/Inc/stm32f7xx_hal_adc.h"
 3145              		.file 15 "Drivers/STM32F7xx_HAL_Driver/Inc/stm32f7xx_hal_crc.h"
 3146              		.file 16 "Drivers/STM32F7xx_HAL_Driver/Inc/stm32f7xx_hal_dma2d.h"
 3147              		.file 17 "Drivers/STM32F7xx_HAL_Driver/Inc/stm32f7xx_hal_dcmi.h"
 3148              		.file 18 "Drivers/STM32F7xx_HAL_Driver/Inc/stm32f7xx_ll_fmc.h"
 3149              		.file 19 "Drivers/STM32F7xx_HAL_Driver/Inc/stm32f7xx_hal_sdram.h"
 3150              		.file 20 "Drivers/STM32F7xx_HAL_Driver/Inc/stm32f7xx_hal_i2c.h"
 3151              		.file 21 "Drivers/STM32F7xx_HAL_Driver/Inc/stm32f7xx_hal_ltdc.h"
 3152              		.file 22 "Drivers/STM32F7xx_HAL_Driver/Inc/stm32f7xx_hal_qspi.h"
 3153              		.file 23 "Drivers/STM32F7xx_HAL_Driver/Inc/stm32f7xx_hal_rtc.h"
 3154              		.file 24 "Drivers/STM32F7xx_HAL_Driver/Inc/stm32f7xx_hal_sai.h"
 3155              		.file 25 "Drivers/STM32F7xx_HAL_Driver/Inc/stm32f7xx_ll_sdmmc.h"
 3156              		.file 26 "Drivers/STM32F7xx_HAL_Driver/Inc/stm32f7xx_hal_sd.h"
 3157              		.file 27 "Drivers/STM32F7xx_HAL_Driver/Inc/stm32f7xx_hal_spdifrx.h"
 3158              		.file 28 "Drivers/STM32F7xx_HAL_Driver/Inc/stm32f7xx_hal_spi.h"
 3159              		.file 29 "Drivers/STM32F7xx_HAL_Driver/Inc/stm32f7xx_hal_tim.h"
 3160              		.file 30 "Drivers/STM32F7xx_HAL_Driver/Inc/stm32f7xx_hal_uart.h"
 3161              		.file 31 "Drivers/STM32F7xx_HAL_Driver/Inc/stm32f7xx_hal_cortex.h"
ARM GAS  C:\Users\Patryk\AppData\Local\Temp\cc1IRkRa.s 			page 91


DEFINED SYMBOLS
                            *ABS*:00000000 stm32f7xx_hal_msp.c
C:\Users\Patryk\AppData\Local\Temp\cc1IRkRa.s:18     .text.HAL_FMC_MspInit:00000000 $t
C:\Users\Patryk\AppData\Local\Temp\cc1IRkRa.s:24     .text.HAL_FMC_MspInit:00000000 HAL_FMC_MspInit
C:\Users\Patryk\AppData\Local\Temp\cc1IRkRa.s:173    .text.HAL_FMC_MspInit:000000b4 $d
C:\Users\Patryk\AppData\Local\Temp\cc1IRkRa.s:185    .text.HAL_FMC_MspDeInit:00000000 $t
C:\Users\Patryk\AppData\Local\Temp\cc1IRkRa.s:191    .text.HAL_FMC_MspDeInit:00000000 HAL_FMC_MspDeInit
C:\Users\Patryk\AppData\Local\Temp\cc1IRkRa.s:253    .text.HAL_FMC_MspDeInit:00000054 $d
C:\Users\Patryk\AppData\Local\Temp\cc1IRkRa.s:265    .text.HAL_MspInit:00000000 $t
C:\Users\Patryk\AppData\Local\Temp\cc1IRkRa.s:272    .text.HAL_MspInit:00000000 HAL_MspInit
C:\Users\Patryk\AppData\Local\Temp\cc1IRkRa.s:361    .text.HAL_MspInit:0000008c $d
C:\Users\Patryk\AppData\Local\Temp\cc1IRkRa.s:366    .text.HAL_ADC_MspInit:00000000 $t
C:\Users\Patryk\AppData\Local\Temp\cc1IRkRa.s:373    .text.HAL_ADC_MspInit:00000000 HAL_ADC_MspInit
C:\Users\Patryk\AppData\Local\Temp\cc1IRkRa.s:444    .text.HAL_ADC_MspInit:00000050 $d
C:\Users\Patryk\AppData\Local\Temp\cc1IRkRa.s:451    .text.HAL_ADC_MspDeInit:00000000 $t
C:\Users\Patryk\AppData\Local\Temp\cc1IRkRa.s:458    .text.HAL_ADC_MspDeInit:00000000 HAL_ADC_MspDeInit
C:\Users\Patryk\AppData\Local\Temp\cc1IRkRa.s:502    .text.HAL_ADC_MspDeInit:0000002c $d
C:\Users\Patryk\AppData\Local\Temp\cc1IRkRa.s:510    .text.HAL_CRC_MspInit:00000000 $t
C:\Users\Patryk\AppData\Local\Temp\cc1IRkRa.s:517    .text.HAL_CRC_MspInit:00000000 HAL_CRC_MspInit
C:\Users\Patryk\AppData\Local\Temp\cc1IRkRa.s:556    .text.HAL_CRC_MspInit:00000028 $d
C:\Users\Patryk\AppData\Local\Temp\cc1IRkRa.s:561    .text.HAL_CRC_MspDeInit:00000000 $t
C:\Users\Patryk\AppData\Local\Temp\cc1IRkRa.s:568    .text.HAL_CRC_MspDeInit:00000000 HAL_CRC_MspDeInit
C:\Users\Patryk\AppData\Local\Temp\cc1IRkRa.s:595    .text.HAL_CRC_MspDeInit:00000018 $d
C:\Users\Patryk\AppData\Local\Temp\cc1IRkRa.s:601    .text.HAL_DCMI_MspInit:00000000 $t
C:\Users\Patryk\AppData\Local\Temp\cc1IRkRa.s:608    .text.HAL_DCMI_MspInit:00000000 HAL_DCMI_MspInit
C:\Users\Patryk\AppData\Local\Temp\cc1IRkRa.s:737    .text.HAL_DCMI_MspInit:00000094 $d
C:\Users\Patryk\AppData\Local\Temp\cc1IRkRa.s:748    .text.HAL_DCMI_MspDeInit:00000000 $t
C:\Users\Patryk\AppData\Local\Temp\cc1IRkRa.s:755    .text.HAL_DCMI_MspDeInit:00000000 HAL_DCMI_MspDeInit
C:\Users\Patryk\AppData\Local\Temp\cc1IRkRa.s:814    .text.HAL_DCMI_MspDeInit:00000044 $d
C:\Users\Patryk\AppData\Local\Temp\cc1IRkRa.s:825    .text.HAL_DMA2D_MspInit:00000000 $t
C:\Users\Patryk\AppData\Local\Temp\cc1IRkRa.s:832    .text.HAL_DMA2D_MspInit:00000000 HAL_DMA2D_MspInit
C:\Users\Patryk\AppData\Local\Temp\cc1IRkRa.s:885    .text.HAL_DMA2D_MspInit:0000003c $d
C:\Users\Patryk\AppData\Local\Temp\cc1IRkRa.s:890    .text.HAL_DMA2D_MspDeInit:00000000 $t
C:\Users\Patryk\AppData\Local\Temp\cc1IRkRa.s:897    .text.HAL_DMA2D_MspDeInit:00000000 HAL_DMA2D_MspDeInit
C:\Users\Patryk\AppData\Local\Temp\cc1IRkRa.s:935    .text.HAL_DMA2D_MspDeInit:00000020 $d
C:\Users\Patryk\AppData\Local\Temp\cc1IRkRa.s:941    .text.HAL_I2C_MspInit:00000000 $t
C:\Users\Patryk\AppData\Local\Temp\cc1IRkRa.s:948    .text.HAL_I2C_MspInit:00000000 HAL_I2C_MspInit
C:\Users\Patryk\AppData\Local\Temp\cc1IRkRa.s:1056   .text.HAL_I2C_MspInit:00000080 $d
C:\Users\Patryk\AppData\Local\Temp\cc1IRkRa.s:1065   .text.HAL_I2C_MspDeInit:00000000 $t
C:\Users\Patryk\AppData\Local\Temp\cc1IRkRa.s:1072   .text.HAL_I2C_MspDeInit:00000000 HAL_I2C_MspDeInit
C:\Users\Patryk\AppData\Local\Temp\cc1IRkRa.s:1129   .text.HAL_I2C_MspDeInit:00000044 $d
C:\Users\Patryk\AppData\Local\Temp\cc1IRkRa.s:1137   .text.HAL_LTDC_MspInit:00000000 $t
C:\Users\Patryk\AppData\Local\Temp\cc1IRkRa.s:1144   .text.HAL_LTDC_MspInit:00000000 HAL_LTDC_MspInit
C:\Users\Patryk\AppData\Local\Temp\cc1IRkRa.s:1284   .text.HAL_LTDC_MspInit:000000ac $d
C:\Users\Patryk\AppData\Local\Temp\cc1IRkRa.s:1294   .text.HAL_LTDC_MspDeInit:00000000 $t
C:\Users\Patryk\AppData\Local\Temp\cc1IRkRa.s:1301   .text.HAL_LTDC_MspDeInit:00000000 HAL_LTDC_MspDeInit
C:\Users\Patryk\AppData\Local\Temp\cc1IRkRa.s:1364   .text.HAL_LTDC_MspDeInit:0000004c $d
C:\Users\Patryk\AppData\Local\Temp\cc1IRkRa.s:1375   .text.HAL_QSPI_MspInit:00000000 $t
C:\Users\Patryk\AppData\Local\Temp\cc1IRkRa.s:1382   .text.HAL_QSPI_MspInit:00000000 HAL_QSPI_MspInit
C:\Users\Patryk\AppData\Local\Temp\cc1IRkRa.s:1500   .text.HAL_QSPI_MspInit:00000098 $d
C:\Users\Patryk\AppData\Local\Temp\cc1IRkRa.s:1509   .text.HAL_QSPI_MspDeInit:00000000 $t
C:\Users\Patryk\AppData\Local\Temp\cc1IRkRa.s:1516   .text.HAL_QSPI_MspDeInit:00000000 HAL_QSPI_MspDeInit
C:\Users\Patryk\AppData\Local\Temp\cc1IRkRa.s:1565   .text.HAL_QSPI_MspDeInit:00000034 $d
C:\Users\Patryk\AppData\Local\Temp\cc1IRkRa.s:1574   .text.HAL_RTC_MspInit:00000000 $t
C:\Users\Patryk\AppData\Local\Temp\cc1IRkRa.s:1581   .text.HAL_RTC_MspInit:00000000 HAL_RTC_MspInit
C:\Users\Patryk\AppData\Local\Temp\cc1IRkRa.s:1608   .text.HAL_RTC_MspInit:00000018 $d
C:\Users\Patryk\AppData\Local\Temp\cc1IRkRa.s:1614   .text.HAL_RTC_MspDeInit:00000000 $t
ARM GAS  C:\Users\Patryk\AppData\Local\Temp\cc1IRkRa.s 			page 92


C:\Users\Patryk\AppData\Local\Temp\cc1IRkRa.s:1621   .text.HAL_RTC_MspDeInit:00000000 HAL_RTC_MspDeInit
C:\Users\Patryk\AppData\Local\Temp\cc1IRkRa.s:1648   .text.HAL_RTC_MspDeInit:00000018 $d
C:\Users\Patryk\AppData\Local\Temp\cc1IRkRa.s:1654   .text.HAL_SD_MspInit:00000000 $t
C:\Users\Patryk\AppData\Local\Temp\cc1IRkRa.s:1661   .text.HAL_SD_MspInit:00000000 HAL_SD_MspInit
C:\Users\Patryk\AppData\Local\Temp\cc1IRkRa.s:1744   .text.HAL_SD_MspInit:0000005c $d
C:\Users\Patryk\AppData\Local\Temp\cc1IRkRa.s:1751   .text.HAL_SD_MspDeInit:00000000 $t
C:\Users\Patryk\AppData\Local\Temp\cc1IRkRa.s:1758   .text.HAL_SD_MspDeInit:00000000 HAL_SD_MspDeInit
C:\Users\Patryk\AppData\Local\Temp\cc1IRkRa.s:1802   .text.HAL_SD_MspDeInit:0000002c $d
C:\Users\Patryk\AppData\Local\Temp\cc1IRkRa.s:1810   .text.HAL_SPDIFRX_MspInit:00000000 $t
C:\Users\Patryk\AppData\Local\Temp\cc1IRkRa.s:1817   .text.HAL_SPDIFRX_MspInit:00000000 HAL_SPDIFRX_MspInit
C:\Users\Patryk\AppData\Local\Temp\cc1IRkRa.s:1878   .text.HAL_SPDIFRX_MspInit:00000044 $d
C:\Users\Patryk\AppData\Local\Temp\cc1IRkRa.s:1883   .text.HAL_SPDIFRX_MspDeInit:00000000 $t
C:\Users\Patryk\AppData\Local\Temp\cc1IRkRa.s:1890   .text.HAL_SPDIFRX_MspDeInit:00000000 HAL_SPDIFRX_MspDeInit
C:\Users\Patryk\AppData\Local\Temp\cc1IRkRa.s:1928   .text.HAL_SPDIFRX_MspDeInit:00000020 $d
C:\Users\Patryk\AppData\Local\Temp\cc1IRkRa.s:1934   .text.HAL_SPI_MspInit:00000000 $t
C:\Users\Patryk\AppData\Local\Temp\cc1IRkRa.s:1941   .text.HAL_SPI_MspInit:00000000 HAL_SPI_MspInit
C:\Users\Patryk\AppData\Local\Temp\cc1IRkRa.s:2021   .text.HAL_SPI_MspInit:00000058 $d
C:\Users\Patryk\AppData\Local\Temp\cc1IRkRa.s:2028   .text.HAL_SPI_MspDeInit:00000000 $t
C:\Users\Patryk\AppData\Local\Temp\cc1IRkRa.s:2035   .text.HAL_SPI_MspDeInit:00000000 HAL_SPI_MspDeInit
C:\Users\Patryk\AppData\Local\Temp\cc1IRkRa.s:2079   .text.HAL_SPI_MspDeInit:0000002c $d
C:\Users\Patryk\AppData\Local\Temp\cc1IRkRa.s:2087   .text.HAL_TIM_Base_MspInit:00000000 $t
C:\Users\Patryk\AppData\Local\Temp\cc1IRkRa.s:2094   .text.HAL_TIM_Base_MspInit:00000000 HAL_TIM_Base_MspInit
C:\Users\Patryk\AppData\Local\Temp\cc1IRkRa.s:2219   .text.HAL_TIM_Base_MspInit:000000b0 $d
C:\Users\Patryk\AppData\Local\Temp\cc1IRkRa.s:2229   .text.HAL_TIM_PWM_MspInit:00000000 $t
C:\Users\Patryk\AppData\Local\Temp\cc1IRkRa.s:2236   .text.HAL_TIM_PWM_MspInit:00000000 HAL_TIM_PWM_MspInit
C:\Users\Patryk\AppData\Local\Temp\cc1IRkRa.s:2275   .text.HAL_TIM_PWM_MspInit:00000028 $d
C:\Users\Patryk\AppData\Local\Temp\cc1IRkRa.s:2280   .text.HAL_TIM_MspPostInit:00000000 $t
C:\Users\Patryk\AppData\Local\Temp\cc1IRkRa.s:2287   .text.HAL_TIM_MspPostInit:00000000 HAL_TIM_MspPostInit
C:\Users\Patryk\AppData\Local\Temp\cc1IRkRa.s:2449   .text.HAL_TIM_MspPostInit:000000b8 $d
C:\Users\Patryk\AppData\Local\Temp\cc1IRkRa.s:2461   .text.HAL_TIM_Base_MspDeInit:00000000 $t
C:\Users\Patryk\AppData\Local\Temp\cc1IRkRa.s:2468   .text.HAL_TIM_Base_MspDeInit:00000000 HAL_TIM_Base_MspDeInit
C:\Users\Patryk\AppData\Local\Temp\cc1IRkRa.s:2549   .text.HAL_TIM_Base_MspDeInit:0000007c $d
C:\Users\Patryk\AppData\Local\Temp\cc1IRkRa.s:2559   .text.HAL_TIM_PWM_MspDeInit:00000000 $t
C:\Users\Patryk\AppData\Local\Temp\cc1IRkRa.s:2566   .text.HAL_TIM_PWM_MspDeInit:00000000 HAL_TIM_PWM_MspDeInit
C:\Users\Patryk\AppData\Local\Temp\cc1IRkRa.s:2593   .text.HAL_TIM_PWM_MspDeInit:00000018 $d
C:\Users\Patryk\AppData\Local\Temp\cc1IRkRa.s:2599   .text.HAL_UART_MspInit:00000000 $t
C:\Users\Patryk\AppData\Local\Temp\cc1IRkRa.s:2606   .text.HAL_UART_MspInit:00000000 HAL_UART_MspInit
C:\Users\Patryk\AppData\Local\Temp\cc1IRkRa.s:2732   .text.HAL_UART_MspInit:00000090 $d
C:\Users\Patryk\AppData\Local\Temp\cc1IRkRa.s:2742   .text.HAL_UART_MspDeInit:00000000 $t
C:\Users\Patryk\AppData\Local\Temp\cc1IRkRa.s:2749   .text.HAL_UART_MspDeInit:00000000 HAL_UART_MspDeInit
C:\Users\Patryk\AppData\Local\Temp\cc1IRkRa.s:2811   .text.HAL_UART_MspDeInit:00000048 $d
C:\Users\Patryk\AppData\Local\Temp\cc1IRkRa.s:2820   .text.HAL_SDRAM_MspInit:00000000 $t
C:\Users\Patryk\AppData\Local\Temp\cc1IRkRa.s:2827   .text.HAL_SDRAM_MspInit:00000000 HAL_SDRAM_MspInit
C:\Users\Patryk\AppData\Local\Temp\cc1IRkRa.s:2848   .text.HAL_SDRAM_MspDeInit:00000000 $t
C:\Users\Patryk\AppData\Local\Temp\cc1IRkRa.s:2855   .text.HAL_SDRAM_MspDeInit:00000000 HAL_SDRAM_MspDeInit
C:\Users\Patryk\AppData\Local\Temp\cc1IRkRa.s:2876   .text.HAL_SAI_MspInit:00000000 $t
C:\Users\Patryk\AppData\Local\Temp\cc1IRkRa.s:2883   .text.HAL_SAI_MspInit:00000000 HAL_SAI_MspInit
C:\Users\Patryk\AppData\Local\Temp\cc1IRkRa.s:3009   .text.HAL_SAI_MspInit:00000094 $d
C:\Users\Patryk\AppData\Local\Temp\cc1IRkRa.s:3019   .text.HAL_SAI_MspDeInit:00000000 $t
C:\Users\Patryk\AppData\Local\Temp\cc1IRkRa.s:3026   .text.HAL_SAI_MspDeInit:00000000 HAL_SAI_MspDeInit
C:\Users\Patryk\AppData\Local\Temp\cc1IRkRa.s:3100   .text.HAL_SAI_MspDeInit:00000054 $d
C:\Users\Patryk\AppData\Local\Temp\cc1IRkRa.s:3110   .bss.FMC_DeInitialized:00000000 $d
C:\Users\Patryk\AppData\Local\Temp\cc1IRkRa.s:3114   .bss.FMC_DeInitialized:00000000 FMC_DeInitialized
C:\Users\Patryk\AppData\Local\Temp\cc1IRkRa.s:3117   .bss.FMC_Initialized:00000000 $d
C:\Users\Patryk\AppData\Local\Temp\cc1IRkRa.s:3121   .bss.FMC_Initialized:00000000 FMC_Initialized
C:\Users\Patryk\AppData\Local\Temp\cc1IRkRa.s:3124   .bss.SAI2_client:00000000 $d
C:\Users\Patryk\AppData\Local\Temp\cc1IRkRa.s:3128   .bss.SAI2_client:00000000 SAI2_client
ARM GAS  C:\Users\Patryk\AppData\Local\Temp\cc1IRkRa.s 			page 93



UNDEFINED SYMBOLS
HAL_GPIO_Init
HAL_GPIO_DeInit
HAL_NVIC_SetPriorityGrouping
HAL_NVIC_SetPriority
HAL_NVIC_EnableIRQ
HAL_NVIC_DisableIRQ
