ARM GAS  C:\Users\Student\AppData\Local\Temp\ccGexOjZ.s 			page 1


   1              		.cpu cortex-m7
   2              		.eabi_attribute 27, 1
   3              		.eabi_attribute 28, 1
   4              		.eabi_attribute 20, 1
   5              		.eabi_attribute 21, 1
   6              		.eabi_attribute 23, 3
   7              		.eabi_attribute 24, 1
   8              		.eabi_attribute 25, 1
   9              		.eabi_attribute 26, 1
  10              		.eabi_attribute 30, 1
  11              		.eabi_attribute 34, 1
  12              		.eabi_attribute 18, 4
  13              		.file	"stm32f7xx_it.c"
  14              		.text
  15              	.Ltext0:
  16              		.cfi_sections	.debug_frame
  17              		.section	.text.HL_Default_Handler,"ax",%progbits
  18              		.align	1
  19              		.global	HL_Default_Handler
  20              		.syntax unified
  21              		.thumb
  22              		.thumb_func
  23              		.fpu fpv5-sp-d16
  25              	HL_Default_Handler:
  26              	.LFB141:
  27              		.file 1 "Src/stm32f7xx_it.c"
   1:Src/stm32f7xx_it.c **** /**
   2:Src/stm32f7xx_it.c ****   ******************************************************************************
   3:Src/stm32f7xx_it.c ****   * @file    stm32f7xx_it.c
   4:Src/stm32f7xx_it.c ****   * @brief   Interrupt Service Routines.
   5:Src/stm32f7xx_it.c ****   ******************************************************************************
   6:Src/stm32f7xx_it.c ****   *
   7:Src/stm32f7xx_it.c ****   * COPYRIGHT(c) 2018 STMicroelectronics
   8:Src/stm32f7xx_it.c ****   *
   9:Src/stm32f7xx_it.c ****   * Redistribution and use in source and binary forms, with or without modification,
  10:Src/stm32f7xx_it.c ****   * are permitted provided that the following conditions are met:
  11:Src/stm32f7xx_it.c ****   *   1. Redistributions of source code must retain the above copyright notice,
  12:Src/stm32f7xx_it.c ****   *      this list of conditions and the following disclaimer.
  13:Src/stm32f7xx_it.c ****   *   2. Redistributions in binary form must reproduce the above copyright notice,
  14:Src/stm32f7xx_it.c ****   *      this list of conditions and the following disclaimer in the documentation
  15:Src/stm32f7xx_it.c ****   *      and/or other materials provided with the distribution.
  16:Src/stm32f7xx_it.c ****   *   3. Neither the name of STMicroelectronics nor the names of its contributors
  17:Src/stm32f7xx_it.c ****   *      may be used to endorse or promote products derived from this software
  18:Src/stm32f7xx_it.c ****   *      without specific prior written permission.
  19:Src/stm32f7xx_it.c ****   *
  20:Src/stm32f7xx_it.c ****   * THIS SOFTWARE IS PROVIDED BY THE COPYRIGHT HOLDERS AND CONTRIBUTORS "AS IS"
  21:Src/stm32f7xx_it.c ****   * AND ANY EXPRESS OR IMPLIED WARRANTIES, INCLUDING, BUT NOT LIMITED TO, THE
  22:Src/stm32f7xx_it.c ****   * IMPLIED WARRANTIES OF MERCHANTABILITY AND FITNESS FOR A PARTICULAR PURPOSE ARE
  23:Src/stm32f7xx_it.c ****   * DISCLAIMED. IN NO EVENT SHALL THE COPYRIGHT HOLDER OR CONTRIBUTORS BE LIABLE
  24:Src/stm32f7xx_it.c ****   * FOR ANY DIRECT, INDIRECT, INCIDENTAL, SPECIAL, EXEMPLARY, OR CONSEQUENTIAL
  25:Src/stm32f7xx_it.c ****   * DAMAGES (INCLUDING, BUT NOT LIMITED TO, PROCUREMENT OF SUBSTITUTE GOODS OR
  26:Src/stm32f7xx_it.c ****   * SERVICES; LOSS OF USE, DATA, OR PROFITS; OR BUSINESS INTERRUPTION) HOWEVER
  27:Src/stm32f7xx_it.c ****   * CAUSED AND ON ANY THEORY OF LIABILITY, WHETHER IN CONTRACT, STRICT LIABILITY,
  28:Src/stm32f7xx_it.c ****   * OR TORT (INCLUDING NEGLIGENCE OR OTHERWISE) ARISING IN ANY WAY OUT OF THE USE
  29:Src/stm32f7xx_it.c ****   * OF THIS SOFTWARE, EVEN IF ADVISED OF THE POSSIBILITY OF SUCH DAMAGE.
  30:Src/stm32f7xx_it.c ****   *
  31:Src/stm32f7xx_it.c ****   ******************************************************************************
ARM GAS  C:\Users\Student\AppData\Local\Temp\ccGexOjZ.s 			page 2


  32:Src/stm32f7xx_it.c ****   */
  33:Src/stm32f7xx_it.c **** /* Includes ------------------------------------------------------------------*/
  34:Src/stm32f7xx_it.c **** #include "stm32f7xx_hal.h"
  35:Src/stm32f7xx_it.c **** #include "stm32f7xx.h"
  36:Src/stm32f7xx_it.c **** #include "stm32f7xx_it.h"
  37:Src/stm32f7xx_it.c **** #include "cmsis_os.h"
  38:Src/stm32f7xx_it.c **** 
  39:Src/stm32f7xx_it.c **** /* USER CODE BEGIN 0 */
  40:Src/stm32f7xx_it.c **** #include "term_io.h"
  41:Src/stm32f7xx_it.c **** 
  42:Src/stm32f7xx_it.c **** /* SAI handler declared in "stm32746g_discovery_audio.c" file */
  43:Src/stm32f7xx_it.c **** extern SAI_HandleTypeDef haudio_out_sai;
  44:Src/stm32f7xx_it.c **** /* SAI handler declared in "stm32746g_discovery_audio.c" file */
  45:Src/stm32f7xx_it.c **** extern SAI_HandleTypeDef haudio_in_sai;
  46:Src/stm32f7xx_it.c **** 
  47:Src/stm32f7xx_it.c **** 
  48:Src/stm32f7xx_it.c **** 
  49:Src/stm32f7xx_it.c **** 
  50:Src/stm32f7xx_it.c **** void HL_Default_Handler(void)
  51:Src/stm32f7xx_it.c **** {
  28              		.loc 1 51 0
  29              		.cfi_startproc
  30              		@ Volatile: function does not return.
  31              		@ args = 0, pretend = 0, frame = 0
  32              		@ frame_needed = 0, uses_anonymous_args = 0
  33 0000 08B5     		push	{r3, lr}
  34              	.LCFI0:
  35              		.cfi_def_cfa_offset 8
  36              		.cfi_offset 3, -8
  37              		.cfi_offset 14, -4
  52:Src/stm32f7xx_it.c **** 	xprintf("HL_Default_Handler\n");
  38              		.loc 1 52 0
  39 0002 0248     		ldr	r0, .L4
  40 0004 FFF7FEFF 		bl	xprintf
  41              	.LVL0:
  42              	.L2:
  43 0008 FEE7     		b	.L2
  44              	.L5:
  45 000a 00BF     		.align	2
  46              	.L4:
  47 000c 00000000 		.word	.LC0
  48              		.cfi_endproc
  49              	.LFE141:
  51              		.section	.text.DMA2_Stream7_IRQHandler,"ax",%progbits
  52              		.align	1
  53              		.global	DMA2_Stream7_IRQHandler
  54              		.syntax unified
  55              		.thumb
  56              		.thumb_func
  57              		.fpu fpv5-sp-d16
  59              	DMA2_Stream7_IRQHandler:
  60              	.LFB142:
  53:Src/stm32f7xx_it.c **** 	while(1);
  54:Src/stm32f7xx_it.c **** }
  55:Src/stm32f7xx_it.c **** 
  56:Src/stm32f7xx_it.c **** /**
  57:Src/stm32f7xx_it.c ****   * @brief This function handles DMA2 Stream 7 interrupt request.
ARM GAS  C:\Users\Student\AppData\Local\Temp\ccGexOjZ.s 			page 3


  58:Src/stm32f7xx_it.c ****   * @param None
  59:Src/stm32f7xx_it.c ****   * @retval None
  60:Src/stm32f7xx_it.c ****   */
  61:Src/stm32f7xx_it.c **** void DMA2_Stream7_IRQHandler(void)
  62:Src/stm32f7xx_it.c **** {
  61              		.loc 1 62 0
  62              		.cfi_startproc
  63              		@ args = 0, pretend = 0, frame = 0
  64              		@ frame_needed = 0, uses_anonymous_args = 0
  65 0000 08B5     		push	{r3, lr}
  66              	.LCFI1:
  67              		.cfi_def_cfa_offset 8
  68              		.cfi_offset 3, -8
  69              		.cfi_offset 14, -4
  63:Src/stm32f7xx_it.c ****   HAL_DMA_IRQHandler(haudio_in_sai.hdmarx);
  70              		.loc 1 63 0
  71 0002 024B     		ldr	r3, .L8
  72 0004 186F     		ldr	r0, [r3, #112]
  73 0006 FFF7FEFF 		bl	HAL_DMA_IRQHandler
  74              	.LVL1:
  75 000a 08BD     		pop	{r3, pc}
  76              	.L9:
  77              		.align	2
  78              	.L8:
  79 000c 00000000 		.word	haudio_in_sai
  80              		.cfi_endproc
  81              	.LFE142:
  83              		.section	.text.DMA2_Stream4_IRQHandler,"ax",%progbits
  84              		.align	1
  85              		.global	DMA2_Stream4_IRQHandler
  86              		.syntax unified
  87              		.thumb
  88              		.thumb_func
  89              		.fpu fpv5-sp-d16
  91              	DMA2_Stream4_IRQHandler:
  92              	.LFB143:
  64:Src/stm32f7xx_it.c **** }
  65:Src/stm32f7xx_it.c **** 
  66:Src/stm32f7xx_it.c ****   /* @brief  This function handles DMA2 Stream 6 interrupt request.
  67:Src/stm32f7xx_it.c ****   * @param  None
  68:Src/stm32f7xx_it.c ****   * @retval None
  69:Src/stm32f7xx_it.c ****   */
  70:Src/stm32f7xx_it.c **** void DMA2_Stream4_IRQHandler(void)
  71:Src/stm32f7xx_it.c **** {
  93              		.loc 1 71 0
  94              		.cfi_startproc
  95              		@ args = 0, pretend = 0, frame = 0
  96              		@ frame_needed = 0, uses_anonymous_args = 0
  97 0000 08B5     		push	{r3, lr}
  98              	.LCFI2:
  99              		.cfi_def_cfa_offset 8
 100              		.cfi_offset 3, -8
 101              		.cfi_offset 14, -4
  72:Src/stm32f7xx_it.c ****   HAL_DMA_IRQHandler(haudio_out_sai.hdmatx);
 102              		.loc 1 72 0
 103 0002 024B     		ldr	r3, .L12
 104 0004 D86E     		ldr	r0, [r3, #108]
ARM GAS  C:\Users\Student\AppData\Local\Temp\ccGexOjZ.s 			page 4


 105 0006 FFF7FEFF 		bl	HAL_DMA_IRQHandler
 106              	.LVL2:
 107 000a 08BD     		pop	{r3, pc}
 108              	.L13:
 109              		.align	2
 110              	.L12:
 111 000c 00000000 		.word	haudio_out_sai
 112              		.cfi_endproc
 113              	.LFE143:
 115              		.section	.text.NMI_Handler,"ax",%progbits
 116              		.align	1
 117              		.global	NMI_Handler
 118              		.syntax unified
 119              		.thumb
 120              		.thumb_func
 121              		.fpu fpv5-sp-d16
 123              	NMI_Handler:
 124              	.LFB144:
  73:Src/stm32f7xx_it.c **** }
  74:Src/stm32f7xx_it.c **** 
  75:Src/stm32f7xx_it.c **** /* USER CODE END 0 */
  76:Src/stm32f7xx_it.c **** 
  77:Src/stm32f7xx_it.c **** /* External variables --------------------------------------------------------*/
  78:Src/stm32f7xx_it.c **** extern ETH_HandleTypeDef heth;
  79:Src/stm32f7xx_it.c **** extern HCD_HandleTypeDef hhcd_USB_OTG_FS;
  80:Src/stm32f7xx_it.c **** extern DMA2D_HandleTypeDef hdma2d;
  81:Src/stm32f7xx_it.c **** extern LTDC_HandleTypeDef hltdc;
  82:Src/stm32f7xx_it.c **** 
  83:Src/stm32f7xx_it.c **** extern TIM_HandleTypeDef htim6;
  84:Src/stm32f7xx_it.c **** 
  85:Src/stm32f7xx_it.c **** /******************************************************************************/
  86:Src/stm32f7xx_it.c **** /*            Cortex-M7 Processor Interruption and Exception Handlers         */ 
  87:Src/stm32f7xx_it.c **** /******************************************************************************/
  88:Src/stm32f7xx_it.c **** 
  89:Src/stm32f7xx_it.c **** /**
  90:Src/stm32f7xx_it.c **** * @brief This function handles Non maskable interrupt.
  91:Src/stm32f7xx_it.c **** */
  92:Src/stm32f7xx_it.c **** void NMI_Handler(void)
  93:Src/stm32f7xx_it.c **** {
 125              		.loc 1 93 0
 126              		.cfi_startproc
 127              		@ args = 0, pretend = 0, frame = 0
 128              		@ frame_needed = 0, uses_anonymous_args = 0
 129              		@ link register save eliminated.
 130 0000 7047     		bx	lr
 131              		.cfi_endproc
 132              	.LFE144:
 134              		.section	.text.HardFault_Handler,"ax",%progbits
 135              		.align	1
 136              		.global	HardFault_Handler
 137              		.syntax unified
 138              		.thumb
 139              		.thumb_func
 140              		.fpu fpv5-sp-d16
 142              	HardFault_Handler:
 143              	.LFB145:
  94:Src/stm32f7xx_it.c ****   /* USER CODE BEGIN NonMaskableInt_IRQn 0 */
ARM GAS  C:\Users\Student\AppData\Local\Temp\ccGexOjZ.s 			page 5


  95:Src/stm32f7xx_it.c **** 
  96:Src/stm32f7xx_it.c ****   /* USER CODE END NonMaskableInt_IRQn 0 */
  97:Src/stm32f7xx_it.c ****   /* USER CODE BEGIN NonMaskableInt_IRQn 1 */
  98:Src/stm32f7xx_it.c **** 
  99:Src/stm32f7xx_it.c ****   /* USER CODE END NonMaskableInt_IRQn 1 */
 100:Src/stm32f7xx_it.c **** }
 101:Src/stm32f7xx_it.c **** 
 102:Src/stm32f7xx_it.c **** /**
 103:Src/stm32f7xx_it.c **** * @brief This function handles Hard fault interrupt.
 104:Src/stm32f7xx_it.c **** */
 105:Src/stm32f7xx_it.c **** void HardFault_Handler(void)
 106:Src/stm32f7xx_it.c **** {
 144              		.loc 1 106 0
 145              		.cfi_startproc
 146              		@ Volatile: function does not return.
 147              		@ args = 0, pretend = 0, frame = 0
 148              		@ frame_needed = 0, uses_anonymous_args = 0
 149              		@ link register save eliminated.
 150              	.L16:
 151 0000 FEE7     		b	.L16
 152              		.cfi_endproc
 153              	.LFE145:
 155              		.section	.text.MemManage_Handler,"ax",%progbits
 156              		.align	1
 157              		.global	MemManage_Handler
 158              		.syntax unified
 159              		.thumb
 160              		.thumb_func
 161              		.fpu fpv5-sp-d16
 163              	MemManage_Handler:
 164              	.LFB146:
 107:Src/stm32f7xx_it.c ****   /* USER CODE BEGIN HardFault_IRQn 0 */
 108:Src/stm32f7xx_it.c **** 
 109:Src/stm32f7xx_it.c ****   /* USER CODE END HardFault_IRQn 0 */
 110:Src/stm32f7xx_it.c ****   while (1)
 111:Src/stm32f7xx_it.c ****   {
 112:Src/stm32f7xx_it.c ****     /* USER CODE BEGIN W1_HardFault_IRQn 0 */
 113:Src/stm32f7xx_it.c ****     /* USER CODE END W1_HardFault_IRQn 0 */
 114:Src/stm32f7xx_it.c ****   }
 115:Src/stm32f7xx_it.c ****   /* USER CODE BEGIN HardFault_IRQn 1 */
 116:Src/stm32f7xx_it.c **** 
 117:Src/stm32f7xx_it.c ****   /* USER CODE END HardFault_IRQn 1 */
 118:Src/stm32f7xx_it.c **** }
 119:Src/stm32f7xx_it.c **** 
 120:Src/stm32f7xx_it.c **** /**
 121:Src/stm32f7xx_it.c **** * @brief This function handles Memory management fault.
 122:Src/stm32f7xx_it.c **** */
 123:Src/stm32f7xx_it.c **** void MemManage_Handler(void)
 124:Src/stm32f7xx_it.c **** {
 165              		.loc 1 124 0
 166              		.cfi_startproc
 167              		@ Volatile: function does not return.
 168              		@ args = 0, pretend = 0, frame = 0
 169              		@ frame_needed = 0, uses_anonymous_args = 0
 170              		@ link register save eliminated.
 171              	.L18:
 172 0000 FEE7     		b	.L18
ARM GAS  C:\Users\Student\AppData\Local\Temp\ccGexOjZ.s 			page 6


 173              		.cfi_endproc
 174              	.LFE146:
 176              		.section	.text.BusFault_Handler,"ax",%progbits
 177              		.align	1
 178              		.global	BusFault_Handler
 179              		.syntax unified
 180              		.thumb
 181              		.thumb_func
 182              		.fpu fpv5-sp-d16
 184              	BusFault_Handler:
 185              	.LFB147:
 125:Src/stm32f7xx_it.c ****   /* USER CODE BEGIN MemoryManagement_IRQn 0 */
 126:Src/stm32f7xx_it.c **** 
 127:Src/stm32f7xx_it.c ****   /* USER CODE END MemoryManagement_IRQn 0 */
 128:Src/stm32f7xx_it.c ****   while (1)
 129:Src/stm32f7xx_it.c ****   {
 130:Src/stm32f7xx_it.c ****     /* USER CODE BEGIN W1_MemoryManagement_IRQn 0 */
 131:Src/stm32f7xx_it.c ****     /* USER CODE END W1_MemoryManagement_IRQn 0 */
 132:Src/stm32f7xx_it.c ****   }
 133:Src/stm32f7xx_it.c ****   /* USER CODE BEGIN MemoryManagement_IRQn 1 */
 134:Src/stm32f7xx_it.c **** 
 135:Src/stm32f7xx_it.c ****   /* USER CODE END MemoryManagement_IRQn 1 */
 136:Src/stm32f7xx_it.c **** }
 137:Src/stm32f7xx_it.c **** 
 138:Src/stm32f7xx_it.c **** /**
 139:Src/stm32f7xx_it.c **** * @brief This function handles Pre-fetch fault, memory access fault.
 140:Src/stm32f7xx_it.c **** */
 141:Src/stm32f7xx_it.c **** void BusFault_Handler(void)
 142:Src/stm32f7xx_it.c **** {
 186              		.loc 1 142 0
 187              		.cfi_startproc
 188              		@ Volatile: function does not return.
 189              		@ args = 0, pretend = 0, frame = 0
 190              		@ frame_needed = 0, uses_anonymous_args = 0
 191              		@ link register save eliminated.
 192              	.L20:
 193 0000 FEE7     		b	.L20
 194              		.cfi_endproc
 195              	.LFE147:
 197              		.section	.text.UsageFault_Handler,"ax",%progbits
 198              		.align	1
 199              		.global	UsageFault_Handler
 200              		.syntax unified
 201              		.thumb
 202              		.thumb_func
 203              		.fpu fpv5-sp-d16
 205              	UsageFault_Handler:
 206              	.LFB148:
 143:Src/stm32f7xx_it.c ****   /* USER CODE BEGIN BusFault_IRQn 0 */
 144:Src/stm32f7xx_it.c **** 
 145:Src/stm32f7xx_it.c ****   /* USER CODE END BusFault_IRQn 0 */
 146:Src/stm32f7xx_it.c ****   while (1)
 147:Src/stm32f7xx_it.c ****   {
 148:Src/stm32f7xx_it.c ****     /* USER CODE BEGIN W1_BusFault_IRQn 0 */
 149:Src/stm32f7xx_it.c ****     /* USER CODE END W1_BusFault_IRQn 0 */
 150:Src/stm32f7xx_it.c ****   }
 151:Src/stm32f7xx_it.c ****   /* USER CODE BEGIN BusFault_IRQn 1 */
ARM GAS  C:\Users\Student\AppData\Local\Temp\ccGexOjZ.s 			page 7


 152:Src/stm32f7xx_it.c **** 
 153:Src/stm32f7xx_it.c ****   /* USER CODE END BusFault_IRQn 1 */
 154:Src/stm32f7xx_it.c **** }
 155:Src/stm32f7xx_it.c **** 
 156:Src/stm32f7xx_it.c **** /**
 157:Src/stm32f7xx_it.c **** * @brief This function handles Undefined instruction or illegal state.
 158:Src/stm32f7xx_it.c **** */
 159:Src/stm32f7xx_it.c **** void UsageFault_Handler(void)
 160:Src/stm32f7xx_it.c **** {
 207              		.loc 1 160 0
 208              		.cfi_startproc
 209              		@ Volatile: function does not return.
 210              		@ args = 0, pretend = 0, frame = 0
 211              		@ frame_needed = 0, uses_anonymous_args = 0
 212              		@ link register save eliminated.
 213              	.L22:
 214 0000 FEE7     		b	.L22
 215              		.cfi_endproc
 216              	.LFE148:
 218              		.section	.text.DebugMon_Handler,"ax",%progbits
 219              		.align	1
 220              		.global	DebugMon_Handler
 221              		.syntax unified
 222              		.thumb
 223              		.thumb_func
 224              		.fpu fpv5-sp-d16
 226              	DebugMon_Handler:
 227              	.LFB149:
 161:Src/stm32f7xx_it.c ****   /* USER CODE BEGIN UsageFault_IRQn 0 */
 162:Src/stm32f7xx_it.c **** 
 163:Src/stm32f7xx_it.c ****   /* USER CODE END UsageFault_IRQn 0 */
 164:Src/stm32f7xx_it.c ****   while (1)
 165:Src/stm32f7xx_it.c ****   {
 166:Src/stm32f7xx_it.c ****     /* USER CODE BEGIN W1_UsageFault_IRQn 0 */
 167:Src/stm32f7xx_it.c ****     /* USER CODE END W1_UsageFault_IRQn 0 */
 168:Src/stm32f7xx_it.c ****   }
 169:Src/stm32f7xx_it.c ****   /* USER CODE BEGIN UsageFault_IRQn 1 */
 170:Src/stm32f7xx_it.c **** 
 171:Src/stm32f7xx_it.c ****   /* USER CODE END UsageFault_IRQn 1 */
 172:Src/stm32f7xx_it.c **** }
 173:Src/stm32f7xx_it.c **** 
 174:Src/stm32f7xx_it.c **** /**
 175:Src/stm32f7xx_it.c **** * @brief This function handles Debug monitor.
 176:Src/stm32f7xx_it.c **** */
 177:Src/stm32f7xx_it.c **** void DebugMon_Handler(void)
 178:Src/stm32f7xx_it.c **** {
 228              		.loc 1 178 0
 229              		.cfi_startproc
 230              		@ args = 0, pretend = 0, frame = 0
 231              		@ frame_needed = 0, uses_anonymous_args = 0
 232              		@ link register save eliminated.
 233 0000 7047     		bx	lr
 234              		.cfi_endproc
 235              	.LFE149:
 237              		.section	.text.SysTick_Handler,"ax",%progbits
 238              		.align	1
 239              		.global	SysTick_Handler
ARM GAS  C:\Users\Student\AppData\Local\Temp\ccGexOjZ.s 			page 8


 240              		.syntax unified
 241              		.thumb
 242              		.thumb_func
 243              		.fpu fpv5-sp-d16
 245              	SysTick_Handler:
 246              	.LFB150:
 179:Src/stm32f7xx_it.c ****   /* USER CODE BEGIN DebugMonitor_IRQn 0 */
 180:Src/stm32f7xx_it.c **** 
 181:Src/stm32f7xx_it.c ****   /* USER CODE END DebugMonitor_IRQn 0 */
 182:Src/stm32f7xx_it.c ****   /* USER CODE BEGIN DebugMonitor_IRQn 1 */
 183:Src/stm32f7xx_it.c **** 
 184:Src/stm32f7xx_it.c ****   /* USER CODE END DebugMonitor_IRQn 1 */
 185:Src/stm32f7xx_it.c **** }
 186:Src/stm32f7xx_it.c **** 
 187:Src/stm32f7xx_it.c **** /**
 188:Src/stm32f7xx_it.c **** * @brief This function handles System tick timer.
 189:Src/stm32f7xx_it.c **** */
 190:Src/stm32f7xx_it.c **** void SysTick_Handler(void)
 191:Src/stm32f7xx_it.c **** {
 247              		.loc 1 191 0
 248              		.cfi_startproc
 249              		@ args = 0, pretend = 0, frame = 0
 250              		@ frame_needed = 0, uses_anonymous_args = 0
 251              		.loc 1 191 0
 252 0000 08B5     		push	{r3, lr}
 253              	.LCFI3:
 254              		.cfi_def_cfa_offset 8
 255              		.cfi_offset 3, -8
 256              		.cfi_offset 14, -4
 192:Src/stm32f7xx_it.c ****   /* USER CODE BEGIN SysTick_IRQn 0 */
 193:Src/stm32f7xx_it.c **** 
 194:Src/stm32f7xx_it.c ****   /* USER CODE END SysTick_IRQn 0 */
 195:Src/stm32f7xx_it.c ****   osSystickHandler();
 257              		.loc 1 195 0
 258 0002 FFF7FEFF 		bl	osSystickHandler
 259              	.LVL3:
 260 0006 08BD     		pop	{r3, pc}
 261              		.cfi_endproc
 262              	.LFE150:
 264              		.section	.text.TIM6_DAC_IRQHandler,"ax",%progbits
 265              		.align	1
 266              		.global	TIM6_DAC_IRQHandler
 267              		.syntax unified
 268              		.thumb
 269              		.thumb_func
 270              		.fpu fpv5-sp-d16
 272              	TIM6_DAC_IRQHandler:
 273              	.LFB151:
 196:Src/stm32f7xx_it.c ****   /* USER CODE BEGIN SysTick_IRQn 1 */
 197:Src/stm32f7xx_it.c **** 
 198:Src/stm32f7xx_it.c ****   /* USER CODE END SysTick_IRQn 1 */
 199:Src/stm32f7xx_it.c **** }
 200:Src/stm32f7xx_it.c **** 
 201:Src/stm32f7xx_it.c **** /******************************************************************************/
 202:Src/stm32f7xx_it.c **** /* STM32F7xx Peripheral Interrupt Handlers                                    */
 203:Src/stm32f7xx_it.c **** /* Add here the Interrupt Handlers for the used peripherals.                  */
 204:Src/stm32f7xx_it.c **** /* For the available peripheral interrupt handler names,                      */
ARM GAS  C:\Users\Student\AppData\Local\Temp\ccGexOjZ.s 			page 9


 205:Src/stm32f7xx_it.c **** /* please refer to the startup file (startup_stm32f7xx.s).                    */
 206:Src/stm32f7xx_it.c **** /******************************************************************************/
 207:Src/stm32f7xx_it.c **** 
 208:Src/stm32f7xx_it.c **** /**
 209:Src/stm32f7xx_it.c **** * @brief This function handles TIM6 global interrupt, DAC1 and DAC2 underrun error interrupts.
 210:Src/stm32f7xx_it.c **** */
 211:Src/stm32f7xx_it.c **** void TIM6_DAC_IRQHandler(void)
 212:Src/stm32f7xx_it.c **** {
 274              		.loc 1 212 0
 275              		.cfi_startproc
 276              		@ args = 0, pretend = 0, frame = 0
 277              		@ frame_needed = 0, uses_anonymous_args = 0
 278 0000 08B5     		push	{r3, lr}
 279              	.LCFI4:
 280              		.cfi_def_cfa_offset 8
 281              		.cfi_offset 3, -8
 282              		.cfi_offset 14, -4
 213:Src/stm32f7xx_it.c ****   /* USER CODE BEGIN TIM6_DAC_IRQn 0 */
 214:Src/stm32f7xx_it.c **** 
 215:Src/stm32f7xx_it.c ****   /* USER CODE END TIM6_DAC_IRQn 0 */
 216:Src/stm32f7xx_it.c ****   HAL_TIM_IRQHandler(&htim6);
 283              		.loc 1 216 0
 284 0002 0248     		ldr	r0, .L28
 285 0004 FFF7FEFF 		bl	HAL_TIM_IRQHandler
 286              	.LVL4:
 287 0008 08BD     		pop	{r3, pc}
 288              	.L29:
 289 000a 00BF     		.align	2
 290              	.L28:
 291 000c 00000000 		.word	htim6
 292              		.cfi_endproc
 293              	.LFE151:
 295              		.section	.text.ETH_IRQHandler,"ax",%progbits
 296              		.align	1
 297              		.global	ETH_IRQHandler
 298              		.syntax unified
 299              		.thumb
 300              		.thumb_func
 301              		.fpu fpv5-sp-d16
 303              	ETH_IRQHandler:
 304              	.LFB152:
 217:Src/stm32f7xx_it.c ****   /* USER CODE BEGIN TIM6_DAC_IRQn 1 */
 218:Src/stm32f7xx_it.c **** 
 219:Src/stm32f7xx_it.c ****   /* USER CODE END TIM6_DAC_IRQn 1 */
 220:Src/stm32f7xx_it.c **** }
 221:Src/stm32f7xx_it.c **** 
 222:Src/stm32f7xx_it.c **** /**
 223:Src/stm32f7xx_it.c **** * @brief This function handles Ethernet global interrupt.
 224:Src/stm32f7xx_it.c **** */
 225:Src/stm32f7xx_it.c **** void ETH_IRQHandler(void)
 226:Src/stm32f7xx_it.c **** {
 305              		.loc 1 226 0
 306              		.cfi_startproc
 307              		@ args = 0, pretend = 0, frame = 0
 308              		@ frame_needed = 0, uses_anonymous_args = 0
 309 0000 08B5     		push	{r3, lr}
 310              	.LCFI5:
ARM GAS  C:\Users\Student\AppData\Local\Temp\ccGexOjZ.s 			page 10


 311              		.cfi_def_cfa_offset 8
 312              		.cfi_offset 3, -8
 313              		.cfi_offset 14, -4
 227:Src/stm32f7xx_it.c ****   /* USER CODE BEGIN ETH_IRQn 0 */
 228:Src/stm32f7xx_it.c **** 
 229:Src/stm32f7xx_it.c ****   /* USER CODE END ETH_IRQn 0 */
 230:Src/stm32f7xx_it.c ****   HAL_ETH_IRQHandler(&heth);
 314              		.loc 1 230 0
 315 0002 0248     		ldr	r0, .L32
 316 0004 FFF7FEFF 		bl	HAL_ETH_IRQHandler
 317              	.LVL5:
 318 0008 08BD     		pop	{r3, pc}
 319              	.L33:
 320 000a 00BF     		.align	2
 321              	.L32:
 322 000c 00000000 		.word	heth
 323              		.cfi_endproc
 324              	.LFE152:
 326              		.section	.text.OTG_FS_IRQHandler,"ax",%progbits
 327              		.align	1
 328              		.global	OTG_FS_IRQHandler
 329              		.syntax unified
 330              		.thumb
 331              		.thumb_func
 332              		.fpu fpv5-sp-d16
 334              	OTG_FS_IRQHandler:
 335              	.LFB153:
 231:Src/stm32f7xx_it.c ****   /* USER CODE BEGIN ETH_IRQn 1 */
 232:Src/stm32f7xx_it.c **** 
 233:Src/stm32f7xx_it.c ****   /* USER CODE END ETH_IRQn 1 */
 234:Src/stm32f7xx_it.c **** }
 235:Src/stm32f7xx_it.c **** 
 236:Src/stm32f7xx_it.c **** /**
 237:Src/stm32f7xx_it.c **** * @brief This function handles USB On The Go FS global interrupt.
 238:Src/stm32f7xx_it.c **** */
 239:Src/stm32f7xx_it.c **** void OTG_FS_IRQHandler(void)
 240:Src/stm32f7xx_it.c **** {
 336              		.loc 1 240 0
 337              		.cfi_startproc
 338              		@ args = 0, pretend = 0, frame = 0
 339              		@ frame_needed = 0, uses_anonymous_args = 0
 340 0000 08B5     		push	{r3, lr}
 341              	.LCFI6:
 342              		.cfi_def_cfa_offset 8
 343              		.cfi_offset 3, -8
 344              		.cfi_offset 14, -4
 241:Src/stm32f7xx_it.c ****   /* USER CODE BEGIN OTG_FS_IRQn 0 */
 242:Src/stm32f7xx_it.c **** 
 243:Src/stm32f7xx_it.c ****   /* USER CODE END OTG_FS_IRQn 0 */
 244:Src/stm32f7xx_it.c ****   HAL_HCD_IRQHandler(&hhcd_USB_OTG_FS);
 345              		.loc 1 244 0
 346 0002 0248     		ldr	r0, .L36
 347 0004 FFF7FEFF 		bl	HAL_HCD_IRQHandler
 348              	.LVL6:
 349 0008 08BD     		pop	{r3, pc}
 350              	.L37:
 351 000a 00BF     		.align	2
ARM GAS  C:\Users\Student\AppData\Local\Temp\ccGexOjZ.s 			page 11


 352              	.L36:
 353 000c 00000000 		.word	hhcd_USB_OTG_FS
 354              		.cfi_endproc
 355              	.LFE153:
 357              		.section	.text.LTDC_IRQHandler,"ax",%progbits
 358              		.align	1
 359              		.global	LTDC_IRQHandler
 360              		.syntax unified
 361              		.thumb
 362              		.thumb_func
 363              		.fpu fpv5-sp-d16
 365              	LTDC_IRQHandler:
 366              	.LFB154:
 245:Src/stm32f7xx_it.c ****   /* USER CODE BEGIN OTG_FS_IRQn 1 */
 246:Src/stm32f7xx_it.c **** 
 247:Src/stm32f7xx_it.c ****   /* USER CODE END OTG_FS_IRQn 1 */
 248:Src/stm32f7xx_it.c **** }
 249:Src/stm32f7xx_it.c **** 
 250:Src/stm32f7xx_it.c **** /**
 251:Src/stm32f7xx_it.c **** * @brief This function handles LTDC global interrupt.
 252:Src/stm32f7xx_it.c **** */
 253:Src/stm32f7xx_it.c **** void LTDC_IRQHandler(void)
 254:Src/stm32f7xx_it.c **** {
 367              		.loc 1 254 0
 368              		.cfi_startproc
 369              		@ args = 0, pretend = 0, frame = 0
 370              		@ frame_needed = 0, uses_anonymous_args = 0
 371 0000 08B5     		push	{r3, lr}
 372              	.LCFI7:
 373              		.cfi_def_cfa_offset 8
 374              		.cfi_offset 3, -8
 375              		.cfi_offset 14, -4
 255:Src/stm32f7xx_it.c ****   /* USER CODE BEGIN LTDC_IRQn 0 */
 256:Src/stm32f7xx_it.c **** 
 257:Src/stm32f7xx_it.c ****   /* USER CODE END LTDC_IRQn 0 */
 258:Src/stm32f7xx_it.c ****   HAL_LTDC_IRQHandler(&hltdc);
 376              		.loc 1 258 0
 377 0002 0248     		ldr	r0, .L40
 378 0004 FFF7FEFF 		bl	HAL_LTDC_IRQHandler
 379              	.LVL7:
 380 0008 08BD     		pop	{r3, pc}
 381              	.L41:
 382 000a 00BF     		.align	2
 383              	.L40:
 384 000c 00000000 		.word	hltdc
 385              		.cfi_endproc
 386              	.LFE154:
 388              		.section	.text.DMA2D_IRQHandler,"ax",%progbits
 389              		.align	1
 390              		.global	DMA2D_IRQHandler
 391              		.syntax unified
 392              		.thumb
 393              		.thumb_func
 394              		.fpu fpv5-sp-d16
 396              	DMA2D_IRQHandler:
 397              	.LFB155:
 259:Src/stm32f7xx_it.c ****   /* USER CODE BEGIN LTDC_IRQn 1 */
ARM GAS  C:\Users\Student\AppData\Local\Temp\ccGexOjZ.s 			page 12


 260:Src/stm32f7xx_it.c **** 
 261:Src/stm32f7xx_it.c ****   /* USER CODE END LTDC_IRQn 1 */
 262:Src/stm32f7xx_it.c **** }
 263:Src/stm32f7xx_it.c **** 
 264:Src/stm32f7xx_it.c **** /**
 265:Src/stm32f7xx_it.c **** * @brief This function handles DMA2D global interrupt.
 266:Src/stm32f7xx_it.c **** */
 267:Src/stm32f7xx_it.c **** void DMA2D_IRQHandler(void)
 268:Src/stm32f7xx_it.c **** {
 398              		.loc 1 268 0
 399              		.cfi_startproc
 400              		@ args = 0, pretend = 0, frame = 0
 401              		@ frame_needed = 0, uses_anonymous_args = 0
 402 0000 08B5     		push	{r3, lr}
 403              	.LCFI8:
 404              		.cfi_def_cfa_offset 8
 405              		.cfi_offset 3, -8
 406              		.cfi_offset 14, -4
 269:Src/stm32f7xx_it.c ****   /* USER CODE BEGIN DMA2D_IRQn 0 */
 270:Src/stm32f7xx_it.c **** 
 271:Src/stm32f7xx_it.c ****   /* USER CODE END DMA2D_IRQn 0 */
 272:Src/stm32f7xx_it.c ****   HAL_DMA2D_IRQHandler(&hdma2d);
 407              		.loc 1 272 0
 408 0002 0248     		ldr	r0, .L44
 409 0004 FFF7FEFF 		bl	HAL_DMA2D_IRQHandler
 410              	.LVL8:
 411 0008 08BD     		pop	{r3, pc}
 412              	.L45:
 413 000a 00BF     		.align	2
 414              	.L44:
 415 000c 00000000 		.word	hdma2d
 416              		.cfi_endproc
 417              	.LFE155:
 419              		.section	.rodata.HL_Default_Handler.str1.4,"aMS",%progbits,1
 420              		.align	2
 421              	.LC0:
 422 0000 484C5F44 		.ascii	"HL_Default_Handler\012\000"
 422      65666175 
 422      6C745F48 
 422      616E646C 
 422      65720A00 
 423              		.text
 424              	.Letext0:
 425              		.file 2 "c:\\gcc_toolchain\\6_2017-q1-update\\arm-none-eabi\\include\\machine\\_default_types.h"
 426              		.file 3 "c:\\gcc_toolchain\\6_2017-q1-update\\arm-none-eabi\\include\\sys\\_stdint.h"
 427              		.file 4 "Drivers/CMSIS/Include/core_cm7.h"
 428              		.file 5 "Drivers/CMSIS/Device/ST/STM32F7xx/Include/system_stm32f7xx.h"
 429              		.file 6 "Drivers/CMSIS/Device/ST/STM32F7xx/Include/stm32f746xx.h"
 430              		.file 7 "c:\\gcc_toolchain\\6_2017-q1-update\\arm-none-eabi\\include\\sys\\lock.h"
 431              		.file 8 "c:\\gcc_toolchain\\6_2017-q1-update\\arm-none-eabi\\include\\sys\\_types.h"
 432              		.file 9 "c:\\gcc_toolchain\\6_2017-q1-update\\lib\\gcc\\arm-none-eabi\\6.3.1\\include\\stddef.h"
 433              		.file 10 "c:\\gcc_toolchain\\6_2017-q1-update\\arm-none-eabi\\include\\sys\\reent.h"
 434              		.file 11 "Drivers/STM32F7xx_HAL_Driver/Inc/stm32f7xx_hal_def.h"
 435              		.file 12 "Drivers/STM32F7xx_HAL_Driver/Inc/stm32f7xx_hal_dma.h"
 436              		.file 13 "Drivers/STM32F7xx_HAL_Driver/Inc/stm32f7xx_hal_dma2d.h"
 437              		.file 14 "Drivers/STM32F7xx_HAL_Driver/Inc/stm32f7xx_hal_eth.h"
 438              		.file 15 "Drivers/STM32F7xx_HAL_Driver/Inc/stm32f7xx_hal_ltdc.h"
ARM GAS  C:\Users\Student\AppData\Local\Temp\ccGexOjZ.s 			page 13


 439              		.file 16 "Drivers/STM32F7xx_HAL_Driver/Inc/stm32f7xx_hal_sai.h"
 440              		.file 17 "Drivers/STM32F7xx_HAL_Driver/Inc/stm32f7xx_hal_tim.h"
 441              		.file 18 "Drivers/STM32F7xx_HAL_Driver/Inc/stm32f7xx_ll_usb.h"
 442              		.file 19 "Drivers/STM32F7xx_HAL_Driver/Inc/stm32f7xx_hal_hcd.h"
 443              		.file 20 "Middlewares/Third_Party/FreeRTOS/Source/CMSIS_RTOS/cmsis_os.h"
 444              		.file 21 "Inc/term_io.h"
ARM GAS  C:\Users\Student\AppData\Local\Temp\ccGexOjZ.s 			page 14

