ARM GAS  C:\Users\Student\AppData\Local\Temp\ccapU3Tb.s 			page 1


   1              		.cpu cortex-m7
   2              		.eabi_attribute 27, 1
   3              		.eabi_attribute 28, 1
   4              		.eabi_attribute 20, 1
   5              		.eabi_attribute 21, 1
   6              		.eabi_attribute 23, 3
   7              		.eabi_attribute 24, 1
   8              		.eabi_attribute 25, 1
   9              		.eabi_attribute 26, 1
  10              		.eabi_attribute 30, 1
  11              		.eabi_attribute 34, 1
  12              		.eabi_attribute 18, 4
  13              		.file	"stm32f7xx_hal_rtc_ex.c"
  14              		.text
  15              	.Ltext0:
  16              		.cfi_sections	.debug_frame
  17              		.section	.text.HAL_RTCEx_SetTimeStamp,"ax",%progbits
  18              		.align	1
  19              		.global	HAL_RTCEx_SetTimeStamp
  20              		.syntax unified
  21              		.thumb
  22              		.thumb_func
  23              		.fpu fpv5-sp-d16
  25              	HAL_RTCEx_SetTimeStamp:
  26              	.LFB136:
  27              		.file 1 "Drivers/STM32F7xx_HAL_Driver/Src/stm32f7xx_hal_rtc_ex.c"
   1:Drivers/STM32F7xx_HAL_Driver/Src/stm32f7xx_hal_rtc_ex.c **** /**
   2:Drivers/STM32F7xx_HAL_Driver/Src/stm32f7xx_hal_rtc_ex.c ****   ******************************************************************************
   3:Drivers/STM32F7xx_HAL_Driver/Src/stm32f7xx_hal_rtc_ex.c ****   * @file    stm32f7xx_hal_rtc_ex.c
   4:Drivers/STM32F7xx_HAL_Driver/Src/stm32f7xx_hal_rtc_ex.c ****   * @author  MCD Application Team
   5:Drivers/STM32F7xx_HAL_Driver/Src/stm32f7xx_hal_rtc_ex.c ****   * @brief   RTC HAL module driver.
   6:Drivers/STM32F7xx_HAL_Driver/Src/stm32f7xx_hal_rtc_ex.c ****   *          This file provides firmware functions to manage the following 
   7:Drivers/STM32F7xx_HAL_Driver/Src/stm32f7xx_hal_rtc_ex.c ****   *          functionalities of the Real Time Clock (RTC) Extension peripheral:
   8:Drivers/STM32F7xx_HAL_Driver/Src/stm32f7xx_hal_rtc_ex.c ****   *           + RTC Time Stamp functions
   9:Drivers/STM32F7xx_HAL_Driver/Src/stm32f7xx_hal_rtc_ex.c ****   *           + RTC Tamper functions 
  10:Drivers/STM32F7xx_HAL_Driver/Src/stm32f7xx_hal_rtc_ex.c ****   *           + RTC Wake-up functions
  11:Drivers/STM32F7xx_HAL_Driver/Src/stm32f7xx_hal_rtc_ex.c ****   *           + Extension Control functions
  12:Drivers/STM32F7xx_HAL_Driver/Src/stm32f7xx_hal_rtc_ex.c ****   *           + Extension RTC features functions    
  13:Drivers/STM32F7xx_HAL_Driver/Src/stm32f7xx_hal_rtc_ex.c ****   *         
  14:Drivers/STM32F7xx_HAL_Driver/Src/stm32f7xx_hal_rtc_ex.c ****   @verbatim
  15:Drivers/STM32F7xx_HAL_Driver/Src/stm32f7xx_hal_rtc_ex.c ****   ==============================================================================
  16:Drivers/STM32F7xx_HAL_Driver/Src/stm32f7xx_hal_rtc_ex.c ****                   ##### How to use this driver #####
  17:Drivers/STM32F7xx_HAL_Driver/Src/stm32f7xx_hal_rtc_ex.c ****   ==============================================================================
  18:Drivers/STM32F7xx_HAL_Driver/Src/stm32f7xx_hal_rtc_ex.c ****   [..] 
  19:Drivers/STM32F7xx_HAL_Driver/Src/stm32f7xx_hal_rtc_ex.c ****     (+) Enable the RTC domain access.
  20:Drivers/STM32F7xx_HAL_Driver/Src/stm32f7xx_hal_rtc_ex.c ****     (+) Configure the RTC Prescaler (Asynchronous and Synchronous) and RTC hour 
  21:Drivers/STM32F7xx_HAL_Driver/Src/stm32f7xx_hal_rtc_ex.c ****         format using the HAL_RTC_Init() function.
  22:Drivers/STM32F7xx_HAL_Driver/Src/stm32f7xx_hal_rtc_ex.c ****   
  23:Drivers/STM32F7xx_HAL_Driver/Src/stm32f7xx_hal_rtc_ex.c ****   *** RTC Wakeup configuration ***
  24:Drivers/STM32F7xx_HAL_Driver/Src/stm32f7xx_hal_rtc_ex.c ****   ================================
  25:Drivers/STM32F7xx_HAL_Driver/Src/stm32f7xx_hal_rtc_ex.c ****   [..] 
  26:Drivers/STM32F7xx_HAL_Driver/Src/stm32f7xx_hal_rtc_ex.c ****     (+) To configure the RTC Wakeup Clock source and Counter use the HAL_RTC_SetWakeUpTimer()
  27:Drivers/STM32F7xx_HAL_Driver/Src/stm32f7xx_hal_rtc_ex.c ****         function. You can also configure the RTC Wakeup timer in interrupt mode 
  28:Drivers/STM32F7xx_HAL_Driver/Src/stm32f7xx_hal_rtc_ex.c ****         using the HAL_RTC_SetWakeUpTimer_IT() function.
  29:Drivers/STM32F7xx_HAL_Driver/Src/stm32f7xx_hal_rtc_ex.c ****     (+) To read the RTC WakeUp Counter register, use the HAL_RTC_GetWakeUpTimer() 
  30:Drivers/STM32F7xx_HAL_Driver/Src/stm32f7xx_hal_rtc_ex.c ****         function.
  31:Drivers/STM32F7xx_HAL_Driver/Src/stm32f7xx_hal_rtc_ex.c ****   
ARM GAS  C:\Users\Student\AppData\Local\Temp\ccapU3Tb.s 			page 2


  32:Drivers/STM32F7xx_HAL_Driver/Src/stm32f7xx_hal_rtc_ex.c ****   *** TimeStamp configuration ***
  33:Drivers/STM32F7xx_HAL_Driver/Src/stm32f7xx_hal_rtc_ex.c ****   ===============================
  34:Drivers/STM32F7xx_HAL_Driver/Src/stm32f7xx_hal_rtc_ex.c ****   [..]
  35:Drivers/STM32F7xx_HAL_Driver/Src/stm32f7xx_hal_rtc_ex.c ****     (+) Enables the RTC TimeStamp using the HAL_RTC_SetTimeStamp() function.
  36:Drivers/STM32F7xx_HAL_Driver/Src/stm32f7xx_hal_rtc_ex.c ****         You can also configure the RTC TimeStamp with interrupt mode using the
  37:Drivers/STM32F7xx_HAL_Driver/Src/stm32f7xx_hal_rtc_ex.c ****         HAL_RTC_SetTimeStamp_IT() function.
  38:Drivers/STM32F7xx_HAL_Driver/Src/stm32f7xx_hal_rtc_ex.c ****     (+) To read the RTC TimeStamp Time and Date register, use the HAL_RTC_GetTimeStamp()
  39:Drivers/STM32F7xx_HAL_Driver/Src/stm32f7xx_hal_rtc_ex.c ****         function.
  40:Drivers/STM32F7xx_HAL_Driver/Src/stm32f7xx_hal_rtc_ex.c **** 
  41:Drivers/STM32F7xx_HAL_Driver/Src/stm32f7xx_hal_rtc_ex.c ****   *** Internal TimeStamp configuration ***
  42:Drivers/STM32F7xx_HAL_Driver/Src/stm32f7xx_hal_rtc_ex.c ****   ===============================
  43:Drivers/STM32F7xx_HAL_Driver/Src/stm32f7xx_hal_rtc_ex.c ****   [..]
  44:Drivers/STM32F7xx_HAL_Driver/Src/stm32f7xx_hal_rtc_ex.c ****     (+) Enables the RTC internal TimeStamp using the HAL_RTC_SetInternalTimeStamp() function.
  45:Drivers/STM32F7xx_HAL_Driver/Src/stm32f7xx_hal_rtc_ex.c ****     (+) To read the RTC TimeStamp Time and Date register, use the HAL_RTC_GetTimeStamp()
  46:Drivers/STM32F7xx_HAL_Driver/Src/stm32f7xx_hal_rtc_ex.c ****         function.
  47:Drivers/STM32F7xx_HAL_Driver/Src/stm32f7xx_hal_rtc_ex.c ****   
  48:Drivers/STM32F7xx_HAL_Driver/Src/stm32f7xx_hal_rtc_ex.c ****   *** Tamper configuration ***
  49:Drivers/STM32F7xx_HAL_Driver/Src/stm32f7xx_hal_rtc_ex.c ****   ============================
  50:Drivers/STM32F7xx_HAL_Driver/Src/stm32f7xx_hal_rtc_ex.c ****   [..]
  51:Drivers/STM32F7xx_HAL_Driver/Src/stm32f7xx_hal_rtc_ex.c ****     (+) Enable the RTC Tamper and Configure the Tamper filter count, trigger Edge 
  52:Drivers/STM32F7xx_HAL_Driver/Src/stm32f7xx_hal_rtc_ex.c ****         or Level according to the Tamper filter (if equal to 0 Edge else Level) 
  53:Drivers/STM32F7xx_HAL_Driver/Src/stm32f7xx_hal_rtc_ex.c ****         value, sampling frequency, NoErase, MaskFlag,  precharge or discharge and
  54:Drivers/STM32F7xx_HAL_Driver/Src/stm32f7xx_hal_rtc_ex.c ****         Pull-UP using the HAL_RTC_SetTamper() function. You can configure RTC Tamper
  55:Drivers/STM32F7xx_HAL_Driver/Src/stm32f7xx_hal_rtc_ex.c ****         with interrupt mode using HAL_RTC_SetTamper_IT() function.
  56:Drivers/STM32F7xx_HAL_Driver/Src/stm32f7xx_hal_rtc_ex.c ****     (+) The default configuration of the Tamper erases the backup registers. To avoid
  57:Drivers/STM32F7xx_HAL_Driver/Src/stm32f7xx_hal_rtc_ex.c ****         erase, enable the NoErase field on the RTC_TAMPCR register.
  58:Drivers/STM32F7xx_HAL_Driver/Src/stm32f7xx_hal_rtc_ex.c ****   
  59:Drivers/STM32F7xx_HAL_Driver/Src/stm32f7xx_hal_rtc_ex.c ****   *** Backup Data Registers configuration ***
  60:Drivers/STM32F7xx_HAL_Driver/Src/stm32f7xx_hal_rtc_ex.c ****   ===========================================
  61:Drivers/STM32F7xx_HAL_Driver/Src/stm32f7xx_hal_rtc_ex.c ****   [..]
  62:Drivers/STM32F7xx_HAL_Driver/Src/stm32f7xx_hal_rtc_ex.c ****     (+) To write to the RTC Backup Data registers, use the HAL_RTC_BKUPWrite()
  63:Drivers/STM32F7xx_HAL_Driver/Src/stm32f7xx_hal_rtc_ex.c ****         function.  
  64:Drivers/STM32F7xx_HAL_Driver/Src/stm32f7xx_hal_rtc_ex.c ****     (+) To read the RTC Backup Data registers, use the HAL_RTC_BKUPRead()
  65:Drivers/STM32F7xx_HAL_Driver/Src/stm32f7xx_hal_rtc_ex.c ****         function.
  66:Drivers/STM32F7xx_HAL_Driver/Src/stm32f7xx_hal_rtc_ex.c ****      
  67:Drivers/STM32F7xx_HAL_Driver/Src/stm32f7xx_hal_rtc_ex.c ****    @endverbatim
  68:Drivers/STM32F7xx_HAL_Driver/Src/stm32f7xx_hal_rtc_ex.c ****   ******************************************************************************
  69:Drivers/STM32F7xx_HAL_Driver/Src/stm32f7xx_hal_rtc_ex.c ****   * @attention
  70:Drivers/STM32F7xx_HAL_Driver/Src/stm32f7xx_hal_rtc_ex.c ****   *
  71:Drivers/STM32F7xx_HAL_Driver/Src/stm32f7xx_hal_rtc_ex.c ****   * <h2><center>&copy; COPYRIGHT(c) 2017 STMicroelectronics</center></h2>
  72:Drivers/STM32F7xx_HAL_Driver/Src/stm32f7xx_hal_rtc_ex.c ****   *
  73:Drivers/STM32F7xx_HAL_Driver/Src/stm32f7xx_hal_rtc_ex.c ****   * Redistribution and use in source and binary forms, with or without modification,
  74:Drivers/STM32F7xx_HAL_Driver/Src/stm32f7xx_hal_rtc_ex.c ****   * are permitted provided that the following conditions are met:
  75:Drivers/STM32F7xx_HAL_Driver/Src/stm32f7xx_hal_rtc_ex.c ****   *   1. Redistributions of source code must retain the above copyright notice,
  76:Drivers/STM32F7xx_HAL_Driver/Src/stm32f7xx_hal_rtc_ex.c ****   *      this list of conditions and the following disclaimer.
  77:Drivers/STM32F7xx_HAL_Driver/Src/stm32f7xx_hal_rtc_ex.c ****   *   2. Redistributions in binary form must reproduce the above copyright notice,
  78:Drivers/STM32F7xx_HAL_Driver/Src/stm32f7xx_hal_rtc_ex.c ****   *      this list of conditions and the following disclaimer in the documentation
  79:Drivers/STM32F7xx_HAL_Driver/Src/stm32f7xx_hal_rtc_ex.c ****   *      and/or other materials provided with the distribution.
  80:Drivers/STM32F7xx_HAL_Driver/Src/stm32f7xx_hal_rtc_ex.c ****   *   3. Neither the name of STMicroelectronics nor the names of its contributors
  81:Drivers/STM32F7xx_HAL_Driver/Src/stm32f7xx_hal_rtc_ex.c ****   *      may be used to endorse or promote products derived from this software
  82:Drivers/STM32F7xx_HAL_Driver/Src/stm32f7xx_hal_rtc_ex.c ****   *      without specific prior written permission.
  83:Drivers/STM32F7xx_HAL_Driver/Src/stm32f7xx_hal_rtc_ex.c ****   *
  84:Drivers/STM32F7xx_HAL_Driver/Src/stm32f7xx_hal_rtc_ex.c ****   * THIS SOFTWARE IS PROVIDED BY THE COPYRIGHT HOLDERS AND CONTRIBUTORS "AS IS"
  85:Drivers/STM32F7xx_HAL_Driver/Src/stm32f7xx_hal_rtc_ex.c ****   * AND ANY EXPRESS OR IMPLIED WARRANTIES, INCLUDING, BUT NOT LIMITED TO, THE
  86:Drivers/STM32F7xx_HAL_Driver/Src/stm32f7xx_hal_rtc_ex.c ****   * IMPLIED WARRANTIES OF MERCHANTABILITY AND FITNESS FOR A PARTICULAR PURPOSE ARE
  87:Drivers/STM32F7xx_HAL_Driver/Src/stm32f7xx_hal_rtc_ex.c ****   * DISCLAIMED. IN NO EVENT SHALL THE COPYRIGHT HOLDER OR CONTRIBUTORS BE LIABLE
  88:Drivers/STM32F7xx_HAL_Driver/Src/stm32f7xx_hal_rtc_ex.c ****   * FOR ANY DIRECT, INDIRECT, INCIDENTAL, SPECIAL, EXEMPLARY, OR CONSEQUENTIAL
ARM GAS  C:\Users\Student\AppData\Local\Temp\ccapU3Tb.s 			page 3


  89:Drivers/STM32F7xx_HAL_Driver/Src/stm32f7xx_hal_rtc_ex.c ****   * DAMAGES (INCLUDING, BUT NOT LIMITED TO, PROCUREMENT OF SUBSTITUTE GOODS OR
  90:Drivers/STM32F7xx_HAL_Driver/Src/stm32f7xx_hal_rtc_ex.c ****   * SERVICES; LOSS OF USE, DATA, OR PROFITS; OR BUSINESS INTERRUPTION) HOWEVER
  91:Drivers/STM32F7xx_HAL_Driver/Src/stm32f7xx_hal_rtc_ex.c ****   * CAUSED AND ON ANY THEORY OF LIABILITY, WHETHER IN CONTRACT, STRICT LIABILITY,
  92:Drivers/STM32F7xx_HAL_Driver/Src/stm32f7xx_hal_rtc_ex.c ****   * OR TORT (INCLUDING NEGLIGENCE OR OTHERWISE) ARISING IN ANY WAY OUT OF THE USE
  93:Drivers/STM32F7xx_HAL_Driver/Src/stm32f7xx_hal_rtc_ex.c ****   * OF THIS SOFTWARE, EVEN IF ADVISED OF THE POSSIBILITY OF SUCH DAMAGE.
  94:Drivers/STM32F7xx_HAL_Driver/Src/stm32f7xx_hal_rtc_ex.c ****   *
  95:Drivers/STM32F7xx_HAL_Driver/Src/stm32f7xx_hal_rtc_ex.c ****   ******************************************************************************
  96:Drivers/STM32F7xx_HAL_Driver/Src/stm32f7xx_hal_rtc_ex.c ****   */ 
  97:Drivers/STM32F7xx_HAL_Driver/Src/stm32f7xx_hal_rtc_ex.c **** 
  98:Drivers/STM32F7xx_HAL_Driver/Src/stm32f7xx_hal_rtc_ex.c **** /* Includes ------------------------------------------------------------------*/
  99:Drivers/STM32F7xx_HAL_Driver/Src/stm32f7xx_hal_rtc_ex.c **** #include "stm32f7xx_hal.h"
 100:Drivers/STM32F7xx_HAL_Driver/Src/stm32f7xx_hal_rtc_ex.c **** 
 101:Drivers/STM32F7xx_HAL_Driver/Src/stm32f7xx_hal_rtc_ex.c **** /** @addtogroup STM32F7xx_HAL_Driver
 102:Drivers/STM32F7xx_HAL_Driver/Src/stm32f7xx_hal_rtc_ex.c ****   * @{
 103:Drivers/STM32F7xx_HAL_Driver/Src/stm32f7xx_hal_rtc_ex.c ****   */
 104:Drivers/STM32F7xx_HAL_Driver/Src/stm32f7xx_hal_rtc_ex.c **** 
 105:Drivers/STM32F7xx_HAL_Driver/Src/stm32f7xx_hal_rtc_ex.c **** /** @defgroup RTCEx RTCEx 
 106:Drivers/STM32F7xx_HAL_Driver/Src/stm32f7xx_hal_rtc_ex.c ****   * @brief RTC Extended HAL module driver
 107:Drivers/STM32F7xx_HAL_Driver/Src/stm32f7xx_hal_rtc_ex.c ****   * @{
 108:Drivers/STM32F7xx_HAL_Driver/Src/stm32f7xx_hal_rtc_ex.c ****   */
 109:Drivers/STM32F7xx_HAL_Driver/Src/stm32f7xx_hal_rtc_ex.c **** 
 110:Drivers/STM32F7xx_HAL_Driver/Src/stm32f7xx_hal_rtc_ex.c **** #ifdef HAL_RTC_MODULE_ENABLED
 111:Drivers/STM32F7xx_HAL_Driver/Src/stm32f7xx_hal_rtc_ex.c **** 
 112:Drivers/STM32F7xx_HAL_Driver/Src/stm32f7xx_hal_rtc_ex.c **** /* Private typedef -----------------------------------------------------------*/
 113:Drivers/STM32F7xx_HAL_Driver/Src/stm32f7xx_hal_rtc_ex.c **** /* Private define ------------------------------------------------------------*/
 114:Drivers/STM32F7xx_HAL_Driver/Src/stm32f7xx_hal_rtc_ex.c **** /* Private macro -------------------------------------------------------------*/
 115:Drivers/STM32F7xx_HAL_Driver/Src/stm32f7xx_hal_rtc_ex.c **** /* Private variables ---------------------------------------------------------*/
 116:Drivers/STM32F7xx_HAL_Driver/Src/stm32f7xx_hal_rtc_ex.c **** /* Private function prototypes -----------------------------------------------*/
 117:Drivers/STM32F7xx_HAL_Driver/Src/stm32f7xx_hal_rtc_ex.c **** /* Private functions ---------------------------------------------------------*/
 118:Drivers/STM32F7xx_HAL_Driver/Src/stm32f7xx_hal_rtc_ex.c **** 
 119:Drivers/STM32F7xx_HAL_Driver/Src/stm32f7xx_hal_rtc_ex.c **** /** @defgroup RTCEx_Exported_Functions RTCEx Exported Functions
 120:Drivers/STM32F7xx_HAL_Driver/Src/stm32f7xx_hal_rtc_ex.c ****   * @{
 121:Drivers/STM32F7xx_HAL_Driver/Src/stm32f7xx_hal_rtc_ex.c ****   */
 122:Drivers/STM32F7xx_HAL_Driver/Src/stm32f7xx_hal_rtc_ex.c ****   
 123:Drivers/STM32F7xx_HAL_Driver/Src/stm32f7xx_hal_rtc_ex.c **** 
 124:Drivers/STM32F7xx_HAL_Driver/Src/stm32f7xx_hal_rtc_ex.c **** /** @defgroup RTCEx_Group1 RTC TimeStamp and Tamper functions
 125:Drivers/STM32F7xx_HAL_Driver/Src/stm32f7xx_hal_rtc_ex.c ****  *  @brief   RTC TimeStamp and Tamper functions
 126:Drivers/STM32F7xx_HAL_Driver/Src/stm32f7xx_hal_rtc_ex.c ****  *
 127:Drivers/STM32F7xx_HAL_Driver/Src/stm32f7xx_hal_rtc_ex.c **** @verbatim   
 128:Drivers/STM32F7xx_HAL_Driver/Src/stm32f7xx_hal_rtc_ex.c ****  ===============================================================================
 129:Drivers/STM32F7xx_HAL_Driver/Src/stm32f7xx_hal_rtc_ex.c ****                  ##### RTC TimeStamp and Tamper functions #####
 130:Drivers/STM32F7xx_HAL_Driver/Src/stm32f7xx_hal_rtc_ex.c ****  ===============================================================================  
 131:Drivers/STM32F7xx_HAL_Driver/Src/stm32f7xx_hal_rtc_ex.c ****  
 132:Drivers/STM32F7xx_HAL_Driver/Src/stm32f7xx_hal_rtc_ex.c ****  [..] This section provides functions allowing to configure TimeStamp feature
 133:Drivers/STM32F7xx_HAL_Driver/Src/stm32f7xx_hal_rtc_ex.c **** 
 134:Drivers/STM32F7xx_HAL_Driver/Src/stm32f7xx_hal_rtc_ex.c **** @endverbatim
 135:Drivers/STM32F7xx_HAL_Driver/Src/stm32f7xx_hal_rtc_ex.c ****   * @{
 136:Drivers/STM32F7xx_HAL_Driver/Src/stm32f7xx_hal_rtc_ex.c ****   */
 137:Drivers/STM32F7xx_HAL_Driver/Src/stm32f7xx_hal_rtc_ex.c **** 
 138:Drivers/STM32F7xx_HAL_Driver/Src/stm32f7xx_hal_rtc_ex.c **** /**
 139:Drivers/STM32F7xx_HAL_Driver/Src/stm32f7xx_hal_rtc_ex.c ****   * @brief  Sets TimeStamp.
 140:Drivers/STM32F7xx_HAL_Driver/Src/stm32f7xx_hal_rtc_ex.c ****   * @note   This API must be called before enabling the TimeStamp feature. 
 141:Drivers/STM32F7xx_HAL_Driver/Src/stm32f7xx_hal_rtc_ex.c ****   * @param  hrtc pointer to a RTC_HandleTypeDef structure that contains
 142:Drivers/STM32F7xx_HAL_Driver/Src/stm32f7xx_hal_rtc_ex.c ****   *                the configuration information for RTC.
 143:Drivers/STM32F7xx_HAL_Driver/Src/stm32f7xx_hal_rtc_ex.c ****   * @param  TimeStampEdge Specifies the pin edge on which the TimeStamp is 
 144:Drivers/STM32F7xx_HAL_Driver/Src/stm32f7xx_hal_rtc_ex.c ****   *         activated.
 145:Drivers/STM32F7xx_HAL_Driver/Src/stm32f7xx_hal_rtc_ex.c ****   *          This parameter can be one of the following values:
ARM GAS  C:\Users\Student\AppData\Local\Temp\ccapU3Tb.s 			page 4


 146:Drivers/STM32F7xx_HAL_Driver/Src/stm32f7xx_hal_rtc_ex.c ****   *             @arg RTC_TIMESTAMPEDGE_RISING: the Time stamp event occurs on the  
 147:Drivers/STM32F7xx_HAL_Driver/Src/stm32f7xx_hal_rtc_ex.c ****   *                                        rising edge of the related pin.
 148:Drivers/STM32F7xx_HAL_Driver/Src/stm32f7xx_hal_rtc_ex.c ****   *             @arg RTC_TIMESTAMPEDGE_FALLING: the Time stamp event occurs on the 
 149:Drivers/STM32F7xx_HAL_Driver/Src/stm32f7xx_hal_rtc_ex.c ****   *                                         falling edge of the related pin.
 150:Drivers/STM32F7xx_HAL_Driver/Src/stm32f7xx_hal_rtc_ex.c ****   * @param  RTC_TimeStampPin specifies the RTC TimeStamp Pin.
 151:Drivers/STM32F7xx_HAL_Driver/Src/stm32f7xx_hal_rtc_ex.c ****   *          This parameter can be one of the following values:
 152:Drivers/STM32F7xx_HAL_Driver/Src/stm32f7xx_hal_rtc_ex.c ****   *             @arg RTC_TIMESTAMPPIN_PC13: PC13 is selected as RTC TimeStamp Pin.
 153:Drivers/STM32F7xx_HAL_Driver/Src/stm32f7xx_hal_rtc_ex.c ****   *             @arg RTC_TIMESTAMPPIN_PI8: PI8 is selected as RTC TimeStamp Pin.  
 154:Drivers/STM32F7xx_HAL_Driver/Src/stm32f7xx_hal_rtc_ex.c ****   *             @arg RTC_TIMESTAMPPIN_PC1: PC1 is selected as RTC TimeStamp Pin.   
 155:Drivers/STM32F7xx_HAL_Driver/Src/stm32f7xx_hal_rtc_ex.c ****   * @retval HAL status
 156:Drivers/STM32F7xx_HAL_Driver/Src/stm32f7xx_hal_rtc_ex.c ****   */
 157:Drivers/STM32F7xx_HAL_Driver/Src/stm32f7xx_hal_rtc_ex.c **** HAL_StatusTypeDef HAL_RTCEx_SetTimeStamp(RTC_HandleTypeDef *hrtc, uint32_t TimeStampEdge, uint32_t 
 158:Drivers/STM32F7xx_HAL_Driver/Src/stm32f7xx_hal_rtc_ex.c **** {
  28              		.loc 1 158 0
  29              		.cfi_startproc
  30              		@ args = 0, pretend = 0, frame = 0
  31              		@ frame_needed = 0, uses_anonymous_args = 0
  32              		@ link register save eliminated.
  33              	.LVL0:
  34 0000 70B4     		push	{r4, r5, r6}
  35              	.LCFI0:
  36              		.cfi_def_cfa_offset 12
  37              		.cfi_offset 4, -12
  38              		.cfi_offset 5, -8
  39              		.cfi_offset 6, -4
  40              	.LVL1:
 159:Drivers/STM32F7xx_HAL_Driver/Src/stm32f7xx_hal_rtc_ex.c ****   uint32_t tmpreg = 0;
 160:Drivers/STM32F7xx_HAL_Driver/Src/stm32f7xx_hal_rtc_ex.c ****   
 161:Drivers/STM32F7xx_HAL_Driver/Src/stm32f7xx_hal_rtc_ex.c ****   /* Check the parameters */
 162:Drivers/STM32F7xx_HAL_Driver/Src/stm32f7xx_hal_rtc_ex.c ****   assert_param(IS_TIMESTAMP_EDGE(TimeStampEdge));
 163:Drivers/STM32F7xx_HAL_Driver/Src/stm32f7xx_hal_rtc_ex.c ****   assert_param(IS_RTC_TIMESTAMP_PIN(RTC_TimeStampPin));
 164:Drivers/STM32F7xx_HAL_Driver/Src/stm32f7xx_hal_rtc_ex.c ****   
 165:Drivers/STM32F7xx_HAL_Driver/Src/stm32f7xx_hal_rtc_ex.c ****   /* Process Locked */ 
 166:Drivers/STM32F7xx_HAL_Driver/Src/stm32f7xx_hal_rtc_ex.c ****   __HAL_LOCK(hrtc);
  41              		.loc 1 166 0
  42 0002 047F     		ldrb	r4, [r0, #28]	@ zero_extendqisi2
  43 0004 012C     		cmp	r4, #1
  44 0006 27D0     		beq	.L3
  45              		.loc 1 166 0 is_stmt 0 discriminator 2
  46 0008 0124     		movs	r4, #1
  47 000a 0477     		strb	r4, [r0, #28]
 167:Drivers/STM32F7xx_HAL_Driver/Src/stm32f7xx_hal_rtc_ex.c ****   
 168:Drivers/STM32F7xx_HAL_Driver/Src/stm32f7xx_hal_rtc_ex.c ****   hrtc->State = HAL_RTC_STATE_BUSY;
  48              		.loc 1 168 0 is_stmt 1 discriminator 2
  49 000c 0223     		movs	r3, #2
  50 000e 4377     		strb	r3, [r0, #29]
 169:Drivers/STM32F7xx_HAL_Driver/Src/stm32f7xx_hal_rtc_ex.c ****   
 170:Drivers/STM32F7xx_HAL_Driver/Src/stm32f7xx_hal_rtc_ex.c ****   /* Get the RTC_CR register and clear the bits to be configured */
 171:Drivers/STM32F7xx_HAL_Driver/Src/stm32f7xx_hal_rtc_ex.c ****   tmpreg = (uint32_t)(hrtc->Instance->CR & (uint32_t)~(RTC_CR_TSEDGE | RTC_CR_TSE));
  51              		.loc 1 171 0 discriminator 2
  52 0010 0568     		ldr	r5, [r0]
  53 0012 AE68     		ldr	r6, [r5, #8]
  54 0014 A3F60B03 		subw	r3, r3, #2059
  55 0018 3340     		ands	r3, r3, r6
  56              	.LVL2:
 172:Drivers/STM32F7xx_HAL_Driver/Src/stm32f7xx_hal_rtc_ex.c ****     
 173:Drivers/STM32F7xx_HAL_Driver/Src/stm32f7xx_hal_rtc_ex.c ****   tmpreg|= TimeStampEdge;
ARM GAS  C:\Users\Student\AppData\Local\Temp\ccapU3Tb.s 			page 5


  57              		.loc 1 173 0 discriminator 2
  58 001a 1943     		orrs	r1, r1, r3
  59              	.LVL3:
 174:Drivers/STM32F7xx_HAL_Driver/Src/stm32f7xx_hal_rtc_ex.c ****   
 175:Drivers/STM32F7xx_HAL_Driver/Src/stm32f7xx_hal_rtc_ex.c ****   /* Disable the write protection for RTC registers */
 176:Drivers/STM32F7xx_HAL_Driver/Src/stm32f7xx_hal_rtc_ex.c ****   __HAL_RTC_WRITEPROTECTION_DISABLE(hrtc);
  60              		.loc 1 176 0 discriminator 2
  61 001c CA23     		movs	r3, #202
  62 001e 6B62     		str	r3, [r5, #36]
  63 0020 0368     		ldr	r3, [r0]
  64 0022 5325     		movs	r5, #83
  65 0024 5D62     		str	r5, [r3, #36]
 177:Drivers/STM32F7xx_HAL_Driver/Src/stm32f7xx_hal_rtc_ex.c ****   
 178:Drivers/STM32F7xx_HAL_Driver/Src/stm32f7xx_hal_rtc_ex.c ****   hrtc->Instance->OR &= (uint32_t)~RTC_OR_TSINSEL;
  66              		.loc 1 178 0 discriminator 2
  67 0026 0568     		ldr	r5, [r0]
  68 0028 EB6C     		ldr	r3, [r5, #76]
  69 002a 23F00603 		bic	r3, r3, #6
  70 002e EB64     		str	r3, [r5, #76]
 179:Drivers/STM32F7xx_HAL_Driver/Src/stm32f7xx_hal_rtc_ex.c ****   hrtc->Instance->OR |= (uint32_t)(RTC_TimeStampPin); 
  71              		.loc 1 179 0 discriminator 2
  72 0030 0568     		ldr	r5, [r0]
  73 0032 EB6C     		ldr	r3, [r5, #76]
  74 0034 1A43     		orrs	r2, r2, r3
  75              	.LVL4:
  76 0036 EA64     		str	r2, [r5, #76]
 180:Drivers/STM32F7xx_HAL_Driver/Src/stm32f7xx_hal_rtc_ex.c ****   
 181:Drivers/STM32F7xx_HAL_Driver/Src/stm32f7xx_hal_rtc_ex.c ****   /* Configure the Time Stamp TSEDGE and Enable bits */
 182:Drivers/STM32F7xx_HAL_Driver/Src/stm32f7xx_hal_rtc_ex.c ****   hrtc->Instance->CR = (uint32_t)tmpreg;
  77              		.loc 1 182 0 discriminator 2
  78 0038 0368     		ldr	r3, [r0]
  79 003a 9960     		str	r1, [r3, #8]
 183:Drivers/STM32F7xx_HAL_Driver/Src/stm32f7xx_hal_rtc_ex.c ****   
 184:Drivers/STM32F7xx_HAL_Driver/Src/stm32f7xx_hal_rtc_ex.c ****   __HAL_RTC_TIMESTAMP_ENABLE(hrtc);
  80              		.loc 1 184 0 discriminator 2
  81 003c 0268     		ldr	r2, [r0]
  82 003e 9368     		ldr	r3, [r2, #8]
  83 0040 43F40063 		orr	r3, r3, #2048
  84 0044 9360     		str	r3, [r2, #8]
 185:Drivers/STM32F7xx_HAL_Driver/Src/stm32f7xx_hal_rtc_ex.c ****   
 186:Drivers/STM32F7xx_HAL_Driver/Src/stm32f7xx_hal_rtc_ex.c ****   /* Enable the write protection for RTC registers */
 187:Drivers/STM32F7xx_HAL_Driver/Src/stm32f7xx_hal_rtc_ex.c ****   __HAL_RTC_WRITEPROTECTION_ENABLE(hrtc);    
  85              		.loc 1 187 0 discriminator 2
  86 0046 0368     		ldr	r3, [r0]
  87 0048 FF22     		movs	r2, #255
  88 004a 5A62     		str	r2, [r3, #36]
 188:Drivers/STM32F7xx_HAL_Driver/Src/stm32f7xx_hal_rtc_ex.c ****   
 189:Drivers/STM32F7xx_HAL_Driver/Src/stm32f7xx_hal_rtc_ex.c ****   /* Change RTC state */
 190:Drivers/STM32F7xx_HAL_Driver/Src/stm32f7xx_hal_rtc_ex.c ****   hrtc->State = HAL_RTC_STATE_READY; 
  89              		.loc 1 190 0 discriminator 2
  90 004c 4477     		strb	r4, [r0, #29]
 191:Drivers/STM32F7xx_HAL_Driver/Src/stm32f7xx_hal_rtc_ex.c ****   
 192:Drivers/STM32F7xx_HAL_Driver/Src/stm32f7xx_hal_rtc_ex.c ****   /* Process Unlocked */ 
 193:Drivers/STM32F7xx_HAL_Driver/Src/stm32f7xx_hal_rtc_ex.c ****   __HAL_UNLOCK(hrtc);
  91              		.loc 1 193 0 discriminator 2
  92 004e 0023     		movs	r3, #0
  93 0050 0377     		strb	r3, [r0, #28]
ARM GAS  C:\Users\Student\AppData\Local\Temp\ccapU3Tb.s 			page 6


 194:Drivers/STM32F7xx_HAL_Driver/Src/stm32f7xx_hal_rtc_ex.c ****   
 195:Drivers/STM32F7xx_HAL_Driver/Src/stm32f7xx_hal_rtc_ex.c ****   return HAL_OK;
  94              		.loc 1 195 0 discriminator 2
  95 0052 1846     		mov	r0, r3
  96              	.LVL5:
  97              	.L2:
 196:Drivers/STM32F7xx_HAL_Driver/Src/stm32f7xx_hal_rtc_ex.c **** }
  98              		.loc 1 196 0
  99 0054 70BC     		pop	{r4, r5, r6}
 100              	.LCFI1:
 101              		.cfi_remember_state
 102              		.cfi_restore 6
 103              		.cfi_restore 5
 104              		.cfi_restore 4
 105              		.cfi_def_cfa_offset 0
 106 0056 7047     		bx	lr
 107              	.LVL6:
 108              	.L3:
 109              	.LCFI2:
 110              		.cfi_restore_state
 166:Drivers/STM32F7xx_HAL_Driver/Src/stm32f7xx_hal_rtc_ex.c ****   
 111              		.loc 1 166 0
 112 0058 0220     		movs	r0, #2
 113              	.LVL7:
 114 005a FBE7     		b	.L2
 115              		.cfi_endproc
 116              	.LFE136:
 118              		.section	.text.HAL_RTCEx_SetTimeStamp_IT,"ax",%progbits
 119              		.align	1
 120              		.global	HAL_RTCEx_SetTimeStamp_IT
 121              		.syntax unified
 122              		.thumb
 123              		.thumb_func
 124              		.fpu fpv5-sp-d16
 126              	HAL_RTCEx_SetTimeStamp_IT:
 127              	.LFB137:
 197:Drivers/STM32F7xx_HAL_Driver/Src/stm32f7xx_hal_rtc_ex.c **** 
 198:Drivers/STM32F7xx_HAL_Driver/Src/stm32f7xx_hal_rtc_ex.c **** /**
 199:Drivers/STM32F7xx_HAL_Driver/Src/stm32f7xx_hal_rtc_ex.c ****   * @brief  Sets TimeStamp with Interrupt. 
 200:Drivers/STM32F7xx_HAL_Driver/Src/stm32f7xx_hal_rtc_ex.c ****   * @param  hrtc pointer to a RTC_HandleTypeDef structure that contains
 201:Drivers/STM32F7xx_HAL_Driver/Src/stm32f7xx_hal_rtc_ex.c ****   *                the configuration information for RTC.
 202:Drivers/STM32F7xx_HAL_Driver/Src/stm32f7xx_hal_rtc_ex.c ****   * @note   This API must be called before enabling the TimeStamp feature.
 203:Drivers/STM32F7xx_HAL_Driver/Src/stm32f7xx_hal_rtc_ex.c ****   * @param  TimeStampEdge Specifies the pin edge on which the TimeStamp is 
 204:Drivers/STM32F7xx_HAL_Driver/Src/stm32f7xx_hal_rtc_ex.c ****   *         activated.
 205:Drivers/STM32F7xx_HAL_Driver/Src/stm32f7xx_hal_rtc_ex.c ****   *          This parameter can be one of the following values:
 206:Drivers/STM32F7xx_HAL_Driver/Src/stm32f7xx_hal_rtc_ex.c ****   *             @arg RTC_TIMESTAMPEDGE_RISING: the Time stamp event occurs on the  
 207:Drivers/STM32F7xx_HAL_Driver/Src/stm32f7xx_hal_rtc_ex.c ****   *                                        rising edge of the related pin.
 208:Drivers/STM32F7xx_HAL_Driver/Src/stm32f7xx_hal_rtc_ex.c ****   *             @arg RTC_TIMESTAMPEDGE_FALLING: the Time stamp event occurs on the 
 209:Drivers/STM32F7xx_HAL_Driver/Src/stm32f7xx_hal_rtc_ex.c ****   *                                         falling edge of the related pin.
 210:Drivers/STM32F7xx_HAL_Driver/Src/stm32f7xx_hal_rtc_ex.c ****   * @param  RTC_TimeStampPin Specifies the RTC TimeStamp Pin.
 211:Drivers/STM32F7xx_HAL_Driver/Src/stm32f7xx_hal_rtc_ex.c ****   *          This parameter can be one of the following values:
 212:Drivers/STM32F7xx_HAL_Driver/Src/stm32f7xx_hal_rtc_ex.c ****   *             @arg RTC_TIMESTAMPPIN_PC13: PC13 is selected as RTC TimeStamp Pin.
 213:Drivers/STM32F7xx_HAL_Driver/Src/stm32f7xx_hal_rtc_ex.c ****   *             @arg RTC_TIMESTAMPPIN_PI8: PI8 is selected as RTC TimeStamp Pin.  
 214:Drivers/STM32F7xx_HAL_Driver/Src/stm32f7xx_hal_rtc_ex.c ****   *             @arg RTC_TIMESTAMPPIN_PC1: PC1 is selected as RTC TimeStamp Pin.   
 215:Drivers/STM32F7xx_HAL_Driver/Src/stm32f7xx_hal_rtc_ex.c ****   * @retval HAL status
 216:Drivers/STM32F7xx_HAL_Driver/Src/stm32f7xx_hal_rtc_ex.c ****   */
 217:Drivers/STM32F7xx_HAL_Driver/Src/stm32f7xx_hal_rtc_ex.c **** HAL_StatusTypeDef HAL_RTCEx_SetTimeStamp_IT(RTC_HandleTypeDef *hrtc, uint32_t TimeStampEdge, uint32
ARM GAS  C:\Users\Student\AppData\Local\Temp\ccapU3Tb.s 			page 7


 218:Drivers/STM32F7xx_HAL_Driver/Src/stm32f7xx_hal_rtc_ex.c **** {
 128              		.loc 1 218 0
 129              		.cfi_startproc
 130              		@ args = 0, pretend = 0, frame = 0
 131              		@ frame_needed = 0, uses_anonymous_args = 0
 132              		@ link register save eliminated.
 133              	.LVL8:
 134 0000 70B4     		push	{r4, r5, r6}
 135              	.LCFI3:
 136              		.cfi_def_cfa_offset 12
 137              		.cfi_offset 4, -12
 138              		.cfi_offset 5, -8
 139              		.cfi_offset 6, -4
 140              	.LVL9:
 219:Drivers/STM32F7xx_HAL_Driver/Src/stm32f7xx_hal_rtc_ex.c ****   uint32_t tmpreg = 0;
 220:Drivers/STM32F7xx_HAL_Driver/Src/stm32f7xx_hal_rtc_ex.c ****   
 221:Drivers/STM32F7xx_HAL_Driver/Src/stm32f7xx_hal_rtc_ex.c ****   /* Check the parameters */
 222:Drivers/STM32F7xx_HAL_Driver/Src/stm32f7xx_hal_rtc_ex.c ****   assert_param(IS_TIMESTAMP_EDGE(TimeStampEdge));
 223:Drivers/STM32F7xx_HAL_Driver/Src/stm32f7xx_hal_rtc_ex.c ****   assert_param(IS_RTC_TIMESTAMP_PIN(RTC_TimeStampPin));
 224:Drivers/STM32F7xx_HAL_Driver/Src/stm32f7xx_hal_rtc_ex.c ****   
 225:Drivers/STM32F7xx_HAL_Driver/Src/stm32f7xx_hal_rtc_ex.c ****   /* Process Locked */ 
 226:Drivers/STM32F7xx_HAL_Driver/Src/stm32f7xx_hal_rtc_ex.c ****   __HAL_LOCK(hrtc);
 141              		.loc 1 226 0
 142 0002 047F     		ldrb	r4, [r0, #28]	@ zero_extendqisi2
 143 0004 012C     		cmp	r4, #1
 144 0006 3BD0     		beq	.L7
 145              		.loc 1 226 0 is_stmt 0 discriminator 2
 146 0008 0124     		movs	r4, #1
 147 000a 0477     		strb	r4, [r0, #28]
 227:Drivers/STM32F7xx_HAL_Driver/Src/stm32f7xx_hal_rtc_ex.c ****   
 228:Drivers/STM32F7xx_HAL_Driver/Src/stm32f7xx_hal_rtc_ex.c ****   hrtc->State = HAL_RTC_STATE_BUSY;
 148              		.loc 1 228 0 is_stmt 1 discriminator 2
 149 000c 0223     		movs	r3, #2
 150 000e 4377     		strb	r3, [r0, #29]
 229:Drivers/STM32F7xx_HAL_Driver/Src/stm32f7xx_hal_rtc_ex.c ****   
 230:Drivers/STM32F7xx_HAL_Driver/Src/stm32f7xx_hal_rtc_ex.c ****   /* Get the RTC_CR register and clear the bits to be configured */
 231:Drivers/STM32F7xx_HAL_Driver/Src/stm32f7xx_hal_rtc_ex.c ****   tmpreg = (uint32_t)(hrtc->Instance->CR & (uint32_t)~(RTC_CR_TSEDGE | RTC_CR_TSE));
 151              		.loc 1 231 0 discriminator 2
 152 0010 0568     		ldr	r5, [r0]
 153 0012 AE68     		ldr	r6, [r5, #8]
 154 0014 A3F60B03 		subw	r3, r3, #2059
 155 0018 3340     		ands	r3, r3, r6
 156              	.LVL10:
 232:Drivers/STM32F7xx_HAL_Driver/Src/stm32f7xx_hal_rtc_ex.c ****   
 233:Drivers/STM32F7xx_HAL_Driver/Src/stm32f7xx_hal_rtc_ex.c ****   tmpreg |= TimeStampEdge;
 157              		.loc 1 233 0 discriminator 2
 158 001a 0B43     		orrs	r3, r3, r1
 159              	.LVL11:
 234:Drivers/STM32F7xx_HAL_Driver/Src/stm32f7xx_hal_rtc_ex.c ****   
 235:Drivers/STM32F7xx_HAL_Driver/Src/stm32f7xx_hal_rtc_ex.c ****   /* Disable the write protection for RTC registers */
 236:Drivers/STM32F7xx_HAL_Driver/Src/stm32f7xx_hal_rtc_ex.c ****   __HAL_RTC_WRITEPROTECTION_DISABLE(hrtc);
 160              		.loc 1 236 0 discriminator 2
 161 001c CA21     		movs	r1, #202
 162              	.LVL12:
 163 001e 6962     		str	r1, [r5, #36]
 164 0020 0168     		ldr	r1, [r0]
 165 0022 5325     		movs	r5, #83
ARM GAS  C:\Users\Student\AppData\Local\Temp\ccapU3Tb.s 			page 8


 166 0024 4D62     		str	r5, [r1, #36]
 237:Drivers/STM32F7xx_HAL_Driver/Src/stm32f7xx_hal_rtc_ex.c ****   
 238:Drivers/STM32F7xx_HAL_Driver/Src/stm32f7xx_hal_rtc_ex.c ****   /* Configure the Time Stamp TSEDGE and Enable bits */
 239:Drivers/STM32F7xx_HAL_Driver/Src/stm32f7xx_hal_rtc_ex.c ****   hrtc->Instance->CR = (uint32_t)tmpreg;
 167              		.loc 1 239 0 discriminator 2
 168 0026 0168     		ldr	r1, [r0]
 169 0028 8B60     		str	r3, [r1, #8]
 240:Drivers/STM32F7xx_HAL_Driver/Src/stm32f7xx_hal_rtc_ex.c ****   
 241:Drivers/STM32F7xx_HAL_Driver/Src/stm32f7xx_hal_rtc_ex.c ****   hrtc->Instance->OR &= (uint32_t)~RTC_OR_TSINSEL;
 170              		.loc 1 241 0 discriminator 2
 171 002a 0168     		ldr	r1, [r0]
 172 002c CB6C     		ldr	r3, [r1, #76]
 173              	.LVL13:
 174 002e 23F00603 		bic	r3, r3, #6
 175 0032 CB64     		str	r3, [r1, #76]
 242:Drivers/STM32F7xx_HAL_Driver/Src/stm32f7xx_hal_rtc_ex.c ****   hrtc->Instance->OR |= (uint32_t)(RTC_TimeStampPin);
 176              		.loc 1 242 0 discriminator 2
 177 0034 0168     		ldr	r1, [r0]
 178 0036 CB6C     		ldr	r3, [r1, #76]
 179 0038 1A43     		orrs	r2, r2, r3
 180              	.LVL14:
 181 003a CA64     		str	r2, [r1, #76]
 243:Drivers/STM32F7xx_HAL_Driver/Src/stm32f7xx_hal_rtc_ex.c ****   
 244:Drivers/STM32F7xx_HAL_Driver/Src/stm32f7xx_hal_rtc_ex.c ****   /* Clear RTC Timestamp flag */
 245:Drivers/STM32F7xx_HAL_Driver/Src/stm32f7xx_hal_rtc_ex.c ****   __HAL_RTC_TIMESTAMP_CLEAR_FLAG(hrtc, RTC_FLAG_TSF);
 182              		.loc 1 245 0 discriminator 2
 183 003c 0268     		ldr	r2, [r0]
 184 003e D368     		ldr	r3, [r2, #12]
 185 0040 DBB2     		uxtb	r3, r3
 186 0042 63F40863 		orn	r3, r3, #2176
 187 0046 D360     		str	r3, [r2, #12]
 246:Drivers/STM32F7xx_HAL_Driver/Src/stm32f7xx_hal_rtc_ex.c ****   
 247:Drivers/STM32F7xx_HAL_Driver/Src/stm32f7xx_hal_rtc_ex.c ****   __HAL_RTC_TIMESTAMP_ENABLE(hrtc);
 188              		.loc 1 247 0 discriminator 2
 189 0048 0268     		ldr	r2, [r0]
 190 004a 9368     		ldr	r3, [r2, #8]
 191 004c 43F40063 		orr	r3, r3, #2048
 192 0050 9360     		str	r3, [r2, #8]
 248:Drivers/STM32F7xx_HAL_Driver/Src/stm32f7xx_hal_rtc_ex.c ****   
 249:Drivers/STM32F7xx_HAL_Driver/Src/stm32f7xx_hal_rtc_ex.c ****   /* Enable IT timestamp */ 
 250:Drivers/STM32F7xx_HAL_Driver/Src/stm32f7xx_hal_rtc_ex.c ****   __HAL_RTC_TIMESTAMP_ENABLE_IT(hrtc,RTC_IT_TS);
 193              		.loc 1 250 0 discriminator 2
 194 0052 0268     		ldr	r2, [r0]
 195 0054 9368     		ldr	r3, [r2, #8]
 196 0056 43F40043 		orr	r3, r3, #32768
 197 005a 9360     		str	r3, [r2, #8]
 251:Drivers/STM32F7xx_HAL_Driver/Src/stm32f7xx_hal_rtc_ex.c ****   
 252:Drivers/STM32F7xx_HAL_Driver/Src/stm32f7xx_hal_rtc_ex.c ****   /* RTC timestamp Interrupt Configuration: EXTI configuration */
 253:Drivers/STM32F7xx_HAL_Driver/Src/stm32f7xx_hal_rtc_ex.c ****   __HAL_RTC_TAMPER_TIMESTAMP_EXTI_ENABLE_IT();
 198              		.loc 1 253 0 discriminator 2
 199 005c 094B     		ldr	r3, .L9
 200 005e 1A68     		ldr	r2, [r3]
 201 0060 42F40012 		orr	r2, r2, #2097152
 202 0064 1A60     		str	r2, [r3]
 254:Drivers/STM32F7xx_HAL_Driver/Src/stm32f7xx_hal_rtc_ex.c ****   
 255:Drivers/STM32F7xx_HAL_Driver/Src/stm32f7xx_hal_rtc_ex.c ****   EXTI->RTSR |= RTC_EXTI_LINE_TAMPER_TIMESTAMP_EVENT;
 203              		.loc 1 255 0 discriminator 2
ARM GAS  C:\Users\Student\AppData\Local\Temp\ccapU3Tb.s 			page 9


 204 0066 9A68     		ldr	r2, [r3, #8]
 205 0068 42F40012 		orr	r2, r2, #2097152
 206 006c 9A60     		str	r2, [r3, #8]
 256:Drivers/STM32F7xx_HAL_Driver/Src/stm32f7xx_hal_rtc_ex.c ****   
 257:Drivers/STM32F7xx_HAL_Driver/Src/stm32f7xx_hal_rtc_ex.c ****   /* Enable the write protection for RTC registers */
 258:Drivers/STM32F7xx_HAL_Driver/Src/stm32f7xx_hal_rtc_ex.c ****   __HAL_RTC_WRITEPROTECTION_ENABLE(hrtc);  
 207              		.loc 1 258 0 discriminator 2
 208 006e 0368     		ldr	r3, [r0]
 209 0070 FF22     		movs	r2, #255
 210 0072 5A62     		str	r2, [r3, #36]
 259:Drivers/STM32F7xx_HAL_Driver/Src/stm32f7xx_hal_rtc_ex.c ****   
 260:Drivers/STM32F7xx_HAL_Driver/Src/stm32f7xx_hal_rtc_ex.c ****   hrtc->State = HAL_RTC_STATE_READY;  
 211              		.loc 1 260 0 discriminator 2
 212 0074 4477     		strb	r4, [r0, #29]
 261:Drivers/STM32F7xx_HAL_Driver/Src/stm32f7xx_hal_rtc_ex.c ****   
 262:Drivers/STM32F7xx_HAL_Driver/Src/stm32f7xx_hal_rtc_ex.c ****   /* Process Unlocked */ 
 263:Drivers/STM32F7xx_HAL_Driver/Src/stm32f7xx_hal_rtc_ex.c ****   __HAL_UNLOCK(hrtc);
 213              		.loc 1 263 0 discriminator 2
 214 0076 0023     		movs	r3, #0
 215 0078 0377     		strb	r3, [r0, #28]
 264:Drivers/STM32F7xx_HAL_Driver/Src/stm32f7xx_hal_rtc_ex.c ****   
 265:Drivers/STM32F7xx_HAL_Driver/Src/stm32f7xx_hal_rtc_ex.c ****   return HAL_OK;
 216              		.loc 1 265 0 discriminator 2
 217 007a 1846     		mov	r0, r3
 218              	.LVL15:
 219              	.L6:
 266:Drivers/STM32F7xx_HAL_Driver/Src/stm32f7xx_hal_rtc_ex.c **** }
 220              		.loc 1 266 0
 221 007c 70BC     		pop	{r4, r5, r6}
 222              	.LCFI4:
 223              		.cfi_remember_state
 224              		.cfi_restore 6
 225              		.cfi_restore 5
 226              		.cfi_restore 4
 227              		.cfi_def_cfa_offset 0
 228 007e 7047     		bx	lr
 229              	.LVL16:
 230              	.L7:
 231              	.LCFI5:
 232              		.cfi_restore_state
 226:Drivers/STM32F7xx_HAL_Driver/Src/stm32f7xx_hal_rtc_ex.c ****   
 233              		.loc 1 226 0
 234 0080 0220     		movs	r0, #2
 235              	.LVL17:
 236 0082 FBE7     		b	.L6
 237              	.L10:
 238              		.align	2
 239              	.L9:
 240 0084 003C0140 		.word	1073822720
 241              		.cfi_endproc
 242              	.LFE137:
 244              		.section	.text.HAL_RTCEx_DeactivateTimeStamp,"ax",%progbits
 245              		.align	1
 246              		.global	HAL_RTCEx_DeactivateTimeStamp
 247              		.syntax unified
 248              		.thumb
 249              		.thumb_func
ARM GAS  C:\Users\Student\AppData\Local\Temp\ccapU3Tb.s 			page 10


 250              		.fpu fpv5-sp-d16
 252              	HAL_RTCEx_DeactivateTimeStamp:
 253              	.LFB138:
 267:Drivers/STM32F7xx_HAL_Driver/Src/stm32f7xx_hal_rtc_ex.c **** 
 268:Drivers/STM32F7xx_HAL_Driver/Src/stm32f7xx_hal_rtc_ex.c **** /**
 269:Drivers/STM32F7xx_HAL_Driver/Src/stm32f7xx_hal_rtc_ex.c ****   * @brief  Deactivates TimeStamp. 
 270:Drivers/STM32F7xx_HAL_Driver/Src/stm32f7xx_hal_rtc_ex.c ****   * @param  hrtc pointer to a RTC_HandleTypeDef structure that contains
 271:Drivers/STM32F7xx_HAL_Driver/Src/stm32f7xx_hal_rtc_ex.c ****   *                the configuration information for RTC.
 272:Drivers/STM32F7xx_HAL_Driver/Src/stm32f7xx_hal_rtc_ex.c ****   * @retval HAL status
 273:Drivers/STM32F7xx_HAL_Driver/Src/stm32f7xx_hal_rtc_ex.c ****   */
 274:Drivers/STM32F7xx_HAL_Driver/Src/stm32f7xx_hal_rtc_ex.c **** HAL_StatusTypeDef HAL_RTCEx_DeactivateTimeStamp(RTC_HandleTypeDef *hrtc)
 275:Drivers/STM32F7xx_HAL_Driver/Src/stm32f7xx_hal_rtc_ex.c **** {
 254              		.loc 1 275 0
 255              		.cfi_startproc
 256              		@ args = 0, pretend = 0, frame = 0
 257              		@ frame_needed = 0, uses_anonymous_args = 0
 258              		@ link register save eliminated.
 259              	.LVL18:
 276:Drivers/STM32F7xx_HAL_Driver/Src/stm32f7xx_hal_rtc_ex.c ****   uint32_t tmpreg = 0U;
 277:Drivers/STM32F7xx_HAL_Driver/Src/stm32f7xx_hal_rtc_ex.c ****   
 278:Drivers/STM32F7xx_HAL_Driver/Src/stm32f7xx_hal_rtc_ex.c ****   /* Process Locked */ 
 279:Drivers/STM32F7xx_HAL_Driver/Src/stm32f7xx_hal_rtc_ex.c ****   __HAL_LOCK(hrtc);
 260              		.loc 1 279 0
 261 0000 037F     		ldrb	r3, [r0, #28]	@ zero_extendqisi2
 262 0002 012B     		cmp	r3, #1
 263 0004 1ED0     		beq	.L13
 275:Drivers/STM32F7xx_HAL_Driver/Src/stm32f7xx_hal_rtc_ex.c ****   uint32_t tmpreg = 0U;
 264              		.loc 1 275 0 discriminator 2
 265 0006 10B4     		push	{r4}
 266              	.LCFI6:
 267              		.cfi_def_cfa_offset 4
 268              		.cfi_offset 4, -4
 269              		.loc 1 279 0 discriminator 2
 270 0008 0122     		movs	r2, #1
 271 000a 0277     		strb	r2, [r0, #28]
 280:Drivers/STM32F7xx_HAL_Driver/Src/stm32f7xx_hal_rtc_ex.c ****   
 281:Drivers/STM32F7xx_HAL_Driver/Src/stm32f7xx_hal_rtc_ex.c ****   hrtc->State = HAL_RTC_STATE_BUSY;
 272              		.loc 1 281 0 discriminator 2
 273 000c 0223     		movs	r3, #2
 274 000e 4377     		strb	r3, [r0, #29]
 282:Drivers/STM32F7xx_HAL_Driver/Src/stm32f7xx_hal_rtc_ex.c ****   
 283:Drivers/STM32F7xx_HAL_Driver/Src/stm32f7xx_hal_rtc_ex.c ****   /* Disable the write protection for RTC registers */
 284:Drivers/STM32F7xx_HAL_Driver/Src/stm32f7xx_hal_rtc_ex.c ****   __HAL_RTC_WRITEPROTECTION_DISABLE(hrtc);
 275              		.loc 1 284 0 discriminator 2
 276 0010 0368     		ldr	r3, [r0]
 277 0012 CA21     		movs	r1, #202
 278 0014 5962     		str	r1, [r3, #36]
 279 0016 0368     		ldr	r3, [r0]
 280 0018 5321     		movs	r1, #83
 281 001a 5962     		str	r1, [r3, #36]
 285:Drivers/STM32F7xx_HAL_Driver/Src/stm32f7xx_hal_rtc_ex.c ****   
 286:Drivers/STM32F7xx_HAL_Driver/Src/stm32f7xx_hal_rtc_ex.c ****   /* In case of interrupt mode is used, the interrupt source must disabled */ 
 287:Drivers/STM32F7xx_HAL_Driver/Src/stm32f7xx_hal_rtc_ex.c ****   __HAL_RTC_TIMESTAMP_DISABLE_IT(hrtc, RTC_IT_TS);
 282              		.loc 1 287 0 discriminator 2
 283 001c 0168     		ldr	r1, [r0]
 284 001e 8B68     		ldr	r3, [r1, #8]
 285 0020 23F40043 		bic	r3, r3, #32768
ARM GAS  C:\Users\Student\AppData\Local\Temp\ccapU3Tb.s 			page 11


 286 0024 8B60     		str	r3, [r1, #8]
 288:Drivers/STM32F7xx_HAL_Driver/Src/stm32f7xx_hal_rtc_ex.c ****   
 289:Drivers/STM32F7xx_HAL_Driver/Src/stm32f7xx_hal_rtc_ex.c ****   /* Get the RTC_CR register and clear the bits to be configured */
 290:Drivers/STM32F7xx_HAL_Driver/Src/stm32f7xx_hal_rtc_ex.c ****   tmpreg = (uint32_t)(hrtc->Instance->CR & (uint32_t)~(RTC_CR_TSEDGE | RTC_CR_TSE));
 287              		.loc 1 290 0 discriminator 2
 288 0026 0168     		ldr	r1, [r0]
 289 0028 8C68     		ldr	r4, [r1, #8]
 290 002a 074B     		ldr	r3, .L18
 291 002c 2340     		ands	r3, r3, r4
 292              	.LVL19:
 291:Drivers/STM32F7xx_HAL_Driver/Src/stm32f7xx_hal_rtc_ex.c ****   
 292:Drivers/STM32F7xx_HAL_Driver/Src/stm32f7xx_hal_rtc_ex.c ****   /* Configure the Time Stamp TSEDGE and Enable bits */
 293:Drivers/STM32F7xx_HAL_Driver/Src/stm32f7xx_hal_rtc_ex.c ****   hrtc->Instance->CR = (uint32_t)tmpreg;
 293              		.loc 1 293 0 discriminator 2
 294 002e 8B60     		str	r3, [r1, #8]
 294:Drivers/STM32F7xx_HAL_Driver/Src/stm32f7xx_hal_rtc_ex.c ****   
 295:Drivers/STM32F7xx_HAL_Driver/Src/stm32f7xx_hal_rtc_ex.c ****   /* Enable the write protection for RTC registers */
 296:Drivers/STM32F7xx_HAL_Driver/Src/stm32f7xx_hal_rtc_ex.c ****   __HAL_RTC_WRITEPROTECTION_ENABLE(hrtc);
 295              		.loc 1 296 0 discriminator 2
 296 0030 0368     		ldr	r3, [r0]
 297              	.LVL20:
 298 0032 FF21     		movs	r1, #255
 299              	.LVL21:
 300 0034 5962     		str	r1, [r3, #36]
 297:Drivers/STM32F7xx_HAL_Driver/Src/stm32f7xx_hal_rtc_ex.c ****  
 298:Drivers/STM32F7xx_HAL_Driver/Src/stm32f7xx_hal_rtc_ex.c ****   hrtc->State = HAL_RTC_STATE_READY;  
 301              		.loc 1 298 0 discriminator 2
 302 0036 4277     		strb	r2, [r0, #29]
 299:Drivers/STM32F7xx_HAL_Driver/Src/stm32f7xx_hal_rtc_ex.c ****   
 300:Drivers/STM32F7xx_HAL_Driver/Src/stm32f7xx_hal_rtc_ex.c ****   /* Process Unlocked */ 
 301:Drivers/STM32F7xx_HAL_Driver/Src/stm32f7xx_hal_rtc_ex.c ****   __HAL_UNLOCK(hrtc);
 303              		.loc 1 301 0 discriminator 2
 304 0038 0023     		movs	r3, #0
 305 003a 0377     		strb	r3, [r0, #28]
 302:Drivers/STM32F7xx_HAL_Driver/Src/stm32f7xx_hal_rtc_ex.c ****   
 303:Drivers/STM32F7xx_HAL_Driver/Src/stm32f7xx_hal_rtc_ex.c ****   return HAL_OK;
 306              		.loc 1 303 0 discriminator 2
 307 003c 1846     		mov	r0, r3
 308              	.LVL22:
 304:Drivers/STM32F7xx_HAL_Driver/Src/stm32f7xx_hal_rtc_ex.c **** }
 309              		.loc 1 304 0 discriminator 2
 310 003e 5DF8044B 		ldr	r4, [sp], #4
 311              	.LCFI7:
 312              		.cfi_restore 4
 313              		.cfi_def_cfa_offset 0
 314              	.LVL23:
 315 0042 7047     		bx	lr
 316              	.LVL24:
 317              	.L13:
 279:Drivers/STM32F7xx_HAL_Driver/Src/stm32f7xx_hal_rtc_ex.c ****   
 318              		.loc 1 279 0
 319 0044 0220     		movs	r0, #2
 320              	.LVL25:
 321 0046 7047     		bx	lr
 322              	.L19:
 323              		.align	2
 324              	.L18:
ARM GAS  C:\Users\Student\AppData\Local\Temp\ccapU3Tb.s 			page 12


 325 0048 F7F7FFFF 		.word	-2057
 326              		.cfi_endproc
 327              	.LFE138:
 329              		.section	.text.HAL_RTCEx_SetInternalTimeStamp,"ax",%progbits
 330              		.align	1
 331              		.global	HAL_RTCEx_SetInternalTimeStamp
 332              		.syntax unified
 333              		.thumb
 334              		.thumb_func
 335              		.fpu fpv5-sp-d16
 337              	HAL_RTCEx_SetInternalTimeStamp:
 338              	.LFB139:
 305:Drivers/STM32F7xx_HAL_Driver/Src/stm32f7xx_hal_rtc_ex.c **** 
 306:Drivers/STM32F7xx_HAL_Driver/Src/stm32f7xx_hal_rtc_ex.c **** /**
 307:Drivers/STM32F7xx_HAL_Driver/Src/stm32f7xx_hal_rtc_ex.c ****   * @brief  Sets Internal TimeStamp.
 308:Drivers/STM32F7xx_HAL_Driver/Src/stm32f7xx_hal_rtc_ex.c ****   * @note   This API must be called before enabling the internal TimeStamp feature.
 309:Drivers/STM32F7xx_HAL_Driver/Src/stm32f7xx_hal_rtc_ex.c ****   * @param  hrtc pointer to a RTC_HandleTypeDef structure that contains
 310:Drivers/STM32F7xx_HAL_Driver/Src/stm32f7xx_hal_rtc_ex.c ****   *                the configuration information for RTC.
 311:Drivers/STM32F7xx_HAL_Driver/Src/stm32f7xx_hal_rtc_ex.c ****   * @retval HAL status
 312:Drivers/STM32F7xx_HAL_Driver/Src/stm32f7xx_hal_rtc_ex.c ****   */
 313:Drivers/STM32F7xx_HAL_Driver/Src/stm32f7xx_hal_rtc_ex.c **** HAL_StatusTypeDef HAL_RTCEx_SetInternalTimeStamp(RTC_HandleTypeDef *hrtc)
 314:Drivers/STM32F7xx_HAL_Driver/Src/stm32f7xx_hal_rtc_ex.c **** {
 339              		.loc 1 314 0
 340              		.cfi_startproc
 341              		@ args = 0, pretend = 0, frame = 0
 342              		@ frame_needed = 0, uses_anonymous_args = 0
 343              		@ link register save eliminated.
 344              	.LVL26:
 315:Drivers/STM32F7xx_HAL_Driver/Src/stm32f7xx_hal_rtc_ex.c ****   /* Process Locked */
 316:Drivers/STM32F7xx_HAL_Driver/Src/stm32f7xx_hal_rtc_ex.c ****   __HAL_LOCK(hrtc);
 345              		.loc 1 316 0
 346 0000 037F     		ldrb	r3, [r0, #28]	@ zero_extendqisi2
 347 0002 012B     		cmp	r3, #1
 348 0004 16D0     		beq	.L22
 349              		.loc 1 316 0 is_stmt 0 discriminator 2
 350 0006 0122     		movs	r2, #1
 351 0008 0277     		strb	r2, [r0, #28]
 317:Drivers/STM32F7xx_HAL_Driver/Src/stm32f7xx_hal_rtc_ex.c **** 
 318:Drivers/STM32F7xx_HAL_Driver/Src/stm32f7xx_hal_rtc_ex.c ****   hrtc->State = HAL_RTC_STATE_BUSY;
 352              		.loc 1 318 0 is_stmt 1 discriminator 2
 353 000a 0223     		movs	r3, #2
 354 000c 4377     		strb	r3, [r0, #29]
 319:Drivers/STM32F7xx_HAL_Driver/Src/stm32f7xx_hal_rtc_ex.c **** 
 320:Drivers/STM32F7xx_HAL_Driver/Src/stm32f7xx_hal_rtc_ex.c ****   /* Disable the write protection for RTC registers */
 321:Drivers/STM32F7xx_HAL_Driver/Src/stm32f7xx_hal_rtc_ex.c ****   __HAL_RTC_WRITEPROTECTION_DISABLE(hrtc);
 355              		.loc 1 321 0 discriminator 2
 356 000e 0368     		ldr	r3, [r0]
 357 0010 CA21     		movs	r1, #202
 358 0012 5962     		str	r1, [r3, #36]
 359 0014 0368     		ldr	r3, [r0]
 360 0016 5321     		movs	r1, #83
 361 0018 5962     		str	r1, [r3, #36]
 322:Drivers/STM32F7xx_HAL_Driver/Src/stm32f7xx_hal_rtc_ex.c **** 
 323:Drivers/STM32F7xx_HAL_Driver/Src/stm32f7xx_hal_rtc_ex.c ****   /* Configure the internal Time Stamp Enable bits */
 324:Drivers/STM32F7xx_HAL_Driver/Src/stm32f7xx_hal_rtc_ex.c ****   __HAL_RTC_INTERNAL_TIMESTAMP_ENABLE(hrtc);
 362              		.loc 1 324 0 discriminator 2
 363 001a 0168     		ldr	r1, [r0]
ARM GAS  C:\Users\Student\AppData\Local\Temp\ccapU3Tb.s 			page 13


 364 001c 8B68     		ldr	r3, [r1, #8]
 365 001e 43F08073 		orr	r3, r3, #16777216
 366 0022 8B60     		str	r3, [r1, #8]
 325:Drivers/STM32F7xx_HAL_Driver/Src/stm32f7xx_hal_rtc_ex.c **** 
 326:Drivers/STM32F7xx_HAL_Driver/Src/stm32f7xx_hal_rtc_ex.c ****   /* Enable the write protection for RTC registers */
 327:Drivers/STM32F7xx_HAL_Driver/Src/stm32f7xx_hal_rtc_ex.c ****   __HAL_RTC_WRITEPROTECTION_ENABLE(hrtc);
 367              		.loc 1 327 0 discriminator 2
 368 0024 0368     		ldr	r3, [r0]
 369 0026 FF21     		movs	r1, #255
 370 0028 5962     		str	r1, [r3, #36]
 328:Drivers/STM32F7xx_HAL_Driver/Src/stm32f7xx_hal_rtc_ex.c **** 
 329:Drivers/STM32F7xx_HAL_Driver/Src/stm32f7xx_hal_rtc_ex.c ****   /* Change RTC state */
 330:Drivers/STM32F7xx_HAL_Driver/Src/stm32f7xx_hal_rtc_ex.c ****   hrtc->State = HAL_RTC_STATE_READY;
 371              		.loc 1 330 0 discriminator 2
 372 002a 4277     		strb	r2, [r0, #29]
 331:Drivers/STM32F7xx_HAL_Driver/Src/stm32f7xx_hal_rtc_ex.c **** 
 332:Drivers/STM32F7xx_HAL_Driver/Src/stm32f7xx_hal_rtc_ex.c ****   /* Process Unlocked */ 
 333:Drivers/STM32F7xx_HAL_Driver/Src/stm32f7xx_hal_rtc_ex.c ****   __HAL_UNLOCK(hrtc);
 373              		.loc 1 333 0 discriminator 2
 374 002c 0023     		movs	r3, #0
 375 002e 0377     		strb	r3, [r0, #28]
 334:Drivers/STM32F7xx_HAL_Driver/Src/stm32f7xx_hal_rtc_ex.c **** 
 335:Drivers/STM32F7xx_HAL_Driver/Src/stm32f7xx_hal_rtc_ex.c ****   return HAL_OK;
 376              		.loc 1 335 0 discriminator 2
 377 0030 1846     		mov	r0, r3
 378              	.LVL27:
 379 0032 7047     		bx	lr
 380              	.LVL28:
 381              	.L22:
 316:Drivers/STM32F7xx_HAL_Driver/Src/stm32f7xx_hal_rtc_ex.c **** 
 382              		.loc 1 316 0
 383 0034 0220     		movs	r0, #2
 384              	.LVL29:
 336:Drivers/STM32F7xx_HAL_Driver/Src/stm32f7xx_hal_rtc_ex.c **** }
 385              		.loc 1 336 0
 386 0036 7047     		bx	lr
 387              		.cfi_endproc
 388              	.LFE139:
 390              		.section	.text.HAL_RTCEx_DeactivateInternalTimeStamp,"ax",%progbits
 391              		.align	1
 392              		.global	HAL_RTCEx_DeactivateInternalTimeStamp
 393              		.syntax unified
 394              		.thumb
 395              		.thumb_func
 396              		.fpu fpv5-sp-d16
 398              	HAL_RTCEx_DeactivateInternalTimeStamp:
 399              	.LFB140:
 337:Drivers/STM32F7xx_HAL_Driver/Src/stm32f7xx_hal_rtc_ex.c **** 
 338:Drivers/STM32F7xx_HAL_Driver/Src/stm32f7xx_hal_rtc_ex.c **** /**
 339:Drivers/STM32F7xx_HAL_Driver/Src/stm32f7xx_hal_rtc_ex.c ****   * @brief  Deactivates internal TimeStamp.
 340:Drivers/STM32F7xx_HAL_Driver/Src/stm32f7xx_hal_rtc_ex.c ****   * @param  hrtc pointer to a RTC_HandleTypeDef structure that contains
 341:Drivers/STM32F7xx_HAL_Driver/Src/stm32f7xx_hal_rtc_ex.c ****   *                the configuration information for RTC.
 342:Drivers/STM32F7xx_HAL_Driver/Src/stm32f7xx_hal_rtc_ex.c ****   * @retval HAL status
 343:Drivers/STM32F7xx_HAL_Driver/Src/stm32f7xx_hal_rtc_ex.c ****   */
 344:Drivers/STM32F7xx_HAL_Driver/Src/stm32f7xx_hal_rtc_ex.c **** HAL_StatusTypeDef HAL_RTCEx_DeactivateInternalTimeStamp(RTC_HandleTypeDef *hrtc)
 345:Drivers/STM32F7xx_HAL_Driver/Src/stm32f7xx_hal_rtc_ex.c **** {
 400              		.loc 1 345 0
ARM GAS  C:\Users\Student\AppData\Local\Temp\ccapU3Tb.s 			page 14


 401              		.cfi_startproc
 402              		@ args = 0, pretend = 0, frame = 0
 403              		@ frame_needed = 0, uses_anonymous_args = 0
 404              		@ link register save eliminated.
 405              	.LVL30:
 346:Drivers/STM32F7xx_HAL_Driver/Src/stm32f7xx_hal_rtc_ex.c ****   /* Process Locked */
 347:Drivers/STM32F7xx_HAL_Driver/Src/stm32f7xx_hal_rtc_ex.c ****   __HAL_LOCK(hrtc);
 406              		.loc 1 347 0
 407 0000 037F     		ldrb	r3, [r0, #28]	@ zero_extendqisi2
 408 0002 012B     		cmp	r3, #1
 409 0004 16D0     		beq	.L25
 410              		.loc 1 347 0 is_stmt 0 discriminator 2
 411 0006 0122     		movs	r2, #1
 412 0008 0277     		strb	r2, [r0, #28]
 348:Drivers/STM32F7xx_HAL_Driver/Src/stm32f7xx_hal_rtc_ex.c **** 
 349:Drivers/STM32F7xx_HAL_Driver/Src/stm32f7xx_hal_rtc_ex.c ****   hrtc->State = HAL_RTC_STATE_BUSY;
 413              		.loc 1 349 0 is_stmt 1 discriminator 2
 414 000a 0223     		movs	r3, #2
 415 000c 4377     		strb	r3, [r0, #29]
 350:Drivers/STM32F7xx_HAL_Driver/Src/stm32f7xx_hal_rtc_ex.c **** 
 351:Drivers/STM32F7xx_HAL_Driver/Src/stm32f7xx_hal_rtc_ex.c ****   /* Disable the write protection for RTC registers */
 352:Drivers/STM32F7xx_HAL_Driver/Src/stm32f7xx_hal_rtc_ex.c ****   __HAL_RTC_WRITEPROTECTION_DISABLE(hrtc);
 416              		.loc 1 352 0 discriminator 2
 417 000e 0368     		ldr	r3, [r0]
 418 0010 CA21     		movs	r1, #202
 419 0012 5962     		str	r1, [r3, #36]
 420 0014 0368     		ldr	r3, [r0]
 421 0016 5321     		movs	r1, #83
 422 0018 5962     		str	r1, [r3, #36]
 353:Drivers/STM32F7xx_HAL_Driver/Src/stm32f7xx_hal_rtc_ex.c **** 
 354:Drivers/STM32F7xx_HAL_Driver/Src/stm32f7xx_hal_rtc_ex.c ****   /* Configure the internal Time Stamp Enable bits */
 355:Drivers/STM32F7xx_HAL_Driver/Src/stm32f7xx_hal_rtc_ex.c ****   __HAL_RTC_INTERNAL_TIMESTAMP_DISABLE(hrtc);
 423              		.loc 1 355 0 discriminator 2
 424 001a 0168     		ldr	r1, [r0]
 425 001c 8B68     		ldr	r3, [r1, #8]
 426 001e 23F08073 		bic	r3, r3, #16777216
 427 0022 8B60     		str	r3, [r1, #8]
 356:Drivers/STM32F7xx_HAL_Driver/Src/stm32f7xx_hal_rtc_ex.c **** 
 357:Drivers/STM32F7xx_HAL_Driver/Src/stm32f7xx_hal_rtc_ex.c ****   /* Enable the write protection for RTC registers */
 358:Drivers/STM32F7xx_HAL_Driver/Src/stm32f7xx_hal_rtc_ex.c ****   __HAL_RTC_WRITEPROTECTION_ENABLE(hrtc);
 428              		.loc 1 358 0 discriminator 2
 429 0024 0368     		ldr	r3, [r0]
 430 0026 FF21     		movs	r1, #255
 431 0028 5962     		str	r1, [r3, #36]
 359:Drivers/STM32F7xx_HAL_Driver/Src/stm32f7xx_hal_rtc_ex.c **** 
 360:Drivers/STM32F7xx_HAL_Driver/Src/stm32f7xx_hal_rtc_ex.c ****   hrtc->State = HAL_RTC_STATE_READY;
 432              		.loc 1 360 0 discriminator 2
 433 002a 4277     		strb	r2, [r0, #29]
 361:Drivers/STM32F7xx_HAL_Driver/Src/stm32f7xx_hal_rtc_ex.c **** 
 362:Drivers/STM32F7xx_HAL_Driver/Src/stm32f7xx_hal_rtc_ex.c ****   /* Process Unlocked */
 363:Drivers/STM32F7xx_HAL_Driver/Src/stm32f7xx_hal_rtc_ex.c ****   __HAL_UNLOCK(hrtc);
 434              		.loc 1 363 0 discriminator 2
 435 002c 0023     		movs	r3, #0
 436 002e 0377     		strb	r3, [r0, #28]
 364:Drivers/STM32F7xx_HAL_Driver/Src/stm32f7xx_hal_rtc_ex.c **** 
 365:Drivers/STM32F7xx_HAL_Driver/Src/stm32f7xx_hal_rtc_ex.c ****   return HAL_OK;
 437              		.loc 1 365 0 discriminator 2
ARM GAS  C:\Users\Student\AppData\Local\Temp\ccapU3Tb.s 			page 15


 438 0030 1846     		mov	r0, r3
 439              	.LVL31:
 440 0032 7047     		bx	lr
 441              	.LVL32:
 442              	.L25:
 347:Drivers/STM32F7xx_HAL_Driver/Src/stm32f7xx_hal_rtc_ex.c **** 
 443              		.loc 1 347 0
 444 0034 0220     		movs	r0, #2
 445              	.LVL33:
 366:Drivers/STM32F7xx_HAL_Driver/Src/stm32f7xx_hal_rtc_ex.c **** }
 446              		.loc 1 366 0
 447 0036 7047     		bx	lr
 448              		.cfi_endproc
 449              	.LFE140:
 451              		.section	.text.HAL_RTCEx_GetTimeStamp,"ax",%progbits
 452              		.align	1
 453              		.global	HAL_RTCEx_GetTimeStamp
 454              		.syntax unified
 455              		.thumb
 456              		.thumb_func
 457              		.fpu fpv5-sp-d16
 459              	HAL_RTCEx_GetTimeStamp:
 460              	.LFB141:
 367:Drivers/STM32F7xx_HAL_Driver/Src/stm32f7xx_hal_rtc_ex.c **** 
 368:Drivers/STM32F7xx_HAL_Driver/Src/stm32f7xx_hal_rtc_ex.c **** /**
 369:Drivers/STM32F7xx_HAL_Driver/Src/stm32f7xx_hal_rtc_ex.c ****   * @brief  Gets the RTC TimeStamp value.
 370:Drivers/STM32F7xx_HAL_Driver/Src/stm32f7xx_hal_rtc_ex.c ****   * @param  hrtc pointer to a RTC_HandleTypeDef structure that contains
 371:Drivers/STM32F7xx_HAL_Driver/Src/stm32f7xx_hal_rtc_ex.c ****   *                the configuration information for RTC.
 372:Drivers/STM32F7xx_HAL_Driver/Src/stm32f7xx_hal_rtc_ex.c ****   * @param  sTimeStamp Pointer to Time structure
 373:Drivers/STM32F7xx_HAL_Driver/Src/stm32f7xx_hal_rtc_ex.c ****   * @param  sTimeStampDate Pointer to Date structure  
 374:Drivers/STM32F7xx_HAL_Driver/Src/stm32f7xx_hal_rtc_ex.c ****   * @param  Format specifies the format of the entered parameters.
 375:Drivers/STM32F7xx_HAL_Driver/Src/stm32f7xx_hal_rtc_ex.c ****   *          This parameter can be one of the following values:
 376:Drivers/STM32F7xx_HAL_Driver/Src/stm32f7xx_hal_rtc_ex.c ****   *             FORMAT_BIN: Binary data format 
 377:Drivers/STM32F7xx_HAL_Driver/Src/stm32f7xx_hal_rtc_ex.c ****   *             FORMAT_BCD: BCD data format
 378:Drivers/STM32F7xx_HAL_Driver/Src/stm32f7xx_hal_rtc_ex.c ****   * @retval HAL status
 379:Drivers/STM32F7xx_HAL_Driver/Src/stm32f7xx_hal_rtc_ex.c ****   */
 380:Drivers/STM32F7xx_HAL_Driver/Src/stm32f7xx_hal_rtc_ex.c **** HAL_StatusTypeDef HAL_RTCEx_GetTimeStamp(RTC_HandleTypeDef *hrtc, RTC_TimeTypeDef* sTimeStamp, RTC_
 381:Drivers/STM32F7xx_HAL_Driver/Src/stm32f7xx_hal_rtc_ex.c **** {
 461              		.loc 1 381 0
 462              		.cfi_startproc
 463              		@ args = 0, pretend = 0, frame = 0
 464              		@ frame_needed = 0, uses_anonymous_args = 0
 465              	.LVL34:
 466 0000 F8B5     		push	{r3, r4, r5, r6, r7, lr}
 467              	.LCFI8:
 468              		.cfi_def_cfa_offset 24
 469              		.cfi_offset 3, -24
 470              		.cfi_offset 4, -20
 471              		.cfi_offset 5, -16
 472              		.cfi_offset 6, -12
 473              		.cfi_offset 7, -8
 474              		.cfi_offset 14, -4
 475 0002 0646     		mov	r6, r0
 476 0004 0C46     		mov	r4, r1
 477 0006 1546     		mov	r5, r2
 478              	.LVL35:
 382:Drivers/STM32F7xx_HAL_Driver/Src/stm32f7xx_hal_rtc_ex.c ****   uint32_t tmptime = 0U, tmpdate = 0U;
ARM GAS  C:\Users\Student\AppData\Local\Temp\ccapU3Tb.s 			page 16


 383:Drivers/STM32F7xx_HAL_Driver/Src/stm32f7xx_hal_rtc_ex.c **** 
 384:Drivers/STM32F7xx_HAL_Driver/Src/stm32f7xx_hal_rtc_ex.c ****   /* Check the parameters */
 385:Drivers/STM32F7xx_HAL_Driver/Src/stm32f7xx_hal_rtc_ex.c ****   assert_param(IS_RTC_FORMAT(Format));
 386:Drivers/STM32F7xx_HAL_Driver/Src/stm32f7xx_hal_rtc_ex.c **** 
 387:Drivers/STM32F7xx_HAL_Driver/Src/stm32f7xx_hal_rtc_ex.c ****   /* Get the TimeStamp time and date registers values */
 388:Drivers/STM32F7xx_HAL_Driver/Src/stm32f7xx_hal_rtc_ex.c ****   tmptime = (uint32_t)(hrtc->Instance->TSTR & RTC_TR_RESERVED_MASK);
 479              		.loc 1 388 0
 480 0008 0268     		ldr	r2, [r0]
 481              	.LVL36:
 482 000a 106B     		ldr	r0, [r2, #48]
 483              	.LVL37:
 484 000c 1E49     		ldr	r1, .L30
 485              	.LVL38:
 486 000e 0140     		ands	r1, r1, r0
 487              	.LVL39:
 389:Drivers/STM32F7xx_HAL_Driver/Src/stm32f7xx_hal_rtc_ex.c ****   tmpdate = (uint32_t)(hrtc->Instance->TSDR & RTC_DR_RESERVED_MASK);
 488              		.loc 1 389 0
 489 0010 506B     		ldr	r0, [r2, #52]
 490 0012 1E4A     		ldr	r2, .L30+4
 491 0014 0240     		ands	r2, r2, r0
 492              	.LVL40:
 390:Drivers/STM32F7xx_HAL_Driver/Src/stm32f7xx_hal_rtc_ex.c **** 
 391:Drivers/STM32F7xx_HAL_Driver/Src/stm32f7xx_hal_rtc_ex.c ****   /* Fill the Time structure fields with the read parameters */
 392:Drivers/STM32F7xx_HAL_Driver/Src/stm32f7xx_hal_rtc_ex.c ****   sTimeStamp->Hours = (uint8_t)((tmptime & (RTC_TR_HT | RTC_TR_HU)) >> 16U);
 493              		.loc 1 392 0
 494 0016 080C     		lsrs	r0, r1, #16
 495 0018 00F03F07 		and	r7, r0, #63
 496 001c 2770     		strb	r7, [r4]
 393:Drivers/STM32F7xx_HAL_Driver/Src/stm32f7xx_hal_rtc_ex.c ****   sTimeStamp->Minutes = (uint8_t)((tmptime & (RTC_TR_MNT | RTC_TR_MNU)) >> 8U);
 497              		.loc 1 393 0
 498 001e C1F30627 		ubfx	r7, r1, #8, #7
 499 0022 6770     		strb	r7, [r4, #1]
 394:Drivers/STM32F7xx_HAL_Driver/Src/stm32f7xx_hal_rtc_ex.c ****   sTimeStamp->Seconds = (uint8_t)(tmptime & (RTC_TR_ST | RTC_TR_SU));
 500              		.loc 1 394 0
 501 0024 A170     		strb	r1, [r4, #2]
 395:Drivers/STM32F7xx_HAL_Driver/Src/stm32f7xx_hal_rtc_ex.c ****   sTimeStamp->TimeFormat = (uint8_t)((tmptime & (RTC_TR_PM)) >> 16U);  
 502              		.loc 1 395 0
 503 0026 00F04000 		and	r0, r0, #64
 504 002a 2073     		strb	r0, [r4, #12]
 396:Drivers/STM32F7xx_HAL_Driver/Src/stm32f7xx_hal_rtc_ex.c ****   sTimeStamp->SubSeconds = (uint32_t) hrtc->Instance->TSSSR;
 505              		.loc 1 396 0
 506 002c 3168     		ldr	r1, [r6]
 507              	.LVL41:
 508 002e 896B     		ldr	r1, [r1, #56]
 509 0030 6160     		str	r1, [r4, #4]
 397:Drivers/STM32F7xx_HAL_Driver/Src/stm32f7xx_hal_rtc_ex.c ****   
 398:Drivers/STM32F7xx_HAL_Driver/Src/stm32f7xx_hal_rtc_ex.c ****   /* Fill the Date structure fields with the read parameters */
 399:Drivers/STM32F7xx_HAL_Driver/Src/stm32f7xx_hal_rtc_ex.c ****   sTimeStampDate->Year = 0U;
 510              		.loc 1 399 0
 511 0032 0021     		movs	r1, #0
 512 0034 E970     		strb	r1, [r5, #3]
 400:Drivers/STM32F7xx_HAL_Driver/Src/stm32f7xx_hal_rtc_ex.c ****   sTimeStampDate->Month = (uint8_t)((tmpdate & (RTC_DR_MT | RTC_DR_MU)) >> 8U);
 513              		.loc 1 400 0
 514 0036 C2F30421 		ubfx	r1, r2, #8, #5
 515 003a 6970     		strb	r1, [r5, #1]
 401:Drivers/STM32F7xx_HAL_Driver/Src/stm32f7xx_hal_rtc_ex.c ****   sTimeStampDate->Date = (uint8_t)(tmpdate & (RTC_DR_DT | RTC_DR_DU));
 516              		.loc 1 401 0
ARM GAS  C:\Users\Student\AppData\Local\Temp\ccapU3Tb.s 			page 17


 517 003c AA70     		strb	r2, [r5, #2]
 402:Drivers/STM32F7xx_HAL_Driver/Src/stm32f7xx_hal_rtc_ex.c ****   sTimeStampDate->WeekDay = (uint8_t)((tmpdate & (RTC_DR_WDU)) >> 13U);
 518              		.loc 1 402 0
 519 003e C2F34232 		ubfx	r2, r2, #13, #3
 520              	.LVL42:
 521 0042 2A70     		strb	r2, [r5]
 403:Drivers/STM32F7xx_HAL_Driver/Src/stm32f7xx_hal_rtc_ex.c **** 
 404:Drivers/STM32F7xx_HAL_Driver/Src/stm32f7xx_hal_rtc_ex.c ****   /* Check the input parameters format */
 405:Drivers/STM32F7xx_HAL_Driver/Src/stm32f7xx_hal_rtc_ex.c ****   if(Format == RTC_FORMAT_BIN)
 522              		.loc 1 405 0
 523 0044 3BB1     		cbz	r3, .L29
 524              	.LVL43:
 525              	.L27:
 406:Drivers/STM32F7xx_HAL_Driver/Src/stm32f7xx_hal_rtc_ex.c ****   {
 407:Drivers/STM32F7xx_HAL_Driver/Src/stm32f7xx_hal_rtc_ex.c ****     /* Convert the TimeStamp structure parameters to Binary format */
 408:Drivers/STM32F7xx_HAL_Driver/Src/stm32f7xx_hal_rtc_ex.c ****     sTimeStamp->Hours = (uint8_t)RTC_Bcd2ToByte(sTimeStamp->Hours);
 409:Drivers/STM32F7xx_HAL_Driver/Src/stm32f7xx_hal_rtc_ex.c ****     sTimeStamp->Minutes = (uint8_t)RTC_Bcd2ToByte(sTimeStamp->Minutes);
 410:Drivers/STM32F7xx_HAL_Driver/Src/stm32f7xx_hal_rtc_ex.c ****     sTimeStamp->Seconds = (uint8_t)RTC_Bcd2ToByte(sTimeStamp->Seconds);
 411:Drivers/STM32F7xx_HAL_Driver/Src/stm32f7xx_hal_rtc_ex.c ****     
 412:Drivers/STM32F7xx_HAL_Driver/Src/stm32f7xx_hal_rtc_ex.c ****     /* Convert the DateTimeStamp structure parameters to Binary format */
 413:Drivers/STM32F7xx_HAL_Driver/Src/stm32f7xx_hal_rtc_ex.c ****     sTimeStampDate->Month = (uint8_t)RTC_Bcd2ToByte(sTimeStampDate->Month);
 414:Drivers/STM32F7xx_HAL_Driver/Src/stm32f7xx_hal_rtc_ex.c ****     sTimeStampDate->Date = (uint8_t)RTC_Bcd2ToByte(sTimeStampDate->Date);
 415:Drivers/STM32F7xx_HAL_Driver/Src/stm32f7xx_hal_rtc_ex.c ****     sTimeStampDate->WeekDay = (uint8_t)RTC_Bcd2ToByte(sTimeStampDate->WeekDay);
 416:Drivers/STM32F7xx_HAL_Driver/Src/stm32f7xx_hal_rtc_ex.c ****   }
 417:Drivers/STM32F7xx_HAL_Driver/Src/stm32f7xx_hal_rtc_ex.c ****   
 418:Drivers/STM32F7xx_HAL_Driver/Src/stm32f7xx_hal_rtc_ex.c ****   /* Clear the TIMESTAMP Flag */
 419:Drivers/STM32F7xx_HAL_Driver/Src/stm32f7xx_hal_rtc_ex.c ****   __HAL_RTC_TIMESTAMP_CLEAR_FLAG(hrtc, RTC_FLAG_TSF);
 526              		.loc 1 419 0
 527 0046 3268     		ldr	r2, [r6]
 528 0048 D368     		ldr	r3, [r2, #12]
 529 004a DBB2     		uxtb	r3, r3
 530 004c 63F40863 		orn	r3, r3, #2176
 531 0050 D360     		str	r3, [r2, #12]
 420:Drivers/STM32F7xx_HAL_Driver/Src/stm32f7xx_hal_rtc_ex.c ****     
 421:Drivers/STM32F7xx_HAL_Driver/Src/stm32f7xx_hal_rtc_ex.c ****   return HAL_OK;
 422:Drivers/STM32F7xx_HAL_Driver/Src/stm32f7xx_hal_rtc_ex.c **** }
 532              		.loc 1 422 0
 533 0052 0020     		movs	r0, #0
 534 0054 F8BD     		pop	{r3, r4, r5, r6, r7, pc}
 535              	.LVL44:
 536              	.L29:
 408:Drivers/STM32F7xx_HAL_Driver/Src/stm32f7xx_hal_rtc_ex.c ****     sTimeStamp->Minutes = (uint8_t)RTC_Bcd2ToByte(sTimeStamp->Minutes);
 537              		.loc 1 408 0
 538 0056 2078     		ldrb	r0, [r4]	@ zero_extendqisi2
 539 0058 FFF7FEFF 		bl	RTC_Bcd2ToByte
 540              	.LVL45:
 541 005c 2070     		strb	r0, [r4]
 409:Drivers/STM32F7xx_HAL_Driver/Src/stm32f7xx_hal_rtc_ex.c ****     sTimeStamp->Seconds = (uint8_t)RTC_Bcd2ToByte(sTimeStamp->Seconds);
 542              		.loc 1 409 0
 543 005e 6078     		ldrb	r0, [r4, #1]	@ zero_extendqisi2
 544 0060 FFF7FEFF 		bl	RTC_Bcd2ToByte
 545              	.LVL46:
 546 0064 6070     		strb	r0, [r4, #1]
 410:Drivers/STM32F7xx_HAL_Driver/Src/stm32f7xx_hal_rtc_ex.c ****     
 547              		.loc 1 410 0
 548 0066 A078     		ldrb	r0, [r4, #2]	@ zero_extendqisi2
 549 0068 FFF7FEFF 		bl	RTC_Bcd2ToByte
ARM GAS  C:\Users\Student\AppData\Local\Temp\ccapU3Tb.s 			page 18


 550              	.LVL47:
 551 006c A070     		strb	r0, [r4, #2]
 413:Drivers/STM32F7xx_HAL_Driver/Src/stm32f7xx_hal_rtc_ex.c ****     sTimeStampDate->Date = (uint8_t)RTC_Bcd2ToByte(sTimeStampDate->Date);
 552              		.loc 1 413 0
 553 006e 6878     		ldrb	r0, [r5, #1]	@ zero_extendqisi2
 554 0070 FFF7FEFF 		bl	RTC_Bcd2ToByte
 555              	.LVL48:
 556 0074 6870     		strb	r0, [r5, #1]
 414:Drivers/STM32F7xx_HAL_Driver/Src/stm32f7xx_hal_rtc_ex.c ****     sTimeStampDate->WeekDay = (uint8_t)RTC_Bcd2ToByte(sTimeStampDate->WeekDay);
 557              		.loc 1 414 0
 558 0076 A878     		ldrb	r0, [r5, #2]	@ zero_extendqisi2
 559 0078 FFF7FEFF 		bl	RTC_Bcd2ToByte
 560              	.LVL49:
 561 007c A870     		strb	r0, [r5, #2]
 415:Drivers/STM32F7xx_HAL_Driver/Src/stm32f7xx_hal_rtc_ex.c ****   }
 562              		.loc 1 415 0
 563 007e 2878     		ldrb	r0, [r5]	@ zero_extendqisi2
 564 0080 FFF7FEFF 		bl	RTC_Bcd2ToByte
 565              	.LVL50:
 566 0084 2870     		strb	r0, [r5]
 567 0086 DEE7     		b	.L27
 568              	.L31:
 569              		.align	2
 570              	.L30:
 571 0088 7F7F7F00 		.word	8355711
 572 008c 3FFFFF00 		.word	16777023
 573              		.cfi_endproc
 574              	.LFE141:
 576              		.section	.text.HAL_RTCEx_SetTamper,"ax",%progbits
 577              		.align	1
 578              		.global	HAL_RTCEx_SetTamper
 579              		.syntax unified
 580              		.thumb
 581              		.thumb_func
 582              		.fpu fpv5-sp-d16
 584              	HAL_RTCEx_SetTamper:
 585              	.LFB142:
 423:Drivers/STM32F7xx_HAL_Driver/Src/stm32f7xx_hal_rtc_ex.c **** 
 424:Drivers/STM32F7xx_HAL_Driver/Src/stm32f7xx_hal_rtc_ex.c **** /**
 425:Drivers/STM32F7xx_HAL_Driver/Src/stm32f7xx_hal_rtc_ex.c ****   * @brief  Sets Tamper
 426:Drivers/STM32F7xx_HAL_Driver/Src/stm32f7xx_hal_rtc_ex.c ****   * @note   By calling this API we disable the tamper interrupt for all tampers. 
 427:Drivers/STM32F7xx_HAL_Driver/Src/stm32f7xx_hal_rtc_ex.c ****   * @param  hrtc pointer to a RTC_HandleTypeDef structure that contains
 428:Drivers/STM32F7xx_HAL_Driver/Src/stm32f7xx_hal_rtc_ex.c ****   *                the configuration information for RTC.
 429:Drivers/STM32F7xx_HAL_Driver/Src/stm32f7xx_hal_rtc_ex.c ****   * @param  sTamper Pointer to Tamper Structure.
 430:Drivers/STM32F7xx_HAL_Driver/Src/stm32f7xx_hal_rtc_ex.c ****   * @retval HAL status
 431:Drivers/STM32F7xx_HAL_Driver/Src/stm32f7xx_hal_rtc_ex.c ****   */
 432:Drivers/STM32F7xx_HAL_Driver/Src/stm32f7xx_hal_rtc_ex.c **** HAL_StatusTypeDef HAL_RTCEx_SetTamper(RTC_HandleTypeDef *hrtc, RTC_TamperTypeDef* sTamper)
 433:Drivers/STM32F7xx_HAL_Driver/Src/stm32f7xx_hal_rtc_ex.c **** {
 586              		.loc 1 433 0
 587              		.cfi_startproc
 588              		@ args = 0, pretend = 0, frame = 0
 589              		@ frame_needed = 0, uses_anonymous_args = 0
 590              		@ link register save eliminated.
 591              	.LVL51:
 434:Drivers/STM32F7xx_HAL_Driver/Src/stm32f7xx_hal_rtc_ex.c ****   uint32_t tmpreg = 0U;
 435:Drivers/STM32F7xx_HAL_Driver/Src/stm32f7xx_hal_rtc_ex.c ****   
 436:Drivers/STM32F7xx_HAL_Driver/Src/stm32f7xx_hal_rtc_ex.c ****   /* Check the parameters */
ARM GAS  C:\Users\Student\AppData\Local\Temp\ccapU3Tb.s 			page 19


 437:Drivers/STM32F7xx_HAL_Driver/Src/stm32f7xx_hal_rtc_ex.c ****   assert_param(IS_RTC_TAMPER(sTamper->Tamper)); 
 438:Drivers/STM32F7xx_HAL_Driver/Src/stm32f7xx_hal_rtc_ex.c ****   assert_param(IS_RTC_TAMPER_TRIGGER(sTamper->Trigger));
 439:Drivers/STM32F7xx_HAL_Driver/Src/stm32f7xx_hal_rtc_ex.c ****   assert_param(IS_RTC_TAMPER_ERASE_MODE(sTamper->NoErase));
 440:Drivers/STM32F7xx_HAL_Driver/Src/stm32f7xx_hal_rtc_ex.c ****   assert_param(IS_RTC_TAMPER_MASKFLAG_STATE(sTamper->MaskFlag));
 441:Drivers/STM32F7xx_HAL_Driver/Src/stm32f7xx_hal_rtc_ex.c ****   assert_param(IS_RTC_TAMPER_FILTER(sTamper->Filter));
 442:Drivers/STM32F7xx_HAL_Driver/Src/stm32f7xx_hal_rtc_ex.c ****   assert_param(IS_RTC_TAMPER_SAMPLING_FREQ(sTamper->SamplingFrequency));         
 443:Drivers/STM32F7xx_HAL_Driver/Src/stm32f7xx_hal_rtc_ex.c ****   assert_param(IS_RTC_TAMPER_PRECHARGE_DURATION(sTamper->PrechargeDuration));
 444:Drivers/STM32F7xx_HAL_Driver/Src/stm32f7xx_hal_rtc_ex.c ****   assert_param(IS_RTC_TAMPER_PULLUP_STATE(sTamper->TamperPullUp));
 445:Drivers/STM32F7xx_HAL_Driver/Src/stm32f7xx_hal_rtc_ex.c ****   assert_param(IS_RTC_TAMPER_TIMESTAMPONTAMPER_DETECTION(sTamper->TimeStampOnTamperDetection));
 446:Drivers/STM32F7xx_HAL_Driver/Src/stm32f7xx_hal_rtc_ex.c ****  
 447:Drivers/STM32F7xx_HAL_Driver/Src/stm32f7xx_hal_rtc_ex.c ****   /* Process Locked */ 
 448:Drivers/STM32F7xx_HAL_Driver/Src/stm32f7xx_hal_rtc_ex.c ****   __HAL_LOCK(hrtc);
 592              		.loc 1 448 0
 593 0000 037F     		ldrb	r3, [r0, #28]	@ zero_extendqisi2
 594 0002 012B     		cmp	r3, #1
 595 0004 60D0     		beq	.L41
 433:Drivers/STM32F7xx_HAL_Driver/Src/stm32f7xx_hal_rtc_ex.c ****   uint32_t tmpreg = 0U;
 596              		.loc 1 433 0 discriminator 2
 597 0006 30B4     		push	{r4, r5}
 598              	.LCFI9:
 599              		.cfi_def_cfa_offset 8
 600              		.cfi_offset 4, -8
 601              		.cfi_offset 5, -4
 602              		.loc 1 448 0 discriminator 2
 603 0008 0123     		movs	r3, #1
 604 000a 0377     		strb	r3, [r0, #28]
 449:Drivers/STM32F7xx_HAL_Driver/Src/stm32f7xx_hal_rtc_ex.c ****     
 450:Drivers/STM32F7xx_HAL_Driver/Src/stm32f7xx_hal_rtc_ex.c ****   hrtc->State = HAL_RTC_STATE_BUSY;
 605              		.loc 1 450 0 discriminator 2
 606 000c 0223     		movs	r3, #2
 607 000e 4377     		strb	r3, [r0, #29]
 451:Drivers/STM32F7xx_HAL_Driver/Src/stm32f7xx_hal_rtc_ex.c **** 
 452:Drivers/STM32F7xx_HAL_Driver/Src/stm32f7xx_hal_rtc_ex.c ****   if(sTamper->Trigger != RTC_TAMPERTRIGGER_RISINGEDGE)
 608              		.loc 1 452 0 discriminator 2
 609 0010 8B68     		ldr	r3, [r1, #8]
 610 0012 13B1     		cbz	r3, .L34
 453:Drivers/STM32F7xx_HAL_Driver/Src/stm32f7xx_hal_rtc_ex.c ****   { 
 454:Drivers/STM32F7xx_HAL_Driver/Src/stm32f7xx_hal_rtc_ex.c ****     sTamper->Trigger = (uint32_t)(sTamper->Tamper << 1U); 
 611              		.loc 1 454 0
 612 0014 0B68     		ldr	r3, [r1]
 613 0016 5B00     		lsls	r3, r3, #1
 614 0018 8B60     		str	r3, [r1, #8]
 615              	.L34:
 455:Drivers/STM32F7xx_HAL_Driver/Src/stm32f7xx_hal_rtc_ex.c ****   } 
 456:Drivers/STM32F7xx_HAL_Driver/Src/stm32f7xx_hal_rtc_ex.c ****   
 457:Drivers/STM32F7xx_HAL_Driver/Src/stm32f7xx_hal_rtc_ex.c ****   if(sTamper->NoErase != RTC_TAMPER_ERASE_BACKUP_ENABLE)
 616              		.loc 1 457 0
 617 001a CB68     		ldr	r3, [r1, #12]
 618 001c B3B1     		cbz	r3, .L35
 458:Drivers/STM32F7xx_HAL_Driver/Src/stm32f7xx_hal_rtc_ex.c ****   { 
 459:Drivers/STM32F7xx_HAL_Driver/Src/stm32f7xx_hal_rtc_ex.c ****     sTamper->NoErase = 0;
 619              		.loc 1 459 0
 620 001e 0023     		movs	r3, #0
 621 0020 CB60     		str	r3, [r1, #12]
 460:Drivers/STM32F7xx_HAL_Driver/Src/stm32f7xx_hal_rtc_ex.c ****     if((sTamper->Tamper & RTC_TAMPER_1) != 0U)
 622              		.loc 1 460 0
 623 0022 0B68     		ldr	r3, [r1]
ARM GAS  C:\Users\Student\AppData\Local\Temp\ccapU3Tb.s 			page 20


 624 0024 13F0010F 		tst	r3, #1
 625 0028 02D0     		beq	.L36
 461:Drivers/STM32F7xx_HAL_Driver/Src/stm32f7xx_hal_rtc_ex.c ****     {
 462:Drivers/STM32F7xx_HAL_Driver/Src/stm32f7xx_hal_rtc_ex.c ****       sTamper->NoErase |= RTC_TAMPCR_TAMP1NOERASE;
 626              		.loc 1 462 0
 627 002a 4FF40032 		mov	r2, #131072
 628 002e CA60     		str	r2, [r1, #12]
 629              	.L36:
 463:Drivers/STM32F7xx_HAL_Driver/Src/stm32f7xx_hal_rtc_ex.c ****     }
 464:Drivers/STM32F7xx_HAL_Driver/Src/stm32f7xx_hal_rtc_ex.c ****     if((sTamper->Tamper & RTC_TAMPER_2) != 0U)
 630              		.loc 1 464 0
 631 0030 13F0080F 		tst	r3, #8
 632 0034 03D0     		beq	.L37
 465:Drivers/STM32F7xx_HAL_Driver/Src/stm32f7xx_hal_rtc_ex.c ****     {
 466:Drivers/STM32F7xx_HAL_Driver/Src/stm32f7xx_hal_rtc_ex.c ****       sTamper->NoErase |= RTC_TAMPCR_TAMP2NOERASE;
 633              		.loc 1 466 0
 634 0036 CA68     		ldr	r2, [r1, #12]
 635 0038 42F48012 		orr	r2, r2, #1048576
 636 003c CA60     		str	r2, [r1, #12]
 637              	.L37:
 467:Drivers/STM32F7xx_HAL_Driver/Src/stm32f7xx_hal_rtc_ex.c ****     }
 468:Drivers/STM32F7xx_HAL_Driver/Src/stm32f7xx_hal_rtc_ex.c ****     if((sTamper->Tamper & RTC_TAMPER_3) != 0U)
 638              		.loc 1 468 0
 639 003e 13F0200F 		tst	r3, #32
 640 0042 03D0     		beq	.L35
 469:Drivers/STM32F7xx_HAL_Driver/Src/stm32f7xx_hal_rtc_ex.c ****     {
 470:Drivers/STM32F7xx_HAL_Driver/Src/stm32f7xx_hal_rtc_ex.c ****       sTamper->NoErase |= RTC_TAMPCR_TAMP3NOERASE;
 641              		.loc 1 470 0
 642 0044 CB68     		ldr	r3, [r1, #12]
 643 0046 43F40003 		orr	r3, r3, #8388608
 644 004a CB60     		str	r3, [r1, #12]
 645              	.L35:
 471:Drivers/STM32F7xx_HAL_Driver/Src/stm32f7xx_hal_rtc_ex.c ****     }
 472:Drivers/STM32F7xx_HAL_Driver/Src/stm32f7xx_hal_rtc_ex.c ****   }
 473:Drivers/STM32F7xx_HAL_Driver/Src/stm32f7xx_hal_rtc_ex.c **** 
 474:Drivers/STM32F7xx_HAL_Driver/Src/stm32f7xx_hal_rtc_ex.c ****   if(sTamper->MaskFlag != RTC_TAMPERMASK_FLAG_DISABLE)
 646              		.loc 1 474 0
 647 004c 0B69     		ldr	r3, [r1, #16]
 648 004e B3B1     		cbz	r3, .L38
 475:Drivers/STM32F7xx_HAL_Driver/Src/stm32f7xx_hal_rtc_ex.c ****   {
 476:Drivers/STM32F7xx_HAL_Driver/Src/stm32f7xx_hal_rtc_ex.c ****     sTamper->MaskFlag = 0;
 649              		.loc 1 476 0
 650 0050 0023     		movs	r3, #0
 651 0052 0B61     		str	r3, [r1, #16]
 477:Drivers/STM32F7xx_HAL_Driver/Src/stm32f7xx_hal_rtc_ex.c ****     if((sTamper->Tamper & RTC_TAMPER_1) != 0U)
 652              		.loc 1 477 0
 653 0054 0B68     		ldr	r3, [r1]
 654 0056 13F0010F 		tst	r3, #1
 655 005a 02D0     		beq	.L39
 478:Drivers/STM32F7xx_HAL_Driver/Src/stm32f7xx_hal_rtc_ex.c ****     {
 479:Drivers/STM32F7xx_HAL_Driver/Src/stm32f7xx_hal_rtc_ex.c ****       sTamper->MaskFlag |= RTC_TAMPCR_TAMP1MF;
 656              		.loc 1 479 0
 657 005c 4FF48022 		mov	r2, #262144
 658 0060 0A61     		str	r2, [r1, #16]
 659              	.L39:
 480:Drivers/STM32F7xx_HAL_Driver/Src/stm32f7xx_hal_rtc_ex.c ****     }
 481:Drivers/STM32F7xx_HAL_Driver/Src/stm32f7xx_hal_rtc_ex.c ****     if((sTamper->Tamper & RTC_TAMPER_2) != 0U)
ARM GAS  C:\Users\Student\AppData\Local\Temp\ccapU3Tb.s 			page 21


 660              		.loc 1 481 0
 661 0062 13F0080F 		tst	r3, #8
 662 0066 03D0     		beq	.L40
 482:Drivers/STM32F7xx_HAL_Driver/Src/stm32f7xx_hal_rtc_ex.c ****     {
 483:Drivers/STM32F7xx_HAL_Driver/Src/stm32f7xx_hal_rtc_ex.c ****       sTamper->MaskFlag |= RTC_TAMPCR_TAMP2MF;
 663              		.loc 1 483 0
 664 0068 0A69     		ldr	r2, [r1, #16]
 665 006a 42F40012 		orr	r2, r2, #2097152
 666 006e 0A61     		str	r2, [r1, #16]
 667              	.L40:
 484:Drivers/STM32F7xx_HAL_Driver/Src/stm32f7xx_hal_rtc_ex.c ****     }
 485:Drivers/STM32F7xx_HAL_Driver/Src/stm32f7xx_hal_rtc_ex.c ****     if((sTamper->Tamper & RTC_TAMPER_3) != 0U)
 668              		.loc 1 485 0
 669 0070 13F0200F 		tst	r3, #32
 670 0074 03D0     		beq	.L38
 486:Drivers/STM32F7xx_HAL_Driver/Src/stm32f7xx_hal_rtc_ex.c ****     {
 487:Drivers/STM32F7xx_HAL_Driver/Src/stm32f7xx_hal_rtc_ex.c ****       sTamper->MaskFlag |= RTC_TAMPCR_TAMP3MF;
 671              		.loc 1 487 0
 672 0076 0B69     		ldr	r3, [r1, #16]
 673 0078 43F08073 		orr	r3, r3, #16777216
 674 007c 0B61     		str	r3, [r1, #16]
 675              	.L38:
 488:Drivers/STM32F7xx_HAL_Driver/Src/stm32f7xx_hal_rtc_ex.c ****     }
 489:Drivers/STM32F7xx_HAL_Driver/Src/stm32f7xx_hal_rtc_ex.c ****   }
 490:Drivers/STM32F7xx_HAL_Driver/Src/stm32f7xx_hal_rtc_ex.c ****   
 491:Drivers/STM32F7xx_HAL_Driver/Src/stm32f7xx_hal_rtc_ex.c ****   tmpreg = ((uint32_t)sTamper->Tamper | (uint32_t)sTamper->Trigger  | (uint32_t)sTamper->NoErase |\
 676              		.loc 1 491 0
 677 007e 0A68     		ldr	r2, [r1]
 678 0080 8B68     		ldr	r3, [r1, #8]
 679 0082 1343     		orrs	r3, r3, r2
 680 0084 CC68     		ldr	r4, [r1, #12]
 681 0086 2343     		orrs	r3, r3, r4
 492:Drivers/STM32F7xx_HAL_Driver/Src/stm32f7xx_hal_rtc_ex.c ****             (uint32_t)sTamper->MaskFlag | (uint32_t)sTamper->Filter | (uint32_t)sTamper->SamplingFr
 682              		.loc 1 492 0
 683 0088 0C69     		ldr	r4, [r1, #16]
 491:Drivers/STM32F7xx_HAL_Driver/Src/stm32f7xx_hal_rtc_ex.c ****             (uint32_t)sTamper->MaskFlag | (uint32_t)sTamper->Filter | (uint32_t)sTamper->SamplingFr
 684              		.loc 1 491 0
 685 008a 2343     		orrs	r3, r3, r4
 686              		.loc 1 492 0
 687 008c 4C69     		ldr	r4, [r1, #20]
 688 008e 2343     		orrs	r3, r3, r4
 689 0090 8C69     		ldr	r4, [r1, #24]
 690 0092 2343     		orrs	r3, r3, r4
 493:Drivers/STM32F7xx_HAL_Driver/Src/stm32f7xx_hal_rtc_ex.c ****             (uint32_t)sTamper->PrechargeDuration | (uint32_t)sTamper->TamperPullUp | sTamper->TimeS
 691              		.loc 1 493 0
 692 0094 CC69     		ldr	r4, [r1, #28]
 492:Drivers/STM32F7xx_HAL_Driver/Src/stm32f7xx_hal_rtc_ex.c ****             (uint32_t)sTamper->MaskFlag | (uint32_t)sTamper->Filter | (uint32_t)sTamper->SamplingFr
 693              		.loc 1 492 0
 694 0096 2343     		orrs	r3, r3, r4
 695              		.loc 1 493 0
 696 0098 0C6A     		ldr	r4, [r1, #32]
 697 009a 2343     		orrs	r3, r3, r4
 698 009c 496A     		ldr	r1, [r1, #36]
 699              	.LVL52:
 491:Drivers/STM32F7xx_HAL_Driver/Src/stm32f7xx_hal_rtc_ex.c ****             (uint32_t)sTamper->MaskFlag | (uint32_t)sTamper->Filter | (uint32_t)sTamper->SamplingFr
 700              		.loc 1 491 0
 701 009e 0B43     		orrs	r3, r3, r1
ARM GAS  C:\Users\Student\AppData\Local\Temp\ccapU3Tb.s 			page 22


 702              	.LVL53:
 494:Drivers/STM32F7xx_HAL_Driver/Src/stm32f7xx_hal_rtc_ex.c **** 
 495:Drivers/STM32F7xx_HAL_Driver/Src/stm32f7xx_hal_rtc_ex.c ****   hrtc->Instance->TAMPCR &= (uint32_t)~((uint32_t)sTamper->Tamper | (uint32_t)(sTamper->Tamper << 1
 703              		.loc 1 495 0
 704 00a0 0568     		ldr	r5, [r0]
 705 00a2 296C     		ldr	r1, [r5, #64]
 706 00a4 42EA4202 		orr	r2, r2, r2, lsl #1
 496:Drivers/STM32F7xx_HAL_Driver/Src/stm32f7xx_hal_rtc_ex.c ****                                        (uint32_t)RTC_TAMPCR_TAMPFREQ | (uint32_t)RTC_TAMPCR_TAMPFLT
 497:Drivers/STM32F7xx_HAL_Driver/Src/stm32f7xx_hal_rtc_ex.c ****                                        (uint32_t)RTC_TAMPCR_TAMPPUDIS | (uint32_t)RTC_TAMPCR_TAMPIE
 498:Drivers/STM32F7xx_HAL_Driver/Src/stm32f7xx_hal_rtc_ex.c ****                                        (uint32_t)RTC_TAMPCR_TAMP2IE | (uint32_t)RTC_TAMPCR_TAMP3IE 
 499:Drivers/STM32F7xx_HAL_Driver/Src/stm32f7xx_hal_rtc_ex.c ****                                        (uint32_t)RTC_TAMPCR_TAMP2NOERASE | (uint32_t)RTC_TAMPCR_TAM
 500:Drivers/STM32F7xx_HAL_Driver/Src/stm32f7xx_hal_rtc_ex.c ****                                        (uint32_t)RTC_TAMPCR_TAMP2MF | (uint32_t)RTC_TAMPCR_TAMP3MF)
 707              		.loc 1 500 0
 708 00a8 084C     		ldr	r4, .L46
 709 00aa 1443     		orrs	r4, r4, r2
 495:Drivers/STM32F7xx_HAL_Driver/Src/stm32f7xx_hal_rtc_ex.c ****                                        (uint32_t)RTC_TAMPCR_TAMPFREQ | (uint32_t)RTC_TAMPCR_TAMPFLT
 710              		.loc 1 495 0
 711 00ac 21EA0401 		bic	r1, r1, r4
 712 00b0 2964     		str	r1, [r5, #64]
 501:Drivers/STM32F7xx_HAL_Driver/Src/stm32f7xx_hal_rtc_ex.c **** 
 502:Drivers/STM32F7xx_HAL_Driver/Src/stm32f7xx_hal_rtc_ex.c ****   hrtc->Instance->TAMPCR |= tmpreg;      
 713              		.loc 1 502 0
 714 00b2 0268     		ldr	r2, [r0]
 715 00b4 116C     		ldr	r1, [r2, #64]
 716 00b6 0B43     		orrs	r3, r3, r1
 717              	.LVL54:
 718 00b8 1364     		str	r3, [r2, #64]
 503:Drivers/STM32F7xx_HAL_Driver/Src/stm32f7xx_hal_rtc_ex.c ****       
 504:Drivers/STM32F7xx_HAL_Driver/Src/stm32f7xx_hal_rtc_ex.c ****   hrtc->State = HAL_RTC_STATE_READY; 
 719              		.loc 1 504 0
 720 00ba 0123     		movs	r3, #1
 721 00bc 4377     		strb	r3, [r0, #29]
 505:Drivers/STM32F7xx_HAL_Driver/Src/stm32f7xx_hal_rtc_ex.c **** 
 506:Drivers/STM32F7xx_HAL_Driver/Src/stm32f7xx_hal_rtc_ex.c ****   /* Process Unlocked */ 
 507:Drivers/STM32F7xx_HAL_Driver/Src/stm32f7xx_hal_rtc_ex.c ****   __HAL_UNLOCK(hrtc);
 722              		.loc 1 507 0
 723 00be 0023     		movs	r3, #0
 724 00c0 0377     		strb	r3, [r0, #28]
 508:Drivers/STM32F7xx_HAL_Driver/Src/stm32f7xx_hal_rtc_ex.c ****     
 509:Drivers/STM32F7xx_HAL_Driver/Src/stm32f7xx_hal_rtc_ex.c ****   return HAL_OK;
 725              		.loc 1 509 0
 726 00c2 1846     		mov	r0, r3
 727              	.LVL55:
 510:Drivers/STM32F7xx_HAL_Driver/Src/stm32f7xx_hal_rtc_ex.c **** }
 728              		.loc 1 510 0
 729 00c4 30BC     		pop	{r4, r5}
 730              	.LCFI10:
 731              		.cfi_restore 5
 732              		.cfi_restore 4
 733              		.cfi_def_cfa_offset 0
 734 00c6 7047     		bx	lr
 735              	.LVL56:
 736              	.L41:
 448:Drivers/STM32F7xx_HAL_Driver/Src/stm32f7xx_hal_rtc_ex.c ****     
 737              		.loc 1 448 0
 738 00c8 0220     		movs	r0, #2
 739              	.LVL57:
ARM GAS  C:\Users\Student\AppData\Local\Temp\ccapU3Tb.s 			page 23


 740 00ca 7047     		bx	lr
 741              	.L47:
 742              		.align	2
 743              	.L46:
 744 00cc 84FFFF01 		.word	33554308
 745              		.cfi_endproc
 746              	.LFE142:
 748              		.section	.text.HAL_RTCEx_SetTamper_IT,"ax",%progbits
 749              		.align	1
 750              		.global	HAL_RTCEx_SetTamper_IT
 751              		.syntax unified
 752              		.thumb
 753              		.thumb_func
 754              		.fpu fpv5-sp-d16
 756              	HAL_RTCEx_SetTamper_IT:
 757              	.LFB143:
 511:Drivers/STM32F7xx_HAL_Driver/Src/stm32f7xx_hal_rtc_ex.c **** 
 512:Drivers/STM32F7xx_HAL_Driver/Src/stm32f7xx_hal_rtc_ex.c **** /**
 513:Drivers/STM32F7xx_HAL_Driver/Src/stm32f7xx_hal_rtc_ex.c ****   * @brief  Sets Tamper with interrupt.
 514:Drivers/STM32F7xx_HAL_Driver/Src/stm32f7xx_hal_rtc_ex.c ****   * @note   By calling this API we force the tamper interrupt for all tampers.
 515:Drivers/STM32F7xx_HAL_Driver/Src/stm32f7xx_hal_rtc_ex.c ****   * @param  hrtc pointer to a RTC_HandleTypeDef structure that contains
 516:Drivers/STM32F7xx_HAL_Driver/Src/stm32f7xx_hal_rtc_ex.c ****   *                the configuration information for RTC.
 517:Drivers/STM32F7xx_HAL_Driver/Src/stm32f7xx_hal_rtc_ex.c ****   * @param  sTamper Pointer to RTC Tamper.
 518:Drivers/STM32F7xx_HAL_Driver/Src/stm32f7xx_hal_rtc_ex.c ****   * @retval HAL status
 519:Drivers/STM32F7xx_HAL_Driver/Src/stm32f7xx_hal_rtc_ex.c ****   */
 520:Drivers/STM32F7xx_HAL_Driver/Src/stm32f7xx_hal_rtc_ex.c **** HAL_StatusTypeDef HAL_RTCEx_SetTamper_IT(RTC_HandleTypeDef *hrtc, RTC_TamperTypeDef* sTamper)
 521:Drivers/STM32F7xx_HAL_Driver/Src/stm32f7xx_hal_rtc_ex.c **** {
 758              		.loc 1 521 0
 759              		.cfi_startproc
 760              		@ args = 0, pretend = 0, frame = 0
 761              		@ frame_needed = 0, uses_anonymous_args = 0
 762              		@ link register save eliminated.
 763              	.LVL58:
 522:Drivers/STM32F7xx_HAL_Driver/Src/stm32f7xx_hal_rtc_ex.c ****   uint32_t tmpreg = 0;
 523:Drivers/STM32F7xx_HAL_Driver/Src/stm32f7xx_hal_rtc_ex.c ****   
 524:Drivers/STM32F7xx_HAL_Driver/Src/stm32f7xx_hal_rtc_ex.c ****   /* Check the parameters */
 525:Drivers/STM32F7xx_HAL_Driver/Src/stm32f7xx_hal_rtc_ex.c ****   assert_param(IS_RTC_TAMPER(sTamper->Tamper)); 
 526:Drivers/STM32F7xx_HAL_Driver/Src/stm32f7xx_hal_rtc_ex.c ****   assert_param(IS_RTC_TAMPER_INTERRUPT(sTamper->Interrupt));
 527:Drivers/STM32F7xx_HAL_Driver/Src/stm32f7xx_hal_rtc_ex.c ****   assert_param(IS_RTC_TAMPER_TRIGGER(sTamper->Trigger));
 528:Drivers/STM32F7xx_HAL_Driver/Src/stm32f7xx_hal_rtc_ex.c ****   assert_param(IS_RTC_TAMPER_ERASE_MODE(sTamper->NoErase));
 529:Drivers/STM32F7xx_HAL_Driver/Src/stm32f7xx_hal_rtc_ex.c ****   assert_param(IS_RTC_TAMPER_MASKFLAG_STATE(sTamper->MaskFlag));
 530:Drivers/STM32F7xx_HAL_Driver/Src/stm32f7xx_hal_rtc_ex.c ****   assert_param(IS_RTC_TAMPER_FILTER(sTamper->Filter));
 531:Drivers/STM32F7xx_HAL_Driver/Src/stm32f7xx_hal_rtc_ex.c ****   assert_param(IS_RTC_TAMPER_SAMPLING_FREQ(sTamper->SamplingFrequency));         
 532:Drivers/STM32F7xx_HAL_Driver/Src/stm32f7xx_hal_rtc_ex.c ****   assert_param(IS_RTC_TAMPER_PRECHARGE_DURATION(sTamper->PrechargeDuration));
 533:Drivers/STM32F7xx_HAL_Driver/Src/stm32f7xx_hal_rtc_ex.c ****   assert_param(IS_RTC_TAMPER_PULLUP_STATE(sTamper->TamperPullUp));
 534:Drivers/STM32F7xx_HAL_Driver/Src/stm32f7xx_hal_rtc_ex.c ****   assert_param(IS_RTC_TAMPER_TIMESTAMPONTAMPER_DETECTION(sTamper->TimeStampOnTamperDetection));
 535:Drivers/STM32F7xx_HAL_Driver/Src/stm32f7xx_hal_rtc_ex.c ****  
 536:Drivers/STM32F7xx_HAL_Driver/Src/stm32f7xx_hal_rtc_ex.c ****   /* Process Locked */ 
 537:Drivers/STM32F7xx_HAL_Driver/Src/stm32f7xx_hal_rtc_ex.c ****   __HAL_LOCK(hrtc);
 764              		.loc 1 537 0
 765 0000 037F     		ldrb	r3, [r0, #28]	@ zero_extendqisi2
 766 0002 012B     		cmp	r3, #1
 767 0004 00F08B80 		beq	.L60
 521:Drivers/STM32F7xx_HAL_Driver/Src/stm32f7xx_hal_rtc_ex.c ****   uint32_t tmpreg = 0;
 768              		.loc 1 521 0 discriminator 2
 769 0008 70B4     		push	{r4, r5, r6}
 770              	.LCFI11:
ARM GAS  C:\Users\Student\AppData\Local\Temp\ccapU3Tb.s 			page 24


 771              		.cfi_def_cfa_offset 12
 772              		.cfi_offset 4, -12
 773              		.cfi_offset 5, -8
 774              		.cfi_offset 6, -4
 775              		.loc 1 537 0 discriminator 2
 776 000a 0123     		movs	r3, #1
 777 000c 0377     		strb	r3, [r0, #28]
 538:Drivers/STM32F7xx_HAL_Driver/Src/stm32f7xx_hal_rtc_ex.c ****       
 539:Drivers/STM32F7xx_HAL_Driver/Src/stm32f7xx_hal_rtc_ex.c ****   hrtc->State = HAL_RTC_STATE_BUSY;
 778              		.loc 1 539 0 discriminator 2
 779 000e 0223     		movs	r3, #2
 780 0010 4377     		strb	r3, [r0, #29]
 540:Drivers/STM32F7xx_HAL_Driver/Src/stm32f7xx_hal_rtc_ex.c ****   
 541:Drivers/STM32F7xx_HAL_Driver/Src/stm32f7xx_hal_rtc_ex.c ****   /* Configure the tamper trigger */
 542:Drivers/STM32F7xx_HAL_Driver/Src/stm32f7xx_hal_rtc_ex.c ****   if(sTamper->Trigger != RTC_TAMPERTRIGGER_RISINGEDGE)
 781              		.loc 1 542 0 discriminator 2
 782 0012 8B68     		ldr	r3, [r1, #8]
 783 0014 13B1     		cbz	r3, .L50
 543:Drivers/STM32F7xx_HAL_Driver/Src/stm32f7xx_hal_rtc_ex.c ****   { 
 544:Drivers/STM32F7xx_HAL_Driver/Src/stm32f7xx_hal_rtc_ex.c ****     sTamper->Trigger = (uint32_t)(sTamper->Tamper << 1); 
 784              		.loc 1 544 0
 785 0016 0B68     		ldr	r3, [r1]
 786 0018 5B00     		lsls	r3, r3, #1
 787 001a 8B60     		str	r3, [r1, #8]
 788              	.L50:
 545:Drivers/STM32F7xx_HAL_Driver/Src/stm32f7xx_hal_rtc_ex.c ****   } 
 546:Drivers/STM32F7xx_HAL_Driver/Src/stm32f7xx_hal_rtc_ex.c ****   
 547:Drivers/STM32F7xx_HAL_Driver/Src/stm32f7xx_hal_rtc_ex.c ****   if(sTamper->NoErase != RTC_TAMPER_ERASE_BACKUP_ENABLE)
 789              		.loc 1 547 0
 790 001c CB68     		ldr	r3, [r1, #12]
 791 001e B3B1     		cbz	r3, .L51
 548:Drivers/STM32F7xx_HAL_Driver/Src/stm32f7xx_hal_rtc_ex.c ****   { 
 549:Drivers/STM32F7xx_HAL_Driver/Src/stm32f7xx_hal_rtc_ex.c ****     sTamper->NoErase = 0;
 792              		.loc 1 549 0
 793 0020 0023     		movs	r3, #0
 794 0022 CB60     		str	r3, [r1, #12]
 550:Drivers/STM32F7xx_HAL_Driver/Src/stm32f7xx_hal_rtc_ex.c ****     if((sTamper->Tamper & RTC_TAMPER_1) != 0)
 795              		.loc 1 550 0
 796 0024 0B68     		ldr	r3, [r1]
 797 0026 13F0010F 		tst	r3, #1
 798 002a 02D0     		beq	.L52
 551:Drivers/STM32F7xx_HAL_Driver/Src/stm32f7xx_hal_rtc_ex.c ****     {
 552:Drivers/STM32F7xx_HAL_Driver/Src/stm32f7xx_hal_rtc_ex.c ****       sTamper->NoErase |= RTC_TAMPCR_TAMP1NOERASE;
 799              		.loc 1 552 0
 800 002c 4FF40032 		mov	r2, #131072
 801 0030 CA60     		str	r2, [r1, #12]
 802              	.L52:
 553:Drivers/STM32F7xx_HAL_Driver/Src/stm32f7xx_hal_rtc_ex.c ****     }
 554:Drivers/STM32F7xx_HAL_Driver/Src/stm32f7xx_hal_rtc_ex.c ****     if((sTamper->Tamper & RTC_TAMPER_2) != 0)
 803              		.loc 1 554 0
 804 0032 13F0080F 		tst	r3, #8
 805 0036 03D0     		beq	.L53
 555:Drivers/STM32F7xx_HAL_Driver/Src/stm32f7xx_hal_rtc_ex.c ****     {
 556:Drivers/STM32F7xx_HAL_Driver/Src/stm32f7xx_hal_rtc_ex.c ****       sTamper->NoErase |= RTC_TAMPCR_TAMP2NOERASE;
 806              		.loc 1 556 0
 807 0038 CA68     		ldr	r2, [r1, #12]
 808 003a 42F48012 		orr	r2, r2, #1048576
ARM GAS  C:\Users\Student\AppData\Local\Temp\ccapU3Tb.s 			page 25


 809 003e CA60     		str	r2, [r1, #12]
 810              	.L53:
 557:Drivers/STM32F7xx_HAL_Driver/Src/stm32f7xx_hal_rtc_ex.c ****     }
 558:Drivers/STM32F7xx_HAL_Driver/Src/stm32f7xx_hal_rtc_ex.c ****     if((sTamper->Tamper & RTC_TAMPER_3) != 0)
 811              		.loc 1 558 0
 812 0040 13F0200F 		tst	r3, #32
 813 0044 03D0     		beq	.L51
 559:Drivers/STM32F7xx_HAL_Driver/Src/stm32f7xx_hal_rtc_ex.c ****     {
 560:Drivers/STM32F7xx_HAL_Driver/Src/stm32f7xx_hal_rtc_ex.c ****       sTamper->NoErase |= RTC_TAMPCR_TAMP3NOERASE;
 814              		.loc 1 560 0
 815 0046 CB68     		ldr	r3, [r1, #12]
 816 0048 43F40003 		orr	r3, r3, #8388608
 817 004c CB60     		str	r3, [r1, #12]
 818              	.L51:
 561:Drivers/STM32F7xx_HAL_Driver/Src/stm32f7xx_hal_rtc_ex.c ****     }
 562:Drivers/STM32F7xx_HAL_Driver/Src/stm32f7xx_hal_rtc_ex.c ****   }
 563:Drivers/STM32F7xx_HAL_Driver/Src/stm32f7xx_hal_rtc_ex.c **** 
 564:Drivers/STM32F7xx_HAL_Driver/Src/stm32f7xx_hal_rtc_ex.c ****   if(sTamper->MaskFlag != RTC_TAMPERMASK_FLAG_DISABLE)
 819              		.loc 1 564 0
 820 004e 0B69     		ldr	r3, [r1, #16]
 821 0050 B3B1     		cbz	r3, .L54
 565:Drivers/STM32F7xx_HAL_Driver/Src/stm32f7xx_hal_rtc_ex.c ****   {
 566:Drivers/STM32F7xx_HAL_Driver/Src/stm32f7xx_hal_rtc_ex.c ****     sTamper->MaskFlag = 0;
 822              		.loc 1 566 0
 823 0052 0023     		movs	r3, #0
 824 0054 0B61     		str	r3, [r1, #16]
 567:Drivers/STM32F7xx_HAL_Driver/Src/stm32f7xx_hal_rtc_ex.c ****     if((sTamper->Tamper & RTC_TAMPER_1) != 0)
 825              		.loc 1 567 0
 826 0056 0B68     		ldr	r3, [r1]
 827 0058 13F0010F 		tst	r3, #1
 828 005c 02D0     		beq	.L55
 568:Drivers/STM32F7xx_HAL_Driver/Src/stm32f7xx_hal_rtc_ex.c ****     {
 569:Drivers/STM32F7xx_HAL_Driver/Src/stm32f7xx_hal_rtc_ex.c ****       sTamper->MaskFlag |= RTC_TAMPCR_TAMP1MF;
 829              		.loc 1 569 0
 830 005e 4FF48022 		mov	r2, #262144
 831 0062 0A61     		str	r2, [r1, #16]
 832              	.L55:
 570:Drivers/STM32F7xx_HAL_Driver/Src/stm32f7xx_hal_rtc_ex.c ****     }
 571:Drivers/STM32F7xx_HAL_Driver/Src/stm32f7xx_hal_rtc_ex.c ****     if((sTamper->Tamper & RTC_TAMPER_2) != 0)
 833              		.loc 1 571 0
 834 0064 13F0080F 		tst	r3, #8
 835 0068 03D0     		beq	.L56
 572:Drivers/STM32F7xx_HAL_Driver/Src/stm32f7xx_hal_rtc_ex.c ****     {
 573:Drivers/STM32F7xx_HAL_Driver/Src/stm32f7xx_hal_rtc_ex.c ****       sTamper->MaskFlag |= RTC_TAMPCR_TAMP2MF;
 836              		.loc 1 573 0
 837 006a 0A69     		ldr	r2, [r1, #16]
 838 006c 42F40012 		orr	r2, r2, #2097152
 839 0070 0A61     		str	r2, [r1, #16]
 840              	.L56:
 574:Drivers/STM32F7xx_HAL_Driver/Src/stm32f7xx_hal_rtc_ex.c ****     }
 575:Drivers/STM32F7xx_HAL_Driver/Src/stm32f7xx_hal_rtc_ex.c ****     if((sTamper->Tamper & RTC_TAMPER_3) != 0)
 841              		.loc 1 575 0
 842 0072 13F0200F 		tst	r3, #32
 843 0076 03D0     		beq	.L54
 576:Drivers/STM32F7xx_HAL_Driver/Src/stm32f7xx_hal_rtc_ex.c ****     {
 577:Drivers/STM32F7xx_HAL_Driver/Src/stm32f7xx_hal_rtc_ex.c ****       sTamper->MaskFlag |= RTC_TAMPCR_TAMP3MF;
 844              		.loc 1 577 0
ARM GAS  C:\Users\Student\AppData\Local\Temp\ccapU3Tb.s 			page 26


 845 0078 0B69     		ldr	r3, [r1, #16]
 846 007a 43F08073 		orr	r3, r3, #16777216
 847 007e 0B61     		str	r3, [r1, #16]
 848              	.L54:
 578:Drivers/STM32F7xx_HAL_Driver/Src/stm32f7xx_hal_rtc_ex.c ****     }
 579:Drivers/STM32F7xx_HAL_Driver/Src/stm32f7xx_hal_rtc_ex.c ****   }
 580:Drivers/STM32F7xx_HAL_Driver/Src/stm32f7xx_hal_rtc_ex.c ****   
 581:Drivers/STM32F7xx_HAL_Driver/Src/stm32f7xx_hal_rtc_ex.c ****   tmpreg = ((uint32_t)sTamper->Tamper | (uint32_t)sTamper->Interrupt | (uint32_t)sTamper->Trigger  
 849              		.loc 1 581 0
 850 0080 0A68     		ldr	r2, [r1]
 851 0082 4B68     		ldr	r3, [r1, #4]
 852 0084 1343     		orrs	r3, r3, r2
 853 0086 8C68     		ldr	r4, [r1, #8]
 854 0088 2343     		orrs	r3, r3, r4
 855 008a CC68     		ldr	r4, [r1, #12]
 856 008c 2343     		orrs	r3, r3, r4
 582:Drivers/STM32F7xx_HAL_Driver/Src/stm32f7xx_hal_rtc_ex.c ****             (uint32_t)sTamper->MaskFlag | (uint32_t)sTamper->Filter | (uint32_t)sTamper->SamplingFr
 857              		.loc 1 582 0
 858 008e 0C69     		ldr	r4, [r1, #16]
 581:Drivers/STM32F7xx_HAL_Driver/Src/stm32f7xx_hal_rtc_ex.c ****             (uint32_t)sTamper->MaskFlag | (uint32_t)sTamper->Filter | (uint32_t)sTamper->SamplingFr
 859              		.loc 1 581 0
 860 0090 2343     		orrs	r3, r3, r4
 861              		.loc 1 582 0
 862 0092 4C69     		ldr	r4, [r1, #20]
 863 0094 2343     		orrs	r3, r3, r4
 864 0096 8C69     		ldr	r4, [r1, #24]
 865 0098 2343     		orrs	r3, r3, r4
 583:Drivers/STM32F7xx_HAL_Driver/Src/stm32f7xx_hal_rtc_ex.c ****             (uint32_t)sTamper->PrechargeDuration | (uint32_t)sTamper->TamperPullUp | sTamper->TimeS
 866              		.loc 1 583 0
 867 009a CC69     		ldr	r4, [r1, #28]
 582:Drivers/STM32F7xx_HAL_Driver/Src/stm32f7xx_hal_rtc_ex.c ****             (uint32_t)sTamper->MaskFlag | (uint32_t)sTamper->Filter | (uint32_t)sTamper->SamplingFr
 868              		.loc 1 582 0
 869 009c 2343     		orrs	r3, r3, r4
 870              		.loc 1 583 0
 871 009e 0C6A     		ldr	r4, [r1, #32]
 872 00a0 2343     		orrs	r3, r3, r4
 873 00a2 4C6A     		ldr	r4, [r1, #36]
 581:Drivers/STM32F7xx_HAL_Driver/Src/stm32f7xx_hal_rtc_ex.c ****             (uint32_t)sTamper->MaskFlag | (uint32_t)sTamper->Filter | (uint32_t)sTamper->SamplingFr
 874              		.loc 1 581 0
 875 00a4 2343     		orrs	r3, r3, r4
 876              	.LVL59:
 584:Drivers/STM32F7xx_HAL_Driver/Src/stm32f7xx_hal_rtc_ex.c ****   
 585:Drivers/STM32F7xx_HAL_Driver/Src/stm32f7xx_hal_rtc_ex.c ****   hrtc->Instance->TAMPCR &= (uint32_t)~((uint32_t)sTamper->Tamper | (uint32_t)(sTamper->Tamper << 1
 877              		.loc 1 585 0
 878 00a6 0668     		ldr	r6, [r0]
 879 00a8 346C     		ldr	r4, [r6, #64]
 880 00aa 42EA4202 		orr	r2, r2, r2, lsl #1
 586:Drivers/STM32F7xx_HAL_Driver/Src/stm32f7xx_hal_rtc_ex.c ****                                        (uint32_t)RTC_TAMPCR_TAMPFREQ | (uint32_t)RTC_TAMPCR_TAMPFLT
 587:Drivers/STM32F7xx_HAL_Driver/Src/stm32f7xx_hal_rtc_ex.c ****                                        (uint32_t)RTC_TAMPCR_TAMPPUDIS | (uint32_t)RTC_TAMPCR_TAMPIE
 588:Drivers/STM32F7xx_HAL_Driver/Src/stm32f7xx_hal_rtc_ex.c ****                                        (uint32_t)RTC_TAMPCR_TAMP2IE | (uint32_t)RTC_TAMPCR_TAMP3IE 
 589:Drivers/STM32F7xx_HAL_Driver/Src/stm32f7xx_hal_rtc_ex.c ****                                        (uint32_t)RTC_TAMPCR_TAMP2NOERASE | (uint32_t)RTC_TAMPCR_TAM
 590:Drivers/STM32F7xx_HAL_Driver/Src/stm32f7xx_hal_rtc_ex.c ****                                        (uint32_t)RTC_TAMPCR_TAMP2MF | (uint32_t)RTC_TAMPCR_TAMP3MF)
 881              		.loc 1 590 0
 882 00ae 1D4D     		ldr	r5, .L67
 883 00b0 1543     		orrs	r5, r5, r2
 585:Drivers/STM32F7xx_HAL_Driver/Src/stm32f7xx_hal_rtc_ex.c ****                                        (uint32_t)RTC_TAMPCR_TAMPFREQ | (uint32_t)RTC_TAMPCR_TAMPFLT
 884              		.loc 1 585 0
ARM GAS  C:\Users\Student\AppData\Local\Temp\ccapU3Tb.s 			page 27


 885 00b2 24EA0504 		bic	r4, r4, r5
 886 00b6 3464     		str	r4, [r6, #64]
 591:Drivers/STM32F7xx_HAL_Driver/Src/stm32f7xx_hal_rtc_ex.c **** 
 592:Drivers/STM32F7xx_HAL_Driver/Src/stm32f7xx_hal_rtc_ex.c ****   hrtc->Instance->TAMPCR |= tmpreg;
 887              		.loc 1 592 0
 888 00b8 0268     		ldr	r2, [r0]
 889 00ba 146C     		ldr	r4, [r2, #64]
 890 00bc 2343     		orrs	r3, r3, r4
 891              	.LVL60:
 892 00be 1364     		str	r3, [r2, #64]
 593:Drivers/STM32F7xx_HAL_Driver/Src/stm32f7xx_hal_rtc_ex.c ****   
 594:Drivers/STM32F7xx_HAL_Driver/Src/stm32f7xx_hal_rtc_ex.c ****   if(sTamper->Tamper == RTC_TAMPER_1)
 893              		.loc 1 594 0
 894 00c0 0B68     		ldr	r3, [r1]
 895 00c2 012B     		cmp	r3, #1
 896 00c4 1DD0     		beq	.L65
 595:Drivers/STM32F7xx_HAL_Driver/Src/stm32f7xx_hal_rtc_ex.c ****   {
 596:Drivers/STM32F7xx_HAL_Driver/Src/stm32f7xx_hal_rtc_ex.c ****     /* Clear RTC Tamper 1 flag */
 597:Drivers/STM32F7xx_HAL_Driver/Src/stm32f7xx_hal_rtc_ex.c ****     __HAL_RTC_TAMPER_CLEAR_FLAG(hrtc, RTC_FLAG_TAMP1F);
 598:Drivers/STM32F7xx_HAL_Driver/Src/stm32f7xx_hal_rtc_ex.c ****   }
 599:Drivers/STM32F7xx_HAL_Driver/Src/stm32f7xx_hal_rtc_ex.c ****   else if(sTamper->Tamper == RTC_TAMPER_2)
 897              		.loc 1 599 0
 898 00c6 082B     		cmp	r3, #8
 899 00c8 22D0     		beq	.L66
 600:Drivers/STM32F7xx_HAL_Driver/Src/stm32f7xx_hal_rtc_ex.c ****   {
 601:Drivers/STM32F7xx_HAL_Driver/Src/stm32f7xx_hal_rtc_ex.c ****     /* Clear RTC Tamper 2 flag */
 602:Drivers/STM32F7xx_HAL_Driver/Src/stm32f7xx_hal_rtc_ex.c ****     __HAL_RTC_TAMPER_CLEAR_FLAG(hrtc, RTC_FLAG_TAMP2F);    
 603:Drivers/STM32F7xx_HAL_Driver/Src/stm32f7xx_hal_rtc_ex.c ****   }
 604:Drivers/STM32F7xx_HAL_Driver/Src/stm32f7xx_hal_rtc_ex.c ****   else
 605:Drivers/STM32F7xx_HAL_Driver/Src/stm32f7xx_hal_rtc_ex.c ****   {
 606:Drivers/STM32F7xx_HAL_Driver/Src/stm32f7xx_hal_rtc_ex.c ****     /* Clear RTC Tamper 3 flag */
 607:Drivers/STM32F7xx_HAL_Driver/Src/stm32f7xx_hal_rtc_ex.c ****     __HAL_RTC_TAMPER_CLEAR_FLAG(hrtc, RTC_FLAG_TAMP3F);  
 900              		.loc 1 607 0
 901 00ca 0268     		ldr	r2, [r0]
 902 00cc D368     		ldr	r3, [r2, #12]
 903 00ce DBB2     		uxtb	r3, r3
 904 00d0 43F07F43 		orr	r3, r3, #-16777216
 905 00d4 43F47F03 		orr	r3, r3, #16711680
 906 00d8 43F4FE43 		orr	r3, r3, #32512
 907 00dc 43F07F03 		orr	r3, r3, #127
 908 00e0 D360     		str	r3, [r2, #12]
 909              	.L58:
 608:Drivers/STM32F7xx_HAL_Driver/Src/stm32f7xx_hal_rtc_ex.c ****   }
 609:Drivers/STM32F7xx_HAL_Driver/Src/stm32f7xx_hal_rtc_ex.c **** 
 610:Drivers/STM32F7xx_HAL_Driver/Src/stm32f7xx_hal_rtc_ex.c ****   /* RTC Tamper Interrupt Configuration: EXTI configuration */
 611:Drivers/STM32F7xx_HAL_Driver/Src/stm32f7xx_hal_rtc_ex.c ****   __HAL_RTC_TAMPER_TIMESTAMP_EXTI_ENABLE_IT();
 910              		.loc 1 611 0
 911 00e2 114B     		ldr	r3, .L67+4
 912 00e4 1A68     		ldr	r2, [r3]
 913 00e6 42F40012 		orr	r2, r2, #2097152
 914 00ea 1A60     		str	r2, [r3]
 612:Drivers/STM32F7xx_HAL_Driver/Src/stm32f7xx_hal_rtc_ex.c **** 
 613:Drivers/STM32F7xx_HAL_Driver/Src/stm32f7xx_hal_rtc_ex.c ****   EXTI->RTSR |= RTC_EXTI_LINE_TAMPER_TIMESTAMP_EVENT;
 915              		.loc 1 613 0
 916 00ec 9A68     		ldr	r2, [r3, #8]
 917 00ee 42F40012 		orr	r2, r2, #2097152
 918 00f2 9A60     		str	r2, [r3, #8]
ARM GAS  C:\Users\Student\AppData\Local\Temp\ccapU3Tb.s 			page 28


 614:Drivers/STM32F7xx_HAL_Driver/Src/stm32f7xx_hal_rtc_ex.c ****   
 615:Drivers/STM32F7xx_HAL_Driver/Src/stm32f7xx_hal_rtc_ex.c ****   hrtc->State = HAL_RTC_STATE_READY;   
 919              		.loc 1 615 0
 920 00f4 0123     		movs	r3, #1
 921 00f6 4377     		strb	r3, [r0, #29]
 616:Drivers/STM32F7xx_HAL_Driver/Src/stm32f7xx_hal_rtc_ex.c ****   
 617:Drivers/STM32F7xx_HAL_Driver/Src/stm32f7xx_hal_rtc_ex.c ****   /* Process Unlocked */ 
 618:Drivers/STM32F7xx_HAL_Driver/Src/stm32f7xx_hal_rtc_ex.c ****   __HAL_UNLOCK(hrtc);
 922              		.loc 1 618 0
 923 00f8 0023     		movs	r3, #0
 924 00fa 0377     		strb	r3, [r0, #28]
 619:Drivers/STM32F7xx_HAL_Driver/Src/stm32f7xx_hal_rtc_ex.c ****   
 620:Drivers/STM32F7xx_HAL_Driver/Src/stm32f7xx_hal_rtc_ex.c ****   return HAL_OK;
 925              		.loc 1 620 0
 926 00fc 1846     		mov	r0, r3
 927              	.LVL61:
 621:Drivers/STM32F7xx_HAL_Driver/Src/stm32f7xx_hal_rtc_ex.c **** }
 928              		.loc 1 621 0
 929 00fe 70BC     		pop	{r4, r5, r6}
 930              	.LCFI12:
 931              		.cfi_remember_state
 932              		.cfi_restore 6
 933              		.cfi_restore 5
 934              		.cfi_restore 4
 935              		.cfi_def_cfa_offset 0
 936 0100 7047     		bx	lr
 937              	.LVL62:
 938              	.L65:
 939              	.LCFI13:
 940              		.cfi_restore_state
 597:Drivers/STM32F7xx_HAL_Driver/Src/stm32f7xx_hal_rtc_ex.c ****   }
 941              		.loc 1 597 0
 942 0102 0268     		ldr	r2, [r0]
 943 0104 D368     		ldr	r3, [r2, #12]
 944 0106 DBB2     		uxtb	r3, r3
 945 0108 63F40253 		orn	r3, r3, #8320
 946 010c D360     		str	r3, [r2, #12]
 947 010e E8E7     		b	.L58
 948              	.L66:
 602:Drivers/STM32F7xx_HAL_Driver/Src/stm32f7xx_hal_rtc_ex.c ****   }
 949              		.loc 1 602 0
 950 0110 0268     		ldr	r2, [r0]
 951 0112 D368     		ldr	r3, [r2, #12]
 952 0114 DBB2     		uxtb	r3, r3
 953 0116 63F48143 		orn	r3, r3, #16512
 954 011a D360     		str	r3, [r2, #12]
 955 011c E1E7     		b	.L58
 956              	.LVL63:
 957              	.L60:
 958              	.LCFI14:
 959              		.cfi_def_cfa_offset 0
 960              		.cfi_restore 4
 961              		.cfi_restore 5
 962              		.cfi_restore 6
 537:Drivers/STM32F7xx_HAL_Driver/Src/stm32f7xx_hal_rtc_ex.c ****       
 963              		.loc 1 537 0
 964 011e 0220     		movs	r0, #2
ARM GAS  C:\Users\Student\AppData\Local\Temp\ccapU3Tb.s 			page 29


 965              	.LVL64:
 966 0120 7047     		bx	lr
 967              	.L68:
 968 0122 00BF     		.align	2
 969              	.L67:
 970 0124 84FFFF01 		.word	33554308
 971 0128 003C0140 		.word	1073822720
 972              		.cfi_endproc
 973              	.LFE143:
 975              		.section	.text.HAL_RTCEx_DeactivateTamper,"ax",%progbits
 976              		.align	1
 977              		.global	HAL_RTCEx_DeactivateTamper
 978              		.syntax unified
 979              		.thumb
 980              		.thumb_func
 981              		.fpu fpv5-sp-d16
 983              	HAL_RTCEx_DeactivateTamper:
 984              	.LFB144:
 622:Drivers/STM32F7xx_HAL_Driver/Src/stm32f7xx_hal_rtc_ex.c **** 
 623:Drivers/STM32F7xx_HAL_Driver/Src/stm32f7xx_hal_rtc_ex.c **** /**
 624:Drivers/STM32F7xx_HAL_Driver/Src/stm32f7xx_hal_rtc_ex.c ****   * @brief  Deactivates Tamper.
 625:Drivers/STM32F7xx_HAL_Driver/Src/stm32f7xx_hal_rtc_ex.c ****   * @param  hrtc pointer to a RTC_HandleTypeDef structure that contains
 626:Drivers/STM32F7xx_HAL_Driver/Src/stm32f7xx_hal_rtc_ex.c ****   *                the configuration information for RTC.
 627:Drivers/STM32F7xx_HAL_Driver/Src/stm32f7xx_hal_rtc_ex.c ****   * @param  Tamper Selected tamper pin.
 628:Drivers/STM32F7xx_HAL_Driver/Src/stm32f7xx_hal_rtc_ex.c ****   *          This parameter can be RTC_Tamper_1 and/or RTC_TAMPER_2.
 629:Drivers/STM32F7xx_HAL_Driver/Src/stm32f7xx_hal_rtc_ex.c ****   * @retval HAL status
 630:Drivers/STM32F7xx_HAL_Driver/Src/stm32f7xx_hal_rtc_ex.c ****   */
 631:Drivers/STM32F7xx_HAL_Driver/Src/stm32f7xx_hal_rtc_ex.c **** HAL_StatusTypeDef HAL_RTCEx_DeactivateTamper(RTC_HandleTypeDef *hrtc, uint32_t Tamper)
 632:Drivers/STM32F7xx_HAL_Driver/Src/stm32f7xx_hal_rtc_ex.c **** {
 985              		.loc 1 632 0
 986              		.cfi_startproc
 987              		@ args = 0, pretend = 0, frame = 0
 988              		@ frame_needed = 0, uses_anonymous_args = 0
 989              		@ link register save eliminated.
 990              	.LVL65:
 633:Drivers/STM32F7xx_HAL_Driver/Src/stm32f7xx_hal_rtc_ex.c ****   assert_param(IS_RTC_TAMPER(Tamper)); 
 634:Drivers/STM32F7xx_HAL_Driver/Src/stm32f7xx_hal_rtc_ex.c ****   
 635:Drivers/STM32F7xx_HAL_Driver/Src/stm32f7xx_hal_rtc_ex.c ****   /* Process Locked */ 
 636:Drivers/STM32F7xx_HAL_Driver/Src/stm32f7xx_hal_rtc_ex.c ****   __HAL_LOCK(hrtc);
 991              		.loc 1 636 0
 992 0000 037F     		ldrb	r3, [r0, #28]	@ zero_extendqisi2
 993 0002 012B     		cmp	r3, #1
 994 0004 29D0     		beq	.L74
 632:Drivers/STM32F7xx_HAL_Driver/Src/stm32f7xx_hal_rtc_ex.c ****   assert_param(IS_RTC_TAMPER(Tamper)); 
 995              		.loc 1 632 0 discriminator 2
 996 0006 10B4     		push	{r4}
 997              	.LCFI15:
 998              		.cfi_def_cfa_offset 4
 999              		.cfi_offset 4, -4
 1000              		.loc 1 636 0 discriminator 2
 1001 0008 0123     		movs	r3, #1
 1002 000a 0377     		strb	r3, [r0, #28]
 637:Drivers/STM32F7xx_HAL_Driver/Src/stm32f7xx_hal_rtc_ex.c ****       
 638:Drivers/STM32F7xx_HAL_Driver/Src/stm32f7xx_hal_rtc_ex.c ****   hrtc->State = HAL_RTC_STATE_BUSY;
 1003              		.loc 1 638 0 discriminator 2
 1004 000c 0223     		movs	r3, #2
 1005 000e 4377     		strb	r3, [r0, #29]
ARM GAS  C:\Users\Student\AppData\Local\Temp\ccapU3Tb.s 			page 30


 639:Drivers/STM32F7xx_HAL_Driver/Src/stm32f7xx_hal_rtc_ex.c ****   
 640:Drivers/STM32F7xx_HAL_Driver/Src/stm32f7xx_hal_rtc_ex.c **** /* Disable the selected Tamper pin */
 641:Drivers/STM32F7xx_HAL_Driver/Src/stm32f7xx_hal_rtc_ex.c ****   hrtc->Instance->TAMPCR &= (uint32_t)~Tamper;
 1006              		.loc 1 641 0 discriminator 2
 1007 0010 0268     		ldr	r2, [r0]
 1008 0012 136C     		ldr	r3, [r2, #64]
 1009 0014 23EA0103 		bic	r3, r3, r1
 1010 0018 1364     		str	r3, [r2, #64]
 642:Drivers/STM32F7xx_HAL_Driver/Src/stm32f7xx_hal_rtc_ex.c **** 
 643:Drivers/STM32F7xx_HAL_Driver/Src/stm32f7xx_hal_rtc_ex.c ****   if ((Tamper & RTC_TAMPER_1) != 0)
 1011              		.loc 1 643 0 discriminator 2
 1012 001a 11F0010F 		tst	r1, #1
 1013 001e 04D0     		beq	.L71
 644:Drivers/STM32F7xx_HAL_Driver/Src/stm32f7xx_hal_rtc_ex.c ****   {
 645:Drivers/STM32F7xx_HAL_Driver/Src/stm32f7xx_hal_rtc_ex.c ****     /* Disable the Tamper1 interrupt */
 646:Drivers/STM32F7xx_HAL_Driver/Src/stm32f7xx_hal_rtc_ex.c ****     hrtc->Instance->TAMPCR &= (uint32_t)~(RTC_IT_TAMP | RTC_IT_TAMP1);
 1014              		.loc 1 646 0
 1015 0020 0268     		ldr	r2, [r0]
 1016 0022 146C     		ldr	r4, [r2, #64]
 1017 0024 0E4B     		ldr	r3, .L79
 1018 0026 2340     		ands	r3, r3, r4
 1019 0028 1364     		str	r3, [r2, #64]
 1020              	.L71:
 647:Drivers/STM32F7xx_HAL_Driver/Src/stm32f7xx_hal_rtc_ex.c ****   }
 648:Drivers/STM32F7xx_HAL_Driver/Src/stm32f7xx_hal_rtc_ex.c ****   if ((Tamper & RTC_TAMPER_2) != 0)
 1021              		.loc 1 648 0
 1022 002a 11F0080F 		tst	r1, #8
 1023 002e 04D0     		beq	.L72
 649:Drivers/STM32F7xx_HAL_Driver/Src/stm32f7xx_hal_rtc_ex.c ****   {
 650:Drivers/STM32F7xx_HAL_Driver/Src/stm32f7xx_hal_rtc_ex.c ****     /* Disable the Tamper2 interrupt */
 651:Drivers/STM32F7xx_HAL_Driver/Src/stm32f7xx_hal_rtc_ex.c ****     hrtc->Instance->TAMPCR &= (uint32_t)~(RTC_IT_TAMP | RTC_IT_TAMP2);
 1024              		.loc 1 651 0
 1025 0030 0268     		ldr	r2, [r0]
 1026 0032 146C     		ldr	r4, [r2, #64]
 1027 0034 0B4B     		ldr	r3, .L79+4
 1028 0036 2340     		ands	r3, r3, r4
 1029 0038 1364     		str	r3, [r2, #64]
 1030              	.L72:
 652:Drivers/STM32F7xx_HAL_Driver/Src/stm32f7xx_hal_rtc_ex.c ****   }
 653:Drivers/STM32F7xx_HAL_Driver/Src/stm32f7xx_hal_rtc_ex.c ****   if ((Tamper & RTC_TAMPER_3) != 0)
 1031              		.loc 1 653 0
 1032 003a 11F0200F 		tst	r1, #32
 1033 003e 04D0     		beq	.L73
 654:Drivers/STM32F7xx_HAL_Driver/Src/stm32f7xx_hal_rtc_ex.c ****   {
 655:Drivers/STM32F7xx_HAL_Driver/Src/stm32f7xx_hal_rtc_ex.c ****     /* Disable the Tamper2 interrupt */
 656:Drivers/STM32F7xx_HAL_Driver/Src/stm32f7xx_hal_rtc_ex.c ****     hrtc->Instance->TAMPCR &= (uint32_t)~(RTC_IT_TAMP | RTC_IT_TAMP3);
 1034              		.loc 1 656 0
 1035 0040 0268     		ldr	r2, [r0]
 1036 0042 116C     		ldr	r1, [r2, #64]
 1037              	.LVL66:
 1038 0044 084B     		ldr	r3, .L79+8
 1039 0046 0B40     		ands	r3, r3, r1
 1040 0048 1364     		str	r3, [r2, #64]
 1041              	.L73:
 657:Drivers/STM32F7xx_HAL_Driver/Src/stm32f7xx_hal_rtc_ex.c ****   } 
 658:Drivers/STM32F7xx_HAL_Driver/Src/stm32f7xx_hal_rtc_ex.c ****   
 659:Drivers/STM32F7xx_HAL_Driver/Src/stm32f7xx_hal_rtc_ex.c ****   hrtc->State = HAL_RTC_STATE_READY;   
ARM GAS  C:\Users\Student\AppData\Local\Temp\ccapU3Tb.s 			page 31


 1042              		.loc 1 659 0
 1043 004a 0123     		movs	r3, #1
 1044 004c 4377     		strb	r3, [r0, #29]
 660:Drivers/STM32F7xx_HAL_Driver/Src/stm32f7xx_hal_rtc_ex.c ****   
 661:Drivers/STM32F7xx_HAL_Driver/Src/stm32f7xx_hal_rtc_ex.c ****   /* Process Unlocked */  
 662:Drivers/STM32F7xx_HAL_Driver/Src/stm32f7xx_hal_rtc_ex.c ****   __HAL_UNLOCK(hrtc);
 1045              		.loc 1 662 0
 1046 004e 0023     		movs	r3, #0
 1047 0050 0377     		strb	r3, [r0, #28]
 663:Drivers/STM32F7xx_HAL_Driver/Src/stm32f7xx_hal_rtc_ex.c ****   
 664:Drivers/STM32F7xx_HAL_Driver/Src/stm32f7xx_hal_rtc_ex.c ****   return HAL_OK; 
 1048              		.loc 1 664 0
 1049 0052 1846     		mov	r0, r3
 1050              	.LVL67:
 665:Drivers/STM32F7xx_HAL_Driver/Src/stm32f7xx_hal_rtc_ex.c **** }
 1051              		.loc 1 665 0
 1052 0054 5DF8044B 		ldr	r4, [sp], #4
 1053              	.LCFI16:
 1054              		.cfi_restore 4
 1055              		.cfi_def_cfa_offset 0
 1056 0058 7047     		bx	lr
 1057              	.LVL68:
 1058              	.L74:
 636:Drivers/STM32F7xx_HAL_Driver/Src/stm32f7xx_hal_rtc_ex.c ****       
 1059              		.loc 1 636 0
 1060 005a 0220     		movs	r0, #2
 1061              	.LVL69:
 1062 005c 7047     		bx	lr
 1063              	.L80:
 1064 005e 00BF     		.align	2
 1065              	.L79:
 1066 0060 FBFFFEFF 		.word	-65541
 1067 0064 FBFFF7FF 		.word	-524293
 1068 0068 FBFFBFFF 		.word	-4194309
 1069              		.cfi_endproc
 1070              	.LFE144:
 1072              		.section	.text.HAL_RTCEx_TimeStampEventCallback,"ax",%progbits
 1073              		.align	1
 1074              		.weak	HAL_RTCEx_TimeStampEventCallback
 1075              		.syntax unified
 1076              		.thumb
 1077              		.thumb_func
 1078              		.fpu fpv5-sp-d16
 1080              	HAL_RTCEx_TimeStampEventCallback:
 1081              	.LFB146:
 666:Drivers/STM32F7xx_HAL_Driver/Src/stm32f7xx_hal_rtc_ex.c **** 
 667:Drivers/STM32F7xx_HAL_Driver/Src/stm32f7xx_hal_rtc_ex.c **** /**
 668:Drivers/STM32F7xx_HAL_Driver/Src/stm32f7xx_hal_rtc_ex.c ****   * @brief  This function handles TimeStamp interrupt request.
 669:Drivers/STM32F7xx_HAL_Driver/Src/stm32f7xx_hal_rtc_ex.c ****   * @param  hrtc pointer to a RTC_HandleTypeDef structure that contains
 670:Drivers/STM32F7xx_HAL_Driver/Src/stm32f7xx_hal_rtc_ex.c ****   *                the configuration information for RTC.
 671:Drivers/STM32F7xx_HAL_Driver/Src/stm32f7xx_hal_rtc_ex.c ****   * @retval None
 672:Drivers/STM32F7xx_HAL_Driver/Src/stm32f7xx_hal_rtc_ex.c ****   */
 673:Drivers/STM32F7xx_HAL_Driver/Src/stm32f7xx_hal_rtc_ex.c **** void HAL_RTCEx_TamperTimeStampIRQHandler(RTC_HandleTypeDef *hrtc)
 674:Drivers/STM32F7xx_HAL_Driver/Src/stm32f7xx_hal_rtc_ex.c **** {  
 675:Drivers/STM32F7xx_HAL_Driver/Src/stm32f7xx_hal_rtc_ex.c ****   if(__HAL_RTC_TIMESTAMP_GET_IT(hrtc, RTC_IT_TS))
 676:Drivers/STM32F7xx_HAL_Driver/Src/stm32f7xx_hal_rtc_ex.c ****   {
 677:Drivers/STM32F7xx_HAL_Driver/Src/stm32f7xx_hal_rtc_ex.c ****     /* Get the status of the Interrupt */
ARM GAS  C:\Users\Student\AppData\Local\Temp\ccapU3Tb.s 			page 32


 678:Drivers/STM32F7xx_HAL_Driver/Src/stm32f7xx_hal_rtc_ex.c ****     if((uint32_t)(hrtc->Instance->CR & RTC_IT_TS) != (uint32_t)RESET)
 679:Drivers/STM32F7xx_HAL_Driver/Src/stm32f7xx_hal_rtc_ex.c ****     {
 680:Drivers/STM32F7xx_HAL_Driver/Src/stm32f7xx_hal_rtc_ex.c ****        /* TIMESTAMP callback */ 
 681:Drivers/STM32F7xx_HAL_Driver/Src/stm32f7xx_hal_rtc_ex.c ****         HAL_RTCEx_TimeStampEventCallback(hrtc);
 682:Drivers/STM32F7xx_HAL_Driver/Src/stm32f7xx_hal_rtc_ex.c **** 
 683:Drivers/STM32F7xx_HAL_Driver/Src/stm32f7xx_hal_rtc_ex.c ****       /* Clear the TIMESTAMP interrupt pending bit */
 684:Drivers/STM32F7xx_HAL_Driver/Src/stm32f7xx_hal_rtc_ex.c ****       __HAL_RTC_TIMESTAMP_CLEAR_FLAG(hrtc,RTC_FLAG_TSF);
 685:Drivers/STM32F7xx_HAL_Driver/Src/stm32f7xx_hal_rtc_ex.c ****     }
 686:Drivers/STM32F7xx_HAL_Driver/Src/stm32f7xx_hal_rtc_ex.c ****   }
 687:Drivers/STM32F7xx_HAL_Driver/Src/stm32f7xx_hal_rtc_ex.c **** 
 688:Drivers/STM32F7xx_HAL_Driver/Src/stm32f7xx_hal_rtc_ex.c ****   /* Get the status of the Interrupt */
 689:Drivers/STM32F7xx_HAL_Driver/Src/stm32f7xx_hal_rtc_ex.c ****   if(__HAL_RTC_TAMPER_GET_FLAG(hrtc, RTC_FLAG_TAMP1F)== SET)
 690:Drivers/STM32F7xx_HAL_Driver/Src/stm32f7xx_hal_rtc_ex.c ****   {
 691:Drivers/STM32F7xx_HAL_Driver/Src/stm32f7xx_hal_rtc_ex.c ****     /* Get the TAMPER Interrupt enable bit and pending bit */
 692:Drivers/STM32F7xx_HAL_Driver/Src/stm32f7xx_hal_rtc_ex.c ****     if((((hrtc->Instance->TAMPCR & RTC_TAMPCR_TAMPIE)) != (uint32_t)RESET) || \
 693:Drivers/STM32F7xx_HAL_Driver/Src/stm32f7xx_hal_rtc_ex.c ****        (((hrtc->Instance->TAMPCR & RTC_TAMPCR_TAMP1IE)) != (uint32_t)RESET))
 694:Drivers/STM32F7xx_HAL_Driver/Src/stm32f7xx_hal_rtc_ex.c ****     {
 695:Drivers/STM32F7xx_HAL_Driver/Src/stm32f7xx_hal_rtc_ex.c ****       /* Tamper callback */
 696:Drivers/STM32F7xx_HAL_Driver/Src/stm32f7xx_hal_rtc_ex.c ****       HAL_RTCEx_Tamper1EventCallback(hrtc);
 697:Drivers/STM32F7xx_HAL_Driver/Src/stm32f7xx_hal_rtc_ex.c **** 
 698:Drivers/STM32F7xx_HAL_Driver/Src/stm32f7xx_hal_rtc_ex.c ****       /* Clear the Tamper interrupt pending bit */
 699:Drivers/STM32F7xx_HAL_Driver/Src/stm32f7xx_hal_rtc_ex.c ****       __HAL_RTC_TAMPER_CLEAR_FLAG(hrtc,RTC_FLAG_TAMP1F);
 700:Drivers/STM32F7xx_HAL_Driver/Src/stm32f7xx_hal_rtc_ex.c ****     }
 701:Drivers/STM32F7xx_HAL_Driver/Src/stm32f7xx_hal_rtc_ex.c ****   }
 702:Drivers/STM32F7xx_HAL_Driver/Src/stm32f7xx_hal_rtc_ex.c **** 
 703:Drivers/STM32F7xx_HAL_Driver/Src/stm32f7xx_hal_rtc_ex.c ****   /* Get the status of the Interrupt */
 704:Drivers/STM32F7xx_HAL_Driver/Src/stm32f7xx_hal_rtc_ex.c ****   if(__HAL_RTC_TAMPER_GET_FLAG(hrtc, RTC_FLAG_TAMP2F)== SET)
 705:Drivers/STM32F7xx_HAL_Driver/Src/stm32f7xx_hal_rtc_ex.c ****   {
 706:Drivers/STM32F7xx_HAL_Driver/Src/stm32f7xx_hal_rtc_ex.c ****     /* Get the TAMPER Interrupt enable bit and pending bit */
 707:Drivers/STM32F7xx_HAL_Driver/Src/stm32f7xx_hal_rtc_ex.c ****     if((((hrtc->Instance->TAMPCR & RTC_TAMPCR_TAMPIE)) != (uint32_t)RESET) || \
 708:Drivers/STM32F7xx_HAL_Driver/Src/stm32f7xx_hal_rtc_ex.c ****        (((hrtc->Instance->TAMPCR & RTC_TAMPCR_TAMP2IE)) != (uint32_t)RESET))
 709:Drivers/STM32F7xx_HAL_Driver/Src/stm32f7xx_hal_rtc_ex.c ****     {
 710:Drivers/STM32F7xx_HAL_Driver/Src/stm32f7xx_hal_rtc_ex.c ****       /* Tamper callback */
 711:Drivers/STM32F7xx_HAL_Driver/Src/stm32f7xx_hal_rtc_ex.c ****       HAL_RTCEx_Tamper2EventCallback(hrtc);
 712:Drivers/STM32F7xx_HAL_Driver/Src/stm32f7xx_hal_rtc_ex.c **** 
 713:Drivers/STM32F7xx_HAL_Driver/Src/stm32f7xx_hal_rtc_ex.c ****       /* Clear the Tamper interrupt pending bit */
 714:Drivers/STM32F7xx_HAL_Driver/Src/stm32f7xx_hal_rtc_ex.c ****       __HAL_RTC_TAMPER_CLEAR_FLAG(hrtc, RTC_FLAG_TAMP2F);
 715:Drivers/STM32F7xx_HAL_Driver/Src/stm32f7xx_hal_rtc_ex.c ****     }
 716:Drivers/STM32F7xx_HAL_Driver/Src/stm32f7xx_hal_rtc_ex.c ****   }
 717:Drivers/STM32F7xx_HAL_Driver/Src/stm32f7xx_hal_rtc_ex.c **** 
 718:Drivers/STM32F7xx_HAL_Driver/Src/stm32f7xx_hal_rtc_ex.c ****   /* Get the status of the Interrupt */
 719:Drivers/STM32F7xx_HAL_Driver/Src/stm32f7xx_hal_rtc_ex.c ****   if(__HAL_RTC_TAMPER_GET_FLAG(hrtc, RTC_FLAG_TAMP3F)== SET)
 720:Drivers/STM32F7xx_HAL_Driver/Src/stm32f7xx_hal_rtc_ex.c ****   {
 721:Drivers/STM32F7xx_HAL_Driver/Src/stm32f7xx_hal_rtc_ex.c ****     /* Get the TAMPER Interrupt enable bit and pending bit */
 722:Drivers/STM32F7xx_HAL_Driver/Src/stm32f7xx_hal_rtc_ex.c ****     if((((hrtc->Instance->TAMPCR & RTC_TAMPCR_TAMPIE)) != (uint32_t)RESET) || \
 723:Drivers/STM32F7xx_HAL_Driver/Src/stm32f7xx_hal_rtc_ex.c ****        (((hrtc->Instance->TAMPCR & RTC_TAMPCR_TAMP3IE)) != (uint32_t)RESET))
 724:Drivers/STM32F7xx_HAL_Driver/Src/stm32f7xx_hal_rtc_ex.c ****     {
 725:Drivers/STM32F7xx_HAL_Driver/Src/stm32f7xx_hal_rtc_ex.c ****       /* Tamper callback */
 726:Drivers/STM32F7xx_HAL_Driver/Src/stm32f7xx_hal_rtc_ex.c ****       HAL_RTCEx_Tamper3EventCallback(hrtc);
 727:Drivers/STM32F7xx_HAL_Driver/Src/stm32f7xx_hal_rtc_ex.c **** 
 728:Drivers/STM32F7xx_HAL_Driver/Src/stm32f7xx_hal_rtc_ex.c ****       /* Clear the Tamper interrupt pending bit */
 729:Drivers/STM32F7xx_HAL_Driver/Src/stm32f7xx_hal_rtc_ex.c ****       __HAL_RTC_TAMPER_CLEAR_FLAG(hrtc, RTC_FLAG_TAMP3F);
 730:Drivers/STM32F7xx_HAL_Driver/Src/stm32f7xx_hal_rtc_ex.c ****     }
 731:Drivers/STM32F7xx_HAL_Driver/Src/stm32f7xx_hal_rtc_ex.c ****   }
 732:Drivers/STM32F7xx_HAL_Driver/Src/stm32f7xx_hal_rtc_ex.c ****   
 733:Drivers/STM32F7xx_HAL_Driver/Src/stm32f7xx_hal_rtc_ex.c ****   /* Clear the EXTI's Flag for RTC TimeStamp and Tamper */
 734:Drivers/STM32F7xx_HAL_Driver/Src/stm32f7xx_hal_rtc_ex.c ****   __HAL_RTC_TAMPER_TIMESTAMP_EXTI_CLEAR_FLAG();
ARM GAS  C:\Users\Student\AppData\Local\Temp\ccapU3Tb.s 			page 33


 735:Drivers/STM32F7xx_HAL_Driver/Src/stm32f7xx_hal_rtc_ex.c **** 
 736:Drivers/STM32F7xx_HAL_Driver/Src/stm32f7xx_hal_rtc_ex.c ****   /* Change RTC state */
 737:Drivers/STM32F7xx_HAL_Driver/Src/stm32f7xx_hal_rtc_ex.c ****   hrtc->State = HAL_RTC_STATE_READY;
 738:Drivers/STM32F7xx_HAL_Driver/Src/stm32f7xx_hal_rtc_ex.c **** }
 739:Drivers/STM32F7xx_HAL_Driver/Src/stm32f7xx_hal_rtc_ex.c **** 
 740:Drivers/STM32F7xx_HAL_Driver/Src/stm32f7xx_hal_rtc_ex.c **** /**
 741:Drivers/STM32F7xx_HAL_Driver/Src/stm32f7xx_hal_rtc_ex.c ****   * @brief  TimeStamp callback. 
 742:Drivers/STM32F7xx_HAL_Driver/Src/stm32f7xx_hal_rtc_ex.c ****   * @param  hrtc pointer to a RTC_HandleTypeDef structure that contains
 743:Drivers/STM32F7xx_HAL_Driver/Src/stm32f7xx_hal_rtc_ex.c ****   *                the configuration information for RTC.
 744:Drivers/STM32F7xx_HAL_Driver/Src/stm32f7xx_hal_rtc_ex.c ****   * @retval None
 745:Drivers/STM32F7xx_HAL_Driver/Src/stm32f7xx_hal_rtc_ex.c ****   */
 746:Drivers/STM32F7xx_HAL_Driver/Src/stm32f7xx_hal_rtc_ex.c **** __weak void HAL_RTCEx_TimeStampEventCallback(RTC_HandleTypeDef *hrtc)
 747:Drivers/STM32F7xx_HAL_Driver/Src/stm32f7xx_hal_rtc_ex.c **** {
 1082              		.loc 1 747 0
 1083              		.cfi_startproc
 1084              		@ args = 0, pretend = 0, frame = 0
 1085              		@ frame_needed = 0, uses_anonymous_args = 0
 1086              		@ link register save eliminated.
 1087              	.LVL70:
 1088 0000 7047     		bx	lr
 1089              		.cfi_endproc
 1090              	.LFE146:
 1092              		.section	.text.HAL_RTCEx_Tamper1EventCallback,"ax",%progbits
 1093              		.align	1
 1094              		.weak	HAL_RTCEx_Tamper1EventCallback
 1095              		.syntax unified
 1096              		.thumb
 1097              		.thumb_func
 1098              		.fpu fpv5-sp-d16
 1100              	HAL_RTCEx_Tamper1EventCallback:
 1101              	.LFB147:
 748:Drivers/STM32F7xx_HAL_Driver/Src/stm32f7xx_hal_rtc_ex.c ****   /* Prevent unused argument(s) compilation warning */
 749:Drivers/STM32F7xx_HAL_Driver/Src/stm32f7xx_hal_rtc_ex.c ****   UNUSED(hrtc);
 750:Drivers/STM32F7xx_HAL_Driver/Src/stm32f7xx_hal_rtc_ex.c ****   
 751:Drivers/STM32F7xx_HAL_Driver/Src/stm32f7xx_hal_rtc_ex.c ****   /* NOTE : This function Should not be modified, when the callback is needed,
 752:Drivers/STM32F7xx_HAL_Driver/Src/stm32f7xx_hal_rtc_ex.c ****             the HAL_RTC_TimeStampEventCallback could be implemented in the user file
 753:Drivers/STM32F7xx_HAL_Driver/Src/stm32f7xx_hal_rtc_ex.c ****   */
 754:Drivers/STM32F7xx_HAL_Driver/Src/stm32f7xx_hal_rtc_ex.c **** }
 755:Drivers/STM32F7xx_HAL_Driver/Src/stm32f7xx_hal_rtc_ex.c **** 
 756:Drivers/STM32F7xx_HAL_Driver/Src/stm32f7xx_hal_rtc_ex.c **** /**
 757:Drivers/STM32F7xx_HAL_Driver/Src/stm32f7xx_hal_rtc_ex.c ****   * @brief  Tamper 1 callback. 
 758:Drivers/STM32F7xx_HAL_Driver/Src/stm32f7xx_hal_rtc_ex.c ****   * @param  hrtc pointer to a RTC_HandleTypeDef structure that contains
 759:Drivers/STM32F7xx_HAL_Driver/Src/stm32f7xx_hal_rtc_ex.c ****   *                the configuration information for RTC.
 760:Drivers/STM32F7xx_HAL_Driver/Src/stm32f7xx_hal_rtc_ex.c ****   * @retval None
 761:Drivers/STM32F7xx_HAL_Driver/Src/stm32f7xx_hal_rtc_ex.c ****   */
 762:Drivers/STM32F7xx_HAL_Driver/Src/stm32f7xx_hal_rtc_ex.c **** __weak void HAL_RTCEx_Tamper1EventCallback(RTC_HandleTypeDef *hrtc)
 763:Drivers/STM32F7xx_HAL_Driver/Src/stm32f7xx_hal_rtc_ex.c **** {
 1102              		.loc 1 763 0
 1103              		.cfi_startproc
 1104              		@ args = 0, pretend = 0, frame = 0
 1105              		@ frame_needed = 0, uses_anonymous_args = 0
 1106              		@ link register save eliminated.
 1107              	.LVL71:
 1108 0000 7047     		bx	lr
 1109              		.cfi_endproc
 1110              	.LFE147:
 1112              		.section	.text.HAL_RTCEx_Tamper2EventCallback,"ax",%progbits
ARM GAS  C:\Users\Student\AppData\Local\Temp\ccapU3Tb.s 			page 34


 1113              		.align	1
 1114              		.weak	HAL_RTCEx_Tamper2EventCallback
 1115              		.syntax unified
 1116              		.thumb
 1117              		.thumb_func
 1118              		.fpu fpv5-sp-d16
 1120              	HAL_RTCEx_Tamper2EventCallback:
 1121              	.LFB148:
 764:Drivers/STM32F7xx_HAL_Driver/Src/stm32f7xx_hal_rtc_ex.c ****   /* Prevent unused argument(s) compilation warning */
 765:Drivers/STM32F7xx_HAL_Driver/Src/stm32f7xx_hal_rtc_ex.c ****   UNUSED(hrtc);
 766:Drivers/STM32F7xx_HAL_Driver/Src/stm32f7xx_hal_rtc_ex.c ****   
 767:Drivers/STM32F7xx_HAL_Driver/Src/stm32f7xx_hal_rtc_ex.c ****   /* NOTE : This function Should not be modified, when the callback is needed,
 768:Drivers/STM32F7xx_HAL_Driver/Src/stm32f7xx_hal_rtc_ex.c ****             the HAL_RTC_Tamper1EventCallback could be implemented in the user file
 769:Drivers/STM32F7xx_HAL_Driver/Src/stm32f7xx_hal_rtc_ex.c ****    */
 770:Drivers/STM32F7xx_HAL_Driver/Src/stm32f7xx_hal_rtc_ex.c **** }
 771:Drivers/STM32F7xx_HAL_Driver/Src/stm32f7xx_hal_rtc_ex.c **** 
 772:Drivers/STM32F7xx_HAL_Driver/Src/stm32f7xx_hal_rtc_ex.c **** /**
 773:Drivers/STM32F7xx_HAL_Driver/Src/stm32f7xx_hal_rtc_ex.c ****   * @brief  Tamper 2 callback. 
 774:Drivers/STM32F7xx_HAL_Driver/Src/stm32f7xx_hal_rtc_ex.c ****   * @param  hrtc pointer to a RTC_HandleTypeDef structure that contains
 775:Drivers/STM32F7xx_HAL_Driver/Src/stm32f7xx_hal_rtc_ex.c ****   *                the configuration information for RTC.
 776:Drivers/STM32F7xx_HAL_Driver/Src/stm32f7xx_hal_rtc_ex.c ****   * @retval None
 777:Drivers/STM32F7xx_HAL_Driver/Src/stm32f7xx_hal_rtc_ex.c ****   */
 778:Drivers/STM32F7xx_HAL_Driver/Src/stm32f7xx_hal_rtc_ex.c **** __weak void HAL_RTCEx_Tamper2EventCallback(RTC_HandleTypeDef *hrtc)
 779:Drivers/STM32F7xx_HAL_Driver/Src/stm32f7xx_hal_rtc_ex.c **** {
 1122              		.loc 1 779 0
 1123              		.cfi_startproc
 1124              		@ args = 0, pretend = 0, frame = 0
 1125              		@ frame_needed = 0, uses_anonymous_args = 0
 1126              		@ link register save eliminated.
 1127              	.LVL72:
 1128 0000 7047     		bx	lr
 1129              		.cfi_endproc
 1130              	.LFE148:
 1132              		.section	.text.HAL_RTCEx_Tamper3EventCallback,"ax",%progbits
 1133              		.align	1
 1134              		.weak	HAL_RTCEx_Tamper3EventCallback
 1135              		.syntax unified
 1136              		.thumb
 1137              		.thumb_func
 1138              		.fpu fpv5-sp-d16
 1140              	HAL_RTCEx_Tamper3EventCallback:
 1141              	.LFB149:
 780:Drivers/STM32F7xx_HAL_Driver/Src/stm32f7xx_hal_rtc_ex.c ****   /* Prevent unused argument(s) compilation warning */
 781:Drivers/STM32F7xx_HAL_Driver/Src/stm32f7xx_hal_rtc_ex.c ****   UNUSED(hrtc);
 782:Drivers/STM32F7xx_HAL_Driver/Src/stm32f7xx_hal_rtc_ex.c ****   
 783:Drivers/STM32F7xx_HAL_Driver/Src/stm32f7xx_hal_rtc_ex.c ****   /* NOTE : This function Should not be modified, when the callback is needed,
 784:Drivers/STM32F7xx_HAL_Driver/Src/stm32f7xx_hal_rtc_ex.c ****             the HAL_RTC_Tamper2EventCallback could be implemented in the user file
 785:Drivers/STM32F7xx_HAL_Driver/Src/stm32f7xx_hal_rtc_ex.c ****    */
 786:Drivers/STM32F7xx_HAL_Driver/Src/stm32f7xx_hal_rtc_ex.c **** }
 787:Drivers/STM32F7xx_HAL_Driver/Src/stm32f7xx_hal_rtc_ex.c **** 
 788:Drivers/STM32F7xx_HAL_Driver/Src/stm32f7xx_hal_rtc_ex.c **** /**
 789:Drivers/STM32F7xx_HAL_Driver/Src/stm32f7xx_hal_rtc_ex.c ****   * @brief  Tamper 3 callback. 
 790:Drivers/STM32F7xx_HAL_Driver/Src/stm32f7xx_hal_rtc_ex.c ****   * @param  hrtc RTC handle
 791:Drivers/STM32F7xx_HAL_Driver/Src/stm32f7xx_hal_rtc_ex.c ****   * @retval None
 792:Drivers/STM32F7xx_HAL_Driver/Src/stm32f7xx_hal_rtc_ex.c ****   */
 793:Drivers/STM32F7xx_HAL_Driver/Src/stm32f7xx_hal_rtc_ex.c **** __weak void HAL_RTCEx_Tamper3EventCallback(RTC_HandleTypeDef *hrtc)
 794:Drivers/STM32F7xx_HAL_Driver/Src/stm32f7xx_hal_rtc_ex.c **** {
ARM GAS  C:\Users\Student\AppData\Local\Temp\ccapU3Tb.s 			page 35


 1142              		.loc 1 794 0
 1143              		.cfi_startproc
 1144              		@ args = 0, pretend = 0, frame = 0
 1145              		@ frame_needed = 0, uses_anonymous_args = 0
 1146              		@ link register save eliminated.
 1147              	.LVL73:
 1148 0000 7047     		bx	lr
 1149              		.cfi_endproc
 1150              	.LFE149:
 1152              		.section	.text.HAL_RTCEx_TamperTimeStampIRQHandler,"ax",%progbits
 1153              		.align	1
 1154              		.global	HAL_RTCEx_TamperTimeStampIRQHandler
 1155              		.syntax unified
 1156              		.thumb
 1157              		.thumb_func
 1158              		.fpu fpv5-sp-d16
 1160              	HAL_RTCEx_TamperTimeStampIRQHandler:
 1161              	.LFB145:
 674:Drivers/STM32F7xx_HAL_Driver/Src/stm32f7xx_hal_rtc_ex.c ****   if(__HAL_RTC_TIMESTAMP_GET_IT(hrtc, RTC_IT_TS))
 1162              		.loc 1 674 0
 1163              		.cfi_startproc
 1164              		@ args = 0, pretend = 0, frame = 0
 1165              		@ frame_needed = 0, uses_anonymous_args = 0
 1166              	.LVL74:
 674:Drivers/STM32F7xx_HAL_Driver/Src/stm32f7xx_hal_rtc_ex.c ****   if(__HAL_RTC_TIMESTAMP_GET_IT(hrtc, RTC_IT_TS))
 1167              		.loc 1 674 0
 1168 0000 10B5     		push	{r4, lr}
 1169              	.LCFI17:
 1170              		.cfi_def_cfa_offset 8
 1171              		.cfi_offset 4, -8
 1172              		.cfi_offset 14, -4
 1173 0002 0446     		mov	r4, r0
 675:Drivers/STM32F7xx_HAL_Driver/Src/stm32f7xx_hal_rtc_ex.c ****   {
 1174              		.loc 1 675 0
 1175 0004 0368     		ldr	r3, [r0]
 1176 0006 DA68     		ldr	r2, [r3, #12]
 1177 0008 12F4006F 		tst	r2, #2048
 1178 000c 03D0     		beq	.L86
 678:Drivers/STM32F7xx_HAL_Driver/Src/stm32f7xx_hal_rtc_ex.c ****     {
 1179              		.loc 1 678 0
 1180 000e 9B68     		ldr	r3, [r3, #8]
 1181 0010 13F4004F 		tst	r3, #32768
 1182 0014 4ED1     		bne	.L94
 1183              	.LVL75:
 1184              	.L86:
 689:Drivers/STM32F7xx_HAL_Driver/Src/stm32f7xx_hal_rtc_ex.c ****   {
 1185              		.loc 1 689 0
 1186 0016 2368     		ldr	r3, [r4]
 1187 0018 DA68     		ldr	r2, [r3, #12]
 1188 001a 12F4005F 		tst	r2, #8192
 1189 001e 10D0     		beq	.L87
 692:Drivers/STM32F7xx_HAL_Driver/Src/stm32f7xx_hal_rtc_ex.c ****        (((hrtc->Instance->TAMPCR & RTC_TAMPCR_TAMP1IE)) != (uint32_t)RESET))
 1190              		.loc 1 692 0
 1191 0020 1A6C     		ldr	r2, [r3, #64]
 1192 0022 12F0040F 		tst	r2, #4
 1193 0026 03D1     		bne	.L88
 693:Drivers/STM32F7xx_HAL_Driver/Src/stm32f7xx_hal_rtc_ex.c ****     {
ARM GAS  C:\Users\Student\AppData\Local\Temp\ccapU3Tb.s 			page 36


 1194              		.loc 1 693 0 discriminator 1
 1195 0028 1B6C     		ldr	r3, [r3, #64]
 692:Drivers/STM32F7xx_HAL_Driver/Src/stm32f7xx_hal_rtc_ex.c ****        (((hrtc->Instance->TAMPCR & RTC_TAMPCR_TAMP1IE)) != (uint32_t)RESET))
 1196              		.loc 1 692 0 discriminator 1
 1197 002a 13F4803F 		tst	r3, #65536
 1198 002e 08D0     		beq	.L87
 1199              	.L88:
 696:Drivers/STM32F7xx_HAL_Driver/Src/stm32f7xx_hal_rtc_ex.c **** 
 1200              		.loc 1 696 0
 1201 0030 2046     		mov	r0, r4
 1202 0032 FFF7FEFF 		bl	HAL_RTCEx_Tamper1EventCallback
 1203              	.LVL76:
 699:Drivers/STM32F7xx_HAL_Driver/Src/stm32f7xx_hal_rtc_ex.c ****     }
 1204              		.loc 1 699 0
 1205 0036 2268     		ldr	r2, [r4]
 1206 0038 D368     		ldr	r3, [r2, #12]
 1207 003a DBB2     		uxtb	r3, r3
 1208 003c 63F40253 		orn	r3, r3, #8320
 1209 0040 D360     		str	r3, [r2, #12]
 1210              	.L87:
 704:Drivers/STM32F7xx_HAL_Driver/Src/stm32f7xx_hal_rtc_ex.c ****   {
 1211              		.loc 1 704 0
 1212 0042 2368     		ldr	r3, [r4]
 1213 0044 DA68     		ldr	r2, [r3, #12]
 1214 0046 12F4804F 		tst	r2, #16384
 1215 004a 10D0     		beq	.L89
 707:Drivers/STM32F7xx_HAL_Driver/Src/stm32f7xx_hal_rtc_ex.c ****        (((hrtc->Instance->TAMPCR & RTC_TAMPCR_TAMP2IE)) != (uint32_t)RESET))
 1216              		.loc 1 707 0
 1217 004c 1A6C     		ldr	r2, [r3, #64]
 1218 004e 12F0040F 		tst	r2, #4
 1219 0052 03D1     		bne	.L90
 708:Drivers/STM32F7xx_HAL_Driver/Src/stm32f7xx_hal_rtc_ex.c ****     {
 1220              		.loc 1 708 0 discriminator 1
 1221 0054 1B6C     		ldr	r3, [r3, #64]
 707:Drivers/STM32F7xx_HAL_Driver/Src/stm32f7xx_hal_rtc_ex.c ****        (((hrtc->Instance->TAMPCR & RTC_TAMPCR_TAMP2IE)) != (uint32_t)RESET))
 1222              		.loc 1 707 0 discriminator 1
 1223 0056 13F4002F 		tst	r3, #524288
 1224 005a 08D0     		beq	.L89
 1225              	.L90:
 711:Drivers/STM32F7xx_HAL_Driver/Src/stm32f7xx_hal_rtc_ex.c **** 
 1226              		.loc 1 711 0
 1227 005c 2046     		mov	r0, r4
 1228 005e FFF7FEFF 		bl	HAL_RTCEx_Tamper2EventCallback
 1229              	.LVL77:
 714:Drivers/STM32F7xx_HAL_Driver/Src/stm32f7xx_hal_rtc_ex.c ****     }
 1230              		.loc 1 714 0
 1231 0062 2268     		ldr	r2, [r4]
 1232 0064 D368     		ldr	r3, [r2, #12]
 1233 0066 DBB2     		uxtb	r3, r3
 1234 0068 63F48143 		orn	r3, r3, #16512
 1235 006c D360     		str	r3, [r2, #12]
 1236              	.L89:
 719:Drivers/STM32F7xx_HAL_Driver/Src/stm32f7xx_hal_rtc_ex.c ****   {
 1237              		.loc 1 719 0
 1238 006e 2368     		ldr	r3, [r4]
 1239 0070 DA68     		ldr	r2, [r3, #12]
 1240 0072 12F4004F 		tst	r2, #32768
ARM GAS  C:\Users\Student\AppData\Local\Temp\ccapU3Tb.s 			page 37


 1241 0076 16D0     		beq	.L91
 722:Drivers/STM32F7xx_HAL_Driver/Src/stm32f7xx_hal_rtc_ex.c ****        (((hrtc->Instance->TAMPCR & RTC_TAMPCR_TAMP3IE)) != (uint32_t)RESET))
 1242              		.loc 1 722 0
 1243 0078 1A6C     		ldr	r2, [r3, #64]
 1244 007a 12F0040F 		tst	r2, #4
 1245 007e 03D1     		bne	.L92
 723:Drivers/STM32F7xx_HAL_Driver/Src/stm32f7xx_hal_rtc_ex.c ****     {
 1246              		.loc 1 723 0 discriminator 1
 1247 0080 1B6C     		ldr	r3, [r3, #64]
 722:Drivers/STM32F7xx_HAL_Driver/Src/stm32f7xx_hal_rtc_ex.c ****        (((hrtc->Instance->TAMPCR & RTC_TAMPCR_TAMP3IE)) != (uint32_t)RESET))
 1248              		.loc 1 722 0 discriminator 1
 1249 0082 13F4800F 		tst	r3, #4194304
 1250 0086 0ED0     		beq	.L91
 1251              	.L92:
 726:Drivers/STM32F7xx_HAL_Driver/Src/stm32f7xx_hal_rtc_ex.c **** 
 1252              		.loc 1 726 0
 1253 0088 2046     		mov	r0, r4
 1254 008a FFF7FEFF 		bl	HAL_RTCEx_Tamper3EventCallback
 1255              	.LVL78:
 729:Drivers/STM32F7xx_HAL_Driver/Src/stm32f7xx_hal_rtc_ex.c ****     }
 1256              		.loc 1 729 0
 1257 008e 2268     		ldr	r2, [r4]
 1258 0090 D368     		ldr	r3, [r2, #12]
 1259 0092 DBB2     		uxtb	r3, r3
 1260 0094 43F07F43 		orr	r3, r3, #-16777216
 1261 0098 43F47F03 		orr	r3, r3, #16711680
 1262 009c 43F4FE43 		orr	r3, r3, #32512
 1263 00a0 43F07F03 		orr	r3, r3, #127
 1264 00a4 D360     		str	r3, [r2, #12]
 1265              	.L91:
 734:Drivers/STM32F7xx_HAL_Driver/Src/stm32f7xx_hal_rtc_ex.c **** 
 1266              		.loc 1 734 0
 1267 00a6 4FF40012 		mov	r2, #2097152
 1268 00aa 074B     		ldr	r3, .L95
 1269 00ac 5A61     		str	r2, [r3, #20]
 737:Drivers/STM32F7xx_HAL_Driver/Src/stm32f7xx_hal_rtc_ex.c **** }
 1270              		.loc 1 737 0
 1271 00ae 0123     		movs	r3, #1
 1272 00b0 6377     		strb	r3, [r4, #29]
 1273 00b2 10BD     		pop	{r4, pc}
 1274              	.LVL79:
 1275              	.L94:
 681:Drivers/STM32F7xx_HAL_Driver/Src/stm32f7xx_hal_rtc_ex.c **** 
 1276              		.loc 1 681 0
 1277 00b4 FFF7FEFF 		bl	HAL_RTCEx_TimeStampEventCallback
 1278              	.LVL80:
 684:Drivers/STM32F7xx_HAL_Driver/Src/stm32f7xx_hal_rtc_ex.c ****     }
 1279              		.loc 1 684 0
 1280 00b8 2268     		ldr	r2, [r4]
 1281 00ba D368     		ldr	r3, [r2, #12]
 1282 00bc DBB2     		uxtb	r3, r3
 1283 00be 63F40863 		orn	r3, r3, #2176
 1284 00c2 D360     		str	r3, [r2, #12]
 1285 00c4 A7E7     		b	.L86
 1286              	.L96:
 1287 00c6 00BF     		.align	2
 1288              	.L95:
ARM GAS  C:\Users\Student\AppData\Local\Temp\ccapU3Tb.s 			page 38


 1289 00c8 003C0140 		.word	1073822720
 1290              		.cfi_endproc
 1291              	.LFE145:
 1293              		.section	.text.HAL_RTCEx_PollForTimeStampEvent,"ax",%progbits
 1294              		.align	1
 1295              		.global	HAL_RTCEx_PollForTimeStampEvent
 1296              		.syntax unified
 1297              		.thumb
 1298              		.thumb_func
 1299              		.fpu fpv5-sp-d16
 1301              	HAL_RTCEx_PollForTimeStampEvent:
 1302              	.LFB150:
 795:Drivers/STM32F7xx_HAL_Driver/Src/stm32f7xx_hal_rtc_ex.c ****   /* Prevent unused argument(s) compilation warning */
 796:Drivers/STM32F7xx_HAL_Driver/Src/stm32f7xx_hal_rtc_ex.c ****   UNUSED(hrtc);
 797:Drivers/STM32F7xx_HAL_Driver/Src/stm32f7xx_hal_rtc_ex.c ****   
 798:Drivers/STM32F7xx_HAL_Driver/Src/stm32f7xx_hal_rtc_ex.c ****   /* NOTE : This function Should not be modified, when the callback is needed,
 799:Drivers/STM32F7xx_HAL_Driver/Src/stm32f7xx_hal_rtc_ex.c ****             the HAL_RTCEx_Tamper3EventCallback could be implemented in the user file
 800:Drivers/STM32F7xx_HAL_Driver/Src/stm32f7xx_hal_rtc_ex.c ****    */
 801:Drivers/STM32F7xx_HAL_Driver/Src/stm32f7xx_hal_rtc_ex.c **** }
 802:Drivers/STM32F7xx_HAL_Driver/Src/stm32f7xx_hal_rtc_ex.c **** 
 803:Drivers/STM32F7xx_HAL_Driver/Src/stm32f7xx_hal_rtc_ex.c **** /**
 804:Drivers/STM32F7xx_HAL_Driver/Src/stm32f7xx_hal_rtc_ex.c ****   * @brief  This function handles TimeStamp polling request.
 805:Drivers/STM32F7xx_HAL_Driver/Src/stm32f7xx_hal_rtc_ex.c ****   * @param  hrtc pointer to a RTC_HandleTypeDef structure that contains
 806:Drivers/STM32F7xx_HAL_Driver/Src/stm32f7xx_hal_rtc_ex.c ****   *                the configuration information for RTC.
 807:Drivers/STM32F7xx_HAL_Driver/Src/stm32f7xx_hal_rtc_ex.c ****   * @param  Timeout Timeout duration
 808:Drivers/STM32F7xx_HAL_Driver/Src/stm32f7xx_hal_rtc_ex.c ****   * @retval HAL status
 809:Drivers/STM32F7xx_HAL_Driver/Src/stm32f7xx_hal_rtc_ex.c ****   */
 810:Drivers/STM32F7xx_HAL_Driver/Src/stm32f7xx_hal_rtc_ex.c **** HAL_StatusTypeDef HAL_RTCEx_PollForTimeStampEvent(RTC_HandleTypeDef *hrtc, uint32_t Timeout)
 811:Drivers/STM32F7xx_HAL_Driver/Src/stm32f7xx_hal_rtc_ex.c **** { 
 1303              		.loc 1 811 0
 1304              		.cfi_startproc
 1305              		@ args = 0, pretend = 0, frame = 0
 1306              		@ frame_needed = 0, uses_anonymous_args = 0
 1307              	.LVL81:
 1308 0000 70B5     		push	{r4, r5, r6, lr}
 1309              	.LCFI18:
 1310              		.cfi_def_cfa_offset 16
 1311              		.cfi_offset 4, -16
 1312              		.cfi_offset 5, -12
 1313              		.cfi_offset 6, -8
 1314              		.cfi_offset 14, -4
 1315 0002 0446     		mov	r4, r0
 1316 0004 0D46     		mov	r5, r1
 1317              	.LVL82:
 812:Drivers/STM32F7xx_HAL_Driver/Src/stm32f7xx_hal_rtc_ex.c ****   uint32_t tickstart = 0; 
 813:Drivers/STM32F7xx_HAL_Driver/Src/stm32f7xx_hal_rtc_ex.c **** 
 814:Drivers/STM32F7xx_HAL_Driver/Src/stm32f7xx_hal_rtc_ex.c ****   /* Get tick */
 815:Drivers/STM32F7xx_HAL_Driver/Src/stm32f7xx_hal_rtc_ex.c ****   tickstart = HAL_GetTick();
 1318              		.loc 1 815 0
 1319 0006 FFF7FEFF 		bl	HAL_GetTick
 1320              	.LVL83:
 1321 000a 0646     		mov	r6, r0
 1322              	.LVL84:
 1323              	.L99:
 816:Drivers/STM32F7xx_HAL_Driver/Src/stm32f7xx_hal_rtc_ex.c **** 
 817:Drivers/STM32F7xx_HAL_Driver/Src/stm32f7xx_hal_rtc_ex.c ****   while(__HAL_RTC_TIMESTAMP_GET_FLAG(hrtc, RTC_FLAG_TSF) == RESET)
 1324              		.loc 1 817 0
ARM GAS  C:\Users\Student\AppData\Local\Temp\ccapU3Tb.s 			page 39


 1325 000c 2368     		ldr	r3, [r4]
 1326 000e DA68     		ldr	r2, [r3, #12]
 1327 0010 12F4006F 		tst	r2, #2048
 1328 0014 0BD1     		bne	.L105
 818:Drivers/STM32F7xx_HAL_Driver/Src/stm32f7xx_hal_rtc_ex.c ****   {	        
 819:Drivers/STM32F7xx_HAL_Driver/Src/stm32f7xx_hal_rtc_ex.c ****     if(Timeout != HAL_MAX_DELAY)
 1329              		.loc 1 819 0
 1330 0016 B5F1FF3F 		cmp	r5, #-1
 1331 001a F7D0     		beq	.L99
 820:Drivers/STM32F7xx_HAL_Driver/Src/stm32f7xx_hal_rtc_ex.c ****     {
 821:Drivers/STM32F7xx_HAL_Driver/Src/stm32f7xx_hal_rtc_ex.c ****       if((Timeout == 0)||((HAL_GetTick() - tickstart ) > Timeout))
 1332              		.loc 1 821 0
 1333 001c 25B1     		cbz	r5, .L100
 1334              		.loc 1 821 0 is_stmt 0 discriminator 1
 1335 001e FFF7FEFF 		bl	HAL_GetTick
 1336              	.LVL85:
 1337 0022 801B     		subs	r0, r0, r6
 1338 0024 8542     		cmp	r5, r0
 1339 0026 F1D2     		bcs	.L99
 1340              	.L100:
 822:Drivers/STM32F7xx_HAL_Driver/Src/stm32f7xx_hal_rtc_ex.c ****       {
 823:Drivers/STM32F7xx_HAL_Driver/Src/stm32f7xx_hal_rtc_ex.c ****         hrtc->State = HAL_RTC_STATE_TIMEOUT;
 1341              		.loc 1 823 0 is_stmt 1
 1342 0028 0320     		movs	r0, #3
 1343 002a 6077     		strb	r0, [r4, #29]
 824:Drivers/STM32F7xx_HAL_Driver/Src/stm32f7xx_hal_rtc_ex.c ****         return HAL_TIMEOUT;
 1344              		.loc 1 824 0
 1345 002c 70BD     		pop	{r4, r5, r6, pc}
 1346              	.LVL86:
 1347              	.L105:
 825:Drivers/STM32F7xx_HAL_Driver/Src/stm32f7xx_hal_rtc_ex.c ****       }
 826:Drivers/STM32F7xx_HAL_Driver/Src/stm32f7xx_hal_rtc_ex.c ****     }
 827:Drivers/STM32F7xx_HAL_Driver/Src/stm32f7xx_hal_rtc_ex.c ****   }
 828:Drivers/STM32F7xx_HAL_Driver/Src/stm32f7xx_hal_rtc_ex.c **** 	
 829:Drivers/STM32F7xx_HAL_Driver/Src/stm32f7xx_hal_rtc_ex.c ****   if(__HAL_RTC_TIMESTAMP_GET_FLAG(hrtc, RTC_FLAG_TSOVF) != RESET)
 1348              		.loc 1 829 0
 1349 002e DA68     		ldr	r2, [r3, #12]
 1350 0030 12F4805F 		tst	r2, #4096
 1351 0034 03D1     		bne	.L106
 830:Drivers/STM32F7xx_HAL_Driver/Src/stm32f7xx_hal_rtc_ex.c ****   {
 831:Drivers/STM32F7xx_HAL_Driver/Src/stm32f7xx_hal_rtc_ex.c ****     /* Clear the TIMESTAMP OverRun Flag */
 832:Drivers/STM32F7xx_HAL_Driver/Src/stm32f7xx_hal_rtc_ex.c ****     __HAL_RTC_TIMESTAMP_CLEAR_FLAG(hrtc, RTC_FLAG_TSOVF);
 833:Drivers/STM32F7xx_HAL_Driver/Src/stm32f7xx_hal_rtc_ex.c ****       
 834:Drivers/STM32F7xx_HAL_Driver/Src/stm32f7xx_hal_rtc_ex.c ****     /* Change TIMESTAMP state */
 835:Drivers/STM32F7xx_HAL_Driver/Src/stm32f7xx_hal_rtc_ex.c ****     hrtc->State = HAL_RTC_STATE_ERROR; 
 836:Drivers/STM32F7xx_HAL_Driver/Src/stm32f7xx_hal_rtc_ex.c ****       
 837:Drivers/STM32F7xx_HAL_Driver/Src/stm32f7xx_hal_rtc_ex.c ****     return HAL_ERROR; 
 838:Drivers/STM32F7xx_HAL_Driver/Src/stm32f7xx_hal_rtc_ex.c ****    }
 839:Drivers/STM32F7xx_HAL_Driver/Src/stm32f7xx_hal_rtc_ex.c **** 	
 840:Drivers/STM32F7xx_HAL_Driver/Src/stm32f7xx_hal_rtc_ex.c ****   /* Change RTC state */
 841:Drivers/STM32F7xx_HAL_Driver/Src/stm32f7xx_hal_rtc_ex.c ****   hrtc->State = HAL_RTC_STATE_READY; 
 1352              		.loc 1 841 0
 1353 0036 0123     		movs	r3, #1
 1354 0038 6377     		strb	r3, [r4, #29]
 842:Drivers/STM32F7xx_HAL_Driver/Src/stm32f7xx_hal_rtc_ex.c ****   
 843:Drivers/STM32F7xx_HAL_Driver/Src/stm32f7xx_hal_rtc_ex.c ****   return HAL_OK; 
 1355              		.loc 1 843 0
ARM GAS  C:\Users\Student\AppData\Local\Temp\ccapU3Tb.s 			page 40


 1356 003a 0020     		movs	r0, #0
 844:Drivers/STM32F7xx_HAL_Driver/Src/stm32f7xx_hal_rtc_ex.c **** }
 1357              		.loc 1 844 0
 1358 003c 70BD     		pop	{r4, r5, r6, pc}
 1359              	.LVL87:
 1360              	.L106:
 832:Drivers/STM32F7xx_HAL_Driver/Src/stm32f7xx_hal_rtc_ex.c ****       
 1361              		.loc 1 832 0
 1362 003e DA68     		ldr	r2, [r3, #12]
 1363 0040 D2B2     		uxtb	r2, r2
 1364 0042 62F48452 		orn	r2, r2, #4224
 1365 0046 DA60     		str	r2, [r3, #12]
 835:Drivers/STM32F7xx_HAL_Driver/Src/stm32f7xx_hal_rtc_ex.c ****       
 1366              		.loc 1 835 0
 1367 0048 0423     		movs	r3, #4
 1368 004a 6377     		strb	r3, [r4, #29]
 837:Drivers/STM32F7xx_HAL_Driver/Src/stm32f7xx_hal_rtc_ex.c ****    }
 1369              		.loc 1 837 0
 1370 004c 0120     		movs	r0, #1
 1371 004e 70BD     		pop	{r4, r5, r6, pc}
 1372              		.cfi_endproc
 1373              	.LFE150:
 1375              		.section	.text.HAL_RTCEx_PollForTamper1Event,"ax",%progbits
 1376              		.align	1
 1377              		.global	HAL_RTCEx_PollForTamper1Event
 1378              		.syntax unified
 1379              		.thumb
 1380              		.thumb_func
 1381              		.fpu fpv5-sp-d16
 1383              	HAL_RTCEx_PollForTamper1Event:
 1384              	.LFB151:
 845:Drivers/STM32F7xx_HAL_Driver/Src/stm32f7xx_hal_rtc_ex.c ****   
 846:Drivers/STM32F7xx_HAL_Driver/Src/stm32f7xx_hal_rtc_ex.c **** /**
 847:Drivers/STM32F7xx_HAL_Driver/Src/stm32f7xx_hal_rtc_ex.c ****   * @brief  This function handles Tamper1 Polling.
 848:Drivers/STM32F7xx_HAL_Driver/Src/stm32f7xx_hal_rtc_ex.c ****   * @param  hrtc pointer to a RTC_HandleTypeDef structure that contains
 849:Drivers/STM32F7xx_HAL_Driver/Src/stm32f7xx_hal_rtc_ex.c ****   *                the configuration information for RTC.
 850:Drivers/STM32F7xx_HAL_Driver/Src/stm32f7xx_hal_rtc_ex.c ****   * @param  Timeout Timeout duration
 851:Drivers/STM32F7xx_HAL_Driver/Src/stm32f7xx_hal_rtc_ex.c ****   * @retval HAL status
 852:Drivers/STM32F7xx_HAL_Driver/Src/stm32f7xx_hal_rtc_ex.c ****   */
 853:Drivers/STM32F7xx_HAL_Driver/Src/stm32f7xx_hal_rtc_ex.c **** HAL_StatusTypeDef HAL_RTCEx_PollForTamper1Event(RTC_HandleTypeDef *hrtc, uint32_t Timeout)
 854:Drivers/STM32F7xx_HAL_Driver/Src/stm32f7xx_hal_rtc_ex.c **** {  
 1385              		.loc 1 854 0
 1386              		.cfi_startproc
 1387              		@ args = 0, pretend = 0, frame = 0
 1388              		@ frame_needed = 0, uses_anonymous_args = 0
 1389              	.LVL88:
 1390 0000 70B5     		push	{r4, r5, r6, lr}
 1391              	.LCFI19:
 1392              		.cfi_def_cfa_offset 16
 1393              		.cfi_offset 4, -16
 1394              		.cfi_offset 5, -12
 1395              		.cfi_offset 6, -8
 1396              		.cfi_offset 14, -4
 1397 0002 0446     		mov	r4, r0
 1398 0004 0D46     		mov	r5, r1
 1399              	.LVL89:
 855:Drivers/STM32F7xx_HAL_Driver/Src/stm32f7xx_hal_rtc_ex.c ****   uint32_t tickstart = 0U; 
ARM GAS  C:\Users\Student\AppData\Local\Temp\ccapU3Tb.s 			page 41


 856:Drivers/STM32F7xx_HAL_Driver/Src/stm32f7xx_hal_rtc_ex.c **** 
 857:Drivers/STM32F7xx_HAL_Driver/Src/stm32f7xx_hal_rtc_ex.c ****   /* Get tick */
 858:Drivers/STM32F7xx_HAL_Driver/Src/stm32f7xx_hal_rtc_ex.c ****   tickstart = HAL_GetTick();
 1400              		.loc 1 858 0
 1401 0006 FFF7FEFF 		bl	HAL_GetTick
 1402              	.LVL90:
 1403 000a 0646     		mov	r6, r0
 1404              	.LVL91:
 1405              	.L109:
 859:Drivers/STM32F7xx_HAL_Driver/Src/stm32f7xx_hal_rtc_ex.c ****   
 860:Drivers/STM32F7xx_HAL_Driver/Src/stm32f7xx_hal_rtc_ex.c ****   /* Get the status of the Interrupt */
 861:Drivers/STM32F7xx_HAL_Driver/Src/stm32f7xx_hal_rtc_ex.c ****   while(__HAL_RTC_TAMPER_GET_FLAG(hrtc, RTC_FLAG_TAMP1F)== RESET)
 1406              		.loc 1 861 0
 1407 000c 2368     		ldr	r3, [r4]
 1408 000e DA68     		ldr	r2, [r3, #12]
 1409 0010 12F4005F 		tst	r2, #8192
 1410 0014 0BD1     		bne	.L114
 862:Drivers/STM32F7xx_HAL_Driver/Src/stm32f7xx_hal_rtc_ex.c ****   {
 863:Drivers/STM32F7xx_HAL_Driver/Src/stm32f7xx_hal_rtc_ex.c ****     if(Timeout != HAL_MAX_DELAY)
 1411              		.loc 1 863 0
 1412 0016 B5F1FF3F 		cmp	r5, #-1
 1413 001a F7D0     		beq	.L109
 864:Drivers/STM32F7xx_HAL_Driver/Src/stm32f7xx_hal_rtc_ex.c ****     {
 865:Drivers/STM32F7xx_HAL_Driver/Src/stm32f7xx_hal_rtc_ex.c ****       if((Timeout == 0U)||((HAL_GetTick() - tickstart ) > Timeout))
 1414              		.loc 1 865 0
 1415 001c 25B1     		cbz	r5, .L110
 1416              		.loc 1 865 0 is_stmt 0 discriminator 1
 1417 001e FFF7FEFF 		bl	HAL_GetTick
 1418              	.LVL92:
 1419 0022 801B     		subs	r0, r0, r6
 1420 0024 8542     		cmp	r5, r0
 1421 0026 F1D2     		bcs	.L109
 1422              	.L110:
 866:Drivers/STM32F7xx_HAL_Driver/Src/stm32f7xx_hal_rtc_ex.c ****       {
 867:Drivers/STM32F7xx_HAL_Driver/Src/stm32f7xx_hal_rtc_ex.c ****         hrtc->State = HAL_RTC_STATE_TIMEOUT;
 1423              		.loc 1 867 0 is_stmt 1
 1424 0028 0320     		movs	r0, #3
 1425 002a 6077     		strb	r0, [r4, #29]
 868:Drivers/STM32F7xx_HAL_Driver/Src/stm32f7xx_hal_rtc_ex.c ****         return HAL_TIMEOUT;
 1426              		.loc 1 868 0
 1427 002c 70BD     		pop	{r4, r5, r6, pc}
 1428              	.LVL93:
 1429              	.L114:
 869:Drivers/STM32F7xx_HAL_Driver/Src/stm32f7xx_hal_rtc_ex.c ****       }
 870:Drivers/STM32F7xx_HAL_Driver/Src/stm32f7xx_hal_rtc_ex.c ****     }
 871:Drivers/STM32F7xx_HAL_Driver/Src/stm32f7xx_hal_rtc_ex.c ****   }
 872:Drivers/STM32F7xx_HAL_Driver/Src/stm32f7xx_hal_rtc_ex.c ****   
 873:Drivers/STM32F7xx_HAL_Driver/Src/stm32f7xx_hal_rtc_ex.c ****   /* Clear the Tamper Flag */
 874:Drivers/STM32F7xx_HAL_Driver/Src/stm32f7xx_hal_rtc_ex.c ****   __HAL_RTC_TAMPER_CLEAR_FLAG(hrtc,RTC_FLAG_TAMP1F);
 1430              		.loc 1 874 0
 1431 002e DA68     		ldr	r2, [r3, #12]
 1432 0030 D2B2     		uxtb	r2, r2
 1433 0032 62F40252 		orn	r2, r2, #8320
 1434 0036 DA60     		str	r2, [r3, #12]
 875:Drivers/STM32F7xx_HAL_Driver/Src/stm32f7xx_hal_rtc_ex.c ****   
 876:Drivers/STM32F7xx_HAL_Driver/Src/stm32f7xx_hal_rtc_ex.c ****   /* Change RTC state */
 877:Drivers/STM32F7xx_HAL_Driver/Src/stm32f7xx_hal_rtc_ex.c ****   hrtc->State = HAL_RTC_STATE_READY;
ARM GAS  C:\Users\Student\AppData\Local\Temp\ccapU3Tb.s 			page 42


 1435              		.loc 1 877 0
 1436 0038 0123     		movs	r3, #1
 1437 003a 6377     		strb	r3, [r4, #29]
 878:Drivers/STM32F7xx_HAL_Driver/Src/stm32f7xx_hal_rtc_ex.c ****   
 879:Drivers/STM32F7xx_HAL_Driver/Src/stm32f7xx_hal_rtc_ex.c ****   return HAL_OK; 
 1438              		.loc 1 879 0
 1439 003c 0020     		movs	r0, #0
 880:Drivers/STM32F7xx_HAL_Driver/Src/stm32f7xx_hal_rtc_ex.c **** }
 1440              		.loc 1 880 0
 1441 003e 70BD     		pop	{r4, r5, r6, pc}
 1442              		.cfi_endproc
 1443              	.LFE151:
 1445              		.section	.text.HAL_RTCEx_PollForTamper2Event,"ax",%progbits
 1446              		.align	1
 1447              		.global	HAL_RTCEx_PollForTamper2Event
 1448              		.syntax unified
 1449              		.thumb
 1450              		.thumb_func
 1451              		.fpu fpv5-sp-d16
 1453              	HAL_RTCEx_PollForTamper2Event:
 1454              	.LFB152:
 881:Drivers/STM32F7xx_HAL_Driver/Src/stm32f7xx_hal_rtc_ex.c **** 
 882:Drivers/STM32F7xx_HAL_Driver/Src/stm32f7xx_hal_rtc_ex.c **** /**
 883:Drivers/STM32F7xx_HAL_Driver/Src/stm32f7xx_hal_rtc_ex.c ****   * @brief  This function handles Tamper2 Polling.
 884:Drivers/STM32F7xx_HAL_Driver/Src/stm32f7xx_hal_rtc_ex.c ****   * @param  hrtc pointer to a RTC_HandleTypeDef structure that contains
 885:Drivers/STM32F7xx_HAL_Driver/Src/stm32f7xx_hal_rtc_ex.c ****   *                the configuration information for RTC.
 886:Drivers/STM32F7xx_HAL_Driver/Src/stm32f7xx_hal_rtc_ex.c ****   * @param  Timeout Timeout duration
 887:Drivers/STM32F7xx_HAL_Driver/Src/stm32f7xx_hal_rtc_ex.c ****   * @retval HAL status
 888:Drivers/STM32F7xx_HAL_Driver/Src/stm32f7xx_hal_rtc_ex.c ****   */
 889:Drivers/STM32F7xx_HAL_Driver/Src/stm32f7xx_hal_rtc_ex.c **** HAL_StatusTypeDef HAL_RTCEx_PollForTamper2Event(RTC_HandleTypeDef *hrtc, uint32_t Timeout)
 890:Drivers/STM32F7xx_HAL_Driver/Src/stm32f7xx_hal_rtc_ex.c **** {  
 1455              		.loc 1 890 0
 1456              		.cfi_startproc
 1457              		@ args = 0, pretend = 0, frame = 0
 1458              		@ frame_needed = 0, uses_anonymous_args = 0
 1459              	.LVL94:
 1460 0000 70B5     		push	{r4, r5, r6, lr}
 1461              	.LCFI20:
 1462              		.cfi_def_cfa_offset 16
 1463              		.cfi_offset 4, -16
 1464              		.cfi_offset 5, -12
 1465              		.cfi_offset 6, -8
 1466              		.cfi_offset 14, -4
 1467 0002 0446     		mov	r4, r0
 1468 0004 0D46     		mov	r5, r1
 1469              	.LVL95:
 891:Drivers/STM32F7xx_HAL_Driver/Src/stm32f7xx_hal_rtc_ex.c ****   uint32_t tickstart = 0; 
 892:Drivers/STM32F7xx_HAL_Driver/Src/stm32f7xx_hal_rtc_ex.c **** 
 893:Drivers/STM32F7xx_HAL_Driver/Src/stm32f7xx_hal_rtc_ex.c ****   /* Get tick */
 894:Drivers/STM32F7xx_HAL_Driver/Src/stm32f7xx_hal_rtc_ex.c ****   tickstart = HAL_GetTick();
 1470              		.loc 1 894 0
 1471 0006 FFF7FEFF 		bl	HAL_GetTick
 1472              	.LVL96:
 1473 000a 0646     		mov	r6, r0
 1474              	.LVL97:
 1475              	.L117:
 895:Drivers/STM32F7xx_HAL_Driver/Src/stm32f7xx_hal_rtc_ex.c ****   
ARM GAS  C:\Users\Student\AppData\Local\Temp\ccapU3Tb.s 			page 43


 896:Drivers/STM32F7xx_HAL_Driver/Src/stm32f7xx_hal_rtc_ex.c ****   /* Get the status of the Interrupt */
 897:Drivers/STM32F7xx_HAL_Driver/Src/stm32f7xx_hal_rtc_ex.c ****   while(__HAL_RTC_TAMPER_GET_FLAG(hrtc, RTC_FLAG_TAMP2F) == RESET)
 1476              		.loc 1 897 0
 1477 000c 2368     		ldr	r3, [r4]
 1478 000e DA68     		ldr	r2, [r3, #12]
 1479 0010 12F4804F 		tst	r2, #16384
 1480 0014 0BD1     		bne	.L122
 898:Drivers/STM32F7xx_HAL_Driver/Src/stm32f7xx_hal_rtc_ex.c ****   {
 899:Drivers/STM32F7xx_HAL_Driver/Src/stm32f7xx_hal_rtc_ex.c ****     if(Timeout != HAL_MAX_DELAY)
 1481              		.loc 1 899 0
 1482 0016 B5F1FF3F 		cmp	r5, #-1
 1483 001a F7D0     		beq	.L117
 900:Drivers/STM32F7xx_HAL_Driver/Src/stm32f7xx_hal_rtc_ex.c ****     {
 901:Drivers/STM32F7xx_HAL_Driver/Src/stm32f7xx_hal_rtc_ex.c ****       if((Timeout == 0)||((HAL_GetTick() - tickstart ) > Timeout))
 1484              		.loc 1 901 0
 1485 001c 25B1     		cbz	r5, .L118
 1486              		.loc 1 901 0 is_stmt 0 discriminator 1
 1487 001e FFF7FEFF 		bl	HAL_GetTick
 1488              	.LVL98:
 1489 0022 801B     		subs	r0, r0, r6
 1490 0024 8542     		cmp	r5, r0
 1491 0026 F1D2     		bcs	.L117
 1492              	.L118:
 902:Drivers/STM32F7xx_HAL_Driver/Src/stm32f7xx_hal_rtc_ex.c ****       {
 903:Drivers/STM32F7xx_HAL_Driver/Src/stm32f7xx_hal_rtc_ex.c ****         hrtc->State = HAL_RTC_STATE_TIMEOUT;
 1493              		.loc 1 903 0 is_stmt 1
 1494 0028 0320     		movs	r0, #3
 1495 002a 6077     		strb	r0, [r4, #29]
 904:Drivers/STM32F7xx_HAL_Driver/Src/stm32f7xx_hal_rtc_ex.c ****         return HAL_TIMEOUT;
 1496              		.loc 1 904 0
 1497 002c 70BD     		pop	{r4, r5, r6, pc}
 1498              	.LVL99:
 1499              	.L122:
 905:Drivers/STM32F7xx_HAL_Driver/Src/stm32f7xx_hal_rtc_ex.c ****       }
 906:Drivers/STM32F7xx_HAL_Driver/Src/stm32f7xx_hal_rtc_ex.c ****     }
 907:Drivers/STM32F7xx_HAL_Driver/Src/stm32f7xx_hal_rtc_ex.c ****   }
 908:Drivers/STM32F7xx_HAL_Driver/Src/stm32f7xx_hal_rtc_ex.c ****   
 909:Drivers/STM32F7xx_HAL_Driver/Src/stm32f7xx_hal_rtc_ex.c ****   /* Clear the Tamper Flag */
 910:Drivers/STM32F7xx_HAL_Driver/Src/stm32f7xx_hal_rtc_ex.c ****   __HAL_RTC_TAMPER_CLEAR_FLAG(hrtc,RTC_FLAG_TAMP2F);
 1500              		.loc 1 910 0
 1501 002e DA68     		ldr	r2, [r3, #12]
 1502 0030 D2B2     		uxtb	r2, r2
 1503 0032 62F48142 		orn	r2, r2, #16512
 1504 0036 DA60     		str	r2, [r3, #12]
 911:Drivers/STM32F7xx_HAL_Driver/Src/stm32f7xx_hal_rtc_ex.c ****   
 912:Drivers/STM32F7xx_HAL_Driver/Src/stm32f7xx_hal_rtc_ex.c ****   /* Change RTC state */
 913:Drivers/STM32F7xx_HAL_Driver/Src/stm32f7xx_hal_rtc_ex.c ****   hrtc->State = HAL_RTC_STATE_READY;
 1505              		.loc 1 913 0
 1506 0038 0123     		movs	r3, #1
 1507 003a 6377     		strb	r3, [r4, #29]
 914:Drivers/STM32F7xx_HAL_Driver/Src/stm32f7xx_hal_rtc_ex.c ****   
 915:Drivers/STM32F7xx_HAL_Driver/Src/stm32f7xx_hal_rtc_ex.c ****   return HAL_OK;
 1508              		.loc 1 915 0
 1509 003c 0020     		movs	r0, #0
 916:Drivers/STM32F7xx_HAL_Driver/Src/stm32f7xx_hal_rtc_ex.c **** }
 1510              		.loc 1 916 0
 1511 003e 70BD     		pop	{r4, r5, r6, pc}
ARM GAS  C:\Users\Student\AppData\Local\Temp\ccapU3Tb.s 			page 44


 1512              		.cfi_endproc
 1513              	.LFE152:
 1515              		.section	.text.HAL_RTCEx_PollForTamper3Event,"ax",%progbits
 1516              		.align	1
 1517              		.global	HAL_RTCEx_PollForTamper3Event
 1518              		.syntax unified
 1519              		.thumb
 1520              		.thumb_func
 1521              		.fpu fpv5-sp-d16
 1523              	HAL_RTCEx_PollForTamper3Event:
 1524              	.LFB153:
 917:Drivers/STM32F7xx_HAL_Driver/Src/stm32f7xx_hal_rtc_ex.c **** 
 918:Drivers/STM32F7xx_HAL_Driver/Src/stm32f7xx_hal_rtc_ex.c **** /**
 919:Drivers/STM32F7xx_HAL_Driver/Src/stm32f7xx_hal_rtc_ex.c ****   * @brief  This function handles Tamper3 Polling.
 920:Drivers/STM32F7xx_HAL_Driver/Src/stm32f7xx_hal_rtc_ex.c ****   * @param  hrtc RTC handle
 921:Drivers/STM32F7xx_HAL_Driver/Src/stm32f7xx_hal_rtc_ex.c ****   * @param  Timeout Timeout duration
 922:Drivers/STM32F7xx_HAL_Driver/Src/stm32f7xx_hal_rtc_ex.c ****   * @retval HAL status
 923:Drivers/STM32F7xx_HAL_Driver/Src/stm32f7xx_hal_rtc_ex.c ****   */
 924:Drivers/STM32F7xx_HAL_Driver/Src/stm32f7xx_hal_rtc_ex.c **** HAL_StatusTypeDef HAL_RTCEx_PollForTamper3Event(RTC_HandleTypeDef *hrtc, uint32_t Timeout)
 925:Drivers/STM32F7xx_HAL_Driver/Src/stm32f7xx_hal_rtc_ex.c **** {
 1525              		.loc 1 925 0
 1526              		.cfi_startproc
 1527              		@ args = 0, pretend = 0, frame = 0
 1528              		@ frame_needed = 0, uses_anonymous_args = 0
 1529              	.LVL100:
 1530 0000 70B5     		push	{r4, r5, r6, lr}
 1531              	.LCFI21:
 1532              		.cfi_def_cfa_offset 16
 1533              		.cfi_offset 4, -16
 1534              		.cfi_offset 5, -12
 1535              		.cfi_offset 6, -8
 1536              		.cfi_offset 14, -4
 1537 0002 0446     		mov	r4, r0
 1538 0004 0D46     		mov	r5, r1
 926:Drivers/STM32F7xx_HAL_Driver/Src/stm32f7xx_hal_rtc_ex.c ****   uint32_t tickstart = HAL_GetTick();
 1539              		.loc 1 926 0
 1540 0006 FFF7FEFF 		bl	HAL_GetTick
 1541              	.LVL101:
 1542 000a 0646     		mov	r6, r0
 1543              	.LVL102:
 1544              	.L125:
 927:Drivers/STM32F7xx_HAL_Driver/Src/stm32f7xx_hal_rtc_ex.c **** 
 928:Drivers/STM32F7xx_HAL_Driver/Src/stm32f7xx_hal_rtc_ex.c ****   /* Get the status of the Interrupt */
 929:Drivers/STM32F7xx_HAL_Driver/Src/stm32f7xx_hal_rtc_ex.c ****   while(__HAL_RTC_TAMPER_GET_FLAG(hrtc, RTC_FLAG_TAMP3F) == RESET)
 1545              		.loc 1 929 0
 1546 000c 2368     		ldr	r3, [r4]
 1547 000e DA68     		ldr	r2, [r3, #12]
 1548 0010 12F4004F 		tst	r2, #32768
 1549 0014 0BD1     		bne	.L130
 930:Drivers/STM32F7xx_HAL_Driver/Src/stm32f7xx_hal_rtc_ex.c ****   {
 931:Drivers/STM32F7xx_HAL_Driver/Src/stm32f7xx_hal_rtc_ex.c ****     if(Timeout != HAL_MAX_DELAY)
 1550              		.loc 1 931 0
 1551 0016 B5F1FF3F 		cmp	r5, #-1
 1552 001a F7D0     		beq	.L125
 932:Drivers/STM32F7xx_HAL_Driver/Src/stm32f7xx_hal_rtc_ex.c ****     {
 933:Drivers/STM32F7xx_HAL_Driver/Src/stm32f7xx_hal_rtc_ex.c ****       if((Timeout == 0)||((HAL_GetTick() - tickstart ) > Timeout))
 1553              		.loc 1 933 0
ARM GAS  C:\Users\Student\AppData\Local\Temp\ccapU3Tb.s 			page 45


 1554 001c 25B1     		cbz	r5, .L126
 1555              		.loc 1 933 0 is_stmt 0 discriminator 1
 1556 001e FFF7FEFF 		bl	HAL_GetTick
 1557              	.LVL103:
 1558 0022 801B     		subs	r0, r0, r6
 1559 0024 8542     		cmp	r5, r0
 1560 0026 F1D2     		bcs	.L125
 1561              	.L126:
 934:Drivers/STM32F7xx_HAL_Driver/Src/stm32f7xx_hal_rtc_ex.c ****       {
 935:Drivers/STM32F7xx_HAL_Driver/Src/stm32f7xx_hal_rtc_ex.c ****         hrtc->State = HAL_RTC_STATE_TIMEOUT;
 1562              		.loc 1 935 0 is_stmt 1
 1563 0028 0320     		movs	r0, #3
 1564 002a 6077     		strb	r0, [r4, #29]
 936:Drivers/STM32F7xx_HAL_Driver/Src/stm32f7xx_hal_rtc_ex.c ****         return HAL_TIMEOUT;
 1565              		.loc 1 936 0
 1566 002c 70BD     		pop	{r4, r5, r6, pc}
 1567              	.LVL104:
 1568              	.L130:
 937:Drivers/STM32F7xx_HAL_Driver/Src/stm32f7xx_hal_rtc_ex.c ****       }
 938:Drivers/STM32F7xx_HAL_Driver/Src/stm32f7xx_hal_rtc_ex.c ****     }
 939:Drivers/STM32F7xx_HAL_Driver/Src/stm32f7xx_hal_rtc_ex.c ****   }
 940:Drivers/STM32F7xx_HAL_Driver/Src/stm32f7xx_hal_rtc_ex.c **** 
 941:Drivers/STM32F7xx_HAL_Driver/Src/stm32f7xx_hal_rtc_ex.c ****   /* Clear the Tamper Flag */
 942:Drivers/STM32F7xx_HAL_Driver/Src/stm32f7xx_hal_rtc_ex.c ****   __HAL_RTC_TAMPER_CLEAR_FLAG(hrtc,RTC_FLAG_TAMP3F);
 1569              		.loc 1 942 0
 1570 002e DA68     		ldr	r2, [r3, #12]
 1571 0030 D2B2     		uxtb	r2, r2
 1572 0032 42F07F42 		orr	r2, r2, #-16777216
 1573 0036 42F47F02 		orr	r2, r2, #16711680
 1574 003a 42F4FE42 		orr	r2, r2, #32512
 1575 003e 42F07F02 		orr	r2, r2, #127
 1576 0042 DA60     		str	r2, [r3, #12]
 943:Drivers/STM32F7xx_HAL_Driver/Src/stm32f7xx_hal_rtc_ex.c **** 
 944:Drivers/STM32F7xx_HAL_Driver/Src/stm32f7xx_hal_rtc_ex.c ****   /* Change RTC state */
 945:Drivers/STM32F7xx_HAL_Driver/Src/stm32f7xx_hal_rtc_ex.c ****   hrtc->State = HAL_RTC_STATE_READY;
 1577              		.loc 1 945 0
 1578 0044 0123     		movs	r3, #1
 1579 0046 6377     		strb	r3, [r4, #29]
 946:Drivers/STM32F7xx_HAL_Driver/Src/stm32f7xx_hal_rtc_ex.c **** 
 947:Drivers/STM32F7xx_HAL_Driver/Src/stm32f7xx_hal_rtc_ex.c ****   return HAL_OK;
 1580              		.loc 1 947 0
 1581 0048 0020     		movs	r0, #0
 948:Drivers/STM32F7xx_HAL_Driver/Src/stm32f7xx_hal_rtc_ex.c **** }
 1582              		.loc 1 948 0
 1583 004a 70BD     		pop	{r4, r5, r6, pc}
 1584              		.cfi_endproc
 1585              	.LFE153:
 1587              		.section	.text.HAL_RTCEx_SetWakeUpTimer,"ax",%progbits
 1588              		.align	1
 1589              		.global	HAL_RTCEx_SetWakeUpTimer
 1590              		.syntax unified
 1591              		.thumb
 1592              		.thumb_func
 1593              		.fpu fpv5-sp-d16
 1595              	HAL_RTCEx_SetWakeUpTimer:
 1596              	.LFB154:
 949:Drivers/STM32F7xx_HAL_Driver/Src/stm32f7xx_hal_rtc_ex.c **** 
ARM GAS  C:\Users\Student\AppData\Local\Temp\ccapU3Tb.s 			page 46


 950:Drivers/STM32F7xx_HAL_Driver/Src/stm32f7xx_hal_rtc_ex.c **** /**
 951:Drivers/STM32F7xx_HAL_Driver/Src/stm32f7xx_hal_rtc_ex.c ****   * @}
 952:Drivers/STM32F7xx_HAL_Driver/Src/stm32f7xx_hal_rtc_ex.c ****   */
 953:Drivers/STM32F7xx_HAL_Driver/Src/stm32f7xx_hal_rtc_ex.c ****   
 954:Drivers/STM32F7xx_HAL_Driver/Src/stm32f7xx_hal_rtc_ex.c **** /** @defgroup RTCEx_Group2 RTC Wake-up functions
 955:Drivers/STM32F7xx_HAL_Driver/Src/stm32f7xx_hal_rtc_ex.c ****  *  @brief   RTC Wake-up functions
 956:Drivers/STM32F7xx_HAL_Driver/Src/stm32f7xx_hal_rtc_ex.c ****  *
 957:Drivers/STM32F7xx_HAL_Driver/Src/stm32f7xx_hal_rtc_ex.c **** @verbatim   
 958:Drivers/STM32F7xx_HAL_Driver/Src/stm32f7xx_hal_rtc_ex.c ****  ===============================================================================
 959:Drivers/STM32F7xx_HAL_Driver/Src/stm32f7xx_hal_rtc_ex.c ****                         ##### RTC Wake-up functions #####
 960:Drivers/STM32F7xx_HAL_Driver/Src/stm32f7xx_hal_rtc_ex.c ****  ===============================================================================  
 961:Drivers/STM32F7xx_HAL_Driver/Src/stm32f7xx_hal_rtc_ex.c ****  
 962:Drivers/STM32F7xx_HAL_Driver/Src/stm32f7xx_hal_rtc_ex.c ****  [..] This section provides functions allowing to configure Wake-up feature
 963:Drivers/STM32F7xx_HAL_Driver/Src/stm32f7xx_hal_rtc_ex.c **** 
 964:Drivers/STM32F7xx_HAL_Driver/Src/stm32f7xx_hal_rtc_ex.c **** @endverbatim
 965:Drivers/STM32F7xx_HAL_Driver/Src/stm32f7xx_hal_rtc_ex.c ****   * @{
 966:Drivers/STM32F7xx_HAL_Driver/Src/stm32f7xx_hal_rtc_ex.c ****   */
 967:Drivers/STM32F7xx_HAL_Driver/Src/stm32f7xx_hal_rtc_ex.c **** 
 968:Drivers/STM32F7xx_HAL_Driver/Src/stm32f7xx_hal_rtc_ex.c **** /**
 969:Drivers/STM32F7xx_HAL_Driver/Src/stm32f7xx_hal_rtc_ex.c ****   * @brief  Sets wake up timer. 
 970:Drivers/STM32F7xx_HAL_Driver/Src/stm32f7xx_hal_rtc_ex.c ****   * @param  hrtc pointer to a RTC_HandleTypeDef structure that contains
 971:Drivers/STM32F7xx_HAL_Driver/Src/stm32f7xx_hal_rtc_ex.c ****   *                the configuration information for RTC.
 972:Drivers/STM32F7xx_HAL_Driver/Src/stm32f7xx_hal_rtc_ex.c ****   * @param  WakeUpCounter Wake up counter
 973:Drivers/STM32F7xx_HAL_Driver/Src/stm32f7xx_hal_rtc_ex.c ****   * @param  WakeUpClock Wake up clock  
 974:Drivers/STM32F7xx_HAL_Driver/Src/stm32f7xx_hal_rtc_ex.c ****   * @retval HAL status
 975:Drivers/STM32F7xx_HAL_Driver/Src/stm32f7xx_hal_rtc_ex.c ****   */
 976:Drivers/STM32F7xx_HAL_Driver/Src/stm32f7xx_hal_rtc_ex.c **** HAL_StatusTypeDef HAL_RTCEx_SetWakeUpTimer(RTC_HandleTypeDef *hrtc, uint32_t WakeUpCounter, uint32_
 977:Drivers/STM32F7xx_HAL_Driver/Src/stm32f7xx_hal_rtc_ex.c **** {
 1597              		.loc 1 977 0
 1598              		.cfi_startproc
 1599              		@ args = 0, pretend = 0, frame = 0
 1600              		@ frame_needed = 0, uses_anonymous_args = 0
 1601              	.LVL105:
 1602 0000 F8B5     		push	{r3, r4, r5, r6, r7, lr}
 1603              	.LCFI22:
 1604              		.cfi_def_cfa_offset 24
 1605              		.cfi_offset 3, -24
 1606              		.cfi_offset 4, -20
 1607              		.cfi_offset 5, -16
 1608              		.cfi_offset 6, -12
 1609              		.cfi_offset 7, -8
 1610              		.cfi_offset 14, -4
 1611              	.LVL106:
 978:Drivers/STM32F7xx_HAL_Driver/Src/stm32f7xx_hal_rtc_ex.c ****   uint32_t tickstart = 0;
 979:Drivers/STM32F7xx_HAL_Driver/Src/stm32f7xx_hal_rtc_ex.c **** 
 980:Drivers/STM32F7xx_HAL_Driver/Src/stm32f7xx_hal_rtc_ex.c ****   /* Check the parameters */
 981:Drivers/STM32F7xx_HAL_Driver/Src/stm32f7xx_hal_rtc_ex.c ****   assert_param(IS_RTC_WAKEUP_CLOCK(WakeUpClock));
 982:Drivers/STM32F7xx_HAL_Driver/Src/stm32f7xx_hal_rtc_ex.c ****   assert_param(IS_RTC_WAKEUP_COUNTER(WakeUpCounter));
 983:Drivers/STM32F7xx_HAL_Driver/Src/stm32f7xx_hal_rtc_ex.c ****  
 984:Drivers/STM32F7xx_HAL_Driver/Src/stm32f7xx_hal_rtc_ex.c ****   /* Process Locked */ 
 985:Drivers/STM32F7xx_HAL_Driver/Src/stm32f7xx_hal_rtc_ex.c ****   __HAL_LOCK(hrtc);
 1612              		.loc 1 985 0
 1613 0002 037F     		ldrb	r3, [r0, #28]	@ zero_extendqisi2
 1614 0004 012B     		cmp	r3, #1
 1615 0006 01D1     		bne	.L138
 1616 0008 0220     		movs	r0, #2
 1617              	.LVL107:
ARM GAS  C:\Users\Student\AppData\Local\Temp\ccapU3Tb.s 			page 47


 986:Drivers/STM32F7xx_HAL_Driver/Src/stm32f7xx_hal_rtc_ex.c ****     
 987:Drivers/STM32F7xx_HAL_Driver/Src/stm32f7xx_hal_rtc_ex.c ****   hrtc->State = HAL_RTC_STATE_BUSY;
 988:Drivers/STM32F7xx_HAL_Driver/Src/stm32f7xx_hal_rtc_ex.c ****   
 989:Drivers/STM32F7xx_HAL_Driver/Src/stm32f7xx_hal_rtc_ex.c ****   /* Disable the write protection for RTC registers */
 990:Drivers/STM32F7xx_HAL_Driver/Src/stm32f7xx_hal_rtc_ex.c ****   __HAL_RTC_WRITEPROTECTION_DISABLE(hrtc);
 991:Drivers/STM32F7xx_HAL_Driver/Src/stm32f7xx_hal_rtc_ex.c ****   
 992:Drivers/STM32F7xx_HAL_Driver/Src/stm32f7xx_hal_rtc_ex.c ****   __HAL_RTC_WAKEUPTIMER_DISABLE(hrtc);
 993:Drivers/STM32F7xx_HAL_Driver/Src/stm32f7xx_hal_rtc_ex.c **** 
 994:Drivers/STM32F7xx_HAL_Driver/Src/stm32f7xx_hal_rtc_ex.c ****   /* Get tick */
 995:Drivers/STM32F7xx_HAL_Driver/Src/stm32f7xx_hal_rtc_ex.c ****   tickstart = HAL_GetTick();
 996:Drivers/STM32F7xx_HAL_Driver/Src/stm32f7xx_hal_rtc_ex.c **** 
 997:Drivers/STM32F7xx_HAL_Driver/Src/stm32f7xx_hal_rtc_ex.c ****   /*Check RTC WUTWF flag is reset only when wake up timer enabled*/
 998:Drivers/STM32F7xx_HAL_Driver/Src/stm32f7xx_hal_rtc_ex.c ****   if((hrtc->Instance->CR & RTC_CR_WUTE) != RESET)
 999:Drivers/STM32F7xx_HAL_Driver/Src/stm32f7xx_hal_rtc_ex.c ****   {
1000:Drivers/STM32F7xx_HAL_Driver/Src/stm32f7xx_hal_rtc_ex.c ****     /* Wait till RTC WUTWF flag is set and if Time out is reached exit */
1001:Drivers/STM32F7xx_HAL_Driver/Src/stm32f7xx_hal_rtc_ex.c ****     while(__HAL_RTC_WAKEUPTIMER_GET_FLAG(hrtc, RTC_FLAG_WUTWF) == RESET)
1002:Drivers/STM32F7xx_HAL_Driver/Src/stm32f7xx_hal_rtc_ex.c ****     {
1003:Drivers/STM32F7xx_HAL_Driver/Src/stm32f7xx_hal_rtc_ex.c ****       if((HAL_GetTick() - tickstart ) > RTC_TIMEOUT_VALUE)
1004:Drivers/STM32F7xx_HAL_Driver/Src/stm32f7xx_hal_rtc_ex.c ****       {
1005:Drivers/STM32F7xx_HAL_Driver/Src/stm32f7xx_hal_rtc_ex.c ****         /* Enable the write protection for RTC registers */
1006:Drivers/STM32F7xx_HAL_Driver/Src/stm32f7xx_hal_rtc_ex.c ****         __HAL_RTC_WRITEPROTECTION_ENABLE(hrtc);
1007:Drivers/STM32F7xx_HAL_Driver/Src/stm32f7xx_hal_rtc_ex.c ****       
1008:Drivers/STM32F7xx_HAL_Driver/Src/stm32f7xx_hal_rtc_ex.c ****         hrtc->State = HAL_RTC_STATE_TIMEOUT; 
1009:Drivers/STM32F7xx_HAL_Driver/Src/stm32f7xx_hal_rtc_ex.c ****       
1010:Drivers/STM32F7xx_HAL_Driver/Src/stm32f7xx_hal_rtc_ex.c ****         /* Process Unlocked */ 
1011:Drivers/STM32F7xx_HAL_Driver/Src/stm32f7xx_hal_rtc_ex.c ****         __HAL_UNLOCK(hrtc);
1012:Drivers/STM32F7xx_HAL_Driver/Src/stm32f7xx_hal_rtc_ex.c ****       
1013:Drivers/STM32F7xx_HAL_Driver/Src/stm32f7xx_hal_rtc_ex.c ****         return HAL_TIMEOUT;
1014:Drivers/STM32F7xx_HAL_Driver/Src/stm32f7xx_hal_rtc_ex.c ****       }  
1015:Drivers/STM32F7xx_HAL_Driver/Src/stm32f7xx_hal_rtc_ex.c ****     }
1016:Drivers/STM32F7xx_HAL_Driver/Src/stm32f7xx_hal_rtc_ex.c ****   }
1017:Drivers/STM32F7xx_HAL_Driver/Src/stm32f7xx_hal_rtc_ex.c ****   
1018:Drivers/STM32F7xx_HAL_Driver/Src/stm32f7xx_hal_rtc_ex.c ****   /* Clear the Wakeup Timer clock source bits in CR register */
1019:Drivers/STM32F7xx_HAL_Driver/Src/stm32f7xx_hal_rtc_ex.c ****   hrtc->Instance->CR &= (uint32_t)~RTC_CR_WUCKSEL;
1020:Drivers/STM32F7xx_HAL_Driver/Src/stm32f7xx_hal_rtc_ex.c ****   
1021:Drivers/STM32F7xx_HAL_Driver/Src/stm32f7xx_hal_rtc_ex.c ****   /* Configure the clock source */
1022:Drivers/STM32F7xx_HAL_Driver/Src/stm32f7xx_hal_rtc_ex.c ****   hrtc->Instance->CR |= (uint32_t)WakeUpClock;
1023:Drivers/STM32F7xx_HAL_Driver/Src/stm32f7xx_hal_rtc_ex.c ****   
1024:Drivers/STM32F7xx_HAL_Driver/Src/stm32f7xx_hal_rtc_ex.c ****   /* Configure the Wakeup Timer counter */
1025:Drivers/STM32F7xx_HAL_Driver/Src/stm32f7xx_hal_rtc_ex.c ****   hrtc->Instance->WUTR = (uint32_t)WakeUpCounter;
1026:Drivers/STM32F7xx_HAL_Driver/Src/stm32f7xx_hal_rtc_ex.c ****   
1027:Drivers/STM32F7xx_HAL_Driver/Src/stm32f7xx_hal_rtc_ex.c ****    /* Enable the Wakeup Timer */
1028:Drivers/STM32F7xx_HAL_Driver/Src/stm32f7xx_hal_rtc_ex.c ****   __HAL_RTC_WAKEUPTIMER_ENABLE(hrtc);   
1029:Drivers/STM32F7xx_HAL_Driver/Src/stm32f7xx_hal_rtc_ex.c ****   
1030:Drivers/STM32F7xx_HAL_Driver/Src/stm32f7xx_hal_rtc_ex.c ****   /* Enable the write protection for RTC registers */
1031:Drivers/STM32F7xx_HAL_Driver/Src/stm32f7xx_hal_rtc_ex.c ****   __HAL_RTC_WRITEPROTECTION_ENABLE(hrtc); 
1032:Drivers/STM32F7xx_HAL_Driver/Src/stm32f7xx_hal_rtc_ex.c ****   
1033:Drivers/STM32F7xx_HAL_Driver/Src/stm32f7xx_hal_rtc_ex.c ****   hrtc->State = HAL_RTC_STATE_READY;   
1034:Drivers/STM32F7xx_HAL_Driver/Src/stm32f7xx_hal_rtc_ex.c ****   
1035:Drivers/STM32F7xx_HAL_Driver/Src/stm32f7xx_hal_rtc_ex.c ****   /* Process Unlocked */ 
1036:Drivers/STM32F7xx_HAL_Driver/Src/stm32f7xx_hal_rtc_ex.c ****   __HAL_UNLOCK(hrtc);
1037:Drivers/STM32F7xx_HAL_Driver/Src/stm32f7xx_hal_rtc_ex.c ****   
1038:Drivers/STM32F7xx_HAL_Driver/Src/stm32f7xx_hal_rtc_ex.c ****   return HAL_OK;
1039:Drivers/STM32F7xx_HAL_Driver/Src/stm32f7xx_hal_rtc_ex.c **** }
 1618              		.loc 1 1039 0
 1619 000a F8BD     		pop	{r3, r4, r5, r6, r7, pc}
 1620              	.LVL108:
ARM GAS  C:\Users\Student\AppData\Local\Temp\ccapU3Tb.s 			page 48


 1621              	.L138:
 1622 000c 1746     		mov	r7, r2
 1623 000e 0E46     		mov	r6, r1
 1624 0010 0446     		mov	r4, r0
 985:Drivers/STM32F7xx_HAL_Driver/Src/stm32f7xx_hal_rtc_ex.c ****     
 1625              		.loc 1 985 0 discriminator 2
 1626 0012 0123     		movs	r3, #1
 1627 0014 0377     		strb	r3, [r0, #28]
 987:Drivers/STM32F7xx_HAL_Driver/Src/stm32f7xx_hal_rtc_ex.c ****   
 1628              		.loc 1 987 0 discriminator 2
 1629 0016 0223     		movs	r3, #2
 1630 0018 4377     		strb	r3, [r0, #29]
 990:Drivers/STM32F7xx_HAL_Driver/Src/stm32f7xx_hal_rtc_ex.c ****   
 1631              		.loc 1 990 0 discriminator 2
 1632 001a 0368     		ldr	r3, [r0]
 1633 001c CA22     		movs	r2, #202
 1634              	.LVL109:
 1635 001e 5A62     		str	r2, [r3, #36]
 1636 0020 0368     		ldr	r3, [r0]
 1637 0022 5322     		movs	r2, #83
 1638 0024 5A62     		str	r2, [r3, #36]
 992:Drivers/STM32F7xx_HAL_Driver/Src/stm32f7xx_hal_rtc_ex.c **** 
 1639              		.loc 1 992 0 discriminator 2
 1640 0026 0268     		ldr	r2, [r0]
 1641 0028 9368     		ldr	r3, [r2, #8]
 1642 002a 23F48063 		bic	r3, r3, #1024
 1643 002e 9360     		str	r3, [r2, #8]
 995:Drivers/STM32F7xx_HAL_Driver/Src/stm32f7xx_hal_rtc_ex.c **** 
 1644              		.loc 1 995 0 discriminator 2
 1645 0030 FFF7FEFF 		bl	HAL_GetTick
 1646              	.LVL110:
 1647 0034 0546     		mov	r5, r0
 1648              	.LVL111:
 998:Drivers/STM32F7xx_HAL_Driver/Src/stm32f7xx_hal_rtc_ex.c ****   {
 1649              		.loc 1 998 0 discriminator 2
 1650 0036 2368     		ldr	r3, [r4]
 1651 0038 9B68     		ldr	r3, [r3, #8]
 1652 003a 13F4806F 		tst	r3, #1024
 1653 003e 17D1     		bne	.L133
 1654              	.LVL112:
 1655              	.L134:
1019:Drivers/STM32F7xx_HAL_Driver/Src/stm32f7xx_hal_rtc_ex.c ****   
 1656              		.loc 1 1019 0
 1657 0040 2268     		ldr	r2, [r4]
 1658 0042 9368     		ldr	r3, [r2, #8]
 1659 0044 23F00703 		bic	r3, r3, #7
 1660 0048 9360     		str	r3, [r2, #8]
1022:Drivers/STM32F7xx_HAL_Driver/Src/stm32f7xx_hal_rtc_ex.c ****   
 1661              		.loc 1 1022 0
 1662 004a 2368     		ldr	r3, [r4]
 1663 004c 9A68     		ldr	r2, [r3, #8]
 1664 004e 1743     		orrs	r7, r7, r2
 1665              	.LVL113:
 1666 0050 9F60     		str	r7, [r3, #8]
1025:Drivers/STM32F7xx_HAL_Driver/Src/stm32f7xx_hal_rtc_ex.c ****   
 1667              		.loc 1 1025 0
 1668 0052 2368     		ldr	r3, [r4]
ARM GAS  C:\Users\Student\AppData\Local\Temp\ccapU3Tb.s 			page 49


 1669 0054 5E61     		str	r6, [r3, #20]
1028:Drivers/STM32F7xx_HAL_Driver/Src/stm32f7xx_hal_rtc_ex.c ****   
 1670              		.loc 1 1028 0
 1671 0056 2268     		ldr	r2, [r4]
 1672 0058 9368     		ldr	r3, [r2, #8]
 1673 005a 43F48063 		orr	r3, r3, #1024
 1674 005e 9360     		str	r3, [r2, #8]
1031:Drivers/STM32F7xx_HAL_Driver/Src/stm32f7xx_hal_rtc_ex.c ****   
 1675              		.loc 1 1031 0
 1676 0060 2368     		ldr	r3, [r4]
 1677 0062 FF22     		movs	r2, #255
 1678 0064 5A62     		str	r2, [r3, #36]
1033:Drivers/STM32F7xx_HAL_Driver/Src/stm32f7xx_hal_rtc_ex.c ****   
 1679              		.loc 1 1033 0
 1680 0066 0123     		movs	r3, #1
 1681 0068 6377     		strb	r3, [r4, #29]
1036:Drivers/STM32F7xx_HAL_Driver/Src/stm32f7xx_hal_rtc_ex.c ****   
 1682              		.loc 1 1036 0
 1683 006a 0020     		movs	r0, #0
 1684 006c 2077     		strb	r0, [r4, #28]
1038:Drivers/STM32F7xx_HAL_Driver/Src/stm32f7xx_hal_rtc_ex.c **** }
 1685              		.loc 1 1038 0
 1686 006e F8BD     		pop	{r3, r4, r5, r6, r7, pc}
 1687              	.LVL114:
 1688              	.L133:
1001:Drivers/STM32F7xx_HAL_Driver/Src/stm32f7xx_hal_rtc_ex.c ****     {
 1689              		.loc 1 1001 0
 1690 0070 2368     		ldr	r3, [r4]
 1691 0072 DB68     		ldr	r3, [r3, #12]
 1692 0074 13F0040F 		tst	r3, #4
 1693 0078 E2D1     		bne	.L134
1003:Drivers/STM32F7xx_HAL_Driver/Src/stm32f7xx_hal_rtc_ex.c ****       {
 1694              		.loc 1 1003 0
 1695 007a FFF7FEFF 		bl	HAL_GetTick
 1696              	.LVL115:
 1697 007e 401B     		subs	r0, r0, r5
 1698 0080 B0F57A7F 		cmp	r0, #1000
 1699 0084 F4D9     		bls	.L133
1006:Drivers/STM32F7xx_HAL_Driver/Src/stm32f7xx_hal_rtc_ex.c ****       
 1700              		.loc 1 1006 0
 1701 0086 2368     		ldr	r3, [r4]
 1702 0088 FF22     		movs	r2, #255
 1703 008a 5A62     		str	r2, [r3, #36]
1008:Drivers/STM32F7xx_HAL_Driver/Src/stm32f7xx_hal_rtc_ex.c ****       
 1704              		.loc 1 1008 0
 1705 008c 0320     		movs	r0, #3
 1706 008e 6077     		strb	r0, [r4, #29]
1011:Drivers/STM32F7xx_HAL_Driver/Src/stm32f7xx_hal_rtc_ex.c ****       
 1707              		.loc 1 1011 0
 1708 0090 0023     		movs	r3, #0
 1709 0092 2377     		strb	r3, [r4, #28]
1013:Drivers/STM32F7xx_HAL_Driver/Src/stm32f7xx_hal_rtc_ex.c ****       }  
 1710              		.loc 1 1013 0
 1711 0094 F8BD     		pop	{r3, r4, r5, r6, r7, pc}
 1712              		.cfi_endproc
 1713              	.LFE154:
 1715              		.section	.text.HAL_RTCEx_SetWakeUpTimer_IT,"ax",%progbits
ARM GAS  C:\Users\Student\AppData\Local\Temp\ccapU3Tb.s 			page 50


 1716              		.align	1
 1717              		.global	HAL_RTCEx_SetWakeUpTimer_IT
 1718              		.syntax unified
 1719              		.thumb
 1720              		.thumb_func
 1721              		.fpu fpv5-sp-d16
 1723              	HAL_RTCEx_SetWakeUpTimer_IT:
 1724              	.LFB155:
1040:Drivers/STM32F7xx_HAL_Driver/Src/stm32f7xx_hal_rtc_ex.c **** 
1041:Drivers/STM32F7xx_HAL_Driver/Src/stm32f7xx_hal_rtc_ex.c **** /**
1042:Drivers/STM32F7xx_HAL_Driver/Src/stm32f7xx_hal_rtc_ex.c ****   * @brief  Sets wake up timer with interrupt
1043:Drivers/STM32F7xx_HAL_Driver/Src/stm32f7xx_hal_rtc_ex.c ****   * @param  hrtc pointer to a RTC_HandleTypeDef structure that contains
1044:Drivers/STM32F7xx_HAL_Driver/Src/stm32f7xx_hal_rtc_ex.c ****   *                the configuration information for RTC.
1045:Drivers/STM32F7xx_HAL_Driver/Src/stm32f7xx_hal_rtc_ex.c ****   * @param  WakeUpCounter Wake up counter
1046:Drivers/STM32F7xx_HAL_Driver/Src/stm32f7xx_hal_rtc_ex.c ****   * @param  WakeUpClock Wake up clock  
1047:Drivers/STM32F7xx_HAL_Driver/Src/stm32f7xx_hal_rtc_ex.c ****   * @retval HAL status
1048:Drivers/STM32F7xx_HAL_Driver/Src/stm32f7xx_hal_rtc_ex.c ****   */
1049:Drivers/STM32F7xx_HAL_Driver/Src/stm32f7xx_hal_rtc_ex.c **** HAL_StatusTypeDef HAL_RTCEx_SetWakeUpTimer_IT(RTC_HandleTypeDef *hrtc, uint32_t WakeUpCounter, uint
1050:Drivers/STM32F7xx_HAL_Driver/Src/stm32f7xx_hal_rtc_ex.c **** {
 1725              		.loc 1 1050 0
 1726              		.cfi_startproc
 1727              		@ args = 0, pretend = 0, frame = 8
 1728              		@ frame_needed = 0, uses_anonymous_args = 0
 1729              		@ link register save eliminated.
 1730              	.LVL116:
1051:Drivers/STM32F7xx_HAL_Driver/Src/stm32f7xx_hal_rtc_ex.c ****   __IO uint32_t count;
1052:Drivers/STM32F7xx_HAL_Driver/Src/stm32f7xx_hal_rtc_ex.c **** 
1053:Drivers/STM32F7xx_HAL_Driver/Src/stm32f7xx_hal_rtc_ex.c ****   /* Check the parameters */
1054:Drivers/STM32F7xx_HAL_Driver/Src/stm32f7xx_hal_rtc_ex.c ****   assert_param(IS_RTC_WAKEUP_CLOCK(WakeUpClock));
1055:Drivers/STM32F7xx_HAL_Driver/Src/stm32f7xx_hal_rtc_ex.c ****   assert_param(IS_RTC_WAKEUP_COUNTER(WakeUpCounter));
1056:Drivers/STM32F7xx_HAL_Driver/Src/stm32f7xx_hal_rtc_ex.c ****   
1057:Drivers/STM32F7xx_HAL_Driver/Src/stm32f7xx_hal_rtc_ex.c ****   /* Process Locked */ 
1058:Drivers/STM32F7xx_HAL_Driver/Src/stm32f7xx_hal_rtc_ex.c ****   __HAL_LOCK(hrtc);
 1731              		.loc 1 1058 0
 1732 0000 037F     		ldrb	r3, [r0, #28]	@ zero_extendqisi2
 1733 0002 012B     		cmp	r3, #1
 1734 0004 00F08280 		beq	.L146
1050:Drivers/STM32F7xx_HAL_Driver/Src/stm32f7xx_hal_rtc_ex.c ****   __IO uint32_t count;
 1735              		.loc 1 1050 0 discriminator 2
 1736 0008 30B4     		push	{r4, r5}
 1737              	.LCFI23:
 1738              		.cfi_def_cfa_offset 8
 1739              		.cfi_offset 4, -8
 1740              		.cfi_offset 5, -4
 1741 000a 82B0     		sub	sp, sp, #8
 1742              	.LCFI24:
 1743              		.cfi_def_cfa_offset 16
 1744              		.loc 1 1058 0 discriminator 2
 1745 000c 0123     		movs	r3, #1
 1746 000e 0377     		strb	r3, [r0, #28]
1059:Drivers/STM32F7xx_HAL_Driver/Src/stm32f7xx_hal_rtc_ex.c ****   
1060:Drivers/STM32F7xx_HAL_Driver/Src/stm32f7xx_hal_rtc_ex.c ****   hrtc->State = HAL_RTC_STATE_BUSY;
 1747              		.loc 1 1060 0 discriminator 2
 1748 0010 0223     		movs	r3, #2
 1749 0012 4377     		strb	r3, [r0, #29]
1061:Drivers/STM32F7xx_HAL_Driver/Src/stm32f7xx_hal_rtc_ex.c ****   
1062:Drivers/STM32F7xx_HAL_Driver/Src/stm32f7xx_hal_rtc_ex.c ****   /* Disable the write protection for RTC registers */
ARM GAS  C:\Users\Student\AppData\Local\Temp\ccapU3Tb.s 			page 51


1063:Drivers/STM32F7xx_HAL_Driver/Src/stm32f7xx_hal_rtc_ex.c ****   __HAL_RTC_WRITEPROTECTION_DISABLE(hrtc);
 1750              		.loc 1 1063 0 discriminator 2
 1751 0014 0368     		ldr	r3, [r0]
 1752 0016 CA24     		movs	r4, #202
 1753 0018 5C62     		str	r4, [r3, #36]
 1754 001a 0368     		ldr	r3, [r0]
 1755 001c 5324     		movs	r4, #83
 1756 001e 5C62     		str	r4, [r3, #36]
1064:Drivers/STM32F7xx_HAL_Driver/Src/stm32f7xx_hal_rtc_ex.c ****   
1065:Drivers/STM32F7xx_HAL_Driver/Src/stm32f7xx_hal_rtc_ex.c ****   __HAL_RTC_WAKEUPTIMER_DISABLE(hrtc);
 1757              		.loc 1 1065 0 discriminator 2
 1758 0020 0468     		ldr	r4, [r0]
 1759 0022 A368     		ldr	r3, [r4, #8]
 1760 0024 23F48063 		bic	r3, r3, #1024
 1761 0028 A360     		str	r3, [r4, #8]
1066:Drivers/STM32F7xx_HAL_Driver/Src/stm32f7xx_hal_rtc_ex.c **** 
1067:Drivers/STM32F7xx_HAL_Driver/Src/stm32f7xx_hal_rtc_ex.c ****   /* Check RTC WUTWF flag is reset only when wake up timer enabled */
1068:Drivers/STM32F7xx_HAL_Driver/Src/stm32f7xx_hal_rtc_ex.c ****   if((hrtc->Instance->CR & RTC_CR_WUTE) != RESET)
 1762              		.loc 1 1068 0 discriminator 2
 1763 002a 0568     		ldr	r5, [r0]
 1764 002c AB68     		ldr	r3, [r5, #8]
 1765 002e 13F4806F 		tst	r3, #1024
 1766 0032 13D0     		beq	.L141
1069:Drivers/STM32F7xx_HAL_Driver/Src/stm32f7xx_hal_rtc_ex.c ****   {
1070:Drivers/STM32F7xx_HAL_Driver/Src/stm32f7xx_hal_rtc_ex.c ****     /* Wait till RTC WUTWF flag is reset and if Time out is reached exit */
1071:Drivers/STM32F7xx_HAL_Driver/Src/stm32f7xx_hal_rtc_ex.c ****     count = RTC_TIMEOUT_VALUE  * (SystemCoreClock / 32U / 1000U);
 1767              		.loc 1 1071 0
 1768 0034 364B     		ldr	r3, .L153
 1769 0036 1B68     		ldr	r3, [r3]
 1770 0038 364C     		ldr	r4, .L153+4
 1771 003a A4FB0343 		umull	r4, r3, r4, r3
 1772 003e DB0A     		lsrs	r3, r3, #11
 1773 0040 4FF47A74 		mov	r4, #1000
 1774 0044 04FB03F3 		mul	r3, r4, r3
 1775 0048 0193     		str	r3, [sp, #4]
 1776              	.L143:
1072:Drivers/STM32F7xx_HAL_Driver/Src/stm32f7xx_hal_rtc_ex.c ****     do
1073:Drivers/STM32F7xx_HAL_Driver/Src/stm32f7xx_hal_rtc_ex.c ****     {
1074:Drivers/STM32F7xx_HAL_Driver/Src/stm32f7xx_hal_rtc_ex.c ****       if(count-- == 0U)
 1777              		.loc 1 1074 0
 1778 004a 019B     		ldr	r3, [sp, #4]
 1779 004c 5C1E     		subs	r4, r3, #1
 1780 004e 0194     		str	r4, [sp, #4]
 1781 0050 002B     		cmp	r3, #0
 1782 0052 48D0     		beq	.L151
1075:Drivers/STM32F7xx_HAL_Driver/Src/stm32f7xx_hal_rtc_ex.c ****       {
1076:Drivers/STM32F7xx_HAL_Driver/Src/stm32f7xx_hal_rtc_ex.c ****         /* Enable the write protection for RTC registers */
1077:Drivers/STM32F7xx_HAL_Driver/Src/stm32f7xx_hal_rtc_ex.c ****         __HAL_RTC_WRITEPROTECTION_ENABLE(hrtc);
1078:Drivers/STM32F7xx_HAL_Driver/Src/stm32f7xx_hal_rtc_ex.c **** 
1079:Drivers/STM32F7xx_HAL_Driver/Src/stm32f7xx_hal_rtc_ex.c ****         hrtc->State = HAL_RTC_STATE_TIMEOUT;
1080:Drivers/STM32F7xx_HAL_Driver/Src/stm32f7xx_hal_rtc_ex.c **** 
1081:Drivers/STM32F7xx_HAL_Driver/Src/stm32f7xx_hal_rtc_ex.c ****         /* Process Unlocked */
1082:Drivers/STM32F7xx_HAL_Driver/Src/stm32f7xx_hal_rtc_ex.c ****         __HAL_UNLOCK(hrtc);
1083:Drivers/STM32F7xx_HAL_Driver/Src/stm32f7xx_hal_rtc_ex.c **** 
1084:Drivers/STM32F7xx_HAL_Driver/Src/stm32f7xx_hal_rtc_ex.c ****         return HAL_TIMEOUT;
1085:Drivers/STM32F7xx_HAL_Driver/Src/stm32f7xx_hal_rtc_ex.c ****       }
1086:Drivers/STM32F7xx_HAL_Driver/Src/stm32f7xx_hal_rtc_ex.c ****     }
ARM GAS  C:\Users\Student\AppData\Local\Temp\ccapU3Tb.s 			page 52


1087:Drivers/STM32F7xx_HAL_Driver/Src/stm32f7xx_hal_rtc_ex.c ****     while(__HAL_RTC_WAKEUPTIMER_GET_FLAG(hrtc, RTC_FLAG_WUTWF) == SET);
 1783              		.loc 1 1087 0
 1784 0054 EB68     		ldr	r3, [r5, #12]
 1785 0056 13F0040F 		tst	r3, #4
 1786 005a F6D1     		bne	.L143
 1787              	.L141:
1088:Drivers/STM32F7xx_HAL_Driver/Src/stm32f7xx_hal_rtc_ex.c ****   }
1089:Drivers/STM32F7xx_HAL_Driver/Src/stm32f7xx_hal_rtc_ex.c **** 
1090:Drivers/STM32F7xx_HAL_Driver/Src/stm32f7xx_hal_rtc_ex.c ****   __HAL_RTC_WAKEUPTIMER_DISABLE(hrtc);
 1788              		.loc 1 1090 0
 1789 005c AB68     		ldr	r3, [r5, #8]
 1790 005e 23F48063 		bic	r3, r3, #1024
 1791 0062 AB60     		str	r3, [r5, #8]
1091:Drivers/STM32F7xx_HAL_Driver/Src/stm32f7xx_hal_rtc_ex.c **** 
1092:Drivers/STM32F7xx_HAL_Driver/Src/stm32f7xx_hal_rtc_ex.c ****   /* Wait till RTC WUTWF flag is set and if Time out is reached exit */
1093:Drivers/STM32F7xx_HAL_Driver/Src/stm32f7xx_hal_rtc_ex.c ****   count = RTC_TIMEOUT_VALUE  * (SystemCoreClock / 32U / 1000U);
 1792              		.loc 1 1093 0
 1793 0064 2A4B     		ldr	r3, .L153
 1794 0066 1B68     		ldr	r3, [r3]
 1795 0068 2A4C     		ldr	r4, .L153+4
 1796 006a A4FB0343 		umull	r4, r3, r4, r3
 1797 006e DB0A     		lsrs	r3, r3, #11
 1798 0070 4FF47A74 		mov	r4, #1000
 1799 0074 04FB03F3 		mul	r3, r4, r3
 1800 0078 0193     		str	r3, [sp, #4]
 1801              	.L145:
1094:Drivers/STM32F7xx_HAL_Driver/Src/stm32f7xx_hal_rtc_ex.c ****   do
1095:Drivers/STM32F7xx_HAL_Driver/Src/stm32f7xx_hal_rtc_ex.c ****   {
1096:Drivers/STM32F7xx_HAL_Driver/Src/stm32f7xx_hal_rtc_ex.c ****     if(count-- == 0U)
 1802              		.loc 1 1096 0
 1803 007a 019B     		ldr	r3, [sp, #4]
 1804 007c 5C1E     		subs	r4, r3, #1
 1805 007e 0194     		str	r4, [sp, #4]
 1806 0080 002B     		cmp	r3, #0
 1807 0082 38D0     		beq	.L152
1097:Drivers/STM32F7xx_HAL_Driver/Src/stm32f7xx_hal_rtc_ex.c ****     {
1098:Drivers/STM32F7xx_HAL_Driver/Src/stm32f7xx_hal_rtc_ex.c ****       /* Enable the write protection for RTC registers */
1099:Drivers/STM32F7xx_HAL_Driver/Src/stm32f7xx_hal_rtc_ex.c ****       __HAL_RTC_WRITEPROTECTION_ENABLE(hrtc);
1100:Drivers/STM32F7xx_HAL_Driver/Src/stm32f7xx_hal_rtc_ex.c **** 
1101:Drivers/STM32F7xx_HAL_Driver/Src/stm32f7xx_hal_rtc_ex.c ****       hrtc->State = HAL_RTC_STATE_TIMEOUT;
1102:Drivers/STM32F7xx_HAL_Driver/Src/stm32f7xx_hal_rtc_ex.c **** 
1103:Drivers/STM32F7xx_HAL_Driver/Src/stm32f7xx_hal_rtc_ex.c ****       /* Process Unlocked */
1104:Drivers/STM32F7xx_HAL_Driver/Src/stm32f7xx_hal_rtc_ex.c ****       __HAL_UNLOCK(hrtc);
1105:Drivers/STM32F7xx_HAL_Driver/Src/stm32f7xx_hal_rtc_ex.c **** 
1106:Drivers/STM32F7xx_HAL_Driver/Src/stm32f7xx_hal_rtc_ex.c ****       return HAL_TIMEOUT;
1107:Drivers/STM32F7xx_HAL_Driver/Src/stm32f7xx_hal_rtc_ex.c ****     }
1108:Drivers/STM32F7xx_HAL_Driver/Src/stm32f7xx_hal_rtc_ex.c ****   }
1109:Drivers/STM32F7xx_HAL_Driver/Src/stm32f7xx_hal_rtc_ex.c ****   while(__HAL_RTC_WAKEUPTIMER_GET_FLAG(hrtc, RTC_FLAG_WUTWF) == RESET);
 1808              		.loc 1 1109 0
 1809 0084 0368     		ldr	r3, [r0]
 1810 0086 DC68     		ldr	r4, [r3, #12]
 1811 0088 14F0040F 		tst	r4, #4
 1812 008c F5D0     		beq	.L145
1110:Drivers/STM32F7xx_HAL_Driver/Src/stm32f7xx_hal_rtc_ex.c ****         
1111:Drivers/STM32F7xx_HAL_Driver/Src/stm32f7xx_hal_rtc_ex.c ****   /* Configure the Wake-up Timer counter */
1112:Drivers/STM32F7xx_HAL_Driver/Src/stm32f7xx_hal_rtc_ex.c ****   hrtc->Instance->WUTR = (uint32_t)WakeUpCounter;
 1813              		.loc 1 1112 0
ARM GAS  C:\Users\Student\AppData\Local\Temp\ccapU3Tb.s 			page 53


 1814 008e 5961     		str	r1, [r3, #20]
1113:Drivers/STM32F7xx_HAL_Driver/Src/stm32f7xx_hal_rtc_ex.c **** 
1114:Drivers/STM32F7xx_HAL_Driver/Src/stm32f7xx_hal_rtc_ex.c ****   /* Clear the Wakeup Timer clock source bits in CR register */
1115:Drivers/STM32F7xx_HAL_Driver/Src/stm32f7xx_hal_rtc_ex.c ****   hrtc->Instance->CR &= (uint32_t)~RTC_CR_WUCKSEL;
 1815              		.loc 1 1115 0
 1816 0090 0168     		ldr	r1, [r0]
 1817              	.LVL117:
 1818 0092 8B68     		ldr	r3, [r1, #8]
 1819              	.LVL118:
 1820 0094 23F00703 		bic	r3, r3, #7
 1821 0098 8B60     		str	r3, [r1, #8]
1116:Drivers/STM32F7xx_HAL_Driver/Src/stm32f7xx_hal_rtc_ex.c **** 
1117:Drivers/STM32F7xx_HAL_Driver/Src/stm32f7xx_hal_rtc_ex.c ****   /* Configure the clock source */
1118:Drivers/STM32F7xx_HAL_Driver/Src/stm32f7xx_hal_rtc_ex.c ****   hrtc->Instance->CR |= (uint32_t)WakeUpClock;
 1822              		.loc 1 1118 0
 1823 009a 0168     		ldr	r1, [r0]
 1824 009c 8B68     		ldr	r3, [r1, #8]
 1825 009e 1A43     		orrs	r2, r2, r3
 1826              	.LVL119:
 1827 00a0 8A60     		str	r2, [r1, #8]
1119:Drivers/STM32F7xx_HAL_Driver/Src/stm32f7xx_hal_rtc_ex.c ****   
1120:Drivers/STM32F7xx_HAL_Driver/Src/stm32f7xx_hal_rtc_ex.c ****   /* RTC WakeUpTimer Interrupt Configuration: EXTI configuration */
1121:Drivers/STM32F7xx_HAL_Driver/Src/stm32f7xx_hal_rtc_ex.c ****   __HAL_RTC_WAKEUPTIMER_EXTI_ENABLE_IT();
 1828              		.loc 1 1121 0
 1829 00a2 1D4B     		ldr	r3, .L153+8
 1830 00a4 1A68     		ldr	r2, [r3]
 1831 00a6 42F48002 		orr	r2, r2, #4194304
 1832 00aa 1A60     		str	r2, [r3]
1122:Drivers/STM32F7xx_HAL_Driver/Src/stm32f7xx_hal_rtc_ex.c ****   
1123:Drivers/STM32F7xx_HAL_Driver/Src/stm32f7xx_hal_rtc_ex.c ****   EXTI->RTSR |= RTC_EXTI_LINE_WAKEUPTIMER_EVENT;
 1833              		.loc 1 1123 0
 1834 00ac 9A68     		ldr	r2, [r3, #8]
 1835 00ae 42F48002 		orr	r2, r2, #4194304
 1836 00b2 9A60     		str	r2, [r3, #8]
1124:Drivers/STM32F7xx_HAL_Driver/Src/stm32f7xx_hal_rtc_ex.c ****   
1125:Drivers/STM32F7xx_HAL_Driver/Src/stm32f7xx_hal_rtc_ex.c ****   /* Clear RTC Wake Up timer Flag */
1126:Drivers/STM32F7xx_HAL_Driver/Src/stm32f7xx_hal_rtc_ex.c ****   __HAL_RTC_WAKEUPTIMER_CLEAR_FLAG(hrtc, RTC_FLAG_WUTF);
 1837              		.loc 1 1126 0
 1838 00b4 0268     		ldr	r2, [r0]
 1839 00b6 D368     		ldr	r3, [r2, #12]
 1840 00b8 DBB2     		uxtb	r3, r3
 1841 00ba 63F49063 		orn	r3, r3, #1152
 1842 00be D360     		str	r3, [r2, #12]
1127:Drivers/STM32F7xx_HAL_Driver/Src/stm32f7xx_hal_rtc_ex.c ****   
1128:Drivers/STM32F7xx_HAL_Driver/Src/stm32f7xx_hal_rtc_ex.c ****   /* Configure the Interrupt in the RTC_CR register */
1129:Drivers/STM32F7xx_HAL_Driver/Src/stm32f7xx_hal_rtc_ex.c ****   __HAL_RTC_WAKEUPTIMER_ENABLE_IT(hrtc,RTC_IT_WUT);
 1843              		.loc 1 1129 0
 1844 00c0 0268     		ldr	r2, [r0]
 1845 00c2 9368     		ldr	r3, [r2, #8]
 1846 00c4 43F48043 		orr	r3, r3, #16384
 1847 00c8 9360     		str	r3, [r2, #8]
1130:Drivers/STM32F7xx_HAL_Driver/Src/stm32f7xx_hal_rtc_ex.c ****   
1131:Drivers/STM32F7xx_HAL_Driver/Src/stm32f7xx_hal_rtc_ex.c ****   /* Enable the Wakeup Timer */
1132:Drivers/STM32F7xx_HAL_Driver/Src/stm32f7xx_hal_rtc_ex.c ****   __HAL_RTC_WAKEUPTIMER_ENABLE(hrtc);
 1848              		.loc 1 1132 0
 1849 00ca 0268     		ldr	r2, [r0]
 1850 00cc 9368     		ldr	r3, [r2, #8]
ARM GAS  C:\Users\Student\AppData\Local\Temp\ccapU3Tb.s 			page 54


 1851 00ce 43F48063 		orr	r3, r3, #1024
 1852 00d2 9360     		str	r3, [r2, #8]
1133:Drivers/STM32F7xx_HAL_Driver/Src/stm32f7xx_hal_rtc_ex.c ****     
1134:Drivers/STM32F7xx_HAL_Driver/Src/stm32f7xx_hal_rtc_ex.c ****   /* Enable the write protection for RTC registers */
1135:Drivers/STM32F7xx_HAL_Driver/Src/stm32f7xx_hal_rtc_ex.c ****   __HAL_RTC_WRITEPROTECTION_ENABLE(hrtc); 
 1853              		.loc 1 1135 0
 1854 00d4 0368     		ldr	r3, [r0]
 1855 00d6 FF22     		movs	r2, #255
 1856 00d8 5A62     		str	r2, [r3, #36]
1136:Drivers/STM32F7xx_HAL_Driver/Src/stm32f7xx_hal_rtc_ex.c ****   
1137:Drivers/STM32F7xx_HAL_Driver/Src/stm32f7xx_hal_rtc_ex.c ****   hrtc->State = HAL_RTC_STATE_READY;   
 1857              		.loc 1 1137 0
 1858 00da 0123     		movs	r3, #1
 1859 00dc 4377     		strb	r3, [r0, #29]
1138:Drivers/STM32F7xx_HAL_Driver/Src/stm32f7xx_hal_rtc_ex.c ****   
1139:Drivers/STM32F7xx_HAL_Driver/Src/stm32f7xx_hal_rtc_ex.c ****   /* Process Unlocked */ 
1140:Drivers/STM32F7xx_HAL_Driver/Src/stm32f7xx_hal_rtc_ex.c ****   __HAL_UNLOCK(hrtc);
 1860              		.loc 1 1140 0
 1861 00de 0023     		movs	r3, #0
 1862 00e0 0377     		strb	r3, [r0, #28]
1141:Drivers/STM32F7xx_HAL_Driver/Src/stm32f7xx_hal_rtc_ex.c ****  
1142:Drivers/STM32F7xx_HAL_Driver/Src/stm32f7xx_hal_rtc_ex.c ****   return HAL_OK;
 1863              		.loc 1 1142 0
 1864 00e2 1846     		mov	r0, r3
 1865              	.LVL120:
 1866 00e4 0FE0     		b	.L140
 1867              	.LVL121:
 1868              	.L151:
1077:Drivers/STM32F7xx_HAL_Driver/Src/stm32f7xx_hal_rtc_ex.c **** 
 1869              		.loc 1 1077 0
 1870 00e6 FF23     		movs	r3, #255
 1871 00e8 6B62     		str	r3, [r5, #36]
1079:Drivers/STM32F7xx_HAL_Driver/Src/stm32f7xx_hal_rtc_ex.c **** 
 1872              		.loc 1 1079 0
 1873 00ea 0323     		movs	r3, #3
 1874 00ec 4377     		strb	r3, [r0, #29]
1082:Drivers/STM32F7xx_HAL_Driver/Src/stm32f7xx_hal_rtc_ex.c **** 
 1875              		.loc 1 1082 0
 1876 00ee 0022     		movs	r2, #0
 1877              	.LVL122:
 1878 00f0 0277     		strb	r2, [r0, #28]
1084:Drivers/STM32F7xx_HAL_Driver/Src/stm32f7xx_hal_rtc_ex.c ****       }
 1879              		.loc 1 1084 0
 1880 00f2 1846     		mov	r0, r3
 1881              	.LVL123:
 1882 00f4 07E0     		b	.L140
 1883              	.LVL124:
 1884              	.L152:
1099:Drivers/STM32F7xx_HAL_Driver/Src/stm32f7xx_hal_rtc_ex.c **** 
 1885              		.loc 1 1099 0
 1886 00f6 0368     		ldr	r3, [r0]
 1887 00f8 FF22     		movs	r2, #255
 1888              	.LVL125:
 1889 00fa 5A62     		str	r2, [r3, #36]
1101:Drivers/STM32F7xx_HAL_Driver/Src/stm32f7xx_hal_rtc_ex.c **** 
 1890              		.loc 1 1101 0
 1891 00fc 0323     		movs	r3, #3
ARM GAS  C:\Users\Student\AppData\Local\Temp\ccapU3Tb.s 			page 55


 1892 00fe 4377     		strb	r3, [r0, #29]
1104:Drivers/STM32F7xx_HAL_Driver/Src/stm32f7xx_hal_rtc_ex.c **** 
 1893              		.loc 1 1104 0
 1894 0100 0022     		movs	r2, #0
 1895 0102 0277     		strb	r2, [r0, #28]
1106:Drivers/STM32F7xx_HAL_Driver/Src/stm32f7xx_hal_rtc_ex.c ****     }
 1896              		.loc 1 1106 0
 1897 0104 1846     		mov	r0, r3
 1898              	.LVL126:
 1899              	.L140:
1143:Drivers/STM32F7xx_HAL_Driver/Src/stm32f7xx_hal_rtc_ex.c **** }
 1900              		.loc 1 1143 0
 1901 0106 02B0     		add	sp, sp, #8
 1902              	.LCFI25:
 1903              		.cfi_def_cfa_offset 8
 1904              		@ sp needed
 1905 0108 30BC     		pop	{r4, r5}
 1906              	.LCFI26:
 1907              		.cfi_restore 5
 1908              		.cfi_restore 4
 1909              		.cfi_def_cfa_offset 0
 1910 010a 7047     		bx	lr
 1911              	.LVL127:
 1912              	.L146:
1058:Drivers/STM32F7xx_HAL_Driver/Src/stm32f7xx_hal_rtc_ex.c ****   
 1913              		.loc 1 1058 0
 1914 010c 0220     		movs	r0, #2
 1915              	.LVL128:
 1916 010e 7047     		bx	lr
 1917              	.L154:
 1918              		.align	2
 1919              	.L153:
 1920 0110 00000000 		.word	SystemCoreClock
 1921 0114 D34D6210 		.word	274877907
 1922 0118 003C0140 		.word	1073822720
 1923              		.cfi_endproc
 1924              	.LFE155:
 1926              		.section	.text.HAL_RTCEx_DeactivateWakeUpTimer,"ax",%progbits
 1927              		.align	1
 1928              		.global	HAL_RTCEx_DeactivateWakeUpTimer
 1929              		.syntax unified
 1930              		.thumb
 1931              		.thumb_func
 1932              		.fpu fpv5-sp-d16
 1934              	HAL_RTCEx_DeactivateWakeUpTimer:
 1935              	.LFB156:
1144:Drivers/STM32F7xx_HAL_Driver/Src/stm32f7xx_hal_rtc_ex.c **** 
1145:Drivers/STM32F7xx_HAL_Driver/Src/stm32f7xx_hal_rtc_ex.c **** /**
1146:Drivers/STM32F7xx_HAL_Driver/Src/stm32f7xx_hal_rtc_ex.c ****   * @brief  Deactivates wake up timer counter.
1147:Drivers/STM32F7xx_HAL_Driver/Src/stm32f7xx_hal_rtc_ex.c ****   * @param  hrtc pointer to a RTC_HandleTypeDef structure that contains
1148:Drivers/STM32F7xx_HAL_Driver/Src/stm32f7xx_hal_rtc_ex.c ****   *                the configuration information for RTC. 
1149:Drivers/STM32F7xx_HAL_Driver/Src/stm32f7xx_hal_rtc_ex.c ****   * @retval HAL status
1150:Drivers/STM32F7xx_HAL_Driver/Src/stm32f7xx_hal_rtc_ex.c ****   */
1151:Drivers/STM32F7xx_HAL_Driver/Src/stm32f7xx_hal_rtc_ex.c **** uint32_t HAL_RTCEx_DeactivateWakeUpTimer(RTC_HandleTypeDef *hrtc)
1152:Drivers/STM32F7xx_HAL_Driver/Src/stm32f7xx_hal_rtc_ex.c **** {
 1936              		.loc 1 1152 0
 1937              		.cfi_startproc
ARM GAS  C:\Users\Student\AppData\Local\Temp\ccapU3Tb.s 			page 56


 1938              		@ args = 0, pretend = 0, frame = 0
 1939              		@ frame_needed = 0, uses_anonymous_args = 0
 1940              	.LVL129:
 1941 0000 38B5     		push	{r3, r4, r5, lr}
 1942              	.LCFI27:
 1943              		.cfi_def_cfa_offset 16
 1944              		.cfi_offset 3, -16
 1945              		.cfi_offset 4, -12
 1946              		.cfi_offset 5, -8
 1947              		.cfi_offset 14, -4
 1948              	.LVL130:
1153:Drivers/STM32F7xx_HAL_Driver/Src/stm32f7xx_hal_rtc_ex.c ****   uint32_t tickstart = 0U;
1154:Drivers/STM32F7xx_HAL_Driver/Src/stm32f7xx_hal_rtc_ex.c ****   
1155:Drivers/STM32F7xx_HAL_Driver/Src/stm32f7xx_hal_rtc_ex.c ****   /* Process Locked */ 
1156:Drivers/STM32F7xx_HAL_Driver/Src/stm32f7xx_hal_rtc_ex.c ****   __HAL_LOCK(hrtc);
 1949              		.loc 1 1156 0
 1950 0002 037F     		ldrb	r3, [r0, #28]	@ zero_extendqisi2
 1951 0004 012B     		cmp	r3, #1
 1952 0006 01D1     		bne	.L161
 1953 0008 0220     		movs	r0, #2
 1954              	.LVL131:
1157:Drivers/STM32F7xx_HAL_Driver/Src/stm32f7xx_hal_rtc_ex.c ****   
1158:Drivers/STM32F7xx_HAL_Driver/Src/stm32f7xx_hal_rtc_ex.c ****   hrtc->State = HAL_RTC_STATE_BUSY;
1159:Drivers/STM32F7xx_HAL_Driver/Src/stm32f7xx_hal_rtc_ex.c ****   
1160:Drivers/STM32F7xx_HAL_Driver/Src/stm32f7xx_hal_rtc_ex.c ****   /* Disable the write protection for RTC registers */
1161:Drivers/STM32F7xx_HAL_Driver/Src/stm32f7xx_hal_rtc_ex.c ****   __HAL_RTC_WRITEPROTECTION_DISABLE(hrtc);
1162:Drivers/STM32F7xx_HAL_Driver/Src/stm32f7xx_hal_rtc_ex.c ****   
1163:Drivers/STM32F7xx_HAL_Driver/Src/stm32f7xx_hal_rtc_ex.c ****   /* Disable the Wakeup Timer */
1164:Drivers/STM32F7xx_HAL_Driver/Src/stm32f7xx_hal_rtc_ex.c ****   __HAL_RTC_WAKEUPTIMER_DISABLE(hrtc);
1165:Drivers/STM32F7xx_HAL_Driver/Src/stm32f7xx_hal_rtc_ex.c ****   
1166:Drivers/STM32F7xx_HAL_Driver/Src/stm32f7xx_hal_rtc_ex.c ****   /* In case of interrupt mode is used, the interrupt source must disabled */ 
1167:Drivers/STM32F7xx_HAL_Driver/Src/stm32f7xx_hal_rtc_ex.c ****   __HAL_RTC_WAKEUPTIMER_DISABLE_IT(hrtc,RTC_IT_WUT);
1168:Drivers/STM32F7xx_HAL_Driver/Src/stm32f7xx_hal_rtc_ex.c **** 
1169:Drivers/STM32F7xx_HAL_Driver/Src/stm32f7xx_hal_rtc_ex.c ****   /* Get tick */
1170:Drivers/STM32F7xx_HAL_Driver/Src/stm32f7xx_hal_rtc_ex.c ****   tickstart = HAL_GetTick();
1171:Drivers/STM32F7xx_HAL_Driver/Src/stm32f7xx_hal_rtc_ex.c **** 
1172:Drivers/STM32F7xx_HAL_Driver/Src/stm32f7xx_hal_rtc_ex.c ****   /* Wait till RTC WUTWF flag is set and if Time out is reached exit */
1173:Drivers/STM32F7xx_HAL_Driver/Src/stm32f7xx_hal_rtc_ex.c ****   while(__HAL_RTC_WAKEUPTIMER_GET_FLAG(hrtc, RTC_FLAG_WUTWF) == RESET)
1174:Drivers/STM32F7xx_HAL_Driver/Src/stm32f7xx_hal_rtc_ex.c ****   {
1175:Drivers/STM32F7xx_HAL_Driver/Src/stm32f7xx_hal_rtc_ex.c ****     if((HAL_GetTick() - tickstart ) > RTC_TIMEOUT_VALUE)
1176:Drivers/STM32F7xx_HAL_Driver/Src/stm32f7xx_hal_rtc_ex.c ****     {
1177:Drivers/STM32F7xx_HAL_Driver/Src/stm32f7xx_hal_rtc_ex.c ****       /* Enable the write protection for RTC registers */
1178:Drivers/STM32F7xx_HAL_Driver/Src/stm32f7xx_hal_rtc_ex.c ****       __HAL_RTC_WRITEPROTECTION_ENABLE(hrtc);
1179:Drivers/STM32F7xx_HAL_Driver/Src/stm32f7xx_hal_rtc_ex.c ****       
1180:Drivers/STM32F7xx_HAL_Driver/Src/stm32f7xx_hal_rtc_ex.c ****       hrtc->State = HAL_RTC_STATE_TIMEOUT; 
1181:Drivers/STM32F7xx_HAL_Driver/Src/stm32f7xx_hal_rtc_ex.c ****       
1182:Drivers/STM32F7xx_HAL_Driver/Src/stm32f7xx_hal_rtc_ex.c ****       /* Process Unlocked */ 
1183:Drivers/STM32F7xx_HAL_Driver/Src/stm32f7xx_hal_rtc_ex.c ****       __HAL_UNLOCK(hrtc);
1184:Drivers/STM32F7xx_HAL_Driver/Src/stm32f7xx_hal_rtc_ex.c ****       
1185:Drivers/STM32F7xx_HAL_Driver/Src/stm32f7xx_hal_rtc_ex.c ****       return HAL_TIMEOUT;
1186:Drivers/STM32F7xx_HAL_Driver/Src/stm32f7xx_hal_rtc_ex.c ****     }   
1187:Drivers/STM32F7xx_HAL_Driver/Src/stm32f7xx_hal_rtc_ex.c ****   }
1188:Drivers/STM32F7xx_HAL_Driver/Src/stm32f7xx_hal_rtc_ex.c ****   
1189:Drivers/STM32F7xx_HAL_Driver/Src/stm32f7xx_hal_rtc_ex.c ****   /* Enable the write protection for RTC registers */
1190:Drivers/STM32F7xx_HAL_Driver/Src/stm32f7xx_hal_rtc_ex.c ****   __HAL_RTC_WRITEPROTECTION_ENABLE(hrtc);
1191:Drivers/STM32F7xx_HAL_Driver/Src/stm32f7xx_hal_rtc_ex.c ****   
1192:Drivers/STM32F7xx_HAL_Driver/Src/stm32f7xx_hal_rtc_ex.c ****   hrtc->State = HAL_RTC_STATE_READY;   
ARM GAS  C:\Users\Student\AppData\Local\Temp\ccapU3Tb.s 			page 57


1193:Drivers/STM32F7xx_HAL_Driver/Src/stm32f7xx_hal_rtc_ex.c ****   
1194:Drivers/STM32F7xx_HAL_Driver/Src/stm32f7xx_hal_rtc_ex.c ****   /* Process Unlocked */ 
1195:Drivers/STM32F7xx_HAL_Driver/Src/stm32f7xx_hal_rtc_ex.c ****   __HAL_UNLOCK(hrtc);
1196:Drivers/STM32F7xx_HAL_Driver/Src/stm32f7xx_hal_rtc_ex.c ****   
1197:Drivers/STM32F7xx_HAL_Driver/Src/stm32f7xx_hal_rtc_ex.c ****   return HAL_OK;
1198:Drivers/STM32F7xx_HAL_Driver/Src/stm32f7xx_hal_rtc_ex.c **** }
 1955              		.loc 1 1198 0
 1956 000a 38BD     		pop	{r3, r4, r5, pc}
 1957              	.LVL132:
 1958              	.L161:
 1959 000c 0446     		mov	r4, r0
1156:Drivers/STM32F7xx_HAL_Driver/Src/stm32f7xx_hal_rtc_ex.c ****   
 1960              		.loc 1 1156 0 discriminator 2
 1961 000e 0123     		movs	r3, #1
 1962 0010 0377     		strb	r3, [r0, #28]
1158:Drivers/STM32F7xx_HAL_Driver/Src/stm32f7xx_hal_rtc_ex.c ****   
 1963              		.loc 1 1158 0 discriminator 2
 1964 0012 0223     		movs	r3, #2
 1965 0014 4377     		strb	r3, [r0, #29]
1161:Drivers/STM32F7xx_HAL_Driver/Src/stm32f7xx_hal_rtc_ex.c ****   
 1966              		.loc 1 1161 0 discriminator 2
 1967 0016 0368     		ldr	r3, [r0]
 1968 0018 CA22     		movs	r2, #202
 1969 001a 5A62     		str	r2, [r3, #36]
 1970 001c 0368     		ldr	r3, [r0]
 1971 001e 5322     		movs	r2, #83
 1972 0020 5A62     		str	r2, [r3, #36]
1164:Drivers/STM32F7xx_HAL_Driver/Src/stm32f7xx_hal_rtc_ex.c ****   
 1973              		.loc 1 1164 0 discriminator 2
 1974 0022 0268     		ldr	r2, [r0]
 1975 0024 9368     		ldr	r3, [r2, #8]
 1976 0026 23F48063 		bic	r3, r3, #1024
 1977 002a 9360     		str	r3, [r2, #8]
1167:Drivers/STM32F7xx_HAL_Driver/Src/stm32f7xx_hal_rtc_ex.c **** 
 1978              		.loc 1 1167 0 discriminator 2
 1979 002c 0268     		ldr	r2, [r0]
 1980 002e 9368     		ldr	r3, [r2, #8]
 1981 0030 23F48043 		bic	r3, r3, #16384
 1982 0034 9360     		str	r3, [r2, #8]
1170:Drivers/STM32F7xx_HAL_Driver/Src/stm32f7xx_hal_rtc_ex.c **** 
 1983              		.loc 1 1170 0 discriminator 2
 1984 0036 FFF7FEFF 		bl	HAL_GetTick
 1985              	.LVL133:
 1986 003a 0546     		mov	r5, r0
 1987              	.LVL134:
 1988              	.L157:
1173:Drivers/STM32F7xx_HAL_Driver/Src/stm32f7xx_hal_rtc_ex.c ****   {
 1989              		.loc 1 1173 0
 1990 003c 2368     		ldr	r3, [r4]
 1991 003e DA68     		ldr	r2, [r3, #12]
 1992 0040 12F0040F 		tst	r2, #4
 1993 0044 0DD1     		bne	.L162
1175:Drivers/STM32F7xx_HAL_Driver/Src/stm32f7xx_hal_rtc_ex.c ****     {
 1994              		.loc 1 1175 0
 1995 0046 FFF7FEFF 		bl	HAL_GetTick
 1996              	.LVL135:
 1997 004a 401B     		subs	r0, r0, r5
ARM GAS  C:\Users\Student\AppData\Local\Temp\ccapU3Tb.s 			page 58


 1998 004c B0F57A7F 		cmp	r0, #1000
 1999 0050 F4D9     		bls	.L157
1178:Drivers/STM32F7xx_HAL_Driver/Src/stm32f7xx_hal_rtc_ex.c ****       
 2000              		.loc 1 1178 0
 2001 0052 2368     		ldr	r3, [r4]
 2002 0054 FF22     		movs	r2, #255
 2003 0056 5A62     		str	r2, [r3, #36]
1180:Drivers/STM32F7xx_HAL_Driver/Src/stm32f7xx_hal_rtc_ex.c ****       
 2004              		.loc 1 1180 0
 2005 0058 0320     		movs	r0, #3
 2006 005a 6077     		strb	r0, [r4, #29]
1183:Drivers/STM32F7xx_HAL_Driver/Src/stm32f7xx_hal_rtc_ex.c ****       
 2007              		.loc 1 1183 0
 2008 005c 0023     		movs	r3, #0
 2009 005e 2377     		strb	r3, [r4, #28]
1185:Drivers/STM32F7xx_HAL_Driver/Src/stm32f7xx_hal_rtc_ex.c ****     }   
 2010              		.loc 1 1185 0
 2011 0060 38BD     		pop	{r3, r4, r5, pc}
 2012              	.LVL136:
 2013              	.L162:
1190:Drivers/STM32F7xx_HAL_Driver/Src/stm32f7xx_hal_rtc_ex.c ****   
 2014              		.loc 1 1190 0
 2015 0062 FF22     		movs	r2, #255
 2016 0064 5A62     		str	r2, [r3, #36]
1192:Drivers/STM32F7xx_HAL_Driver/Src/stm32f7xx_hal_rtc_ex.c ****   
 2017              		.loc 1 1192 0
 2018 0066 0123     		movs	r3, #1
 2019 0068 6377     		strb	r3, [r4, #29]
1195:Drivers/STM32F7xx_HAL_Driver/Src/stm32f7xx_hal_rtc_ex.c ****   
 2020              		.loc 1 1195 0
 2021 006a 0020     		movs	r0, #0
 2022 006c 2077     		strb	r0, [r4, #28]
1197:Drivers/STM32F7xx_HAL_Driver/Src/stm32f7xx_hal_rtc_ex.c **** }
 2023              		.loc 1 1197 0
 2024 006e 38BD     		pop	{r3, r4, r5, pc}
 2025              		.cfi_endproc
 2026              	.LFE156:
 2028              		.section	.text.HAL_RTCEx_GetWakeUpTimer,"ax",%progbits
 2029              		.align	1
 2030              		.global	HAL_RTCEx_GetWakeUpTimer
 2031              		.syntax unified
 2032              		.thumb
 2033              		.thumb_func
 2034              		.fpu fpv5-sp-d16
 2036              	HAL_RTCEx_GetWakeUpTimer:
 2037              	.LFB157:
1199:Drivers/STM32F7xx_HAL_Driver/Src/stm32f7xx_hal_rtc_ex.c **** 
1200:Drivers/STM32F7xx_HAL_Driver/Src/stm32f7xx_hal_rtc_ex.c **** /**
1201:Drivers/STM32F7xx_HAL_Driver/Src/stm32f7xx_hal_rtc_ex.c ****   * @brief  Gets wake up timer counter.
1202:Drivers/STM32F7xx_HAL_Driver/Src/stm32f7xx_hal_rtc_ex.c ****   * @param  hrtc pointer to a RTC_HandleTypeDef structure that contains
1203:Drivers/STM32F7xx_HAL_Driver/Src/stm32f7xx_hal_rtc_ex.c ****   *                the configuration information for RTC. 
1204:Drivers/STM32F7xx_HAL_Driver/Src/stm32f7xx_hal_rtc_ex.c ****   * @retval Counter value
1205:Drivers/STM32F7xx_HAL_Driver/Src/stm32f7xx_hal_rtc_ex.c ****   */
1206:Drivers/STM32F7xx_HAL_Driver/Src/stm32f7xx_hal_rtc_ex.c **** uint32_t HAL_RTCEx_GetWakeUpTimer(RTC_HandleTypeDef *hrtc)
1207:Drivers/STM32F7xx_HAL_Driver/Src/stm32f7xx_hal_rtc_ex.c **** {
 2038              		.loc 1 1207 0
 2039              		.cfi_startproc
ARM GAS  C:\Users\Student\AppData\Local\Temp\ccapU3Tb.s 			page 59


 2040              		@ args = 0, pretend = 0, frame = 0
 2041              		@ frame_needed = 0, uses_anonymous_args = 0
 2042              		@ link register save eliminated.
 2043              	.LVL137:
1208:Drivers/STM32F7xx_HAL_Driver/Src/stm32f7xx_hal_rtc_ex.c ****   /* Get the counter value */
1209:Drivers/STM32F7xx_HAL_Driver/Src/stm32f7xx_hal_rtc_ex.c ****   return ((uint32_t)(hrtc->Instance->WUTR & RTC_WUTR_WUT)); 
 2044              		.loc 1 1209 0
 2045 0000 0368     		ldr	r3, [r0]
 2046 0002 5869     		ldr	r0, [r3, #20]
 2047              	.LVL138:
1210:Drivers/STM32F7xx_HAL_Driver/Src/stm32f7xx_hal_rtc_ex.c **** }
 2048              		.loc 1 1210 0
 2049 0004 80B2     		uxth	r0, r0
 2050 0006 7047     		bx	lr
 2051              		.cfi_endproc
 2052              	.LFE157:
 2054              		.section	.text.HAL_RTCEx_WakeUpTimerEventCallback,"ax",%progbits
 2055              		.align	1
 2056              		.weak	HAL_RTCEx_WakeUpTimerEventCallback
 2057              		.syntax unified
 2058              		.thumb
 2059              		.thumb_func
 2060              		.fpu fpv5-sp-d16
 2062              	HAL_RTCEx_WakeUpTimerEventCallback:
 2063              	.LFB159:
1211:Drivers/STM32F7xx_HAL_Driver/Src/stm32f7xx_hal_rtc_ex.c **** 
1212:Drivers/STM32F7xx_HAL_Driver/Src/stm32f7xx_hal_rtc_ex.c **** /**
1213:Drivers/STM32F7xx_HAL_Driver/Src/stm32f7xx_hal_rtc_ex.c ****   * @brief  This function handles Wake Up Timer interrupt request.
1214:Drivers/STM32F7xx_HAL_Driver/Src/stm32f7xx_hal_rtc_ex.c ****   * @param  hrtc pointer to a RTC_HandleTypeDef structure that contains
1215:Drivers/STM32F7xx_HAL_Driver/Src/stm32f7xx_hal_rtc_ex.c ****   *                the configuration information for RTC.
1216:Drivers/STM32F7xx_HAL_Driver/Src/stm32f7xx_hal_rtc_ex.c ****   * @retval None
1217:Drivers/STM32F7xx_HAL_Driver/Src/stm32f7xx_hal_rtc_ex.c ****   */
1218:Drivers/STM32F7xx_HAL_Driver/Src/stm32f7xx_hal_rtc_ex.c **** void HAL_RTCEx_WakeUpTimerIRQHandler(RTC_HandleTypeDef *hrtc)
1219:Drivers/STM32F7xx_HAL_Driver/Src/stm32f7xx_hal_rtc_ex.c **** {  
1220:Drivers/STM32F7xx_HAL_Driver/Src/stm32f7xx_hal_rtc_ex.c ****   if(__HAL_RTC_WAKEUPTIMER_GET_IT(hrtc, RTC_IT_WUT))
1221:Drivers/STM32F7xx_HAL_Driver/Src/stm32f7xx_hal_rtc_ex.c ****   {
1222:Drivers/STM32F7xx_HAL_Driver/Src/stm32f7xx_hal_rtc_ex.c ****     /* Get the status of the Interrupt */
1223:Drivers/STM32F7xx_HAL_Driver/Src/stm32f7xx_hal_rtc_ex.c ****     if((uint32_t)(hrtc->Instance->CR & RTC_IT_WUT) != (uint32_t)RESET)
1224:Drivers/STM32F7xx_HAL_Driver/Src/stm32f7xx_hal_rtc_ex.c ****     {
1225:Drivers/STM32F7xx_HAL_Driver/Src/stm32f7xx_hal_rtc_ex.c ****       /* WAKEUPTIMER callback */ 
1226:Drivers/STM32F7xx_HAL_Driver/Src/stm32f7xx_hal_rtc_ex.c ****       HAL_RTCEx_WakeUpTimerEventCallback(hrtc);
1227:Drivers/STM32F7xx_HAL_Driver/Src/stm32f7xx_hal_rtc_ex.c ****       
1228:Drivers/STM32F7xx_HAL_Driver/Src/stm32f7xx_hal_rtc_ex.c ****       /* Clear the WAKEUPTIMER interrupt pending bit */
1229:Drivers/STM32F7xx_HAL_Driver/Src/stm32f7xx_hal_rtc_ex.c ****       __HAL_RTC_WAKEUPTIMER_CLEAR_FLAG(hrtc, RTC_FLAG_WUTF);
1230:Drivers/STM32F7xx_HAL_Driver/Src/stm32f7xx_hal_rtc_ex.c ****     }
1231:Drivers/STM32F7xx_HAL_Driver/Src/stm32f7xx_hal_rtc_ex.c ****   }
1232:Drivers/STM32F7xx_HAL_Driver/Src/stm32f7xx_hal_rtc_ex.c ****   
1233:Drivers/STM32F7xx_HAL_Driver/Src/stm32f7xx_hal_rtc_ex.c ****   /* Clear the EXTI's line Flag for RTC WakeUpTimer */
1234:Drivers/STM32F7xx_HAL_Driver/Src/stm32f7xx_hal_rtc_ex.c ****   __HAL_RTC_WAKEUPTIMER_EXTI_CLEAR_FLAG();
1235:Drivers/STM32F7xx_HAL_Driver/Src/stm32f7xx_hal_rtc_ex.c ****   
1236:Drivers/STM32F7xx_HAL_Driver/Src/stm32f7xx_hal_rtc_ex.c ****   /* Change RTC state */
1237:Drivers/STM32F7xx_HAL_Driver/Src/stm32f7xx_hal_rtc_ex.c ****   hrtc->State = HAL_RTC_STATE_READY;
1238:Drivers/STM32F7xx_HAL_Driver/Src/stm32f7xx_hal_rtc_ex.c **** }
1239:Drivers/STM32F7xx_HAL_Driver/Src/stm32f7xx_hal_rtc_ex.c **** 
1240:Drivers/STM32F7xx_HAL_Driver/Src/stm32f7xx_hal_rtc_ex.c **** /**
1241:Drivers/STM32F7xx_HAL_Driver/Src/stm32f7xx_hal_rtc_ex.c ****   * @brief  Wake Up Timer callback.
1242:Drivers/STM32F7xx_HAL_Driver/Src/stm32f7xx_hal_rtc_ex.c ****   * @param  hrtc pointer to a RTC_HandleTypeDef structure that contains
ARM GAS  C:\Users\Student\AppData\Local\Temp\ccapU3Tb.s 			page 60


1243:Drivers/STM32F7xx_HAL_Driver/Src/stm32f7xx_hal_rtc_ex.c ****   *                the configuration information for RTC.
1244:Drivers/STM32F7xx_HAL_Driver/Src/stm32f7xx_hal_rtc_ex.c ****   * @retval None
1245:Drivers/STM32F7xx_HAL_Driver/Src/stm32f7xx_hal_rtc_ex.c ****   */
1246:Drivers/STM32F7xx_HAL_Driver/Src/stm32f7xx_hal_rtc_ex.c **** __weak void HAL_RTCEx_WakeUpTimerEventCallback(RTC_HandleTypeDef *hrtc)
1247:Drivers/STM32F7xx_HAL_Driver/Src/stm32f7xx_hal_rtc_ex.c **** {
 2064              		.loc 1 1247 0
 2065              		.cfi_startproc
 2066              		@ args = 0, pretend = 0, frame = 0
 2067              		@ frame_needed = 0, uses_anonymous_args = 0
 2068              		@ link register save eliminated.
 2069              	.LVL139:
 2070 0000 7047     		bx	lr
 2071              		.cfi_endproc
 2072              	.LFE159:
 2074              		.section	.text.HAL_RTCEx_WakeUpTimerIRQHandler,"ax",%progbits
 2075              		.align	1
 2076              		.global	HAL_RTCEx_WakeUpTimerIRQHandler
 2077              		.syntax unified
 2078              		.thumb
 2079              		.thumb_func
 2080              		.fpu fpv5-sp-d16
 2082              	HAL_RTCEx_WakeUpTimerIRQHandler:
 2083              	.LFB158:
1219:Drivers/STM32F7xx_HAL_Driver/Src/stm32f7xx_hal_rtc_ex.c ****   if(__HAL_RTC_WAKEUPTIMER_GET_IT(hrtc, RTC_IT_WUT))
 2084              		.loc 1 1219 0
 2085              		.cfi_startproc
 2086              		@ args = 0, pretend = 0, frame = 0
 2087              		@ frame_needed = 0, uses_anonymous_args = 0
 2088              	.LVL140:
1219:Drivers/STM32F7xx_HAL_Driver/Src/stm32f7xx_hal_rtc_ex.c ****   if(__HAL_RTC_WAKEUPTIMER_GET_IT(hrtc, RTC_IT_WUT))
 2089              		.loc 1 1219 0
 2090 0000 10B5     		push	{r4, lr}
 2091              	.LCFI28:
 2092              		.cfi_def_cfa_offset 8
 2093              		.cfi_offset 4, -8
 2094              		.cfi_offset 14, -4
 2095 0002 0446     		mov	r4, r0
1220:Drivers/STM32F7xx_HAL_Driver/Src/stm32f7xx_hal_rtc_ex.c ****   {
 2096              		.loc 1 1220 0
 2097 0004 0368     		ldr	r3, [r0]
 2098 0006 DA68     		ldr	r2, [r3, #12]
 2099 0008 12F4806F 		tst	r2, #1024
 2100 000c 03D0     		beq	.L166
1223:Drivers/STM32F7xx_HAL_Driver/Src/stm32f7xx_hal_rtc_ex.c ****     {
 2101              		.loc 1 1223 0
 2102 000e 9B68     		ldr	r3, [r3, #8]
 2103 0010 13F4804F 		tst	r3, #16384
 2104 0014 06D1     		bne	.L168
 2105              	.LVL141:
 2106              	.L166:
1234:Drivers/STM32F7xx_HAL_Driver/Src/stm32f7xx_hal_rtc_ex.c ****   
 2107              		.loc 1 1234 0
 2108 0016 4FF48002 		mov	r2, #4194304
 2109 001a 074B     		ldr	r3, .L169
 2110 001c 5A61     		str	r2, [r3, #20]
1237:Drivers/STM32F7xx_HAL_Driver/Src/stm32f7xx_hal_rtc_ex.c **** }
 2111              		.loc 1 1237 0
ARM GAS  C:\Users\Student\AppData\Local\Temp\ccapU3Tb.s 			page 61


 2112 001e 0123     		movs	r3, #1
 2113 0020 6377     		strb	r3, [r4, #29]
 2114 0022 10BD     		pop	{r4, pc}
 2115              	.LVL142:
 2116              	.L168:
1226:Drivers/STM32F7xx_HAL_Driver/Src/stm32f7xx_hal_rtc_ex.c ****       
 2117              		.loc 1 1226 0
 2118 0024 FFF7FEFF 		bl	HAL_RTCEx_WakeUpTimerEventCallback
 2119              	.LVL143:
1229:Drivers/STM32F7xx_HAL_Driver/Src/stm32f7xx_hal_rtc_ex.c ****     }
 2120              		.loc 1 1229 0
 2121 0028 2268     		ldr	r2, [r4]
 2122 002a D368     		ldr	r3, [r2, #12]
 2123 002c DBB2     		uxtb	r3, r3
 2124 002e 63F49063 		orn	r3, r3, #1152
 2125 0032 D360     		str	r3, [r2, #12]
 2126 0034 EFE7     		b	.L166
 2127              	.L170:
 2128 0036 00BF     		.align	2
 2129              	.L169:
 2130 0038 003C0140 		.word	1073822720
 2131              		.cfi_endproc
 2132              	.LFE158:
 2134              		.section	.text.HAL_RTCEx_PollForWakeUpTimerEvent,"ax",%progbits
 2135              		.align	1
 2136              		.global	HAL_RTCEx_PollForWakeUpTimerEvent
 2137              		.syntax unified
 2138              		.thumb
 2139              		.thumb_func
 2140              		.fpu fpv5-sp-d16
 2142              	HAL_RTCEx_PollForWakeUpTimerEvent:
 2143              	.LFB160:
1248:Drivers/STM32F7xx_HAL_Driver/Src/stm32f7xx_hal_rtc_ex.c ****   /* Prevent unused argument(s) compilation warning */
1249:Drivers/STM32F7xx_HAL_Driver/Src/stm32f7xx_hal_rtc_ex.c ****   UNUSED(hrtc);
1250:Drivers/STM32F7xx_HAL_Driver/Src/stm32f7xx_hal_rtc_ex.c ****   
1251:Drivers/STM32F7xx_HAL_Driver/Src/stm32f7xx_hal_rtc_ex.c ****   /* NOTE : This function Should not be modified, when the callback is needed,
1252:Drivers/STM32F7xx_HAL_Driver/Src/stm32f7xx_hal_rtc_ex.c ****             the HAL_RTC_WakeUpTimerEventCallback could be implemented in the user file
1253:Drivers/STM32F7xx_HAL_Driver/Src/stm32f7xx_hal_rtc_ex.c ****    */
1254:Drivers/STM32F7xx_HAL_Driver/Src/stm32f7xx_hal_rtc_ex.c **** }
1255:Drivers/STM32F7xx_HAL_Driver/Src/stm32f7xx_hal_rtc_ex.c **** 
1256:Drivers/STM32F7xx_HAL_Driver/Src/stm32f7xx_hal_rtc_ex.c **** /**
1257:Drivers/STM32F7xx_HAL_Driver/Src/stm32f7xx_hal_rtc_ex.c ****   * @brief  This function handles Wake Up Timer Polling.
1258:Drivers/STM32F7xx_HAL_Driver/Src/stm32f7xx_hal_rtc_ex.c ****   * @param  hrtc pointer to a RTC_HandleTypeDef structure that contains
1259:Drivers/STM32F7xx_HAL_Driver/Src/stm32f7xx_hal_rtc_ex.c ****   *                the configuration information for RTC.
1260:Drivers/STM32F7xx_HAL_Driver/Src/stm32f7xx_hal_rtc_ex.c ****   * @param  Timeout Timeout duration
1261:Drivers/STM32F7xx_HAL_Driver/Src/stm32f7xx_hal_rtc_ex.c ****   * @retval HAL status
1262:Drivers/STM32F7xx_HAL_Driver/Src/stm32f7xx_hal_rtc_ex.c ****   */
1263:Drivers/STM32F7xx_HAL_Driver/Src/stm32f7xx_hal_rtc_ex.c **** HAL_StatusTypeDef HAL_RTCEx_PollForWakeUpTimerEvent(RTC_HandleTypeDef *hrtc, uint32_t Timeout)
1264:Drivers/STM32F7xx_HAL_Driver/Src/stm32f7xx_hal_rtc_ex.c **** {  
 2144              		.loc 1 1264 0
 2145              		.cfi_startproc
 2146              		@ args = 0, pretend = 0, frame = 0
 2147              		@ frame_needed = 0, uses_anonymous_args = 0
 2148              	.LVL144:
 2149 0000 70B5     		push	{r4, r5, r6, lr}
 2150              	.LCFI29:
 2151              		.cfi_def_cfa_offset 16
ARM GAS  C:\Users\Student\AppData\Local\Temp\ccapU3Tb.s 			page 62


 2152              		.cfi_offset 4, -16
 2153              		.cfi_offset 5, -12
 2154              		.cfi_offset 6, -8
 2155              		.cfi_offset 14, -4
 2156 0002 0446     		mov	r4, r0
 2157 0004 0D46     		mov	r5, r1
 2158              	.LVL145:
1265:Drivers/STM32F7xx_HAL_Driver/Src/stm32f7xx_hal_rtc_ex.c ****   uint32_t tickstart = 0; 
1266:Drivers/STM32F7xx_HAL_Driver/Src/stm32f7xx_hal_rtc_ex.c **** 
1267:Drivers/STM32F7xx_HAL_Driver/Src/stm32f7xx_hal_rtc_ex.c ****   /* Get tick */
1268:Drivers/STM32F7xx_HAL_Driver/Src/stm32f7xx_hal_rtc_ex.c ****   tickstart = HAL_GetTick();
 2159              		.loc 1 1268 0
 2160 0006 FFF7FEFF 		bl	HAL_GetTick
 2161              	.LVL146:
 2162 000a 0646     		mov	r6, r0
 2163              	.LVL147:
 2164              	.L173:
1269:Drivers/STM32F7xx_HAL_Driver/Src/stm32f7xx_hal_rtc_ex.c **** 
1270:Drivers/STM32F7xx_HAL_Driver/Src/stm32f7xx_hal_rtc_ex.c ****   while(__HAL_RTC_WAKEUPTIMER_GET_FLAG(hrtc, RTC_FLAG_WUTF) == RESET)
 2165              		.loc 1 1270 0
 2166 000c 2368     		ldr	r3, [r4]
 2167 000e DA68     		ldr	r2, [r3, #12]
 2168 0010 12F4806F 		tst	r2, #1024
 2169 0014 0BD1     		bne	.L178
1271:Drivers/STM32F7xx_HAL_Driver/Src/stm32f7xx_hal_rtc_ex.c ****   {
1272:Drivers/STM32F7xx_HAL_Driver/Src/stm32f7xx_hal_rtc_ex.c ****     if(Timeout != HAL_MAX_DELAY)
 2170              		.loc 1 1272 0
 2171 0016 B5F1FF3F 		cmp	r5, #-1
 2172 001a F7D0     		beq	.L173
1273:Drivers/STM32F7xx_HAL_Driver/Src/stm32f7xx_hal_rtc_ex.c ****     {
1274:Drivers/STM32F7xx_HAL_Driver/Src/stm32f7xx_hal_rtc_ex.c ****       if((Timeout == 0)||((HAL_GetTick() - tickstart ) > Timeout))
 2173              		.loc 1 1274 0
 2174 001c 25B1     		cbz	r5, .L174
 2175              		.loc 1 1274 0 is_stmt 0 discriminator 1
 2176 001e FFF7FEFF 		bl	HAL_GetTick
 2177              	.LVL148:
 2178 0022 801B     		subs	r0, r0, r6
 2179 0024 8542     		cmp	r5, r0
 2180 0026 F1D2     		bcs	.L173
 2181              	.L174:
1275:Drivers/STM32F7xx_HAL_Driver/Src/stm32f7xx_hal_rtc_ex.c ****       {
1276:Drivers/STM32F7xx_HAL_Driver/Src/stm32f7xx_hal_rtc_ex.c ****         hrtc->State = HAL_RTC_STATE_TIMEOUT;
 2182              		.loc 1 1276 0 is_stmt 1
 2183 0028 0320     		movs	r0, #3
 2184 002a 6077     		strb	r0, [r4, #29]
1277:Drivers/STM32F7xx_HAL_Driver/Src/stm32f7xx_hal_rtc_ex.c ****       
1278:Drivers/STM32F7xx_HAL_Driver/Src/stm32f7xx_hal_rtc_ex.c ****         return HAL_TIMEOUT;
 2185              		.loc 1 1278 0
 2186 002c 70BD     		pop	{r4, r5, r6, pc}
 2187              	.LVL149:
 2188              	.L178:
1279:Drivers/STM32F7xx_HAL_Driver/Src/stm32f7xx_hal_rtc_ex.c ****       }
1280:Drivers/STM32F7xx_HAL_Driver/Src/stm32f7xx_hal_rtc_ex.c ****     }
1281:Drivers/STM32F7xx_HAL_Driver/Src/stm32f7xx_hal_rtc_ex.c ****   }
1282:Drivers/STM32F7xx_HAL_Driver/Src/stm32f7xx_hal_rtc_ex.c ****   
1283:Drivers/STM32F7xx_HAL_Driver/Src/stm32f7xx_hal_rtc_ex.c ****   /* Clear the WAKEUPTIMER Flag */
1284:Drivers/STM32F7xx_HAL_Driver/Src/stm32f7xx_hal_rtc_ex.c ****   __HAL_RTC_WAKEUPTIMER_CLEAR_FLAG(hrtc, RTC_FLAG_WUTF);
ARM GAS  C:\Users\Student\AppData\Local\Temp\ccapU3Tb.s 			page 63


 2189              		.loc 1 1284 0
 2190 002e DA68     		ldr	r2, [r3, #12]
 2191 0030 D2B2     		uxtb	r2, r2
 2192 0032 62F49062 		orn	r2, r2, #1152
 2193 0036 DA60     		str	r2, [r3, #12]
1285:Drivers/STM32F7xx_HAL_Driver/Src/stm32f7xx_hal_rtc_ex.c ****   
1286:Drivers/STM32F7xx_HAL_Driver/Src/stm32f7xx_hal_rtc_ex.c ****   /* Change RTC state */
1287:Drivers/STM32F7xx_HAL_Driver/Src/stm32f7xx_hal_rtc_ex.c ****   hrtc->State = HAL_RTC_STATE_READY;
 2194              		.loc 1 1287 0
 2195 0038 0123     		movs	r3, #1
 2196 003a 6377     		strb	r3, [r4, #29]
1288:Drivers/STM32F7xx_HAL_Driver/Src/stm32f7xx_hal_rtc_ex.c ****   
1289:Drivers/STM32F7xx_HAL_Driver/Src/stm32f7xx_hal_rtc_ex.c ****   return HAL_OK; 
 2197              		.loc 1 1289 0
 2198 003c 0020     		movs	r0, #0
1290:Drivers/STM32F7xx_HAL_Driver/Src/stm32f7xx_hal_rtc_ex.c **** }
 2199              		.loc 1 1290 0
 2200 003e 70BD     		pop	{r4, r5, r6, pc}
 2201              		.cfi_endproc
 2202              	.LFE160:
 2204              		.section	.text.HAL_RTCEx_BKUPWrite,"ax",%progbits
 2205              		.align	1
 2206              		.global	HAL_RTCEx_BKUPWrite
 2207              		.syntax unified
 2208              		.thumb
 2209              		.thumb_func
 2210              		.fpu fpv5-sp-d16
 2212              	HAL_RTCEx_BKUPWrite:
 2213              	.LFB161:
1291:Drivers/STM32F7xx_HAL_Driver/Src/stm32f7xx_hal_rtc_ex.c **** 
1292:Drivers/STM32F7xx_HAL_Driver/Src/stm32f7xx_hal_rtc_ex.c **** /**
1293:Drivers/STM32F7xx_HAL_Driver/Src/stm32f7xx_hal_rtc_ex.c ****   * @}
1294:Drivers/STM32F7xx_HAL_Driver/Src/stm32f7xx_hal_rtc_ex.c ****   */
1295:Drivers/STM32F7xx_HAL_Driver/Src/stm32f7xx_hal_rtc_ex.c **** 
1296:Drivers/STM32F7xx_HAL_Driver/Src/stm32f7xx_hal_rtc_ex.c **** 
1297:Drivers/STM32F7xx_HAL_Driver/Src/stm32f7xx_hal_rtc_ex.c **** /** @defgroup RTCEx_Group3 Extension Peripheral Control functions 
1298:Drivers/STM32F7xx_HAL_Driver/Src/stm32f7xx_hal_rtc_ex.c ****  *  @brief   Extension Peripheral Control functions 
1299:Drivers/STM32F7xx_HAL_Driver/Src/stm32f7xx_hal_rtc_ex.c ****  *
1300:Drivers/STM32F7xx_HAL_Driver/Src/stm32f7xx_hal_rtc_ex.c **** @verbatim   
1301:Drivers/STM32F7xx_HAL_Driver/Src/stm32f7xx_hal_rtc_ex.c ****  ===============================================================================
1302:Drivers/STM32F7xx_HAL_Driver/Src/stm32f7xx_hal_rtc_ex.c ****               ##### Extension Peripheral Control functions #####
1303:Drivers/STM32F7xx_HAL_Driver/Src/stm32f7xx_hal_rtc_ex.c ****  ===============================================================================  
1304:Drivers/STM32F7xx_HAL_Driver/Src/stm32f7xx_hal_rtc_ex.c ****     [..]
1305:Drivers/STM32F7xx_HAL_Driver/Src/stm32f7xx_hal_rtc_ex.c ****     This subsection provides functions allowing to
1306:Drivers/STM32F7xx_HAL_Driver/Src/stm32f7xx_hal_rtc_ex.c ****       (+) Write a data in a specified RTC Backup data register
1307:Drivers/STM32F7xx_HAL_Driver/Src/stm32f7xx_hal_rtc_ex.c ****       (+) Read a data in a specified RTC Backup data register
1308:Drivers/STM32F7xx_HAL_Driver/Src/stm32f7xx_hal_rtc_ex.c ****       (+) Set the Coarse calibration parameters.
1309:Drivers/STM32F7xx_HAL_Driver/Src/stm32f7xx_hal_rtc_ex.c ****       (+) Deactivate the Coarse calibration parameters
1310:Drivers/STM32F7xx_HAL_Driver/Src/stm32f7xx_hal_rtc_ex.c ****       (+) Set the Smooth calibration parameters.
1311:Drivers/STM32F7xx_HAL_Driver/Src/stm32f7xx_hal_rtc_ex.c ****       (+) Configure the Synchronization Shift Control Settings.
1312:Drivers/STM32F7xx_HAL_Driver/Src/stm32f7xx_hal_rtc_ex.c ****       (+) Configure the Calibration Pinout (RTC_CALIB) Selection (1Hz or 512Hz).
1313:Drivers/STM32F7xx_HAL_Driver/Src/stm32f7xx_hal_rtc_ex.c ****       (+) Deactivate the Calibration Pinout (RTC_CALIB) Selection (1Hz or 512Hz).
1314:Drivers/STM32F7xx_HAL_Driver/Src/stm32f7xx_hal_rtc_ex.c ****       (+) Enable the RTC reference clock detection.
1315:Drivers/STM32F7xx_HAL_Driver/Src/stm32f7xx_hal_rtc_ex.c ****       (+) Disable the RTC reference clock detection.
1316:Drivers/STM32F7xx_HAL_Driver/Src/stm32f7xx_hal_rtc_ex.c ****       (+) Enable the Bypass Shadow feature.
1317:Drivers/STM32F7xx_HAL_Driver/Src/stm32f7xx_hal_rtc_ex.c ****       (+) Disable the Bypass Shadow feature.
1318:Drivers/STM32F7xx_HAL_Driver/Src/stm32f7xx_hal_rtc_ex.c **** 
ARM GAS  C:\Users\Student\AppData\Local\Temp\ccapU3Tb.s 			page 64


1319:Drivers/STM32F7xx_HAL_Driver/Src/stm32f7xx_hal_rtc_ex.c **** @endverbatim
1320:Drivers/STM32F7xx_HAL_Driver/Src/stm32f7xx_hal_rtc_ex.c ****   * @{
1321:Drivers/STM32F7xx_HAL_Driver/Src/stm32f7xx_hal_rtc_ex.c ****   */
1322:Drivers/STM32F7xx_HAL_Driver/Src/stm32f7xx_hal_rtc_ex.c **** 
1323:Drivers/STM32F7xx_HAL_Driver/Src/stm32f7xx_hal_rtc_ex.c **** /**
1324:Drivers/STM32F7xx_HAL_Driver/Src/stm32f7xx_hal_rtc_ex.c ****   * @brief  Writes a data in a specified RTC Backup data register.
1325:Drivers/STM32F7xx_HAL_Driver/Src/stm32f7xx_hal_rtc_ex.c ****   * @param  hrtc pointer to a RTC_HandleTypeDef structure that contains
1326:Drivers/STM32F7xx_HAL_Driver/Src/stm32f7xx_hal_rtc_ex.c ****   *                the configuration information for RTC. 
1327:Drivers/STM32F7xx_HAL_Driver/Src/stm32f7xx_hal_rtc_ex.c ****   * @param  BackupRegister RTC Backup data Register number.
1328:Drivers/STM32F7xx_HAL_Driver/Src/stm32f7xx_hal_rtc_ex.c ****   *          This parameter can be: RTC_BKP_DRx where x can be from 0 to 19 to 
1329:Drivers/STM32F7xx_HAL_Driver/Src/stm32f7xx_hal_rtc_ex.c ****   *                                 specify the register.
1330:Drivers/STM32F7xx_HAL_Driver/Src/stm32f7xx_hal_rtc_ex.c ****   * @param  Data Data to be written in the specified RTC Backup data register.                     
1331:Drivers/STM32F7xx_HAL_Driver/Src/stm32f7xx_hal_rtc_ex.c ****   * @retval None
1332:Drivers/STM32F7xx_HAL_Driver/Src/stm32f7xx_hal_rtc_ex.c ****   */
1333:Drivers/STM32F7xx_HAL_Driver/Src/stm32f7xx_hal_rtc_ex.c **** void HAL_RTCEx_BKUPWrite(RTC_HandleTypeDef *hrtc, uint32_t BackupRegister, uint32_t Data)
1334:Drivers/STM32F7xx_HAL_Driver/Src/stm32f7xx_hal_rtc_ex.c **** {
 2214              		.loc 1 1334 0
 2215              		.cfi_startproc
 2216              		@ args = 0, pretend = 0, frame = 0
 2217              		@ frame_needed = 0, uses_anonymous_args = 0
 2218              		@ link register save eliminated.
 2219              	.LVL150:
1335:Drivers/STM32F7xx_HAL_Driver/Src/stm32f7xx_hal_rtc_ex.c ****   uint32_t tmp = 0;
1336:Drivers/STM32F7xx_HAL_Driver/Src/stm32f7xx_hal_rtc_ex.c ****   
1337:Drivers/STM32F7xx_HAL_Driver/Src/stm32f7xx_hal_rtc_ex.c ****   /* Check the parameters */
1338:Drivers/STM32F7xx_HAL_Driver/Src/stm32f7xx_hal_rtc_ex.c ****   assert_param(IS_RTC_BKP(BackupRegister));
1339:Drivers/STM32F7xx_HAL_Driver/Src/stm32f7xx_hal_rtc_ex.c ****   
1340:Drivers/STM32F7xx_HAL_Driver/Src/stm32f7xx_hal_rtc_ex.c ****   tmp = (uint32_t)&(hrtc->Instance->BKP0R);
 2220              		.loc 1 1340 0
 2221 0000 0368     		ldr	r3, [r0]
 2222 0002 5033     		adds	r3, r3, #80
 2223              	.LVL151:
1341:Drivers/STM32F7xx_HAL_Driver/Src/stm32f7xx_hal_rtc_ex.c ****   tmp += (BackupRegister * 4);
1342:Drivers/STM32F7xx_HAL_Driver/Src/stm32f7xx_hal_rtc_ex.c ****   
1343:Drivers/STM32F7xx_HAL_Driver/Src/stm32f7xx_hal_rtc_ex.c ****   /* Write the specified register */
1344:Drivers/STM32F7xx_HAL_Driver/Src/stm32f7xx_hal_rtc_ex.c ****   *(__IO uint32_t *)tmp = (uint32_t)Data;
 2224              		.loc 1 1344 0
 2225 0004 43F82120 		str	r2, [r3, r1, lsl #2]
 2226 0008 7047     		bx	lr
 2227              		.cfi_endproc
 2228              	.LFE161:
 2230              		.section	.text.HAL_RTCEx_BKUPRead,"ax",%progbits
 2231              		.align	1
 2232              		.global	HAL_RTCEx_BKUPRead
 2233              		.syntax unified
 2234              		.thumb
 2235              		.thumb_func
 2236              		.fpu fpv5-sp-d16
 2238              	HAL_RTCEx_BKUPRead:
 2239              	.LFB162:
1345:Drivers/STM32F7xx_HAL_Driver/Src/stm32f7xx_hal_rtc_ex.c **** }
1346:Drivers/STM32F7xx_HAL_Driver/Src/stm32f7xx_hal_rtc_ex.c **** 
1347:Drivers/STM32F7xx_HAL_Driver/Src/stm32f7xx_hal_rtc_ex.c **** /**
1348:Drivers/STM32F7xx_HAL_Driver/Src/stm32f7xx_hal_rtc_ex.c ****   * @brief  Reads data from the specified RTC Backup data Register.
1349:Drivers/STM32F7xx_HAL_Driver/Src/stm32f7xx_hal_rtc_ex.c ****   * @param  hrtc pointer to a RTC_HandleTypeDef structure that contains
1350:Drivers/STM32F7xx_HAL_Driver/Src/stm32f7xx_hal_rtc_ex.c ****   *                the configuration information for RTC. 
1351:Drivers/STM32F7xx_HAL_Driver/Src/stm32f7xx_hal_rtc_ex.c ****   * @param  BackupRegister RTC Backup data Register number.
ARM GAS  C:\Users\Student\AppData\Local\Temp\ccapU3Tb.s 			page 65


1352:Drivers/STM32F7xx_HAL_Driver/Src/stm32f7xx_hal_rtc_ex.c ****   *          This parameter can be: RTC_BKP_DRx where x can be from 0 to 19 to 
1353:Drivers/STM32F7xx_HAL_Driver/Src/stm32f7xx_hal_rtc_ex.c ****   *                                 specify the register.                   
1354:Drivers/STM32F7xx_HAL_Driver/Src/stm32f7xx_hal_rtc_ex.c ****   * @retval Read value
1355:Drivers/STM32F7xx_HAL_Driver/Src/stm32f7xx_hal_rtc_ex.c ****   */
1356:Drivers/STM32F7xx_HAL_Driver/Src/stm32f7xx_hal_rtc_ex.c **** uint32_t HAL_RTCEx_BKUPRead(RTC_HandleTypeDef *hrtc, uint32_t BackupRegister)
1357:Drivers/STM32F7xx_HAL_Driver/Src/stm32f7xx_hal_rtc_ex.c **** {
 2240              		.loc 1 1357 0
 2241              		.cfi_startproc
 2242              		@ args = 0, pretend = 0, frame = 0
 2243              		@ frame_needed = 0, uses_anonymous_args = 0
 2244              		@ link register save eliminated.
 2245              	.LVL152:
1358:Drivers/STM32F7xx_HAL_Driver/Src/stm32f7xx_hal_rtc_ex.c ****   uint32_t tmp = 0;
1359:Drivers/STM32F7xx_HAL_Driver/Src/stm32f7xx_hal_rtc_ex.c ****   
1360:Drivers/STM32F7xx_HAL_Driver/Src/stm32f7xx_hal_rtc_ex.c ****   /* Check the parameters */
1361:Drivers/STM32F7xx_HAL_Driver/Src/stm32f7xx_hal_rtc_ex.c ****   assert_param(IS_RTC_BKP(BackupRegister));
1362:Drivers/STM32F7xx_HAL_Driver/Src/stm32f7xx_hal_rtc_ex.c **** 
1363:Drivers/STM32F7xx_HAL_Driver/Src/stm32f7xx_hal_rtc_ex.c ****   tmp = (uint32_t)&(hrtc->Instance->BKP0R);
 2246              		.loc 1 1363 0
 2247 0000 0368     		ldr	r3, [r0]
 2248 0002 5033     		adds	r3, r3, #80
 2249              	.LVL153:
1364:Drivers/STM32F7xx_HAL_Driver/Src/stm32f7xx_hal_rtc_ex.c ****   tmp += (BackupRegister * 4);
1365:Drivers/STM32F7xx_HAL_Driver/Src/stm32f7xx_hal_rtc_ex.c ****   
1366:Drivers/STM32F7xx_HAL_Driver/Src/stm32f7xx_hal_rtc_ex.c ****   /* Read the specified register */
1367:Drivers/STM32F7xx_HAL_Driver/Src/stm32f7xx_hal_rtc_ex.c ****   return (*(__IO uint32_t *)tmp);
 2250              		.loc 1 1367 0
 2251 0004 53F82100 		ldr	r0, [r3, r1, lsl #2]
 2252              	.LVL154:
1368:Drivers/STM32F7xx_HAL_Driver/Src/stm32f7xx_hal_rtc_ex.c **** }
 2253              		.loc 1 1368 0
 2254 0008 7047     		bx	lr
 2255              		.cfi_endproc
 2256              	.LFE162:
 2258              		.section	.text.HAL_RTCEx_SetSmoothCalib,"ax",%progbits
 2259              		.align	1
 2260              		.global	HAL_RTCEx_SetSmoothCalib
 2261              		.syntax unified
 2262              		.thumb
 2263              		.thumb_func
 2264              		.fpu fpv5-sp-d16
 2266              	HAL_RTCEx_SetSmoothCalib:
 2267              	.LFB163:
1369:Drivers/STM32F7xx_HAL_Driver/Src/stm32f7xx_hal_rtc_ex.c **** 
1370:Drivers/STM32F7xx_HAL_Driver/Src/stm32f7xx_hal_rtc_ex.c **** /**
1371:Drivers/STM32F7xx_HAL_Driver/Src/stm32f7xx_hal_rtc_ex.c ****   * @brief  Sets the Smooth calibration parameters.
1372:Drivers/STM32F7xx_HAL_Driver/Src/stm32f7xx_hal_rtc_ex.c ****   * @param  hrtc pointer to a RTC_HandleTypeDef structure that contains
1373:Drivers/STM32F7xx_HAL_Driver/Src/stm32f7xx_hal_rtc_ex.c ****   *                the configuration information for RTC.  
1374:Drivers/STM32F7xx_HAL_Driver/Src/stm32f7xx_hal_rtc_ex.c ****   * @param  SmoothCalibPeriod Select the Smooth Calibration Period.
1375:Drivers/STM32F7xx_HAL_Driver/Src/stm32f7xx_hal_rtc_ex.c ****   *          This parameter can be can be one of the following values :
1376:Drivers/STM32F7xx_HAL_Driver/Src/stm32f7xx_hal_rtc_ex.c ****   *             @arg RTC_SMOOTHCALIB_PERIOD_32SEC: The smooth calibration period is 32s.
1377:Drivers/STM32F7xx_HAL_Driver/Src/stm32f7xx_hal_rtc_ex.c ****   *             @arg RTC_SMOOTHCALIB_PERIOD_16SEC: The smooth calibration period is 16s.
1378:Drivers/STM32F7xx_HAL_Driver/Src/stm32f7xx_hal_rtc_ex.c ****   *             @arg RTC_SMOOTHCALIB_PERIOD_8SEC: The smooth calibration period is 8s.
1379:Drivers/STM32F7xx_HAL_Driver/Src/stm32f7xx_hal_rtc_ex.c ****   * @param  SmoothCalibPlusPulses Select to Set or reset the CALP bit.
1380:Drivers/STM32F7xx_HAL_Driver/Src/stm32f7xx_hal_rtc_ex.c ****   *          This parameter can be one of the following values:
1381:Drivers/STM32F7xx_HAL_Driver/Src/stm32f7xx_hal_rtc_ex.c ****   *             @arg RTC_SMOOTHCALIB_PLUSPULSES_SET: Add one RTCCLK pulses every 2*11 pulses.
1382:Drivers/STM32F7xx_HAL_Driver/Src/stm32f7xx_hal_rtc_ex.c ****   *             @arg RTC_SMOOTHCALIB_PLUSPULSES_RESET: No RTCCLK pulses are added.
ARM GAS  C:\Users\Student\AppData\Local\Temp\ccapU3Tb.s 			page 66


1383:Drivers/STM32F7xx_HAL_Driver/Src/stm32f7xx_hal_rtc_ex.c ****   * @param  SmouthCalibMinusPulsesValue Select the value of CALM[80] bits.
1384:Drivers/STM32F7xx_HAL_Driver/Src/stm32f7xx_hal_rtc_ex.c ****   *          This parameter can be one any value from 0 to 0x000001FF.
1385:Drivers/STM32F7xx_HAL_Driver/Src/stm32f7xx_hal_rtc_ex.c ****   * @note   To deactivate the smooth calibration, the field SmoothCalibPlusPulses 
1386:Drivers/STM32F7xx_HAL_Driver/Src/stm32f7xx_hal_rtc_ex.c ****   *         must be equal to SMOOTHCALIB_PLUSPULSES_RESET and the field 
1387:Drivers/STM32F7xx_HAL_Driver/Src/stm32f7xx_hal_rtc_ex.c ****   *         SmouthCalibMinusPulsesValue must be equal to 0.  
1388:Drivers/STM32F7xx_HAL_Driver/Src/stm32f7xx_hal_rtc_ex.c ****   * @retval HAL status
1389:Drivers/STM32F7xx_HAL_Driver/Src/stm32f7xx_hal_rtc_ex.c ****   */
1390:Drivers/STM32F7xx_HAL_Driver/Src/stm32f7xx_hal_rtc_ex.c **** HAL_StatusTypeDef HAL_RTCEx_SetSmoothCalib(RTC_HandleTypeDef* hrtc, uint32_t SmoothCalibPeriod, uin
1391:Drivers/STM32F7xx_HAL_Driver/Src/stm32f7xx_hal_rtc_ex.c **** {
 2268              		.loc 1 1391 0
 2269              		.cfi_startproc
 2270              		@ args = 0, pretend = 0, frame = 0
 2271              		@ frame_needed = 0, uses_anonymous_args = 0
 2272              	.LVL155:
 2273 0000 2DE9F041 		push	{r4, r5, r6, r7, r8, lr}
 2274              	.LCFI30:
 2275              		.cfi_def_cfa_offset 24
 2276              		.cfi_offset 4, -24
 2277              		.cfi_offset 5, -20
 2278              		.cfi_offset 6, -16
 2279              		.cfi_offset 7, -12
 2280              		.cfi_offset 8, -8
 2281              		.cfi_offset 14, -4
 2282              	.LVL156:
1392:Drivers/STM32F7xx_HAL_Driver/Src/stm32f7xx_hal_rtc_ex.c ****   uint32_t tickstart = 0;
1393:Drivers/STM32F7xx_HAL_Driver/Src/stm32f7xx_hal_rtc_ex.c ****   
1394:Drivers/STM32F7xx_HAL_Driver/Src/stm32f7xx_hal_rtc_ex.c ****   /* Check the parameters */
1395:Drivers/STM32F7xx_HAL_Driver/Src/stm32f7xx_hal_rtc_ex.c ****   assert_param(IS_RTC_SMOOTH_CALIB_PERIOD(SmoothCalibPeriod));
1396:Drivers/STM32F7xx_HAL_Driver/Src/stm32f7xx_hal_rtc_ex.c ****   assert_param(IS_RTC_SMOOTH_CALIB_PLUS(SmoothCalibPlusPulses));
1397:Drivers/STM32F7xx_HAL_Driver/Src/stm32f7xx_hal_rtc_ex.c ****   assert_param(IS_RTC_SMOOTH_CALIB_MINUS(SmouthCalibMinusPulsesValue));
1398:Drivers/STM32F7xx_HAL_Driver/Src/stm32f7xx_hal_rtc_ex.c ****   
1399:Drivers/STM32F7xx_HAL_Driver/Src/stm32f7xx_hal_rtc_ex.c ****   /* Process Locked */ 
1400:Drivers/STM32F7xx_HAL_Driver/Src/stm32f7xx_hal_rtc_ex.c ****   __HAL_LOCK(hrtc);
 2283              		.loc 1 1400 0
 2284 0004 047F     		ldrb	r4, [r0, #28]	@ zero_extendqisi2
 2285 0006 012C     		cmp	r4, #1
 2286 0008 37D0     		beq	.L186
 2287 000a 1E46     		mov	r6, r3
 2288 000c 1746     		mov	r7, r2
 2289 000e 0D46     		mov	r5, r1
 2290 0010 0446     		mov	r4, r0
 2291              		.loc 1 1400 0 is_stmt 0 discriminator 2
 2292 0012 0123     		movs	r3, #1
 2293              	.LVL157:
 2294 0014 0377     		strb	r3, [r0, #28]
1401:Drivers/STM32F7xx_HAL_Driver/Src/stm32f7xx_hal_rtc_ex.c ****   
1402:Drivers/STM32F7xx_HAL_Driver/Src/stm32f7xx_hal_rtc_ex.c ****   hrtc->State = HAL_RTC_STATE_BUSY;
 2295              		.loc 1 1402 0 is_stmt 1 discriminator 2
 2296 0016 0223     		movs	r3, #2
 2297 0018 4377     		strb	r3, [r0, #29]
1403:Drivers/STM32F7xx_HAL_Driver/Src/stm32f7xx_hal_rtc_ex.c ****   
1404:Drivers/STM32F7xx_HAL_Driver/Src/stm32f7xx_hal_rtc_ex.c ****   /* Disable the write protection for RTC registers */
1405:Drivers/STM32F7xx_HAL_Driver/Src/stm32f7xx_hal_rtc_ex.c ****   __HAL_RTC_WRITEPROTECTION_DISABLE(hrtc);
 2298              		.loc 1 1405 0 discriminator 2
 2299 001a 0368     		ldr	r3, [r0]
 2300 001c CA22     		movs	r2, #202
 2301              	.LVL158:
ARM GAS  C:\Users\Student\AppData\Local\Temp\ccapU3Tb.s 			page 67


 2302 001e 5A62     		str	r2, [r3, #36]
 2303 0020 0368     		ldr	r3, [r0]
 2304 0022 5322     		movs	r2, #83
 2305 0024 5A62     		str	r2, [r3, #36]
1406:Drivers/STM32F7xx_HAL_Driver/Src/stm32f7xx_hal_rtc_ex.c ****   
1407:Drivers/STM32F7xx_HAL_Driver/Src/stm32f7xx_hal_rtc_ex.c ****   /* check if a calibration is pending*/
1408:Drivers/STM32F7xx_HAL_Driver/Src/stm32f7xx_hal_rtc_ex.c ****   if((hrtc->Instance->ISR & RTC_ISR_RECALPF) != RESET)
 2306              		.loc 1 1408 0 discriminator 2
 2307 0026 0368     		ldr	r3, [r0]
 2308 0028 DB68     		ldr	r3, [r3, #12]
 2309 002a 13F4803F 		tst	r3, #65536
 2310 002e 0CD1     		bne	.L188
 2311              	.LVL159:
 2312              	.L183:
1409:Drivers/STM32F7xx_HAL_Driver/Src/stm32f7xx_hal_rtc_ex.c ****   {
1410:Drivers/STM32F7xx_HAL_Driver/Src/stm32f7xx_hal_rtc_ex.c ****   /* Get tick */
1411:Drivers/STM32F7xx_HAL_Driver/Src/stm32f7xx_hal_rtc_ex.c ****   tickstart = HAL_GetTick();
1412:Drivers/STM32F7xx_HAL_Driver/Src/stm32f7xx_hal_rtc_ex.c **** 
1413:Drivers/STM32F7xx_HAL_Driver/Src/stm32f7xx_hal_rtc_ex.c ****     /* check if a calibration is pending*/
1414:Drivers/STM32F7xx_HAL_Driver/Src/stm32f7xx_hal_rtc_ex.c ****     while((hrtc->Instance->ISR & RTC_ISR_RECALPF) != RESET)
1415:Drivers/STM32F7xx_HAL_Driver/Src/stm32f7xx_hal_rtc_ex.c ****     {
1416:Drivers/STM32F7xx_HAL_Driver/Src/stm32f7xx_hal_rtc_ex.c ****       if((HAL_GetTick() - tickstart ) > RTC_TIMEOUT_VALUE)
1417:Drivers/STM32F7xx_HAL_Driver/Src/stm32f7xx_hal_rtc_ex.c ****       {
1418:Drivers/STM32F7xx_HAL_Driver/Src/stm32f7xx_hal_rtc_ex.c ****         /* Enable the write protection for RTC registers */
1419:Drivers/STM32F7xx_HAL_Driver/Src/stm32f7xx_hal_rtc_ex.c ****         __HAL_RTC_WRITEPROTECTION_ENABLE(hrtc);
1420:Drivers/STM32F7xx_HAL_Driver/Src/stm32f7xx_hal_rtc_ex.c ****         
1421:Drivers/STM32F7xx_HAL_Driver/Src/stm32f7xx_hal_rtc_ex.c ****         /* Change RTC state */
1422:Drivers/STM32F7xx_HAL_Driver/Src/stm32f7xx_hal_rtc_ex.c ****         hrtc->State = HAL_RTC_STATE_TIMEOUT; 
1423:Drivers/STM32F7xx_HAL_Driver/Src/stm32f7xx_hal_rtc_ex.c ****         
1424:Drivers/STM32F7xx_HAL_Driver/Src/stm32f7xx_hal_rtc_ex.c ****         /* Process Unlocked */ 
1425:Drivers/STM32F7xx_HAL_Driver/Src/stm32f7xx_hal_rtc_ex.c ****         __HAL_UNLOCK(hrtc);
1426:Drivers/STM32F7xx_HAL_Driver/Src/stm32f7xx_hal_rtc_ex.c ****         
1427:Drivers/STM32F7xx_HAL_Driver/Src/stm32f7xx_hal_rtc_ex.c ****         return HAL_TIMEOUT;
1428:Drivers/STM32F7xx_HAL_Driver/Src/stm32f7xx_hal_rtc_ex.c ****       }
1429:Drivers/STM32F7xx_HAL_Driver/Src/stm32f7xx_hal_rtc_ex.c ****     }
1430:Drivers/STM32F7xx_HAL_Driver/Src/stm32f7xx_hal_rtc_ex.c ****   }
1431:Drivers/STM32F7xx_HAL_Driver/Src/stm32f7xx_hal_rtc_ex.c ****   
1432:Drivers/STM32F7xx_HAL_Driver/Src/stm32f7xx_hal_rtc_ex.c ****   /* Configure the Smooth calibration settings */
1433:Drivers/STM32F7xx_HAL_Driver/Src/stm32f7xx_hal_rtc_ex.c ****   hrtc->Instance->CALR = (uint32_t)((uint32_t)SmoothCalibPeriod | (uint32_t)SmoothCalibPlusPulses |
 2313              		.loc 1 1433 0
 2314 0030 2368     		ldr	r3, [r4]
 2315 0032 3D43     		orrs	r5, r5, r7
 2316              	.LVL160:
 2317 0034 3543     		orrs	r5, r5, r6
 2318 0036 DD63     		str	r5, [r3, #60]
1434:Drivers/STM32F7xx_HAL_Driver/Src/stm32f7xx_hal_rtc_ex.c ****   
1435:Drivers/STM32F7xx_HAL_Driver/Src/stm32f7xx_hal_rtc_ex.c ****   /* Enable the write protection for RTC registers */
1436:Drivers/STM32F7xx_HAL_Driver/Src/stm32f7xx_hal_rtc_ex.c ****   __HAL_RTC_WRITEPROTECTION_ENABLE(hrtc);
 2319              		.loc 1 1436 0
 2320 0038 2368     		ldr	r3, [r4]
 2321 003a FF22     		movs	r2, #255
 2322 003c 5A62     		str	r2, [r3, #36]
1437:Drivers/STM32F7xx_HAL_Driver/Src/stm32f7xx_hal_rtc_ex.c ****   
1438:Drivers/STM32F7xx_HAL_Driver/Src/stm32f7xx_hal_rtc_ex.c ****   /* Change RTC state */
1439:Drivers/STM32F7xx_HAL_Driver/Src/stm32f7xx_hal_rtc_ex.c ****   hrtc->State = HAL_RTC_STATE_READY; 
 2323              		.loc 1 1439 0
 2324 003e 0123     		movs	r3, #1
ARM GAS  C:\Users\Student\AppData\Local\Temp\ccapU3Tb.s 			page 68


 2325 0040 6377     		strb	r3, [r4, #29]
1440:Drivers/STM32F7xx_HAL_Driver/Src/stm32f7xx_hal_rtc_ex.c ****   
1441:Drivers/STM32F7xx_HAL_Driver/Src/stm32f7xx_hal_rtc_ex.c ****   /* Process Unlocked */ 
1442:Drivers/STM32F7xx_HAL_Driver/Src/stm32f7xx_hal_rtc_ex.c ****   __HAL_UNLOCK(hrtc);
 2326              		.loc 1 1442 0
 2327 0042 0020     		movs	r0, #0
 2328 0044 2077     		strb	r0, [r4, #28]
1443:Drivers/STM32F7xx_HAL_Driver/Src/stm32f7xx_hal_rtc_ex.c ****   
1444:Drivers/STM32F7xx_HAL_Driver/Src/stm32f7xx_hal_rtc_ex.c ****   return HAL_OK;
 2329              		.loc 1 1444 0
 2330 0046 BDE8F081 		pop	{r4, r5, r6, r7, r8, pc}
 2331              	.LVL161:
 2332              	.L188:
1411:Drivers/STM32F7xx_HAL_Driver/Src/stm32f7xx_hal_rtc_ex.c **** 
 2333              		.loc 1 1411 0
 2334 004a FFF7FEFF 		bl	HAL_GetTick
 2335              	.LVL162:
 2336 004e 8046     		mov	r8, r0
 2337              	.LVL163:
 2338              	.L184:
1414:Drivers/STM32F7xx_HAL_Driver/Src/stm32f7xx_hal_rtc_ex.c ****     {
 2339              		.loc 1 1414 0
 2340 0050 2168     		ldr	r1, [r4]
 2341 0052 C968     		ldr	r1, [r1, #12]
 2342 0054 11F4803F 		tst	r1, #65536
 2343 0058 EAD0     		beq	.L183
1416:Drivers/STM32F7xx_HAL_Driver/Src/stm32f7xx_hal_rtc_ex.c ****       {
 2344              		.loc 1 1416 0
 2345 005a FFF7FEFF 		bl	HAL_GetTick
 2346              	.LVL164:
 2347 005e A0EB0800 		sub	r0, r0, r8
 2348 0062 B0F57A7F 		cmp	r0, #1000
 2349 0066 F3D9     		bls	.L184
1419:Drivers/STM32F7xx_HAL_Driver/Src/stm32f7xx_hal_rtc_ex.c ****         
 2350              		.loc 1 1419 0
 2351 0068 2368     		ldr	r3, [r4]
 2352 006a FF22     		movs	r2, #255
 2353 006c 5A62     		str	r2, [r3, #36]
1422:Drivers/STM32F7xx_HAL_Driver/Src/stm32f7xx_hal_rtc_ex.c ****         
 2354              		.loc 1 1422 0
 2355 006e 0320     		movs	r0, #3
 2356 0070 6077     		strb	r0, [r4, #29]
1425:Drivers/STM32F7xx_HAL_Driver/Src/stm32f7xx_hal_rtc_ex.c ****         
 2357              		.loc 1 1425 0
 2358 0072 0023     		movs	r3, #0
 2359 0074 2377     		strb	r3, [r4, #28]
1427:Drivers/STM32F7xx_HAL_Driver/Src/stm32f7xx_hal_rtc_ex.c ****       }
 2360              		.loc 1 1427 0
 2361 0076 BDE8F081 		pop	{r4, r5, r6, r7, r8, pc}
 2362              	.LVL165:
 2363              	.L186:
1400:Drivers/STM32F7xx_HAL_Driver/Src/stm32f7xx_hal_rtc_ex.c ****   
 2364              		.loc 1 1400 0
 2365 007a 0220     		movs	r0, #2
 2366              	.LVL166:
1445:Drivers/STM32F7xx_HAL_Driver/Src/stm32f7xx_hal_rtc_ex.c **** }
 2367              		.loc 1 1445 0
ARM GAS  C:\Users\Student\AppData\Local\Temp\ccapU3Tb.s 			page 69


 2368 007c BDE8F081 		pop	{r4, r5, r6, r7, r8, pc}
 2369              		.cfi_endproc
 2370              	.LFE163:
 2372              		.section	.text.HAL_RTCEx_SetSynchroShift,"ax",%progbits
 2373              		.align	1
 2374              		.global	HAL_RTCEx_SetSynchroShift
 2375              		.syntax unified
 2376              		.thumb
 2377              		.thumb_func
 2378              		.fpu fpv5-sp-d16
 2380              	HAL_RTCEx_SetSynchroShift:
 2381              	.LFB164:
1446:Drivers/STM32F7xx_HAL_Driver/Src/stm32f7xx_hal_rtc_ex.c **** 
1447:Drivers/STM32F7xx_HAL_Driver/Src/stm32f7xx_hal_rtc_ex.c **** /**
1448:Drivers/STM32F7xx_HAL_Driver/Src/stm32f7xx_hal_rtc_ex.c ****   * @brief  Configures the Synchronization Shift Control Settings.
1449:Drivers/STM32F7xx_HAL_Driver/Src/stm32f7xx_hal_rtc_ex.c ****   * @note   When REFCKON is set, firmware must not write to Shift control register. 
1450:Drivers/STM32F7xx_HAL_Driver/Src/stm32f7xx_hal_rtc_ex.c ****   * @param  hrtc pointer to a RTC_HandleTypeDef structure that contains
1451:Drivers/STM32F7xx_HAL_Driver/Src/stm32f7xx_hal_rtc_ex.c ****   *                the configuration information for RTC.    
1452:Drivers/STM32F7xx_HAL_Driver/Src/stm32f7xx_hal_rtc_ex.c ****   * @param  ShiftAdd1S Select to add or not 1 second to the time calendar.
1453:Drivers/STM32F7xx_HAL_Driver/Src/stm32f7xx_hal_rtc_ex.c ****   *          This parameter can be one of the following values :
1454:Drivers/STM32F7xx_HAL_Driver/Src/stm32f7xx_hal_rtc_ex.c ****   *             @arg RTC_SHIFTADD1S_SET: Add one second to the clock calendar. 
1455:Drivers/STM32F7xx_HAL_Driver/Src/stm32f7xx_hal_rtc_ex.c ****   *             @arg RTC_SHIFTADD1S_RESET: No effect.
1456:Drivers/STM32F7xx_HAL_Driver/Src/stm32f7xx_hal_rtc_ex.c ****   * @param  ShiftSubFS Select the number of Second Fractions to substitute.
1457:Drivers/STM32F7xx_HAL_Driver/Src/stm32f7xx_hal_rtc_ex.c ****   *          This parameter can be one any value from 0 to 0x7FFF.
1458:Drivers/STM32F7xx_HAL_Driver/Src/stm32f7xx_hal_rtc_ex.c ****   * @retval HAL status
1459:Drivers/STM32F7xx_HAL_Driver/Src/stm32f7xx_hal_rtc_ex.c ****   */
1460:Drivers/STM32F7xx_HAL_Driver/Src/stm32f7xx_hal_rtc_ex.c **** HAL_StatusTypeDef HAL_RTCEx_SetSynchroShift(RTC_HandleTypeDef* hrtc, uint32_t ShiftAdd1S, uint32_t 
1461:Drivers/STM32F7xx_HAL_Driver/Src/stm32f7xx_hal_rtc_ex.c **** {
 2382              		.loc 1 1461 0
 2383              		.cfi_startproc
 2384              		@ args = 0, pretend = 0, frame = 0
 2385              		@ frame_needed = 0, uses_anonymous_args = 0
 2386              	.LVL167:
 2387 0000 F8B5     		push	{r3, r4, r5, r6, r7, lr}
 2388              	.LCFI31:
 2389              		.cfi_def_cfa_offset 24
 2390              		.cfi_offset 3, -24
 2391              		.cfi_offset 4, -20
 2392              		.cfi_offset 5, -16
 2393              		.cfi_offset 6, -12
 2394              		.cfi_offset 7, -8
 2395              		.cfi_offset 14, -4
 2396              	.LVL168:
1462:Drivers/STM32F7xx_HAL_Driver/Src/stm32f7xx_hal_rtc_ex.c ****   uint32_t tickstart = 0;
1463:Drivers/STM32F7xx_HAL_Driver/Src/stm32f7xx_hal_rtc_ex.c **** 
1464:Drivers/STM32F7xx_HAL_Driver/Src/stm32f7xx_hal_rtc_ex.c ****   /* Check the parameters */
1465:Drivers/STM32F7xx_HAL_Driver/Src/stm32f7xx_hal_rtc_ex.c ****   assert_param(IS_RTC_SHIFT_ADD1S(ShiftAdd1S));
1466:Drivers/STM32F7xx_HAL_Driver/Src/stm32f7xx_hal_rtc_ex.c ****   assert_param(IS_RTC_SHIFT_SUBFS(ShiftSubFS));
1467:Drivers/STM32F7xx_HAL_Driver/Src/stm32f7xx_hal_rtc_ex.c **** 
1468:Drivers/STM32F7xx_HAL_Driver/Src/stm32f7xx_hal_rtc_ex.c ****   /* Process Locked */ 
1469:Drivers/STM32F7xx_HAL_Driver/Src/stm32f7xx_hal_rtc_ex.c ****   __HAL_LOCK(hrtc);
 2397              		.loc 1 1469 0
 2398 0002 037F     		ldrb	r3, [r0, #28]	@ zero_extendqisi2
 2399 0004 012B     		cmp	r3, #1
 2400 0006 01D1     		bne	.L197
 2401 0008 0220     		movs	r0, #2
 2402              	.LVL169:
ARM GAS  C:\Users\Student\AppData\Local\Temp\ccapU3Tb.s 			page 70


1470:Drivers/STM32F7xx_HAL_Driver/Src/stm32f7xx_hal_rtc_ex.c ****   
1471:Drivers/STM32F7xx_HAL_Driver/Src/stm32f7xx_hal_rtc_ex.c ****   hrtc->State = HAL_RTC_STATE_BUSY;
1472:Drivers/STM32F7xx_HAL_Driver/Src/stm32f7xx_hal_rtc_ex.c **** 
1473:Drivers/STM32F7xx_HAL_Driver/Src/stm32f7xx_hal_rtc_ex.c ****   /* Disable the write protection for RTC registers */
1474:Drivers/STM32F7xx_HAL_Driver/Src/stm32f7xx_hal_rtc_ex.c ****   __HAL_RTC_WRITEPROTECTION_DISABLE(hrtc);
1475:Drivers/STM32F7xx_HAL_Driver/Src/stm32f7xx_hal_rtc_ex.c **** 
1476:Drivers/STM32F7xx_HAL_Driver/Src/stm32f7xx_hal_rtc_ex.c ****   /* Get tick */
1477:Drivers/STM32F7xx_HAL_Driver/Src/stm32f7xx_hal_rtc_ex.c ****   tickstart = HAL_GetTick();
1478:Drivers/STM32F7xx_HAL_Driver/Src/stm32f7xx_hal_rtc_ex.c **** 
1479:Drivers/STM32F7xx_HAL_Driver/Src/stm32f7xx_hal_rtc_ex.c ****     /* Wait until the shift is completed*/
1480:Drivers/STM32F7xx_HAL_Driver/Src/stm32f7xx_hal_rtc_ex.c ****     while((hrtc->Instance->ISR & RTC_ISR_SHPF) != RESET)
1481:Drivers/STM32F7xx_HAL_Driver/Src/stm32f7xx_hal_rtc_ex.c ****     {
1482:Drivers/STM32F7xx_HAL_Driver/Src/stm32f7xx_hal_rtc_ex.c ****       if((HAL_GetTick() - tickstart ) > RTC_TIMEOUT_VALUE)
1483:Drivers/STM32F7xx_HAL_Driver/Src/stm32f7xx_hal_rtc_ex.c ****       {  
1484:Drivers/STM32F7xx_HAL_Driver/Src/stm32f7xx_hal_rtc_ex.c ****         /* Enable the write protection for RTC registers */
1485:Drivers/STM32F7xx_HAL_Driver/Src/stm32f7xx_hal_rtc_ex.c ****         __HAL_RTC_WRITEPROTECTION_ENABLE(hrtc);  
1486:Drivers/STM32F7xx_HAL_Driver/Src/stm32f7xx_hal_rtc_ex.c ****         
1487:Drivers/STM32F7xx_HAL_Driver/Src/stm32f7xx_hal_rtc_ex.c ****         hrtc->State = HAL_RTC_STATE_TIMEOUT;
1488:Drivers/STM32F7xx_HAL_Driver/Src/stm32f7xx_hal_rtc_ex.c ****         
1489:Drivers/STM32F7xx_HAL_Driver/Src/stm32f7xx_hal_rtc_ex.c ****         /* Process Unlocked */ 
1490:Drivers/STM32F7xx_HAL_Driver/Src/stm32f7xx_hal_rtc_ex.c ****         __HAL_UNLOCK(hrtc);
