ARM GAS  C:\Users\Student\AppData\Local\Temp\ccjpImAB.s 			page 1


   1              		.cpu cortex-m7
   2              		.eabi_attribute 27, 1
   3              		.eabi_attribute 28, 1
   4              		.eabi_attribute 20, 1
   5              		.eabi_attribute 21, 1
   6              		.eabi_attribute 23, 3
   7              		.eabi_attribute 24, 1
   8              		.eabi_attribute 25, 1
   9              		.eabi_attribute 26, 1
  10              		.eabi_attribute 30, 1
  11              		.eabi_attribute 34, 1
  12              		.eabi_attribute 18, 4
  13              		.file	"stm32f7xx_hal_hcd.c"
  14              		.text
  15              	.Ltext0:
  16              		.cfi_sections	.debug_frame
  17              		.section	.text.HCD_RXQLVL_IRQHandler,"ax",%progbits
  18              		.align	1
  19              		.syntax unified
  20              		.thumb
  21              		.thumb_func
  22              		.fpu fpv5-sp-d16
  24              	HCD_RXQLVL_IRQHandler:
  25              	.LFB161:
  26              		.file 1 "Drivers/STM32F7xx_HAL_Driver/Src/stm32f7xx_hal_hcd.c"
   1:Drivers/STM32F7xx_HAL_Driver/Src/stm32f7xx_hal_hcd.c **** /**
   2:Drivers/STM32F7xx_HAL_Driver/Src/stm32f7xx_hal_hcd.c ****   ******************************************************************************
   3:Drivers/STM32F7xx_HAL_Driver/Src/stm32f7xx_hal_hcd.c ****   * @file    stm32f7xx_hal_hcd.c
   4:Drivers/STM32F7xx_HAL_Driver/Src/stm32f7xx_hal_hcd.c ****   * @author  MCD Application Team
   5:Drivers/STM32F7xx_HAL_Driver/Src/stm32f7xx_hal_hcd.c ****   * @brief   HCD HAL module driver.
   6:Drivers/STM32F7xx_HAL_Driver/Src/stm32f7xx_hal_hcd.c ****   *          This file provides firmware functions to manage the following
   7:Drivers/STM32F7xx_HAL_Driver/Src/stm32f7xx_hal_hcd.c ****   *          functionalities of the USB Peripheral Controller:
   8:Drivers/STM32F7xx_HAL_Driver/Src/stm32f7xx_hal_hcd.c ****   *           + Initialization and de-initialization functions
   9:Drivers/STM32F7xx_HAL_Driver/Src/stm32f7xx_hal_hcd.c ****   *           + IO operation functions
  10:Drivers/STM32F7xx_HAL_Driver/Src/stm32f7xx_hal_hcd.c ****   *           + Peripheral Control functions
  11:Drivers/STM32F7xx_HAL_Driver/Src/stm32f7xx_hal_hcd.c ****   *           + Peripheral State functions
  12:Drivers/STM32F7xx_HAL_Driver/Src/stm32f7xx_hal_hcd.c ****   *
  13:Drivers/STM32F7xx_HAL_Driver/Src/stm32f7xx_hal_hcd.c ****   @verbatim
  14:Drivers/STM32F7xx_HAL_Driver/Src/stm32f7xx_hal_hcd.c ****   ==============================================================================
  15:Drivers/STM32F7xx_HAL_Driver/Src/stm32f7xx_hal_hcd.c ****                     ##### How to use this driver #####
  16:Drivers/STM32F7xx_HAL_Driver/Src/stm32f7xx_hal_hcd.c ****   ==============================================================================
  17:Drivers/STM32F7xx_HAL_Driver/Src/stm32f7xx_hal_hcd.c ****   [..]
  18:Drivers/STM32F7xx_HAL_Driver/Src/stm32f7xx_hal_hcd.c ****     (#)Declare a HCD_HandleTypeDef handle structure, for example:
  19:Drivers/STM32F7xx_HAL_Driver/Src/stm32f7xx_hal_hcd.c ****        HCD_HandleTypeDef  hhcd;
  20:Drivers/STM32F7xx_HAL_Driver/Src/stm32f7xx_hal_hcd.c **** 
  21:Drivers/STM32F7xx_HAL_Driver/Src/stm32f7xx_hal_hcd.c ****     (#)Fill parameters of Init structure in HCD handle
  22:Drivers/STM32F7xx_HAL_Driver/Src/stm32f7xx_hal_hcd.c **** 
  23:Drivers/STM32F7xx_HAL_Driver/Src/stm32f7xx_hal_hcd.c ****     (#)Call HAL_HCD_Init() API to initialize the HCD peripheral (Core, Host core, ...)
  24:Drivers/STM32F7xx_HAL_Driver/Src/stm32f7xx_hal_hcd.c **** 
  25:Drivers/STM32F7xx_HAL_Driver/Src/stm32f7xx_hal_hcd.c ****     (#)Initialize the HCD low level resources through the HAL_HCD_MspInit() API:
  26:Drivers/STM32F7xx_HAL_Driver/Src/stm32f7xx_hal_hcd.c ****         (##) Enable the HCD/USB Low Level interface clock using the following macros
  27:Drivers/STM32F7xx_HAL_Driver/Src/stm32f7xx_hal_hcd.c ****              (+++) __HAL_RCC_USB_OTG_FS_CLK_ENABLE();
  28:Drivers/STM32F7xx_HAL_Driver/Src/stm32f7xx_hal_hcd.c ****              (+++) __HAL_RCC_USB_OTG_HS_CLK_ENABLE(); (For High Speed Mode)
  29:Drivers/STM32F7xx_HAL_Driver/Src/stm32f7xx_hal_hcd.c ****              (+++) __HAL_RCC_USB_OTG_HS_ULPI_CLK_ENABLE(); (For High Speed Mode)
  30:Drivers/STM32F7xx_HAL_Driver/Src/stm32f7xx_hal_hcd.c **** 
  31:Drivers/STM32F7xx_HAL_Driver/Src/stm32f7xx_hal_hcd.c ****         (##) Initialize the related GPIO clocks
  32:Drivers/STM32F7xx_HAL_Driver/Src/stm32f7xx_hal_hcd.c ****         (##) Configure HCD pin-out
ARM GAS  C:\Users\Student\AppData\Local\Temp\ccjpImAB.s 			page 2


  33:Drivers/STM32F7xx_HAL_Driver/Src/stm32f7xx_hal_hcd.c ****         (##) Configure HCD NVIC interrupt
  34:Drivers/STM32F7xx_HAL_Driver/Src/stm32f7xx_hal_hcd.c **** 
  35:Drivers/STM32F7xx_HAL_Driver/Src/stm32f7xx_hal_hcd.c ****     (#)Associate the Upper USB Host stack to the HAL HCD Driver:
  36:Drivers/STM32F7xx_HAL_Driver/Src/stm32f7xx_hal_hcd.c ****         (##) hhcd.pData = phost;
  37:Drivers/STM32F7xx_HAL_Driver/Src/stm32f7xx_hal_hcd.c **** 
  38:Drivers/STM32F7xx_HAL_Driver/Src/stm32f7xx_hal_hcd.c ****     (#)Enable HCD transmission and reception:
  39:Drivers/STM32F7xx_HAL_Driver/Src/stm32f7xx_hal_hcd.c ****         (##) HAL_HCD_Start();
  40:Drivers/STM32F7xx_HAL_Driver/Src/stm32f7xx_hal_hcd.c **** 
  41:Drivers/STM32F7xx_HAL_Driver/Src/stm32f7xx_hal_hcd.c ****   @endverbatim
  42:Drivers/STM32F7xx_HAL_Driver/Src/stm32f7xx_hal_hcd.c ****   ******************************************************************************
  43:Drivers/STM32F7xx_HAL_Driver/Src/stm32f7xx_hal_hcd.c ****   * @attention
  44:Drivers/STM32F7xx_HAL_Driver/Src/stm32f7xx_hal_hcd.c ****   *
  45:Drivers/STM32F7xx_HAL_Driver/Src/stm32f7xx_hal_hcd.c ****   * <h2><center>&copy; COPYRIGHT(c) 2017 STMicroelectronics</center></h2>
  46:Drivers/STM32F7xx_HAL_Driver/Src/stm32f7xx_hal_hcd.c ****   *
  47:Drivers/STM32F7xx_HAL_Driver/Src/stm32f7xx_hal_hcd.c ****   * Redistribution and use in source and binary forms, with or without modification,
  48:Drivers/STM32F7xx_HAL_Driver/Src/stm32f7xx_hal_hcd.c ****   * are permitted provided that the following conditions are met:
  49:Drivers/STM32F7xx_HAL_Driver/Src/stm32f7xx_hal_hcd.c ****   *   1. Redistributions of source code must retain the above copyright notice,
  50:Drivers/STM32F7xx_HAL_Driver/Src/stm32f7xx_hal_hcd.c ****   *      this list of conditions and the following disclaimer.
  51:Drivers/STM32F7xx_HAL_Driver/Src/stm32f7xx_hal_hcd.c ****   *   2. Redistributions in binary form must reproduce the above copyright notice,
  52:Drivers/STM32F7xx_HAL_Driver/Src/stm32f7xx_hal_hcd.c ****   *      this list of conditions and the following disclaimer in the documentation
  53:Drivers/STM32F7xx_HAL_Driver/Src/stm32f7xx_hal_hcd.c ****   *      and/or other materials provided with the distribution.
  54:Drivers/STM32F7xx_HAL_Driver/Src/stm32f7xx_hal_hcd.c ****   *   3. Neither the name of STMicroelectronics nor the names of its contributors
  55:Drivers/STM32F7xx_HAL_Driver/Src/stm32f7xx_hal_hcd.c ****   *      may be used to endorse or promote products derived from this software
  56:Drivers/STM32F7xx_HAL_Driver/Src/stm32f7xx_hal_hcd.c ****   *      without specific prior written permission.
  57:Drivers/STM32F7xx_HAL_Driver/Src/stm32f7xx_hal_hcd.c ****   *
  58:Drivers/STM32F7xx_HAL_Driver/Src/stm32f7xx_hal_hcd.c ****   * THIS SOFTWARE IS PROVIDED BY THE COPYRIGHT HOLDERS AND CONTRIBUTORS "AS IS"
  59:Drivers/STM32F7xx_HAL_Driver/Src/stm32f7xx_hal_hcd.c ****   * AND ANY EXPRESS OR IMPLIED WARRANTIES, INCLUDING, BUT NOT LIMITED TO, THE
  60:Drivers/STM32F7xx_HAL_Driver/Src/stm32f7xx_hal_hcd.c ****   * IMPLIED WARRANTIES OF MERCHANTABILITY AND FITNESS FOR A PARTICULAR PURPOSE ARE
  61:Drivers/STM32F7xx_HAL_Driver/Src/stm32f7xx_hal_hcd.c ****   * DISCLAIMED. IN NO EVENT SHALL THE COPYRIGHT HOLDER OR CONTRIBUTORS BE LIABLE
  62:Drivers/STM32F7xx_HAL_Driver/Src/stm32f7xx_hal_hcd.c ****   * FOR ANY DIRECT, INDIRECT, INCIDENTAL, SPECIAL, EXEMPLARY, OR CONSEQUENTIAL
  63:Drivers/STM32F7xx_HAL_Driver/Src/stm32f7xx_hal_hcd.c ****   * DAMAGES (INCLUDING, BUT NOT LIMITED TO, PROCUREMENT OF SUBSTITUTE GOODS OR
  64:Drivers/STM32F7xx_HAL_Driver/Src/stm32f7xx_hal_hcd.c ****   * SERVICES; LOSS OF USE, DATA, OR PROFITS; OR BUSINESS INTERRUPTION) HOWEVER
  65:Drivers/STM32F7xx_HAL_Driver/Src/stm32f7xx_hal_hcd.c ****   * CAUSED AND ON ANY THEORY OF LIABILITY, WHETHER IN CONTRACT, STRICT LIABILITY,
  66:Drivers/STM32F7xx_HAL_Driver/Src/stm32f7xx_hal_hcd.c ****   * OR TORT (INCLUDING NEGLIGENCE OR OTHERWISE) ARISING IN ANY WAY OUT OF THE USE
  67:Drivers/STM32F7xx_HAL_Driver/Src/stm32f7xx_hal_hcd.c ****   * OF THIS SOFTWARE, EVEN IF ADVISED OF THE POSSIBILITY OF SUCH DAMAGE.
  68:Drivers/STM32F7xx_HAL_Driver/Src/stm32f7xx_hal_hcd.c ****   *
  69:Drivers/STM32F7xx_HAL_Driver/Src/stm32f7xx_hal_hcd.c ****   ******************************************************************************
  70:Drivers/STM32F7xx_HAL_Driver/Src/stm32f7xx_hal_hcd.c ****   */
  71:Drivers/STM32F7xx_HAL_Driver/Src/stm32f7xx_hal_hcd.c **** 
  72:Drivers/STM32F7xx_HAL_Driver/Src/stm32f7xx_hal_hcd.c **** /* Includes ------------------------------------------------------------------*/
  73:Drivers/STM32F7xx_HAL_Driver/Src/stm32f7xx_hal_hcd.c **** #include "stm32f7xx_hal.h"
  74:Drivers/STM32F7xx_HAL_Driver/Src/stm32f7xx_hal_hcd.c **** 
  75:Drivers/STM32F7xx_HAL_Driver/Src/stm32f7xx_hal_hcd.c **** /** @addtogroup STM32F7xx_HAL_Driver
  76:Drivers/STM32F7xx_HAL_Driver/Src/stm32f7xx_hal_hcd.c ****   * @{
  77:Drivers/STM32F7xx_HAL_Driver/Src/stm32f7xx_hal_hcd.c ****   */
  78:Drivers/STM32F7xx_HAL_Driver/Src/stm32f7xx_hal_hcd.c **** 
  79:Drivers/STM32F7xx_HAL_Driver/Src/stm32f7xx_hal_hcd.c **** /** @defgroup HCD HCD
  80:Drivers/STM32F7xx_HAL_Driver/Src/stm32f7xx_hal_hcd.c ****   * @brief HCD HAL module driver
  81:Drivers/STM32F7xx_HAL_Driver/Src/stm32f7xx_hal_hcd.c ****   * @{
  82:Drivers/STM32F7xx_HAL_Driver/Src/stm32f7xx_hal_hcd.c ****   */
  83:Drivers/STM32F7xx_HAL_Driver/Src/stm32f7xx_hal_hcd.c **** 
  84:Drivers/STM32F7xx_HAL_Driver/Src/stm32f7xx_hal_hcd.c **** #ifdef HAL_HCD_MODULE_ENABLED
  85:Drivers/STM32F7xx_HAL_Driver/Src/stm32f7xx_hal_hcd.c **** 
  86:Drivers/STM32F7xx_HAL_Driver/Src/stm32f7xx_hal_hcd.c **** /* Private typedef -----------------------------------------------------------*/
  87:Drivers/STM32F7xx_HAL_Driver/Src/stm32f7xx_hal_hcd.c **** /* Private define ------------------------------------------------------------*/
  88:Drivers/STM32F7xx_HAL_Driver/Src/stm32f7xx_hal_hcd.c **** /* Private macro -------------------------------------------------------------*/
  89:Drivers/STM32F7xx_HAL_Driver/Src/stm32f7xx_hal_hcd.c **** /* Private variables ---------------------------------------------------------*/
ARM GAS  C:\Users\Student\AppData\Local\Temp\ccjpImAB.s 			page 3


  90:Drivers/STM32F7xx_HAL_Driver/Src/stm32f7xx_hal_hcd.c **** /* Private function prototypes -----------------------------------------------*/
  91:Drivers/STM32F7xx_HAL_Driver/Src/stm32f7xx_hal_hcd.c **** /** @defgroup HCD_Private_Functions HCD Private Functions
  92:Drivers/STM32F7xx_HAL_Driver/Src/stm32f7xx_hal_hcd.c ****   * @{
  93:Drivers/STM32F7xx_HAL_Driver/Src/stm32f7xx_hal_hcd.c ****   */
  94:Drivers/STM32F7xx_HAL_Driver/Src/stm32f7xx_hal_hcd.c **** static void HCD_HC_IN_IRQHandler(HCD_HandleTypeDef *hhcd, uint8_t chnum);
  95:Drivers/STM32F7xx_HAL_Driver/Src/stm32f7xx_hal_hcd.c **** static void HCD_HC_OUT_IRQHandler(HCD_HandleTypeDef *hhcd, uint8_t chnum);
  96:Drivers/STM32F7xx_HAL_Driver/Src/stm32f7xx_hal_hcd.c **** static void HCD_RXQLVL_IRQHandler(HCD_HandleTypeDef *hhcd);
  97:Drivers/STM32F7xx_HAL_Driver/Src/stm32f7xx_hal_hcd.c **** static void HCD_Port_IRQHandler(HCD_HandleTypeDef *hhcd);
  98:Drivers/STM32F7xx_HAL_Driver/Src/stm32f7xx_hal_hcd.c **** /**
  99:Drivers/STM32F7xx_HAL_Driver/Src/stm32f7xx_hal_hcd.c ****   * @}
 100:Drivers/STM32F7xx_HAL_Driver/Src/stm32f7xx_hal_hcd.c ****   */
 101:Drivers/STM32F7xx_HAL_Driver/Src/stm32f7xx_hal_hcd.c **** 
 102:Drivers/STM32F7xx_HAL_Driver/Src/stm32f7xx_hal_hcd.c **** /* Exported functions --------------------------------------------------------*/
 103:Drivers/STM32F7xx_HAL_Driver/Src/stm32f7xx_hal_hcd.c **** /** @defgroup HCD_Exported_Functions HCD Exported Functions
 104:Drivers/STM32F7xx_HAL_Driver/Src/stm32f7xx_hal_hcd.c ****   * @{
 105:Drivers/STM32F7xx_HAL_Driver/Src/stm32f7xx_hal_hcd.c ****   */
 106:Drivers/STM32F7xx_HAL_Driver/Src/stm32f7xx_hal_hcd.c **** 
 107:Drivers/STM32F7xx_HAL_Driver/Src/stm32f7xx_hal_hcd.c **** /** @defgroup HCD_Exported_Functions_Group1 Initialization and de-initialization functions
 108:Drivers/STM32F7xx_HAL_Driver/Src/stm32f7xx_hal_hcd.c ****  *  @brief    Initialization and Configuration functions
 109:Drivers/STM32F7xx_HAL_Driver/Src/stm32f7xx_hal_hcd.c ****  *
 110:Drivers/STM32F7xx_HAL_Driver/Src/stm32f7xx_hal_hcd.c **** @verbatim
 111:Drivers/STM32F7xx_HAL_Driver/Src/stm32f7xx_hal_hcd.c ****  ===============================================================================
 112:Drivers/STM32F7xx_HAL_Driver/Src/stm32f7xx_hal_hcd.c ****           ##### Initialization and de-initialization functions #####
 113:Drivers/STM32F7xx_HAL_Driver/Src/stm32f7xx_hal_hcd.c ****  ===============================================================================
 114:Drivers/STM32F7xx_HAL_Driver/Src/stm32f7xx_hal_hcd.c ****     [..]  This section provides functions allowing to:
 115:Drivers/STM32F7xx_HAL_Driver/Src/stm32f7xx_hal_hcd.c **** 
 116:Drivers/STM32F7xx_HAL_Driver/Src/stm32f7xx_hal_hcd.c **** @endverbatim
 117:Drivers/STM32F7xx_HAL_Driver/Src/stm32f7xx_hal_hcd.c ****   * @{
 118:Drivers/STM32F7xx_HAL_Driver/Src/stm32f7xx_hal_hcd.c ****   */
 119:Drivers/STM32F7xx_HAL_Driver/Src/stm32f7xx_hal_hcd.c **** 
 120:Drivers/STM32F7xx_HAL_Driver/Src/stm32f7xx_hal_hcd.c **** /**
 121:Drivers/STM32F7xx_HAL_Driver/Src/stm32f7xx_hal_hcd.c ****   * @brief  Initialize the host driver.
 122:Drivers/STM32F7xx_HAL_Driver/Src/stm32f7xx_hal_hcd.c ****   * @param  hhcd HCD handle
 123:Drivers/STM32F7xx_HAL_Driver/Src/stm32f7xx_hal_hcd.c ****   * @retval HAL status
 124:Drivers/STM32F7xx_HAL_Driver/Src/stm32f7xx_hal_hcd.c ****   */
 125:Drivers/STM32F7xx_HAL_Driver/Src/stm32f7xx_hal_hcd.c **** HAL_StatusTypeDef HAL_HCD_Init(HCD_HandleTypeDef *hhcd)
 126:Drivers/STM32F7xx_HAL_Driver/Src/stm32f7xx_hal_hcd.c **** {
 127:Drivers/STM32F7xx_HAL_Driver/Src/stm32f7xx_hal_hcd.c ****   /* Check the HCD handle allocation */
 128:Drivers/STM32F7xx_HAL_Driver/Src/stm32f7xx_hal_hcd.c ****   if(hhcd == NULL)
 129:Drivers/STM32F7xx_HAL_Driver/Src/stm32f7xx_hal_hcd.c ****   {
 130:Drivers/STM32F7xx_HAL_Driver/Src/stm32f7xx_hal_hcd.c ****     return HAL_ERROR;
 131:Drivers/STM32F7xx_HAL_Driver/Src/stm32f7xx_hal_hcd.c ****   }
 132:Drivers/STM32F7xx_HAL_Driver/Src/stm32f7xx_hal_hcd.c **** 
 133:Drivers/STM32F7xx_HAL_Driver/Src/stm32f7xx_hal_hcd.c ****   /* Check the parameters */
 134:Drivers/STM32F7xx_HAL_Driver/Src/stm32f7xx_hal_hcd.c ****   assert_param(IS_HCD_ALL_INSTANCE(hhcd->Instance));
 135:Drivers/STM32F7xx_HAL_Driver/Src/stm32f7xx_hal_hcd.c **** 
 136:Drivers/STM32F7xx_HAL_Driver/Src/stm32f7xx_hal_hcd.c ****   if(hhcd->State == HAL_HCD_STATE_RESET)
 137:Drivers/STM32F7xx_HAL_Driver/Src/stm32f7xx_hal_hcd.c ****   {
 138:Drivers/STM32F7xx_HAL_Driver/Src/stm32f7xx_hal_hcd.c ****     /* Allocate lock resource and initialize it */
 139:Drivers/STM32F7xx_HAL_Driver/Src/stm32f7xx_hal_hcd.c ****     hhcd->Lock = HAL_UNLOCKED;
 140:Drivers/STM32F7xx_HAL_Driver/Src/stm32f7xx_hal_hcd.c **** 
 141:Drivers/STM32F7xx_HAL_Driver/Src/stm32f7xx_hal_hcd.c ****     /* Init the low level hardware : GPIO, CLOCK, NVIC... */
 142:Drivers/STM32F7xx_HAL_Driver/Src/stm32f7xx_hal_hcd.c ****     HAL_HCD_MspInit(hhcd);
 143:Drivers/STM32F7xx_HAL_Driver/Src/stm32f7xx_hal_hcd.c ****   }
 144:Drivers/STM32F7xx_HAL_Driver/Src/stm32f7xx_hal_hcd.c **** 
 145:Drivers/STM32F7xx_HAL_Driver/Src/stm32f7xx_hal_hcd.c ****   hhcd->State = HAL_HCD_STATE_BUSY;
 146:Drivers/STM32F7xx_HAL_Driver/Src/stm32f7xx_hal_hcd.c **** 
ARM GAS  C:\Users\Student\AppData\Local\Temp\ccjpImAB.s 			page 4


 147:Drivers/STM32F7xx_HAL_Driver/Src/stm32f7xx_hal_hcd.c ****   /* Disable the Interrupts */
 148:Drivers/STM32F7xx_HAL_Driver/Src/stm32f7xx_hal_hcd.c ****   __HAL_HCD_DISABLE(hhcd);
 149:Drivers/STM32F7xx_HAL_Driver/Src/stm32f7xx_hal_hcd.c **** 
 150:Drivers/STM32F7xx_HAL_Driver/Src/stm32f7xx_hal_hcd.c ****   /* Init the Core (common init.) */
 151:Drivers/STM32F7xx_HAL_Driver/Src/stm32f7xx_hal_hcd.c ****   (void)USB_CoreInit(hhcd->Instance, hhcd->Init);
 152:Drivers/STM32F7xx_HAL_Driver/Src/stm32f7xx_hal_hcd.c **** 
 153:Drivers/STM32F7xx_HAL_Driver/Src/stm32f7xx_hal_hcd.c ****   /* Force Host Mode*/
 154:Drivers/STM32F7xx_HAL_Driver/Src/stm32f7xx_hal_hcd.c ****   (void)USB_SetCurrentMode(hhcd->Instance, USB_HOST_MODE);
 155:Drivers/STM32F7xx_HAL_Driver/Src/stm32f7xx_hal_hcd.c **** 
 156:Drivers/STM32F7xx_HAL_Driver/Src/stm32f7xx_hal_hcd.c ****   /* Init Host */
 157:Drivers/STM32F7xx_HAL_Driver/Src/stm32f7xx_hal_hcd.c ****   (void)USB_HostInit(hhcd->Instance, hhcd->Init);
 158:Drivers/STM32F7xx_HAL_Driver/Src/stm32f7xx_hal_hcd.c **** 
 159:Drivers/STM32F7xx_HAL_Driver/Src/stm32f7xx_hal_hcd.c ****   hhcd->State= HAL_HCD_STATE_READY;
 160:Drivers/STM32F7xx_HAL_Driver/Src/stm32f7xx_hal_hcd.c **** 
 161:Drivers/STM32F7xx_HAL_Driver/Src/stm32f7xx_hal_hcd.c ****   return HAL_OK;
 162:Drivers/STM32F7xx_HAL_Driver/Src/stm32f7xx_hal_hcd.c **** }
 163:Drivers/STM32F7xx_HAL_Driver/Src/stm32f7xx_hal_hcd.c **** 
 164:Drivers/STM32F7xx_HAL_Driver/Src/stm32f7xx_hal_hcd.c **** /**
 165:Drivers/STM32F7xx_HAL_Driver/Src/stm32f7xx_hal_hcd.c ****   * @brief  Initialize a host channel.
 166:Drivers/STM32F7xx_HAL_Driver/Src/stm32f7xx_hal_hcd.c ****   * @param  hhcd HCD handle
 167:Drivers/STM32F7xx_HAL_Driver/Src/stm32f7xx_hal_hcd.c ****   * @param  ch_num Channel number.
 168:Drivers/STM32F7xx_HAL_Driver/Src/stm32f7xx_hal_hcd.c ****   *         This parameter can be a value from 1 to 15
 169:Drivers/STM32F7xx_HAL_Driver/Src/stm32f7xx_hal_hcd.c ****   * @param  epnum Endpoint number.
 170:Drivers/STM32F7xx_HAL_Driver/Src/stm32f7xx_hal_hcd.c ****   *          This parameter can be a value from 1 to 15
 171:Drivers/STM32F7xx_HAL_Driver/Src/stm32f7xx_hal_hcd.c ****   * @param  dev_address Current device address
 172:Drivers/STM32F7xx_HAL_Driver/Src/stm32f7xx_hal_hcd.c ****   *          This parameter can be a value from 0 to 255
 173:Drivers/STM32F7xx_HAL_Driver/Src/stm32f7xx_hal_hcd.c ****   * @param  speed Current device speed.
 174:Drivers/STM32F7xx_HAL_Driver/Src/stm32f7xx_hal_hcd.c ****   *          This parameter can be one of these values:
 175:Drivers/STM32F7xx_HAL_Driver/Src/stm32f7xx_hal_hcd.c ****   *            HCD_SPEED_HIGH: High speed mode,
 176:Drivers/STM32F7xx_HAL_Driver/Src/stm32f7xx_hal_hcd.c ****   *            HCD_SPEED_FULL: Full speed mode,
 177:Drivers/STM32F7xx_HAL_Driver/Src/stm32f7xx_hal_hcd.c ****   *            HCD_SPEED_LOW: Low speed mode
 178:Drivers/STM32F7xx_HAL_Driver/Src/stm32f7xx_hal_hcd.c ****   * @param  ep_type Endpoint Type.
 179:Drivers/STM32F7xx_HAL_Driver/Src/stm32f7xx_hal_hcd.c ****   *          This parameter can be one of these values:
 180:Drivers/STM32F7xx_HAL_Driver/Src/stm32f7xx_hal_hcd.c ****   *            EP_TYPE_CTRL: Control type,
 181:Drivers/STM32F7xx_HAL_Driver/Src/stm32f7xx_hal_hcd.c ****   *            EP_TYPE_ISOC: Isochronous type,
 182:Drivers/STM32F7xx_HAL_Driver/Src/stm32f7xx_hal_hcd.c ****   *            EP_TYPE_BULK: Bulk type,
 183:Drivers/STM32F7xx_HAL_Driver/Src/stm32f7xx_hal_hcd.c ****   *            EP_TYPE_INTR: Interrupt type
 184:Drivers/STM32F7xx_HAL_Driver/Src/stm32f7xx_hal_hcd.c ****   * @param  mps Max Packet Size.
 185:Drivers/STM32F7xx_HAL_Driver/Src/stm32f7xx_hal_hcd.c ****   *          This parameter can be a value from 0 to32K
 186:Drivers/STM32F7xx_HAL_Driver/Src/stm32f7xx_hal_hcd.c ****   * @retval HAL status
 187:Drivers/STM32F7xx_HAL_Driver/Src/stm32f7xx_hal_hcd.c ****   */
 188:Drivers/STM32F7xx_HAL_Driver/Src/stm32f7xx_hal_hcd.c **** HAL_StatusTypeDef HAL_HCD_HC_Init(HCD_HandleTypeDef *hhcd,
 189:Drivers/STM32F7xx_HAL_Driver/Src/stm32f7xx_hal_hcd.c ****                                   uint8_t ch_num,
 190:Drivers/STM32F7xx_HAL_Driver/Src/stm32f7xx_hal_hcd.c ****                                   uint8_t epnum,
 191:Drivers/STM32F7xx_HAL_Driver/Src/stm32f7xx_hal_hcd.c ****                                   uint8_t dev_address,
 192:Drivers/STM32F7xx_HAL_Driver/Src/stm32f7xx_hal_hcd.c ****                                   uint8_t speed,
 193:Drivers/STM32F7xx_HAL_Driver/Src/stm32f7xx_hal_hcd.c ****                                   uint8_t ep_type,
 194:Drivers/STM32F7xx_HAL_Driver/Src/stm32f7xx_hal_hcd.c ****                                   uint16_t mps)
 195:Drivers/STM32F7xx_HAL_Driver/Src/stm32f7xx_hal_hcd.c **** {
 196:Drivers/STM32F7xx_HAL_Driver/Src/stm32f7xx_hal_hcd.c ****   HAL_StatusTypeDef status;
 197:Drivers/STM32F7xx_HAL_Driver/Src/stm32f7xx_hal_hcd.c **** 
 198:Drivers/STM32F7xx_HAL_Driver/Src/stm32f7xx_hal_hcd.c ****   __HAL_LOCK(hhcd);
 199:Drivers/STM32F7xx_HAL_Driver/Src/stm32f7xx_hal_hcd.c ****   hhcd->hc[ch_num].do_ping = 0U;
 200:Drivers/STM32F7xx_HAL_Driver/Src/stm32f7xx_hal_hcd.c ****   hhcd->hc[ch_num].dev_addr = dev_address;
 201:Drivers/STM32F7xx_HAL_Driver/Src/stm32f7xx_hal_hcd.c ****   hhcd->hc[ch_num].max_packet = mps;
 202:Drivers/STM32F7xx_HAL_Driver/Src/stm32f7xx_hal_hcd.c ****   hhcd->hc[ch_num].ch_num = ch_num;
 203:Drivers/STM32F7xx_HAL_Driver/Src/stm32f7xx_hal_hcd.c ****   hhcd->hc[ch_num].ep_type = ep_type;
ARM GAS  C:\Users\Student\AppData\Local\Temp\ccjpImAB.s 			page 5


 204:Drivers/STM32F7xx_HAL_Driver/Src/stm32f7xx_hal_hcd.c ****   hhcd->hc[ch_num].ep_num = epnum & 0x7FU;
 205:Drivers/STM32F7xx_HAL_Driver/Src/stm32f7xx_hal_hcd.c **** 
 206:Drivers/STM32F7xx_HAL_Driver/Src/stm32f7xx_hal_hcd.c ****   if ((epnum & 0x80U) == 0x80U)
 207:Drivers/STM32F7xx_HAL_Driver/Src/stm32f7xx_hal_hcd.c ****   {
 208:Drivers/STM32F7xx_HAL_Driver/Src/stm32f7xx_hal_hcd.c ****     hhcd->hc[ch_num].ep_is_in = 1U;
 209:Drivers/STM32F7xx_HAL_Driver/Src/stm32f7xx_hal_hcd.c ****   }
 210:Drivers/STM32F7xx_HAL_Driver/Src/stm32f7xx_hal_hcd.c ****   else
 211:Drivers/STM32F7xx_HAL_Driver/Src/stm32f7xx_hal_hcd.c ****   {
 212:Drivers/STM32F7xx_HAL_Driver/Src/stm32f7xx_hal_hcd.c ****     hhcd->hc[ch_num].ep_is_in = 0U;
 213:Drivers/STM32F7xx_HAL_Driver/Src/stm32f7xx_hal_hcd.c ****   }
 214:Drivers/STM32F7xx_HAL_Driver/Src/stm32f7xx_hal_hcd.c **** 
 215:Drivers/STM32F7xx_HAL_Driver/Src/stm32f7xx_hal_hcd.c ****   hhcd->hc[ch_num].speed = speed;
 216:Drivers/STM32F7xx_HAL_Driver/Src/stm32f7xx_hal_hcd.c **** 
 217:Drivers/STM32F7xx_HAL_Driver/Src/stm32f7xx_hal_hcd.c ****   status =  USB_HC_Init(hhcd->Instance,
 218:Drivers/STM32F7xx_HAL_Driver/Src/stm32f7xx_hal_hcd.c ****                         ch_num,
 219:Drivers/STM32F7xx_HAL_Driver/Src/stm32f7xx_hal_hcd.c ****                         epnum,
 220:Drivers/STM32F7xx_HAL_Driver/Src/stm32f7xx_hal_hcd.c ****                         dev_address,
 221:Drivers/STM32F7xx_HAL_Driver/Src/stm32f7xx_hal_hcd.c ****                         speed,
 222:Drivers/STM32F7xx_HAL_Driver/Src/stm32f7xx_hal_hcd.c ****                         ep_type,
 223:Drivers/STM32F7xx_HAL_Driver/Src/stm32f7xx_hal_hcd.c ****                         mps);
 224:Drivers/STM32F7xx_HAL_Driver/Src/stm32f7xx_hal_hcd.c ****   __HAL_UNLOCK(hhcd);
 225:Drivers/STM32F7xx_HAL_Driver/Src/stm32f7xx_hal_hcd.c **** 
 226:Drivers/STM32F7xx_HAL_Driver/Src/stm32f7xx_hal_hcd.c ****   return status;
 227:Drivers/STM32F7xx_HAL_Driver/Src/stm32f7xx_hal_hcd.c **** }
 228:Drivers/STM32F7xx_HAL_Driver/Src/stm32f7xx_hal_hcd.c **** 
 229:Drivers/STM32F7xx_HAL_Driver/Src/stm32f7xx_hal_hcd.c **** /**
 230:Drivers/STM32F7xx_HAL_Driver/Src/stm32f7xx_hal_hcd.c ****   * @brief  Halt a host channel.
 231:Drivers/STM32F7xx_HAL_Driver/Src/stm32f7xx_hal_hcd.c ****   * @param  hhcd HCD handle
 232:Drivers/STM32F7xx_HAL_Driver/Src/stm32f7xx_hal_hcd.c ****   * @param  ch_num Channel number.
 233:Drivers/STM32F7xx_HAL_Driver/Src/stm32f7xx_hal_hcd.c ****   *         This parameter can be a value from 1 to 15
 234:Drivers/STM32F7xx_HAL_Driver/Src/stm32f7xx_hal_hcd.c ****   * @retval HAL status
 235:Drivers/STM32F7xx_HAL_Driver/Src/stm32f7xx_hal_hcd.c ****   */
 236:Drivers/STM32F7xx_HAL_Driver/Src/stm32f7xx_hal_hcd.c **** HAL_StatusTypeDef HAL_HCD_HC_Halt(HCD_HandleTypeDef *hhcd, uint8_t ch_num)
 237:Drivers/STM32F7xx_HAL_Driver/Src/stm32f7xx_hal_hcd.c **** {
 238:Drivers/STM32F7xx_HAL_Driver/Src/stm32f7xx_hal_hcd.c ****   HAL_StatusTypeDef status = HAL_OK;
 239:Drivers/STM32F7xx_HAL_Driver/Src/stm32f7xx_hal_hcd.c **** 
 240:Drivers/STM32F7xx_HAL_Driver/Src/stm32f7xx_hal_hcd.c ****   __HAL_LOCK(hhcd);
 241:Drivers/STM32F7xx_HAL_Driver/Src/stm32f7xx_hal_hcd.c ****   (void)USB_HC_Halt(hhcd->Instance, (uint8_t)ch_num);
 242:Drivers/STM32F7xx_HAL_Driver/Src/stm32f7xx_hal_hcd.c ****   __HAL_UNLOCK(hhcd);
 243:Drivers/STM32F7xx_HAL_Driver/Src/stm32f7xx_hal_hcd.c **** 
 244:Drivers/STM32F7xx_HAL_Driver/Src/stm32f7xx_hal_hcd.c ****   return status;
 245:Drivers/STM32F7xx_HAL_Driver/Src/stm32f7xx_hal_hcd.c **** }
 246:Drivers/STM32F7xx_HAL_Driver/Src/stm32f7xx_hal_hcd.c **** 
 247:Drivers/STM32F7xx_HAL_Driver/Src/stm32f7xx_hal_hcd.c **** /**
 248:Drivers/STM32F7xx_HAL_Driver/Src/stm32f7xx_hal_hcd.c ****   * @brief  DeInitialize the host driver.
 249:Drivers/STM32F7xx_HAL_Driver/Src/stm32f7xx_hal_hcd.c ****   * @param  hhcd HCD handle
 250:Drivers/STM32F7xx_HAL_Driver/Src/stm32f7xx_hal_hcd.c ****   * @retval HAL status
 251:Drivers/STM32F7xx_HAL_Driver/Src/stm32f7xx_hal_hcd.c ****   */
 252:Drivers/STM32F7xx_HAL_Driver/Src/stm32f7xx_hal_hcd.c **** HAL_StatusTypeDef HAL_HCD_DeInit(HCD_HandleTypeDef *hhcd)
 253:Drivers/STM32F7xx_HAL_Driver/Src/stm32f7xx_hal_hcd.c **** {
 254:Drivers/STM32F7xx_HAL_Driver/Src/stm32f7xx_hal_hcd.c ****   /* Check the HCD handle allocation */
 255:Drivers/STM32F7xx_HAL_Driver/Src/stm32f7xx_hal_hcd.c ****   if(hhcd == NULL)
 256:Drivers/STM32F7xx_HAL_Driver/Src/stm32f7xx_hal_hcd.c ****   {
 257:Drivers/STM32F7xx_HAL_Driver/Src/stm32f7xx_hal_hcd.c ****     return HAL_ERROR;
 258:Drivers/STM32F7xx_HAL_Driver/Src/stm32f7xx_hal_hcd.c ****   }
 259:Drivers/STM32F7xx_HAL_Driver/Src/stm32f7xx_hal_hcd.c **** 
 260:Drivers/STM32F7xx_HAL_Driver/Src/stm32f7xx_hal_hcd.c ****   hhcd->State = HAL_HCD_STATE_BUSY;
ARM GAS  C:\Users\Student\AppData\Local\Temp\ccjpImAB.s 			page 6


 261:Drivers/STM32F7xx_HAL_Driver/Src/stm32f7xx_hal_hcd.c **** 
 262:Drivers/STM32F7xx_HAL_Driver/Src/stm32f7xx_hal_hcd.c ****   /* DeInit the low level hardware */
 263:Drivers/STM32F7xx_HAL_Driver/Src/stm32f7xx_hal_hcd.c ****   HAL_HCD_MspDeInit(hhcd);
 264:Drivers/STM32F7xx_HAL_Driver/Src/stm32f7xx_hal_hcd.c **** 
 265:Drivers/STM32F7xx_HAL_Driver/Src/stm32f7xx_hal_hcd.c ****   __HAL_HCD_DISABLE(hhcd);
 266:Drivers/STM32F7xx_HAL_Driver/Src/stm32f7xx_hal_hcd.c **** 
 267:Drivers/STM32F7xx_HAL_Driver/Src/stm32f7xx_hal_hcd.c ****   hhcd->State = HAL_HCD_STATE_RESET;
 268:Drivers/STM32F7xx_HAL_Driver/Src/stm32f7xx_hal_hcd.c **** 
 269:Drivers/STM32F7xx_HAL_Driver/Src/stm32f7xx_hal_hcd.c ****   return HAL_OK;
 270:Drivers/STM32F7xx_HAL_Driver/Src/stm32f7xx_hal_hcd.c **** }
 271:Drivers/STM32F7xx_HAL_Driver/Src/stm32f7xx_hal_hcd.c **** 
 272:Drivers/STM32F7xx_HAL_Driver/Src/stm32f7xx_hal_hcd.c **** /**
 273:Drivers/STM32F7xx_HAL_Driver/Src/stm32f7xx_hal_hcd.c ****   * @brief  Initialize the HCD MSP.
 274:Drivers/STM32F7xx_HAL_Driver/Src/stm32f7xx_hal_hcd.c ****   * @param  hhcd HCD handle
 275:Drivers/STM32F7xx_HAL_Driver/Src/stm32f7xx_hal_hcd.c ****   * @retval None
 276:Drivers/STM32F7xx_HAL_Driver/Src/stm32f7xx_hal_hcd.c ****   */
 277:Drivers/STM32F7xx_HAL_Driver/Src/stm32f7xx_hal_hcd.c **** __weak void  HAL_HCD_MspInit(HCD_HandleTypeDef *hhcd)
 278:Drivers/STM32F7xx_HAL_Driver/Src/stm32f7xx_hal_hcd.c **** {
 279:Drivers/STM32F7xx_HAL_Driver/Src/stm32f7xx_hal_hcd.c ****   /* Prevent unused argument(s) compilation warning */
 280:Drivers/STM32F7xx_HAL_Driver/Src/stm32f7xx_hal_hcd.c ****   UNUSED(hhcd);
 281:Drivers/STM32F7xx_HAL_Driver/Src/stm32f7xx_hal_hcd.c **** 
 282:Drivers/STM32F7xx_HAL_Driver/Src/stm32f7xx_hal_hcd.c ****   /* NOTE : This function should not be modified, when the callback is needed,
 283:Drivers/STM32F7xx_HAL_Driver/Src/stm32f7xx_hal_hcd.c ****             the HAL_HCD_MspInit could be implemented in the user file
 284:Drivers/STM32F7xx_HAL_Driver/Src/stm32f7xx_hal_hcd.c ****    */
 285:Drivers/STM32F7xx_HAL_Driver/Src/stm32f7xx_hal_hcd.c **** }
 286:Drivers/STM32F7xx_HAL_Driver/Src/stm32f7xx_hal_hcd.c **** 
 287:Drivers/STM32F7xx_HAL_Driver/Src/stm32f7xx_hal_hcd.c **** /**
 288:Drivers/STM32F7xx_HAL_Driver/Src/stm32f7xx_hal_hcd.c ****   * @brief  DeInitialize the HCD MSP.
 289:Drivers/STM32F7xx_HAL_Driver/Src/stm32f7xx_hal_hcd.c ****   * @param  hhcd HCD handle
 290:Drivers/STM32F7xx_HAL_Driver/Src/stm32f7xx_hal_hcd.c ****   * @retval None
 291:Drivers/STM32F7xx_HAL_Driver/Src/stm32f7xx_hal_hcd.c ****   */
 292:Drivers/STM32F7xx_HAL_Driver/Src/stm32f7xx_hal_hcd.c **** __weak void  HAL_HCD_MspDeInit(HCD_HandleTypeDef *hhcd)
 293:Drivers/STM32F7xx_HAL_Driver/Src/stm32f7xx_hal_hcd.c **** {
 294:Drivers/STM32F7xx_HAL_Driver/Src/stm32f7xx_hal_hcd.c ****   /* Prevent unused argument(s) compilation warning */
 295:Drivers/STM32F7xx_HAL_Driver/Src/stm32f7xx_hal_hcd.c ****   UNUSED(hhcd);
 296:Drivers/STM32F7xx_HAL_Driver/Src/stm32f7xx_hal_hcd.c **** 
 297:Drivers/STM32F7xx_HAL_Driver/Src/stm32f7xx_hal_hcd.c ****   /* NOTE : This function should not be modified, when the callback is needed,
 298:Drivers/STM32F7xx_HAL_Driver/Src/stm32f7xx_hal_hcd.c ****             the HAL_HCD_MspDeInit could be implemented in the user file
 299:Drivers/STM32F7xx_HAL_Driver/Src/stm32f7xx_hal_hcd.c ****    */
 300:Drivers/STM32F7xx_HAL_Driver/Src/stm32f7xx_hal_hcd.c **** }
 301:Drivers/STM32F7xx_HAL_Driver/Src/stm32f7xx_hal_hcd.c **** 
 302:Drivers/STM32F7xx_HAL_Driver/Src/stm32f7xx_hal_hcd.c **** /**
 303:Drivers/STM32F7xx_HAL_Driver/Src/stm32f7xx_hal_hcd.c ****   * @}
 304:Drivers/STM32F7xx_HAL_Driver/Src/stm32f7xx_hal_hcd.c ****   */
 305:Drivers/STM32F7xx_HAL_Driver/Src/stm32f7xx_hal_hcd.c **** 
 306:Drivers/STM32F7xx_HAL_Driver/Src/stm32f7xx_hal_hcd.c **** /** @defgroup HCD_Exported_Functions_Group2 Input and Output operation functions
 307:Drivers/STM32F7xx_HAL_Driver/Src/stm32f7xx_hal_hcd.c ****   *  @brief   HCD IO operation functions
 308:Drivers/STM32F7xx_HAL_Driver/Src/stm32f7xx_hal_hcd.c ****   *
 309:Drivers/STM32F7xx_HAL_Driver/Src/stm32f7xx_hal_hcd.c **** @verbatim
 310:Drivers/STM32F7xx_HAL_Driver/Src/stm32f7xx_hal_hcd.c ****  ===============================================================================
 311:Drivers/STM32F7xx_HAL_Driver/Src/stm32f7xx_hal_hcd.c ****                       ##### IO operation functions #####
 312:Drivers/STM32F7xx_HAL_Driver/Src/stm32f7xx_hal_hcd.c ****  ===============================================================================
 313:Drivers/STM32F7xx_HAL_Driver/Src/stm32f7xx_hal_hcd.c ****  [..] This subsection provides a set of functions allowing to manage the USB Host Data
 314:Drivers/STM32F7xx_HAL_Driver/Src/stm32f7xx_hal_hcd.c ****     Transfer
 315:Drivers/STM32F7xx_HAL_Driver/Src/stm32f7xx_hal_hcd.c **** 
 316:Drivers/STM32F7xx_HAL_Driver/Src/stm32f7xx_hal_hcd.c **** @endverbatim
 317:Drivers/STM32F7xx_HAL_Driver/Src/stm32f7xx_hal_hcd.c ****   * @{
ARM GAS  C:\Users\Student\AppData\Local\Temp\ccjpImAB.s 			page 7


 318:Drivers/STM32F7xx_HAL_Driver/Src/stm32f7xx_hal_hcd.c ****   */
 319:Drivers/STM32F7xx_HAL_Driver/Src/stm32f7xx_hal_hcd.c **** 
 320:Drivers/STM32F7xx_HAL_Driver/Src/stm32f7xx_hal_hcd.c **** /**
 321:Drivers/STM32F7xx_HAL_Driver/Src/stm32f7xx_hal_hcd.c ****   * @brief  Submit a new URB for processing.
 322:Drivers/STM32F7xx_HAL_Driver/Src/stm32f7xx_hal_hcd.c ****   * @param  hhcd HCD handle
 323:Drivers/STM32F7xx_HAL_Driver/Src/stm32f7xx_hal_hcd.c ****   * @param  ch_num Channel number.
 324:Drivers/STM32F7xx_HAL_Driver/Src/stm32f7xx_hal_hcd.c ****   *         This parameter can be a value from 1 to 15
 325:Drivers/STM32F7xx_HAL_Driver/Src/stm32f7xx_hal_hcd.c ****   * @param  direction Channel number.
 326:Drivers/STM32F7xx_HAL_Driver/Src/stm32f7xx_hal_hcd.c ****   *          This parameter can be one of these values:
 327:Drivers/STM32F7xx_HAL_Driver/Src/stm32f7xx_hal_hcd.c ****   *           0 : Output / 1 : Input
 328:Drivers/STM32F7xx_HAL_Driver/Src/stm32f7xx_hal_hcd.c ****   * @param  ep_type Endpoint Type.
 329:Drivers/STM32F7xx_HAL_Driver/Src/stm32f7xx_hal_hcd.c ****   *          This parameter can be one of these values:
 330:Drivers/STM32F7xx_HAL_Driver/Src/stm32f7xx_hal_hcd.c ****   *            EP_TYPE_CTRL: Control type/
 331:Drivers/STM32F7xx_HAL_Driver/Src/stm32f7xx_hal_hcd.c ****   *            EP_TYPE_ISOC: Isochronous type/
 332:Drivers/STM32F7xx_HAL_Driver/Src/stm32f7xx_hal_hcd.c ****   *            EP_TYPE_BULK: Bulk type/
 333:Drivers/STM32F7xx_HAL_Driver/Src/stm32f7xx_hal_hcd.c ****   *            EP_TYPE_INTR: Interrupt type/
 334:Drivers/STM32F7xx_HAL_Driver/Src/stm32f7xx_hal_hcd.c ****   * @param  token Endpoint Type.
 335:Drivers/STM32F7xx_HAL_Driver/Src/stm32f7xx_hal_hcd.c ****   *          This parameter can be one of these values:
 336:Drivers/STM32F7xx_HAL_Driver/Src/stm32f7xx_hal_hcd.c ****   *            0: HC_PID_SETUP / 1: HC_PID_DATA1
 337:Drivers/STM32F7xx_HAL_Driver/Src/stm32f7xx_hal_hcd.c ****   * @param  pbuff pointer to URB data
 338:Drivers/STM32F7xx_HAL_Driver/Src/stm32f7xx_hal_hcd.c ****   * @param  length Length of URB data
 339:Drivers/STM32F7xx_HAL_Driver/Src/stm32f7xx_hal_hcd.c ****   * @param  do_ping activate do ping protocol (for high speed only).
 340:Drivers/STM32F7xx_HAL_Driver/Src/stm32f7xx_hal_hcd.c ****   *          This parameter can be one of these values:
 341:Drivers/STM32F7xx_HAL_Driver/Src/stm32f7xx_hal_hcd.c ****   *           0 : do ping inactive / 1 : do ping active
 342:Drivers/STM32F7xx_HAL_Driver/Src/stm32f7xx_hal_hcd.c ****   * @retval HAL status
 343:Drivers/STM32F7xx_HAL_Driver/Src/stm32f7xx_hal_hcd.c ****   */
 344:Drivers/STM32F7xx_HAL_Driver/Src/stm32f7xx_hal_hcd.c **** HAL_StatusTypeDef HAL_HCD_HC_SubmitRequest(HCD_HandleTypeDef *hhcd,
 345:Drivers/STM32F7xx_HAL_Driver/Src/stm32f7xx_hal_hcd.c ****                                            uint8_t ch_num,
 346:Drivers/STM32F7xx_HAL_Driver/Src/stm32f7xx_hal_hcd.c ****                                            uint8_t direction,
 347:Drivers/STM32F7xx_HAL_Driver/Src/stm32f7xx_hal_hcd.c ****                                            uint8_t ep_type,
 348:Drivers/STM32F7xx_HAL_Driver/Src/stm32f7xx_hal_hcd.c ****                                            uint8_t token,
 349:Drivers/STM32F7xx_HAL_Driver/Src/stm32f7xx_hal_hcd.c ****                                            uint8_t* pbuff,
 350:Drivers/STM32F7xx_HAL_Driver/Src/stm32f7xx_hal_hcd.c ****                                            uint16_t length,
 351:Drivers/STM32F7xx_HAL_Driver/Src/stm32f7xx_hal_hcd.c ****                                            uint8_t do_ping)
 352:Drivers/STM32F7xx_HAL_Driver/Src/stm32f7xx_hal_hcd.c **** {
 353:Drivers/STM32F7xx_HAL_Driver/Src/stm32f7xx_hal_hcd.c ****   UNUSED(do_ping);
 354:Drivers/STM32F7xx_HAL_Driver/Src/stm32f7xx_hal_hcd.c **** 
 355:Drivers/STM32F7xx_HAL_Driver/Src/stm32f7xx_hal_hcd.c ****   hhcd->hc[ch_num].ep_is_in = direction;
 356:Drivers/STM32F7xx_HAL_Driver/Src/stm32f7xx_hal_hcd.c ****   hhcd->hc[ch_num].ep_type  = ep_type;
 357:Drivers/STM32F7xx_HAL_Driver/Src/stm32f7xx_hal_hcd.c **** 
 358:Drivers/STM32F7xx_HAL_Driver/Src/stm32f7xx_hal_hcd.c ****   if(token == 0U)
 359:Drivers/STM32F7xx_HAL_Driver/Src/stm32f7xx_hal_hcd.c ****   {
 360:Drivers/STM32F7xx_HAL_Driver/Src/stm32f7xx_hal_hcd.c ****     hhcd->hc[ch_num].data_pid = HC_PID_SETUP;
 361:Drivers/STM32F7xx_HAL_Driver/Src/stm32f7xx_hal_hcd.c ****   }
 362:Drivers/STM32F7xx_HAL_Driver/Src/stm32f7xx_hal_hcd.c ****   else
 363:Drivers/STM32F7xx_HAL_Driver/Src/stm32f7xx_hal_hcd.c ****   {
 364:Drivers/STM32F7xx_HAL_Driver/Src/stm32f7xx_hal_hcd.c ****     hhcd->hc[ch_num].data_pid = HC_PID_DATA1;
 365:Drivers/STM32F7xx_HAL_Driver/Src/stm32f7xx_hal_hcd.c ****   }
 366:Drivers/STM32F7xx_HAL_Driver/Src/stm32f7xx_hal_hcd.c **** 
 367:Drivers/STM32F7xx_HAL_Driver/Src/stm32f7xx_hal_hcd.c ****   /* Manage Data Toggle */
 368:Drivers/STM32F7xx_HAL_Driver/Src/stm32f7xx_hal_hcd.c ****   switch(ep_type)
 369:Drivers/STM32F7xx_HAL_Driver/Src/stm32f7xx_hal_hcd.c ****   {
 370:Drivers/STM32F7xx_HAL_Driver/Src/stm32f7xx_hal_hcd.c ****   case EP_TYPE_CTRL:
 371:Drivers/STM32F7xx_HAL_Driver/Src/stm32f7xx_hal_hcd.c ****     if((token == 1U) && (direction == 0U)) /*send data */
 372:Drivers/STM32F7xx_HAL_Driver/Src/stm32f7xx_hal_hcd.c ****     {
 373:Drivers/STM32F7xx_HAL_Driver/Src/stm32f7xx_hal_hcd.c ****       if (length == 0U)
 374:Drivers/STM32F7xx_HAL_Driver/Src/stm32f7xx_hal_hcd.c ****       { /* For Status OUT stage, Length==0, Status Out PID = 1 */
ARM GAS  C:\Users\Student\AppData\Local\Temp\ccjpImAB.s 			page 8


 375:Drivers/STM32F7xx_HAL_Driver/Src/stm32f7xx_hal_hcd.c ****         hhcd->hc[ch_num].toggle_out = 1U;
 376:Drivers/STM32F7xx_HAL_Driver/Src/stm32f7xx_hal_hcd.c ****       }
 377:Drivers/STM32F7xx_HAL_Driver/Src/stm32f7xx_hal_hcd.c **** 
 378:Drivers/STM32F7xx_HAL_Driver/Src/stm32f7xx_hal_hcd.c ****       /* Set the Data Toggle bit as per the Flag */
 379:Drivers/STM32F7xx_HAL_Driver/Src/stm32f7xx_hal_hcd.c ****       if (hhcd->hc[ch_num].toggle_out == 0U)
 380:Drivers/STM32F7xx_HAL_Driver/Src/stm32f7xx_hal_hcd.c ****       { /* Put the PID 0 */
 381:Drivers/STM32F7xx_HAL_Driver/Src/stm32f7xx_hal_hcd.c ****         hhcd->hc[ch_num].data_pid = HC_PID_DATA0;
 382:Drivers/STM32F7xx_HAL_Driver/Src/stm32f7xx_hal_hcd.c ****       }
 383:Drivers/STM32F7xx_HAL_Driver/Src/stm32f7xx_hal_hcd.c ****       else
 384:Drivers/STM32F7xx_HAL_Driver/Src/stm32f7xx_hal_hcd.c ****       { /* Put the PID 1 */
 385:Drivers/STM32F7xx_HAL_Driver/Src/stm32f7xx_hal_hcd.c ****         hhcd->hc[ch_num].data_pid = HC_PID_DATA1;
 386:Drivers/STM32F7xx_HAL_Driver/Src/stm32f7xx_hal_hcd.c ****       }
 387:Drivers/STM32F7xx_HAL_Driver/Src/stm32f7xx_hal_hcd.c ****     }
 388:Drivers/STM32F7xx_HAL_Driver/Src/stm32f7xx_hal_hcd.c ****     break;
 389:Drivers/STM32F7xx_HAL_Driver/Src/stm32f7xx_hal_hcd.c **** 
 390:Drivers/STM32F7xx_HAL_Driver/Src/stm32f7xx_hal_hcd.c ****   case EP_TYPE_BULK:
 391:Drivers/STM32F7xx_HAL_Driver/Src/stm32f7xx_hal_hcd.c ****     if(direction == 0U)
 392:Drivers/STM32F7xx_HAL_Driver/Src/stm32f7xx_hal_hcd.c ****     {
 393:Drivers/STM32F7xx_HAL_Driver/Src/stm32f7xx_hal_hcd.c ****       /* Set the Data Toggle bit as per the Flag */
 394:Drivers/STM32F7xx_HAL_Driver/Src/stm32f7xx_hal_hcd.c ****       if ( hhcd->hc[ch_num].toggle_out == 0U)
 395:Drivers/STM32F7xx_HAL_Driver/Src/stm32f7xx_hal_hcd.c ****       { /* Put the PID 0 */
 396:Drivers/STM32F7xx_HAL_Driver/Src/stm32f7xx_hal_hcd.c ****         hhcd->hc[ch_num].data_pid = HC_PID_DATA0;
 397:Drivers/STM32F7xx_HAL_Driver/Src/stm32f7xx_hal_hcd.c ****       }
 398:Drivers/STM32F7xx_HAL_Driver/Src/stm32f7xx_hal_hcd.c ****       else
 399:Drivers/STM32F7xx_HAL_Driver/Src/stm32f7xx_hal_hcd.c ****       { /* Put the PID 1 */
 400:Drivers/STM32F7xx_HAL_Driver/Src/stm32f7xx_hal_hcd.c ****         hhcd->hc[ch_num].data_pid = HC_PID_DATA1;
 401:Drivers/STM32F7xx_HAL_Driver/Src/stm32f7xx_hal_hcd.c ****       }
 402:Drivers/STM32F7xx_HAL_Driver/Src/stm32f7xx_hal_hcd.c ****     }
 403:Drivers/STM32F7xx_HAL_Driver/Src/stm32f7xx_hal_hcd.c ****     else
 404:Drivers/STM32F7xx_HAL_Driver/Src/stm32f7xx_hal_hcd.c ****     {
 405:Drivers/STM32F7xx_HAL_Driver/Src/stm32f7xx_hal_hcd.c ****       if( hhcd->hc[ch_num].toggle_in == 0U)
 406:Drivers/STM32F7xx_HAL_Driver/Src/stm32f7xx_hal_hcd.c ****       {
 407:Drivers/STM32F7xx_HAL_Driver/Src/stm32f7xx_hal_hcd.c ****         hhcd->hc[ch_num].data_pid = HC_PID_DATA0;
 408:Drivers/STM32F7xx_HAL_Driver/Src/stm32f7xx_hal_hcd.c ****       }
 409:Drivers/STM32F7xx_HAL_Driver/Src/stm32f7xx_hal_hcd.c ****       else
 410:Drivers/STM32F7xx_HAL_Driver/Src/stm32f7xx_hal_hcd.c ****       {
 411:Drivers/STM32F7xx_HAL_Driver/Src/stm32f7xx_hal_hcd.c ****         hhcd->hc[ch_num].data_pid = HC_PID_DATA1;
 412:Drivers/STM32F7xx_HAL_Driver/Src/stm32f7xx_hal_hcd.c ****       }
 413:Drivers/STM32F7xx_HAL_Driver/Src/stm32f7xx_hal_hcd.c ****     }
 414:Drivers/STM32F7xx_HAL_Driver/Src/stm32f7xx_hal_hcd.c **** 
 415:Drivers/STM32F7xx_HAL_Driver/Src/stm32f7xx_hal_hcd.c ****     break;
 416:Drivers/STM32F7xx_HAL_Driver/Src/stm32f7xx_hal_hcd.c ****   case EP_TYPE_INTR:
 417:Drivers/STM32F7xx_HAL_Driver/Src/stm32f7xx_hal_hcd.c ****     if(direction == 0U)
 418:Drivers/STM32F7xx_HAL_Driver/Src/stm32f7xx_hal_hcd.c ****     {
 419:Drivers/STM32F7xx_HAL_Driver/Src/stm32f7xx_hal_hcd.c ****       /* Set the Data Toggle bit as per the Flag */
 420:Drivers/STM32F7xx_HAL_Driver/Src/stm32f7xx_hal_hcd.c ****       if ( hhcd->hc[ch_num].toggle_out == 0U)
 421:Drivers/STM32F7xx_HAL_Driver/Src/stm32f7xx_hal_hcd.c ****       { /* Put the PID 0 */
 422:Drivers/STM32F7xx_HAL_Driver/Src/stm32f7xx_hal_hcd.c ****         hhcd->hc[ch_num].data_pid = HC_PID_DATA0;
 423:Drivers/STM32F7xx_HAL_Driver/Src/stm32f7xx_hal_hcd.c ****       }
 424:Drivers/STM32F7xx_HAL_Driver/Src/stm32f7xx_hal_hcd.c ****       else
 425:Drivers/STM32F7xx_HAL_Driver/Src/stm32f7xx_hal_hcd.c ****       { /* Put the PID 1 */
 426:Drivers/STM32F7xx_HAL_Driver/Src/stm32f7xx_hal_hcd.c ****         hhcd->hc[ch_num].data_pid = HC_PID_DATA1;
 427:Drivers/STM32F7xx_HAL_Driver/Src/stm32f7xx_hal_hcd.c ****       }
 428:Drivers/STM32F7xx_HAL_Driver/Src/stm32f7xx_hal_hcd.c ****     }
 429:Drivers/STM32F7xx_HAL_Driver/Src/stm32f7xx_hal_hcd.c ****     else
 430:Drivers/STM32F7xx_HAL_Driver/Src/stm32f7xx_hal_hcd.c ****     {
 431:Drivers/STM32F7xx_HAL_Driver/Src/stm32f7xx_hal_hcd.c ****       if( hhcd->hc[ch_num].toggle_in == 0U)
ARM GAS  C:\Users\Student\AppData\Local\Temp\ccjpImAB.s 			page 9


 432:Drivers/STM32F7xx_HAL_Driver/Src/stm32f7xx_hal_hcd.c ****       {
 433:Drivers/STM32F7xx_HAL_Driver/Src/stm32f7xx_hal_hcd.c ****         hhcd->hc[ch_num].data_pid = HC_PID_DATA0;
 434:Drivers/STM32F7xx_HAL_Driver/Src/stm32f7xx_hal_hcd.c ****       }
 435:Drivers/STM32F7xx_HAL_Driver/Src/stm32f7xx_hal_hcd.c ****       else
 436:Drivers/STM32F7xx_HAL_Driver/Src/stm32f7xx_hal_hcd.c ****       {
 437:Drivers/STM32F7xx_HAL_Driver/Src/stm32f7xx_hal_hcd.c ****         hhcd->hc[ch_num].data_pid = HC_PID_DATA1;
 438:Drivers/STM32F7xx_HAL_Driver/Src/stm32f7xx_hal_hcd.c ****       }
 439:Drivers/STM32F7xx_HAL_Driver/Src/stm32f7xx_hal_hcd.c ****     }
 440:Drivers/STM32F7xx_HAL_Driver/Src/stm32f7xx_hal_hcd.c ****     break;
 441:Drivers/STM32F7xx_HAL_Driver/Src/stm32f7xx_hal_hcd.c **** 
 442:Drivers/STM32F7xx_HAL_Driver/Src/stm32f7xx_hal_hcd.c ****   case EP_TYPE_ISOC:
 443:Drivers/STM32F7xx_HAL_Driver/Src/stm32f7xx_hal_hcd.c ****     hhcd->hc[ch_num].data_pid = HC_PID_DATA0;
 444:Drivers/STM32F7xx_HAL_Driver/Src/stm32f7xx_hal_hcd.c ****     break;
 445:Drivers/STM32F7xx_HAL_Driver/Src/stm32f7xx_hal_hcd.c **** 
 446:Drivers/STM32F7xx_HAL_Driver/Src/stm32f7xx_hal_hcd.c ****   default:
 447:Drivers/STM32F7xx_HAL_Driver/Src/stm32f7xx_hal_hcd.c ****     break;
 448:Drivers/STM32F7xx_HAL_Driver/Src/stm32f7xx_hal_hcd.c ****   }
 449:Drivers/STM32F7xx_HAL_Driver/Src/stm32f7xx_hal_hcd.c **** 
 450:Drivers/STM32F7xx_HAL_Driver/Src/stm32f7xx_hal_hcd.c ****   hhcd->hc[ch_num].xfer_buff = pbuff;
 451:Drivers/STM32F7xx_HAL_Driver/Src/stm32f7xx_hal_hcd.c ****   hhcd->hc[ch_num].xfer_len  = length;
 452:Drivers/STM32F7xx_HAL_Driver/Src/stm32f7xx_hal_hcd.c ****   hhcd->hc[ch_num].urb_state = URB_IDLE;
 453:Drivers/STM32F7xx_HAL_Driver/Src/stm32f7xx_hal_hcd.c ****   hhcd->hc[ch_num].xfer_count = 0U;
 454:Drivers/STM32F7xx_HAL_Driver/Src/stm32f7xx_hal_hcd.c ****   hhcd->hc[ch_num].ch_num = ch_num;
 455:Drivers/STM32F7xx_HAL_Driver/Src/stm32f7xx_hal_hcd.c ****   hhcd->hc[ch_num].state = HC_IDLE;
 456:Drivers/STM32F7xx_HAL_Driver/Src/stm32f7xx_hal_hcd.c **** 
 457:Drivers/STM32F7xx_HAL_Driver/Src/stm32f7xx_hal_hcd.c ****   return USB_HC_StartXfer(hhcd->Instance, &hhcd->hc[ch_num], (uint8_t)hhcd->Init.dma_enable);
 458:Drivers/STM32F7xx_HAL_Driver/Src/stm32f7xx_hal_hcd.c **** }
 459:Drivers/STM32F7xx_HAL_Driver/Src/stm32f7xx_hal_hcd.c **** 
 460:Drivers/STM32F7xx_HAL_Driver/Src/stm32f7xx_hal_hcd.c **** /**
 461:Drivers/STM32F7xx_HAL_Driver/Src/stm32f7xx_hal_hcd.c ****   * @brief  Handle HCD interrupt request.
 462:Drivers/STM32F7xx_HAL_Driver/Src/stm32f7xx_hal_hcd.c ****   * @param  hhcd HCD handle
 463:Drivers/STM32F7xx_HAL_Driver/Src/stm32f7xx_hal_hcd.c ****   * @retval None
 464:Drivers/STM32F7xx_HAL_Driver/Src/stm32f7xx_hal_hcd.c ****   */
 465:Drivers/STM32F7xx_HAL_Driver/Src/stm32f7xx_hal_hcd.c **** void HAL_HCD_IRQHandler(HCD_HandleTypeDef *hhcd)
 466:Drivers/STM32F7xx_HAL_Driver/Src/stm32f7xx_hal_hcd.c **** {
 467:Drivers/STM32F7xx_HAL_Driver/Src/stm32f7xx_hal_hcd.c ****   USB_OTG_GlobalTypeDef *USBx = hhcd->Instance;
 468:Drivers/STM32F7xx_HAL_Driver/Src/stm32f7xx_hal_hcd.c ****   uint32_t USBx_BASE = (uint32_t)USBx;
 469:Drivers/STM32F7xx_HAL_Driver/Src/stm32f7xx_hal_hcd.c ****   uint32_t i, interrupt;
 470:Drivers/STM32F7xx_HAL_Driver/Src/stm32f7xx_hal_hcd.c **** 
 471:Drivers/STM32F7xx_HAL_Driver/Src/stm32f7xx_hal_hcd.c ****   /* Ensure that we are in device mode */
 472:Drivers/STM32F7xx_HAL_Driver/Src/stm32f7xx_hal_hcd.c ****   if (USB_GetMode(hhcd->Instance) == USB_OTG_MODE_HOST)
 473:Drivers/STM32F7xx_HAL_Driver/Src/stm32f7xx_hal_hcd.c ****   {
 474:Drivers/STM32F7xx_HAL_Driver/Src/stm32f7xx_hal_hcd.c ****     /* Avoid spurious interrupt */
 475:Drivers/STM32F7xx_HAL_Driver/Src/stm32f7xx_hal_hcd.c ****     if(__HAL_HCD_IS_INVALID_INTERRUPT(hhcd))
 476:Drivers/STM32F7xx_HAL_Driver/Src/stm32f7xx_hal_hcd.c ****     {
 477:Drivers/STM32F7xx_HAL_Driver/Src/stm32f7xx_hal_hcd.c ****       return;
 478:Drivers/STM32F7xx_HAL_Driver/Src/stm32f7xx_hal_hcd.c ****     }
 479:Drivers/STM32F7xx_HAL_Driver/Src/stm32f7xx_hal_hcd.c **** 
 480:Drivers/STM32F7xx_HAL_Driver/Src/stm32f7xx_hal_hcd.c ****     if(__HAL_HCD_GET_FLAG(hhcd, USB_OTG_GINTSTS_PXFR_INCOMPISOOUT))
 481:Drivers/STM32F7xx_HAL_Driver/Src/stm32f7xx_hal_hcd.c ****     {
 482:Drivers/STM32F7xx_HAL_Driver/Src/stm32f7xx_hal_hcd.c ****       /* Incorrect mode, acknowledge the interrupt */
 483:Drivers/STM32F7xx_HAL_Driver/Src/stm32f7xx_hal_hcd.c ****       __HAL_HCD_CLEAR_FLAG(hhcd, USB_OTG_GINTSTS_PXFR_INCOMPISOOUT);
 484:Drivers/STM32F7xx_HAL_Driver/Src/stm32f7xx_hal_hcd.c ****     }
 485:Drivers/STM32F7xx_HAL_Driver/Src/stm32f7xx_hal_hcd.c **** 
 486:Drivers/STM32F7xx_HAL_Driver/Src/stm32f7xx_hal_hcd.c ****     if(__HAL_HCD_GET_FLAG(hhcd, USB_OTG_GINTSTS_IISOIXFR))
 487:Drivers/STM32F7xx_HAL_Driver/Src/stm32f7xx_hal_hcd.c ****     {
 488:Drivers/STM32F7xx_HAL_Driver/Src/stm32f7xx_hal_hcd.c ****       /* Incorrect mode, acknowledge the interrupt */
ARM GAS  C:\Users\Student\AppData\Local\Temp\ccjpImAB.s 			page 10


 489:Drivers/STM32F7xx_HAL_Driver/Src/stm32f7xx_hal_hcd.c ****       __HAL_HCD_CLEAR_FLAG(hhcd, USB_OTG_GINTSTS_IISOIXFR);
 490:Drivers/STM32F7xx_HAL_Driver/Src/stm32f7xx_hal_hcd.c ****     }
 491:Drivers/STM32F7xx_HAL_Driver/Src/stm32f7xx_hal_hcd.c **** 
 492:Drivers/STM32F7xx_HAL_Driver/Src/stm32f7xx_hal_hcd.c ****     if(__HAL_HCD_GET_FLAG(hhcd, USB_OTG_GINTSTS_PTXFE))
 493:Drivers/STM32F7xx_HAL_Driver/Src/stm32f7xx_hal_hcd.c ****     {
 494:Drivers/STM32F7xx_HAL_Driver/Src/stm32f7xx_hal_hcd.c ****       /* Incorrect mode, acknowledge the interrupt */
 495:Drivers/STM32F7xx_HAL_Driver/Src/stm32f7xx_hal_hcd.c ****       __HAL_HCD_CLEAR_FLAG(hhcd, USB_OTG_GINTSTS_PTXFE);
 496:Drivers/STM32F7xx_HAL_Driver/Src/stm32f7xx_hal_hcd.c ****     }
 497:Drivers/STM32F7xx_HAL_Driver/Src/stm32f7xx_hal_hcd.c **** 
 498:Drivers/STM32F7xx_HAL_Driver/Src/stm32f7xx_hal_hcd.c ****     if(__HAL_HCD_GET_FLAG(hhcd, USB_OTG_GINTSTS_MMIS))
 499:Drivers/STM32F7xx_HAL_Driver/Src/stm32f7xx_hal_hcd.c ****     {
 500:Drivers/STM32F7xx_HAL_Driver/Src/stm32f7xx_hal_hcd.c ****       /* Incorrect mode, acknowledge the interrupt */
 501:Drivers/STM32F7xx_HAL_Driver/Src/stm32f7xx_hal_hcd.c ****       __HAL_HCD_CLEAR_FLAG(hhcd, USB_OTG_GINTSTS_MMIS);
 502:Drivers/STM32F7xx_HAL_Driver/Src/stm32f7xx_hal_hcd.c ****     }
 503:Drivers/STM32F7xx_HAL_Driver/Src/stm32f7xx_hal_hcd.c **** 
 504:Drivers/STM32F7xx_HAL_Driver/Src/stm32f7xx_hal_hcd.c ****     /* Handle Host Disconnect Interrupts */
 505:Drivers/STM32F7xx_HAL_Driver/Src/stm32f7xx_hal_hcd.c ****     if(__HAL_HCD_GET_FLAG(hhcd, USB_OTG_GINTSTS_DISCINT))
 506:Drivers/STM32F7xx_HAL_Driver/Src/stm32f7xx_hal_hcd.c ****     {
 507:Drivers/STM32F7xx_HAL_Driver/Src/stm32f7xx_hal_hcd.c **** 
 508:Drivers/STM32F7xx_HAL_Driver/Src/stm32f7xx_hal_hcd.c ****       /* Cleanup HPRT */
 509:Drivers/STM32F7xx_HAL_Driver/Src/stm32f7xx_hal_hcd.c ****       USBx_HPRT0 &= ~(USB_OTG_HPRT_PENA | USB_OTG_HPRT_PCDET |\
 510:Drivers/STM32F7xx_HAL_Driver/Src/stm32f7xx_hal_hcd.c ****         USB_OTG_HPRT_PENCHNG | USB_OTG_HPRT_POCCHNG );
 511:Drivers/STM32F7xx_HAL_Driver/Src/stm32f7xx_hal_hcd.c **** 
 512:Drivers/STM32F7xx_HAL_Driver/Src/stm32f7xx_hal_hcd.c ****       /* Handle Host Port Interrupts */
 513:Drivers/STM32F7xx_HAL_Driver/Src/stm32f7xx_hal_hcd.c ****       HAL_HCD_Disconnect_Callback(hhcd);
 514:Drivers/STM32F7xx_HAL_Driver/Src/stm32f7xx_hal_hcd.c ****       (void)USB_InitFSLSPClkSel(hhcd->Instance, HCFG_48_MHZ);
 515:Drivers/STM32F7xx_HAL_Driver/Src/stm32f7xx_hal_hcd.c ****       __HAL_HCD_CLEAR_FLAG(hhcd, USB_OTG_GINTSTS_DISCINT);
 516:Drivers/STM32F7xx_HAL_Driver/Src/stm32f7xx_hal_hcd.c ****     }
 517:Drivers/STM32F7xx_HAL_Driver/Src/stm32f7xx_hal_hcd.c **** 
 518:Drivers/STM32F7xx_HAL_Driver/Src/stm32f7xx_hal_hcd.c ****     /* Handle Host Port Interrupts */
 519:Drivers/STM32F7xx_HAL_Driver/Src/stm32f7xx_hal_hcd.c ****     if(__HAL_HCD_GET_FLAG(hhcd, USB_OTG_GINTSTS_HPRTINT))
 520:Drivers/STM32F7xx_HAL_Driver/Src/stm32f7xx_hal_hcd.c ****     {
 521:Drivers/STM32F7xx_HAL_Driver/Src/stm32f7xx_hal_hcd.c ****       HCD_Port_IRQHandler (hhcd);
 522:Drivers/STM32F7xx_HAL_Driver/Src/stm32f7xx_hal_hcd.c ****     }
 523:Drivers/STM32F7xx_HAL_Driver/Src/stm32f7xx_hal_hcd.c **** 
 524:Drivers/STM32F7xx_HAL_Driver/Src/stm32f7xx_hal_hcd.c ****     /* Handle Host SOF Interrupts */
 525:Drivers/STM32F7xx_HAL_Driver/Src/stm32f7xx_hal_hcd.c ****     if(__HAL_HCD_GET_FLAG(hhcd, USB_OTG_GINTSTS_SOF))
 526:Drivers/STM32F7xx_HAL_Driver/Src/stm32f7xx_hal_hcd.c ****     {
 527:Drivers/STM32F7xx_HAL_Driver/Src/stm32f7xx_hal_hcd.c ****       HAL_HCD_SOF_Callback(hhcd);
 528:Drivers/STM32F7xx_HAL_Driver/Src/stm32f7xx_hal_hcd.c ****       __HAL_HCD_CLEAR_FLAG(hhcd, USB_OTG_GINTSTS_SOF);
 529:Drivers/STM32F7xx_HAL_Driver/Src/stm32f7xx_hal_hcd.c ****     }
 530:Drivers/STM32F7xx_HAL_Driver/Src/stm32f7xx_hal_hcd.c **** 
 531:Drivers/STM32F7xx_HAL_Driver/Src/stm32f7xx_hal_hcd.c ****     /* Handle Host channel Interrupts */
 532:Drivers/STM32F7xx_HAL_Driver/Src/stm32f7xx_hal_hcd.c ****     if(__HAL_HCD_GET_FLAG(hhcd, USB_OTG_GINTSTS_HCINT))
 533:Drivers/STM32F7xx_HAL_Driver/Src/stm32f7xx_hal_hcd.c ****     {
 534:Drivers/STM32F7xx_HAL_Driver/Src/stm32f7xx_hal_hcd.c ****       interrupt = USB_HC_ReadInterrupt(hhcd->Instance);
 535:Drivers/STM32F7xx_HAL_Driver/Src/stm32f7xx_hal_hcd.c ****       for (i = 0U; i < hhcd->Init.Host_channels; i++)
 536:Drivers/STM32F7xx_HAL_Driver/Src/stm32f7xx_hal_hcd.c ****       {
 537:Drivers/STM32F7xx_HAL_Driver/Src/stm32f7xx_hal_hcd.c ****         if ((interrupt & (1UL << (i & 0xFU))) != 0U)
 538:Drivers/STM32F7xx_HAL_Driver/Src/stm32f7xx_hal_hcd.c ****         {
 539:Drivers/STM32F7xx_HAL_Driver/Src/stm32f7xx_hal_hcd.c ****           if ((USBx_HC(i)->HCCHAR & USB_OTG_HCCHAR_EPDIR) == USB_OTG_HCCHAR_EPDIR)
 540:Drivers/STM32F7xx_HAL_Driver/Src/stm32f7xx_hal_hcd.c ****           {
 541:Drivers/STM32F7xx_HAL_Driver/Src/stm32f7xx_hal_hcd.c ****             HCD_HC_IN_IRQHandler(hhcd, (uint8_t)i);
 542:Drivers/STM32F7xx_HAL_Driver/Src/stm32f7xx_hal_hcd.c ****           }
 543:Drivers/STM32F7xx_HAL_Driver/Src/stm32f7xx_hal_hcd.c ****           else
 544:Drivers/STM32F7xx_HAL_Driver/Src/stm32f7xx_hal_hcd.c ****           {
 545:Drivers/STM32F7xx_HAL_Driver/Src/stm32f7xx_hal_hcd.c ****             HCD_HC_OUT_IRQHandler (hhcd, (uint8_t)i);
ARM GAS  C:\Users\Student\AppData\Local\Temp\ccjpImAB.s 			page 11


 546:Drivers/STM32F7xx_HAL_Driver/Src/stm32f7xx_hal_hcd.c ****           }
 547:Drivers/STM32F7xx_HAL_Driver/Src/stm32f7xx_hal_hcd.c ****         }
 548:Drivers/STM32F7xx_HAL_Driver/Src/stm32f7xx_hal_hcd.c ****       }
 549:Drivers/STM32F7xx_HAL_Driver/Src/stm32f7xx_hal_hcd.c ****       __HAL_HCD_CLEAR_FLAG(hhcd, USB_OTG_GINTSTS_HCINT);
 550:Drivers/STM32F7xx_HAL_Driver/Src/stm32f7xx_hal_hcd.c ****     }
 551:Drivers/STM32F7xx_HAL_Driver/Src/stm32f7xx_hal_hcd.c **** 
 552:Drivers/STM32F7xx_HAL_Driver/Src/stm32f7xx_hal_hcd.c ****     /* Handle Rx Queue Level Interrupts */
 553:Drivers/STM32F7xx_HAL_Driver/Src/stm32f7xx_hal_hcd.c ****     if((__HAL_HCD_GET_FLAG(hhcd, USB_OTG_GINTSTS_RXFLVL)) != 0U)
 554:Drivers/STM32F7xx_HAL_Driver/Src/stm32f7xx_hal_hcd.c ****     {
 555:Drivers/STM32F7xx_HAL_Driver/Src/stm32f7xx_hal_hcd.c ****       USB_MASK_INTERRUPT(hhcd->Instance, USB_OTG_GINTSTS_RXFLVL);
 556:Drivers/STM32F7xx_HAL_Driver/Src/stm32f7xx_hal_hcd.c **** 
 557:Drivers/STM32F7xx_HAL_Driver/Src/stm32f7xx_hal_hcd.c ****       HCD_RXQLVL_IRQHandler (hhcd);
 558:Drivers/STM32F7xx_HAL_Driver/Src/stm32f7xx_hal_hcd.c **** 
 559:Drivers/STM32F7xx_HAL_Driver/Src/stm32f7xx_hal_hcd.c ****       USB_UNMASK_INTERRUPT(hhcd->Instance, USB_OTG_GINTSTS_RXFLVL);
 560:Drivers/STM32F7xx_HAL_Driver/Src/stm32f7xx_hal_hcd.c ****     }
 561:Drivers/STM32F7xx_HAL_Driver/Src/stm32f7xx_hal_hcd.c ****   }
 562:Drivers/STM32F7xx_HAL_Driver/Src/stm32f7xx_hal_hcd.c **** }
 563:Drivers/STM32F7xx_HAL_Driver/Src/stm32f7xx_hal_hcd.c **** 
 564:Drivers/STM32F7xx_HAL_Driver/Src/stm32f7xx_hal_hcd.c **** /**
 565:Drivers/STM32F7xx_HAL_Driver/Src/stm32f7xx_hal_hcd.c ****   * @brief  SOF callback.
 566:Drivers/STM32F7xx_HAL_Driver/Src/stm32f7xx_hal_hcd.c ****   * @param  hhcd HCD handle
 567:Drivers/STM32F7xx_HAL_Driver/Src/stm32f7xx_hal_hcd.c ****   * @retval None
 568:Drivers/STM32F7xx_HAL_Driver/Src/stm32f7xx_hal_hcd.c ****   */
 569:Drivers/STM32F7xx_HAL_Driver/Src/stm32f7xx_hal_hcd.c **** __weak void HAL_HCD_SOF_Callback(HCD_HandleTypeDef *hhcd)
 570:Drivers/STM32F7xx_HAL_Driver/Src/stm32f7xx_hal_hcd.c **** {
 571:Drivers/STM32F7xx_HAL_Driver/Src/stm32f7xx_hal_hcd.c ****   /* Prevent unused argument(s) compilation warning */
 572:Drivers/STM32F7xx_HAL_Driver/Src/stm32f7xx_hal_hcd.c ****   UNUSED(hhcd);
 573:Drivers/STM32F7xx_HAL_Driver/Src/stm32f7xx_hal_hcd.c **** 
 574:Drivers/STM32F7xx_HAL_Driver/Src/stm32f7xx_hal_hcd.c ****   /* NOTE : This function should not be modified, when the callback is needed,
 575:Drivers/STM32F7xx_HAL_Driver/Src/stm32f7xx_hal_hcd.c ****             the HAL_HCD_SOF_Callback could be implemented in the user file
 576:Drivers/STM32F7xx_HAL_Driver/Src/stm32f7xx_hal_hcd.c ****    */
 577:Drivers/STM32F7xx_HAL_Driver/Src/stm32f7xx_hal_hcd.c **** }
 578:Drivers/STM32F7xx_HAL_Driver/Src/stm32f7xx_hal_hcd.c **** 
 579:Drivers/STM32F7xx_HAL_Driver/Src/stm32f7xx_hal_hcd.c **** /**
 580:Drivers/STM32F7xx_HAL_Driver/Src/stm32f7xx_hal_hcd.c ****   * @brief Connection Event callback.
 581:Drivers/STM32F7xx_HAL_Driver/Src/stm32f7xx_hal_hcd.c ****   * @param  hhcd HCD handle
 582:Drivers/STM32F7xx_HAL_Driver/Src/stm32f7xx_hal_hcd.c ****   * @retval None
 583:Drivers/STM32F7xx_HAL_Driver/Src/stm32f7xx_hal_hcd.c ****   */
 584:Drivers/STM32F7xx_HAL_Driver/Src/stm32f7xx_hal_hcd.c **** __weak void HAL_HCD_Connect_Callback(HCD_HandleTypeDef *hhcd)
 585:Drivers/STM32F7xx_HAL_Driver/Src/stm32f7xx_hal_hcd.c **** {
 586:Drivers/STM32F7xx_HAL_Driver/Src/stm32f7xx_hal_hcd.c ****   /* Prevent unused argument(s) compilation warning */
 587:Drivers/STM32F7xx_HAL_Driver/Src/stm32f7xx_hal_hcd.c ****   UNUSED(hhcd);
 588:Drivers/STM32F7xx_HAL_Driver/Src/stm32f7xx_hal_hcd.c **** 
 589:Drivers/STM32F7xx_HAL_Driver/Src/stm32f7xx_hal_hcd.c ****   /* NOTE : This function should not be modified, when the callback is needed,
 590:Drivers/STM32F7xx_HAL_Driver/Src/stm32f7xx_hal_hcd.c ****             the HAL_HCD_Connect_Callback could be implemented in the user file
 591:Drivers/STM32F7xx_HAL_Driver/Src/stm32f7xx_hal_hcd.c ****    */
 592:Drivers/STM32F7xx_HAL_Driver/Src/stm32f7xx_hal_hcd.c **** }
 593:Drivers/STM32F7xx_HAL_Driver/Src/stm32f7xx_hal_hcd.c **** 
 594:Drivers/STM32F7xx_HAL_Driver/Src/stm32f7xx_hal_hcd.c **** /**
 595:Drivers/STM32F7xx_HAL_Driver/Src/stm32f7xx_hal_hcd.c ****   * @brief  Disconnection Event callback.
 596:Drivers/STM32F7xx_HAL_Driver/Src/stm32f7xx_hal_hcd.c ****   * @param  hhcd HCD handle
 597:Drivers/STM32F7xx_HAL_Driver/Src/stm32f7xx_hal_hcd.c ****   * @retval None
 598:Drivers/STM32F7xx_HAL_Driver/Src/stm32f7xx_hal_hcd.c ****   */
 599:Drivers/STM32F7xx_HAL_Driver/Src/stm32f7xx_hal_hcd.c **** __weak void HAL_HCD_Disconnect_Callback(HCD_HandleTypeDef *hhcd)
 600:Drivers/STM32F7xx_HAL_Driver/Src/stm32f7xx_hal_hcd.c **** {
 601:Drivers/STM32F7xx_HAL_Driver/Src/stm32f7xx_hal_hcd.c ****   /* Prevent unused argument(s) compilation warning */
 602:Drivers/STM32F7xx_HAL_Driver/Src/stm32f7xx_hal_hcd.c ****   UNUSED(hhcd);
ARM GAS  C:\Users\Student\AppData\Local\Temp\ccjpImAB.s 			page 12


 603:Drivers/STM32F7xx_HAL_Driver/Src/stm32f7xx_hal_hcd.c **** 
 604:Drivers/STM32F7xx_HAL_Driver/Src/stm32f7xx_hal_hcd.c ****   /* NOTE : This function should not be modified, when the callback is needed,
 605:Drivers/STM32F7xx_HAL_Driver/Src/stm32f7xx_hal_hcd.c ****             the HAL_HCD_Disconnect_Callback could be implemented in the user file
 606:Drivers/STM32F7xx_HAL_Driver/Src/stm32f7xx_hal_hcd.c ****    */
 607:Drivers/STM32F7xx_HAL_Driver/Src/stm32f7xx_hal_hcd.c **** }
 608:Drivers/STM32F7xx_HAL_Driver/Src/stm32f7xx_hal_hcd.c **** 
 609:Drivers/STM32F7xx_HAL_Driver/Src/stm32f7xx_hal_hcd.c **** /**
 610:Drivers/STM32F7xx_HAL_Driver/Src/stm32f7xx_hal_hcd.c ****   * @brief  Port Enabled  Event callback.
 611:Drivers/STM32F7xx_HAL_Driver/Src/stm32f7xx_hal_hcd.c ****   * @param  hhcd HCD handle
 612:Drivers/STM32F7xx_HAL_Driver/Src/stm32f7xx_hal_hcd.c ****   * @retval None
 613:Drivers/STM32F7xx_HAL_Driver/Src/stm32f7xx_hal_hcd.c ****   */
 614:Drivers/STM32F7xx_HAL_Driver/Src/stm32f7xx_hal_hcd.c **** __weak void HAL_HCD_PortEnabled_Callback(HCD_HandleTypeDef *hhcd)
 615:Drivers/STM32F7xx_HAL_Driver/Src/stm32f7xx_hal_hcd.c **** {
 616:Drivers/STM32F7xx_HAL_Driver/Src/stm32f7xx_hal_hcd.c ****   /* Prevent unused argument(s) compilation warning */
 617:Drivers/STM32F7xx_HAL_Driver/Src/stm32f7xx_hal_hcd.c ****   UNUSED(hhcd);
 618:Drivers/STM32F7xx_HAL_Driver/Src/stm32f7xx_hal_hcd.c **** 
 619:Drivers/STM32F7xx_HAL_Driver/Src/stm32f7xx_hal_hcd.c ****   /* NOTE : This function should not be modified, when the callback is needed,
 620:Drivers/STM32F7xx_HAL_Driver/Src/stm32f7xx_hal_hcd.c ****             the HAL_HCD_Disconnect_Callback could be implemented in the user file
 621:Drivers/STM32F7xx_HAL_Driver/Src/stm32f7xx_hal_hcd.c ****    */
 622:Drivers/STM32F7xx_HAL_Driver/Src/stm32f7xx_hal_hcd.c **** }
 623:Drivers/STM32F7xx_HAL_Driver/Src/stm32f7xx_hal_hcd.c **** 
 624:Drivers/STM32F7xx_HAL_Driver/Src/stm32f7xx_hal_hcd.c **** /**
 625:Drivers/STM32F7xx_HAL_Driver/Src/stm32f7xx_hal_hcd.c ****   * @brief  Port Disabled  Event callback.
 626:Drivers/STM32F7xx_HAL_Driver/Src/stm32f7xx_hal_hcd.c ****   * @param  hhcd HCD handle
 627:Drivers/STM32F7xx_HAL_Driver/Src/stm32f7xx_hal_hcd.c ****   * @retval None
 628:Drivers/STM32F7xx_HAL_Driver/Src/stm32f7xx_hal_hcd.c ****   */
 629:Drivers/STM32F7xx_HAL_Driver/Src/stm32f7xx_hal_hcd.c **** __weak void HAL_HCD_PortDisabled_Callback(HCD_HandleTypeDef *hhcd)
 630:Drivers/STM32F7xx_HAL_Driver/Src/stm32f7xx_hal_hcd.c **** {
 631:Drivers/STM32F7xx_HAL_Driver/Src/stm32f7xx_hal_hcd.c ****   /* Prevent unused argument(s) compilation warning */
 632:Drivers/STM32F7xx_HAL_Driver/Src/stm32f7xx_hal_hcd.c ****   UNUSED(hhcd);
 633:Drivers/STM32F7xx_HAL_Driver/Src/stm32f7xx_hal_hcd.c **** 
 634:Drivers/STM32F7xx_HAL_Driver/Src/stm32f7xx_hal_hcd.c ****   /* NOTE : This function should not be modified, when the callback is needed,
 635:Drivers/STM32F7xx_HAL_Driver/Src/stm32f7xx_hal_hcd.c ****             the HAL_HCD_Disconnect_Callback could be implemented in the user file
 636:Drivers/STM32F7xx_HAL_Driver/Src/stm32f7xx_hal_hcd.c ****    */
 637:Drivers/STM32F7xx_HAL_Driver/Src/stm32f7xx_hal_hcd.c **** }
 638:Drivers/STM32F7xx_HAL_Driver/Src/stm32f7xx_hal_hcd.c **** 
 639:Drivers/STM32F7xx_HAL_Driver/Src/stm32f7xx_hal_hcd.c **** /**
 640:Drivers/STM32F7xx_HAL_Driver/Src/stm32f7xx_hal_hcd.c ****   * @brief  Notify URB state change callback.
 641:Drivers/STM32F7xx_HAL_Driver/Src/stm32f7xx_hal_hcd.c ****   * @param  hhcd HCD handle
 642:Drivers/STM32F7xx_HAL_Driver/Src/stm32f7xx_hal_hcd.c ****   * @param  chnum Channel number.
 643:Drivers/STM32F7xx_HAL_Driver/Src/stm32f7xx_hal_hcd.c ****   *         This parameter can be a value from 1 to 15
 644:Drivers/STM32F7xx_HAL_Driver/Src/stm32f7xx_hal_hcd.c ****   * @param  urb_state:
 645:Drivers/STM32F7xx_HAL_Driver/Src/stm32f7xx_hal_hcd.c ****   *          This parameter can be one of these values:
 646:Drivers/STM32F7xx_HAL_Driver/Src/stm32f7xx_hal_hcd.c ****   *            URB_IDLE/
 647:Drivers/STM32F7xx_HAL_Driver/Src/stm32f7xx_hal_hcd.c ****   *            URB_DONE/
 648:Drivers/STM32F7xx_HAL_Driver/Src/stm32f7xx_hal_hcd.c ****   *            URB_NOTREADY/
 649:Drivers/STM32F7xx_HAL_Driver/Src/stm32f7xx_hal_hcd.c ****   *            URB_NYET/
 650:Drivers/STM32F7xx_HAL_Driver/Src/stm32f7xx_hal_hcd.c ****   *            URB_ERROR/
 651:Drivers/STM32F7xx_HAL_Driver/Src/stm32f7xx_hal_hcd.c ****   *            URB_STALL/
 652:Drivers/STM32F7xx_HAL_Driver/Src/stm32f7xx_hal_hcd.c ****   * @retval None
 653:Drivers/STM32F7xx_HAL_Driver/Src/stm32f7xx_hal_hcd.c ****   */
 654:Drivers/STM32F7xx_HAL_Driver/Src/stm32f7xx_hal_hcd.c **** __weak void HAL_HCD_HC_NotifyURBChange_Callback(HCD_HandleTypeDef *hhcd, uint8_t chnum, HCD_URBStat
 655:Drivers/STM32F7xx_HAL_Driver/Src/stm32f7xx_hal_hcd.c **** {
 656:Drivers/STM32F7xx_HAL_Driver/Src/stm32f7xx_hal_hcd.c ****   /* Prevent unused argument(s) compilation warning */
 657:Drivers/STM32F7xx_HAL_Driver/Src/stm32f7xx_hal_hcd.c ****   UNUSED(hhcd);
 658:Drivers/STM32F7xx_HAL_Driver/Src/stm32f7xx_hal_hcd.c ****   UNUSED(chnum);
 659:Drivers/STM32F7xx_HAL_Driver/Src/stm32f7xx_hal_hcd.c ****   UNUSED(urb_state);
ARM GAS  C:\Users\Student\AppData\Local\Temp\ccjpImAB.s 			page 13


 660:Drivers/STM32F7xx_HAL_Driver/Src/stm32f7xx_hal_hcd.c **** 
 661:Drivers/STM32F7xx_HAL_Driver/Src/stm32f7xx_hal_hcd.c ****   /* NOTE : This function should not be modified, when the callback is needed,
 662:Drivers/STM32F7xx_HAL_Driver/Src/stm32f7xx_hal_hcd.c ****             the HAL_HCD_HC_NotifyURBChange_Callback could be implemented in the user file
 663:Drivers/STM32F7xx_HAL_Driver/Src/stm32f7xx_hal_hcd.c ****    */
 664:Drivers/STM32F7xx_HAL_Driver/Src/stm32f7xx_hal_hcd.c **** }
 665:Drivers/STM32F7xx_HAL_Driver/Src/stm32f7xx_hal_hcd.c **** 
 666:Drivers/STM32F7xx_HAL_Driver/Src/stm32f7xx_hal_hcd.c **** /**
 667:Drivers/STM32F7xx_HAL_Driver/Src/stm32f7xx_hal_hcd.c ****   * @}
 668:Drivers/STM32F7xx_HAL_Driver/Src/stm32f7xx_hal_hcd.c ****   */
 669:Drivers/STM32F7xx_HAL_Driver/Src/stm32f7xx_hal_hcd.c **** 
 670:Drivers/STM32F7xx_HAL_Driver/Src/stm32f7xx_hal_hcd.c **** /** @defgroup HCD_Exported_Functions_Group3 Peripheral Control functions
 671:Drivers/STM32F7xx_HAL_Driver/Src/stm32f7xx_hal_hcd.c ****  *  @brief   Management functions
 672:Drivers/STM32F7xx_HAL_Driver/Src/stm32f7xx_hal_hcd.c ****  *
 673:Drivers/STM32F7xx_HAL_Driver/Src/stm32f7xx_hal_hcd.c **** @verbatim
 674:Drivers/STM32F7xx_HAL_Driver/Src/stm32f7xx_hal_hcd.c ****  ===============================================================================
 675:Drivers/STM32F7xx_HAL_Driver/Src/stm32f7xx_hal_hcd.c ****                       ##### Peripheral Control functions #####
 676:Drivers/STM32F7xx_HAL_Driver/Src/stm32f7xx_hal_hcd.c ****  ===============================================================================
 677:Drivers/STM32F7xx_HAL_Driver/Src/stm32f7xx_hal_hcd.c ****     [..]
 678:Drivers/STM32F7xx_HAL_Driver/Src/stm32f7xx_hal_hcd.c ****     This subsection provides a set of functions allowing to control the HCD data
 679:Drivers/STM32F7xx_HAL_Driver/Src/stm32f7xx_hal_hcd.c ****     transfers.
 680:Drivers/STM32F7xx_HAL_Driver/Src/stm32f7xx_hal_hcd.c **** 
 681:Drivers/STM32F7xx_HAL_Driver/Src/stm32f7xx_hal_hcd.c **** @endverbatim
 682:Drivers/STM32F7xx_HAL_Driver/Src/stm32f7xx_hal_hcd.c ****   * @{
 683:Drivers/STM32F7xx_HAL_Driver/Src/stm32f7xx_hal_hcd.c ****   */
 684:Drivers/STM32F7xx_HAL_Driver/Src/stm32f7xx_hal_hcd.c **** 
 685:Drivers/STM32F7xx_HAL_Driver/Src/stm32f7xx_hal_hcd.c **** /**
 686:Drivers/STM32F7xx_HAL_Driver/Src/stm32f7xx_hal_hcd.c ****   * @brief  Start the host driver.
 687:Drivers/STM32F7xx_HAL_Driver/Src/stm32f7xx_hal_hcd.c ****   * @param  hhcd HCD handle
 688:Drivers/STM32F7xx_HAL_Driver/Src/stm32f7xx_hal_hcd.c ****   * @retval HAL status
 689:Drivers/STM32F7xx_HAL_Driver/Src/stm32f7xx_hal_hcd.c ****   */
 690:Drivers/STM32F7xx_HAL_Driver/Src/stm32f7xx_hal_hcd.c **** HAL_StatusTypeDef HAL_HCD_Start(HCD_HandleTypeDef *hhcd)
 691:Drivers/STM32F7xx_HAL_Driver/Src/stm32f7xx_hal_hcd.c **** {
 692:Drivers/STM32F7xx_HAL_Driver/Src/stm32f7xx_hal_hcd.c ****   __HAL_LOCK(hhcd);
 693:Drivers/STM32F7xx_HAL_Driver/Src/stm32f7xx_hal_hcd.c ****   __HAL_HCD_ENABLE(hhcd);
 694:Drivers/STM32F7xx_HAL_Driver/Src/stm32f7xx_hal_hcd.c ****   (void)USB_DriveVbus(hhcd->Instance, 1U);
 695:Drivers/STM32F7xx_HAL_Driver/Src/stm32f7xx_hal_hcd.c ****   __HAL_UNLOCK(hhcd);
 696:Drivers/STM32F7xx_HAL_Driver/Src/stm32f7xx_hal_hcd.c ****   return HAL_OK;
 697:Drivers/STM32F7xx_HAL_Driver/Src/stm32f7xx_hal_hcd.c **** }
 698:Drivers/STM32F7xx_HAL_Driver/Src/stm32f7xx_hal_hcd.c **** 
 699:Drivers/STM32F7xx_HAL_Driver/Src/stm32f7xx_hal_hcd.c **** /**
 700:Drivers/STM32F7xx_HAL_Driver/Src/stm32f7xx_hal_hcd.c ****   * @brief  Stop the host driver.
 701:Drivers/STM32F7xx_HAL_Driver/Src/stm32f7xx_hal_hcd.c ****   * @param  hhcd HCD handle
 702:Drivers/STM32F7xx_HAL_Driver/Src/stm32f7xx_hal_hcd.c ****   * @retval HAL status
 703:Drivers/STM32F7xx_HAL_Driver/Src/stm32f7xx_hal_hcd.c ****   */
 704:Drivers/STM32F7xx_HAL_Driver/Src/stm32f7xx_hal_hcd.c **** 
 705:Drivers/STM32F7xx_HAL_Driver/Src/stm32f7xx_hal_hcd.c **** HAL_StatusTypeDef HAL_HCD_Stop(HCD_HandleTypeDef *hhcd)
 706:Drivers/STM32F7xx_HAL_Driver/Src/stm32f7xx_hal_hcd.c **** {
 707:Drivers/STM32F7xx_HAL_Driver/Src/stm32f7xx_hal_hcd.c ****   __HAL_LOCK(hhcd);
 708:Drivers/STM32F7xx_HAL_Driver/Src/stm32f7xx_hal_hcd.c ****   (void)USB_StopHost(hhcd->Instance);
 709:Drivers/STM32F7xx_HAL_Driver/Src/stm32f7xx_hal_hcd.c ****   __HAL_UNLOCK(hhcd);
 710:Drivers/STM32F7xx_HAL_Driver/Src/stm32f7xx_hal_hcd.c ****   return HAL_OK;
 711:Drivers/STM32F7xx_HAL_Driver/Src/stm32f7xx_hal_hcd.c **** }
 712:Drivers/STM32F7xx_HAL_Driver/Src/stm32f7xx_hal_hcd.c **** 
 713:Drivers/STM32F7xx_HAL_Driver/Src/stm32f7xx_hal_hcd.c **** /**
 714:Drivers/STM32F7xx_HAL_Driver/Src/stm32f7xx_hal_hcd.c ****   * @brief  Reset the host port.
 715:Drivers/STM32F7xx_HAL_Driver/Src/stm32f7xx_hal_hcd.c ****   * @param  hhcd HCD handle
 716:Drivers/STM32F7xx_HAL_Driver/Src/stm32f7xx_hal_hcd.c ****   * @retval HAL status
ARM GAS  C:\Users\Student\AppData\Local\Temp\ccjpImAB.s 			page 14


 717:Drivers/STM32F7xx_HAL_Driver/Src/stm32f7xx_hal_hcd.c ****   */
 718:Drivers/STM32F7xx_HAL_Driver/Src/stm32f7xx_hal_hcd.c **** HAL_StatusTypeDef HAL_HCD_ResetPort(HCD_HandleTypeDef *hhcd)
 719:Drivers/STM32F7xx_HAL_Driver/Src/stm32f7xx_hal_hcd.c **** {
 720:Drivers/STM32F7xx_HAL_Driver/Src/stm32f7xx_hal_hcd.c ****   return (USB_ResetPort(hhcd->Instance));
 721:Drivers/STM32F7xx_HAL_Driver/Src/stm32f7xx_hal_hcd.c **** }
 722:Drivers/STM32F7xx_HAL_Driver/Src/stm32f7xx_hal_hcd.c **** 
 723:Drivers/STM32F7xx_HAL_Driver/Src/stm32f7xx_hal_hcd.c **** /**
 724:Drivers/STM32F7xx_HAL_Driver/Src/stm32f7xx_hal_hcd.c ****   * @}
 725:Drivers/STM32F7xx_HAL_Driver/Src/stm32f7xx_hal_hcd.c ****   */
 726:Drivers/STM32F7xx_HAL_Driver/Src/stm32f7xx_hal_hcd.c **** 
 727:Drivers/STM32F7xx_HAL_Driver/Src/stm32f7xx_hal_hcd.c **** /** @defgroup HCD_Exported_Functions_Group4 Peripheral State functions
 728:Drivers/STM32F7xx_HAL_Driver/Src/stm32f7xx_hal_hcd.c ****  *  @brief   Peripheral State functions
 729:Drivers/STM32F7xx_HAL_Driver/Src/stm32f7xx_hal_hcd.c ****  *
 730:Drivers/STM32F7xx_HAL_Driver/Src/stm32f7xx_hal_hcd.c **** @verbatim
 731:Drivers/STM32F7xx_HAL_Driver/Src/stm32f7xx_hal_hcd.c ****  ===============================================================================
 732:Drivers/STM32F7xx_HAL_Driver/Src/stm32f7xx_hal_hcd.c ****                       ##### Peripheral State functions #####
 733:Drivers/STM32F7xx_HAL_Driver/Src/stm32f7xx_hal_hcd.c ****  ===============================================================================
 734:Drivers/STM32F7xx_HAL_Driver/Src/stm32f7xx_hal_hcd.c ****     [..]
 735:Drivers/STM32F7xx_HAL_Driver/Src/stm32f7xx_hal_hcd.c ****     This subsection permits to get in run-time the status of the peripheral
 736:Drivers/STM32F7xx_HAL_Driver/Src/stm32f7xx_hal_hcd.c ****     and the data flow.
 737:Drivers/STM32F7xx_HAL_Driver/Src/stm32f7xx_hal_hcd.c **** 
 738:Drivers/STM32F7xx_HAL_Driver/Src/stm32f7xx_hal_hcd.c **** @endverbatim
 739:Drivers/STM32F7xx_HAL_Driver/Src/stm32f7xx_hal_hcd.c ****   * @{
 740:Drivers/STM32F7xx_HAL_Driver/Src/stm32f7xx_hal_hcd.c ****   */
 741:Drivers/STM32F7xx_HAL_Driver/Src/stm32f7xx_hal_hcd.c **** 
 742:Drivers/STM32F7xx_HAL_Driver/Src/stm32f7xx_hal_hcd.c **** /**
 743:Drivers/STM32F7xx_HAL_Driver/Src/stm32f7xx_hal_hcd.c ****   * @brief  Return the HCD handle state.
 744:Drivers/STM32F7xx_HAL_Driver/Src/stm32f7xx_hal_hcd.c ****   * @param  hhcd HCD handle
 745:Drivers/STM32F7xx_HAL_Driver/Src/stm32f7xx_hal_hcd.c ****   * @retval HAL state
 746:Drivers/STM32F7xx_HAL_Driver/Src/stm32f7xx_hal_hcd.c ****   */
 747:Drivers/STM32F7xx_HAL_Driver/Src/stm32f7xx_hal_hcd.c **** HCD_StateTypeDef HAL_HCD_GetState(HCD_HandleTypeDef *hhcd)
 748:Drivers/STM32F7xx_HAL_Driver/Src/stm32f7xx_hal_hcd.c **** {
 749:Drivers/STM32F7xx_HAL_Driver/Src/stm32f7xx_hal_hcd.c ****   return hhcd->State;
 750:Drivers/STM32F7xx_HAL_Driver/Src/stm32f7xx_hal_hcd.c **** }
 751:Drivers/STM32F7xx_HAL_Driver/Src/stm32f7xx_hal_hcd.c **** 
 752:Drivers/STM32F7xx_HAL_Driver/Src/stm32f7xx_hal_hcd.c **** /**
 753:Drivers/STM32F7xx_HAL_Driver/Src/stm32f7xx_hal_hcd.c ****   * @brief  Return  URB state for a channel.
 754:Drivers/STM32F7xx_HAL_Driver/Src/stm32f7xx_hal_hcd.c ****   * @param  hhcd HCD handle
 755:Drivers/STM32F7xx_HAL_Driver/Src/stm32f7xx_hal_hcd.c ****   * @param  chnum Channel number.
 756:Drivers/STM32F7xx_HAL_Driver/Src/stm32f7xx_hal_hcd.c ****   *         This parameter can be a value from 1 to 15
 757:Drivers/STM32F7xx_HAL_Driver/Src/stm32f7xx_hal_hcd.c ****   * @retval URB state.
 758:Drivers/STM32F7xx_HAL_Driver/Src/stm32f7xx_hal_hcd.c ****   *          This parameter can be one of these values:
 759:Drivers/STM32F7xx_HAL_Driver/Src/stm32f7xx_hal_hcd.c ****   *            URB_IDLE/
 760:Drivers/STM32F7xx_HAL_Driver/Src/stm32f7xx_hal_hcd.c ****   *            URB_DONE/
 761:Drivers/STM32F7xx_HAL_Driver/Src/stm32f7xx_hal_hcd.c ****   *            URB_NOTREADY/
 762:Drivers/STM32F7xx_HAL_Driver/Src/stm32f7xx_hal_hcd.c ****   *            URB_NYET/
 763:Drivers/STM32F7xx_HAL_Driver/Src/stm32f7xx_hal_hcd.c ****   *            URB_ERROR/
 764:Drivers/STM32F7xx_HAL_Driver/Src/stm32f7xx_hal_hcd.c ****   *            URB_STALL
 765:Drivers/STM32F7xx_HAL_Driver/Src/stm32f7xx_hal_hcd.c ****   */
 766:Drivers/STM32F7xx_HAL_Driver/Src/stm32f7xx_hal_hcd.c **** HCD_URBStateTypeDef HAL_HCD_HC_GetURBState(HCD_HandleTypeDef *hhcd, uint8_t chnum)
 767:Drivers/STM32F7xx_HAL_Driver/Src/stm32f7xx_hal_hcd.c **** {
 768:Drivers/STM32F7xx_HAL_Driver/Src/stm32f7xx_hal_hcd.c ****   return hhcd->hc[chnum].urb_state;
 769:Drivers/STM32F7xx_HAL_Driver/Src/stm32f7xx_hal_hcd.c **** }
 770:Drivers/STM32F7xx_HAL_Driver/Src/stm32f7xx_hal_hcd.c **** 
 771:Drivers/STM32F7xx_HAL_Driver/Src/stm32f7xx_hal_hcd.c **** 
 772:Drivers/STM32F7xx_HAL_Driver/Src/stm32f7xx_hal_hcd.c **** /**
 773:Drivers/STM32F7xx_HAL_Driver/Src/stm32f7xx_hal_hcd.c ****   * @brief  Return the last host transfer size.
ARM GAS  C:\Users\Student\AppData\Local\Temp\ccjpImAB.s 			page 15


 774:Drivers/STM32F7xx_HAL_Driver/Src/stm32f7xx_hal_hcd.c ****   * @param  hhcd HCD handle
 775:Drivers/STM32F7xx_HAL_Driver/Src/stm32f7xx_hal_hcd.c ****   * @param  chnum Channel number.
 776:Drivers/STM32F7xx_HAL_Driver/Src/stm32f7xx_hal_hcd.c ****   *         This parameter can be a value from 1 to 15
 777:Drivers/STM32F7xx_HAL_Driver/Src/stm32f7xx_hal_hcd.c ****   * @retval last transfer size in byte
 778:Drivers/STM32F7xx_HAL_Driver/Src/stm32f7xx_hal_hcd.c ****   */
 779:Drivers/STM32F7xx_HAL_Driver/Src/stm32f7xx_hal_hcd.c **** uint32_t HAL_HCD_HC_GetXferCount(HCD_HandleTypeDef *hhcd, uint8_t chnum)
 780:Drivers/STM32F7xx_HAL_Driver/Src/stm32f7xx_hal_hcd.c **** {
 781:Drivers/STM32F7xx_HAL_Driver/Src/stm32f7xx_hal_hcd.c ****   return hhcd->hc[chnum].xfer_count;
 782:Drivers/STM32F7xx_HAL_Driver/Src/stm32f7xx_hal_hcd.c **** }
 783:Drivers/STM32F7xx_HAL_Driver/Src/stm32f7xx_hal_hcd.c **** 
 784:Drivers/STM32F7xx_HAL_Driver/Src/stm32f7xx_hal_hcd.c **** /**
 785:Drivers/STM32F7xx_HAL_Driver/Src/stm32f7xx_hal_hcd.c ****   * @brief  Return the Host Channel state.
 786:Drivers/STM32F7xx_HAL_Driver/Src/stm32f7xx_hal_hcd.c ****   * @param  hhcd HCD handle
 787:Drivers/STM32F7xx_HAL_Driver/Src/stm32f7xx_hal_hcd.c ****   * @param  chnum Channel number.
 788:Drivers/STM32F7xx_HAL_Driver/Src/stm32f7xx_hal_hcd.c ****   *         This parameter can be a value from 1 to 15
 789:Drivers/STM32F7xx_HAL_Driver/Src/stm32f7xx_hal_hcd.c ****   * @retval Host channel state
 790:Drivers/STM32F7xx_HAL_Driver/Src/stm32f7xx_hal_hcd.c ****   *          This parameter can be one of these values:
 791:Drivers/STM32F7xx_HAL_Driver/Src/stm32f7xx_hal_hcd.c ****   *            HC_IDLE/
 792:Drivers/STM32F7xx_HAL_Driver/Src/stm32f7xx_hal_hcd.c ****   *            HC_XFRC/
 793:Drivers/STM32F7xx_HAL_Driver/Src/stm32f7xx_hal_hcd.c ****   *            HC_HALTED/
 794:Drivers/STM32F7xx_HAL_Driver/Src/stm32f7xx_hal_hcd.c ****   *            HC_NYET/
 795:Drivers/STM32F7xx_HAL_Driver/Src/stm32f7xx_hal_hcd.c ****   *            HC_NAK/
 796:Drivers/STM32F7xx_HAL_Driver/Src/stm32f7xx_hal_hcd.c ****   *            HC_STALL/
 797:Drivers/STM32F7xx_HAL_Driver/Src/stm32f7xx_hal_hcd.c ****   *            HC_XACTERR/
 798:Drivers/STM32F7xx_HAL_Driver/Src/stm32f7xx_hal_hcd.c ****   *            HC_BBLERR/
 799:Drivers/STM32F7xx_HAL_Driver/Src/stm32f7xx_hal_hcd.c ****   *            HC_DATATGLERR
 800:Drivers/STM32F7xx_HAL_Driver/Src/stm32f7xx_hal_hcd.c ****   */
 801:Drivers/STM32F7xx_HAL_Driver/Src/stm32f7xx_hal_hcd.c **** HCD_HCStateTypeDef  HAL_HCD_HC_GetState(HCD_HandleTypeDef *hhcd, uint8_t chnum)
 802:Drivers/STM32F7xx_HAL_Driver/Src/stm32f7xx_hal_hcd.c **** {
 803:Drivers/STM32F7xx_HAL_Driver/Src/stm32f7xx_hal_hcd.c ****   return hhcd->hc[chnum].state;
 804:Drivers/STM32F7xx_HAL_Driver/Src/stm32f7xx_hal_hcd.c **** }
 805:Drivers/STM32F7xx_HAL_Driver/Src/stm32f7xx_hal_hcd.c **** 
 806:Drivers/STM32F7xx_HAL_Driver/Src/stm32f7xx_hal_hcd.c **** /**
 807:Drivers/STM32F7xx_HAL_Driver/Src/stm32f7xx_hal_hcd.c ****   * @brief  Return the current Host frame number.
 808:Drivers/STM32F7xx_HAL_Driver/Src/stm32f7xx_hal_hcd.c ****   * @param  hhcd HCD handle
 809:Drivers/STM32F7xx_HAL_Driver/Src/stm32f7xx_hal_hcd.c ****   * @retval Current Host frame number
 810:Drivers/STM32F7xx_HAL_Driver/Src/stm32f7xx_hal_hcd.c ****   */
 811:Drivers/STM32F7xx_HAL_Driver/Src/stm32f7xx_hal_hcd.c **** uint32_t HAL_HCD_GetCurrentFrame(HCD_HandleTypeDef *hhcd)
 812:Drivers/STM32F7xx_HAL_Driver/Src/stm32f7xx_hal_hcd.c **** {
 813:Drivers/STM32F7xx_HAL_Driver/Src/stm32f7xx_hal_hcd.c ****   return (USB_GetCurrentFrame(hhcd->Instance));
 814:Drivers/STM32F7xx_HAL_Driver/Src/stm32f7xx_hal_hcd.c **** }
 815:Drivers/STM32F7xx_HAL_Driver/Src/stm32f7xx_hal_hcd.c **** 
 816:Drivers/STM32F7xx_HAL_Driver/Src/stm32f7xx_hal_hcd.c **** /**
 817:Drivers/STM32F7xx_HAL_Driver/Src/stm32f7xx_hal_hcd.c ****   * @brief  Return the Host enumeration speed.
 818:Drivers/STM32F7xx_HAL_Driver/Src/stm32f7xx_hal_hcd.c ****   * @param  hhcd HCD handle
 819:Drivers/STM32F7xx_HAL_Driver/Src/stm32f7xx_hal_hcd.c ****   * @retval Enumeration speed
 820:Drivers/STM32F7xx_HAL_Driver/Src/stm32f7xx_hal_hcd.c ****   */
 821:Drivers/STM32F7xx_HAL_Driver/Src/stm32f7xx_hal_hcd.c **** uint32_t HAL_HCD_GetCurrentSpeed(HCD_HandleTypeDef *hhcd)
 822:Drivers/STM32F7xx_HAL_Driver/Src/stm32f7xx_hal_hcd.c **** {
 823:Drivers/STM32F7xx_HAL_Driver/Src/stm32f7xx_hal_hcd.c ****   return (USB_GetHostSpeed(hhcd->Instance));
 824:Drivers/STM32F7xx_HAL_Driver/Src/stm32f7xx_hal_hcd.c **** }
 825:Drivers/STM32F7xx_HAL_Driver/Src/stm32f7xx_hal_hcd.c **** 
 826:Drivers/STM32F7xx_HAL_Driver/Src/stm32f7xx_hal_hcd.c **** /**
 827:Drivers/STM32F7xx_HAL_Driver/Src/stm32f7xx_hal_hcd.c ****   * @}
 828:Drivers/STM32F7xx_HAL_Driver/Src/stm32f7xx_hal_hcd.c ****   */
 829:Drivers/STM32F7xx_HAL_Driver/Src/stm32f7xx_hal_hcd.c **** 
 830:Drivers/STM32F7xx_HAL_Driver/Src/stm32f7xx_hal_hcd.c **** /**
ARM GAS  C:\Users\Student\AppData\Local\Temp\ccjpImAB.s 			page 16


 831:Drivers/STM32F7xx_HAL_Driver/Src/stm32f7xx_hal_hcd.c ****   * @}
 832:Drivers/STM32F7xx_HAL_Driver/Src/stm32f7xx_hal_hcd.c ****   */
 833:Drivers/STM32F7xx_HAL_Driver/Src/stm32f7xx_hal_hcd.c **** 
 834:Drivers/STM32F7xx_HAL_Driver/Src/stm32f7xx_hal_hcd.c **** /** @addtogroup HCD_Private_Functions
 835:Drivers/STM32F7xx_HAL_Driver/Src/stm32f7xx_hal_hcd.c ****   * @{
 836:Drivers/STM32F7xx_HAL_Driver/Src/stm32f7xx_hal_hcd.c ****   */
 837:Drivers/STM32F7xx_HAL_Driver/Src/stm32f7xx_hal_hcd.c **** /**
 838:Drivers/STM32F7xx_HAL_Driver/Src/stm32f7xx_hal_hcd.c ****   * @brief  Handle Host Channel IN interrupt requests.
 839:Drivers/STM32F7xx_HAL_Driver/Src/stm32f7xx_hal_hcd.c ****   * @param  hhcd HCD handle
 840:Drivers/STM32F7xx_HAL_Driver/Src/stm32f7xx_hal_hcd.c ****   * @param  chnum Channel number.
 841:Drivers/STM32F7xx_HAL_Driver/Src/stm32f7xx_hal_hcd.c ****   *         This parameter can be a value from 1 to 15
 842:Drivers/STM32F7xx_HAL_Driver/Src/stm32f7xx_hal_hcd.c ****   * @retval none
 843:Drivers/STM32F7xx_HAL_Driver/Src/stm32f7xx_hal_hcd.c ****   */
 844:Drivers/STM32F7xx_HAL_Driver/Src/stm32f7xx_hal_hcd.c **** static void HCD_HC_IN_IRQHandler (HCD_HandleTypeDef *hhcd, uint8_t chnum)
 845:Drivers/STM32F7xx_HAL_Driver/Src/stm32f7xx_hal_hcd.c **** {
 846:Drivers/STM32F7xx_HAL_Driver/Src/stm32f7xx_hal_hcd.c ****   USB_OTG_GlobalTypeDef *USBx = hhcd->Instance;
 847:Drivers/STM32F7xx_HAL_Driver/Src/stm32f7xx_hal_hcd.c ****   uint32_t USBx_BASE = (uint32_t)USBx;
 848:Drivers/STM32F7xx_HAL_Driver/Src/stm32f7xx_hal_hcd.c ****   uint32_t ch_num = (uint32_t)chnum;
 849:Drivers/STM32F7xx_HAL_Driver/Src/stm32f7xx_hal_hcd.c **** 
 850:Drivers/STM32F7xx_HAL_Driver/Src/stm32f7xx_hal_hcd.c ****   uint32_t tmpreg;
 851:Drivers/STM32F7xx_HAL_Driver/Src/stm32f7xx_hal_hcd.c **** 
 852:Drivers/STM32F7xx_HAL_Driver/Src/stm32f7xx_hal_hcd.c ****   if ((USBx_HC(ch_num)->HCINT & USB_OTG_HCINT_AHBERR) == USB_OTG_HCINT_AHBERR)
 853:Drivers/STM32F7xx_HAL_Driver/Src/stm32f7xx_hal_hcd.c ****   {
 854:Drivers/STM32F7xx_HAL_Driver/Src/stm32f7xx_hal_hcd.c ****     __HAL_HCD_CLEAR_HC_INT(ch_num, USB_OTG_HCINT_AHBERR);
 855:Drivers/STM32F7xx_HAL_Driver/Src/stm32f7xx_hal_hcd.c ****     __HAL_HCD_UNMASK_HALT_HC_INT(ch_num);
 856:Drivers/STM32F7xx_HAL_Driver/Src/stm32f7xx_hal_hcd.c ****   }
 857:Drivers/STM32F7xx_HAL_Driver/Src/stm32f7xx_hal_hcd.c ****   else if ((USBx_HC(ch_num)->HCINT & USB_OTG_HCINT_ACK) == USB_OTG_HCINT_ACK)
 858:Drivers/STM32F7xx_HAL_Driver/Src/stm32f7xx_hal_hcd.c ****   {
 859:Drivers/STM32F7xx_HAL_Driver/Src/stm32f7xx_hal_hcd.c ****     __HAL_HCD_CLEAR_HC_INT(ch_num, USB_OTG_HCINT_ACK);
 860:Drivers/STM32F7xx_HAL_Driver/Src/stm32f7xx_hal_hcd.c ****   }
 861:Drivers/STM32F7xx_HAL_Driver/Src/stm32f7xx_hal_hcd.c ****   else if ((USBx_HC(ch_num)->HCINT & USB_OTG_HCINT_STALL) == USB_OTG_HCINT_STALL)
 862:Drivers/STM32F7xx_HAL_Driver/Src/stm32f7xx_hal_hcd.c ****   {
 863:Drivers/STM32F7xx_HAL_Driver/Src/stm32f7xx_hal_hcd.c ****     __HAL_HCD_UNMASK_HALT_HC_INT(ch_num);
 864:Drivers/STM32F7xx_HAL_Driver/Src/stm32f7xx_hal_hcd.c ****     hhcd->hc[ch_num].state = HC_STALL;
 865:Drivers/STM32F7xx_HAL_Driver/Src/stm32f7xx_hal_hcd.c ****     __HAL_HCD_CLEAR_HC_INT(ch_num, USB_OTG_HCINT_NAK);
 866:Drivers/STM32F7xx_HAL_Driver/Src/stm32f7xx_hal_hcd.c ****     __HAL_HCD_CLEAR_HC_INT(ch_num, USB_OTG_HCINT_STALL);
 867:Drivers/STM32F7xx_HAL_Driver/Src/stm32f7xx_hal_hcd.c ****     (void)USB_HC_Halt(hhcd->Instance, (uint8_t)ch_num);
 868:Drivers/STM32F7xx_HAL_Driver/Src/stm32f7xx_hal_hcd.c ****   }
 869:Drivers/STM32F7xx_HAL_Driver/Src/stm32f7xx_hal_hcd.c ****   else if ((USBx_HC(ch_num)->HCINT & USB_OTG_HCINT_DTERR) == USB_OTG_HCINT_DTERR)
 870:Drivers/STM32F7xx_HAL_Driver/Src/stm32f7xx_hal_hcd.c ****   {
 871:Drivers/STM32F7xx_HAL_Driver/Src/stm32f7xx_hal_hcd.c ****     __HAL_HCD_UNMASK_HALT_HC_INT(ch_num);
 872:Drivers/STM32F7xx_HAL_Driver/Src/stm32f7xx_hal_hcd.c ****     (void)USB_HC_Halt(hhcd->Instance, (uint8_t)ch_num);
 873:Drivers/STM32F7xx_HAL_Driver/Src/stm32f7xx_hal_hcd.c ****     __HAL_HCD_CLEAR_HC_INT(ch_num, USB_OTG_HCINT_NAK);
 874:Drivers/STM32F7xx_HAL_Driver/Src/stm32f7xx_hal_hcd.c ****     hhcd->hc[ch_num].state = HC_DATATGLERR;
 875:Drivers/STM32F7xx_HAL_Driver/Src/stm32f7xx_hal_hcd.c ****     __HAL_HCD_CLEAR_HC_INT(ch_num, USB_OTG_HCINT_DTERR);
 876:Drivers/STM32F7xx_HAL_Driver/Src/stm32f7xx_hal_hcd.c ****   }
 877:Drivers/STM32F7xx_HAL_Driver/Src/stm32f7xx_hal_hcd.c ****   else
 878:Drivers/STM32F7xx_HAL_Driver/Src/stm32f7xx_hal_hcd.c ****   {
 879:Drivers/STM32F7xx_HAL_Driver/Src/stm32f7xx_hal_hcd.c ****     /* ... */
 880:Drivers/STM32F7xx_HAL_Driver/Src/stm32f7xx_hal_hcd.c ****   }
 881:Drivers/STM32F7xx_HAL_Driver/Src/stm32f7xx_hal_hcd.c **** 
 882:Drivers/STM32F7xx_HAL_Driver/Src/stm32f7xx_hal_hcd.c ****   if ((USBx_HC(ch_num)->HCINT & USB_OTG_HCINT_FRMOR) == USB_OTG_HCINT_FRMOR)
 883:Drivers/STM32F7xx_HAL_Driver/Src/stm32f7xx_hal_hcd.c ****   {
 884:Drivers/STM32F7xx_HAL_Driver/Src/stm32f7xx_hal_hcd.c ****     __HAL_HCD_UNMASK_HALT_HC_INT(ch_num);
 885:Drivers/STM32F7xx_HAL_Driver/Src/stm32f7xx_hal_hcd.c ****     (void)USB_HC_Halt(hhcd->Instance, (uint8_t)ch_num);
 886:Drivers/STM32F7xx_HAL_Driver/Src/stm32f7xx_hal_hcd.c ****     __HAL_HCD_CLEAR_HC_INT(ch_num, USB_OTG_HCINT_FRMOR);
 887:Drivers/STM32F7xx_HAL_Driver/Src/stm32f7xx_hal_hcd.c ****   }
ARM GAS  C:\Users\Student\AppData\Local\Temp\ccjpImAB.s 			page 17


 888:Drivers/STM32F7xx_HAL_Driver/Src/stm32f7xx_hal_hcd.c ****   else if ((USBx_HC(ch_num)->HCINT & USB_OTG_HCINT_XFRC) == USB_OTG_HCINT_XFRC)
 889:Drivers/STM32F7xx_HAL_Driver/Src/stm32f7xx_hal_hcd.c ****   {
 890:Drivers/STM32F7xx_HAL_Driver/Src/stm32f7xx_hal_hcd.c ****     if (hhcd->Init.dma_enable != 0U)
 891:Drivers/STM32F7xx_HAL_Driver/Src/stm32f7xx_hal_hcd.c ****     {
 892:Drivers/STM32F7xx_HAL_Driver/Src/stm32f7xx_hal_hcd.c ****       hhcd->hc[ch_num].xfer_count = hhcd->hc[ch_num].xfer_len - \
 893:Drivers/STM32F7xx_HAL_Driver/Src/stm32f7xx_hal_hcd.c ****                                (USBx_HC(ch_num)->HCTSIZ & USB_OTG_HCTSIZ_XFRSIZ);
 894:Drivers/STM32F7xx_HAL_Driver/Src/stm32f7xx_hal_hcd.c ****     }
 895:Drivers/STM32F7xx_HAL_Driver/Src/stm32f7xx_hal_hcd.c **** 
 896:Drivers/STM32F7xx_HAL_Driver/Src/stm32f7xx_hal_hcd.c ****     hhcd->hc[ch_num].state = HC_XFRC;
 897:Drivers/STM32F7xx_HAL_Driver/Src/stm32f7xx_hal_hcd.c ****     hhcd->hc[ch_num].ErrCnt = 0U;
 898:Drivers/STM32F7xx_HAL_Driver/Src/stm32f7xx_hal_hcd.c ****     __HAL_HCD_CLEAR_HC_INT(ch_num, USB_OTG_HCINT_XFRC);
 899:Drivers/STM32F7xx_HAL_Driver/Src/stm32f7xx_hal_hcd.c **** 
 900:Drivers/STM32F7xx_HAL_Driver/Src/stm32f7xx_hal_hcd.c ****     if ((hhcd->hc[ch_num].ep_type == EP_TYPE_CTRL)||
 901:Drivers/STM32F7xx_HAL_Driver/Src/stm32f7xx_hal_hcd.c ****         (hhcd->hc[ch_num].ep_type == EP_TYPE_BULK))
 902:Drivers/STM32F7xx_HAL_Driver/Src/stm32f7xx_hal_hcd.c ****     {
 903:Drivers/STM32F7xx_HAL_Driver/Src/stm32f7xx_hal_hcd.c ****       __HAL_HCD_UNMASK_HALT_HC_INT(ch_num);
 904:Drivers/STM32F7xx_HAL_Driver/Src/stm32f7xx_hal_hcd.c ****       (void)USB_HC_Halt(hhcd->Instance, (uint8_t)ch_num);
 905:Drivers/STM32F7xx_HAL_Driver/Src/stm32f7xx_hal_hcd.c ****       __HAL_HCD_CLEAR_HC_INT(ch_num, USB_OTG_HCINT_NAK);
 906:Drivers/STM32F7xx_HAL_Driver/Src/stm32f7xx_hal_hcd.c ****     }
 907:Drivers/STM32F7xx_HAL_Driver/Src/stm32f7xx_hal_hcd.c ****     else if(hhcd->hc[ch_num].ep_type == EP_TYPE_INTR)
 908:Drivers/STM32F7xx_HAL_Driver/Src/stm32f7xx_hal_hcd.c ****     {
 909:Drivers/STM32F7xx_HAL_Driver/Src/stm32f7xx_hal_hcd.c ****       USBx_HC(ch_num)->HCCHAR |= USB_OTG_HCCHAR_ODDFRM;
 910:Drivers/STM32F7xx_HAL_Driver/Src/stm32f7xx_hal_hcd.c ****       hhcd->hc[ch_num].urb_state = URB_DONE;
 911:Drivers/STM32F7xx_HAL_Driver/Src/stm32f7xx_hal_hcd.c ****       HAL_HCD_HC_NotifyURBChange_Callback(hhcd, (uint8_t)ch_num, hhcd->hc[ch_num].urb_state);
 912:Drivers/STM32F7xx_HAL_Driver/Src/stm32f7xx_hal_hcd.c ****     }
 913:Drivers/STM32F7xx_HAL_Driver/Src/stm32f7xx_hal_hcd.c ****     else
 914:Drivers/STM32F7xx_HAL_Driver/Src/stm32f7xx_hal_hcd.c ****     {
 915:Drivers/STM32F7xx_HAL_Driver/Src/stm32f7xx_hal_hcd.c ****       /* ... */
 916:Drivers/STM32F7xx_HAL_Driver/Src/stm32f7xx_hal_hcd.c ****     }
 917:Drivers/STM32F7xx_HAL_Driver/Src/stm32f7xx_hal_hcd.c ****     hhcd->hc[ch_num].toggle_in ^= 1U;
 918:Drivers/STM32F7xx_HAL_Driver/Src/stm32f7xx_hal_hcd.c **** 
 919:Drivers/STM32F7xx_HAL_Driver/Src/stm32f7xx_hal_hcd.c ****   }
 920:Drivers/STM32F7xx_HAL_Driver/Src/stm32f7xx_hal_hcd.c ****   else if ((USBx_HC(ch_num)->HCINT & USB_OTG_HCINT_CHH) == USB_OTG_HCINT_CHH)
 921:Drivers/STM32F7xx_HAL_Driver/Src/stm32f7xx_hal_hcd.c ****   {
 922:Drivers/STM32F7xx_HAL_Driver/Src/stm32f7xx_hal_hcd.c ****     __HAL_HCD_MASK_HALT_HC_INT(ch_num);
 923:Drivers/STM32F7xx_HAL_Driver/Src/stm32f7xx_hal_hcd.c **** 
 924:Drivers/STM32F7xx_HAL_Driver/Src/stm32f7xx_hal_hcd.c ****     if(hhcd->hc[ch_num].state == HC_XFRC)
 925:Drivers/STM32F7xx_HAL_Driver/Src/stm32f7xx_hal_hcd.c ****     {
 926:Drivers/STM32F7xx_HAL_Driver/Src/stm32f7xx_hal_hcd.c ****       hhcd->hc[ch_num].urb_state  = URB_DONE;
 927:Drivers/STM32F7xx_HAL_Driver/Src/stm32f7xx_hal_hcd.c ****     }
 928:Drivers/STM32F7xx_HAL_Driver/Src/stm32f7xx_hal_hcd.c ****     else if (hhcd->hc[ch_num].state == HC_STALL)
 929:Drivers/STM32F7xx_HAL_Driver/Src/stm32f7xx_hal_hcd.c ****     {
 930:Drivers/STM32F7xx_HAL_Driver/Src/stm32f7xx_hal_hcd.c ****       hhcd->hc[ch_num].urb_state  = URB_STALL;
 931:Drivers/STM32F7xx_HAL_Driver/Src/stm32f7xx_hal_hcd.c ****     }
 932:Drivers/STM32F7xx_HAL_Driver/Src/stm32f7xx_hal_hcd.c ****     else if((hhcd->hc[ch_num].state == HC_XACTERR) ||
 933:Drivers/STM32F7xx_HAL_Driver/Src/stm32f7xx_hal_hcd.c ****             (hhcd->hc[ch_num].state == HC_DATATGLERR))
 934:Drivers/STM32F7xx_HAL_Driver/Src/stm32f7xx_hal_hcd.c ****     {
 935:Drivers/STM32F7xx_HAL_Driver/Src/stm32f7xx_hal_hcd.c ****       hhcd->hc[ch_num].ErrCnt++;
 936:Drivers/STM32F7xx_HAL_Driver/Src/stm32f7xx_hal_hcd.c ****       if(hhcd->hc[ch_num].ErrCnt > 3U)
 937:Drivers/STM32F7xx_HAL_Driver/Src/stm32f7xx_hal_hcd.c ****       {
 938:Drivers/STM32F7xx_HAL_Driver/Src/stm32f7xx_hal_hcd.c ****         hhcd->hc[ch_num].ErrCnt = 0U;
 939:Drivers/STM32F7xx_HAL_Driver/Src/stm32f7xx_hal_hcd.c ****         hhcd->hc[ch_num].urb_state = URB_ERROR;
 940:Drivers/STM32F7xx_HAL_Driver/Src/stm32f7xx_hal_hcd.c ****       }
 941:Drivers/STM32F7xx_HAL_Driver/Src/stm32f7xx_hal_hcd.c ****       else
 942:Drivers/STM32F7xx_HAL_Driver/Src/stm32f7xx_hal_hcd.c ****       {
 943:Drivers/STM32F7xx_HAL_Driver/Src/stm32f7xx_hal_hcd.c ****         hhcd->hc[ch_num].urb_state = URB_NOTREADY;
 944:Drivers/STM32F7xx_HAL_Driver/Src/stm32f7xx_hal_hcd.c ****       }
ARM GAS  C:\Users\Student\AppData\Local\Temp\ccjpImAB.s 			page 18


 945:Drivers/STM32F7xx_HAL_Driver/Src/stm32f7xx_hal_hcd.c **** 
 946:Drivers/STM32F7xx_HAL_Driver/Src/stm32f7xx_hal_hcd.c ****       /* re-activate the channel  */
 947:Drivers/STM32F7xx_HAL_Driver/Src/stm32f7xx_hal_hcd.c ****       tmpreg = USBx_HC(ch_num)->HCCHAR;
 948:Drivers/STM32F7xx_HAL_Driver/Src/stm32f7xx_hal_hcd.c ****       tmpreg &= ~USB_OTG_HCCHAR_CHDIS;
 949:Drivers/STM32F7xx_HAL_Driver/Src/stm32f7xx_hal_hcd.c ****       tmpreg |= USB_OTG_HCCHAR_CHENA;
 950:Drivers/STM32F7xx_HAL_Driver/Src/stm32f7xx_hal_hcd.c ****       USBx_HC(ch_num)->HCCHAR = tmpreg;
 951:Drivers/STM32F7xx_HAL_Driver/Src/stm32f7xx_hal_hcd.c ****     }
 952:Drivers/STM32F7xx_HAL_Driver/Src/stm32f7xx_hal_hcd.c ****     else if (hhcd->hc[ch_num].state == HC_NAK)
 953:Drivers/STM32F7xx_HAL_Driver/Src/stm32f7xx_hal_hcd.c ****     {
 954:Drivers/STM32F7xx_HAL_Driver/Src/stm32f7xx_hal_hcd.c ****       hhcd->hc[ch_num].urb_state  = URB_NOTREADY;
 955:Drivers/STM32F7xx_HAL_Driver/Src/stm32f7xx_hal_hcd.c ****       /* re-activate the channel  */
 956:Drivers/STM32F7xx_HAL_Driver/Src/stm32f7xx_hal_hcd.c ****       tmpreg = USBx_HC(ch_num)->HCCHAR;
 957:Drivers/STM32F7xx_HAL_Driver/Src/stm32f7xx_hal_hcd.c ****       tmpreg &= ~USB_OTG_HCCHAR_CHDIS;
 958:Drivers/STM32F7xx_HAL_Driver/Src/stm32f7xx_hal_hcd.c ****       tmpreg |= USB_OTG_HCCHAR_CHENA;
 959:Drivers/STM32F7xx_HAL_Driver/Src/stm32f7xx_hal_hcd.c ****       USBx_HC(ch_num)->HCCHAR = tmpreg;
 960:Drivers/STM32F7xx_HAL_Driver/Src/stm32f7xx_hal_hcd.c ****     }
 961:Drivers/STM32F7xx_HAL_Driver/Src/stm32f7xx_hal_hcd.c ****     else
 962:Drivers/STM32F7xx_HAL_Driver/Src/stm32f7xx_hal_hcd.c ****     {
 963:Drivers/STM32F7xx_HAL_Driver/Src/stm32f7xx_hal_hcd.c ****       /* ... */
 964:Drivers/STM32F7xx_HAL_Driver/Src/stm32f7xx_hal_hcd.c ****     }
 965:Drivers/STM32F7xx_HAL_Driver/Src/stm32f7xx_hal_hcd.c ****     __HAL_HCD_CLEAR_HC_INT(ch_num, USB_OTG_HCINT_CHH);
 966:Drivers/STM32F7xx_HAL_Driver/Src/stm32f7xx_hal_hcd.c ****     HAL_HCD_HC_NotifyURBChange_Callback(hhcd, (uint8_t)ch_num, hhcd->hc[ch_num].urb_state);
 967:Drivers/STM32F7xx_HAL_Driver/Src/stm32f7xx_hal_hcd.c ****   }
 968:Drivers/STM32F7xx_HAL_Driver/Src/stm32f7xx_hal_hcd.c ****   else if ((USBx_HC(ch_num)->HCINT & USB_OTG_HCINT_TXERR) == USB_OTG_HCINT_TXERR)
 969:Drivers/STM32F7xx_HAL_Driver/Src/stm32f7xx_hal_hcd.c ****   {
 970:Drivers/STM32F7xx_HAL_Driver/Src/stm32f7xx_hal_hcd.c ****     __HAL_HCD_UNMASK_HALT_HC_INT(ch_num);
 971:Drivers/STM32F7xx_HAL_Driver/Src/stm32f7xx_hal_hcd.c ****     hhcd->hc[ch_num].ErrCnt++;
 972:Drivers/STM32F7xx_HAL_Driver/Src/stm32f7xx_hal_hcd.c ****     hhcd->hc[ch_num].state = HC_XACTERR;
 973:Drivers/STM32F7xx_HAL_Driver/Src/stm32f7xx_hal_hcd.c ****     (void)USB_HC_Halt(hhcd->Instance, (uint8_t)ch_num);
 974:Drivers/STM32F7xx_HAL_Driver/Src/stm32f7xx_hal_hcd.c ****     __HAL_HCD_CLEAR_HC_INT(ch_num, USB_OTG_HCINT_TXERR);
 975:Drivers/STM32F7xx_HAL_Driver/Src/stm32f7xx_hal_hcd.c ****   }
 976:Drivers/STM32F7xx_HAL_Driver/Src/stm32f7xx_hal_hcd.c ****   else if ((USBx_HC(ch_num)->HCINT & USB_OTG_HCINT_NAK) == USB_OTG_HCINT_NAK)
 977:Drivers/STM32F7xx_HAL_Driver/Src/stm32f7xx_hal_hcd.c ****   {
 978:Drivers/STM32F7xx_HAL_Driver/Src/stm32f7xx_hal_hcd.c ****     if(hhcd->hc[ch_num].ep_type == EP_TYPE_INTR)
 979:Drivers/STM32F7xx_HAL_Driver/Src/stm32f7xx_hal_hcd.c ****     {
 980:Drivers/STM32F7xx_HAL_Driver/Src/stm32f7xx_hal_hcd.c ****       hhcd->hc[ch_num].ErrCnt = 0U;
 981:Drivers/STM32F7xx_HAL_Driver/Src/stm32f7xx_hal_hcd.c ****       __HAL_HCD_UNMASK_HALT_HC_INT(ch_num);
 982:Drivers/STM32F7xx_HAL_Driver/Src/stm32f7xx_hal_hcd.c ****       (void)USB_HC_Halt(hhcd->Instance, (uint8_t)ch_num);
 983:Drivers/STM32F7xx_HAL_Driver/Src/stm32f7xx_hal_hcd.c ****     }
 984:Drivers/STM32F7xx_HAL_Driver/Src/stm32f7xx_hal_hcd.c ****     else if ((hhcd->hc[ch_num].ep_type == EP_TYPE_CTRL)||
 985:Drivers/STM32F7xx_HAL_Driver/Src/stm32f7xx_hal_hcd.c ****              (hhcd->hc[ch_num].ep_type == EP_TYPE_BULK))
 986:Drivers/STM32F7xx_HAL_Driver/Src/stm32f7xx_hal_hcd.c ****     {
 987:Drivers/STM32F7xx_HAL_Driver/Src/stm32f7xx_hal_hcd.c ****        hhcd->hc[ch_num].ErrCnt = 0U;
 988:Drivers/STM32F7xx_HAL_Driver/Src/stm32f7xx_hal_hcd.c ****        if (hhcd->Init.dma_enable == 0U)
 989:Drivers/STM32F7xx_HAL_Driver/Src/stm32f7xx_hal_hcd.c ****        {
 990:Drivers/STM32F7xx_HAL_Driver/Src/stm32f7xx_hal_hcd.c ****          hhcd->hc[ch_num].state = HC_NAK;
 991:Drivers/STM32F7xx_HAL_Driver/Src/stm32f7xx_hal_hcd.c ****          __HAL_HCD_UNMASK_HALT_HC_INT(ch_num);
 992:Drivers/STM32F7xx_HAL_Driver/Src/stm32f7xx_hal_hcd.c ****          (void)USB_HC_Halt(hhcd->Instance, (uint8_t)ch_num);
 993:Drivers/STM32F7xx_HAL_Driver/Src/stm32f7xx_hal_hcd.c ****        }
 994:Drivers/STM32F7xx_HAL_Driver/Src/stm32f7xx_hal_hcd.c ****     }
 995:Drivers/STM32F7xx_HAL_Driver/Src/stm32f7xx_hal_hcd.c ****     else
 996:Drivers/STM32F7xx_HAL_Driver/Src/stm32f7xx_hal_hcd.c ****     {
 997:Drivers/STM32F7xx_HAL_Driver/Src/stm32f7xx_hal_hcd.c ****       /* ... */
 998:Drivers/STM32F7xx_HAL_Driver/Src/stm32f7xx_hal_hcd.c ****     }
 999:Drivers/STM32F7xx_HAL_Driver/Src/stm32f7xx_hal_hcd.c ****     __HAL_HCD_CLEAR_HC_INT(ch_num, USB_OTG_HCINT_NAK);
1000:Drivers/STM32F7xx_HAL_Driver/Src/stm32f7xx_hal_hcd.c ****   }
1001:Drivers/STM32F7xx_HAL_Driver/Src/stm32f7xx_hal_hcd.c ****   else
ARM GAS  C:\Users\Student\AppData\Local\Temp\ccjpImAB.s 			page 19


1002:Drivers/STM32F7xx_HAL_Driver/Src/stm32f7xx_hal_hcd.c ****   {
1003:Drivers/STM32F7xx_HAL_Driver/Src/stm32f7xx_hal_hcd.c ****     /* ... */
1004:Drivers/STM32F7xx_HAL_Driver/Src/stm32f7xx_hal_hcd.c ****   }
1005:Drivers/STM32F7xx_HAL_Driver/Src/stm32f7xx_hal_hcd.c **** }
1006:Drivers/STM32F7xx_HAL_Driver/Src/stm32f7xx_hal_hcd.c **** 
1007:Drivers/STM32F7xx_HAL_Driver/Src/stm32f7xx_hal_hcd.c **** /**
1008:Drivers/STM32F7xx_HAL_Driver/Src/stm32f7xx_hal_hcd.c ****   * @brief  Handle Host Channel OUT interrupt requests.
1009:Drivers/STM32F7xx_HAL_Driver/Src/stm32f7xx_hal_hcd.c ****   * @param  hhcd HCD handle
1010:Drivers/STM32F7xx_HAL_Driver/Src/stm32f7xx_hal_hcd.c ****   * @param  chnum Channel number.
1011:Drivers/STM32F7xx_HAL_Driver/Src/stm32f7xx_hal_hcd.c ****   *         This parameter can be a value from 1 to 15
1012:Drivers/STM32F7xx_HAL_Driver/Src/stm32f7xx_hal_hcd.c ****   * @retval none
1013:Drivers/STM32F7xx_HAL_Driver/Src/stm32f7xx_hal_hcd.c ****   */
1014:Drivers/STM32F7xx_HAL_Driver/Src/stm32f7xx_hal_hcd.c **** static void HCD_HC_OUT_IRQHandler (HCD_HandleTypeDef *hhcd, uint8_t chnum)
1015:Drivers/STM32F7xx_HAL_Driver/Src/stm32f7xx_hal_hcd.c **** {
1016:Drivers/STM32F7xx_HAL_Driver/Src/stm32f7xx_hal_hcd.c ****   USB_OTG_GlobalTypeDef *USBx = hhcd->Instance;
1017:Drivers/STM32F7xx_HAL_Driver/Src/stm32f7xx_hal_hcd.c ****   uint32_t USBx_BASE = (uint32_t)USBx;
1018:Drivers/STM32F7xx_HAL_Driver/Src/stm32f7xx_hal_hcd.c ****   uint32_t ch_num = (uint32_t)chnum;
1019:Drivers/STM32F7xx_HAL_Driver/Src/stm32f7xx_hal_hcd.c ****   uint32_t tmpreg;
1020:Drivers/STM32F7xx_HAL_Driver/Src/stm32f7xx_hal_hcd.c **** 
1021:Drivers/STM32F7xx_HAL_Driver/Src/stm32f7xx_hal_hcd.c ****   if ((USBx_HC(ch_num)->HCINT & USB_OTG_HCINT_AHBERR) == USB_OTG_HCINT_AHBERR)
1022:Drivers/STM32F7xx_HAL_Driver/Src/stm32f7xx_hal_hcd.c ****   {
1023:Drivers/STM32F7xx_HAL_Driver/Src/stm32f7xx_hal_hcd.c ****     __HAL_HCD_CLEAR_HC_INT(ch_num, USB_OTG_HCINT_AHBERR);
1024:Drivers/STM32F7xx_HAL_Driver/Src/stm32f7xx_hal_hcd.c ****     __HAL_HCD_UNMASK_HALT_HC_INT(ch_num);
1025:Drivers/STM32F7xx_HAL_Driver/Src/stm32f7xx_hal_hcd.c ****   }
1026:Drivers/STM32F7xx_HAL_Driver/Src/stm32f7xx_hal_hcd.c ****   else if ((USBx_HC(ch_num)->HCINT & USB_OTG_HCINT_ACK) == USB_OTG_HCINT_ACK)
1027:Drivers/STM32F7xx_HAL_Driver/Src/stm32f7xx_hal_hcd.c ****   {
1028:Drivers/STM32F7xx_HAL_Driver/Src/stm32f7xx_hal_hcd.c ****     __HAL_HCD_CLEAR_HC_INT(ch_num, USB_OTG_HCINT_ACK);
1029:Drivers/STM32F7xx_HAL_Driver/Src/stm32f7xx_hal_hcd.c **** 
1030:Drivers/STM32F7xx_HAL_Driver/Src/stm32f7xx_hal_hcd.c ****     if( hhcd->hc[ch_num].do_ping == 1U)
1031:Drivers/STM32F7xx_HAL_Driver/Src/stm32f7xx_hal_hcd.c ****     {
1032:Drivers/STM32F7xx_HAL_Driver/Src/stm32f7xx_hal_hcd.c ****       hhcd->hc[ch_num].do_ping = 0U;
1033:Drivers/STM32F7xx_HAL_Driver/Src/stm32f7xx_hal_hcd.c ****       hhcd->hc[ch_num].urb_state  = URB_NOTREADY;
1034:Drivers/STM32F7xx_HAL_Driver/Src/stm32f7xx_hal_hcd.c ****       __HAL_HCD_UNMASK_HALT_HC_INT(ch_num);
1035:Drivers/STM32F7xx_HAL_Driver/Src/stm32f7xx_hal_hcd.c ****       (void)USB_HC_Halt(hhcd->Instance, (uint8_t)ch_num);
1036:Drivers/STM32F7xx_HAL_Driver/Src/stm32f7xx_hal_hcd.c ****     }
1037:Drivers/STM32F7xx_HAL_Driver/Src/stm32f7xx_hal_hcd.c ****   }
1038:Drivers/STM32F7xx_HAL_Driver/Src/stm32f7xx_hal_hcd.c ****   else if ((USBx_HC(ch_num)->HCINT & USB_OTG_HCINT_NYET) == USB_OTG_HCINT_NYET)
1039:Drivers/STM32F7xx_HAL_Driver/Src/stm32f7xx_hal_hcd.c ****   {
1040:Drivers/STM32F7xx_HAL_Driver/Src/stm32f7xx_hal_hcd.c ****     hhcd->hc[ch_num].state = HC_NYET;
1041:Drivers/STM32F7xx_HAL_Driver/Src/stm32f7xx_hal_hcd.c ****     hhcd->hc[ch_num].do_ping = 1U;
1042:Drivers/STM32F7xx_HAL_Driver/Src/stm32f7xx_hal_hcd.c ****     hhcd->hc[ch_num].ErrCnt= 0U;
1043:Drivers/STM32F7xx_HAL_Driver/Src/stm32f7xx_hal_hcd.c ****     __HAL_HCD_UNMASK_HALT_HC_INT(ch_num);
1044:Drivers/STM32F7xx_HAL_Driver/Src/stm32f7xx_hal_hcd.c ****     (void)USB_HC_Halt(hhcd->Instance, (uint8_t)ch_num);
1045:Drivers/STM32F7xx_HAL_Driver/Src/stm32f7xx_hal_hcd.c ****     __HAL_HCD_CLEAR_HC_INT(ch_num, USB_OTG_HCINT_NYET);
1046:Drivers/STM32F7xx_HAL_Driver/Src/stm32f7xx_hal_hcd.c ****   }
1047:Drivers/STM32F7xx_HAL_Driver/Src/stm32f7xx_hal_hcd.c ****   else if ((USBx_HC(ch_num)->HCINT & USB_OTG_HCINT_FRMOR) == USB_OTG_HCINT_FRMOR)
1048:Drivers/STM32F7xx_HAL_Driver/Src/stm32f7xx_hal_hcd.c ****   {
1049:Drivers/STM32F7xx_HAL_Driver/Src/stm32f7xx_hal_hcd.c ****     __HAL_HCD_UNMASK_HALT_HC_INT(ch_num);
1050:Drivers/STM32F7xx_HAL_Driver/Src/stm32f7xx_hal_hcd.c ****     (void)USB_HC_Halt(hhcd->Instance, (uint8_t)ch_num);
1051:Drivers/STM32F7xx_HAL_Driver/Src/stm32f7xx_hal_hcd.c ****     __HAL_HCD_CLEAR_HC_INT(ch_num, USB_OTG_HCINT_FRMOR);
1052:Drivers/STM32F7xx_HAL_Driver/Src/stm32f7xx_hal_hcd.c ****   }
1053:Drivers/STM32F7xx_HAL_Driver/Src/stm32f7xx_hal_hcd.c ****   else if ((USBx_HC(ch_num)->HCINT & USB_OTG_HCINT_XFRC) == USB_OTG_HCINT_XFRC)
1054:Drivers/STM32F7xx_HAL_Driver/Src/stm32f7xx_hal_hcd.c ****   {
1055:Drivers/STM32F7xx_HAL_Driver/Src/stm32f7xx_hal_hcd.c ****     hhcd->hc[ch_num].ErrCnt = 0U;
1056:Drivers/STM32F7xx_HAL_Driver/Src/stm32f7xx_hal_hcd.c ****     __HAL_HCD_UNMASK_HALT_HC_INT(ch_num);
1057:Drivers/STM32F7xx_HAL_Driver/Src/stm32f7xx_hal_hcd.c ****     (void)USB_HC_Halt(hhcd->Instance, (uint8_t)ch_num);
1058:Drivers/STM32F7xx_HAL_Driver/Src/stm32f7xx_hal_hcd.c ****     __HAL_HCD_CLEAR_HC_INT(ch_num, USB_OTG_HCINT_XFRC);
ARM GAS  C:\Users\Student\AppData\Local\Temp\ccjpImAB.s 			page 20


1059:Drivers/STM32F7xx_HAL_Driver/Src/stm32f7xx_hal_hcd.c ****     hhcd->hc[ch_num].state = HC_XFRC;
1060:Drivers/STM32F7xx_HAL_Driver/Src/stm32f7xx_hal_hcd.c ****   }
1061:Drivers/STM32F7xx_HAL_Driver/Src/stm32f7xx_hal_hcd.c ****   else if ((USBx_HC(ch_num)->HCINT & USB_OTG_HCINT_STALL) == USB_OTG_HCINT_STALL)
1062:Drivers/STM32F7xx_HAL_Driver/Src/stm32f7xx_hal_hcd.c ****   {
1063:Drivers/STM32F7xx_HAL_Driver/Src/stm32f7xx_hal_hcd.c ****     __HAL_HCD_CLEAR_HC_INT(ch_num, USB_OTG_HCINT_STALL);
1064:Drivers/STM32F7xx_HAL_Driver/Src/stm32f7xx_hal_hcd.c ****     __HAL_HCD_UNMASK_HALT_HC_INT(ch_num);
1065:Drivers/STM32F7xx_HAL_Driver/Src/stm32f7xx_hal_hcd.c ****     (void)USB_HC_Halt(hhcd->Instance, (uint8_t)ch_num);
1066:Drivers/STM32F7xx_HAL_Driver/Src/stm32f7xx_hal_hcd.c ****     hhcd->hc[ch_num].state = HC_STALL;
1067:Drivers/STM32F7xx_HAL_Driver/Src/stm32f7xx_hal_hcd.c ****   }
1068:Drivers/STM32F7xx_HAL_Driver/Src/stm32f7xx_hal_hcd.c ****   else if ((USBx_HC(ch_num)->HCINT & USB_OTG_HCINT_NAK) == USB_OTG_HCINT_NAK)
1069:Drivers/STM32F7xx_HAL_Driver/Src/stm32f7xx_hal_hcd.c ****   {
1070:Drivers/STM32F7xx_HAL_Driver/Src/stm32f7xx_hal_hcd.c ****     hhcd->hc[ch_num].ErrCnt = 0U;
1071:Drivers/STM32F7xx_HAL_Driver/Src/stm32f7xx_hal_hcd.c ****     hhcd->hc[ch_num].state = HC_NAK;
1072:Drivers/STM32F7xx_HAL_Driver/Src/stm32f7xx_hal_hcd.c **** 
1073:Drivers/STM32F7xx_HAL_Driver/Src/stm32f7xx_hal_hcd.c ****     if (hhcd->hc[ch_num].do_ping == 0U)
1074:Drivers/STM32F7xx_HAL_Driver/Src/stm32f7xx_hal_hcd.c ****     {
1075:Drivers/STM32F7xx_HAL_Driver/Src/stm32f7xx_hal_hcd.c ****       if (hhcd->hc[ch_num].speed == HCD_SPEED_HIGH)
1076:Drivers/STM32F7xx_HAL_Driver/Src/stm32f7xx_hal_hcd.c ****       {
1077:Drivers/STM32F7xx_HAL_Driver/Src/stm32f7xx_hal_hcd.c ****         hhcd->hc[ch_num].do_ping = 1U;
1078:Drivers/STM32F7xx_HAL_Driver/Src/stm32f7xx_hal_hcd.c ****       }
1079:Drivers/STM32F7xx_HAL_Driver/Src/stm32f7xx_hal_hcd.c ****     }
1080:Drivers/STM32F7xx_HAL_Driver/Src/stm32f7xx_hal_hcd.c **** 
1081:Drivers/STM32F7xx_HAL_Driver/Src/stm32f7xx_hal_hcd.c ****     __HAL_HCD_UNMASK_HALT_HC_INT(ch_num);
1082:Drivers/STM32F7xx_HAL_Driver/Src/stm32f7xx_hal_hcd.c ****     (void)USB_HC_Halt(hhcd->Instance, (uint8_t)ch_num);
1083:Drivers/STM32F7xx_HAL_Driver/Src/stm32f7xx_hal_hcd.c ****     __HAL_HCD_CLEAR_HC_INT(ch_num, USB_OTG_HCINT_NAK);
1084:Drivers/STM32F7xx_HAL_Driver/Src/stm32f7xx_hal_hcd.c ****   }
1085:Drivers/STM32F7xx_HAL_Driver/Src/stm32f7xx_hal_hcd.c ****   else if ((USBx_HC(ch_num)->HCINT & USB_OTG_HCINT_TXERR) == USB_OTG_HCINT_TXERR)
1086:Drivers/STM32F7xx_HAL_Driver/Src/stm32f7xx_hal_hcd.c ****   {
1087:Drivers/STM32F7xx_HAL_Driver/Src/stm32f7xx_hal_hcd.c ****     __HAL_HCD_UNMASK_HALT_HC_INT(ch_num);
1088:Drivers/STM32F7xx_HAL_Driver/Src/stm32f7xx_hal_hcd.c ****     (void)USB_HC_Halt(hhcd->Instance, (uint8_t)ch_num);
1089:Drivers/STM32F7xx_HAL_Driver/Src/stm32f7xx_hal_hcd.c ****     hhcd->hc[ch_num].state = HC_XACTERR;
1090:Drivers/STM32F7xx_HAL_Driver/Src/stm32f7xx_hal_hcd.c ****      __HAL_HCD_CLEAR_HC_INT(ch_num, USB_OTG_HCINT_TXERR);
1091:Drivers/STM32F7xx_HAL_Driver/Src/stm32f7xx_hal_hcd.c ****   }
1092:Drivers/STM32F7xx_HAL_Driver/Src/stm32f7xx_hal_hcd.c ****   else if ((USBx_HC(ch_num)->HCINT & USB_OTG_HCINT_DTERR) == USB_OTG_HCINT_DTERR)
1093:Drivers/STM32F7xx_HAL_Driver/Src/stm32f7xx_hal_hcd.c ****   {
1094:Drivers/STM32F7xx_HAL_Driver/Src/stm32f7xx_hal_hcd.c ****     __HAL_HCD_UNMASK_HALT_HC_INT(ch_num);
1095:Drivers/STM32F7xx_HAL_Driver/Src/stm32f7xx_hal_hcd.c ****     (void)USB_HC_Halt(hhcd->Instance, (uint8_t)ch_num);
1096:Drivers/STM32F7xx_HAL_Driver/Src/stm32f7xx_hal_hcd.c ****     __HAL_HCD_CLEAR_HC_INT(ch_num, USB_OTG_HCINT_NAK);
1097:Drivers/STM32F7xx_HAL_Driver/Src/stm32f7xx_hal_hcd.c ****     __HAL_HCD_CLEAR_HC_INT(ch_num, USB_OTG_HCINT_DTERR);
1098:Drivers/STM32F7xx_HAL_Driver/Src/stm32f7xx_hal_hcd.c ****     hhcd->hc[ch_num].state = HC_DATATGLERR;
1099:Drivers/STM32F7xx_HAL_Driver/Src/stm32f7xx_hal_hcd.c ****   }
1100:Drivers/STM32F7xx_HAL_Driver/Src/stm32f7xx_hal_hcd.c ****   else if ((USBx_HC(ch_num)->HCINT & USB_OTG_HCINT_CHH) == USB_OTG_HCINT_CHH)
1101:Drivers/STM32F7xx_HAL_Driver/Src/stm32f7xx_hal_hcd.c ****   {
1102:Drivers/STM32F7xx_HAL_Driver/Src/stm32f7xx_hal_hcd.c ****     __HAL_HCD_MASK_HALT_HC_INT(ch_num);
1103:Drivers/STM32F7xx_HAL_Driver/Src/stm32f7xx_hal_hcd.c **** 
1104:Drivers/STM32F7xx_HAL_Driver/Src/stm32f7xx_hal_hcd.c ****     if (hhcd->hc[ch_num].state == HC_XFRC)
1105:Drivers/STM32F7xx_HAL_Driver/Src/stm32f7xx_hal_hcd.c ****     {
1106:Drivers/STM32F7xx_HAL_Driver/Src/stm32f7xx_hal_hcd.c ****       hhcd->hc[ch_num].urb_state  = URB_DONE;
1107:Drivers/STM32F7xx_HAL_Driver/Src/stm32f7xx_hal_hcd.c ****       if (hhcd->hc[ch_num].ep_type == EP_TYPE_BULK)
1108:Drivers/STM32F7xx_HAL_Driver/Src/stm32f7xx_hal_hcd.c ****       {
1109:Drivers/STM32F7xx_HAL_Driver/Src/stm32f7xx_hal_hcd.c ****         hhcd->hc[ch_num].toggle_out ^= 1U;
1110:Drivers/STM32F7xx_HAL_Driver/Src/stm32f7xx_hal_hcd.c ****       }
1111:Drivers/STM32F7xx_HAL_Driver/Src/stm32f7xx_hal_hcd.c ****     }
1112:Drivers/STM32F7xx_HAL_Driver/Src/stm32f7xx_hal_hcd.c ****     else if (hhcd->hc[ch_num].state == HC_NAK)
1113:Drivers/STM32F7xx_HAL_Driver/Src/stm32f7xx_hal_hcd.c ****     {
1114:Drivers/STM32F7xx_HAL_Driver/Src/stm32f7xx_hal_hcd.c ****       hhcd->hc[ch_num].urb_state = URB_NOTREADY;
1115:Drivers/STM32F7xx_HAL_Driver/Src/stm32f7xx_hal_hcd.c ****     }
ARM GAS  C:\Users\Student\AppData\Local\Temp\ccjpImAB.s 			page 21


1116:Drivers/STM32F7xx_HAL_Driver/Src/stm32f7xx_hal_hcd.c ****     else if (hhcd->hc[ch_num].state == HC_NYET)
1117:Drivers/STM32F7xx_HAL_Driver/Src/stm32f7xx_hal_hcd.c ****     {
1118:Drivers/STM32F7xx_HAL_Driver/Src/stm32f7xx_hal_hcd.c ****       hhcd->hc[ch_num].urb_state  = URB_NOTREADY;
1119:Drivers/STM32F7xx_HAL_Driver/Src/stm32f7xx_hal_hcd.c ****     }
1120:Drivers/STM32F7xx_HAL_Driver/Src/stm32f7xx_hal_hcd.c ****     else if (hhcd->hc[ch_num].state == HC_STALL)
1121:Drivers/STM32F7xx_HAL_Driver/Src/stm32f7xx_hal_hcd.c ****     {
1122:Drivers/STM32F7xx_HAL_Driver/Src/stm32f7xx_hal_hcd.c ****       hhcd->hc[ch_num].urb_state  = URB_STALL;
1123:Drivers/STM32F7xx_HAL_Driver/Src/stm32f7xx_hal_hcd.c ****     }
1124:Drivers/STM32F7xx_HAL_Driver/Src/stm32f7xx_hal_hcd.c ****     else if ((hhcd->hc[ch_num].state == HC_XACTERR) ||
1125:Drivers/STM32F7xx_HAL_Driver/Src/stm32f7xx_hal_hcd.c ****             (hhcd->hc[ch_num].state == HC_DATATGLERR))
1126:Drivers/STM32F7xx_HAL_Driver/Src/stm32f7xx_hal_hcd.c ****     {
1127:Drivers/STM32F7xx_HAL_Driver/Src/stm32f7xx_hal_hcd.c ****       hhcd->hc[ch_num].ErrCnt++;
1128:Drivers/STM32F7xx_HAL_Driver/Src/stm32f7xx_hal_hcd.c ****       if (hhcd->hc[ch_num].ErrCnt > 3U)
1129:Drivers/STM32F7xx_HAL_Driver/Src/stm32f7xx_hal_hcd.c ****       {
1130:Drivers/STM32F7xx_HAL_Driver/Src/stm32f7xx_hal_hcd.c ****         hhcd->hc[ch_num].ErrCnt = 0U;
1131:Drivers/STM32F7xx_HAL_Driver/Src/stm32f7xx_hal_hcd.c ****         hhcd->hc[ch_num].urb_state = URB_ERROR;
1132:Drivers/STM32F7xx_HAL_Driver/Src/stm32f7xx_hal_hcd.c ****       }
1133:Drivers/STM32F7xx_HAL_Driver/Src/stm32f7xx_hal_hcd.c ****       else
1134:Drivers/STM32F7xx_HAL_Driver/Src/stm32f7xx_hal_hcd.c ****       {
1135:Drivers/STM32F7xx_HAL_Driver/Src/stm32f7xx_hal_hcd.c ****         hhcd->hc[ch_num].urb_state = URB_NOTREADY;
1136:Drivers/STM32F7xx_HAL_Driver/Src/stm32f7xx_hal_hcd.c ****       }
1137:Drivers/STM32F7xx_HAL_Driver/Src/stm32f7xx_hal_hcd.c **** 
1138:Drivers/STM32F7xx_HAL_Driver/Src/stm32f7xx_hal_hcd.c ****       /* re-activate the channel  */
1139:Drivers/STM32F7xx_HAL_Driver/Src/stm32f7xx_hal_hcd.c ****       tmpreg = USBx_HC(ch_num)->HCCHAR;
1140:Drivers/STM32F7xx_HAL_Driver/Src/stm32f7xx_hal_hcd.c ****       tmpreg &= ~USB_OTG_HCCHAR_CHDIS;
1141:Drivers/STM32F7xx_HAL_Driver/Src/stm32f7xx_hal_hcd.c ****       tmpreg |= USB_OTG_HCCHAR_CHENA;
1142:Drivers/STM32F7xx_HAL_Driver/Src/stm32f7xx_hal_hcd.c ****       USBx_HC(ch_num)->HCCHAR = tmpreg;
1143:Drivers/STM32F7xx_HAL_Driver/Src/stm32f7xx_hal_hcd.c ****     }
1144:Drivers/STM32F7xx_HAL_Driver/Src/stm32f7xx_hal_hcd.c ****     else
1145:Drivers/STM32F7xx_HAL_Driver/Src/stm32f7xx_hal_hcd.c ****     {
1146:Drivers/STM32F7xx_HAL_Driver/Src/stm32f7xx_hal_hcd.c ****       /* ... */
1147:Drivers/STM32F7xx_HAL_Driver/Src/stm32f7xx_hal_hcd.c ****     }
1148:Drivers/STM32F7xx_HAL_Driver/Src/stm32f7xx_hal_hcd.c **** 
1149:Drivers/STM32F7xx_HAL_Driver/Src/stm32f7xx_hal_hcd.c ****     __HAL_HCD_CLEAR_HC_INT(ch_num, USB_OTG_HCINT_CHH);
1150:Drivers/STM32F7xx_HAL_Driver/Src/stm32f7xx_hal_hcd.c ****     HAL_HCD_HC_NotifyURBChange_Callback(hhcd, (uint8_t)ch_num, hhcd->hc[ch_num].urb_state);
1151:Drivers/STM32F7xx_HAL_Driver/Src/stm32f7xx_hal_hcd.c ****   }
1152:Drivers/STM32F7xx_HAL_Driver/Src/stm32f7xx_hal_hcd.c ****   else
1153:Drivers/STM32F7xx_HAL_Driver/Src/stm32f7xx_hal_hcd.c ****   {
1154:Drivers/STM32F7xx_HAL_Driver/Src/stm32f7xx_hal_hcd.c ****      /* ... */
1155:Drivers/STM32F7xx_HAL_Driver/Src/stm32f7xx_hal_hcd.c ****   }
1156:Drivers/STM32F7xx_HAL_Driver/Src/stm32f7xx_hal_hcd.c **** }
1157:Drivers/STM32F7xx_HAL_Driver/Src/stm32f7xx_hal_hcd.c **** 
1158:Drivers/STM32F7xx_HAL_Driver/Src/stm32f7xx_hal_hcd.c **** /**
1159:Drivers/STM32F7xx_HAL_Driver/Src/stm32f7xx_hal_hcd.c ****   * @brief  Handle Rx Queue Level interrupt requests.
1160:Drivers/STM32F7xx_HAL_Driver/Src/stm32f7xx_hal_hcd.c ****   * @param  hhcd HCD handle
1161:Drivers/STM32F7xx_HAL_Driver/Src/stm32f7xx_hal_hcd.c ****   * @retval none
1162:Drivers/STM32F7xx_HAL_Driver/Src/stm32f7xx_hal_hcd.c ****   */
1163:Drivers/STM32F7xx_HAL_Driver/Src/stm32f7xx_hal_hcd.c **** static void HCD_RXQLVL_IRQHandler (HCD_HandleTypeDef *hhcd)
1164:Drivers/STM32F7xx_HAL_Driver/Src/stm32f7xx_hal_hcd.c **** {
  27              		.loc 1 1164 0
  28              		.cfi_startproc
  29              		@ args = 0, pretend = 0, frame = 0
  30              		@ frame_needed = 0, uses_anonymous_args = 0
  31              	.LVL0:
  32 0000 F8B5     		push	{r3, r4, r5, r6, r7, lr}
  33              	.LCFI0:
  34              		.cfi_def_cfa_offset 24
ARM GAS  C:\Users\Student\AppData\Local\Temp\ccjpImAB.s 			page 22


  35              		.cfi_offset 3, -24
  36              		.cfi_offset 4, -20
  37              		.cfi_offset 5, -16
  38              		.cfi_offset 6, -12
  39              		.cfi_offset 7, -8
  40              		.cfi_offset 14, -4
1165:Drivers/STM32F7xx_HAL_Driver/Src/stm32f7xx_hal_hcd.c ****   USB_OTG_GlobalTypeDef *USBx = hhcd->Instance;
  41              		.loc 1 1165 0
  42 0002 0668     		ldr	r6, [r0]
  43              	.LVL1:
1166:Drivers/STM32F7xx_HAL_Driver/Src/stm32f7xx_hal_hcd.c ****   uint32_t USBx_BASE = (uint32_t)USBx;
1167:Drivers/STM32F7xx_HAL_Driver/Src/stm32f7xx_hal_hcd.c ****   uint32_t pktsts;
1168:Drivers/STM32F7xx_HAL_Driver/Src/stm32f7xx_hal_hcd.c ****   uint32_t pktcnt;
1169:Drivers/STM32F7xx_HAL_Driver/Src/stm32f7xx_hal_hcd.c ****   uint32_t temp;
1170:Drivers/STM32F7xx_HAL_Driver/Src/stm32f7xx_hal_hcd.c ****   uint32_t tmpreg;
1171:Drivers/STM32F7xx_HAL_Driver/Src/stm32f7xx_hal_hcd.c ****   uint32_t ch_num;
1172:Drivers/STM32F7xx_HAL_Driver/Src/stm32f7xx_hal_hcd.c **** 
1173:Drivers/STM32F7xx_HAL_Driver/Src/stm32f7xx_hal_hcd.c ****   temp = hhcd->Instance->GRXSTSP;
  44              		.loc 1 1173 0
  45 0004 346A     		ldr	r4, [r6, #32]
  46              	.LVL2:
1174:Drivers/STM32F7xx_HAL_Driver/Src/stm32f7xx_hal_hcd.c ****   ch_num = temp & USB_OTG_GRXSTSP_EPNUM;
  47              		.loc 1 1174 0
  48 0006 04F00F07 		and	r7, r4, #15
  49              	.LVL3:
1175:Drivers/STM32F7xx_HAL_Driver/Src/stm32f7xx_hal_hcd.c ****   pktsts = (temp & USB_OTG_GRXSTSP_PKTSTS) >> 17;
  50              		.loc 1 1175 0
  51 000a C4F34343 		ubfx	r3, r4, #17, #4
  52              	.LVL4:
1176:Drivers/STM32F7xx_HAL_Driver/Src/stm32f7xx_hal_hcd.c ****   pktcnt = (temp & USB_OTG_GRXSTSP_BCNT) >> 4;
  53              		.loc 1 1176 0
  54 000e C4F30A14 		ubfx	r4, r4, #4, #11
  55              	.LVL5:
1177:Drivers/STM32F7xx_HAL_Driver/Src/stm32f7xx_hal_hcd.c **** 
1178:Drivers/STM32F7xx_HAL_Driver/Src/stm32f7xx_hal_hcd.c ****   switch (pktsts)
  56              		.loc 1 1178 0
  57 0012 022B     		cmp	r3, #2
  58 0014 2ED1     		bne	.L1
1179:Drivers/STM32F7xx_HAL_Driver/Src/stm32f7xx_hal_hcd.c ****   {
1180:Drivers/STM32F7xx_HAL_Driver/Src/stm32f7xx_hal_hcd.c ****   case GRXSTS_PKTSTS_IN:
1181:Drivers/STM32F7xx_HAL_Driver/Src/stm32f7xx_hal_hcd.c ****     /* Read the data into the host buffer. */
1182:Drivers/STM32F7xx_HAL_Driver/Src/stm32f7xx_hal_hcd.c ****     if ((pktcnt > 0U) && (hhcd->hc[ch_num].xfer_buff != (void  *)0))
  59              		.loc 1 1182 0
  60 0016 6CB3     		cbz	r4, .L1
  61              		.loc 1 1182 0 is_stmt 0 discriminator 1
  62 0018 07EB8702 		add	r2, r7, r7, lsl #2
  63 001c D300     		lsls	r3, r2, #3
  64              	.LVL6:
  65 001e 0344     		add	r3, r3, r0
  66 0020 596C     		ldr	r1, [r3, #68]
  67 0022 39B3     		cbz	r1, .L1
  68 0024 0546     		mov	r5, r0
1183:Drivers/STM32F7xx_HAL_Driver/Src/stm32f7xx_hal_hcd.c ****     {
1184:Drivers/STM32F7xx_HAL_Driver/Src/stm32f7xx_hal_hcd.c ****       (void)USB_ReadPacket(hhcd->Instance, hhcd->hc[ch_num].xfer_buff, (uint16_t)pktcnt);
  69              		.loc 1 1184 0 is_stmt 1
  70 0026 2246     		mov	r2, r4
  71 0028 3046     		mov	r0, r6
ARM GAS  C:\Users\Student\AppData\Local\Temp\ccjpImAB.s 			page 23


  72              	.LVL7:
  73 002a FFF7FEFF 		bl	USB_ReadPacket
  74              	.LVL8:
1185:Drivers/STM32F7xx_HAL_Driver/Src/stm32f7xx_hal_hcd.c **** 
1186:Drivers/STM32F7xx_HAL_Driver/Src/stm32f7xx_hal_hcd.c ****       /*manage multiple Xfer */
1187:Drivers/STM32F7xx_HAL_Driver/Src/stm32f7xx_hal_hcd.c ****       hhcd->hc[ch_num].xfer_buff += pktcnt;
  75              		.loc 1 1187 0
  76 002e BA00     		lsls	r2, r7, #2
  77 0030 3A44     		add	r2, r2, r7
  78 0032 D300     		lsls	r3, r2, #3
  79 0034 2B44     		add	r3, r3, r5
  80 0036 5A6C     		ldr	r2, [r3, #68]
  81 0038 2244     		add	r2, r2, r4
  82 003a 5A64     		str	r2, [r3, #68]
1188:Drivers/STM32F7xx_HAL_Driver/Src/stm32f7xx_hal_hcd.c ****       hhcd->hc[ch_num].xfer_count  += pktcnt;
  83              		.loc 1 1188 0
  84 003c DA6C     		ldr	r2, [r3, #76]
  85 003e 2244     		add	r2, r2, r4
  86 0040 DA64     		str	r2, [r3, #76]
1189:Drivers/STM32F7xx_HAL_Driver/Src/stm32f7xx_hal_hcd.c **** 
1190:Drivers/STM32F7xx_HAL_Driver/Src/stm32f7xx_hal_hcd.c ****       if((USBx_HC(ch_num)->HCTSIZ & USB_OTG_HCTSIZ_PKTCNT) > 0U)
  87              		.loc 1 1190 0
  88 0042 06EB4713 		add	r3, r6, r7, lsl #5
  89 0046 D3F81015 		ldr	r1, [r3, #1296]
  90 004a 0B4A     		ldr	r2, .L5
  91 004c 0A40     		ands	r2, r2, r1
  92 004e 8AB1     		cbz	r2, .L1
1191:Drivers/STM32F7xx_HAL_Driver/Src/stm32f7xx_hal_hcd.c ****       {
1192:Drivers/STM32F7xx_HAL_Driver/Src/stm32f7xx_hal_hcd.c ****         /* re-activate the channel when more packets are expected */
1193:Drivers/STM32F7xx_HAL_Driver/Src/stm32f7xx_hal_hcd.c ****         tmpreg = USBx_HC(ch_num)->HCCHAR;
  93              		.loc 1 1193 0
  94 0050 D3F80025 		ldr	r2, [r3, #1280]
  95              	.LVL9:
1194:Drivers/STM32F7xx_HAL_Driver/Src/stm32f7xx_hal_hcd.c ****         tmpreg &= ~USB_OTG_HCCHAR_CHDIS;
  96              		.loc 1 1194 0
  97 0054 22F08042 		bic	r2, r2, #1073741824
  98              	.LVL10:
1195:Drivers/STM32F7xx_HAL_Driver/Src/stm32f7xx_hal_hcd.c ****         tmpreg |= USB_OTG_HCCHAR_CHENA;
  99              		.loc 1 1195 0
 100 0058 42F00042 		orr	r2, r2, #-2147483648
 101              	.LVL11:
1196:Drivers/STM32F7xx_HAL_Driver/Src/stm32f7xx_hal_hcd.c ****         USBx_HC(ch_num)->HCCHAR = tmpreg;
 102              		.loc 1 1196 0
 103 005c C3F80025 		str	r2, [r3, #1280]
1197:Drivers/STM32F7xx_HAL_Driver/Src/stm32f7xx_hal_hcd.c ****         hhcd->hc[ch_num].toggle_in ^= 1U;
 104              		.loc 1 1197 0
 105 0060 BB00     		lsls	r3, r7, #2
 106 0062 D919     		adds	r1, r3, r7
 107 0064 CA00     		lsls	r2, r1, #3
 108              	.LVL12:
 109 0066 2A44     		add	r2, r2, r5
 110 0068 92F85030 		ldrb	r3, [r2, #80]	@ zero_extendqisi2
 111 006c 83F00103 		eor	r3, r3, #1
 112 0070 82F85030 		strb	r3, [r2, #80]
 113              	.LVL13:
 114              	.L1:
 115 0074 F8BD     		pop	{r3, r4, r5, r6, r7, pc}
ARM GAS  C:\Users\Student\AppData\Local\Temp\ccjpImAB.s 			page 24


 116              	.LVL14:
 117              	.L6:
 118 0076 00BF     		.align	2
 119              	.L5:
 120 0078 0000F81F 		.word	536346624
 121              		.cfi_endproc
 122              	.LFE161:
 124              		.section	.text.HAL_HCD_HC_Init,"ax",%progbits
 125              		.align	1
 126              		.global	HAL_HCD_HC_Init
 127              		.syntax unified
 128              		.thumb
 129              		.thumb_func
 130              		.fpu fpv5-sp-d16
 132              	HAL_HCD_HC_Init:
 133              	.LFB137:
 195:Drivers/STM32F7xx_HAL_Driver/Src/stm32f7xx_hal_hcd.c ****   HAL_StatusTypeDef status;
 134              		.loc 1 195 0
 135              		.cfi_startproc
 136              		@ args = 12, pretend = 0, frame = 0
 137              		@ frame_needed = 0, uses_anonymous_args = 0
 138              	.LVL15:
 139 0000 F0B5     		push	{r4, r5, r6, r7, lr}
 140              	.LCFI1:
 141              		.cfi_def_cfa_offset 20
 142              		.cfi_offset 4, -20
 143              		.cfi_offset 5, -16
 144              		.cfi_offset 6, -12
 145              		.cfi_offset 7, -8
 146              		.cfi_offset 14, -4
 147 0002 85B0     		sub	sp, sp, #20
 148              	.LCFI2:
 149              		.cfi_def_cfa_offset 40
 150 0004 9DF82850 		ldrb	r5, [sp, #40]	@ zero_extendqisi2
 151 0008 9DF82C60 		ldrb	r6, [sp, #44]	@ zero_extendqisi2
 152 000c BDF83070 		ldrh	r7, [sp, #48]
 198:Drivers/STM32F7xx_HAL_Driver/Src/stm32f7xx_hal_hcd.c ****   hhcd->hc[ch_num].do_ping = 0U;
 153              		.loc 1 198 0
 154 0010 90F8B842 		ldrb	r4, [r0, #696]	@ zero_extendqisi2
 155 0014 012C     		cmp	r4, #1
 156 0016 41D0     		beq	.L11
 198:Drivers/STM32F7xx_HAL_Driver/Src/stm32f7xx_hal_hcd.c ****   hhcd->hc[ch_num].do_ping = 0U;
 157              		.loc 1 198 0 is_stmt 0 discriminator 2
 158 0018 0124     		movs	r4, #1
 159 001a 80F8B842 		strb	r4, [r0, #696]
 199:Drivers/STM32F7xx_HAL_Driver/Src/stm32f7xx_hal_hcd.c ****   hhcd->hc[ch_num].dev_addr = dev_address;
 160              		.loc 1 199 0 is_stmt 1 discriminator 2
 161 001e 4FEA810E 		lsl	lr, r1, #2
 162 0022 8E44     		add	lr, lr, r1
 163 0024 4FEACE04 		lsl	r4, lr, #3
 164 0028 0444     		add	r4, r4, r0
 165 002a 4FF0000E 		mov	lr, #0
 166 002e 84F83DE0 		strb	lr, [r4, #61]
 200:Drivers/STM32F7xx_HAL_Driver/Src/stm32f7xx_hal_hcd.c ****   hhcd->hc[ch_num].max_packet = mps;
 167              		.loc 1 200 0 discriminator 2
 168 0032 84F83830 		strb	r3, [r4, #56]
 201:Drivers/STM32F7xx_HAL_Driver/Src/stm32f7xx_hal_hcd.c ****   hhcd->hc[ch_num].ch_num = ch_num;
ARM GAS  C:\Users\Student\AppData\Local\Temp\ccjpImAB.s 			page 25


 169              		.loc 1 201 0 discriminator 2
 170 0036 A4F84070 		strh	r7, [r4, #64]	@ movhi
 202:Drivers/STM32F7xx_HAL_Driver/Src/stm32f7xx_hal_hcd.c ****   hhcd->hc[ch_num].ep_type = ep_type;
 171              		.loc 1 202 0 discriminator 2
 172 003a 84F83910 		strb	r1, [r4, #57]
 203:Drivers/STM32F7xx_HAL_Driver/Src/stm32f7xx_hal_hcd.c ****   hhcd->hc[ch_num].ep_num = epnum & 0x7FU;
 173              		.loc 1 203 0 discriminator 2
 174 003e 84F83F60 		strb	r6, [r4, #63]
 204:Drivers/STM32F7xx_HAL_Driver/Src/stm32f7xx_hal_hcd.c **** 
 175              		.loc 1 204 0 discriminator 2
 176 0042 02F07F0E 		and	lr, r2, #127
 177 0046 84F83AE0 		strb	lr, [r4, #58]
 206:Drivers/STM32F7xx_HAL_Driver/Src/stm32f7xx_hal_hcd.c ****   {
 178              		.loc 1 206 0 discriminator 2
 179 004a 12F0800F 		tst	r2, #128
 180 004e 1BD1     		bne	.L13
 212:Drivers/STM32F7xx_HAL_Driver/Src/stm32f7xx_hal_hcd.c ****   }
 181              		.loc 1 212 0
 182 0050 01EB810E 		add	lr, r1, r1, lsl #2
 183 0054 4FEACE04 		lsl	r4, lr, #3
 184 0058 0444     		add	r4, r4, r0
 185 005a 4FF0000E 		mov	lr, #0
 186 005e 84F83BE0 		strb	lr, [r4, #59]
 187              	.L10:
 188 0062 0446     		mov	r4, r0
 215:Drivers/STM32F7xx_HAL_Driver/Src/stm32f7xx_hal_hcd.c **** 
 189              		.loc 1 215 0
 190 0064 01EB810E 		add	lr, r1, r1, lsl #2
 191 0068 4FEACE00 		lsl	r0, lr, #3
 192              	.LVL16:
 193 006c 2044     		add	r0, r0, r4
 194 006e 80F83C50 		strb	r5, [r0, #60]
 217:Drivers/STM32F7xx_HAL_Driver/Src/stm32f7xx_hal_hcd.c ****                         ch_num,
 195              		.loc 1 217 0
 196 0072 0297     		str	r7, [sp, #8]
 197 0074 0196     		str	r6, [sp, #4]
 198 0076 0095     		str	r5, [sp]
 199 0078 2068     		ldr	r0, [r4]
 200 007a FFF7FEFF 		bl	USB_HC_Init
 201              	.LVL17:
 224:Drivers/STM32F7xx_HAL_Driver/Src/stm32f7xx_hal_hcd.c **** 
 202              		.loc 1 224 0
 203 007e 0023     		movs	r3, #0
 204 0080 84F8B832 		strb	r3, [r4, #696]
 205              	.LVL18:
 206              	.L8:
 227:Drivers/STM32F7xx_HAL_Driver/Src/stm32f7xx_hal_hcd.c **** 
 207              		.loc 1 227 0
 208 0084 05B0     		add	sp, sp, #20
 209              	.LCFI3:
 210              		.cfi_remember_state
 211              		.cfi_def_cfa_offset 20
 212              		@ sp needed
 213 0086 F0BD     		pop	{r4, r5, r6, r7, pc}
 214              	.LVL19:
 215              	.L13:
 216              	.LCFI4:
ARM GAS  C:\Users\Student\AppData\Local\Temp\ccjpImAB.s 			page 26


 217              		.cfi_restore_state
 208:Drivers/STM32F7xx_HAL_Driver/Src/stm32f7xx_hal_hcd.c ****   }
 218              		.loc 1 208 0
 219 0088 01EB810E 		add	lr, r1, r1, lsl #2
 220 008c 4FEACE04 		lsl	r4, lr, #3
 221 0090 0444     		add	r4, r4, r0
 222 0092 4FF0010E 		mov	lr, #1
 223 0096 84F83BE0 		strb	lr, [r4, #59]
 224 009a E2E7     		b	.L10
 225              	.L11:
 198:Drivers/STM32F7xx_HAL_Driver/Src/stm32f7xx_hal_hcd.c ****   hhcd->hc[ch_num].do_ping = 0U;
 226              		.loc 1 198 0
 227 009c 0220     		movs	r0, #2
 228              	.LVL20:
 229 009e F1E7     		b	.L8
 230              		.cfi_endproc
 231              	.LFE137:
 233              		.section	.text.HAL_HCD_HC_Halt,"ax",%progbits
 234              		.align	1
 235              		.global	HAL_HCD_HC_Halt
 236              		.syntax unified
 237              		.thumb
 238              		.thumb_func
 239              		.fpu fpv5-sp-d16
 241              	HAL_HCD_HC_Halt:
 242              	.LFB138:
 237:Drivers/STM32F7xx_HAL_Driver/Src/stm32f7xx_hal_hcd.c ****   HAL_StatusTypeDef status = HAL_OK;
 243              		.loc 1 237 0
 244              		.cfi_startproc
 245              		@ args = 0, pretend = 0, frame = 0
 246              		@ frame_needed = 0, uses_anonymous_args = 0
 247              	.LVL21:
 240:Drivers/STM32F7xx_HAL_Driver/Src/stm32f7xx_hal_hcd.c ****   (void)USB_HC_Halt(hhcd->Instance, (uint8_t)ch_num);
 248              		.loc 1 240 0
 249 0000 90F8B832 		ldrb	r3, [r0, #696]	@ zero_extendqisi2
 250 0004 012B     		cmp	r3, #1
 251 0006 01D1     		bne	.L21
 252 0008 0220     		movs	r0, #2
 253              	.LVL22:
 254 000a 7047     		bx	lr
 255              	.LVL23:
 256              	.L21:
 237:Drivers/STM32F7xx_HAL_Driver/Src/stm32f7xx_hal_hcd.c ****   HAL_StatusTypeDef status = HAL_OK;
 257              		.loc 1 237 0 discriminator 2
 258 000c 10B5     		push	{r4, lr}
 259              	.LCFI5:
 260              		.cfi_def_cfa_offset 8
 261              		.cfi_offset 4, -8
 262              		.cfi_offset 14, -4
 263 000e 0446     		mov	r4, r0
 240:Drivers/STM32F7xx_HAL_Driver/Src/stm32f7xx_hal_hcd.c ****   (void)USB_HC_Halt(hhcd->Instance, (uint8_t)ch_num);
 264              		.loc 1 240 0 discriminator 2
 265 0010 0123     		movs	r3, #1
 266 0012 80F8B832 		strb	r3, [r0, #696]
 241:Drivers/STM32F7xx_HAL_Driver/Src/stm32f7xx_hal_hcd.c ****   __HAL_UNLOCK(hhcd);
 267              		.loc 1 241 0 discriminator 2
 268 0016 0068     		ldr	r0, [r0]
ARM GAS  C:\Users\Student\AppData\Local\Temp\ccjpImAB.s 			page 27


 269              	.LVL24:
 270 0018 FFF7FEFF 		bl	USB_HC_Halt
 271              	.LVL25:
 242:Drivers/STM32F7xx_HAL_Driver/Src/stm32f7xx_hal_hcd.c **** 
 272              		.loc 1 242 0 discriminator 2
 273 001c 0020     		movs	r0, #0
 274 001e 84F8B802 		strb	r0, [r4, #696]
 244:Drivers/STM32F7xx_HAL_Driver/Src/stm32f7xx_hal_hcd.c **** }
 275              		.loc 1 244 0 discriminator 2
 276 0022 10BD     		pop	{r4, pc}
 277              		.cfi_endproc
 278              	.LFE138:
 280              		.section	.text.HAL_HCD_MspInit,"ax",%progbits
 281              		.align	1
 282              		.weak	HAL_HCD_MspInit
 283              		.syntax unified
 284              		.thumb
 285              		.thumb_func
 286              		.fpu fpv5-sp-d16
 288              	HAL_HCD_MspInit:
 289              	.LFB140:
 278:Drivers/STM32F7xx_HAL_Driver/Src/stm32f7xx_hal_hcd.c ****   /* Prevent unused argument(s) compilation warning */
 290              		.loc 1 278 0
 291              		.cfi_startproc
 292              		@ args = 0, pretend = 0, frame = 0
 293              		@ frame_needed = 0, uses_anonymous_args = 0
 294              		@ link register save eliminated.
 295              	.LVL26:
 296 0000 7047     		bx	lr
 297              		.cfi_endproc
 298              	.LFE140:
 300              		.section	.text.HAL_HCD_Init,"ax",%progbits
 301              		.align	1
 302              		.global	HAL_HCD_Init
 303              		.syntax unified
 304              		.thumb
 305              		.thumb_func
 306              		.fpu fpv5-sp-d16
 308              	HAL_HCD_Init:
 309              	.LFB136:
 126:Drivers/STM32F7xx_HAL_Driver/Src/stm32f7xx_hal_hcd.c ****   /* Check the HCD handle allocation */
 310              		.loc 1 126 0
 311              		.cfi_startproc
 312              		@ args = 0, pretend = 0, frame = 0
 313              		@ frame_needed = 0, uses_anonymous_args = 0
 314              	.LVL27:
 128:Drivers/STM32F7xx_HAL_Driver/Src/stm32f7xx_hal_hcd.c ****   {
 315              		.loc 1 128 0
 316 0000 0028     		cmp	r0, #0
 317 0002 3DD0     		beq	.L26
 126:Drivers/STM32F7xx_HAL_Driver/Src/stm32f7xx_hal_hcd.c ****   /* Check the HCD handle allocation */
 318              		.loc 1 126 0
 319 0004 F0B5     		push	{r4, r5, r6, r7, lr}
 320              	.LCFI6:
 321              		.cfi_def_cfa_offset 20
 322              		.cfi_offset 4, -20
 323              		.cfi_offset 5, -16
ARM GAS  C:\Users\Student\AppData\Local\Temp\ccjpImAB.s 			page 28


 324              		.cfi_offset 6, -12
 325              		.cfi_offset 7, -8
 326              		.cfi_offset 14, -4
 327 0006 8BB0     		sub	sp, sp, #44
 328              	.LCFI7:
 329              		.cfi_def_cfa_offset 64
 330 0008 0646     		mov	r6, r0
 136:Drivers/STM32F7xx_HAL_Driver/Src/stm32f7xx_hal_hcd.c ****   {
 331              		.loc 1 136 0
 332 000a 90F8B932 		ldrb	r3, [r0, #697]	@ zero_extendqisi2
 333 000e 93B3     		cbz	r3, .L31
 334              	.LVL28:
 335              	.L25:
 145:Drivers/STM32F7xx_HAL_Driver/Src/stm32f7xx_hal_hcd.c **** 
 336              		.loc 1 145 0
 337 0010 0323     		movs	r3, #3
 338 0012 86F8B932 		strb	r3, [r6, #697]
 148:Drivers/STM32F7xx_HAL_Driver/Src/stm32f7xx_hal_hcd.c **** 
 339              		.loc 1 148 0
 340 0016 3068     		ldr	r0, [r6]
 341 0018 FFF7FEFF 		bl	USB_DisableGlobalInt
 342              	.LVL29:
 151:Drivers/STM32F7xx_HAL_Driver/Src/stm32f7xx_hal_hcd.c **** 
 343              		.loc 1 151 0
 344 001c 3446     		mov	r4, r6
 345 001e 54F810EB 		ldr	lr, [r4], #16
 346 0022 6D46     		mov	r5, sp
 347 0024 0FCC     		ldmia	r4!, {r0, r1, r2, r3}
 348 0026 0FC5     		stmia	r5!, {r0, r1, r2, r3}
 349 0028 0FCC     		ldmia	r4!, {r0, r1, r2, r3}
 350 002a 0FC5     		stmia	r5!, {r0, r1, r2, r3}
 351 002c 94E80300 		ldm	r4, {r0, r1}
 352 0030 85E80300 		stm	r5, {r0, r1}
 353 0034 371D     		adds	r7, r6, #4
 354 0036 97E80E00 		ldm	r7, {r1, r2, r3}
 355 003a 7046     		mov	r0, lr
 356 003c FFF7FEFF 		bl	USB_CoreInit
 357              	.LVL30:
 154:Drivers/STM32F7xx_HAL_Driver/Src/stm32f7xx_hal_hcd.c **** 
 358              		.loc 1 154 0
 359 0040 0121     		movs	r1, #1
 360 0042 3068     		ldr	r0, [r6]
 361 0044 FFF7FEFF 		bl	USB_SetCurrentMode
 362              	.LVL31:
 157:Drivers/STM32F7xx_HAL_Driver/Src/stm32f7xx_hal_hcd.c **** 
 363              		.loc 1 157 0
 364 0048 3446     		mov	r4, r6
 365 004a 54F810EB 		ldr	lr, [r4], #16
 366 004e 6D46     		mov	r5, sp
 367 0050 0FCC     		ldmia	r4!, {r0, r1, r2, r3}
 368 0052 0FC5     		stmia	r5!, {r0, r1, r2, r3}
 369 0054 0FCC     		ldmia	r4!, {r0, r1, r2, r3}
 370 0056 0FC5     		stmia	r5!, {r0, r1, r2, r3}
 371 0058 94E80300 		ldm	r4, {r0, r1}
 372 005c 85E80300 		stm	r5, {r0, r1}
 373 0060 97E80E00 		ldm	r7, {r1, r2, r3}
 374 0064 7046     		mov	r0, lr
ARM GAS  C:\Users\Student\AppData\Local\Temp\ccjpImAB.s 			page 29


 375 0066 FFF7FEFF 		bl	USB_HostInit
 376              	.LVL32:
 159:Drivers/STM32F7xx_HAL_Driver/Src/stm32f7xx_hal_hcd.c **** 
 377              		.loc 1 159 0
 378 006a 0123     		movs	r3, #1
 379 006c 86F8B932 		strb	r3, [r6, #697]
 161:Drivers/STM32F7xx_HAL_Driver/Src/stm32f7xx_hal_hcd.c **** }
 380              		.loc 1 161 0
 381 0070 0020     		movs	r0, #0
 162:Drivers/STM32F7xx_HAL_Driver/Src/stm32f7xx_hal_hcd.c **** 
 382              		.loc 1 162 0
 383 0072 0BB0     		add	sp, sp, #44
 384              	.LCFI8:
 385              		.cfi_remember_state
 386              		.cfi_def_cfa_offset 20
 387              		@ sp needed
 388 0074 F0BD     		pop	{r4, r5, r6, r7, pc}
 389              	.LVL33:
 390              	.L31:
 391              	.LCFI9:
 392              		.cfi_restore_state
 139:Drivers/STM32F7xx_HAL_Driver/Src/stm32f7xx_hal_hcd.c **** 
 393              		.loc 1 139 0
 394 0076 80F8B832 		strb	r3, [r0, #696]
 142:Drivers/STM32F7xx_HAL_Driver/Src/stm32f7xx_hal_hcd.c ****   }
 395              		.loc 1 142 0
 396 007a FFF7FEFF 		bl	HAL_HCD_MspInit
 397              	.LVL34:
 398 007e C7E7     		b	.L25
 399              	.LVL35:
 400              	.L26:
 401              	.LCFI10:
 402              		.cfi_def_cfa_offset 0
 403              		.cfi_restore 4
 404              		.cfi_restore 5
 405              		.cfi_restore 6
 406              		.cfi_restore 7
 407              		.cfi_restore 14
 130:Drivers/STM32F7xx_HAL_Driver/Src/stm32f7xx_hal_hcd.c ****   }
 408              		.loc 1 130 0
 409 0080 0120     		movs	r0, #1
 410              	.LVL36:
 411 0082 7047     		bx	lr
 412              		.cfi_endproc
 413              	.LFE136:
 415              		.section	.text.HAL_HCD_MspDeInit,"ax",%progbits
 416              		.align	1
 417              		.weak	HAL_HCD_MspDeInit
 418              		.syntax unified
 419              		.thumb
 420              		.thumb_func
 421              		.fpu fpv5-sp-d16
 423              	HAL_HCD_MspDeInit:
 424              	.LFB141:
 293:Drivers/STM32F7xx_HAL_Driver/Src/stm32f7xx_hal_hcd.c ****   /* Prevent unused argument(s) compilation warning */
 425              		.loc 1 293 0
 426              		.cfi_startproc
ARM GAS  C:\Users\Student\AppData\Local\Temp\ccjpImAB.s 			page 30


 427              		@ args = 0, pretend = 0, frame = 0
 428              		@ frame_needed = 0, uses_anonymous_args = 0
 429              		@ link register save eliminated.
 430              	.LVL37:
 431 0000 7047     		bx	lr
 432              		.cfi_endproc
 433              	.LFE141:
 435              		.section	.text.HAL_HCD_DeInit,"ax",%progbits
 436              		.align	1
 437              		.global	HAL_HCD_DeInit
 438              		.syntax unified
 439              		.thumb
 440              		.thumb_func
 441              		.fpu fpv5-sp-d16
 443              	HAL_HCD_DeInit:
 444              	.LFB139:
 253:Drivers/STM32F7xx_HAL_Driver/Src/stm32f7xx_hal_hcd.c ****   /* Check the HCD handle allocation */
 445              		.loc 1 253 0
 446              		.cfi_startproc
 447              		@ args = 0, pretend = 0, frame = 0
 448              		@ frame_needed = 0, uses_anonymous_args = 0
 449              	.LVL38:
 255:Drivers/STM32F7xx_HAL_Driver/Src/stm32f7xx_hal_hcd.c ****   {
 450              		.loc 1 255 0
 451 0000 68B1     		cbz	r0, .L35
 253:Drivers/STM32F7xx_HAL_Driver/Src/stm32f7xx_hal_hcd.c ****   /* Check the HCD handle allocation */
 452              		.loc 1 253 0
 453 0002 10B5     		push	{r4, lr}
 454              	.LCFI11:
 455              		.cfi_def_cfa_offset 8
 456              		.cfi_offset 4, -8
 457              		.cfi_offset 14, -4
 458 0004 0446     		mov	r4, r0
 260:Drivers/STM32F7xx_HAL_Driver/Src/stm32f7xx_hal_hcd.c **** 
 459              		.loc 1 260 0
 460 0006 0323     		movs	r3, #3
 461 0008 80F8B932 		strb	r3, [r0, #697]
 263:Drivers/STM32F7xx_HAL_Driver/Src/stm32f7xx_hal_hcd.c **** 
 462              		.loc 1 263 0
 463 000c FFF7FEFF 		bl	HAL_HCD_MspDeInit
 464              	.LVL39:
 265:Drivers/STM32F7xx_HAL_Driver/Src/stm32f7xx_hal_hcd.c **** 
 465              		.loc 1 265 0
 466 0010 2068     		ldr	r0, [r4]
 467 0012 FFF7FEFF 		bl	USB_DisableGlobalInt
 468              	.LVL40:
 267:Drivers/STM32F7xx_HAL_Driver/Src/stm32f7xx_hal_hcd.c **** 
 469              		.loc 1 267 0
 470 0016 0020     		movs	r0, #0
 471 0018 84F8B902 		strb	r0, [r4, #697]
 269:Drivers/STM32F7xx_HAL_Driver/Src/stm32f7xx_hal_hcd.c **** }
 472              		.loc 1 269 0
 473 001c 10BD     		pop	{r4, pc}
 474              	.LVL41:
 475              	.L35:
 476              	.LCFI12:
 477              		.cfi_def_cfa_offset 0
ARM GAS  C:\Users\Student\AppData\Local\Temp\ccjpImAB.s 			page 31


 478              		.cfi_restore 4
 479              		.cfi_restore 14
 257:Drivers/STM32F7xx_HAL_Driver/Src/stm32f7xx_hal_hcd.c ****   }
 480              		.loc 1 257 0
 481 001e 0120     		movs	r0, #1
 482              	.LVL42:
 483 0020 7047     		bx	lr
 484              		.cfi_endproc
 485              	.LFE139:
 487              		.section	.text.HAL_HCD_HC_SubmitRequest,"ax",%progbits
 488              		.align	1
 489              		.global	HAL_HCD_HC_SubmitRequest
 490              		.syntax unified
 491              		.thumb
 492              		.thumb_func
 493              		.fpu fpv5-sp-d16
 495              	HAL_HCD_HC_SubmitRequest:
 496              	.LFB142:
 352:Drivers/STM32F7xx_HAL_Driver/Src/stm32f7xx_hal_hcd.c ****   UNUSED(do_ping);
 497              		.loc 1 352 0
 498              		.cfi_startproc
 499              		@ args = 16, pretend = 0, frame = 0
 500              		@ frame_needed = 0, uses_anonymous_args = 0
 501              	.LVL43:
 502 0000 F8B5     		push	{r3, r4, r5, r6, r7, lr}
 503              	.LCFI13:
 504              		.cfi_def_cfa_offset 24
 505              		.cfi_offset 3, -24
 506              		.cfi_offset 4, -20
 507              		.cfi_offset 5, -16
 508              		.cfi_offset 6, -12
 509              		.cfi_offset 7, -8
 510              		.cfi_offset 14, -4
 511 0002 9DF81870 		ldrb	r7, [sp, #24]	@ zero_extendqisi2
 512 0006 BDF82060 		ldrh	r6, [sp, #32]
 355:Drivers/STM32F7xx_HAL_Driver/Src/stm32f7xx_hal_hcd.c ****   hhcd->hc[ch_num].ep_type  = ep_type;
 513              		.loc 1 355 0
 514 000a 8D00     		lsls	r5, r1, #2
 515 000c 0D44     		add	r5, r5, r1
 516 000e EC00     		lsls	r4, r5, #3
 517 0010 0444     		add	r4, r4, r0
 518 0012 84F83B20 		strb	r2, [r4, #59]
 356:Drivers/STM32F7xx_HAL_Driver/Src/stm32f7xx_hal_hcd.c **** 
 519              		.loc 1 356 0
 520 0016 84F83F30 		strb	r3, [r4, #63]
 358:Drivers/STM32F7xx_HAL_Driver/Src/stm32f7xx_hal_hcd.c ****   {
 521              		.loc 1 358 0
 522 001a 6FB9     		cbnz	r7, .L41
 360:Drivers/STM32F7xx_HAL_Driver/Src/stm32f7xx_hal_hcd.c ****   }
 523              		.loc 1 360 0
 524 001c 01EB8105 		add	r5, r1, r1, lsl #2
 525 0020 EC00     		lsls	r4, r5, #3
 526 0022 0444     		add	r4, r4, r0
 527 0024 0325     		movs	r5, #3
 528 0026 84F84250 		strb	r5, [r4, #66]
 529              	.L42:
 368:Drivers/STM32F7xx_HAL_Driver/Src/stm32f7xx_hal_hcd.c ****   {
ARM GAS  C:\Users\Student\AppData\Local\Temp\ccjpImAB.s 			page 32


 530              		.loc 1 368 0
 531 002a 032B     		cmp	r3, #3
 532 002c 00F29580 		bhi	.L43
 533 0030 DFE803F0 		tbb	[pc, r3]
 534              	.L45:
 535 0034 0A       		.byte	(.L44-.L45)/2
 536 0035 8C       		.byte	(.L46-.L45)/2
 537 0036 2E       		.byte	(.L47-.L45)/2
 538 0037 5D       		.byte	(.L48-.L45)/2
 539              		.p2align 1
 540              	.L41:
 364:Drivers/STM32F7xx_HAL_Driver/Src/stm32f7xx_hal_hcd.c ****   }
 541              		.loc 1 364 0
 542 0038 01EB8105 		add	r5, r1, r1, lsl #2
 543 003c EC00     		lsls	r4, r5, #3
 544 003e 0444     		add	r4, r4, r0
 545 0040 0225     		movs	r5, #2
 546 0042 84F84250 		strb	r5, [r4, #66]
 547 0046 F0E7     		b	.L42
 548              	.L44:
 371:Drivers/STM32F7xx_HAL_Driver/Src/stm32f7xx_hal_hcd.c ****     {
 549              		.loc 1 371 0
 550 0048 012F     		cmp	r7, #1
 551 004a 08BF     		it	eq
 552 004c 002A     		cmpeq	r2, #0
 553 004e 40F08480 		bne	.L43
 373:Drivers/STM32F7xx_HAL_Driver/Src/stm32f7xx_hal_hcd.c ****       { /* For Status OUT stage, Length==0, Status Out PID = 1 */
 554              		.loc 1 373 0
 555 0052 36B9     		cbnz	r6, .L49
 375:Drivers/STM32F7xx_HAL_Driver/Src/stm32f7xx_hal_hcd.c ****       }
 556              		.loc 1 375 0
 557 0054 01EB8102 		add	r2, r1, r1, lsl #2
 558              	.LVL44:
 559 0058 D300     		lsls	r3, r2, #3
 560              	.LVL45:
 561 005a 0344     		add	r3, r3, r0
 562 005c 0122     		movs	r2, #1
 563 005e 83F85120 		strb	r2, [r3, #81]
 564              	.L49:
 379:Drivers/STM32F7xx_HAL_Driver/Src/stm32f7xx_hal_hcd.c ****       { /* Put the PID 0 */
 565              		.loc 1 379 0
 566 0062 01EB8102 		add	r2, r1, r1, lsl #2
 567 0066 D300     		lsls	r3, r2, #3
 568 0068 0344     		add	r3, r3, r0
 569 006a 93F85130 		ldrb	r3, [r3, #81]	@ zero_extendqisi2
 570 006e 3BB9     		cbnz	r3, .L50
 381:Drivers/STM32F7xx_HAL_Driver/Src/stm32f7xx_hal_hcd.c ****       }
 571              		.loc 1 381 0
 572 0070 01EB8102 		add	r2, r1, r1, lsl #2
 573 0074 D300     		lsls	r3, r2, #3
 574 0076 0344     		add	r3, r3, r0
 575 0078 0022     		movs	r2, #0
 576 007a 83F84220 		strb	r2, [r3, #66]
 577 007e 6CE0     		b	.L43
 578              	.L50:
 385:Drivers/STM32F7xx_HAL_Driver/Src/stm32f7xx_hal_hcd.c ****       }
 579              		.loc 1 385 0
ARM GAS  C:\Users\Student\AppData\Local\Temp\ccjpImAB.s 			page 33


 580 0080 01EB8102 		add	r2, r1, r1, lsl #2
 581 0084 D300     		lsls	r3, r2, #3
 582 0086 0344     		add	r3, r3, r0
 583 0088 0222     		movs	r2, #2
 584 008a 83F84220 		strb	r2, [r3, #66]
 585 008e 64E0     		b	.L43
 586              	.LVL46:
 587              	.L47:
 391:Drivers/STM32F7xx_HAL_Driver/Src/stm32f7xx_hal_hcd.c ****     {
 588              		.loc 1 391 0
 589 0090 B2B9     		cbnz	r2, .L51
 394:Drivers/STM32F7xx_HAL_Driver/Src/stm32f7xx_hal_hcd.c ****       { /* Put the PID 0 */
 590              		.loc 1 394 0
 591 0092 01EB8102 		add	r2, r1, r1, lsl #2
 592              	.LVL47:
 593 0096 D300     		lsls	r3, r2, #3
 594              	.LVL48:
 595 0098 0344     		add	r3, r3, r0
 596 009a 93F85130 		ldrb	r3, [r3, #81]	@ zero_extendqisi2
 597 009e 3BB9     		cbnz	r3, .L52
 396:Drivers/STM32F7xx_HAL_Driver/Src/stm32f7xx_hal_hcd.c ****       }
 598              		.loc 1 396 0
 599 00a0 01EB8102 		add	r2, r1, r1, lsl #2
 600 00a4 D300     		lsls	r3, r2, #3
 601 00a6 0344     		add	r3, r3, r0
 602 00a8 0022     		movs	r2, #0
 603 00aa 83F84220 		strb	r2, [r3, #66]
 604 00ae 54E0     		b	.L43
 605              	.L52:
 400:Drivers/STM32F7xx_HAL_Driver/Src/stm32f7xx_hal_hcd.c ****       }
 606              		.loc 1 400 0
 607 00b0 01EB8102 		add	r2, r1, r1, lsl #2
 608 00b4 D300     		lsls	r3, r2, #3
 609 00b6 0344     		add	r3, r3, r0
 610 00b8 0222     		movs	r2, #2
 611 00ba 83F84220 		strb	r2, [r3, #66]
 612 00be 4CE0     		b	.L43
 613              	.LVL49:
 614              	.L51:
 405:Drivers/STM32F7xx_HAL_Driver/Src/stm32f7xx_hal_hcd.c ****       {
 615              		.loc 1 405 0
 616 00c0 01EB8102 		add	r2, r1, r1, lsl #2
 617              	.LVL50:
 618 00c4 D300     		lsls	r3, r2, #3
 619              	.LVL51:
 620 00c6 0344     		add	r3, r3, r0
 621 00c8 93F85030 		ldrb	r3, [r3, #80]	@ zero_extendqisi2
 622 00cc 3BB9     		cbnz	r3, .L53
 407:Drivers/STM32F7xx_HAL_Driver/Src/stm32f7xx_hal_hcd.c ****       }
 623              		.loc 1 407 0
 624 00ce 01EB8102 		add	r2, r1, r1, lsl #2
 625 00d2 D300     		lsls	r3, r2, #3
 626 00d4 0344     		add	r3, r3, r0
 627 00d6 0022     		movs	r2, #0
 628 00d8 83F84220 		strb	r2, [r3, #66]
 629 00dc 3DE0     		b	.L43
 630              	.L53:
ARM GAS  C:\Users\Student\AppData\Local\Temp\ccjpImAB.s 			page 34


 411:Drivers/STM32F7xx_HAL_Driver/Src/stm32f7xx_hal_hcd.c ****       }
 631              		.loc 1 411 0
 632 00de 01EB8102 		add	r2, r1, r1, lsl #2
 633 00e2 D300     		lsls	r3, r2, #3
 634 00e4 0344     		add	r3, r3, r0
 635 00e6 0222     		movs	r2, #2
 636 00e8 83F84220 		strb	r2, [r3, #66]
 637 00ec 35E0     		b	.L43
 638              	.LVL52:
 639              	.L48:
 417:Drivers/STM32F7xx_HAL_Driver/Src/stm32f7xx_hal_hcd.c ****     {
 640              		.loc 1 417 0
 641 00ee B2B9     		cbnz	r2, .L54
 420:Drivers/STM32F7xx_HAL_Driver/Src/stm32f7xx_hal_hcd.c ****       { /* Put the PID 0 */
 642              		.loc 1 420 0
 643 00f0 01EB8102 		add	r2, r1, r1, lsl #2
 644              	.LVL53:
 645 00f4 D300     		lsls	r3, r2, #3
 646              	.LVL54:
 647 00f6 0344     		add	r3, r3, r0
 648 00f8 93F85130 		ldrb	r3, [r3, #81]	@ zero_extendqisi2
 649 00fc 3BB9     		cbnz	r3, .L55
 422:Drivers/STM32F7xx_HAL_Driver/Src/stm32f7xx_hal_hcd.c ****       }
 650              		.loc 1 422 0
 651 00fe 01EB8102 		add	r2, r1, r1, lsl #2
 652 0102 D300     		lsls	r3, r2, #3
 653 0104 0344     		add	r3, r3, r0
 654 0106 0022     		movs	r2, #0
 655 0108 83F84220 		strb	r2, [r3, #66]
 656 010c 25E0     		b	.L43
 657              	.L55:
 426:Drivers/STM32F7xx_HAL_Driver/Src/stm32f7xx_hal_hcd.c ****       }
 658              		.loc 1 426 0
 659 010e 01EB8102 		add	r2, r1, r1, lsl #2
 660 0112 D300     		lsls	r3, r2, #3
 661 0114 0344     		add	r3, r3, r0
 662 0116 0222     		movs	r2, #2
 663 0118 83F84220 		strb	r2, [r3, #66]
 664 011c 1DE0     		b	.L43
 665              	.LVL55:
 666              	.L54:
 431:Drivers/STM32F7xx_HAL_Driver/Src/stm32f7xx_hal_hcd.c ****       {
 667              		.loc 1 431 0
 668 011e 01EB8102 		add	r2, r1, r1, lsl #2
 669              	.LVL56:
 670 0122 D300     		lsls	r3, r2, #3
 671              	.LVL57:
 672 0124 0344     		add	r3, r3, r0
 673 0126 93F85030 		ldrb	r3, [r3, #80]	@ zero_extendqisi2
 674 012a 3BB9     		cbnz	r3, .L56
 433:Drivers/STM32F7xx_HAL_Driver/Src/stm32f7xx_hal_hcd.c ****       }
 675              		.loc 1 433 0
 676 012c 01EB8102 		add	r2, r1, r1, lsl #2
 677 0130 D300     		lsls	r3, r2, #3
 678 0132 0344     		add	r3, r3, r0
 679 0134 0022     		movs	r2, #0
 680 0136 83F84220 		strb	r2, [r3, #66]
ARM GAS  C:\Users\Student\AppData\Local\Temp\ccjpImAB.s 			page 35


 681 013a 0EE0     		b	.L43
 682              	.L56:
 437:Drivers/STM32F7xx_HAL_Driver/Src/stm32f7xx_hal_hcd.c ****       }
 683              		.loc 1 437 0
 684 013c 01EB8102 		add	r2, r1, r1, lsl #2
 685 0140 D300     		lsls	r3, r2, #3
 686 0142 0344     		add	r3, r3, r0
 687 0144 0222     		movs	r2, #2
 688 0146 83F84220 		strb	r2, [r3, #66]
 689 014a 06E0     		b	.L43
 690              	.LVL58:
 691              	.L46:
 443:Drivers/STM32F7xx_HAL_Driver/Src/stm32f7xx_hal_hcd.c ****     break;
 692              		.loc 1 443 0
 693 014c 01EB8102 		add	r2, r1, r1, lsl #2
 694              	.LVL59:
 695 0150 D300     		lsls	r3, r2, #3
 696              	.LVL60:
 697 0152 0344     		add	r3, r3, r0
 698 0154 0022     		movs	r2, #0
 699 0156 83F84220 		strb	r2, [r3, #66]
 700              	.L43:
 450:Drivers/STM32F7xx_HAL_Driver/Src/stm32f7xx_hal_hcd.c ****   hhcd->hc[ch_num].xfer_len  = length;
 701              		.loc 1 450 0
 702 015a 8A00     		lsls	r2, r1, #2
 703 015c 5418     		adds	r4, r2, r1
 704 015e E300     		lsls	r3, r4, #3
 705 0160 0344     		add	r3, r3, r0
 706 0162 079C     		ldr	r4, [sp, #28]
 707 0164 5C64     		str	r4, [r3, #68]
 451:Drivers/STM32F7xx_HAL_Driver/Src/stm32f7xx_hal_hcd.c ****   hhcd->hc[ch_num].urb_state = URB_IDLE;
 708              		.loc 1 451 0
 709 0166 9E64     		str	r6, [r3, #72]
 452:Drivers/STM32F7xx_HAL_Driver/Src/stm32f7xx_hal_hcd.c ****   hhcd->hc[ch_num].xfer_count = 0U;
 710              		.loc 1 452 0
 711 0168 0024     		movs	r4, #0
 712 016a 83F85C40 		strb	r4, [r3, #92]
 453:Drivers/STM32F7xx_HAL_Driver/Src/stm32f7xx_hal_hcd.c ****   hhcd->hc[ch_num].ch_num = ch_num;
 713              		.loc 1 453 0
 714 016e DC64     		str	r4, [r3, #76]
 454:Drivers/STM32F7xx_HAL_Driver/Src/stm32f7xx_hal_hcd.c ****   hhcd->hc[ch_num].state = HC_IDLE;
 715              		.loc 1 454 0
 716 0170 83F83910 		strb	r1, [r3, #57]
 455:Drivers/STM32F7xx_HAL_Driver/Src/stm32f7xx_hal_hcd.c **** 
 717              		.loc 1 455 0
 718 0174 83F85D40 		strb	r4, [r3, #93]
 457:Drivers/STM32F7xx_HAL_Driver/Src/stm32f7xx_hal_hcd.c **** }
 719              		.loc 1 457 0
 720 0178 1144     		add	r1, r1, r2
 721              	.LVL61:
 722 017a CB00     		lsls	r3, r1, #3
 723              	.LVL62:
 724 017c 03F13801 		add	r1, r3, #56
 725 0180 027C     		ldrb	r2, [r0, #16]	@ zero_extendqisi2
 726 0182 0144     		add	r1, r1, r0
 727 0184 0068     		ldr	r0, [r0]
 728              	.LVL63:
ARM GAS  C:\Users\Student\AppData\Local\Temp\ccjpImAB.s 			page 36


 729 0186 FFF7FEFF 		bl	USB_HC_StartXfer
 730              	.LVL64:
 458:Drivers/STM32F7xx_HAL_Driver/Src/stm32f7xx_hal_hcd.c **** 
 731              		.loc 1 458 0
 732 018a F8BD     		pop	{r3, r4, r5, r6, r7, pc}
 733              		.cfi_endproc
 734              	.LFE142:
 736              		.section	.text.HAL_HCD_SOF_Callback,"ax",%progbits
 737              		.align	1
 738              		.weak	HAL_HCD_SOF_Callback
 739              		.syntax unified
 740              		.thumb
 741              		.thumb_func
 742              		.fpu fpv5-sp-d16
 744              	HAL_HCD_SOF_Callback:
 745              	.LFB144:
 570:Drivers/STM32F7xx_HAL_Driver/Src/stm32f7xx_hal_hcd.c ****   /* Prevent unused argument(s) compilation warning */
 746              		.loc 1 570 0
 747              		.cfi_startproc
 748              		@ args = 0, pretend = 0, frame = 0
 749              		@ frame_needed = 0, uses_anonymous_args = 0
 750              		@ link register save eliminated.
 751              	.LVL65:
 752 0000 7047     		bx	lr
 753              		.cfi_endproc
 754              	.LFE144:
 756              		.section	.text.HAL_HCD_Connect_Callback,"ax",%progbits
 757              		.align	1
 758              		.weak	HAL_HCD_Connect_Callback
 759              		.syntax unified
 760              		.thumb
 761              		.thumb_func
 762              		.fpu fpv5-sp-d16
 764              	HAL_HCD_Connect_Callback:
 765              	.LFB145:
 585:Drivers/STM32F7xx_HAL_Driver/Src/stm32f7xx_hal_hcd.c ****   /* Prevent unused argument(s) compilation warning */
 766              		.loc 1 585 0
 767              		.cfi_startproc
 768              		@ args = 0, pretend = 0, frame = 0
 769              		@ frame_needed = 0, uses_anonymous_args = 0
 770              		@ link register save eliminated.
 771              	.LVL66:
 772 0000 7047     		bx	lr
 773              		.cfi_endproc
 774              	.LFE145:
 776              		.section	.text.HAL_HCD_Disconnect_Callback,"ax",%progbits
 777              		.align	1
 778              		.weak	HAL_HCD_Disconnect_Callback
 779              		.syntax unified
 780              		.thumb
 781              		.thumb_func
 782              		.fpu fpv5-sp-d16
 784              	HAL_HCD_Disconnect_Callback:
 785              	.LFB146:
 600:Drivers/STM32F7xx_HAL_Driver/Src/stm32f7xx_hal_hcd.c ****   /* Prevent unused argument(s) compilation warning */
 786              		.loc 1 600 0
 787              		.cfi_startproc
ARM GAS  C:\Users\Student\AppData\Local\Temp\ccjpImAB.s 			page 37


 788              		@ args = 0, pretend = 0, frame = 0
 789              		@ frame_needed = 0, uses_anonymous_args = 0
 790              		@ link register save eliminated.
 791              	.LVL67:
 792 0000 7047     		bx	lr
 793              		.cfi_endproc
 794              	.LFE146:
 796              		.section	.text.HAL_HCD_PortEnabled_Callback,"ax",%progbits
 797              		.align	1
 798              		.weak	HAL_HCD_PortEnabled_Callback
 799              		.syntax unified
 800              		.thumb
 801              		.thumb_func
 802              		.fpu fpv5-sp-d16
 804              	HAL_HCD_PortEnabled_Callback:
 805              	.LFB147:
 615:Drivers/STM32F7xx_HAL_Driver/Src/stm32f7xx_hal_hcd.c ****   /* Prevent unused argument(s) compilation warning */
 806              		.loc 1 615 0
 807              		.cfi_startproc
 808              		@ args = 0, pretend = 0, frame = 0
 809              		@ frame_needed = 0, uses_anonymous_args = 0
 810              		@ link register save eliminated.
 811              	.LVL68:
 812 0000 7047     		bx	lr
 813              		.cfi_endproc
 814              	.LFE147:
 816              		.section	.text.HAL_HCD_PortDisabled_Callback,"ax",%progbits
 817              		.align	1
 818              		.weak	HAL_HCD_PortDisabled_Callback
 819              		.syntax unified
 820              		.thumb
 821              		.thumb_func
 822              		.fpu fpv5-sp-d16
 824              	HAL_HCD_PortDisabled_Callback:
 825              	.LFB148:
 630:Drivers/STM32F7xx_HAL_Driver/Src/stm32f7xx_hal_hcd.c ****   /* Prevent unused argument(s) compilation warning */
 826              		.loc 1 630 0
 827              		.cfi_startproc
 828              		@ args = 0, pretend = 0, frame = 0
 829              		@ frame_needed = 0, uses_anonymous_args = 0
 830              		@ link register save eliminated.
 831              	.LVL69:
 832 0000 7047     		bx	lr
 833              		.cfi_endproc
 834              	.LFE148:
 836              		.section	.text.HCD_Port_IRQHandler,"ax",%progbits
 837              		.align	1
 838              		.syntax unified
 839              		.thumb
 840              		.thumb_func
 841              		.fpu fpv5-sp-d16
 843              	HCD_Port_IRQHandler:
 844              	.LFB162:
1198:Drivers/STM32F7xx_HAL_Driver/Src/stm32f7xx_hal_hcd.c ****       }
1199:Drivers/STM32F7xx_HAL_Driver/Src/stm32f7xx_hal_hcd.c ****     }
1200:Drivers/STM32F7xx_HAL_Driver/Src/stm32f7xx_hal_hcd.c ****     break;
1201:Drivers/STM32F7xx_HAL_Driver/Src/stm32f7xx_hal_hcd.c **** 
ARM GAS  C:\Users\Student\AppData\Local\Temp\ccjpImAB.s 			page 38


1202:Drivers/STM32F7xx_HAL_Driver/Src/stm32f7xx_hal_hcd.c ****   case GRXSTS_PKTSTS_DATA_TOGGLE_ERR:
1203:Drivers/STM32F7xx_HAL_Driver/Src/stm32f7xx_hal_hcd.c ****     break;
1204:Drivers/STM32F7xx_HAL_Driver/Src/stm32f7xx_hal_hcd.c **** 
1205:Drivers/STM32F7xx_HAL_Driver/Src/stm32f7xx_hal_hcd.c ****   case GRXSTS_PKTSTS_IN_XFER_COMP:
1206:Drivers/STM32F7xx_HAL_Driver/Src/stm32f7xx_hal_hcd.c ****   case GRXSTS_PKTSTS_CH_HALTED:
1207:Drivers/STM32F7xx_HAL_Driver/Src/stm32f7xx_hal_hcd.c ****   default:
1208:Drivers/STM32F7xx_HAL_Driver/Src/stm32f7xx_hal_hcd.c ****     break;
1209:Drivers/STM32F7xx_HAL_Driver/Src/stm32f7xx_hal_hcd.c ****   }
1210:Drivers/STM32F7xx_HAL_Driver/Src/stm32f7xx_hal_hcd.c **** }
1211:Drivers/STM32F7xx_HAL_Driver/Src/stm32f7xx_hal_hcd.c **** 
1212:Drivers/STM32F7xx_HAL_Driver/Src/stm32f7xx_hal_hcd.c **** /**
1213:Drivers/STM32F7xx_HAL_Driver/Src/stm32f7xx_hal_hcd.c ****   * @brief  Handle Host Port interrupt requests.
1214:Drivers/STM32F7xx_HAL_Driver/Src/stm32f7xx_hal_hcd.c ****   * @param  hhcd HCD handle
1215:Drivers/STM32F7xx_HAL_Driver/Src/stm32f7xx_hal_hcd.c ****   * @retval None
1216:Drivers/STM32F7xx_HAL_Driver/Src/stm32f7xx_hal_hcd.c ****   */
1217:Drivers/STM32F7xx_HAL_Driver/Src/stm32f7xx_hal_hcd.c **** static void HCD_Port_IRQHandler (HCD_HandleTypeDef *hhcd)
1218:Drivers/STM32F7xx_HAL_Driver/Src/stm32f7xx_hal_hcd.c **** {
 845              		.loc 1 1218 0
 846              		.cfi_startproc
 847              		@ args = 0, pretend = 0, frame = 8
 848              		@ frame_needed = 0, uses_anonymous_args = 0
 849              	.LVL70:
 850              		.loc 1 1218 0
 851 0000 30B5     		push	{r4, r5, lr}
 852              	.LCFI14:
 853              		.cfi_def_cfa_offset 12
 854              		.cfi_offset 4, -12
 855              		.cfi_offset 5, -8
 856              		.cfi_offset 14, -4
 857 0002 83B0     		sub	sp, sp, #12
 858              	.LCFI15:
 859              		.cfi_def_cfa_offset 24
 860 0004 0546     		mov	r5, r0
1219:Drivers/STM32F7xx_HAL_Driver/Src/stm32f7xx_hal_hcd.c ****   USB_OTG_GlobalTypeDef *USBx = hhcd->Instance;
 861              		.loc 1 1219 0
 862 0006 0468     		ldr	r4, [r0]
 863              	.LVL71:
1220:Drivers/STM32F7xx_HAL_Driver/Src/stm32f7xx_hal_hcd.c ****   uint32_t USBx_BASE = (uint32_t)USBx;
1221:Drivers/STM32F7xx_HAL_Driver/Src/stm32f7xx_hal_hcd.c ****   __IO uint32_t hprt0, hprt0_dup;
1222:Drivers/STM32F7xx_HAL_Driver/Src/stm32f7xx_hal_hcd.c **** 
1223:Drivers/STM32F7xx_HAL_Driver/Src/stm32f7xx_hal_hcd.c ****   /* Handle Host Port Interrupts */
1224:Drivers/STM32F7xx_HAL_Driver/Src/stm32f7xx_hal_hcd.c ****   hprt0 = USBx_HPRT0;
 864              		.loc 1 1224 0
 865 0008 D4F84034 		ldr	r3, [r4, #1088]
 866 000c 0193     		str	r3, [sp, #4]
1225:Drivers/STM32F7xx_HAL_Driver/Src/stm32f7xx_hal_hcd.c ****   hprt0_dup = USBx_HPRT0;
 867              		.loc 1 1225 0
 868 000e D4F84034 		ldr	r3, [r4, #1088]
 869 0012 0093     		str	r3, [sp]
1226:Drivers/STM32F7xx_HAL_Driver/Src/stm32f7xx_hal_hcd.c **** 
1227:Drivers/STM32F7xx_HAL_Driver/Src/stm32f7xx_hal_hcd.c ****   hprt0_dup &= ~(USB_OTG_HPRT_PENA | USB_OTG_HPRT_PCDET |\
 870              		.loc 1 1227 0
 871 0014 009B     		ldr	r3, [sp]
 872 0016 23F02E03 		bic	r3, r3, #46
 873 001a 0093     		str	r3, [sp]
1228:Drivers/STM32F7xx_HAL_Driver/Src/stm32f7xx_hal_hcd.c ****                  USB_OTG_HPRT_PENCHNG | USB_OTG_HPRT_POCCHNG);
1229:Drivers/STM32F7xx_HAL_Driver/Src/stm32f7xx_hal_hcd.c **** 
ARM GAS  C:\Users\Student\AppData\Local\Temp\ccjpImAB.s 			page 39


1230:Drivers/STM32F7xx_HAL_Driver/Src/stm32f7xx_hal_hcd.c ****   /* Check whether Port Connect detected */
1231:Drivers/STM32F7xx_HAL_Driver/Src/stm32f7xx_hal_hcd.c ****   if((hprt0 & USB_OTG_HPRT_PCDET) == USB_OTG_HPRT_PCDET)
 874              		.loc 1 1231 0
 875 001c 019B     		ldr	r3, [sp, #4]
 876 001e 13F0020F 		tst	r3, #2
 877 0022 07D0     		beq	.L64
1232:Drivers/STM32F7xx_HAL_Driver/Src/stm32f7xx_hal_hcd.c ****   {
1233:Drivers/STM32F7xx_HAL_Driver/Src/stm32f7xx_hal_hcd.c ****     if((hprt0 & USB_OTG_HPRT_PCSTS) == USB_OTG_HPRT_PCSTS)
 878              		.loc 1 1233 0
 879 0024 019B     		ldr	r3, [sp, #4]
 880 0026 13F0010F 		tst	r3, #1
 881 002a 28D1     		bne	.L73
 882              	.LVL72:
 883              	.L65:
1234:Drivers/STM32F7xx_HAL_Driver/Src/stm32f7xx_hal_hcd.c ****     {
1235:Drivers/STM32F7xx_HAL_Driver/Src/stm32f7xx_hal_hcd.c ****       USB_MASK_INTERRUPT(hhcd->Instance, USB_OTG_GINTSTS_DISCINT);
1236:Drivers/STM32F7xx_HAL_Driver/Src/stm32f7xx_hal_hcd.c ****       HAL_HCD_Connect_Callback(hhcd);
1237:Drivers/STM32F7xx_HAL_Driver/Src/stm32f7xx_hal_hcd.c ****     }
1238:Drivers/STM32F7xx_HAL_Driver/Src/stm32f7xx_hal_hcd.c ****     hprt0_dup  |= USB_OTG_HPRT_PCDET;
 884              		.loc 1 1238 0
 885 002c 009B     		ldr	r3, [sp]
 886 002e 43F00203 		orr	r3, r3, #2
 887 0032 0093     		str	r3, [sp]
 888              	.L64:
1239:Drivers/STM32F7xx_HAL_Driver/Src/stm32f7xx_hal_hcd.c ****   }
1240:Drivers/STM32F7xx_HAL_Driver/Src/stm32f7xx_hal_hcd.c **** 
1241:Drivers/STM32F7xx_HAL_Driver/Src/stm32f7xx_hal_hcd.c ****   /* Check whether Port Enable Changed */
1242:Drivers/STM32F7xx_HAL_Driver/Src/stm32f7xx_hal_hcd.c ****   if((hprt0 & USB_OTG_HPRT_PENCHNG) == USB_OTG_HPRT_PENCHNG)
 889              		.loc 1 1242 0
 890 0034 019B     		ldr	r3, [sp, #4]
 891 0036 13F0080F 		tst	r3, #8
 892 003a 13D0     		beq	.L66
1243:Drivers/STM32F7xx_HAL_Driver/Src/stm32f7xx_hal_hcd.c ****   {
1244:Drivers/STM32F7xx_HAL_Driver/Src/stm32f7xx_hal_hcd.c ****     hprt0_dup |= USB_OTG_HPRT_PENCHNG;
 893              		.loc 1 1244 0
 894 003c 009B     		ldr	r3, [sp]
 895 003e 43F00803 		orr	r3, r3, #8
 896 0042 0093     		str	r3, [sp]
1245:Drivers/STM32F7xx_HAL_Driver/Src/stm32f7xx_hal_hcd.c **** 
1246:Drivers/STM32F7xx_HAL_Driver/Src/stm32f7xx_hal_hcd.c ****     if((hprt0 & USB_OTG_HPRT_PENA) == USB_OTG_HPRT_PENA)
 897              		.loc 1 1246 0
 898 0044 019B     		ldr	r3, [sp, #4]
 899 0046 13F0040F 		tst	r3, #4
 900 004a 34D0     		beq	.L67
1247:Drivers/STM32F7xx_HAL_Driver/Src/stm32f7xx_hal_hcd.c ****     {
1248:Drivers/STM32F7xx_HAL_Driver/Src/stm32f7xx_hal_hcd.c ****       if(hhcd->Init.phy_itface  == USB_OTG_EMBEDDED_PHY)
 901              		.loc 1 1248 0
 902 004c AB69     		ldr	r3, [r5, #24]
 903 004e 022B     		cmp	r3, #2
 904 0050 1CD0     		beq	.L74
1249:Drivers/STM32F7xx_HAL_Driver/Src/stm32f7xx_hal_hcd.c ****       {
1250:Drivers/STM32F7xx_HAL_Driver/Src/stm32f7xx_hal_hcd.c ****         if ((hprt0 & USB_OTG_HPRT_PSPD) == (HPRT0_PRTSPD_LOW_SPEED << 17))
1251:Drivers/STM32F7xx_HAL_Driver/Src/stm32f7xx_hal_hcd.c ****         {
1252:Drivers/STM32F7xx_HAL_Driver/Src/stm32f7xx_hal_hcd.c ****           (void)USB_InitFSLSPClkSel(hhcd->Instance, HCFG_6_MHZ);
1253:Drivers/STM32F7xx_HAL_Driver/Src/stm32f7xx_hal_hcd.c ****         }
1254:Drivers/STM32F7xx_HAL_Driver/Src/stm32f7xx_hal_hcd.c ****         else
1255:Drivers/STM32F7xx_HAL_Driver/Src/stm32f7xx_hal_hcd.c ****         {
ARM GAS  C:\Users\Student\AppData\Local\Temp\ccjpImAB.s 			page 40


1256:Drivers/STM32F7xx_HAL_Driver/Src/stm32f7xx_hal_hcd.c ****           (void)USB_InitFSLSPClkSel(hhcd->Instance, HCFG_48_MHZ);
1257:Drivers/STM32F7xx_HAL_Driver/Src/stm32f7xx_hal_hcd.c ****         }
1258:Drivers/STM32F7xx_HAL_Driver/Src/stm32f7xx_hal_hcd.c ****       }
1259:Drivers/STM32F7xx_HAL_Driver/Src/stm32f7xx_hal_hcd.c ****       else
1260:Drivers/STM32F7xx_HAL_Driver/Src/stm32f7xx_hal_hcd.c ****       {
1261:Drivers/STM32F7xx_HAL_Driver/Src/stm32f7xx_hal_hcd.c ****         if(hhcd->Init.speed == HCD_SPEED_FULL)
 905              		.loc 1 1261 0
 906 0052 EB68     		ldr	r3, [r5, #12]
 907 0054 032B     		cmp	r3, #3
 908 0056 29D0     		beq	.L75
 909              	.L70:
1262:Drivers/STM32F7xx_HAL_Driver/Src/stm32f7xx_hal_hcd.c ****         {
1263:Drivers/STM32F7xx_HAL_Driver/Src/stm32f7xx_hal_hcd.c ****           USBx_HOST->HFIR = 60000U;
1264:Drivers/STM32F7xx_HAL_Driver/Src/stm32f7xx_hal_hcd.c ****         }
1265:Drivers/STM32F7xx_HAL_Driver/Src/stm32f7xx_hal_hcd.c ****       }
1266:Drivers/STM32F7xx_HAL_Driver/Src/stm32f7xx_hal_hcd.c **** 
1267:Drivers/STM32F7xx_HAL_Driver/Src/stm32f7xx_hal_hcd.c ****       HAL_HCD_PortEnabled_Callback(hhcd);
 910              		.loc 1 1267 0
 911 0058 2846     		mov	r0, r5
 912 005a FFF7FEFF 		bl	HAL_HCD_PortEnabled_Callback
 913              	.LVL73:
1268:Drivers/STM32F7xx_HAL_Driver/Src/stm32f7xx_hal_hcd.c ****       HAL_HCD_Connect_Callback(hhcd);
 914              		.loc 1 1268 0
 915 005e 2846     		mov	r0, r5
 916 0060 FFF7FEFF 		bl	HAL_HCD_Connect_Callback
 917              	.LVL74:
 918              	.L66:
1269:Drivers/STM32F7xx_HAL_Driver/Src/stm32f7xx_hal_hcd.c ****     }
1270:Drivers/STM32F7xx_HAL_Driver/Src/stm32f7xx_hal_hcd.c ****     else
1271:Drivers/STM32F7xx_HAL_Driver/Src/stm32f7xx_hal_hcd.c ****     {
1272:Drivers/STM32F7xx_HAL_Driver/Src/stm32f7xx_hal_hcd.c ****       HAL_HCD_PortDisabled_Callback(hhcd);
1273:Drivers/STM32F7xx_HAL_Driver/Src/stm32f7xx_hal_hcd.c **** 
1274:Drivers/STM32F7xx_HAL_Driver/Src/stm32f7xx_hal_hcd.c ****       /* Cleanup HPRT */
1275:Drivers/STM32F7xx_HAL_Driver/Src/stm32f7xx_hal_hcd.c ****       USBx_HPRT0 &= ~(USB_OTG_HPRT_PENA | USB_OTG_HPRT_PCDET |\
1276:Drivers/STM32F7xx_HAL_Driver/Src/stm32f7xx_hal_hcd.c ****         USB_OTG_HPRT_PENCHNG | USB_OTG_HPRT_POCCHNG );
1277:Drivers/STM32F7xx_HAL_Driver/Src/stm32f7xx_hal_hcd.c **** 
1278:Drivers/STM32F7xx_HAL_Driver/Src/stm32f7xx_hal_hcd.c ****       USB_UNMASK_INTERRUPT(hhcd->Instance, USB_OTG_GINTSTS_DISCINT);
1279:Drivers/STM32F7xx_HAL_Driver/Src/stm32f7xx_hal_hcd.c ****     }
1280:Drivers/STM32F7xx_HAL_Driver/Src/stm32f7xx_hal_hcd.c ****   }
1281:Drivers/STM32F7xx_HAL_Driver/Src/stm32f7xx_hal_hcd.c **** 
1282:Drivers/STM32F7xx_HAL_Driver/Src/stm32f7xx_hal_hcd.c ****   /* Check for an overcurrent */
1283:Drivers/STM32F7xx_HAL_Driver/Src/stm32f7xx_hal_hcd.c ****   if((hprt0 & USB_OTG_HPRT_POCCHNG) == USB_OTG_HPRT_POCCHNG)
 919              		.loc 1 1283 0
 920 0064 019B     		ldr	r3, [sp, #4]
 921 0066 13F0200F 		tst	r3, #32
 922 006a 03D0     		beq	.L71
1284:Drivers/STM32F7xx_HAL_Driver/Src/stm32f7xx_hal_hcd.c ****   {
1285:Drivers/STM32F7xx_HAL_Driver/Src/stm32f7xx_hal_hcd.c ****     hprt0_dup |= USB_OTG_HPRT_POCCHNG;
 923              		.loc 1 1285 0
 924 006c 009B     		ldr	r3, [sp]
 925 006e 43F02003 		orr	r3, r3, #32
 926 0072 0093     		str	r3, [sp]
 927              	.L71:
1286:Drivers/STM32F7xx_HAL_Driver/Src/stm32f7xx_hal_hcd.c ****   }
1287:Drivers/STM32F7xx_HAL_Driver/Src/stm32f7xx_hal_hcd.c **** 
1288:Drivers/STM32F7xx_HAL_Driver/Src/stm32f7xx_hal_hcd.c ****   /* Clear Port Interrupts */
1289:Drivers/STM32F7xx_HAL_Driver/Src/stm32f7xx_hal_hcd.c ****   USBx_HPRT0 = hprt0_dup;
ARM GAS  C:\Users\Student\AppData\Local\Temp\ccjpImAB.s 			page 41


 928              		.loc 1 1289 0
 929 0074 009B     		ldr	r3, [sp]
 930 0076 C4F84034 		str	r3, [r4, #1088]
1290:Drivers/STM32F7xx_HAL_Driver/Src/stm32f7xx_hal_hcd.c **** }
 931              		.loc 1 1290 0
 932 007a 03B0     		add	sp, sp, #12
 933              	.LCFI16:
 934              		.cfi_remember_state
 935              		.cfi_def_cfa_offset 12
 936              		@ sp needed
 937 007c 30BD     		pop	{r4, r5, pc}
 938              	.LVL75:
 939              	.L73:
 940              	.LCFI17:
 941              		.cfi_restore_state
1235:Drivers/STM32F7xx_HAL_Driver/Src/stm32f7xx_hal_hcd.c ****       HAL_HCD_Connect_Callback(hhcd);
 942              		.loc 1 1235 0
 943 007e A369     		ldr	r3, [r4, #24]
 944 0080 23F00053 		bic	r3, r3, #536870912
 945 0084 A361     		str	r3, [r4, #24]
1236:Drivers/STM32F7xx_HAL_Driver/Src/stm32f7xx_hal_hcd.c ****     }
 946              		.loc 1 1236 0
 947 0086 FFF7FEFF 		bl	HAL_HCD_Connect_Callback
 948              	.LVL76:
 949 008a CFE7     		b	.L65
 950              	.L74:
1250:Drivers/STM32F7xx_HAL_Driver/Src/stm32f7xx_hal_hcd.c ****         {
 951              		.loc 1 1250 0
 952 008c 019B     		ldr	r3, [sp, #4]
 953 008e 03F4C023 		and	r3, r3, #393216
 954 0092 B3F5802F 		cmp	r3, #262144
 955 0096 04D0     		beq	.L76
1256:Drivers/STM32F7xx_HAL_Driver/Src/stm32f7xx_hal_hcd.c ****         }
 956              		.loc 1 1256 0
 957 0098 0121     		movs	r1, #1
 958 009a 2868     		ldr	r0, [r5]
 959 009c FFF7FEFF 		bl	USB_InitFSLSPClkSel
 960              	.LVL77:
 961 00a0 DAE7     		b	.L70
 962              	.L76:
1252:Drivers/STM32F7xx_HAL_Driver/Src/stm32f7xx_hal_hcd.c ****         }
 963              		.loc 1 1252 0
 964 00a2 0221     		movs	r1, #2
 965 00a4 2868     		ldr	r0, [r5]
 966 00a6 FFF7FEFF 		bl	USB_InitFSLSPClkSel
 967              	.LVL78:
 968 00aa D5E7     		b	.L70
 969              	.L75:
1263:Drivers/STM32F7xx_HAL_Driver/Src/stm32f7xx_hal_hcd.c ****         }
 970              		.loc 1 1263 0
 971 00ac 4EF66022 		movw	r2, #60000
 972 00b0 C4F80424 		str	r2, [r4, #1028]
 973 00b4 D0E7     		b	.L70
 974              	.L67:
1272:Drivers/STM32F7xx_HAL_Driver/Src/stm32f7xx_hal_hcd.c **** 
 975              		.loc 1 1272 0
 976 00b6 2846     		mov	r0, r5
ARM GAS  C:\Users\Student\AppData\Local\Temp\ccjpImAB.s 			page 42


 977 00b8 FFF7FEFF 		bl	HAL_HCD_PortDisabled_Callback
 978              	.LVL79:
1275:Drivers/STM32F7xx_HAL_Driver/Src/stm32f7xx_hal_hcd.c ****         USB_OTG_HPRT_PENCHNG | USB_OTG_HPRT_POCCHNG );
 979              		.loc 1 1275 0
 980 00bc D4F84034 		ldr	r3, [r4, #1088]
 981 00c0 23F02E03 		bic	r3, r3, #46
 982 00c4 C4F84034 		str	r3, [r4, #1088]
1278:Drivers/STM32F7xx_HAL_Driver/Src/stm32f7xx_hal_hcd.c ****     }
 983              		.loc 1 1278 0
 984 00c8 2A68     		ldr	r2, [r5]
 985 00ca 9369     		ldr	r3, [r2, #24]
 986 00cc 43F00053 		orr	r3, r3, #536870912
 987 00d0 9361     		str	r3, [r2, #24]
 988 00d2 C7E7     		b	.L66
 989              		.cfi_endproc
 990              	.LFE162:
 992              		.section	.text.HAL_HCD_HC_NotifyURBChange_Callback,"ax",%progbits
 993              		.align	1
 994              		.weak	HAL_HCD_HC_NotifyURBChange_Callback
 995              		.syntax unified
 996              		.thumb
 997              		.thumb_func
 998              		.fpu fpv5-sp-d16
 1000              	HAL_HCD_HC_NotifyURBChange_Callback:
 1001              	.LFB149:
 655:Drivers/STM32F7xx_HAL_Driver/Src/stm32f7xx_hal_hcd.c ****   /* Prevent unused argument(s) compilation warning */
 1002              		.loc 1 655 0
 1003              		.cfi_startproc
 1004              		@ args = 0, pretend = 0, frame = 0
 1005              		@ frame_needed = 0, uses_anonymous_args = 0
 1006              		@ link register save eliminated.
 1007              	.LVL80:
 1008 0000 7047     		bx	lr
 1009              		.cfi_endproc
 1010              	.LFE149:
 1012              		.section	.text.HCD_HC_IN_IRQHandler,"ax",%progbits
 1013              		.align	1
 1014              		.syntax unified
 1015              		.thumb
 1016              		.thumb_func
 1017              		.fpu fpv5-sp-d16
 1019              	HCD_HC_IN_IRQHandler:
 1020              	.LFB159:
 845:Drivers/STM32F7xx_HAL_Driver/Src/stm32f7xx_hal_hcd.c ****   USB_OTG_GlobalTypeDef *USBx = hhcd->Instance;
 1021              		.loc 1 845 0
 1022              		.cfi_startproc
 1023              		@ args = 0, pretend = 0, frame = 0
 1024              		@ frame_needed = 0, uses_anonymous_args = 0
 1025              	.LVL81:
 845:Drivers/STM32F7xx_HAL_Driver/Src/stm32f7xx_hal_hcd.c ****   USB_OTG_GlobalTypeDef *USBx = hhcd->Instance;
 1026              		.loc 1 845 0
 1027 0000 F8B5     		push	{r3, r4, r5, r6, r7, lr}
 1028              	.LCFI18:
 1029              		.cfi_def_cfa_offset 24
 1030              		.cfi_offset 3, -24
 1031              		.cfi_offset 4, -20
 1032              		.cfi_offset 5, -16
ARM GAS  C:\Users\Student\AppData\Local\Temp\ccjpImAB.s 			page 43


 1033              		.cfi_offset 6, -12
 1034              		.cfi_offset 7, -8
 1035              		.cfi_offset 14, -4
 1036 0002 0646     		mov	r6, r0
 1037 0004 0D46     		mov	r5, r1
 846:Drivers/STM32F7xx_HAL_Driver/Src/stm32f7xx_hal_hcd.c ****   uint32_t USBx_BASE = (uint32_t)USBx;
 1038              		.loc 1 846 0
 1039 0006 0768     		ldr	r7, [r0]
 1040              	.LVL82:
 852:Drivers/STM32F7xx_HAL_Driver/Src/stm32f7xx_hal_hcd.c ****   {
 1041              		.loc 1 852 0
 1042 0008 07EB4117 		add	r7, r7, r1, lsl #5
 1043              	.LVL83:
 1044 000c 07F5A064 		add	r4, r7, #1280
 1045 0010 A368     		ldr	r3, [r4, #8]
 1046 0012 13F0040F 		tst	r3, #4
 1047 0016 37D0     		beq	.L79
 854:Drivers/STM32F7xx_HAL_Driver/Src/stm32f7xx_hal_hcd.c ****     __HAL_HCD_UNMASK_HALT_HC_INT(ch_num);
 1048              		.loc 1 854 0
 1049 0018 0423     		movs	r3, #4
 1050 001a A360     		str	r3, [r4, #8]
 1051              	.LVL84:
 855:Drivers/STM32F7xx_HAL_Driver/Src/stm32f7xx_hal_hcd.c ****   }
 1052              		.loc 1 855 0
 1053 001c E368     		ldr	r3, [r4, #12]
 1054 001e 43F00203 		orr	r3, r3, #2
 1055 0022 E360     		str	r3, [r4, #12]
 1056              	.LVL85:
 1057              	.L80:
 882:Drivers/STM32F7xx_HAL_Driver/Src/stm32f7xx_hal_hcd.c ****   {
 1058              		.loc 1 882 0
 1059 0024 A368     		ldr	r3, [r4, #8]
 1060 0026 13F4007F 		tst	r3, #512
 1061 002a 63D1     		bne	.L100
 888:Drivers/STM32F7xx_HAL_Driver/Src/stm32f7xx_hal_hcd.c ****   {
 1062              		.loc 1 888 0
 1063 002c A368     		ldr	r3, [r4, #8]
 1064 002e 13F0010F 		tst	r3, #1
 1065 0032 00F08880 		beq	.L85
 890:Drivers/STM32F7xx_HAL_Driver/Src/stm32f7xx_hal_hcd.c ****     {
 1066              		.loc 1 890 0
 1067 0036 3369     		ldr	r3, [r6, #16]
 1068 0038 4BB1     		cbz	r3, .L86
 892:Drivers/STM32F7xx_HAL_Driver/Src/stm32f7xx_hal_hcd.c ****                                (USBx_HC(ch_num)->HCTSIZ & USB_OTG_HCTSIZ_XFRSIZ);
 1069              		.loc 1 892 0
 1070 003a AA00     		lsls	r2, r5, #2
 1071 003c 2A44     		add	r2, r2, r5
 1072 003e D300     		lsls	r3, r2, #3
 1073 0040 3344     		add	r3, r3, r6
 1074 0042 9A6C     		ldr	r2, [r3, #72]
 893:Drivers/STM32F7xx_HAL_Driver/Src/stm32f7xx_hal_hcd.c ****     }
 1075              		.loc 1 893 0
 1076 0044 2169     		ldr	r1, [r4, #16]
 1077 0046 C1F31201 		ubfx	r1, r1, #0, #19
 892:Drivers/STM32F7xx_HAL_Driver/Src/stm32f7xx_hal_hcd.c ****                                (USBx_HC(ch_num)->HCTSIZ & USB_OTG_HCTSIZ_XFRSIZ);
 1078              		.loc 1 892 0
 1079 004a 521A     		subs	r2, r2, r1
ARM GAS  C:\Users\Student\AppData\Local\Temp\ccjpImAB.s 			page 44


 1080 004c DA64     		str	r2, [r3, #76]
 1081              	.L86:
 896:Drivers/STM32F7xx_HAL_Driver/Src/stm32f7xx_hal_hcd.c ****     hhcd->hc[ch_num].ErrCnt = 0U;
 1082              		.loc 1 896 0
 1083 004e AA00     		lsls	r2, r5, #2
 1084 0050 2A44     		add	r2, r2, r5
 1085 0052 D300     		lsls	r3, r2, #3
 1086 0054 3344     		add	r3, r3, r6
 1087 0056 0122     		movs	r2, #1
 1088 0058 83F85D20 		strb	r2, [r3, #93]
 897:Drivers/STM32F7xx_HAL_Driver/Src/stm32f7xx_hal_hcd.c ****     __HAL_HCD_CLEAR_HC_INT(ch_num, USB_OTG_HCINT_XFRC);
 1089              		.loc 1 897 0
 1090 005c 0021     		movs	r1, #0
 1091 005e 9965     		str	r1, [r3, #88]
 898:Drivers/STM32F7xx_HAL_Driver/Src/stm32f7xx_hal_hcd.c **** 
 1092              		.loc 1 898 0
 1093 0060 A260     		str	r2, [r4, #8]
 900:Drivers/STM32F7xx_HAL_Driver/Src/stm32f7xx_hal_hcd.c ****         (hhcd->hc[ch_num].ep_type == EP_TYPE_BULK))
 1094              		.loc 1 900 0
 1095 0062 93F83F30 		ldrb	r3, [r3, #63]	@ zero_extendqisi2
 1096 0066 022B     		cmp	r3, #2
 1097 0068 18BF     		it	ne
 1098 006a 8B42     		cmpne	r3, r1
 1099 006c 4ED0     		beq	.L101
 907:Drivers/STM32F7xx_HAL_Driver/Src/stm32f7xx_hal_hcd.c ****     {
 1100              		.loc 1 907 0
 1101 006e 032B     		cmp	r3, #3
 1102 0070 57D0     		beq	.L102
 1103              	.L88:
 917:Drivers/STM32F7xx_HAL_Driver/Src/stm32f7xx_hal_hcd.c **** 
 1104              		.loc 1 917 0
 1105 0072 AB00     		lsls	r3, r5, #2
 1106 0074 5919     		adds	r1, r3, r5
 1107 0076 CA00     		lsls	r2, r1, #3
 1108 0078 3244     		add	r2, r2, r6
 1109 007a 92F85030 		ldrb	r3, [r2, #80]	@ zero_extendqisi2
 1110 007e 83F00103 		eor	r3, r3, #1
 1111 0082 82F85030 		strb	r3, [r2, #80]
 1112 0086 F8BD     		pop	{r3, r4, r5, r6, r7, pc}
 1113              	.LVL86:
 1114              	.L79:
 857:Drivers/STM32F7xx_HAL_Driver/Src/stm32f7xx_hal_hcd.c ****   {
 1115              		.loc 1 857 0
 1116 0088 A368     		ldr	r3, [r4, #8]
 1117 008a 13F0200F 		tst	r3, #32
 1118 008e 02D0     		beq	.L81
 859:Drivers/STM32F7xx_HAL_Driver/Src/stm32f7xx_hal_hcd.c ****   }
 1119              		.loc 1 859 0
 1120 0090 2023     		movs	r3, #32
 1121 0092 A360     		str	r3, [r4, #8]
 1122              	.LVL87:
 1123 0094 C6E7     		b	.L80
 1124              	.LVL88:
 1125              	.L81:
 861:Drivers/STM32F7xx_HAL_Driver/Src/stm32f7xx_hal_hcd.c ****   {
 1126              		.loc 1 861 0
 1127 0096 A368     		ldr	r3, [r4, #8]
ARM GAS  C:\Users\Student\AppData\Local\Temp\ccjpImAB.s 			page 45


 1128 0098 13F0080F 		tst	r3, #8
 1129 009c 17D1     		bne	.L103
 869:Drivers/STM32F7xx_HAL_Driver/Src/stm32f7xx_hal_hcd.c ****   {
 1130              		.loc 1 869 0
 1131 009e A368     		ldr	r3, [r4, #8]
 1132 00a0 13F4806F 		tst	r3, #1024
 1133 00a4 BED0     		beq	.L80
 871:Drivers/STM32F7xx_HAL_Driver/Src/stm32f7xx_hal_hcd.c ****     (void)USB_HC_Halt(hhcd->Instance, (uint8_t)ch_num);
 1134              		.loc 1 871 0
 1135 00a6 E368     		ldr	r3, [r4, #12]
 1136 00a8 43F00203 		orr	r3, r3, #2
 1137 00ac E360     		str	r3, [r4, #12]
 1138              	.LVL89:
 872:Drivers/STM32F7xx_HAL_Driver/Src/stm32f7xx_hal_hcd.c ****     __HAL_HCD_CLEAR_HC_INT(ch_num, USB_OTG_HCINT_NAK);
 1139              		.loc 1 872 0
 1140 00ae 0068     		ldr	r0, [r0]
 1141              	.LVL90:
 1142 00b0 FFF7FEFF 		bl	USB_HC_Halt
 1143              	.LVL91:
 873:Drivers/STM32F7xx_HAL_Driver/Src/stm32f7xx_hal_hcd.c ****     hhcd->hc[ch_num].state = HC_DATATGLERR;
 1144              		.loc 1 873 0
 1145 00b4 1023     		movs	r3, #16
 1146 00b6 A360     		str	r3, [r4, #8]
 874:Drivers/STM32F7xx_HAL_Driver/Src/stm32f7xx_hal_hcd.c ****     __HAL_HCD_CLEAR_HC_INT(ch_num, USB_OTG_HCINT_DTERR);
 1147              		.loc 1 874 0
 1148 00b8 05EB8502 		add	r2, r5, r5, lsl #2
 1149 00bc D300     		lsls	r3, r2, #3
 1150 00be 3344     		add	r3, r3, r6
 1151 00c0 0822     		movs	r2, #8
 1152 00c2 83F85D20 		strb	r2, [r3, #93]
 875:Drivers/STM32F7xx_HAL_Driver/Src/stm32f7xx_hal_hcd.c ****   }
 1153              		.loc 1 875 0
 1154 00c6 4FF48063 		mov	r3, #1024
 1155 00ca A360     		str	r3, [r4, #8]
 1156 00cc AAE7     		b	.L80
 1157              	.LVL92:
 1158              	.L103:
 863:Drivers/STM32F7xx_HAL_Driver/Src/stm32f7xx_hal_hcd.c ****     hhcd->hc[ch_num].state = HC_STALL;
 1159              		.loc 1 863 0
 1160 00ce E368     		ldr	r3, [r4, #12]
 1161 00d0 43F00203 		orr	r3, r3, #2
 1162 00d4 E360     		str	r3, [r4, #12]
 1163              	.LVL93:
 864:Drivers/STM32F7xx_HAL_Driver/Src/stm32f7xx_hal_hcd.c ****     __HAL_HCD_CLEAR_HC_INT(ch_num, USB_OTG_HCINT_NAK);
 1164              		.loc 1 864 0
 1165 00d6 01EB8102 		add	r2, r1, r1, lsl #2
 1166 00da D300     		lsls	r3, r2, #3
 1167 00dc 0344     		add	r3, r3, r0
 1168 00de 0522     		movs	r2, #5
 1169 00e0 83F85D20 		strb	r2, [r3, #93]
 865:Drivers/STM32F7xx_HAL_Driver/Src/stm32f7xx_hal_hcd.c ****     __HAL_HCD_CLEAR_HC_INT(ch_num, USB_OTG_HCINT_STALL);
 1170              		.loc 1 865 0
 1171 00e4 1023     		movs	r3, #16
 1172 00e6 A360     		str	r3, [r4, #8]
 866:Drivers/STM32F7xx_HAL_Driver/Src/stm32f7xx_hal_hcd.c ****     (void)USB_HC_Halt(hhcd->Instance, (uint8_t)ch_num);
 1173              		.loc 1 866 0
 1174 00e8 0823     		movs	r3, #8
ARM GAS  C:\Users\Student\AppData\Local\Temp\ccjpImAB.s 			page 46


 1175 00ea A360     		str	r3, [r4, #8]
 867:Drivers/STM32F7xx_HAL_Driver/Src/stm32f7xx_hal_hcd.c ****   }
 1176              		.loc 1 867 0
 1177 00ec 0068     		ldr	r0, [r0]
 1178              	.LVL94:
 1179 00ee FFF7FEFF 		bl	USB_HC_Halt
 1180              	.LVL95:
 1181 00f2 97E7     		b	.L80
 1182              	.L100:
 884:Drivers/STM32F7xx_HAL_Driver/Src/stm32f7xx_hal_hcd.c ****     (void)USB_HC_Halt(hhcd->Instance, (uint8_t)ch_num);
 1183              		.loc 1 884 0
 1184 00f4 E368     		ldr	r3, [r4, #12]
 1185 00f6 43F00203 		orr	r3, r3, #2
 1186 00fa E360     		str	r3, [r4, #12]
 885:Drivers/STM32F7xx_HAL_Driver/Src/stm32f7xx_hal_hcd.c ****     __HAL_HCD_CLEAR_HC_INT(ch_num, USB_OTG_HCINT_FRMOR);
 1187              		.loc 1 885 0
 1188 00fc 2946     		mov	r1, r5
 1189 00fe 3068     		ldr	r0, [r6]
 1190 0100 FFF7FEFF 		bl	USB_HC_Halt
 1191              	.LVL96:
 886:Drivers/STM32F7xx_HAL_Driver/Src/stm32f7xx_hal_hcd.c ****   }
 1192              		.loc 1 886 0
 1193 0104 4FF40073 		mov	r3, #512
 1194 0108 A360     		str	r3, [r4, #8]
 1195 010a F8BD     		pop	{r3, r4, r5, r6, r7, pc}
 1196              	.LVL97:
 1197              	.L101:
 903:Drivers/STM32F7xx_HAL_Driver/Src/stm32f7xx_hal_hcd.c ****       (void)USB_HC_Halt(hhcd->Instance, (uint8_t)ch_num);
 1198              		.loc 1 903 0
 1199 010c E368     		ldr	r3, [r4, #12]
 1200 010e 43F00203 		orr	r3, r3, #2
 1201 0112 E360     		str	r3, [r4, #12]
 904:Drivers/STM32F7xx_HAL_Driver/Src/stm32f7xx_hal_hcd.c ****       __HAL_HCD_CLEAR_HC_INT(ch_num, USB_OTG_HCINT_NAK);
 1202              		.loc 1 904 0
 1203 0114 2946     		mov	r1, r5
 1204 0116 3068     		ldr	r0, [r6]
 1205 0118 FFF7FEFF 		bl	USB_HC_Halt
 1206              	.LVL98:
 905:Drivers/STM32F7xx_HAL_Driver/Src/stm32f7xx_hal_hcd.c ****     }
 1207              		.loc 1 905 0
 1208 011c 1023     		movs	r3, #16
 1209 011e A360     		str	r3, [r4, #8]
 1210 0120 A7E7     		b	.L88
 1211              	.L102:
 909:Drivers/STM32F7xx_HAL_Driver/Src/stm32f7xx_hal_hcd.c ****       hhcd->hc[ch_num].urb_state = URB_DONE;
 1212              		.loc 1 909 0
 1213 0122 D7F80035 		ldr	r3, [r7, #1280]
 1214 0126 43F00053 		orr	r3, r3, #536870912
 1215 012a C7F80035 		str	r3, [r7, #1280]
 910:Drivers/STM32F7xx_HAL_Driver/Src/stm32f7xx_hal_hcd.c ****       HAL_HCD_HC_NotifyURBChange_Callback(hhcd, (uint8_t)ch_num, hhcd->hc[ch_num].urb_state);
 1216              		.loc 1 910 0
 1217 012e 05EB8502 		add	r2, r5, r5, lsl #2
 1218 0132 D300     		lsls	r3, r2, #3
 1219 0134 3344     		add	r3, r3, r6
 1220 0136 0122     		movs	r2, #1
 1221 0138 83F85C20 		strb	r2, [r3, #92]
 911:Drivers/STM32F7xx_HAL_Driver/Src/stm32f7xx_hal_hcd.c ****     }
ARM GAS  C:\Users\Student\AppData\Local\Temp\ccjpImAB.s 			page 47


 1222              		.loc 1 911 0
 1223 013c 2946     		mov	r1, r5
 1224 013e 3046     		mov	r0, r6
 1225 0140 FFF7FEFF 		bl	HAL_HCD_HC_NotifyURBChange_Callback
 1226              	.LVL99:
 1227 0144 95E7     		b	.L88
 1228              	.L85:
 920:Drivers/STM32F7xx_HAL_Driver/Src/stm32f7xx_hal_hcd.c ****   {
 1229              		.loc 1 920 0
 1230 0146 A368     		ldr	r3, [r4, #8]
 1231 0148 13F0020F 		tst	r3, #2
 1232 014c 62D0     		beq	.L89
 922:Drivers/STM32F7xx_HAL_Driver/Src/stm32f7xx_hal_hcd.c **** 
 1233              		.loc 1 922 0
 1234 014e E368     		ldr	r3, [r4, #12]
 1235 0150 23F00203 		bic	r3, r3, #2
 1236 0154 E360     		str	r3, [r4, #12]
 924:Drivers/STM32F7xx_HAL_Driver/Src/stm32f7xx_hal_hcd.c ****     {
 1237              		.loc 1 924 0
 1238 0156 05EB8502 		add	r2, r5, r5, lsl #2
 1239 015a D300     		lsls	r3, r2, #3
 1240 015c 3344     		add	r3, r3, r6
 1241 015e 93F85D30 		ldrb	r3, [r3, #93]	@ zero_extendqisi2
 1242 0162 012B     		cmp	r3, #1
 1243 0164 20D0     		beq	.L104
 928:Drivers/STM32F7xx_HAL_Driver/Src/stm32f7xx_hal_hcd.c ****     {
 1244              		.loc 1 928 0
 1245 0166 052B     		cmp	r3, #5
 1246 0168 32D0     		beq	.L105
 932:Drivers/STM32F7xx_HAL_Driver/Src/stm32f7xx_hal_hcd.c ****             (hhcd->hc[ch_num].state == HC_DATATGLERR))
 1247              		.loc 1 932 0
 1248 016a 082B     		cmp	r3, #8
 1249 016c 18BF     		it	ne
 1250 016e 062B     		cmpne	r3, #6
 1251 0170 3ED1     		bne	.L93
 935:Drivers/STM32F7xx_HAL_Driver/Src/stm32f7xx_hal_hcd.c ****       if(hhcd->hc[ch_num].ErrCnt > 3U)
 1252              		.loc 1 935 0
 1253 0172 AA00     		lsls	r2, r5, #2
 1254 0174 2A44     		add	r2, r2, r5
 1255 0176 D300     		lsls	r3, r2, #3
 1256 0178 3344     		add	r3, r3, r6
 1257 017a 9A6D     		ldr	r2, [r3, #88]
 1258 017c 0132     		adds	r2, r2, #1
 1259 017e 9A65     		str	r2, [r3, #88]
 936:Drivers/STM32F7xx_HAL_Driver/Src/stm32f7xx_hal_hcd.c ****       {
 1260              		.loc 1 936 0
 1261 0180 032A     		cmp	r2, #3
 1262 0182 2DD9     		bls	.L94
 938:Drivers/STM32F7xx_HAL_Driver/Src/stm32f7xx_hal_hcd.c ****         hhcd->hc[ch_num].urb_state = URB_ERROR;
 1263              		.loc 1 938 0
 1264 0184 AA00     		lsls	r2, r5, #2
 1265 0186 2A44     		add	r2, r2, r5
 1266 0188 D300     		lsls	r3, r2, #3
 1267 018a 3344     		add	r3, r3, r6
 1268 018c 0022     		movs	r2, #0
 1269 018e 9A65     		str	r2, [r3, #88]
 939:Drivers/STM32F7xx_HAL_Driver/Src/stm32f7xx_hal_hcd.c ****       }
ARM GAS  C:\Users\Student\AppData\Local\Temp\ccjpImAB.s 			page 48


 1270              		.loc 1 939 0
 1271 0190 0422     		movs	r2, #4
 1272 0192 83F85C20 		strb	r2, [r3, #92]
 1273              	.L95:
 947:Drivers/STM32F7xx_HAL_Driver/Src/stm32f7xx_hal_hcd.c ****       tmpreg &= ~USB_OTG_HCCHAR_CHDIS;
 1274              		.loc 1 947 0
 1275 0196 D7F80035 		ldr	r3, [r7, #1280]
 1276              	.LVL100:
 948:Drivers/STM32F7xx_HAL_Driver/Src/stm32f7xx_hal_hcd.c ****       tmpreg |= USB_OTG_HCCHAR_CHENA;
 1277              		.loc 1 948 0
 1278 019a 23F08043 		bic	r3, r3, #1073741824
 1279              	.LVL101:
 949:Drivers/STM32F7xx_HAL_Driver/Src/stm32f7xx_hal_hcd.c ****       USBx_HC(ch_num)->HCCHAR = tmpreg;
 1280              		.loc 1 949 0
 1281 019e 43F00043 		orr	r3, r3, #-2147483648
 1282              	.LVL102:
 950:Drivers/STM32F7xx_HAL_Driver/Src/stm32f7xx_hal_hcd.c ****     }
 1283              		.loc 1 950 0
 1284 01a2 C7F80035 		str	r3, [r7, #1280]
 1285 01a6 06E0     		b	.L91
 1286              	.LVL103:
 1287              	.L104:
 926:Drivers/STM32F7xx_HAL_Driver/Src/stm32f7xx_hal_hcd.c ****     }
 1288              		.loc 1 926 0
 1289 01a8 05EB8502 		add	r2, r5, r5, lsl #2
 1290 01ac D300     		lsls	r3, r2, #3
 1291 01ae 3344     		add	r3, r3, r6
 1292 01b0 0122     		movs	r2, #1
 1293 01b2 83F85C20 		strb	r2, [r3, #92]
 1294              	.L91:
 965:Drivers/STM32F7xx_HAL_Driver/Src/stm32f7xx_hal_hcd.c ****     HAL_HCD_HC_NotifyURBChange_Callback(hhcd, (uint8_t)ch_num, hhcd->hc[ch_num].urb_state);
 1295              		.loc 1 965 0
 1296 01b6 0223     		movs	r3, #2
 1297 01b8 A360     		str	r3, [r4, #8]
 966:Drivers/STM32F7xx_HAL_Driver/Src/stm32f7xx_hal_hcd.c ****   }
 1298              		.loc 1 966 0
 1299 01ba 05EB8502 		add	r2, r5, r5, lsl #2
 1300 01be D300     		lsls	r3, r2, #3
 1301 01c0 3344     		add	r3, r3, r6
 1302 01c2 93F85C20 		ldrb	r2, [r3, #92]	@ zero_extendqisi2
 1303 01c6 2946     		mov	r1, r5
 1304 01c8 3046     		mov	r0, r6
 1305 01ca FFF7FEFF 		bl	HAL_HCD_HC_NotifyURBChange_Callback
 1306              	.LVL104:
 1307 01ce F8BD     		pop	{r3, r4, r5, r6, r7, pc}
 1308              	.LVL105:
 1309              	.L105:
 930:Drivers/STM32F7xx_HAL_Driver/Src/stm32f7xx_hal_hcd.c ****     }
 1310              		.loc 1 930 0
 1311 01d0 05EB8502 		add	r2, r5, r5, lsl #2
 1312 01d4 D300     		lsls	r3, r2, #3
 1313 01d6 3344     		add	r3, r3, r6
 1314 01d8 0522     		movs	r2, #5
 1315 01da 83F85C20 		strb	r2, [r3, #92]
 1316 01de EAE7     		b	.L91
 1317              	.L94:
 943:Drivers/STM32F7xx_HAL_Driver/Src/stm32f7xx_hal_hcd.c ****       }
ARM GAS  C:\Users\Student\AppData\Local\Temp\ccjpImAB.s 			page 49


 1318              		.loc 1 943 0
 1319 01e0 05EB8502 		add	r2, r5, r5, lsl #2
 1320 01e4 D300     		lsls	r3, r2, #3
 1321 01e6 3344     		add	r3, r3, r6
 1322 01e8 0222     		movs	r2, #2
 1323 01ea 83F85C20 		strb	r2, [r3, #92]
 1324 01ee D2E7     		b	.L95
 1325              	.L93:
 952:Drivers/STM32F7xx_HAL_Driver/Src/stm32f7xx_hal_hcd.c ****     {
 1326              		.loc 1 952 0
 1327 01f0 032B     		cmp	r3, #3
 1328 01f2 E0D1     		bne	.L91
 954:Drivers/STM32F7xx_HAL_Driver/Src/stm32f7xx_hal_hcd.c ****       /* re-activate the channel  */
 1329              		.loc 1 954 0
 1330 01f4 05EB8502 		add	r2, r5, r5, lsl #2
 1331 01f8 D300     		lsls	r3, r2, #3
 1332 01fa 3344     		add	r3, r3, r6
 1333 01fc 0222     		movs	r2, #2
 1334 01fe 83F85C20 		strb	r2, [r3, #92]
 956:Drivers/STM32F7xx_HAL_Driver/Src/stm32f7xx_hal_hcd.c ****       tmpreg &= ~USB_OTG_HCCHAR_CHDIS;
 1335              		.loc 1 956 0
 1336 0202 D7F80035 		ldr	r3, [r7, #1280]
 1337              	.LVL106:
 957:Drivers/STM32F7xx_HAL_Driver/Src/stm32f7xx_hal_hcd.c ****       tmpreg |= USB_OTG_HCCHAR_CHENA;
 1338              		.loc 1 957 0
 1339 0206 23F08043 		bic	r3, r3, #1073741824
 1340              	.LVL107:
 958:Drivers/STM32F7xx_HAL_Driver/Src/stm32f7xx_hal_hcd.c ****       USBx_HC(ch_num)->HCCHAR = tmpreg;
 1341              		.loc 1 958 0
 1342 020a 43F00043 		orr	r3, r3, #-2147483648
 1343              	.LVL108:
 959:Drivers/STM32F7xx_HAL_Driver/Src/stm32f7xx_hal_hcd.c ****     }
 1344              		.loc 1 959 0
 1345 020e C7F80035 		str	r3, [r7, #1280]
 1346 0212 D0E7     		b	.L91
 1347              	.LVL109:
 1348              	.L89:
 968:Drivers/STM32F7xx_HAL_Driver/Src/stm32f7xx_hal_hcd.c ****   {
 1349              		.loc 1 968 0
 1350 0214 A368     		ldr	r3, [r4, #8]
 1351 0216 13F0800F 		tst	r3, #128
 1352 021a 1AD1     		bne	.L106
 976:Drivers/STM32F7xx_HAL_Driver/Src/stm32f7xx_hal_hcd.c ****   {
 1353              		.loc 1 976 0
 1354 021c A368     		ldr	r3, [r4, #8]
 1355 021e 13F0100F 		tst	r3, #16
 1356 0222 15D0     		beq	.L78
 978:Drivers/STM32F7xx_HAL_Driver/Src/stm32f7xx_hal_hcd.c ****     {
 1357              		.loc 1 978 0
 1358 0224 05EB8502 		add	r2, r5, r5, lsl #2
 1359 0228 D300     		lsls	r3, r2, #3
 1360 022a 3344     		add	r3, r3, r6
 1361 022c 93F83F30 		ldrb	r3, [r3, #63]	@ zero_extendqisi2
 1362 0230 032B     		cmp	r3, #3
 1363 0232 26D0     		beq	.L107
 984:Drivers/STM32F7xx_HAL_Driver/Src/stm32f7xx_hal_hcd.c ****              (hhcd->hc[ch_num].ep_type == EP_TYPE_BULK))
 1364              		.loc 1 984 0
ARM GAS  C:\Users\Student\AppData\Local\Temp\ccjpImAB.s 			page 50


 1365 0234 022B     		cmp	r3, #2
 1366 0236 18BF     		it	ne
 1367 0238 002B     		cmpne	r3, #0
 1368 023a 07D1     		bne	.L98
 987:Drivers/STM32F7xx_HAL_Driver/Src/stm32f7xx_hal_hcd.c ****        if (hhcd->Init.dma_enable == 0U)
 1369              		.loc 1 987 0
 1370 023c 05EB8502 		add	r2, r5, r5, lsl #2
 1371 0240 D300     		lsls	r3, r2, #3
 1372 0242 3344     		add	r3, r3, r6
 1373 0244 0022     		movs	r2, #0
 1374 0246 9A65     		str	r2, [r3, #88]
 988:Drivers/STM32F7xx_HAL_Driver/Src/stm32f7xx_hal_hcd.c ****        {
 1375              		.loc 1 988 0
 1376 0248 3369     		ldr	r3, [r6, #16]
 1377 024a 4BB3     		cbz	r3, .L108
 1378              	.L98:
 999:Drivers/STM32F7xx_HAL_Driver/Src/stm32f7xx_hal_hcd.c ****   }
 1379              		.loc 1 999 0
 1380 024c 1023     		movs	r3, #16
 1381 024e A360     		str	r3, [r4, #8]
 1382              	.L78:
 1383 0250 F8BD     		pop	{r3, r4, r5, r6, r7, pc}
 1384              	.LVL110:
 1385              	.L106:
 970:Drivers/STM32F7xx_HAL_Driver/Src/stm32f7xx_hal_hcd.c ****     hhcd->hc[ch_num].ErrCnt++;
 1386              		.loc 1 970 0
 1387 0252 E368     		ldr	r3, [r4, #12]
 1388 0254 43F00203 		orr	r3, r3, #2
 1389 0258 E360     		str	r3, [r4, #12]
 971:Drivers/STM32F7xx_HAL_Driver/Src/stm32f7xx_hal_hcd.c ****     hhcd->hc[ch_num].state = HC_XACTERR;
 1390              		.loc 1 971 0
 1391 025a AB00     		lsls	r3, r5, #2
 1392 025c 5919     		adds	r1, r3, r5
 1393 025e CA00     		lsls	r2, r1, #3
 1394 0260 3244     		add	r2, r2, r6
 1395 0262 916D     		ldr	r1, [r2, #88]
 1396 0264 0131     		adds	r1, r1, #1
 1397 0266 9165     		str	r1, [r2, #88]
 972:Drivers/STM32F7xx_HAL_Driver/Src/stm32f7xx_hal_hcd.c ****     (void)USB_HC_Halt(hhcd->Instance, (uint8_t)ch_num);
 1398              		.loc 1 972 0
 1399 0268 2B44     		add	r3, r3, r5
 1400 026a DA00     		lsls	r2, r3, #3
 1401 026c 3244     		add	r2, r2, r6
 1402 026e 0623     		movs	r3, #6
 1403 0270 82F85D30 		strb	r3, [r2, #93]
 973:Drivers/STM32F7xx_HAL_Driver/Src/stm32f7xx_hal_hcd.c ****     __HAL_HCD_CLEAR_HC_INT(ch_num, USB_OTG_HCINT_TXERR);
 1404              		.loc 1 973 0
 1405 0274 2946     		mov	r1, r5
 1406 0276 3068     		ldr	r0, [r6]
 1407 0278 FFF7FEFF 		bl	USB_HC_Halt
 1408              	.LVL111:
 974:Drivers/STM32F7xx_HAL_Driver/Src/stm32f7xx_hal_hcd.c ****   }
 1409              		.loc 1 974 0
 1410 027c 8023     		movs	r3, #128
 1411 027e A360     		str	r3, [r4, #8]
 1412 0280 F8BD     		pop	{r3, r4, r5, r6, r7, pc}
 1413              	.LVL112:
ARM GAS  C:\Users\Student\AppData\Local\Temp\ccjpImAB.s 			page 51


 1414              	.L107:
 980:Drivers/STM32F7xx_HAL_Driver/Src/stm32f7xx_hal_hcd.c ****       __HAL_HCD_UNMASK_HALT_HC_INT(ch_num);
 1415              		.loc 1 980 0
 1416 0282 05EB8502 		add	r2, r5, r5, lsl #2
 1417 0286 D300     		lsls	r3, r2, #3
 1418 0288 3344     		add	r3, r3, r6
 1419 028a 0022     		movs	r2, #0
 1420 028c 9A65     		str	r2, [r3, #88]
 981:Drivers/STM32F7xx_HAL_Driver/Src/stm32f7xx_hal_hcd.c ****       (void)USB_HC_Halt(hhcd->Instance, (uint8_t)ch_num);
 1421              		.loc 1 981 0
 1422 028e E368     		ldr	r3, [r4, #12]
 1423 0290 43F00203 		orr	r3, r3, #2
 1424 0294 E360     		str	r3, [r4, #12]
 982:Drivers/STM32F7xx_HAL_Driver/Src/stm32f7xx_hal_hcd.c ****     }
 1425              		.loc 1 982 0
 1426 0296 2946     		mov	r1, r5
 1427 0298 3068     		ldr	r0, [r6]
 1428 029a FFF7FEFF 		bl	USB_HC_Halt
 1429              	.LVL113:
 1430 029e D5E7     		b	.L98
 1431              	.L108:
 990:Drivers/STM32F7xx_HAL_Driver/Src/stm32f7xx_hal_hcd.c ****          __HAL_HCD_UNMASK_HALT_HC_INT(ch_num);
 1432              		.loc 1 990 0
 1433 02a0 05EB8502 		add	r2, r5, r5, lsl #2
 1434 02a4 D300     		lsls	r3, r2, #3
 1435 02a6 3344     		add	r3, r3, r6
 1436 02a8 0322     		movs	r2, #3
 1437 02aa 83F85D20 		strb	r2, [r3, #93]
 991:Drivers/STM32F7xx_HAL_Driver/Src/stm32f7xx_hal_hcd.c ****          (void)USB_HC_Halt(hhcd->Instance, (uint8_t)ch_num);
 1438              		.loc 1 991 0
 1439 02ae E368     		ldr	r3, [r4, #12]
 1440 02b0 43F00203 		orr	r3, r3, #2
 1441 02b4 E360     		str	r3, [r4, #12]
 992:Drivers/STM32F7xx_HAL_Driver/Src/stm32f7xx_hal_hcd.c ****        }
 1442              		.loc 1 992 0
 1443 02b6 2946     		mov	r1, r5
 1444 02b8 3068     		ldr	r0, [r6]
 1445 02ba FFF7FEFF 		bl	USB_HC_Halt
 1446              	.LVL114:
 1447 02be C5E7     		b	.L98
 1448              		.cfi_endproc
 1449              	.LFE159:
 1451              		.section	.text.HCD_HC_OUT_IRQHandler,"ax",%progbits
 1452              		.align	1
 1453              		.syntax unified
 1454              		.thumb
 1455              		.thumb_func
 1456              		.fpu fpv5-sp-d16
 1458              	HCD_HC_OUT_IRQHandler:
 1459              	.LFB160:
1015:Drivers/STM32F7xx_HAL_Driver/Src/stm32f7xx_hal_hcd.c ****   USB_OTG_GlobalTypeDef *USBx = hhcd->Instance;
 1460              		.loc 1 1015 0
 1461              		.cfi_startproc
 1462              		@ args = 0, pretend = 0, frame = 0
 1463              		@ frame_needed = 0, uses_anonymous_args = 0
 1464              	.LVL115:
 1465 0000 F8B5     		push	{r3, r4, r5, r6, r7, lr}
ARM GAS  C:\Users\Student\AppData\Local\Temp\ccjpImAB.s 			page 52


 1466              	.LCFI19:
 1467              		.cfi_def_cfa_offset 24
 1468              		.cfi_offset 3, -24
 1469              		.cfi_offset 4, -20
 1470              		.cfi_offset 5, -16
 1471              		.cfi_offset 6, -12
 1472              		.cfi_offset 7, -8
 1473              		.cfi_offset 14, -4
1016:Drivers/STM32F7xx_HAL_Driver/Src/stm32f7xx_hal_hcd.c ****   uint32_t USBx_BASE = (uint32_t)USBx;
 1474              		.loc 1 1016 0
 1475 0002 0368     		ldr	r3, [r0]
 1476              	.LVL116:
1021:Drivers/STM32F7xx_HAL_Driver/Src/stm32f7xx_hal_hcd.c ****   {
 1477              		.loc 1 1021 0
 1478 0004 03EB4113 		add	r3, r3, r1, lsl #5
 1479              	.LVL117:
 1480 0008 03F5A064 		add	r4, r3, #1280
 1481 000c A268     		ldr	r2, [r4, #8]
 1482 000e 12F0040F 		tst	r2, #4
 1483 0012 11D1     		bne	.L129
 1484 0014 0E46     		mov	r6, r1
 1485 0016 0546     		mov	r5, r0
1026:Drivers/STM32F7xx_HAL_Driver/Src/stm32f7xx_hal_hcd.c ****   {
 1486              		.loc 1 1026 0
 1487 0018 A268     		ldr	r2, [r4, #8]
 1488 001a 12F0200F 		tst	r2, #32
 1489 001e 26D0     		beq	.L112
1028:Drivers/STM32F7xx_HAL_Driver/Src/stm32f7xx_hal_hcd.c **** 
 1490              		.loc 1 1028 0
 1491 0020 2023     		movs	r3, #32
 1492 0022 A360     		str	r3, [r4, #8]
 1493              	.LVL118:
1030:Drivers/STM32F7xx_HAL_Driver/Src/stm32f7xx_hal_hcd.c ****     {
 1494              		.loc 1 1030 0
 1495 0024 01EB8102 		add	r2, r1, r1, lsl #2
 1496 0028 D300     		lsls	r3, r2, #3
 1497 002a 1A46     		mov	r2, r3
 1498 002c 0344     		add	r3, r3, r0
 1499 002e 93F83D30 		ldrb	r3, [r3, #61]	@ zero_extendqisi2
 1500 0032 012B     		cmp	r3, #1
 1501 0034 07D0     		beq	.L130
 1502              	.LVL119:
 1503              	.L109:
 1504 0036 F8BD     		pop	{r3, r4, r5, r6, r7, pc}
 1505              	.LVL120:
 1506              	.L129:
1023:Drivers/STM32F7xx_HAL_Driver/Src/stm32f7xx_hal_hcd.c ****     __HAL_HCD_UNMASK_HALT_HC_INT(ch_num);
 1507              		.loc 1 1023 0
 1508 0038 0423     		movs	r3, #4
 1509 003a A360     		str	r3, [r4, #8]
 1510              	.LVL121:
1024:Drivers/STM32F7xx_HAL_Driver/Src/stm32f7xx_hal_hcd.c ****   }
 1511              		.loc 1 1024 0
 1512 003c E368     		ldr	r3, [r4, #12]
 1513 003e 43F00203 		orr	r3, r3, #2
 1514 0042 E360     		str	r3, [r4, #12]
 1515 0044 F8BD     		pop	{r3, r4, r5, r6, r7, pc}
ARM GAS  C:\Users\Student\AppData\Local\Temp\ccjpImAB.s 			page 53


 1516              	.L130:
1032:Drivers/STM32F7xx_HAL_Driver/Src/stm32f7xx_hal_hcd.c ****       hhcd->hc[ch_num].urb_state  = URB_NOTREADY;
 1517              		.loc 1 1032 0
 1518 0046 8B00     		lsls	r3, r1, #2
 1519 0048 0244     		add	r2, r2, r0
 1520 004a 0021     		movs	r1, #0
 1521              	.LVL122:
 1522 004c 82F83D10 		strb	r1, [r2, #61]
1033:Drivers/STM32F7xx_HAL_Driver/Src/stm32f7xx_hal_hcd.c ****       __HAL_HCD_UNMASK_HALT_HC_INT(ch_num);
 1523              		.loc 1 1033 0
 1524 0050 3344     		add	r3, r3, r6
 1525 0052 DA00     		lsls	r2, r3, #3
 1526 0054 0244     		add	r2, r2, r0
 1527 0056 0223     		movs	r3, #2
 1528 0058 82F85C30 		strb	r3, [r2, #92]
1034:Drivers/STM32F7xx_HAL_Driver/Src/stm32f7xx_hal_hcd.c ****       (void)USB_HC_Halt(hhcd->Instance, (uint8_t)ch_num);
 1529              		.loc 1 1034 0
 1530 005c E368     		ldr	r3, [r4, #12]
 1531 005e 43F00203 		orr	r3, r3, #2
 1532 0062 E360     		str	r3, [r4, #12]
1035:Drivers/STM32F7xx_HAL_Driver/Src/stm32f7xx_hal_hcd.c ****     }
 1533              		.loc 1 1035 0
 1534 0064 3146     		mov	r1, r6
 1535 0066 0068     		ldr	r0, [r0]
 1536              	.LVL123:
 1537 0068 FFF7FEFF 		bl	USB_HC_Halt
 1538              	.LVL124:
 1539 006c F8BD     		pop	{r3, r4, r5, r6, r7, pc}
 1540              	.LVL125:
 1541              	.L112:
1038:Drivers/STM32F7xx_HAL_Driver/Src/stm32f7xx_hal_hcd.c ****   {
 1542              		.loc 1 1038 0
 1543 006e A268     		ldr	r2, [r4, #8]
 1544 0070 12F0400F 		tst	r2, #64
 1545 0074 34D1     		bne	.L131
1047:Drivers/STM32F7xx_HAL_Driver/Src/stm32f7xx_hal_hcd.c ****   {
 1546              		.loc 1 1047 0
 1547 0076 A268     		ldr	r2, [r4, #8]
 1548 0078 12F4007F 		tst	r2, #512
 1549 007c 4AD1     		bne	.L132
1053:Drivers/STM32F7xx_HAL_Driver/Src/stm32f7xx_hal_hcd.c ****   {
 1550              		.loc 1 1053 0
 1551 007e A268     		ldr	r2, [r4, #8]
 1552 0080 12F0010F 		tst	r2, #1
 1553 0084 51D1     		bne	.L133
1061:Drivers/STM32F7xx_HAL_Driver/Src/stm32f7xx_hal_hcd.c ****   {
 1554              		.loc 1 1061 0
 1555 0086 A268     		ldr	r2, [r4, #8]
 1556 0088 12F0080F 		tst	r2, #8
 1557 008c 62D1     		bne	.L134
1068:Drivers/STM32F7xx_HAL_Driver/Src/stm32f7xx_hal_hcd.c ****   {
 1558              		.loc 1 1068 0
 1559 008e A268     		ldr	r2, [r4, #8]
 1560 0090 12F0100F 		tst	r2, #16
 1561 0094 6FD0     		beq	.L117
1070:Drivers/STM32F7xx_HAL_Driver/Src/stm32f7xx_hal_hcd.c ****     hhcd->hc[ch_num].state = HC_NAK;
 1562              		.loc 1 1070 0
ARM GAS  C:\Users\Student\AppData\Local\Temp\ccjpImAB.s 			page 54


 1563 0096 8A00     		lsls	r2, r1, #2
 1564 0098 0A44     		add	r2, r2, r1
 1565 009a D300     		lsls	r3, r2, #3
 1566 009c 0344     		add	r3, r3, r0
 1567 009e 0022     		movs	r2, #0
 1568 00a0 9A65     		str	r2, [r3, #88]
 1569              	.LVL126:
1071:Drivers/STM32F7xx_HAL_Driver/Src/stm32f7xx_hal_hcd.c **** 
 1570              		.loc 1 1071 0
 1571 00a2 0322     		movs	r2, #3
 1572 00a4 83F85D20 		strb	r2, [r3, #93]
1073:Drivers/STM32F7xx_HAL_Driver/Src/stm32f7xx_hal_hcd.c ****     {
 1573              		.loc 1 1073 0
 1574 00a8 93F83D30 		ldrb	r3, [r3, #61]	@ zero_extendqisi2
 1575 00ac 6BB9     		cbnz	r3, .L118
1075:Drivers/STM32F7xx_HAL_Driver/Src/stm32f7xx_hal_hcd.c ****       {
 1576              		.loc 1 1075 0
 1577 00ae 01EB8102 		add	r2, r1, r1, lsl #2
 1578 00b2 D300     		lsls	r3, r2, #3
 1579 00b4 0344     		add	r3, r3, r0
 1580 00b6 93F83C30 		ldrb	r3, [r3, #60]	@ zero_extendqisi2
 1581 00ba 33B9     		cbnz	r3, .L118
1077:Drivers/STM32F7xx_HAL_Driver/Src/stm32f7xx_hal_hcd.c ****       }
 1582              		.loc 1 1077 0
 1583 00bc 01EB8102 		add	r2, r1, r1, lsl #2
 1584 00c0 D300     		lsls	r3, r2, #3
 1585 00c2 0344     		add	r3, r3, r0
 1586 00c4 0122     		movs	r2, #1
 1587 00c6 83F83D20 		strb	r2, [r3, #61]
 1588              	.L118:
1081:Drivers/STM32F7xx_HAL_Driver/Src/stm32f7xx_hal_hcd.c ****     (void)USB_HC_Halt(hhcd->Instance, (uint8_t)ch_num);
 1589              		.loc 1 1081 0
 1590 00ca E368     		ldr	r3, [r4, #12]
 1591 00cc 43F00203 		orr	r3, r3, #2
 1592 00d0 E360     		str	r3, [r4, #12]
1082:Drivers/STM32F7xx_HAL_Driver/Src/stm32f7xx_hal_hcd.c ****     __HAL_HCD_CLEAR_HC_INT(ch_num, USB_OTG_HCINT_NAK);
 1593              		.loc 1 1082 0
 1594 00d2 3146     		mov	r1, r6
 1595              	.LVL127:
 1596 00d4 2868     		ldr	r0, [r5]
 1597              	.LVL128:
 1598 00d6 FFF7FEFF 		bl	USB_HC_Halt
 1599              	.LVL129:
1083:Drivers/STM32F7xx_HAL_Driver/Src/stm32f7xx_hal_hcd.c ****   }
 1600              		.loc 1 1083 0
 1601 00da 1023     		movs	r3, #16
 1602 00dc A360     		str	r3, [r4, #8]
 1603 00de F8BD     		pop	{r3, r4, r5, r6, r7, pc}
 1604              	.LVL130:
 1605              	.L131:
1040:Drivers/STM32F7xx_HAL_Driver/Src/stm32f7xx_hal_hcd.c ****     hhcd->hc[ch_num].do_ping = 1U;
 1606              		.loc 1 1040 0
 1607 00e0 8B00     		lsls	r3, r1, #2
 1608 00e2 5918     		adds	r1, r3, r1
 1609              	.LVL131:
 1610 00e4 CA00     		lsls	r2, r1, #3
 1611 00e6 0244     		add	r2, r2, r0
ARM GAS  C:\Users\Student\AppData\Local\Temp\ccjpImAB.s 			page 55


 1612 00e8 0421     		movs	r1, #4
 1613 00ea 82F85D10 		strb	r1, [r2, #93]
 1614              	.LVL132:
1041:Drivers/STM32F7xx_HAL_Driver/Src/stm32f7xx_hal_hcd.c ****     hhcd->hc[ch_num].ErrCnt= 0U;
 1615              		.loc 1 1041 0
 1616 00ee 0121     		movs	r1, #1
 1617 00f0 82F83D10 		strb	r1, [r2, #61]
1042:Drivers/STM32F7xx_HAL_Driver/Src/stm32f7xx_hal_hcd.c ****     __HAL_HCD_UNMASK_HALT_HC_INT(ch_num);
 1618              		.loc 1 1042 0
 1619 00f4 3344     		add	r3, r3, r6
 1620 00f6 DA00     		lsls	r2, r3, #3
 1621 00f8 0244     		add	r2, r2, r0
 1622 00fa 0023     		movs	r3, #0
 1623 00fc 9365     		str	r3, [r2, #88]
1043:Drivers/STM32F7xx_HAL_Driver/Src/stm32f7xx_hal_hcd.c ****     (void)USB_HC_Halt(hhcd->Instance, (uint8_t)ch_num);
 1624              		.loc 1 1043 0
 1625 00fe E368     		ldr	r3, [r4, #12]
 1626 0100 43F00203 		orr	r3, r3, #2
 1627 0104 E360     		str	r3, [r4, #12]
1044:Drivers/STM32F7xx_HAL_Driver/Src/stm32f7xx_hal_hcd.c ****     __HAL_HCD_CLEAR_HC_INT(ch_num, USB_OTG_HCINT_NYET);
 1628              		.loc 1 1044 0
 1629 0106 3146     		mov	r1, r6
 1630 0108 0068     		ldr	r0, [r0]
 1631              	.LVL133:
 1632 010a FFF7FEFF 		bl	USB_HC_Halt
 1633              	.LVL134:
1045:Drivers/STM32F7xx_HAL_Driver/Src/stm32f7xx_hal_hcd.c ****   }
 1634              		.loc 1 1045 0
 1635 010e 4023     		movs	r3, #64
 1636 0110 A360     		str	r3, [r4, #8]
 1637 0112 F8BD     		pop	{r3, r4, r5, r6, r7, pc}
 1638              	.LVL135:
 1639              	.L132:
1049:Drivers/STM32F7xx_HAL_Driver/Src/stm32f7xx_hal_hcd.c ****     (void)USB_HC_Halt(hhcd->Instance, (uint8_t)ch_num);
 1640              		.loc 1 1049 0
 1641 0114 E368     		ldr	r3, [r4, #12]
 1642 0116 43F00203 		orr	r3, r3, #2
 1643 011a E360     		str	r3, [r4, #12]
 1644              	.LVL136:
1050:Drivers/STM32F7xx_HAL_Driver/Src/stm32f7xx_hal_hcd.c ****     __HAL_HCD_CLEAR_HC_INT(ch_num, USB_OTG_HCINT_FRMOR);
 1645              		.loc 1 1050 0
 1646 011c 0068     		ldr	r0, [r0]
 1647              	.LVL137:
 1648 011e FFF7FEFF 		bl	USB_HC_Halt
 1649              	.LVL138:
1051:Drivers/STM32F7xx_HAL_Driver/Src/stm32f7xx_hal_hcd.c ****   }
 1650              		.loc 1 1051 0
 1651 0122 4FF40073 		mov	r3, #512
 1652 0126 A360     		str	r3, [r4, #8]
 1653 0128 F8BD     		pop	{r3, r4, r5, r6, r7, pc}
 1654              	.LVL139:
 1655              	.L133:
1055:Drivers/STM32F7xx_HAL_Driver/Src/stm32f7xx_hal_hcd.c ****     __HAL_HCD_UNMASK_HALT_HC_INT(ch_num);
 1656              		.loc 1 1055 0
 1657 012a 8F00     		lsls	r7, r1, #2
 1658 012c 7A18     		adds	r2, r7, r1
 1659 012e D300     		lsls	r3, r2, #3
ARM GAS  C:\Users\Student\AppData\Local\Temp\ccjpImAB.s 			page 56


 1660 0130 0344     		add	r3, r3, r0
 1661 0132 0022     		movs	r2, #0
 1662 0134 9A65     		str	r2, [r3, #88]
 1663              	.LVL140:
1056:Drivers/STM32F7xx_HAL_Driver/Src/stm32f7xx_hal_hcd.c ****     (void)USB_HC_Halt(hhcd->Instance, (uint8_t)ch_num);
 1664              		.loc 1 1056 0
 1665 0136 E368     		ldr	r3, [r4, #12]
 1666 0138 43F00203 		orr	r3, r3, #2
 1667 013c E360     		str	r3, [r4, #12]
1057:Drivers/STM32F7xx_HAL_Driver/Src/stm32f7xx_hal_hcd.c ****     __HAL_HCD_CLEAR_HC_INT(ch_num, USB_OTG_HCINT_XFRC);
 1668              		.loc 1 1057 0
 1669 013e 0068     		ldr	r0, [r0]
 1670              	.LVL141:
 1671 0140 FFF7FEFF 		bl	USB_HC_Halt
 1672              	.LVL142:
1058:Drivers/STM32F7xx_HAL_Driver/Src/stm32f7xx_hal_hcd.c ****     hhcd->hc[ch_num].state = HC_XFRC;
 1673              		.loc 1 1058 0
 1674 0144 0123     		movs	r3, #1
 1675 0146 A360     		str	r3, [r4, #8]
1059:Drivers/STM32F7xx_HAL_Driver/Src/stm32f7xx_hal_hcd.c ****   }
 1676              		.loc 1 1059 0
 1677 0148 B919     		adds	r1, r7, r6
 1678 014a C800     		lsls	r0, r1, #3
 1679 014c 2844     		add	r0, r0, r5
 1680 014e 80F85D30 		strb	r3, [r0, #93]
 1681 0152 F8BD     		pop	{r3, r4, r5, r6, r7, pc}
 1682              	.LVL143:
 1683              	.L134:
1063:Drivers/STM32F7xx_HAL_Driver/Src/stm32f7xx_hal_hcd.c ****     __HAL_HCD_UNMASK_HALT_HC_INT(ch_num);
 1684              		.loc 1 1063 0
 1685 0154 0823     		movs	r3, #8
 1686 0156 A360     		str	r3, [r4, #8]
 1687              	.LVL144:
1064:Drivers/STM32F7xx_HAL_Driver/Src/stm32f7xx_hal_hcd.c ****     (void)USB_HC_Halt(hhcd->Instance, (uint8_t)ch_num);
 1688              		.loc 1 1064 0
 1689 0158 E368     		ldr	r3, [r4, #12]
 1690 015a 43F00203 		orr	r3, r3, #2
 1691 015e E360     		str	r3, [r4, #12]
1065:Drivers/STM32F7xx_HAL_Driver/Src/stm32f7xx_hal_hcd.c ****     hhcd->hc[ch_num].state = HC_STALL;
 1692              		.loc 1 1065 0
 1693 0160 0068     		ldr	r0, [r0]
 1694              	.LVL145:
 1695 0162 FFF7FEFF 		bl	USB_HC_Halt
 1696              	.LVL146:
1066:Drivers/STM32F7xx_HAL_Driver/Src/stm32f7xx_hal_hcd.c ****   }
 1697              		.loc 1 1066 0
 1698 0166 06EB8601 		add	r1, r6, r6, lsl #2
 1699 016a C800     		lsls	r0, r1, #3
 1700 016c 2844     		add	r0, r0, r5
 1701 016e 0523     		movs	r3, #5
 1702 0170 80F85D30 		strb	r3, [r0, #93]
 1703 0174 F8BD     		pop	{r3, r4, r5, r6, r7, pc}
 1704              	.LVL147:
 1705              	.L117:
1085:Drivers/STM32F7xx_HAL_Driver/Src/stm32f7xx_hal_hcd.c ****   {
 1706              		.loc 1 1085 0
 1707 0176 A268     		ldr	r2, [r4, #8]
ARM GAS  C:\Users\Student\AppData\Local\Temp\ccjpImAB.s 			page 57


 1708 0178 12F0800F 		tst	r2, #128
 1709 017c 3AD1     		bne	.L135
1092:Drivers/STM32F7xx_HAL_Driver/Src/stm32f7xx_hal_hcd.c ****   {
 1710              		.loc 1 1092 0
 1711 017e A268     		ldr	r2, [r4, #8]
 1712 0180 12F4806F 		tst	r2, #1024
 1713 0184 47D1     		bne	.L136
1100:Drivers/STM32F7xx_HAL_Driver/Src/stm32f7xx_hal_hcd.c ****   {
 1714              		.loc 1 1100 0
 1715 0186 A268     		ldr	r2, [r4, #8]
 1716 0188 12F0020F 		tst	r2, #2
 1717 018c 3FF453AF 		beq	.L109
1102:Drivers/STM32F7xx_HAL_Driver/Src/stm32f7xx_hal_hcd.c **** 
 1718              		.loc 1 1102 0
 1719 0190 E268     		ldr	r2, [r4, #12]
 1720 0192 22F00202 		bic	r2, r2, #2
 1721 0196 E260     		str	r2, [r4, #12]
 1722              	.LVL148:
1104:Drivers/STM32F7xx_HAL_Driver/Src/stm32f7xx_hal_hcd.c ****     {
 1723              		.loc 1 1104 0
 1724 0198 01EB8101 		add	r1, r1, r1, lsl #2
 1725              	.LVL149:
 1726 019c CA00     		lsls	r2, r1, #3
 1727 019e 1146     		mov	r1, r2
 1728 01a0 0244     		add	r2, r2, r0
 1729 01a2 92F85D20 		ldrb	r2, [r2, #93]	@ zero_extendqisi2
 1730 01a6 012A     		cmp	r2, #1
 1731 01a8 49D0     		beq	.L137
1112:Drivers/STM32F7xx_HAL_Driver/Src/stm32f7xx_hal_hcd.c ****     {
 1732              		.loc 1 1112 0
 1733 01aa 032A     		cmp	r2, #3
 1734 01ac 66D0     		beq	.L138
1116:Drivers/STM32F7xx_HAL_Driver/Src/stm32f7xx_hal_hcd.c ****     {
 1735              		.loc 1 1116 0
 1736 01ae 042A     		cmp	r2, #4
 1737 01b0 6CD0     		beq	.L139
1120:Drivers/STM32F7xx_HAL_Driver/Src/stm32f7xx_hal_hcd.c ****     {
 1738              		.loc 1 1120 0
 1739 01b2 052A     		cmp	r2, #5
 1740 01b4 72D0     		beq	.L140
1124:Drivers/STM32F7xx_HAL_Driver/Src/stm32f7xx_hal_hcd.c ****             (hhcd->hc[ch_num].state == HC_DATATGLERR))
 1741              		.loc 1 1124 0
 1742 01b6 082A     		cmp	r2, #8
 1743 01b8 18BF     		it	ne
 1744 01ba 062A     		cmpne	r2, #6
 1745 01bc 48D1     		bne	.L122
1127:Drivers/STM32F7xx_HAL_Driver/Src/stm32f7xx_hal_hcd.c ****       if (hhcd->hc[ch_num].ErrCnt > 3U)
 1746              		.loc 1 1127 0
 1747 01be B100     		lsls	r1, r6, #2
 1748 01c0 3144     		add	r1, r1, r6
 1749 01c2 CA00     		lsls	r2, r1, #3
 1750 01c4 0244     		add	r2, r2, r0
 1751 01c6 916D     		ldr	r1, [r2, #88]
 1752 01c8 0131     		adds	r1, r1, #1
 1753 01ca 9165     		str	r1, [r2, #88]
1128:Drivers/STM32F7xx_HAL_Driver/Src/stm32f7xx_hal_hcd.c ****       {
 1754              		.loc 1 1128 0
ARM GAS  C:\Users\Student\AppData\Local\Temp\ccjpImAB.s 			page 58


 1755 01cc 0329     		cmp	r1, #3
 1756 01ce 6DD9     		bls	.L126
1130:Drivers/STM32F7xx_HAL_Driver/Src/stm32f7xx_hal_hcd.c ****         hhcd->hc[ch_num].urb_state = URB_ERROR;
 1757              		.loc 1 1130 0
 1758 01d0 B100     		lsls	r1, r6, #2
 1759 01d2 3144     		add	r1, r1, r6
 1760 01d4 CA00     		lsls	r2, r1, #3
 1761 01d6 0244     		add	r2, r2, r0
 1762 01d8 0021     		movs	r1, #0
 1763 01da 9165     		str	r1, [r2, #88]
1131:Drivers/STM32F7xx_HAL_Driver/Src/stm32f7xx_hal_hcd.c ****       }
 1764              		.loc 1 1131 0
 1765 01dc 0421     		movs	r1, #4
 1766 01de 82F85C10 		strb	r1, [r2, #92]
 1767              	.L127:
1139:Drivers/STM32F7xx_HAL_Driver/Src/stm32f7xx_hal_hcd.c ****       tmpreg &= ~USB_OTG_HCCHAR_CHDIS;
 1768              		.loc 1 1139 0
 1769 01e2 D3F80025 		ldr	r2, [r3, #1280]
 1770              	.LVL150:
1140:Drivers/STM32F7xx_HAL_Driver/Src/stm32f7xx_hal_hcd.c ****       tmpreg |= USB_OTG_HCCHAR_CHENA;
 1771              		.loc 1 1140 0
 1772 01e6 22F08042 		bic	r2, r2, #1073741824
 1773              	.LVL151:
1141:Drivers/STM32F7xx_HAL_Driver/Src/stm32f7xx_hal_hcd.c ****       USBx_HC(ch_num)->HCCHAR = tmpreg;
 1774              		.loc 1 1141 0
 1775 01ea 42F00042 		orr	r2, r2, #-2147483648
 1776              	.LVL152:
1142:Drivers/STM32F7xx_HAL_Driver/Src/stm32f7xx_hal_hcd.c ****     }
 1777              		.loc 1 1142 0
 1778 01ee C3F80025 		str	r2, [r3, #1280]
 1779 01f2 2DE0     		b	.L122
 1780              	.LVL153:
 1781              	.L135:
1087:Drivers/STM32F7xx_HAL_Driver/Src/stm32f7xx_hal_hcd.c ****     (void)USB_HC_Halt(hhcd->Instance, (uint8_t)ch_num);
 1782              		.loc 1 1087 0
 1783 01f4 E368     		ldr	r3, [r4, #12]
 1784 01f6 43F00203 		orr	r3, r3, #2
 1785 01fa E360     		str	r3, [r4, #12]
 1786              	.LVL154:
1088:Drivers/STM32F7xx_HAL_Driver/Src/stm32f7xx_hal_hcd.c ****     hhcd->hc[ch_num].state = HC_XACTERR;
 1787              		.loc 1 1088 0
 1788 01fc 0068     		ldr	r0, [r0]
 1789              	.LVL155:
 1790 01fe FFF7FEFF 		bl	USB_HC_Halt
 1791              	.LVL156:
1089:Drivers/STM32F7xx_HAL_Driver/Src/stm32f7xx_hal_hcd.c ****      __HAL_HCD_CLEAR_HC_INT(ch_num, USB_OTG_HCINT_TXERR);
 1792              		.loc 1 1089 0
 1793 0202 06EB8601 		add	r1, r6, r6, lsl #2
 1794 0206 CB00     		lsls	r3, r1, #3
 1795 0208 2B44     		add	r3, r3, r5
 1796 020a 0622     		movs	r2, #6
 1797 020c 83F85D20 		strb	r2, [r3, #93]
1090:Drivers/STM32F7xx_HAL_Driver/Src/stm32f7xx_hal_hcd.c ****   }
 1798              		.loc 1 1090 0
 1799 0210 8023     		movs	r3, #128
 1800 0212 A360     		str	r3, [r4, #8]
 1801 0214 F8BD     		pop	{r3, r4, r5, r6, r7, pc}
ARM GAS  C:\Users\Student\AppData\Local\Temp\ccjpImAB.s 			page 59


 1802              	.LVL157:
 1803              	.L136:
1094:Drivers/STM32F7xx_HAL_Driver/Src/stm32f7xx_hal_hcd.c ****     (void)USB_HC_Halt(hhcd->Instance, (uint8_t)ch_num);
 1804              		.loc 1 1094 0
 1805 0216 E368     		ldr	r3, [r4, #12]
 1806 0218 43F00203 		orr	r3, r3, #2
 1807 021c E360     		str	r3, [r4, #12]
 1808              	.LVL158:
1095:Drivers/STM32F7xx_HAL_Driver/Src/stm32f7xx_hal_hcd.c ****     __HAL_HCD_CLEAR_HC_INT(ch_num, USB_OTG_HCINT_NAK);
 1809              		.loc 1 1095 0
 1810 021e 0068     		ldr	r0, [r0]
 1811              	.LVL159:
 1812 0220 FFF7FEFF 		bl	USB_HC_Halt
 1813              	.LVL160:
1096:Drivers/STM32F7xx_HAL_Driver/Src/stm32f7xx_hal_hcd.c ****     __HAL_HCD_CLEAR_HC_INT(ch_num, USB_OTG_HCINT_DTERR);
 1814              		.loc 1 1096 0
 1815 0224 1023     		movs	r3, #16
 1816 0226 A360     		str	r3, [r4, #8]
1097:Drivers/STM32F7xx_HAL_Driver/Src/stm32f7xx_hal_hcd.c ****     hhcd->hc[ch_num].state = HC_DATATGLERR;
 1817              		.loc 1 1097 0
 1818 0228 4FF48063 		mov	r3, #1024
 1819 022c A360     		str	r3, [r4, #8]
1098:Drivers/STM32F7xx_HAL_Driver/Src/stm32f7xx_hal_hcd.c ****   }
 1820              		.loc 1 1098 0
 1821 022e 06EB8601 		add	r1, r6, r6, lsl #2
 1822 0232 CB00     		lsls	r3, r1, #3
 1823 0234 2B44     		add	r3, r3, r5
 1824 0236 0822     		movs	r2, #8
 1825 0238 83F85D20 		strb	r2, [r3, #93]
 1826 023c F8BD     		pop	{r3, r4, r5, r6, r7, pc}
 1827              	.LVL161:
 1828              	.L137:
1106:Drivers/STM32F7xx_HAL_Driver/Src/stm32f7xx_hal_hcd.c ****       if (hhcd->hc[ch_num].ep_type == EP_TYPE_BULK)
 1829              		.loc 1 1106 0
 1830 023e 0B46     		mov	r3, r1
 1831 0240 0344     		add	r3, r3, r0
 1832 0242 0122     		movs	r2, #1
 1833 0244 83F85C20 		strb	r2, [r3, #92]
1107:Drivers/STM32F7xx_HAL_Driver/Src/stm32f7xx_hal_hcd.c ****       {
 1834              		.loc 1 1107 0
 1835 0248 93F83F30 		ldrb	r3, [r3, #63]	@ zero_extendqisi2
 1836 024c 022B     		cmp	r3, #2
 1837 024e 0CD0     		beq	.L141
 1838              	.L122:
1149:Drivers/STM32F7xx_HAL_Driver/Src/stm32f7xx_hal_hcd.c ****     HAL_HCD_HC_NotifyURBChange_Callback(hhcd, (uint8_t)ch_num, hhcd->hc[ch_num].urb_state);
 1839              		.loc 1 1149 0
 1840 0250 0223     		movs	r3, #2
 1841 0252 A360     		str	r3, [r4, #8]
1150:Drivers/STM32F7xx_HAL_Driver/Src/stm32f7xx_hal_hcd.c ****   }
 1842              		.loc 1 1150 0
 1843 0254 06EB8602 		add	r2, r6, r6, lsl #2
 1844 0258 D300     		lsls	r3, r2, #3
 1845 025a 2B44     		add	r3, r3, r5
 1846 025c 93F85C20 		ldrb	r2, [r3, #92]	@ zero_extendqisi2
 1847 0260 3146     		mov	r1, r6
 1848 0262 2846     		mov	r0, r5
 1849              	.LVL162:
ARM GAS  C:\Users\Student\AppData\Local\Temp\ccjpImAB.s 			page 60


 1850 0264 FFF7FEFF 		bl	HAL_HCD_HC_NotifyURBChange_Callback
 1851              	.LVL163:
1156:Drivers/STM32F7xx_HAL_Driver/Src/stm32f7xx_hal_hcd.c **** 
 1852              		.loc 1 1156 0
 1853 0268 E5E6     		b	.L109
 1854              	.LVL164:
 1855              	.L141:
1109:Drivers/STM32F7xx_HAL_Driver/Src/stm32f7xx_hal_hcd.c ****       }
 1856              		.loc 1 1109 0
 1857 026a 0B46     		mov	r3, r1
 1858 026c 0344     		add	r3, r3, r0
 1859 026e 93F85120 		ldrb	r2, [r3, #81]	@ zero_extendqisi2
 1860 0272 82F00102 		eor	r2, r2, #1
 1861 0276 83F85120 		strb	r2, [r3, #81]
 1862 027a E9E7     		b	.L122
 1863              	.L138:
1114:Drivers/STM32F7xx_HAL_Driver/Src/stm32f7xx_hal_hcd.c ****     }
 1864              		.loc 1 1114 0
 1865 027c 06EB8602 		add	r2, r6, r6, lsl #2
 1866 0280 D300     		lsls	r3, r2, #3
 1867 0282 0344     		add	r3, r3, r0
 1868 0284 0222     		movs	r2, #2
 1869 0286 83F85C20 		strb	r2, [r3, #92]
 1870 028a E1E7     		b	.L122
 1871              	.L139:
1118:Drivers/STM32F7xx_HAL_Driver/Src/stm32f7xx_hal_hcd.c ****     }
 1872              		.loc 1 1118 0
 1873 028c 06EB8602 		add	r2, r6, r6, lsl #2
 1874 0290 D300     		lsls	r3, r2, #3
 1875 0292 0344     		add	r3, r3, r0
 1876 0294 0222     		movs	r2, #2
 1877 0296 83F85C20 		strb	r2, [r3, #92]
 1878 029a D9E7     		b	.L122
 1879              	.L140:
1122:Drivers/STM32F7xx_HAL_Driver/Src/stm32f7xx_hal_hcd.c ****     }
 1880              		.loc 1 1122 0
 1881 029c 06EB8602 		add	r2, r6, r6, lsl #2
 1882 02a0 D300     		lsls	r3, r2, #3
 1883 02a2 0344     		add	r3, r3, r0
 1884 02a4 0522     		movs	r2, #5
 1885 02a6 83F85C20 		strb	r2, [r3, #92]
 1886 02aa D1E7     		b	.L122
 1887              	.L126:
1135:Drivers/STM32F7xx_HAL_Driver/Src/stm32f7xx_hal_hcd.c ****       }
 1888              		.loc 1 1135 0
 1889 02ac 06EB8601 		add	r1, r6, r6, lsl #2
 1890 02b0 CA00     		lsls	r2, r1, #3
 1891 02b2 0244     		add	r2, r2, r0
 1892 02b4 0221     		movs	r1, #2
 1893 02b6 82F85C10 		strb	r1, [r2, #92]
 1894 02ba 92E7     		b	.L127
 1895              		.cfi_endproc
 1896              	.LFE160:
 1898              		.section	.text.HAL_HCD_IRQHandler,"ax",%progbits
 1899              		.align	1
 1900              		.global	HAL_HCD_IRQHandler
 1901              		.syntax unified
ARM GAS  C:\Users\Student\AppData\Local\Temp\ccjpImAB.s 			page 61


 1902              		.thumb
 1903              		.thumb_func
 1904              		.fpu fpv5-sp-d16
 1906              	HAL_HCD_IRQHandler:
 1907              	.LFB143:
 466:Drivers/STM32F7xx_HAL_Driver/Src/stm32f7xx_hal_hcd.c ****   USB_OTG_GlobalTypeDef *USBx = hhcd->Instance;
 1908              		.loc 1 466 0
 1909              		.cfi_startproc
 1910              		@ args = 0, pretend = 0, frame = 0
 1911              		@ frame_needed = 0, uses_anonymous_args = 0
 1912              	.LVL165:
 1913 0000 F8B5     		push	{r3, r4, r5, r6, r7, lr}
 1914              	.LCFI20:
 1915              		.cfi_def_cfa_offset 24
 1916              		.cfi_offset 3, -24
 1917              		.cfi_offset 4, -20
 1918              		.cfi_offset 5, -16
 1919              		.cfi_offset 6, -12
 1920              		.cfi_offset 7, -8
 1921              		.cfi_offset 14, -4
 1922 0002 0446     		mov	r4, r0
 467:Drivers/STM32F7xx_HAL_Driver/Src/stm32f7xx_hal_hcd.c ****   uint32_t USBx_BASE = (uint32_t)USBx;
 1923              		.loc 1 467 0
 1924 0004 0568     		ldr	r5, [r0]
 1925              	.LVL166:
 472:Drivers/STM32F7xx_HAL_Driver/Src/stm32f7xx_hal_hcd.c ****   {
 1926              		.loc 1 472 0
 1927 0006 2846     		mov	r0, r5
 1928              	.LVL167:
 1929 0008 FFF7FEFF 		bl	USB_GetMode
 1930              	.LVL168:
 1931 000c 0128     		cmp	r0, #1
 1932 000e 00D0     		beq	.L159
 1933              	.L142:
 1934 0010 F8BD     		pop	{r3, r4, r5, r6, r7, pc}
 1935              	.LVL169:
 1936              	.L159:
 475:Drivers/STM32F7xx_HAL_Driver/Src/stm32f7xx_hal_hcd.c ****     {
 1937              		.loc 1 475 0
 1938 0012 2068     		ldr	r0, [r4]
 1939 0014 FFF7FEFF 		bl	USB_ReadInterrupts
 1940              	.LVL170:
 1941 0018 0028     		cmp	r0, #0
 1942 001a F9D0     		beq	.L142
 480:Drivers/STM32F7xx_HAL_Driver/Src/stm32f7xx_hal_hcd.c ****     {
 1943              		.loc 1 480 0
 1944 001c 2068     		ldr	r0, [r4]
 1945 001e FFF7FEFF 		bl	USB_ReadInterrupts
 1946              	.LVL171:
 1947 0022 10F4001F 		tst	r0, #2097152
 1948 0026 03D0     		beq	.L144
 483:Drivers/STM32F7xx_HAL_Driver/Src/stm32f7xx_hal_hcd.c ****     }
 1949              		.loc 1 483 0
 1950 0028 2368     		ldr	r3, [r4]
 1951 002a 4FF40012 		mov	r2, #2097152
 1952 002e 5A61     		str	r2, [r3, #20]
 1953              	.L144:
ARM GAS  C:\Users\Student\AppData\Local\Temp\ccjpImAB.s 			page 62


 486:Drivers/STM32F7xx_HAL_Driver/Src/stm32f7xx_hal_hcd.c ****     {
 1954              		.loc 1 486 0
 1955 0030 2068     		ldr	r0, [r4]
 1956 0032 FFF7FEFF 		bl	USB_ReadInterrupts
 1957              	.LVL172:
 1958 0036 10F4801F 		tst	r0, #1048576
 1959 003a 03D0     		beq	.L145
 489:Drivers/STM32F7xx_HAL_Driver/Src/stm32f7xx_hal_hcd.c ****     }
 1960              		.loc 1 489 0
 1961 003c 2368     		ldr	r3, [r4]
 1962 003e 4FF48012 		mov	r2, #1048576
 1963 0042 5A61     		str	r2, [r3, #20]
 1964              	.L145:
 492:Drivers/STM32F7xx_HAL_Driver/Src/stm32f7xx_hal_hcd.c ****     {
 1965              		.loc 1 492 0
 1966 0044 2068     		ldr	r0, [r4]
 1967 0046 FFF7FEFF 		bl	USB_ReadInterrupts
 1968              	.LVL173:
 1969 004a 10F0806F 		tst	r0, #67108864
 1970 004e 03D0     		beq	.L146
 495:Drivers/STM32F7xx_HAL_Driver/Src/stm32f7xx_hal_hcd.c ****     }
 1971              		.loc 1 495 0
 1972 0050 2368     		ldr	r3, [r4]
 1973 0052 4FF08062 		mov	r2, #67108864
 1974 0056 5A61     		str	r2, [r3, #20]
 1975              	.L146:
 498:Drivers/STM32F7xx_HAL_Driver/Src/stm32f7xx_hal_hcd.c ****     {
 1976              		.loc 1 498 0
 1977 0058 2068     		ldr	r0, [r4]
 1978 005a FFF7FEFF 		bl	USB_ReadInterrupts
 1979              	.LVL174:
 1980 005e 10F0020F 		tst	r0, #2
 1981 0062 02D0     		beq	.L147
 501:Drivers/STM32F7xx_HAL_Driver/Src/stm32f7xx_hal_hcd.c ****     }
 1982              		.loc 1 501 0
 1983 0064 2368     		ldr	r3, [r4]
 1984 0066 0222     		movs	r2, #2
 1985 0068 5A61     		str	r2, [r3, #20]
 1986              	.L147:
 505:Drivers/STM32F7xx_HAL_Driver/Src/stm32f7xx_hal_hcd.c ****     {
 1987              		.loc 1 505 0
 1988 006a 2068     		ldr	r0, [r4]
 1989 006c FFF7FEFF 		bl	USB_ReadInterrupts
 1990              	.LVL175:
 1991 0070 10F0005F 		tst	r0, #536870912
 1992 0074 28D1     		bne	.L160
 1993              	.L148:
 519:Drivers/STM32F7xx_HAL_Driver/Src/stm32f7xx_hal_hcd.c ****     {
 1994              		.loc 1 519 0
 1995 0076 2068     		ldr	r0, [r4]
 1996 0078 FFF7FEFF 		bl	USB_ReadInterrupts
 1997              	.LVL176:
 1998 007c 10F0807F 		tst	r0, #16777216
 1999 0080 34D1     		bne	.L161
 2000              	.L149:
 525:Drivers/STM32F7xx_HAL_Driver/Src/stm32f7xx_hal_hcd.c ****     {
 2001              		.loc 1 525 0
ARM GAS  C:\Users\Student\AppData\Local\Temp\ccjpImAB.s 			page 63


 2002 0082 2068     		ldr	r0, [r4]
 2003 0084 FFF7FEFF 		bl	USB_ReadInterrupts
 2004              	.LVL177:
 2005 0088 10F0080F 		tst	r0, #8
 2006 008c 32D1     		bne	.L162
 2007              	.L150:
 532:Drivers/STM32F7xx_HAL_Driver/Src/stm32f7xx_hal_hcd.c ****     {
 2008              		.loc 1 532 0
 2009 008e 2068     		ldr	r0, [r4]
 2010 0090 FFF7FEFF 		bl	USB_ReadInterrupts
 2011              	.LVL178:
 2012 0094 10F0007F 		tst	r0, #33554432
 2013 0098 33D1     		bne	.L163
 2014              	.L151:
 553:Drivers/STM32F7xx_HAL_Driver/Src/stm32f7xx_hal_hcd.c ****     {
 2015              		.loc 1 553 0
 2016 009a 2068     		ldr	r0, [r4]
 2017 009c FFF7FEFF 		bl	USB_ReadInterrupts
 2018              	.LVL179:
 2019 00a0 10F0100F 		tst	r0, #16
 2020 00a4 53D0     		beq	.L157
 2021 00a6 0123     		movs	r3, #1
 2022              	.L156:
 553:Drivers/STM32F7xx_HAL_Driver/Src/stm32f7xx_hal_hcd.c ****     {
 2023              		.loc 1 553 0 is_stmt 0 discriminator 4
 2024 00a8 002B     		cmp	r3, #0
 2025 00aa B1D0     		beq	.L142
 555:Drivers/STM32F7xx_HAL_Driver/Src/stm32f7xx_hal_hcd.c **** 
 2026              		.loc 1 555 0 is_stmt 1
 2027 00ac 2268     		ldr	r2, [r4]
 2028 00ae 9369     		ldr	r3, [r2, #24]
 2029 00b0 23F01003 		bic	r3, r3, #16
 2030 00b4 9361     		str	r3, [r2, #24]
 557:Drivers/STM32F7xx_HAL_Driver/Src/stm32f7xx_hal_hcd.c **** 
 2031              		.loc 1 557 0
 2032 00b6 2046     		mov	r0, r4
 2033 00b8 FFF7FEFF 		bl	HCD_RXQLVL_IRQHandler
 2034              	.LVL180:
 559:Drivers/STM32F7xx_HAL_Driver/Src/stm32f7xx_hal_hcd.c ****     }
 2035              		.loc 1 559 0
 2036 00bc 2268     		ldr	r2, [r4]
 2037 00be 9369     		ldr	r3, [r2, #24]
 2038 00c0 43F01003 		orr	r3, r3, #16
 2039 00c4 9361     		str	r3, [r2, #24]
 2040 00c6 A3E7     		b	.L142
 2041              	.L160:
 509:Drivers/STM32F7xx_HAL_Driver/Src/stm32f7xx_hal_hcd.c ****         USB_OTG_HPRT_PENCHNG | USB_OTG_HPRT_POCCHNG );
 2042              		.loc 1 509 0
 2043 00c8 D5F84034 		ldr	r3, [r5, #1088]
 2044 00cc 23F02E03 		bic	r3, r3, #46
 2045 00d0 C5F84034 		str	r3, [r5, #1088]
 513:Drivers/STM32F7xx_HAL_Driver/Src/stm32f7xx_hal_hcd.c ****       (void)USB_InitFSLSPClkSel(hhcd->Instance, HCFG_48_MHZ);
 2046              		.loc 1 513 0
 2047 00d4 2046     		mov	r0, r4
 2048 00d6 FFF7FEFF 		bl	HAL_HCD_Disconnect_Callback
 2049              	.LVL181:
 514:Drivers/STM32F7xx_HAL_Driver/Src/stm32f7xx_hal_hcd.c ****       __HAL_HCD_CLEAR_FLAG(hhcd, USB_OTG_GINTSTS_DISCINT);
ARM GAS  C:\Users\Student\AppData\Local\Temp\ccjpImAB.s 			page 64


 2050              		.loc 1 514 0
 2051 00da 0121     		movs	r1, #1
 2052 00dc 2068     		ldr	r0, [r4]
 2053 00de FFF7FEFF 		bl	USB_InitFSLSPClkSel
 2054              	.LVL182:
 515:Drivers/STM32F7xx_HAL_Driver/Src/stm32f7xx_hal_hcd.c ****     }
 2055              		.loc 1 515 0
 2056 00e2 2368     		ldr	r3, [r4]
 2057 00e4 4FF00052 		mov	r2, #536870912
 2058 00e8 5A61     		str	r2, [r3, #20]
 2059 00ea C4E7     		b	.L148
 2060              	.L161:
 521:Drivers/STM32F7xx_HAL_Driver/Src/stm32f7xx_hal_hcd.c ****     }
 2061              		.loc 1 521 0
 2062 00ec 2046     		mov	r0, r4
 2063 00ee FFF7FEFF 		bl	HCD_Port_IRQHandler
 2064              	.LVL183:
 2065 00f2 C6E7     		b	.L149
 2066              	.L162:
 527:Drivers/STM32F7xx_HAL_Driver/Src/stm32f7xx_hal_hcd.c ****       __HAL_HCD_CLEAR_FLAG(hhcd, USB_OTG_GINTSTS_SOF);
 2067              		.loc 1 527 0
 2068 00f4 2046     		mov	r0, r4
 2069 00f6 FFF7FEFF 		bl	HAL_HCD_SOF_Callback
 2070              	.LVL184:
 528:Drivers/STM32F7xx_HAL_Driver/Src/stm32f7xx_hal_hcd.c ****     }
 2071              		.loc 1 528 0
 2072 00fa 2368     		ldr	r3, [r4]
 2073 00fc 0822     		movs	r2, #8
 2074 00fe 5A61     		str	r2, [r3, #20]
 2075 0100 C5E7     		b	.L150
 2076              	.L163:
 534:Drivers/STM32F7xx_HAL_Driver/Src/stm32f7xx_hal_hcd.c ****       for (i = 0U; i < hhcd->Init.Host_channels; i++)
 2077              		.loc 1 534 0
 2078 0102 2068     		ldr	r0, [r4]
 2079 0104 FFF7FEFF 		bl	USB_HC_ReadInterrupt
 2080              	.LVL185:
 2081 0108 0746     		mov	r7, r0
 2082              	.LVL186:
 535:Drivers/STM32F7xx_HAL_Driver/Src/stm32f7xx_hal_hcd.c ****       {
 2083              		.loc 1 535 0
 2084 010a 0026     		movs	r6, #0
 2085 010c 04E0     		b	.L152
 2086              	.LVL187:
 2087              	.L154:
 545:Drivers/STM32F7xx_HAL_Driver/Src/stm32f7xx_hal_hcd.c ****           }
 2088              		.loc 1 545 0
 2089 010e F1B2     		uxtb	r1, r6
 2090 0110 2046     		mov	r0, r4
 2091 0112 FFF7FEFF 		bl	HCD_HC_OUT_IRQHandler
 2092              	.LVL188:
 2093              	.L153:
 535:Drivers/STM32F7xx_HAL_Driver/Src/stm32f7xx_hal_hcd.c ****       {
 2094              		.loc 1 535 0 discriminator 2
 2095 0116 0136     		adds	r6, r6, #1
 2096              	.LVL189:
 2097              	.L152:
 535:Drivers/STM32F7xx_HAL_Driver/Src/stm32f7xx_hal_hcd.c ****       {
ARM GAS  C:\Users\Student\AppData\Local\Temp\ccjpImAB.s 			page 65


 2098              		.loc 1 535 0 is_stmt 0 discriminator 1
 2099 0118 A368     		ldr	r3, [r4, #8]
 2100 011a 9E42     		cmp	r6, r3
 2101 011c 12D2     		bcs	.L164
 537:Drivers/STM32F7xx_HAL_Driver/Src/stm32f7xx_hal_hcd.c ****         {
 2102              		.loc 1 537 0 is_stmt 1
 2103 011e 06F00F03 		and	r3, r6, #15
 2104 0122 27FA03F3 		lsr	r3, r7, r3
 2105 0126 13F0010F 		tst	r3, #1
 2106 012a F4D0     		beq	.L153
 539:Drivers/STM32F7xx_HAL_Driver/Src/stm32f7xx_hal_hcd.c ****           {
 2107              		.loc 1 539 0
 2108 012c 05EB4613 		add	r3, r5, r6, lsl #5
 2109 0130 D3F80035 		ldr	r3, [r3, #1280]
 2110 0134 13F4004F 		tst	r3, #32768
 2111 0138 E9D0     		beq	.L154
 541:Drivers/STM32F7xx_HAL_Driver/Src/stm32f7xx_hal_hcd.c ****           }
 2112              		.loc 1 541 0
 2113 013a F1B2     		uxtb	r1, r6
 2114 013c 2046     		mov	r0, r4
 2115 013e FFF7FEFF 		bl	HCD_HC_IN_IRQHandler
 2116              	.LVL190:
 2117 0142 E8E7     		b	.L153
 2118              	.L164:
 549:Drivers/STM32F7xx_HAL_Driver/Src/stm32f7xx_hal_hcd.c ****     }
 2119              		.loc 1 549 0
 2120 0144 2368     		ldr	r3, [r4]
 2121 0146 4FF00072 		mov	r2, #33554432
 2122 014a 5A61     		str	r2, [r3, #20]
 2123 014c A5E7     		b	.L151
 2124              	.LVL191:
 2125              	.L157:
 553:Drivers/STM32F7xx_HAL_Driver/Src/stm32f7xx_hal_hcd.c ****     {
 2126              		.loc 1 553 0
 2127 014e 0023     		movs	r3, #0
 2128 0150 AAE7     		b	.L156
 2129              		.cfi_endproc
 2130              	.LFE143:
 2132              		.section	.text.HAL_HCD_Start,"ax",%progbits
 2133              		.align	1
 2134              		.global	HAL_HCD_Start
 2135              		.syntax unified
 2136              		.thumb
 2137              		.thumb_func
 2138              		.fpu fpv5-sp-d16
 2140              	HAL_HCD_Start:
 2141              	.LFB150:
 691:Drivers/STM32F7xx_HAL_Driver/Src/stm32f7xx_hal_hcd.c ****   __HAL_LOCK(hhcd);
 2142              		.loc 1 691 0
 2143              		.cfi_startproc
 2144              		@ args = 0, pretend = 0, frame = 0
 2145              		@ frame_needed = 0, uses_anonymous_args = 0
 2146              	.LVL192:
 2147 0000 38B5     		push	{r3, r4, r5, lr}
 2148              	.LCFI21:
 2149              		.cfi_def_cfa_offset 16
 2150              		.cfi_offset 3, -16
ARM GAS  C:\Users\Student\AppData\Local\Temp\ccjpImAB.s 			page 66


 2151              		.cfi_offset 4, -12
 2152              		.cfi_offset 5, -8
 2153              		.cfi_offset 14, -4
 692:Drivers/STM32F7xx_HAL_Driver/Src/stm32f7xx_hal_hcd.c ****   __HAL_HCD_ENABLE(hhcd);
 2154              		.loc 1 692 0
 2155 0002 90F8B832 		ldrb	r3, [r0, #696]	@ zero_extendqisi2
 2156 0006 012B     		cmp	r3, #1
 2157 0008 01D1     		bne	.L169
 2158 000a 0220     		movs	r0, #2
 2159              	.LVL193:
 697:Drivers/STM32F7xx_HAL_Driver/Src/stm32f7xx_hal_hcd.c **** 
 2160              		.loc 1 697 0
 2161 000c 38BD     		pop	{r3, r4, r5, pc}
 2162              	.LVL194:
 2163              	.L169:
 2164 000e 0446     		mov	r4, r0
 692:Drivers/STM32F7xx_HAL_Driver/Src/stm32f7xx_hal_hcd.c ****   __HAL_HCD_ENABLE(hhcd);
 2165              		.loc 1 692 0 discriminator 2
 2166 0010 0125     		movs	r5, #1
 2167 0012 80F8B852 		strb	r5, [r0, #696]
 693:Drivers/STM32F7xx_HAL_Driver/Src/stm32f7xx_hal_hcd.c ****   (void)USB_DriveVbus(hhcd->Instance, 1U);
 2168              		.loc 1 693 0 discriminator 2
 2169 0016 0068     		ldr	r0, [r0]
 2170              	.LVL195:
 2171 0018 FFF7FEFF 		bl	USB_EnableGlobalInt
 2172              	.LVL196:
 694:Drivers/STM32F7xx_HAL_Driver/Src/stm32f7xx_hal_hcd.c ****   __HAL_UNLOCK(hhcd);
 2173              		.loc 1 694 0 discriminator 2
 2174 001c 2946     		mov	r1, r5
 2175 001e 2068     		ldr	r0, [r4]
 2176 0020 FFF7FEFF 		bl	USB_DriveVbus
 2177              	.LVL197:
 695:Drivers/STM32F7xx_HAL_Driver/Src/stm32f7xx_hal_hcd.c ****   return HAL_OK;
 2178              		.loc 1 695 0 discriminator 2
 2179 0024 0020     		movs	r0, #0
 2180 0026 84F8B802 		strb	r0, [r4, #696]
 696:Drivers/STM32F7xx_HAL_Driver/Src/stm32f7xx_hal_hcd.c **** }
 2181              		.loc 1 696 0 discriminator 2
 2182 002a 38BD     		pop	{r3, r4, r5, pc}
 2183              		.cfi_endproc
 2184              	.LFE150:
 2186              		.section	.text.HAL_HCD_Stop,"ax",%progbits
 2187              		.align	1
 2188              		.global	HAL_HCD_Stop
 2189              		.syntax unified
 2190              		.thumb
 2191              		.thumb_func
 2192              		.fpu fpv5-sp-d16
 2194              	HAL_HCD_Stop:
 2195              	.LFB151:
 706:Drivers/STM32F7xx_HAL_Driver/Src/stm32f7xx_hal_hcd.c ****   __HAL_LOCK(hhcd);
 2196              		.loc 1 706 0
 2197              		.cfi_startproc
 2198              		@ args = 0, pretend = 0, frame = 0
 2199              		@ frame_needed = 0, uses_anonymous_args = 0
 2200              	.LVL198:
 707:Drivers/STM32F7xx_HAL_Driver/Src/stm32f7xx_hal_hcd.c ****   (void)USB_StopHost(hhcd->Instance);
ARM GAS  C:\Users\Student\AppData\Local\Temp\ccjpImAB.s 			page 67


 2201              		.loc 1 707 0
 2202 0000 90F8B832 		ldrb	r3, [r0, #696]	@ zero_extendqisi2
 2203 0004 012B     		cmp	r3, #1
 2204 0006 01D1     		bne	.L177
 2205 0008 0220     		movs	r0, #2
 2206              	.LVL199:
 2207 000a 7047     		bx	lr
 2208              	.LVL200:
 2209              	.L177:
 706:Drivers/STM32F7xx_HAL_Driver/Src/stm32f7xx_hal_hcd.c ****   __HAL_LOCK(hhcd);
 2210              		.loc 1 706 0 discriminator 2
 2211 000c 10B5     		push	{r4, lr}
 2212              	.LCFI22:
 2213              		.cfi_def_cfa_offset 8
 2214              		.cfi_offset 4, -8
 2215              		.cfi_offset 14, -4
 2216 000e 0446     		mov	r4, r0
 707:Drivers/STM32F7xx_HAL_Driver/Src/stm32f7xx_hal_hcd.c ****   (void)USB_StopHost(hhcd->Instance);
 2217              		.loc 1 707 0 discriminator 2
 2218 0010 0123     		movs	r3, #1
 2219 0012 80F8B832 		strb	r3, [r0, #696]
 708:Drivers/STM32F7xx_HAL_Driver/Src/stm32f7xx_hal_hcd.c ****   __HAL_UNLOCK(hhcd);
 2220              		.loc 1 708 0 discriminator 2
 2221 0016 0068     		ldr	r0, [r0]
 2222              	.LVL201:
 2223 0018 FFF7FEFF 		bl	USB_StopHost
 2224              	.LVL202:
 709:Drivers/STM32F7xx_HAL_Driver/Src/stm32f7xx_hal_hcd.c ****   return HAL_OK;
 2225              		.loc 1 709 0 discriminator 2
 2226 001c 0020     		movs	r0, #0
 2227 001e 84F8B802 		strb	r0, [r4, #696]
 710:Drivers/STM32F7xx_HAL_Driver/Src/stm32f7xx_hal_hcd.c **** }
 2228              		.loc 1 710 0 discriminator 2
 2229 0022 10BD     		pop	{r4, pc}
 2230              		.cfi_endproc
 2231              	.LFE151:
 2233              		.section	.text.HAL_HCD_ResetPort,"ax",%progbits
 2234              		.align	1
 2235              		.global	HAL_HCD_ResetPort
 2236              		.syntax unified
 2237              		.thumb
 2238              		.thumb_func
 2239              		.fpu fpv5-sp-d16
 2241              	HAL_HCD_ResetPort:
 2242              	.LFB152:
 719:Drivers/STM32F7xx_HAL_Driver/Src/stm32f7xx_hal_hcd.c ****   return (USB_ResetPort(hhcd->Instance));
 2243              		.loc 1 719 0
 2244              		.cfi_startproc
 2245              		@ args = 0, pretend = 0, frame = 0
 2246              		@ frame_needed = 0, uses_anonymous_args = 0
 2247              	.LVL203:
 2248 0000 08B5     		push	{r3, lr}
 2249              	.LCFI23:
 2250              		.cfi_def_cfa_offset 8
 2251              		.cfi_offset 3, -8
 2252              		.cfi_offset 14, -4
 720:Drivers/STM32F7xx_HAL_Driver/Src/stm32f7xx_hal_hcd.c **** }
ARM GAS  C:\Users\Student\AppData\Local\Temp\ccjpImAB.s 			page 68


 2253              		.loc 1 720 0
 2254 0002 0068     		ldr	r0, [r0]
 2255              	.LVL204:
 2256 0004 FFF7FEFF 		bl	USB_ResetPort
 2257              	.LVL205:
 721:Drivers/STM32F7xx_HAL_Driver/Src/stm32f7xx_hal_hcd.c **** 
 2258              		.loc 1 721 0
 2259 0008 08BD     		pop	{r3, pc}
 2260              		.cfi_endproc
 2261              	.LFE152:
 2263              		.section	.text.HAL_HCD_GetState,"ax",%progbits
 2264              		.align	1
 2265              		.global	HAL_HCD_GetState
 2266              		.syntax unified
 2267              		.thumb
 2268              		.thumb_func
 2269              		.fpu fpv5-sp-d16
 2271              	HAL_HCD_GetState:
 2272              	.LFB153:
 748:Drivers/STM32F7xx_HAL_Driver/Src/stm32f7xx_hal_hcd.c ****   return hhcd->State;
 2273              		.loc 1 748 0
 2274              		.cfi_startproc
 2275              		@ args = 0, pretend = 0, frame = 0
 2276              		@ frame_needed = 0, uses_anonymous_args = 0
 2277              		@ link register save eliminated.
 2278              	.LVL206:
 749:Drivers/STM32F7xx_HAL_Driver/Src/stm32f7xx_hal_hcd.c **** }
 2279              		.loc 1 749 0
 2280 0000 90F8B902 		ldrb	r0, [r0, #697]	@ zero_extendqisi2
 2281              	.LVL207:
 750:Drivers/STM32F7xx_HAL_Driver/Src/stm32f7xx_hal_hcd.c **** 
 2282              		.loc 1 750 0
 2283 0004 7047     		bx	lr
 2284              		.cfi_endproc
 2285              	.LFE153:
 2287              		.section	.text.HAL_HCD_HC_GetURBState,"ax",%progbits
 2288              		.align	1
 2289              		.global	HAL_HCD_HC_GetURBState
 2290              		.syntax unified
 2291              		.thumb
 2292              		.thumb_func
 2293              		.fpu fpv5-sp-d16
 2295              	HAL_HCD_HC_GetURBState:
 2296              	.LFB154:
 767:Drivers/STM32F7xx_HAL_Driver/Src/stm32f7xx_hal_hcd.c ****   return hhcd->hc[chnum].urb_state;
 2297              		.loc 1 767 0
 2298              		.cfi_startproc
 2299              		@ args = 0, pretend = 0, frame = 0
 2300              		@ frame_needed = 0, uses_anonymous_args = 0
 2301              		@ link register save eliminated.
 2302              	.LVL208:
 768:Drivers/STM32F7xx_HAL_Driver/Src/stm32f7xx_hal_hcd.c **** }
 2303              		.loc 1 768 0
 2304 0000 01EB8101 		add	r1, r1, r1, lsl #2
 2305              	.LVL209:
 2306 0004 CB00     		lsls	r3, r1, #3
 2307 0006 1844     		add	r0, r0, r3
ARM GAS  C:\Users\Student\AppData\Local\Temp\ccjpImAB.s 			page 69


 2308              	.LVL210:
 769:Drivers/STM32F7xx_HAL_Driver/Src/stm32f7xx_hal_hcd.c **** 
 2309              		.loc 1 769 0
 2310 0008 90F85C00 		ldrb	r0, [r0, #92]	@ zero_extendqisi2
 2311 000c 7047     		bx	lr
 2312              		.cfi_endproc
 2313              	.LFE154:
 2315              		.section	.text.HAL_HCD_HC_GetXferCount,"ax",%progbits
 2316              		.align	1
 2317              		.global	HAL_HCD_HC_GetXferCount
 2318              		.syntax unified
 2319              		.thumb
 2320              		.thumb_func
 2321              		.fpu fpv5-sp-d16
 2323              	HAL_HCD_HC_GetXferCount:
 2324              	.LFB155:
 780:Drivers/STM32F7xx_HAL_Driver/Src/stm32f7xx_hal_hcd.c ****   return hhcd->hc[chnum].xfer_count;
 2325              		.loc 1 780 0
 2326              		.cfi_startproc
 2327              		@ args = 0, pretend = 0, frame = 0
 2328              		@ frame_needed = 0, uses_anonymous_args = 0
 2329              		@ link register save eliminated.
 2330              	.LVL211:
 781:Drivers/STM32F7xx_HAL_Driver/Src/stm32f7xx_hal_hcd.c **** }
 2331              		.loc 1 781 0
 2332 0000 01EB8101 		add	r1, r1, r1, lsl #2
 2333              	.LVL212:
 2334 0004 CB00     		lsls	r3, r1, #3
 2335 0006 1844     		add	r0, r0, r3
 2336              	.LVL213:
 782:Drivers/STM32F7xx_HAL_Driver/Src/stm32f7xx_hal_hcd.c **** 
 2337              		.loc 1 782 0
 2338 0008 C06C     		ldr	r0, [r0, #76]
 2339 000a 7047     		bx	lr
 2340              		.cfi_endproc
 2341              	.LFE155:
 2343              		.section	.text.HAL_HCD_HC_GetState,"ax",%progbits
 2344              		.align	1
 2345              		.global	HAL_HCD_HC_GetState
 2346              		.syntax unified
 2347              		.thumb
 2348              		.thumb_func
 2349              		.fpu fpv5-sp-d16
 2351              	HAL_HCD_HC_GetState:
 2352              	.LFB156:
 802:Drivers/STM32F7xx_HAL_Driver/Src/stm32f7xx_hal_hcd.c ****   return hhcd->hc[chnum].state;
 2353              		.loc 1 802 0
 2354              		.cfi_startproc
 2355              		@ args = 0, pretend = 0, frame = 0
 2356              		@ frame_needed = 0, uses_anonymous_args = 0
 2357              		@ link register save eliminated.
 2358              	.LVL214:
 803:Drivers/STM32F7xx_HAL_Driver/Src/stm32f7xx_hal_hcd.c **** }
 2359              		.loc 1 803 0
 2360 0000 01EB8101 		add	r1, r1, r1, lsl #2
 2361              	.LVL215:
 2362 0004 CB00     		lsls	r3, r1, #3
ARM GAS  C:\Users\Student\AppData\Local\Temp\ccjpImAB.s 			page 70


 2363 0006 1844     		add	r0, r0, r3
 2364              	.LVL216:
 804:Drivers/STM32F7xx_HAL_Driver/Src/stm32f7xx_hal_hcd.c **** 
 2365              		.loc 1 804 0
 2366 0008 90F85D00 		ldrb	r0, [r0, #93]	@ zero_extendqisi2
 2367 000c 7047     		bx	lr
 2368              		.cfi_endproc
 2369              	.LFE156:
 2371              		.section	.text.HAL_HCD_GetCurrentFrame,"ax",%progbits
 2372              		.align	1
 2373              		.global	HAL_HCD_GetCurrentFrame
 2374              		.syntax unified
 2375              		.thumb
 2376              		.thumb_func
 2377              		.fpu fpv5-sp-d16
 2379              	HAL_HCD_GetCurrentFrame:
 2380              	.LFB157:
 812:Drivers/STM32F7xx_HAL_Driver/Src/stm32f7xx_hal_hcd.c ****   return (USB_GetCurrentFrame(hhcd->Instance));
 2381              		.loc 1 812 0
 2382              		.cfi_startproc
 2383              		@ args = 0, pretend = 0, frame = 0
 2384              		@ frame_needed = 0, uses_anonymous_args = 0
 2385              	.LVL217:
 2386 0000 08B5     		push	{r3, lr}
 2387              	.LCFI24:
 2388              		.cfi_def_cfa_offset 8
 2389              		.cfi_offset 3, -8
 2390              		.cfi_offset 14, -4
 813:Drivers/STM32F7xx_HAL_Driver/Src/stm32f7xx_hal_hcd.c **** }
 2391              		.loc 1 813 0
 2392 0002 0068     		ldr	r0, [r0]
 2393              	.LVL218:
 2394 0004 FFF7FEFF 		bl	USB_GetCurrentFrame
 2395              	.LVL219:
 814:Drivers/STM32F7xx_HAL_Driver/Src/stm32f7xx_hal_hcd.c **** 
 2396              		.loc 1 814 0
 2397 0008 08BD     		pop	{r3, pc}
 2398              		.cfi_endproc
 2399              	.LFE157:
 2401              		.section	.text.HAL_HCD_GetCurrentSpeed,"ax",%progbits
 2402              		.align	1
 2403              		.global	HAL_HCD_GetCurrentSpeed
 2404              		.syntax unified
 2405              		.thumb
 2406              		.thumb_func
 2407              		.fpu fpv5-sp-d16
 2409              	HAL_HCD_GetCurrentSpeed:
 2410              	.LFB158:
 822:Drivers/STM32F7xx_HAL_Driver/Src/stm32f7xx_hal_hcd.c ****   return (USB_GetHostSpeed(hhcd->Instance));
 2411              		.loc 1 822 0
 2412              		.cfi_startproc
 2413              		@ args = 0, pretend = 0, frame = 0
 2414              		@ frame_needed = 0, uses_anonymous_args = 0
 2415              	.LVL220:
 2416 0000 08B5     		push	{r3, lr}
 2417              	.LCFI25:
 2418              		.cfi_def_cfa_offset 8
ARM GAS  C:\Users\Student\AppData\Local\Temp\ccjpImAB.s 			page 71


 2419              		.cfi_offset 3, -8
 2420              		.cfi_offset 14, -4
 823:Drivers/STM32F7xx_HAL_Driver/Src/stm32f7xx_hal_hcd.c **** }
 2421              		.loc 1 823 0
 2422 0002 0068     		ldr	r0, [r0]
 2423              	.LVL221:
 2424 0004 FFF7FEFF 		bl	USB_GetHostSpeed
 2425              	.LVL222:
 824:Drivers/STM32F7xx_HAL_Driver/Src/stm32f7xx_hal_hcd.c **** 
 2426              		.loc 1 824 0
 2427 0008 08BD     		pop	{r3, pc}
 2428              		.cfi_endproc
 2429              	.LFE158:
 2431              		.text
 2432              	.Letext0:
 2433              		.file 2 "c:\\gcc_toolchain\\6_2017-q1-update\\arm-none-eabi\\include\\machine\\_default_types.h"
 2434              		.file 3 "c:\\gcc_toolchain\\6_2017-q1-update\\arm-none-eabi\\include\\sys\\_stdint.h"
 2435              		.file 4 "Drivers/CMSIS/Include/core_cm7.h"
 2436              		.file 5 "Drivers/CMSIS/Device/ST/STM32F7xx/Include/system_stm32f7xx.h"
 2437              		.file 6 "Drivers/CMSIS/Device/ST/STM32F7xx/Include/stm32f746xx.h"
 2438              		.file 7 "c:\\gcc_toolchain\\6_2017-q1-update\\arm-none-eabi\\include\\sys\\lock.h"
 2439              		.file 8 "c:\\gcc_toolchain\\6_2017-q1-update\\arm-none-eabi\\include\\sys\\_types.h"
 2440              		.file 9 "c:\\gcc_toolchain\\6_2017-q1-update\\lib\\gcc\\arm-none-eabi\\6.3.1\\include\\stddef.h"
 2441              		.file 10 "c:\\gcc_toolchain\\6_2017-q1-update\\arm-none-eabi\\include\\sys\\reent.h"
 2442              		.file 11 "Drivers/STM32F7xx_HAL_Driver/Inc/stm32f7xx_hal_def.h"
 2443              		.file 12 "Drivers/STM32F7xx_HAL_Driver/Inc/stm32f7xx_ll_usb.h"
 2444              		.file 13 "Drivers/STM32F7xx_HAL_Driver/Inc/stm32f7xx_hal_hcd.h"
ARM GAS  C:\Users\Student\AppData\Local\Temp\ccjpImAB.s 			page 72


DEFINED SYMBOLS
                            *ABS*:00000000 stm32f7xx_hal_hcd.c
C:\Users\Student\AppData\Local\Temp\ccjpImAB.s:18     .text.HCD_RXQLVL_IRQHandler:00000000 $t
C:\Users\Student\AppData\Local\Temp\ccjpImAB.s:24     .text.HCD_RXQLVL_IRQHandler:00000000 HCD_RXQLVL_IRQHandler
C:\Users\Student\AppData\Local\Temp\ccjpImAB.s:120    .text.HCD_RXQLVL_IRQHandler:00000078 $d
C:\Users\Student\AppData\Local\Temp\ccjpImAB.s:125    .text.HAL_HCD_HC_Init:00000000 $t
C:\Users\Student\AppData\Local\Temp\ccjpImAB.s:132    .text.HAL_HCD_HC_Init:00000000 HAL_HCD_HC_Init
C:\Users\Student\AppData\Local\Temp\ccjpImAB.s:234    .text.HAL_HCD_HC_Halt:00000000 $t
C:\Users\Student\AppData\Local\Temp\ccjpImAB.s:241    .text.HAL_HCD_HC_Halt:00000000 HAL_HCD_HC_Halt
C:\Users\Student\AppData\Local\Temp\ccjpImAB.s:281    .text.HAL_HCD_MspInit:00000000 $t
C:\Users\Student\AppData\Local\Temp\ccjpImAB.s:288    .text.HAL_HCD_MspInit:00000000 HAL_HCD_MspInit
C:\Users\Student\AppData\Local\Temp\ccjpImAB.s:301    .text.HAL_HCD_Init:00000000 $t
C:\Users\Student\AppData\Local\Temp\ccjpImAB.s:308    .text.HAL_HCD_Init:00000000 HAL_HCD_Init
C:\Users\Student\AppData\Local\Temp\ccjpImAB.s:416    .text.HAL_HCD_MspDeInit:00000000 $t
C:\Users\Student\AppData\Local\Temp\ccjpImAB.s:423    .text.HAL_HCD_MspDeInit:00000000 HAL_HCD_MspDeInit
C:\Users\Student\AppData\Local\Temp\ccjpImAB.s:436    .text.HAL_HCD_DeInit:00000000 $t
C:\Users\Student\AppData\Local\Temp\ccjpImAB.s:443    .text.HAL_HCD_DeInit:00000000 HAL_HCD_DeInit
C:\Users\Student\AppData\Local\Temp\ccjpImAB.s:488    .text.HAL_HCD_HC_SubmitRequest:00000000 $t
C:\Users\Student\AppData\Local\Temp\ccjpImAB.s:495    .text.HAL_HCD_HC_SubmitRequest:00000000 HAL_HCD_HC_SubmitRequest
C:\Users\Student\AppData\Local\Temp\ccjpImAB.s:535    .text.HAL_HCD_HC_SubmitRequest:00000034 $d
C:\Users\Student\AppData\Local\Temp\ccjpImAB.s:539    .text.HAL_HCD_HC_SubmitRequest:00000038 $t
C:\Users\Student\AppData\Local\Temp\ccjpImAB.s:737    .text.HAL_HCD_SOF_Callback:00000000 $t
C:\Users\Student\AppData\Local\Temp\ccjpImAB.s:744    .text.HAL_HCD_SOF_Callback:00000000 HAL_HCD_SOF_Callback
C:\Users\Student\AppData\Local\Temp\ccjpImAB.s:757    .text.HAL_HCD_Connect_Callback:00000000 $t
C:\Users\Student\AppData\Local\Temp\ccjpImAB.s:764    .text.HAL_HCD_Connect_Callback:00000000 HAL_HCD_Connect_Callback
C:\Users\Student\AppData\Local\Temp\ccjpImAB.s:777    .text.HAL_HCD_Disconnect_Callback:00000000 $t
C:\Users\Student\AppData\Local\Temp\ccjpImAB.s:784    .text.HAL_HCD_Disconnect_Callback:00000000 HAL_HCD_Disconnect_Callback
C:\Users\Student\AppData\Local\Temp\ccjpImAB.s:797    .text.HAL_HCD_PortEnabled_Callback:00000000 $t
C:\Users\Student\AppData\Local\Temp\ccjpImAB.s:804    .text.HAL_HCD_PortEnabled_Callback:00000000 HAL_HCD_PortEnabled_Callback
C:\Users\Student\AppData\Local\Temp\ccjpImAB.s:817    .text.HAL_HCD_PortDisabled_Callback:00000000 $t
C:\Users\Student\AppData\Local\Temp\ccjpImAB.s:824    .text.HAL_HCD_PortDisabled_Callback:00000000 HAL_HCD_PortDisabled_Callback
C:\Users\Student\AppData\Local\Temp\ccjpImAB.s:837    .text.HCD_Port_IRQHandler:00000000 $t
C:\Users\Student\AppData\Local\Temp\ccjpImAB.s:843    .text.HCD_Port_IRQHandler:00000000 HCD_Port_IRQHandler
C:\Users\Student\AppData\Local\Temp\ccjpImAB.s:993    .text.HAL_HCD_HC_NotifyURBChange_Callback:00000000 $t
C:\Users\Student\AppData\Local\Temp\ccjpImAB.s:1000   .text.HAL_HCD_HC_NotifyURBChange_Callback:00000000 HAL_HCD_HC_NotifyURBChange_Callback
C:\Users\Student\AppData\Local\Temp\ccjpImAB.s:1013   .text.HCD_HC_IN_IRQHandler:00000000 $t
C:\Users\Student\AppData\Local\Temp\ccjpImAB.s:1019   .text.HCD_HC_IN_IRQHandler:00000000 HCD_HC_IN_IRQHandler
C:\Users\Student\AppData\Local\Temp\ccjpImAB.s:1452   .text.HCD_HC_OUT_IRQHandler:00000000 $t
C:\Users\Student\AppData\Local\Temp\ccjpImAB.s:1458   .text.HCD_HC_OUT_IRQHandler:00000000 HCD_HC_OUT_IRQHandler
C:\Users\Student\AppData\Local\Temp\ccjpImAB.s:1899   .text.HAL_HCD_IRQHandler:00000000 $t
C:\Users\Student\AppData\Local\Temp\ccjpImAB.s:1906   .text.HAL_HCD_IRQHandler:00000000 HAL_HCD_IRQHandler
C:\Users\Student\AppData\Local\Temp\ccjpImAB.s:2133   .text.HAL_HCD_Start:00000000 $t
C:\Users\Student\AppData\Local\Temp\ccjpImAB.s:2140   .text.HAL_HCD_Start:00000000 HAL_HCD_Start
C:\Users\Student\AppData\Local\Temp\ccjpImAB.s:2187   .text.HAL_HCD_Stop:00000000 $t
C:\Users\Student\AppData\Local\Temp\ccjpImAB.s:2194   .text.HAL_HCD_Stop:00000000 HAL_HCD_Stop
C:\Users\Student\AppData\Local\Temp\ccjpImAB.s:2234   .text.HAL_HCD_ResetPort:00000000 $t
C:\Users\Student\AppData\Local\Temp\ccjpImAB.s:2241   .text.HAL_HCD_ResetPort:00000000 HAL_HCD_ResetPort
C:\Users\Student\AppData\Local\Temp\ccjpImAB.s:2264   .text.HAL_HCD_GetState:00000000 $t
C:\Users\Student\AppData\Local\Temp\ccjpImAB.s:2271   .text.HAL_HCD_GetState:00000000 HAL_HCD_GetState
C:\Users\Student\AppData\Local\Temp\ccjpImAB.s:2288   .text.HAL_HCD_HC_GetURBState:00000000 $t
C:\Users\Student\AppData\Local\Temp\ccjpImAB.s:2295   .text.HAL_HCD_HC_GetURBState:00000000 HAL_HCD_HC_GetURBState
C:\Users\Student\AppData\Local\Temp\ccjpImAB.s:2316   .text.HAL_HCD_HC_GetXferCount:00000000 $t
C:\Users\Student\AppData\Local\Temp\ccjpImAB.s:2323   .text.HAL_HCD_HC_GetXferCount:00000000 HAL_HCD_HC_GetXferCount
C:\Users\Student\AppData\Local\Temp\ccjpImAB.s:2344   .text.HAL_HCD_HC_GetState:00000000 $t
C:\Users\Student\AppData\Local\Temp\ccjpImAB.s:2351   .text.HAL_HCD_HC_GetState:00000000 HAL_HCD_HC_GetState
C:\Users\Student\AppData\Local\Temp\ccjpImAB.s:2372   .text.HAL_HCD_GetCurrentFrame:00000000 $t
C:\Users\Student\AppData\Local\Temp\ccjpImAB.s:2379   .text.HAL_HCD_GetCurrentFrame:00000000 HAL_HCD_GetCurrentFrame
ARM GAS  C:\Users\Student\AppData\Local\Temp\ccjpImAB.s 			page 73


C:\Users\Student\AppData\Local\Temp\ccjpImAB.s:2402   .text.HAL_HCD_GetCurrentSpeed:00000000 $t
C:\Users\Student\AppData\Local\Temp\ccjpImAB.s:2409   .text.HAL_HCD_GetCurrentSpeed:00000000 HAL_HCD_GetCurrentSpeed
                     .debug_frame:00000010 $d

UNDEFINED SYMBOLS
USB_ReadPacket
USB_HC_Init
USB_HC_Halt
USB_DisableGlobalInt
USB_CoreInit
USB_SetCurrentMode
USB_HostInit
USB_HC_StartXfer
USB_InitFSLSPClkSel
USB_GetMode
USB_ReadInterrupts
USB_HC_ReadInterrupt
USB_EnableGlobalInt
USB_DriveVbus
USB_StopHost
USB_ResetPort
USB_GetCurrentFrame
USB_GetHostSpeed
