ARM GAS  C:\Users\Patryk\AppData\Local\Temp\ccmZaiys.s 			page 1


   1              		.cpu cortex-m7
   2              		.eabi_attribute 27, 1
   3              		.eabi_attribute 28, 1
   4              		.eabi_attribute 20, 1
   5              		.eabi_attribute 21, 1
   6              		.eabi_attribute 23, 3
   7              		.eabi_attribute 24, 1
   8              		.eabi_attribute 25, 1
   9              		.eabi_attribute 26, 1
  10              		.eabi_attribute 30, 1
  11              		.eabi_attribute 34, 1
  12              		.eabi_attribute 18, 4
  13              		.file	"stm32f7xx_hal_dcmi.c"
  14              		.text
  15              	.Ltext0:
  16              		.cfi_sections	.debug_frame
  17              		.section	.text.DCMI_DMAXferCplt,"ax",%progbits
  18              		.align	1
  19              		.syntax unified
  20              		.thumb
  21              		.thumb_func
  22              		.fpu fpv5-sp-d16
  24              	DCMI_DMAXferCplt:
  25              	.LFB156:
  26              		.file 1 "Drivers/STM32F7xx_HAL_Driver/Src/stm32f7xx_hal_dcmi.c"
   1:Drivers/STM32F7xx_HAL_Driver/Src/stm32f7xx_hal_dcmi.c **** /**
   2:Drivers/STM32F7xx_HAL_Driver/Src/stm32f7xx_hal_dcmi.c ****   ******************************************************************************
   3:Drivers/STM32F7xx_HAL_Driver/Src/stm32f7xx_hal_dcmi.c ****   * @file    stm32f7xx_hal_dcmi.c
   4:Drivers/STM32F7xx_HAL_Driver/Src/stm32f7xx_hal_dcmi.c ****   * @author  MCD Application Team
   5:Drivers/STM32F7xx_HAL_Driver/Src/stm32f7xx_hal_dcmi.c ****   * @brief   DCMI HAL module driver
   6:Drivers/STM32F7xx_HAL_Driver/Src/stm32f7xx_hal_dcmi.c ****   *          This file provides firmware functions to manage the following 
   7:Drivers/STM32F7xx_HAL_Driver/Src/stm32f7xx_hal_dcmi.c ****   *          functionalities of the Digital Camera Interface (DCMI) peripheral:
   8:Drivers/STM32F7xx_HAL_Driver/Src/stm32f7xx_hal_dcmi.c ****   *           + Initialization and de-initialization functions
   9:Drivers/STM32F7xx_HAL_Driver/Src/stm32f7xx_hal_dcmi.c ****   *           + IO operation functions
  10:Drivers/STM32F7xx_HAL_Driver/Src/stm32f7xx_hal_dcmi.c ****   *           + Peripheral Control functions 
  11:Drivers/STM32F7xx_HAL_Driver/Src/stm32f7xx_hal_dcmi.c ****   *           + Peripheral State and Error functions  
  12:Drivers/STM32F7xx_HAL_Driver/Src/stm32f7xx_hal_dcmi.c ****   *           
  13:Drivers/STM32F7xx_HAL_Driver/Src/stm32f7xx_hal_dcmi.c ****   @verbatim
  14:Drivers/STM32F7xx_HAL_Driver/Src/stm32f7xx_hal_dcmi.c ****   ==============================================================================
  15:Drivers/STM32F7xx_HAL_Driver/Src/stm32f7xx_hal_dcmi.c ****                         ##### How to use this driver #####
  16:Drivers/STM32F7xx_HAL_Driver/Src/stm32f7xx_hal_dcmi.c ****   ==============================================================================
  17:Drivers/STM32F7xx_HAL_Driver/Src/stm32f7xx_hal_dcmi.c ****   [..]
  18:Drivers/STM32F7xx_HAL_Driver/Src/stm32f7xx_hal_dcmi.c ****       The sequence below describes how to use this driver to capture image
  19:Drivers/STM32F7xx_HAL_Driver/Src/stm32f7xx_hal_dcmi.c ****       from a camera module connected to the DCMI Interface.
  20:Drivers/STM32F7xx_HAL_Driver/Src/stm32f7xx_hal_dcmi.c ****       This sequence does not take into account the configuration of the
  21:Drivers/STM32F7xx_HAL_Driver/Src/stm32f7xx_hal_dcmi.c ****       camera module, which should be made before to configure and enable
  22:Drivers/STM32F7xx_HAL_Driver/Src/stm32f7xx_hal_dcmi.c ****       the DCMI to capture images.
  23:Drivers/STM32F7xx_HAL_Driver/Src/stm32f7xx_hal_dcmi.c **** 
  24:Drivers/STM32F7xx_HAL_Driver/Src/stm32f7xx_hal_dcmi.c ****     (#) Program the required configuration through following parameters:
  25:Drivers/STM32F7xx_HAL_Driver/Src/stm32f7xx_hal_dcmi.c ****         horizontal and vertical polarity, pixel clock polarity, Capture Rate,
  26:Drivers/STM32F7xx_HAL_Driver/Src/stm32f7xx_hal_dcmi.c ****         Synchronization Mode, code of the frame delimiter and data width 
  27:Drivers/STM32F7xx_HAL_Driver/Src/stm32f7xx_hal_dcmi.c ****         using HAL_DCMI_Init() function.
  28:Drivers/STM32F7xx_HAL_Driver/Src/stm32f7xx_hal_dcmi.c **** 
  29:Drivers/STM32F7xx_HAL_Driver/Src/stm32f7xx_hal_dcmi.c ****     (#) Configure the DMA2_Stream1 channel1 to transfer Data from DCMI DR
  30:Drivers/STM32F7xx_HAL_Driver/Src/stm32f7xx_hal_dcmi.c ****         register to the destination memory buffer.
  31:Drivers/STM32F7xx_HAL_Driver/Src/stm32f7xx_hal_dcmi.c **** 
  32:Drivers/STM32F7xx_HAL_Driver/Src/stm32f7xx_hal_dcmi.c ****     (#) Program the required configuration through following parameters:
ARM GAS  C:\Users\Patryk\AppData\Local\Temp\ccmZaiys.s 			page 2


  33:Drivers/STM32F7xx_HAL_Driver/Src/stm32f7xx_hal_dcmi.c ****         DCMI mode, destination memory Buffer address and the data length 
  34:Drivers/STM32F7xx_HAL_Driver/Src/stm32f7xx_hal_dcmi.c ****         and enable capture using HAL_DCMI_Start_DMA() function.
  35:Drivers/STM32F7xx_HAL_Driver/Src/stm32f7xx_hal_dcmi.c **** 
  36:Drivers/STM32F7xx_HAL_Driver/Src/stm32f7xx_hal_dcmi.c ****     (#) Optionally, configure and Enable the CROP feature to select a rectangular
  37:Drivers/STM32F7xx_HAL_Driver/Src/stm32f7xx_hal_dcmi.c ****         window from the received image using HAL_DCMI_ConfigCrop() 
  38:Drivers/STM32F7xx_HAL_Driver/Src/stm32f7xx_hal_dcmi.c ****         and HAL_DCMI_EnableCROP() functions
  39:Drivers/STM32F7xx_HAL_Driver/Src/stm32f7xx_hal_dcmi.c **** 
  40:Drivers/STM32F7xx_HAL_Driver/Src/stm32f7xx_hal_dcmi.c ****     (#) The capture can be stopped using HAL_DCMI_Stop() function.
  41:Drivers/STM32F7xx_HAL_Driver/Src/stm32f7xx_hal_dcmi.c **** 
  42:Drivers/STM32F7xx_HAL_Driver/Src/stm32f7xx_hal_dcmi.c ****     (#) To control DCMI state you can use the function HAL_DCMI_GetState().
  43:Drivers/STM32F7xx_HAL_Driver/Src/stm32f7xx_hal_dcmi.c **** 
  44:Drivers/STM32F7xx_HAL_Driver/Src/stm32f7xx_hal_dcmi.c ****      *** DCMI HAL driver macros list ***
  45:Drivers/STM32F7xx_HAL_Driver/Src/stm32f7xx_hal_dcmi.c ****      ============================================= 
  46:Drivers/STM32F7xx_HAL_Driver/Src/stm32f7xx_hal_dcmi.c ****      [..]
  47:Drivers/STM32F7xx_HAL_Driver/Src/stm32f7xx_hal_dcmi.c ****        Below the list of most used macros in DCMI HAL driver.
  48:Drivers/STM32F7xx_HAL_Driver/Src/stm32f7xx_hal_dcmi.c ****        
  49:Drivers/STM32F7xx_HAL_Driver/Src/stm32f7xx_hal_dcmi.c ****       (+) __HAL_DCMI_ENABLE: Enable the DCMI peripheral.
  50:Drivers/STM32F7xx_HAL_Driver/Src/stm32f7xx_hal_dcmi.c ****       (+) __HAL_DCMI_DISABLE: Disable the DCMI peripheral.
  51:Drivers/STM32F7xx_HAL_Driver/Src/stm32f7xx_hal_dcmi.c ****       (+) __HAL_DCMI_GET_FLAG: Get the DCMI pending flags.
  52:Drivers/STM32F7xx_HAL_Driver/Src/stm32f7xx_hal_dcmi.c ****       (+) __HAL_DCMI_CLEAR_FLAG: Clear the DCMI pending flags.
  53:Drivers/STM32F7xx_HAL_Driver/Src/stm32f7xx_hal_dcmi.c ****       (+) __HAL_DCMI_ENABLE_IT: Enable the specified DCMI interrupts.
  54:Drivers/STM32F7xx_HAL_Driver/Src/stm32f7xx_hal_dcmi.c ****       (+) __HAL_DCMI_DISABLE_IT: Disable the specified DCMI interrupts.
  55:Drivers/STM32F7xx_HAL_Driver/Src/stm32f7xx_hal_dcmi.c ****       (+) __HAL_DCMI_GET_IT_SOURCE: Check whether the specified DCMI interrupt has occurred or not.
  56:Drivers/STM32F7xx_HAL_Driver/Src/stm32f7xx_hal_dcmi.c ****  
  57:Drivers/STM32F7xx_HAL_Driver/Src/stm32f7xx_hal_dcmi.c ****      [..] 
  58:Drivers/STM32F7xx_HAL_Driver/Src/stm32f7xx_hal_dcmi.c ****        (@) You can refer to the DCMI HAL driver header file for more useful macros
  59:Drivers/STM32F7xx_HAL_Driver/Src/stm32f7xx_hal_dcmi.c ****       
  60:Drivers/STM32F7xx_HAL_Driver/Src/stm32f7xx_hal_dcmi.c ****   @endverbatim
  61:Drivers/STM32F7xx_HAL_Driver/Src/stm32f7xx_hal_dcmi.c ****   ******************************************************************************
  62:Drivers/STM32F7xx_HAL_Driver/Src/stm32f7xx_hal_dcmi.c ****   * @attention
  63:Drivers/STM32F7xx_HAL_Driver/Src/stm32f7xx_hal_dcmi.c ****   *
  64:Drivers/STM32F7xx_HAL_Driver/Src/stm32f7xx_hal_dcmi.c ****   * <h2><center>&copy; COPYRIGHT(c) 2017 STMicroelectronics</center></h2>
  65:Drivers/STM32F7xx_HAL_Driver/Src/stm32f7xx_hal_dcmi.c ****   *
  66:Drivers/STM32F7xx_HAL_Driver/Src/stm32f7xx_hal_dcmi.c ****   * Redistribution and use in source and binary forms, with or without modification,
  67:Drivers/STM32F7xx_HAL_Driver/Src/stm32f7xx_hal_dcmi.c ****   * are permitted provided that the following conditions are met:
  68:Drivers/STM32F7xx_HAL_Driver/Src/stm32f7xx_hal_dcmi.c ****   *   1. Redistributions of source code must retain the above copyright notice,
  69:Drivers/STM32F7xx_HAL_Driver/Src/stm32f7xx_hal_dcmi.c ****   *      this list of conditions and the following disclaimer.
  70:Drivers/STM32F7xx_HAL_Driver/Src/stm32f7xx_hal_dcmi.c ****   *   2. Redistributions in binary form must reproduce the above copyright notice,
  71:Drivers/STM32F7xx_HAL_Driver/Src/stm32f7xx_hal_dcmi.c ****   *      this list of conditions and the following disclaimer in the documentation
  72:Drivers/STM32F7xx_HAL_Driver/Src/stm32f7xx_hal_dcmi.c ****   *      and/or other materials provided with the distribution.
  73:Drivers/STM32F7xx_HAL_Driver/Src/stm32f7xx_hal_dcmi.c ****   *   3. Neither the name of STMicroelectronics nor the names of its contributors
  74:Drivers/STM32F7xx_HAL_Driver/Src/stm32f7xx_hal_dcmi.c ****   *      may be used to endorse or promote products derived from this software
  75:Drivers/STM32F7xx_HAL_Driver/Src/stm32f7xx_hal_dcmi.c ****   *      without specific prior written permission.
  76:Drivers/STM32F7xx_HAL_Driver/Src/stm32f7xx_hal_dcmi.c ****   *
  77:Drivers/STM32F7xx_HAL_Driver/Src/stm32f7xx_hal_dcmi.c ****   * THIS SOFTWARE IS PROVIDED BY THE COPYRIGHT HOLDERS AND CONTRIBUTORS "AS IS"
  78:Drivers/STM32F7xx_HAL_Driver/Src/stm32f7xx_hal_dcmi.c ****   * AND ANY EXPRESS OR IMPLIED WARRANTIES, INCLUDING, BUT NOT LIMITED TO, THE
  79:Drivers/STM32F7xx_HAL_Driver/Src/stm32f7xx_hal_dcmi.c ****   * IMPLIED WARRANTIES OF MERCHANTABILITY AND FITNESS FOR A PARTICULAR PURPOSE ARE
  80:Drivers/STM32F7xx_HAL_Driver/Src/stm32f7xx_hal_dcmi.c ****   * DISCLAIMED. IN NO EVENT SHALL THE COPYRIGHT HOLDER OR CONTRIBUTORS BE LIABLE
  81:Drivers/STM32F7xx_HAL_Driver/Src/stm32f7xx_hal_dcmi.c ****   * FOR ANY DIRECT, INDIRECT, INCIDENTAL, SPECIAL, EXEMPLARY, OR CONSEQUENTIAL
  82:Drivers/STM32F7xx_HAL_Driver/Src/stm32f7xx_hal_dcmi.c ****   * DAMAGES (INCLUDING, BUT NOT LIMITED TO, PROCUREMENT OF SUBSTITUTE GOODS OR
  83:Drivers/STM32F7xx_HAL_Driver/Src/stm32f7xx_hal_dcmi.c ****   * SERVICES; LOSS OF USE, DATA, OR PROFITS; OR BUSINESS INTERRUPTION) HOWEVER
  84:Drivers/STM32F7xx_HAL_Driver/Src/stm32f7xx_hal_dcmi.c ****   * CAUSED AND ON ANY THEORY OF LIABILITY, WHETHER IN CONTRACT, STRICT LIABILITY,
  85:Drivers/STM32F7xx_HAL_Driver/Src/stm32f7xx_hal_dcmi.c ****   * OR TORT (INCLUDING NEGLIGENCE OR OTHERWISE) ARISING IN ANY WAY OUT OF THE USE
  86:Drivers/STM32F7xx_HAL_Driver/Src/stm32f7xx_hal_dcmi.c ****   * OF THIS SOFTWARE, EVEN IF ADVISED OF THE POSSIBILITY OF SUCH DAMAGE.
  87:Drivers/STM32F7xx_HAL_Driver/Src/stm32f7xx_hal_dcmi.c ****   *
  88:Drivers/STM32F7xx_HAL_Driver/Src/stm32f7xx_hal_dcmi.c ****   ******************************************************************************
  89:Drivers/STM32F7xx_HAL_Driver/Src/stm32f7xx_hal_dcmi.c ****   */ 
ARM GAS  C:\Users\Patryk\AppData\Local\Temp\ccmZaiys.s 			page 3


  90:Drivers/STM32F7xx_HAL_Driver/Src/stm32f7xx_hal_dcmi.c **** 
  91:Drivers/STM32F7xx_HAL_Driver/Src/stm32f7xx_hal_dcmi.c **** /* Includes ------------------------------------------------------------------*/
  92:Drivers/STM32F7xx_HAL_Driver/Src/stm32f7xx_hal_dcmi.c **** #include "stm32f7xx_hal.h"
  93:Drivers/STM32F7xx_HAL_Driver/Src/stm32f7xx_hal_dcmi.c **** 
  94:Drivers/STM32F7xx_HAL_Driver/Src/stm32f7xx_hal_dcmi.c **** /** @addtogroup STM32F7xx_HAL_Driver
  95:Drivers/STM32F7xx_HAL_Driver/Src/stm32f7xx_hal_dcmi.c ****   * @{
  96:Drivers/STM32F7xx_HAL_Driver/Src/stm32f7xx_hal_dcmi.c ****   */
  97:Drivers/STM32F7xx_HAL_Driver/Src/stm32f7xx_hal_dcmi.c **** /** @defgroup DCMI DCMI
  98:Drivers/STM32F7xx_HAL_Driver/Src/stm32f7xx_hal_dcmi.c ****   * @brief DCMI HAL module driver
  99:Drivers/STM32F7xx_HAL_Driver/Src/stm32f7xx_hal_dcmi.c ****   * @{
 100:Drivers/STM32F7xx_HAL_Driver/Src/stm32f7xx_hal_dcmi.c ****   */
 101:Drivers/STM32F7xx_HAL_Driver/Src/stm32f7xx_hal_dcmi.c **** 
 102:Drivers/STM32F7xx_HAL_Driver/Src/stm32f7xx_hal_dcmi.c **** #ifdef HAL_DCMI_MODULE_ENABLED
 103:Drivers/STM32F7xx_HAL_Driver/Src/stm32f7xx_hal_dcmi.c **** #if defined (DCMI)
 104:Drivers/STM32F7xx_HAL_Driver/Src/stm32f7xx_hal_dcmi.c **** 
 105:Drivers/STM32F7xx_HAL_Driver/Src/stm32f7xx_hal_dcmi.c **** /* Private typedef -----------------------------------------------------------*/
 106:Drivers/STM32F7xx_HAL_Driver/Src/stm32f7xx_hal_dcmi.c **** /* Private define ------------------------------------------------------------*/
 107:Drivers/STM32F7xx_HAL_Driver/Src/stm32f7xx_hal_dcmi.c **** #define HAL_TIMEOUT_DCMI_STOP    ((uint32_t)1000) /* Set timeout to 1s  */
 108:Drivers/STM32F7xx_HAL_Driver/Src/stm32f7xx_hal_dcmi.c **** 
 109:Drivers/STM32F7xx_HAL_Driver/Src/stm32f7xx_hal_dcmi.c **** /* Private macro -------------------------------------------------------------*/
 110:Drivers/STM32F7xx_HAL_Driver/Src/stm32f7xx_hal_dcmi.c **** /* Private variables ---------------------------------------------------------*/
 111:Drivers/STM32F7xx_HAL_Driver/Src/stm32f7xx_hal_dcmi.c **** /* Private function prototypes -----------------------------------------------*/
 112:Drivers/STM32F7xx_HAL_Driver/Src/stm32f7xx_hal_dcmi.c **** static void       DCMI_DMAXferCplt(DMA_HandleTypeDef *hdma);
 113:Drivers/STM32F7xx_HAL_Driver/Src/stm32f7xx_hal_dcmi.c **** static void       DCMI_DMAError(DMA_HandleTypeDef *hdma);
 114:Drivers/STM32F7xx_HAL_Driver/Src/stm32f7xx_hal_dcmi.c **** 
 115:Drivers/STM32F7xx_HAL_Driver/Src/stm32f7xx_hal_dcmi.c **** /* Exported functions --------------------------------------------------------*/
 116:Drivers/STM32F7xx_HAL_Driver/Src/stm32f7xx_hal_dcmi.c **** 
 117:Drivers/STM32F7xx_HAL_Driver/Src/stm32f7xx_hal_dcmi.c **** /** @defgroup DCMI_Exported_Functions DCMI Exported Functions
 118:Drivers/STM32F7xx_HAL_Driver/Src/stm32f7xx_hal_dcmi.c ****   * @{
 119:Drivers/STM32F7xx_HAL_Driver/Src/stm32f7xx_hal_dcmi.c ****   */
 120:Drivers/STM32F7xx_HAL_Driver/Src/stm32f7xx_hal_dcmi.c **** 
 121:Drivers/STM32F7xx_HAL_Driver/Src/stm32f7xx_hal_dcmi.c **** /** @defgroup DCMI_Exported_Functions_Group1 Initialization and Configuration functions
 122:Drivers/STM32F7xx_HAL_Driver/Src/stm32f7xx_hal_dcmi.c ****  *  @brief   Initialization and Configuration functions
 123:Drivers/STM32F7xx_HAL_Driver/Src/stm32f7xx_hal_dcmi.c ****  *
 124:Drivers/STM32F7xx_HAL_Driver/Src/stm32f7xx_hal_dcmi.c **** @verbatim   
 125:Drivers/STM32F7xx_HAL_Driver/Src/stm32f7xx_hal_dcmi.c ****  ===============================================================================
 126:Drivers/STM32F7xx_HAL_Driver/Src/stm32f7xx_hal_dcmi.c ****                 ##### Initialization and Configuration functions #####
 127:Drivers/STM32F7xx_HAL_Driver/Src/stm32f7xx_hal_dcmi.c ****  ===============================================================================  
 128:Drivers/STM32F7xx_HAL_Driver/Src/stm32f7xx_hal_dcmi.c ****     [..]  This section provides functions allowing to:
 129:Drivers/STM32F7xx_HAL_Driver/Src/stm32f7xx_hal_dcmi.c ****       (+) Initialize and configure the DCMI
 130:Drivers/STM32F7xx_HAL_Driver/Src/stm32f7xx_hal_dcmi.c ****       (+) De-initialize the DCMI 
 131:Drivers/STM32F7xx_HAL_Driver/Src/stm32f7xx_hal_dcmi.c **** 
 132:Drivers/STM32F7xx_HAL_Driver/Src/stm32f7xx_hal_dcmi.c **** @endverbatim
 133:Drivers/STM32F7xx_HAL_Driver/Src/stm32f7xx_hal_dcmi.c ****   * @{
 134:Drivers/STM32F7xx_HAL_Driver/Src/stm32f7xx_hal_dcmi.c ****   */
 135:Drivers/STM32F7xx_HAL_Driver/Src/stm32f7xx_hal_dcmi.c ****   
 136:Drivers/STM32F7xx_HAL_Driver/Src/stm32f7xx_hal_dcmi.c **** /**
 137:Drivers/STM32F7xx_HAL_Driver/Src/stm32f7xx_hal_dcmi.c ****   * @brief  Initializes the DCMI according to the specified
 138:Drivers/STM32F7xx_HAL_Driver/Src/stm32f7xx_hal_dcmi.c ****   *         parameters in the DCMI_InitTypeDef and create the associated handle.
 139:Drivers/STM32F7xx_HAL_Driver/Src/stm32f7xx_hal_dcmi.c ****   * @param  hdcmi pointer to a DCMI_HandleTypeDef structure that contains
 140:Drivers/STM32F7xx_HAL_Driver/Src/stm32f7xx_hal_dcmi.c ****   *                the configuration information for DCMI.
 141:Drivers/STM32F7xx_HAL_Driver/Src/stm32f7xx_hal_dcmi.c ****   * @retval HAL status
 142:Drivers/STM32F7xx_HAL_Driver/Src/stm32f7xx_hal_dcmi.c ****   */
 143:Drivers/STM32F7xx_HAL_Driver/Src/stm32f7xx_hal_dcmi.c **** HAL_StatusTypeDef HAL_DCMI_Init(DCMI_HandleTypeDef *hdcmi)
 144:Drivers/STM32F7xx_HAL_Driver/Src/stm32f7xx_hal_dcmi.c **** {     
 145:Drivers/STM32F7xx_HAL_Driver/Src/stm32f7xx_hal_dcmi.c ****   /* Check the DCMI peripheral state */
 146:Drivers/STM32F7xx_HAL_Driver/Src/stm32f7xx_hal_dcmi.c ****   if(hdcmi == NULL)
ARM GAS  C:\Users\Patryk\AppData\Local\Temp\ccmZaiys.s 			page 4


 147:Drivers/STM32F7xx_HAL_Driver/Src/stm32f7xx_hal_dcmi.c ****   {
 148:Drivers/STM32F7xx_HAL_Driver/Src/stm32f7xx_hal_dcmi.c ****      return HAL_ERROR;
 149:Drivers/STM32F7xx_HAL_Driver/Src/stm32f7xx_hal_dcmi.c ****   }
 150:Drivers/STM32F7xx_HAL_Driver/Src/stm32f7xx_hal_dcmi.c ****   
 151:Drivers/STM32F7xx_HAL_Driver/Src/stm32f7xx_hal_dcmi.c ****   /* Check function parameters */
 152:Drivers/STM32F7xx_HAL_Driver/Src/stm32f7xx_hal_dcmi.c ****   assert_param(IS_DCMI_ALL_INSTANCE(hdcmi->Instance));
 153:Drivers/STM32F7xx_HAL_Driver/Src/stm32f7xx_hal_dcmi.c ****   assert_param(IS_DCMI_PCKPOLARITY(hdcmi->Init.PCKPolarity));
 154:Drivers/STM32F7xx_HAL_Driver/Src/stm32f7xx_hal_dcmi.c ****   assert_param(IS_DCMI_VSPOLARITY(hdcmi->Init.VSPolarity));
 155:Drivers/STM32F7xx_HAL_Driver/Src/stm32f7xx_hal_dcmi.c ****   assert_param(IS_DCMI_HSPOLARITY(hdcmi->Init.HSPolarity));
 156:Drivers/STM32F7xx_HAL_Driver/Src/stm32f7xx_hal_dcmi.c ****   assert_param(IS_DCMI_SYNCHRO(hdcmi->Init.SynchroMode));
 157:Drivers/STM32F7xx_HAL_Driver/Src/stm32f7xx_hal_dcmi.c ****   assert_param(IS_DCMI_CAPTURE_RATE(hdcmi->Init.CaptureRate));
 158:Drivers/STM32F7xx_HAL_Driver/Src/stm32f7xx_hal_dcmi.c ****   assert_param(IS_DCMI_EXTENDED_DATA(hdcmi->Init.ExtendedDataMode));
 159:Drivers/STM32F7xx_HAL_Driver/Src/stm32f7xx_hal_dcmi.c ****   assert_param(IS_DCMI_MODE_JPEG(hdcmi->Init.JPEGMode));
 160:Drivers/STM32F7xx_HAL_Driver/Src/stm32f7xx_hal_dcmi.c **** 
 161:Drivers/STM32F7xx_HAL_Driver/Src/stm32f7xx_hal_dcmi.c ****   assert_param(IS_DCMI_BYTE_SELECT_MODE(hdcmi->Init.ByteSelectMode));
 162:Drivers/STM32F7xx_HAL_Driver/Src/stm32f7xx_hal_dcmi.c ****   assert_param(IS_DCMI_BYTE_SELECT_START(hdcmi->Init.ByteSelectStart));
 163:Drivers/STM32F7xx_HAL_Driver/Src/stm32f7xx_hal_dcmi.c ****   assert_param(IS_DCMI_LINE_SELECT_MODE(hdcmi->Init.LineSelectMode));
 164:Drivers/STM32F7xx_HAL_Driver/Src/stm32f7xx_hal_dcmi.c ****   assert_param(IS_DCMI_LINE_SELECT_START(hdcmi->Init.LineSelectStart));
 165:Drivers/STM32F7xx_HAL_Driver/Src/stm32f7xx_hal_dcmi.c ****                 
 166:Drivers/STM32F7xx_HAL_Driver/Src/stm32f7xx_hal_dcmi.c ****   if(hdcmi->State == HAL_DCMI_STATE_RESET)
 167:Drivers/STM32F7xx_HAL_Driver/Src/stm32f7xx_hal_dcmi.c ****   {
 168:Drivers/STM32F7xx_HAL_Driver/Src/stm32f7xx_hal_dcmi.c ****     /* Init the low level hardware */
 169:Drivers/STM32F7xx_HAL_Driver/Src/stm32f7xx_hal_dcmi.c ****     HAL_DCMI_MspInit(hdcmi);
 170:Drivers/STM32F7xx_HAL_Driver/Src/stm32f7xx_hal_dcmi.c ****   } 
 171:Drivers/STM32F7xx_HAL_Driver/Src/stm32f7xx_hal_dcmi.c ****   
 172:Drivers/STM32F7xx_HAL_Driver/Src/stm32f7xx_hal_dcmi.c ****   /* Change the DCMI state */
 173:Drivers/STM32F7xx_HAL_Driver/Src/stm32f7xx_hal_dcmi.c ****   hdcmi->State = HAL_DCMI_STATE_BUSY; 
 174:Drivers/STM32F7xx_HAL_Driver/Src/stm32f7xx_hal_dcmi.c ****                           /* Configures the HS, VS, DE and PC polarity */
 175:Drivers/STM32F7xx_HAL_Driver/Src/stm32f7xx_hal_dcmi.c ****   hdcmi->Instance->CR &= ~(DCMI_CR_PCKPOL | DCMI_CR_HSPOL  | DCMI_CR_VSPOL  | DCMI_CR_EDM_0 |\
 176:Drivers/STM32F7xx_HAL_Driver/Src/stm32f7xx_hal_dcmi.c ****                            DCMI_CR_EDM_1  | DCMI_CR_FCRC_0 | DCMI_CR_FCRC_1 | DCMI_CR_JPEG  |\
 177:Drivers/STM32F7xx_HAL_Driver/Src/stm32f7xx_hal_dcmi.c ****                            DCMI_CR_ESS | DCMI_CR_BSM_0 | DCMI_CR_BSM_1 | DCMI_CR_OEBS |\
 178:Drivers/STM32F7xx_HAL_Driver/Src/stm32f7xx_hal_dcmi.c ****                            DCMI_CR_LSM | DCMI_CR_OELS);
 179:Drivers/STM32F7xx_HAL_Driver/Src/stm32f7xx_hal_dcmi.c **** 
 180:Drivers/STM32F7xx_HAL_Driver/Src/stm32f7xx_hal_dcmi.c ****   hdcmi->Instance->CR |=  (uint32_t)(hdcmi->Init.SynchroMode | hdcmi->Init.CaptureRate |\
 181:Drivers/STM32F7xx_HAL_Driver/Src/stm32f7xx_hal_dcmi.c ****                                      hdcmi->Init.VSPolarity  | hdcmi->Init.HSPolarity  |\
 182:Drivers/STM32F7xx_HAL_Driver/Src/stm32f7xx_hal_dcmi.c ****                                      hdcmi->Init.PCKPolarity | hdcmi->Init.ExtendedDataMode |\
 183:Drivers/STM32F7xx_HAL_Driver/Src/stm32f7xx_hal_dcmi.c ****                                      hdcmi->Init.JPEGMode | hdcmi->Init.ByteSelectMode |\
 184:Drivers/STM32F7xx_HAL_Driver/Src/stm32f7xx_hal_dcmi.c ****                                      hdcmi->Init.ByteSelectStart | hdcmi->Init.LineSelectMode |\
 185:Drivers/STM32F7xx_HAL_Driver/Src/stm32f7xx_hal_dcmi.c ****                                      hdcmi->Init.LineSelectStart);
 186:Drivers/STM32F7xx_HAL_Driver/Src/stm32f7xx_hal_dcmi.c ****                                      
 187:Drivers/STM32F7xx_HAL_Driver/Src/stm32f7xx_hal_dcmi.c ****   if(hdcmi->Init.SynchroMode == DCMI_SYNCHRO_EMBEDDED)
 188:Drivers/STM32F7xx_HAL_Driver/Src/stm32f7xx_hal_dcmi.c ****   {
 189:Drivers/STM32F7xx_HAL_Driver/Src/stm32f7xx_hal_dcmi.c ****     hdcmi->Instance->ESCR = (((uint32_t)hdcmi->Init.SyncroCode.FrameStartCode)    |\
 190:Drivers/STM32F7xx_HAL_Driver/Src/stm32f7xx_hal_dcmi.c ****                              ((uint32_t)hdcmi->Init.SyncroCode.LineStartCode << DCMI_ESCR_LSC_Pos)|
 191:Drivers/STM32F7xx_HAL_Driver/Src/stm32f7xx_hal_dcmi.c ****                              ((uint32_t)hdcmi->Init.SyncroCode.LineEndCode << DCMI_ESCR_LEC_Pos) |\
 192:Drivers/STM32F7xx_HAL_Driver/Src/stm32f7xx_hal_dcmi.c ****                              ((uint32_t)hdcmi->Init.SyncroCode.FrameEndCode << DCMI_ESCR_FEC_Pos));
 193:Drivers/STM32F7xx_HAL_Driver/Src/stm32f7xx_hal_dcmi.c **** 
 194:Drivers/STM32F7xx_HAL_Driver/Src/stm32f7xx_hal_dcmi.c ****   }
 195:Drivers/STM32F7xx_HAL_Driver/Src/stm32f7xx_hal_dcmi.c **** 
 196:Drivers/STM32F7xx_HAL_Driver/Src/stm32f7xx_hal_dcmi.c ****   /* Enable the Line, Vsync, Error and Overrun interrupts */
 197:Drivers/STM32F7xx_HAL_Driver/Src/stm32f7xx_hal_dcmi.c ****   __HAL_DCMI_ENABLE_IT(hdcmi, DCMI_IT_LINE | DCMI_IT_VSYNC | DCMI_IT_ERR | DCMI_IT_OVR);
 198:Drivers/STM32F7xx_HAL_Driver/Src/stm32f7xx_hal_dcmi.c **** 
 199:Drivers/STM32F7xx_HAL_Driver/Src/stm32f7xx_hal_dcmi.c ****   /* Update error code */
 200:Drivers/STM32F7xx_HAL_Driver/Src/stm32f7xx_hal_dcmi.c ****   hdcmi->ErrorCode = HAL_DCMI_ERROR_NONE;
 201:Drivers/STM32F7xx_HAL_Driver/Src/stm32f7xx_hal_dcmi.c ****   
 202:Drivers/STM32F7xx_HAL_Driver/Src/stm32f7xx_hal_dcmi.c ****   /* Initialize the DCMI state*/
 203:Drivers/STM32F7xx_HAL_Driver/Src/stm32f7xx_hal_dcmi.c ****   hdcmi->State  = HAL_DCMI_STATE_READY;
ARM GAS  C:\Users\Patryk\AppData\Local\Temp\ccmZaiys.s 			page 5


 204:Drivers/STM32F7xx_HAL_Driver/Src/stm32f7xx_hal_dcmi.c **** 
 205:Drivers/STM32F7xx_HAL_Driver/Src/stm32f7xx_hal_dcmi.c ****   return HAL_OK;
 206:Drivers/STM32F7xx_HAL_Driver/Src/stm32f7xx_hal_dcmi.c **** }
 207:Drivers/STM32F7xx_HAL_Driver/Src/stm32f7xx_hal_dcmi.c **** 
 208:Drivers/STM32F7xx_HAL_Driver/Src/stm32f7xx_hal_dcmi.c **** /**
 209:Drivers/STM32F7xx_HAL_Driver/Src/stm32f7xx_hal_dcmi.c ****   * @brief  Deinitializes the DCMI peripheral registers to their default reset
 210:Drivers/STM32F7xx_HAL_Driver/Src/stm32f7xx_hal_dcmi.c ****   *         values.
 211:Drivers/STM32F7xx_HAL_Driver/Src/stm32f7xx_hal_dcmi.c ****   * @param  hdcmi pointer to a DCMI_HandleTypeDef structure that contains
 212:Drivers/STM32F7xx_HAL_Driver/Src/stm32f7xx_hal_dcmi.c ****   *                the configuration information for DCMI.
 213:Drivers/STM32F7xx_HAL_Driver/Src/stm32f7xx_hal_dcmi.c ****   * @retval HAL status
 214:Drivers/STM32F7xx_HAL_Driver/Src/stm32f7xx_hal_dcmi.c ****   */
 215:Drivers/STM32F7xx_HAL_Driver/Src/stm32f7xx_hal_dcmi.c **** 
 216:Drivers/STM32F7xx_HAL_Driver/Src/stm32f7xx_hal_dcmi.c **** HAL_StatusTypeDef HAL_DCMI_DeInit(DCMI_HandleTypeDef *hdcmi)
 217:Drivers/STM32F7xx_HAL_Driver/Src/stm32f7xx_hal_dcmi.c **** {
 218:Drivers/STM32F7xx_HAL_Driver/Src/stm32f7xx_hal_dcmi.c ****   /* DeInit the low level hardware */
 219:Drivers/STM32F7xx_HAL_Driver/Src/stm32f7xx_hal_dcmi.c ****   HAL_DCMI_MspDeInit(hdcmi);
 220:Drivers/STM32F7xx_HAL_Driver/Src/stm32f7xx_hal_dcmi.c **** 
 221:Drivers/STM32F7xx_HAL_Driver/Src/stm32f7xx_hal_dcmi.c ****   /* Update error code */
 222:Drivers/STM32F7xx_HAL_Driver/Src/stm32f7xx_hal_dcmi.c ****   hdcmi->ErrorCode = HAL_DCMI_ERROR_NONE;
 223:Drivers/STM32F7xx_HAL_Driver/Src/stm32f7xx_hal_dcmi.c **** 
 224:Drivers/STM32F7xx_HAL_Driver/Src/stm32f7xx_hal_dcmi.c ****   /* Initialize the DCMI state*/
 225:Drivers/STM32F7xx_HAL_Driver/Src/stm32f7xx_hal_dcmi.c ****   hdcmi->State = HAL_DCMI_STATE_RESET;
 226:Drivers/STM32F7xx_HAL_Driver/Src/stm32f7xx_hal_dcmi.c **** 
 227:Drivers/STM32F7xx_HAL_Driver/Src/stm32f7xx_hal_dcmi.c ****   /* Release Lock */
 228:Drivers/STM32F7xx_HAL_Driver/Src/stm32f7xx_hal_dcmi.c ****   __HAL_UNLOCK(hdcmi);
 229:Drivers/STM32F7xx_HAL_Driver/Src/stm32f7xx_hal_dcmi.c **** 
 230:Drivers/STM32F7xx_HAL_Driver/Src/stm32f7xx_hal_dcmi.c ****   return HAL_OK;
 231:Drivers/STM32F7xx_HAL_Driver/Src/stm32f7xx_hal_dcmi.c **** }
 232:Drivers/STM32F7xx_HAL_Driver/Src/stm32f7xx_hal_dcmi.c **** 
 233:Drivers/STM32F7xx_HAL_Driver/Src/stm32f7xx_hal_dcmi.c **** /**
 234:Drivers/STM32F7xx_HAL_Driver/Src/stm32f7xx_hal_dcmi.c ****   * @brief  Initializes the DCMI MSP.
 235:Drivers/STM32F7xx_HAL_Driver/Src/stm32f7xx_hal_dcmi.c ****   * @param  hdcmi pointer to a DCMI_HandleTypeDef structure that contains
 236:Drivers/STM32F7xx_HAL_Driver/Src/stm32f7xx_hal_dcmi.c ****   *                the configuration information for DCMI.
 237:Drivers/STM32F7xx_HAL_Driver/Src/stm32f7xx_hal_dcmi.c ****   * @retval None
 238:Drivers/STM32F7xx_HAL_Driver/Src/stm32f7xx_hal_dcmi.c ****   */
 239:Drivers/STM32F7xx_HAL_Driver/Src/stm32f7xx_hal_dcmi.c **** __weak void HAL_DCMI_MspInit(DCMI_HandleTypeDef* hdcmi)
 240:Drivers/STM32F7xx_HAL_Driver/Src/stm32f7xx_hal_dcmi.c **** {
 241:Drivers/STM32F7xx_HAL_Driver/Src/stm32f7xx_hal_dcmi.c ****   /* Prevent unused argument(s) compilation warning */
 242:Drivers/STM32F7xx_HAL_Driver/Src/stm32f7xx_hal_dcmi.c ****   UNUSED(hdcmi);
 243:Drivers/STM32F7xx_HAL_Driver/Src/stm32f7xx_hal_dcmi.c ****  
 244:Drivers/STM32F7xx_HAL_Driver/Src/stm32f7xx_hal_dcmi.c ****   /* NOTE : This function Should not be modified, when the callback is needed,
 245:Drivers/STM32F7xx_HAL_Driver/Src/stm32f7xx_hal_dcmi.c ****             the HAL_DCMI_MspInit could be implemented in the user file
 246:Drivers/STM32F7xx_HAL_Driver/Src/stm32f7xx_hal_dcmi.c ****    */ 
 247:Drivers/STM32F7xx_HAL_Driver/Src/stm32f7xx_hal_dcmi.c **** }
 248:Drivers/STM32F7xx_HAL_Driver/Src/stm32f7xx_hal_dcmi.c **** 
 249:Drivers/STM32F7xx_HAL_Driver/Src/stm32f7xx_hal_dcmi.c **** /**
 250:Drivers/STM32F7xx_HAL_Driver/Src/stm32f7xx_hal_dcmi.c ****   * @brief  DeInitializes the DCMI MSP.
 251:Drivers/STM32F7xx_HAL_Driver/Src/stm32f7xx_hal_dcmi.c ****   * @param  hdcmi pointer to a DCMI_HandleTypeDef structure that contains
 252:Drivers/STM32F7xx_HAL_Driver/Src/stm32f7xx_hal_dcmi.c ****   *                the configuration information for DCMI.
 253:Drivers/STM32F7xx_HAL_Driver/Src/stm32f7xx_hal_dcmi.c ****   * @retval None
 254:Drivers/STM32F7xx_HAL_Driver/Src/stm32f7xx_hal_dcmi.c ****   */
 255:Drivers/STM32F7xx_HAL_Driver/Src/stm32f7xx_hal_dcmi.c **** __weak void HAL_DCMI_MspDeInit(DCMI_HandleTypeDef* hdcmi)
 256:Drivers/STM32F7xx_HAL_Driver/Src/stm32f7xx_hal_dcmi.c **** {
 257:Drivers/STM32F7xx_HAL_Driver/Src/stm32f7xx_hal_dcmi.c ****   /* Prevent unused argument(s) compilation warning */
 258:Drivers/STM32F7xx_HAL_Driver/Src/stm32f7xx_hal_dcmi.c ****   UNUSED(hdcmi);
 259:Drivers/STM32F7xx_HAL_Driver/Src/stm32f7xx_hal_dcmi.c ****  
 260:Drivers/STM32F7xx_HAL_Driver/Src/stm32f7xx_hal_dcmi.c ****   /* NOTE : This function Should not be modified, when the callback is needed,
ARM GAS  C:\Users\Patryk\AppData\Local\Temp\ccmZaiys.s 			page 6


 261:Drivers/STM32F7xx_HAL_Driver/Src/stm32f7xx_hal_dcmi.c ****             the HAL_DCMI_MspDeInit could be implemented in the user file
 262:Drivers/STM32F7xx_HAL_Driver/Src/stm32f7xx_hal_dcmi.c ****    */
 263:Drivers/STM32F7xx_HAL_Driver/Src/stm32f7xx_hal_dcmi.c **** }
 264:Drivers/STM32F7xx_HAL_Driver/Src/stm32f7xx_hal_dcmi.c **** 
 265:Drivers/STM32F7xx_HAL_Driver/Src/stm32f7xx_hal_dcmi.c **** /**
 266:Drivers/STM32F7xx_HAL_Driver/Src/stm32f7xx_hal_dcmi.c ****   * @}
 267:Drivers/STM32F7xx_HAL_Driver/Src/stm32f7xx_hal_dcmi.c ****   */
 268:Drivers/STM32F7xx_HAL_Driver/Src/stm32f7xx_hal_dcmi.c **** /** @defgroup DCMI_Exported_Functions_Group2 IO operation functions 
 269:Drivers/STM32F7xx_HAL_Driver/Src/stm32f7xx_hal_dcmi.c ****  *  @brief   IO operation functions  
 270:Drivers/STM32F7xx_HAL_Driver/Src/stm32f7xx_hal_dcmi.c ****  *
 271:Drivers/STM32F7xx_HAL_Driver/Src/stm32f7xx_hal_dcmi.c **** @verbatim   
 272:Drivers/STM32F7xx_HAL_Driver/Src/stm32f7xx_hal_dcmi.c ****  ===============================================================================
 273:Drivers/STM32F7xx_HAL_Driver/Src/stm32f7xx_hal_dcmi.c ****                       #####  IO operation functions  #####
 274:Drivers/STM32F7xx_HAL_Driver/Src/stm32f7xx_hal_dcmi.c ****  ===============================================================================  
 275:Drivers/STM32F7xx_HAL_Driver/Src/stm32f7xx_hal_dcmi.c ****     [..]  This section provides functions allowing to:
 276:Drivers/STM32F7xx_HAL_Driver/Src/stm32f7xx_hal_dcmi.c ****       (+) Configure destination address and data length and 
 277:Drivers/STM32F7xx_HAL_Driver/Src/stm32f7xx_hal_dcmi.c ****           Enables DCMI DMA request and enables DCMI capture
 278:Drivers/STM32F7xx_HAL_Driver/Src/stm32f7xx_hal_dcmi.c ****       (+) Stop the DCMI capture.
 279:Drivers/STM32F7xx_HAL_Driver/Src/stm32f7xx_hal_dcmi.c ****       (+) Handles DCMI interrupt request.
 280:Drivers/STM32F7xx_HAL_Driver/Src/stm32f7xx_hal_dcmi.c **** 
 281:Drivers/STM32F7xx_HAL_Driver/Src/stm32f7xx_hal_dcmi.c **** @endverbatim
 282:Drivers/STM32F7xx_HAL_Driver/Src/stm32f7xx_hal_dcmi.c ****   * @{
 283:Drivers/STM32F7xx_HAL_Driver/Src/stm32f7xx_hal_dcmi.c ****   */
 284:Drivers/STM32F7xx_HAL_Driver/Src/stm32f7xx_hal_dcmi.c **** 
 285:Drivers/STM32F7xx_HAL_Driver/Src/stm32f7xx_hal_dcmi.c **** /**
 286:Drivers/STM32F7xx_HAL_Driver/Src/stm32f7xx_hal_dcmi.c ****   * @brief  Enables DCMI DMA request and enables DCMI capture  
 287:Drivers/STM32F7xx_HAL_Driver/Src/stm32f7xx_hal_dcmi.c ****   * @param  hdcmi     pointer to a DCMI_HandleTypeDef structure that contains
 288:Drivers/STM32F7xx_HAL_Driver/Src/stm32f7xx_hal_dcmi.c ****   *                    the configuration information for DCMI.
 289:Drivers/STM32F7xx_HAL_Driver/Src/stm32f7xx_hal_dcmi.c ****   * @param  DCMI_Mode DCMI capture mode snapshot or continuous grab.
 290:Drivers/STM32F7xx_HAL_Driver/Src/stm32f7xx_hal_dcmi.c ****   * @param  pData     The destination memory Buffer address (LCD Frame buffer).
 291:Drivers/STM32F7xx_HAL_Driver/Src/stm32f7xx_hal_dcmi.c ****   * @param  Length    The length of capture to be transferred.
 292:Drivers/STM32F7xx_HAL_Driver/Src/stm32f7xx_hal_dcmi.c ****   * @retval HAL status
 293:Drivers/STM32F7xx_HAL_Driver/Src/stm32f7xx_hal_dcmi.c ****   */
 294:Drivers/STM32F7xx_HAL_Driver/Src/stm32f7xx_hal_dcmi.c **** HAL_StatusTypeDef HAL_DCMI_Start_DMA(DCMI_HandleTypeDef* hdcmi, uint32_t DCMI_Mode, uint32_t pData,
 295:Drivers/STM32F7xx_HAL_Driver/Src/stm32f7xx_hal_dcmi.c **** {  
 296:Drivers/STM32F7xx_HAL_Driver/Src/stm32f7xx_hal_dcmi.c ****   /* Initialize the second memory address */
 297:Drivers/STM32F7xx_HAL_Driver/Src/stm32f7xx_hal_dcmi.c ****   uint32_t SecondMemAddress = 0;
 298:Drivers/STM32F7xx_HAL_Driver/Src/stm32f7xx_hal_dcmi.c **** 
 299:Drivers/STM32F7xx_HAL_Driver/Src/stm32f7xx_hal_dcmi.c ****   /* Check function parameters */
 300:Drivers/STM32F7xx_HAL_Driver/Src/stm32f7xx_hal_dcmi.c ****   assert_param(IS_DCMI_CAPTURE_MODE(DCMI_Mode));
 301:Drivers/STM32F7xx_HAL_Driver/Src/stm32f7xx_hal_dcmi.c **** 
 302:Drivers/STM32F7xx_HAL_Driver/Src/stm32f7xx_hal_dcmi.c ****   /* Process Locked */
 303:Drivers/STM32F7xx_HAL_Driver/Src/stm32f7xx_hal_dcmi.c ****   __HAL_LOCK(hdcmi);
 304:Drivers/STM32F7xx_HAL_Driver/Src/stm32f7xx_hal_dcmi.c ****   
 305:Drivers/STM32F7xx_HAL_Driver/Src/stm32f7xx_hal_dcmi.c ****   /* Lock the DCMI peripheral state */
 306:Drivers/STM32F7xx_HAL_Driver/Src/stm32f7xx_hal_dcmi.c ****   hdcmi->State = HAL_DCMI_STATE_BUSY;
 307:Drivers/STM32F7xx_HAL_Driver/Src/stm32f7xx_hal_dcmi.c **** 
 308:Drivers/STM32F7xx_HAL_Driver/Src/stm32f7xx_hal_dcmi.c ****   /* Enable DCMI by setting DCMIEN bit */
 309:Drivers/STM32F7xx_HAL_Driver/Src/stm32f7xx_hal_dcmi.c ****   __HAL_DCMI_ENABLE(hdcmi);
 310:Drivers/STM32F7xx_HAL_Driver/Src/stm32f7xx_hal_dcmi.c ****   
 311:Drivers/STM32F7xx_HAL_Driver/Src/stm32f7xx_hal_dcmi.c ****   /* Configure the DCMI Mode */
 312:Drivers/STM32F7xx_HAL_Driver/Src/stm32f7xx_hal_dcmi.c ****   hdcmi->Instance->CR &= ~(DCMI_CR_CM);
 313:Drivers/STM32F7xx_HAL_Driver/Src/stm32f7xx_hal_dcmi.c ****   hdcmi->Instance->CR |=  (uint32_t)(DCMI_Mode);
 314:Drivers/STM32F7xx_HAL_Driver/Src/stm32f7xx_hal_dcmi.c **** 
 315:Drivers/STM32F7xx_HAL_Driver/Src/stm32f7xx_hal_dcmi.c ****   /* Set the DMA memory0 conversion complete callback */
 316:Drivers/STM32F7xx_HAL_Driver/Src/stm32f7xx_hal_dcmi.c ****   hdcmi->DMA_Handle->XferCpltCallback = DCMI_DMAXferCplt;
 317:Drivers/STM32F7xx_HAL_Driver/Src/stm32f7xx_hal_dcmi.c **** 
ARM GAS  C:\Users\Patryk\AppData\Local\Temp\ccmZaiys.s 			page 7


 318:Drivers/STM32F7xx_HAL_Driver/Src/stm32f7xx_hal_dcmi.c ****   /* Set the DMA error callback */
 319:Drivers/STM32F7xx_HAL_Driver/Src/stm32f7xx_hal_dcmi.c ****   hdcmi->DMA_Handle->XferErrorCallback = DCMI_DMAError;
 320:Drivers/STM32F7xx_HAL_Driver/Src/stm32f7xx_hal_dcmi.c **** 
 321:Drivers/STM32F7xx_HAL_Driver/Src/stm32f7xx_hal_dcmi.c ****   /* Set the dma abort callback */
 322:Drivers/STM32F7xx_HAL_Driver/Src/stm32f7xx_hal_dcmi.c ****   hdcmi->DMA_Handle->XferAbortCallback = NULL;
 323:Drivers/STM32F7xx_HAL_Driver/Src/stm32f7xx_hal_dcmi.c **** 
 324:Drivers/STM32F7xx_HAL_Driver/Src/stm32f7xx_hal_dcmi.c ****   /* Reset transfer counters value */ 
 325:Drivers/STM32F7xx_HAL_Driver/Src/stm32f7xx_hal_dcmi.c ****   hdcmi->XferCount = 0;
 326:Drivers/STM32F7xx_HAL_Driver/Src/stm32f7xx_hal_dcmi.c ****   hdcmi->XferTransferNumber = 0;
 327:Drivers/STM32F7xx_HAL_Driver/Src/stm32f7xx_hal_dcmi.c ****   
 328:Drivers/STM32F7xx_HAL_Driver/Src/stm32f7xx_hal_dcmi.c ****   if(Length <= 0xFFFF)
 329:Drivers/STM32F7xx_HAL_Driver/Src/stm32f7xx_hal_dcmi.c ****   {
 330:Drivers/STM32F7xx_HAL_Driver/Src/stm32f7xx_hal_dcmi.c ****     /* Enable the DMA Stream */
 331:Drivers/STM32F7xx_HAL_Driver/Src/stm32f7xx_hal_dcmi.c ****     HAL_DMA_Start_IT(hdcmi->DMA_Handle, (uint32_t)&hdcmi->Instance->DR, (uint32_t)pData, Length);
 332:Drivers/STM32F7xx_HAL_Driver/Src/stm32f7xx_hal_dcmi.c ****   }
 333:Drivers/STM32F7xx_HAL_Driver/Src/stm32f7xx_hal_dcmi.c ****   else /* DCMI_DOUBLE_BUFFER Mode */
 334:Drivers/STM32F7xx_HAL_Driver/Src/stm32f7xx_hal_dcmi.c ****   {
 335:Drivers/STM32F7xx_HAL_Driver/Src/stm32f7xx_hal_dcmi.c ****     /* Set the DMA memory1 conversion complete callback */
 336:Drivers/STM32F7xx_HAL_Driver/Src/stm32f7xx_hal_dcmi.c ****     hdcmi->DMA_Handle->XferM1CpltCallback = DCMI_DMAXferCplt; 
 337:Drivers/STM32F7xx_HAL_Driver/Src/stm32f7xx_hal_dcmi.c **** 
 338:Drivers/STM32F7xx_HAL_Driver/Src/stm32f7xx_hal_dcmi.c ****     /* Initialize transfer parameters */
 339:Drivers/STM32F7xx_HAL_Driver/Src/stm32f7xx_hal_dcmi.c ****     hdcmi->XferCount = 1;
 340:Drivers/STM32F7xx_HAL_Driver/Src/stm32f7xx_hal_dcmi.c ****     hdcmi->XferSize = Length;
 341:Drivers/STM32F7xx_HAL_Driver/Src/stm32f7xx_hal_dcmi.c ****     hdcmi->pBuffPtr = pData;
 342:Drivers/STM32F7xx_HAL_Driver/Src/stm32f7xx_hal_dcmi.c ****       
 343:Drivers/STM32F7xx_HAL_Driver/Src/stm32f7xx_hal_dcmi.c ****     /* Get the number of buffer */
 344:Drivers/STM32F7xx_HAL_Driver/Src/stm32f7xx_hal_dcmi.c ****     while(hdcmi->XferSize > 0xFFFF)
 345:Drivers/STM32F7xx_HAL_Driver/Src/stm32f7xx_hal_dcmi.c ****     {
 346:Drivers/STM32F7xx_HAL_Driver/Src/stm32f7xx_hal_dcmi.c ****       hdcmi->XferSize = (hdcmi->XferSize/2);
 347:Drivers/STM32F7xx_HAL_Driver/Src/stm32f7xx_hal_dcmi.c ****       hdcmi->XferCount = hdcmi->XferCount*2;
 348:Drivers/STM32F7xx_HAL_Driver/Src/stm32f7xx_hal_dcmi.c ****     }
 349:Drivers/STM32F7xx_HAL_Driver/Src/stm32f7xx_hal_dcmi.c **** 
 350:Drivers/STM32F7xx_HAL_Driver/Src/stm32f7xx_hal_dcmi.c ****     /* Update DCMI counter  and transfer number*/
 351:Drivers/STM32F7xx_HAL_Driver/Src/stm32f7xx_hal_dcmi.c ****     hdcmi->XferCount = (hdcmi->XferCount - 2);
 352:Drivers/STM32F7xx_HAL_Driver/Src/stm32f7xx_hal_dcmi.c ****     hdcmi->XferTransferNumber = hdcmi->XferCount;
 353:Drivers/STM32F7xx_HAL_Driver/Src/stm32f7xx_hal_dcmi.c **** 
 354:Drivers/STM32F7xx_HAL_Driver/Src/stm32f7xx_hal_dcmi.c ****     /* Update second memory address */
 355:Drivers/STM32F7xx_HAL_Driver/Src/stm32f7xx_hal_dcmi.c ****     SecondMemAddress = (uint32_t)(pData + (4*hdcmi->XferSize));
 356:Drivers/STM32F7xx_HAL_Driver/Src/stm32f7xx_hal_dcmi.c **** 
 357:Drivers/STM32F7xx_HAL_Driver/Src/stm32f7xx_hal_dcmi.c ****     /* Start DMA multi buffer transfer */
 358:Drivers/STM32F7xx_HAL_Driver/Src/stm32f7xx_hal_dcmi.c ****     HAL_DMAEx_MultiBufferStart_IT(hdcmi->DMA_Handle, (uint32_t)&hdcmi->Instance->DR, (uint32_t)pDat
 359:Drivers/STM32F7xx_HAL_Driver/Src/stm32f7xx_hal_dcmi.c ****   }
 360:Drivers/STM32F7xx_HAL_Driver/Src/stm32f7xx_hal_dcmi.c ****   
 361:Drivers/STM32F7xx_HAL_Driver/Src/stm32f7xx_hal_dcmi.c ****   /* Enable Capture */
 362:Drivers/STM32F7xx_HAL_Driver/Src/stm32f7xx_hal_dcmi.c ****   hdcmi->Instance->CR |= DCMI_CR_CAPTURE;
 363:Drivers/STM32F7xx_HAL_Driver/Src/stm32f7xx_hal_dcmi.c **** 
 364:Drivers/STM32F7xx_HAL_Driver/Src/stm32f7xx_hal_dcmi.c ****   /* Release Lock */
 365:Drivers/STM32F7xx_HAL_Driver/Src/stm32f7xx_hal_dcmi.c ****   __HAL_UNLOCK(hdcmi);
 366:Drivers/STM32F7xx_HAL_Driver/Src/stm32f7xx_hal_dcmi.c **** 
 367:Drivers/STM32F7xx_HAL_Driver/Src/stm32f7xx_hal_dcmi.c ****   /* Return function status */
 368:Drivers/STM32F7xx_HAL_Driver/Src/stm32f7xx_hal_dcmi.c ****   return HAL_OK;
 369:Drivers/STM32F7xx_HAL_Driver/Src/stm32f7xx_hal_dcmi.c **** }
 370:Drivers/STM32F7xx_HAL_Driver/Src/stm32f7xx_hal_dcmi.c **** 
 371:Drivers/STM32F7xx_HAL_Driver/Src/stm32f7xx_hal_dcmi.c **** /**
 372:Drivers/STM32F7xx_HAL_Driver/Src/stm32f7xx_hal_dcmi.c ****   * @brief  Disable DCMI DMA request and Disable DCMI capture  
 373:Drivers/STM32F7xx_HAL_Driver/Src/stm32f7xx_hal_dcmi.c ****   * @param  hdcmi pointer to a DCMI_HandleTypeDef structure that contains
 374:Drivers/STM32F7xx_HAL_Driver/Src/stm32f7xx_hal_dcmi.c ****   *                the configuration information for DCMI. 
ARM GAS  C:\Users\Patryk\AppData\Local\Temp\ccmZaiys.s 			page 8


 375:Drivers/STM32F7xx_HAL_Driver/Src/stm32f7xx_hal_dcmi.c ****   * @retval HAL status     
 376:Drivers/STM32F7xx_HAL_Driver/Src/stm32f7xx_hal_dcmi.c ****   */
 377:Drivers/STM32F7xx_HAL_Driver/Src/stm32f7xx_hal_dcmi.c **** HAL_StatusTypeDef HAL_DCMI_Stop(DCMI_HandleTypeDef* hdcmi)
 378:Drivers/STM32F7xx_HAL_Driver/Src/stm32f7xx_hal_dcmi.c **** {
 379:Drivers/STM32F7xx_HAL_Driver/Src/stm32f7xx_hal_dcmi.c ****   register uint32_t count = HAL_TIMEOUT_DCMI_STOP * (SystemCoreClock /8/1000);
 380:Drivers/STM32F7xx_HAL_Driver/Src/stm32f7xx_hal_dcmi.c ****   HAL_StatusTypeDef status = HAL_OK;
 381:Drivers/STM32F7xx_HAL_Driver/Src/stm32f7xx_hal_dcmi.c **** 
 382:Drivers/STM32F7xx_HAL_Driver/Src/stm32f7xx_hal_dcmi.c ****   /* Process locked */
 383:Drivers/STM32F7xx_HAL_Driver/Src/stm32f7xx_hal_dcmi.c ****   __HAL_LOCK(hdcmi);
 384:Drivers/STM32F7xx_HAL_Driver/Src/stm32f7xx_hal_dcmi.c ****   
 385:Drivers/STM32F7xx_HAL_Driver/Src/stm32f7xx_hal_dcmi.c ****   /* Lock the DCMI peripheral state */
 386:Drivers/STM32F7xx_HAL_Driver/Src/stm32f7xx_hal_dcmi.c ****   hdcmi->State = HAL_DCMI_STATE_BUSY;
 387:Drivers/STM32F7xx_HAL_Driver/Src/stm32f7xx_hal_dcmi.c **** 
 388:Drivers/STM32F7xx_HAL_Driver/Src/stm32f7xx_hal_dcmi.c ****   /* Disable Capture */
 389:Drivers/STM32F7xx_HAL_Driver/Src/stm32f7xx_hal_dcmi.c ****   hdcmi->Instance->CR &= ~(DCMI_CR_CAPTURE);
 390:Drivers/STM32F7xx_HAL_Driver/Src/stm32f7xx_hal_dcmi.c **** 
 391:Drivers/STM32F7xx_HAL_Driver/Src/stm32f7xx_hal_dcmi.c ****   /* Check if the DCMI capture effectively disabled */
 392:Drivers/STM32F7xx_HAL_Driver/Src/stm32f7xx_hal_dcmi.c ****   do
 393:Drivers/STM32F7xx_HAL_Driver/Src/stm32f7xx_hal_dcmi.c ****   {
 394:Drivers/STM32F7xx_HAL_Driver/Src/stm32f7xx_hal_dcmi.c ****     if (count-- == 0)
 395:Drivers/STM32F7xx_HAL_Driver/Src/stm32f7xx_hal_dcmi.c ****     {
 396:Drivers/STM32F7xx_HAL_Driver/Src/stm32f7xx_hal_dcmi.c ****       /* Update error code */
 397:Drivers/STM32F7xx_HAL_Driver/Src/stm32f7xx_hal_dcmi.c ****       hdcmi->ErrorCode |= HAL_DCMI_ERROR_TIMEOUT;
 398:Drivers/STM32F7xx_HAL_Driver/Src/stm32f7xx_hal_dcmi.c ****       
 399:Drivers/STM32F7xx_HAL_Driver/Src/stm32f7xx_hal_dcmi.c ****       status = HAL_TIMEOUT;
 400:Drivers/STM32F7xx_HAL_Driver/Src/stm32f7xx_hal_dcmi.c ****       break;
 401:Drivers/STM32F7xx_HAL_Driver/Src/stm32f7xx_hal_dcmi.c ****     } 
 402:Drivers/STM32F7xx_HAL_Driver/Src/stm32f7xx_hal_dcmi.c ****   }
 403:Drivers/STM32F7xx_HAL_Driver/Src/stm32f7xx_hal_dcmi.c ****   while((hdcmi->Instance->CR & DCMI_CR_CAPTURE) != 0);
 404:Drivers/STM32F7xx_HAL_Driver/Src/stm32f7xx_hal_dcmi.c **** 
 405:Drivers/STM32F7xx_HAL_Driver/Src/stm32f7xx_hal_dcmi.c ****   /* Disable the DCMI */
 406:Drivers/STM32F7xx_HAL_Driver/Src/stm32f7xx_hal_dcmi.c ****   __HAL_DCMI_DISABLE(hdcmi);
 407:Drivers/STM32F7xx_HAL_Driver/Src/stm32f7xx_hal_dcmi.c **** 
 408:Drivers/STM32F7xx_HAL_Driver/Src/stm32f7xx_hal_dcmi.c ****   /* Disable the DMA */
 409:Drivers/STM32F7xx_HAL_Driver/Src/stm32f7xx_hal_dcmi.c ****   HAL_DMA_Abort(hdcmi->DMA_Handle);
 410:Drivers/STM32F7xx_HAL_Driver/Src/stm32f7xx_hal_dcmi.c **** 
 411:Drivers/STM32F7xx_HAL_Driver/Src/stm32f7xx_hal_dcmi.c ****   /* Update error code */
 412:Drivers/STM32F7xx_HAL_Driver/Src/stm32f7xx_hal_dcmi.c ****   hdcmi->ErrorCode |= HAL_DCMI_ERROR_NONE;
 413:Drivers/STM32F7xx_HAL_Driver/Src/stm32f7xx_hal_dcmi.c **** 
 414:Drivers/STM32F7xx_HAL_Driver/Src/stm32f7xx_hal_dcmi.c ****   /* Change DCMI state */
 415:Drivers/STM32F7xx_HAL_Driver/Src/stm32f7xx_hal_dcmi.c ****   hdcmi->State = HAL_DCMI_STATE_READY;
 416:Drivers/STM32F7xx_HAL_Driver/Src/stm32f7xx_hal_dcmi.c **** 
 417:Drivers/STM32F7xx_HAL_Driver/Src/stm32f7xx_hal_dcmi.c ****   /* Process Unlocked */
 418:Drivers/STM32F7xx_HAL_Driver/Src/stm32f7xx_hal_dcmi.c ****   __HAL_UNLOCK(hdcmi);
 419:Drivers/STM32F7xx_HAL_Driver/Src/stm32f7xx_hal_dcmi.c **** 
 420:Drivers/STM32F7xx_HAL_Driver/Src/stm32f7xx_hal_dcmi.c ****   /* Return function status */
 421:Drivers/STM32F7xx_HAL_Driver/Src/stm32f7xx_hal_dcmi.c ****   return status;
 422:Drivers/STM32F7xx_HAL_Driver/Src/stm32f7xx_hal_dcmi.c **** }
 423:Drivers/STM32F7xx_HAL_Driver/Src/stm32f7xx_hal_dcmi.c **** 
 424:Drivers/STM32F7xx_HAL_Driver/Src/stm32f7xx_hal_dcmi.c **** /**
 425:Drivers/STM32F7xx_HAL_Driver/Src/stm32f7xx_hal_dcmi.c ****   * @brief  Suspend DCMI capture  
 426:Drivers/STM32F7xx_HAL_Driver/Src/stm32f7xx_hal_dcmi.c ****   * @param  hdcmi pointer to a DCMI_HandleTypeDef structure that contains
 427:Drivers/STM32F7xx_HAL_Driver/Src/stm32f7xx_hal_dcmi.c ****   *                the configuration information for DCMI. 
 428:Drivers/STM32F7xx_HAL_Driver/Src/stm32f7xx_hal_dcmi.c ****   * @retval HAL status     
 429:Drivers/STM32F7xx_HAL_Driver/Src/stm32f7xx_hal_dcmi.c ****   */
 430:Drivers/STM32F7xx_HAL_Driver/Src/stm32f7xx_hal_dcmi.c **** HAL_StatusTypeDef HAL_DCMI_Suspend(DCMI_HandleTypeDef* hdcmi)
 431:Drivers/STM32F7xx_HAL_Driver/Src/stm32f7xx_hal_dcmi.c **** {
ARM GAS  C:\Users\Patryk\AppData\Local\Temp\ccmZaiys.s 			page 9


 432:Drivers/STM32F7xx_HAL_Driver/Src/stm32f7xx_hal_dcmi.c ****   register uint32_t count = HAL_TIMEOUT_DCMI_STOP * (SystemCoreClock /8/1000);
 433:Drivers/STM32F7xx_HAL_Driver/Src/stm32f7xx_hal_dcmi.c ****   HAL_StatusTypeDef status = HAL_OK;
 434:Drivers/STM32F7xx_HAL_Driver/Src/stm32f7xx_hal_dcmi.c **** 
 435:Drivers/STM32F7xx_HAL_Driver/Src/stm32f7xx_hal_dcmi.c ****   /* Process locked */
 436:Drivers/STM32F7xx_HAL_Driver/Src/stm32f7xx_hal_dcmi.c ****   __HAL_LOCK(hdcmi);
 437:Drivers/STM32F7xx_HAL_Driver/Src/stm32f7xx_hal_dcmi.c **** 
 438:Drivers/STM32F7xx_HAL_Driver/Src/stm32f7xx_hal_dcmi.c ****   if(hdcmi->State == HAL_DCMI_STATE_BUSY)
 439:Drivers/STM32F7xx_HAL_Driver/Src/stm32f7xx_hal_dcmi.c ****   {
 440:Drivers/STM32F7xx_HAL_Driver/Src/stm32f7xx_hal_dcmi.c ****     /* Change DCMI state */
 441:Drivers/STM32F7xx_HAL_Driver/Src/stm32f7xx_hal_dcmi.c ****     hdcmi->State = HAL_DCMI_STATE_SUSPENDED;
 442:Drivers/STM32F7xx_HAL_Driver/Src/stm32f7xx_hal_dcmi.c **** 
 443:Drivers/STM32F7xx_HAL_Driver/Src/stm32f7xx_hal_dcmi.c ****     /* Disable Capture */
 444:Drivers/STM32F7xx_HAL_Driver/Src/stm32f7xx_hal_dcmi.c ****     hdcmi->Instance->CR &= ~(DCMI_CR_CAPTURE);
 445:Drivers/STM32F7xx_HAL_Driver/Src/stm32f7xx_hal_dcmi.c **** 
 446:Drivers/STM32F7xx_HAL_Driver/Src/stm32f7xx_hal_dcmi.c ****     /* Check if the DCMI capture effectively disabled */
 447:Drivers/STM32F7xx_HAL_Driver/Src/stm32f7xx_hal_dcmi.c ****     do
 448:Drivers/STM32F7xx_HAL_Driver/Src/stm32f7xx_hal_dcmi.c ****     {
 449:Drivers/STM32F7xx_HAL_Driver/Src/stm32f7xx_hal_dcmi.c ****       if (count-- == 0)
 450:Drivers/STM32F7xx_HAL_Driver/Src/stm32f7xx_hal_dcmi.c ****       {        
 451:Drivers/STM32F7xx_HAL_Driver/Src/stm32f7xx_hal_dcmi.c ****         /* Update error code */
 452:Drivers/STM32F7xx_HAL_Driver/Src/stm32f7xx_hal_dcmi.c ****         hdcmi->ErrorCode |= HAL_DCMI_ERROR_TIMEOUT;
 453:Drivers/STM32F7xx_HAL_Driver/Src/stm32f7xx_hal_dcmi.c ****         
 454:Drivers/STM32F7xx_HAL_Driver/Src/stm32f7xx_hal_dcmi.c ****         /* Change DCMI state */
 455:Drivers/STM32F7xx_HAL_Driver/Src/stm32f7xx_hal_dcmi.c ****         hdcmi->State = HAL_DCMI_STATE_READY;
 456:Drivers/STM32F7xx_HAL_Driver/Src/stm32f7xx_hal_dcmi.c ****         
 457:Drivers/STM32F7xx_HAL_Driver/Src/stm32f7xx_hal_dcmi.c ****         status = HAL_TIMEOUT;
 458:Drivers/STM32F7xx_HAL_Driver/Src/stm32f7xx_hal_dcmi.c ****         break;
 459:Drivers/STM32F7xx_HAL_Driver/Src/stm32f7xx_hal_dcmi.c ****       }
 460:Drivers/STM32F7xx_HAL_Driver/Src/stm32f7xx_hal_dcmi.c ****     }
 461:Drivers/STM32F7xx_HAL_Driver/Src/stm32f7xx_hal_dcmi.c ****     while((hdcmi->Instance->CR & DCMI_CR_CAPTURE) != 0);
 462:Drivers/STM32F7xx_HAL_Driver/Src/stm32f7xx_hal_dcmi.c ****   }    
 463:Drivers/STM32F7xx_HAL_Driver/Src/stm32f7xx_hal_dcmi.c ****   /* Process Unlocked */
 464:Drivers/STM32F7xx_HAL_Driver/Src/stm32f7xx_hal_dcmi.c ****   __HAL_UNLOCK(hdcmi);
 465:Drivers/STM32F7xx_HAL_Driver/Src/stm32f7xx_hal_dcmi.c ****   
 466:Drivers/STM32F7xx_HAL_Driver/Src/stm32f7xx_hal_dcmi.c ****   /* Return function status */
 467:Drivers/STM32F7xx_HAL_Driver/Src/stm32f7xx_hal_dcmi.c ****   return status;
 468:Drivers/STM32F7xx_HAL_Driver/Src/stm32f7xx_hal_dcmi.c **** }
 469:Drivers/STM32F7xx_HAL_Driver/Src/stm32f7xx_hal_dcmi.c **** 
 470:Drivers/STM32F7xx_HAL_Driver/Src/stm32f7xx_hal_dcmi.c **** /**
 471:Drivers/STM32F7xx_HAL_Driver/Src/stm32f7xx_hal_dcmi.c ****   * @brief  Resume DCMI capture  
 472:Drivers/STM32F7xx_HAL_Driver/Src/stm32f7xx_hal_dcmi.c ****   * @param  hdcmi pointer to a DCMI_HandleTypeDef structure that contains
 473:Drivers/STM32F7xx_HAL_Driver/Src/stm32f7xx_hal_dcmi.c ****   *                the configuration information for DCMI. 
 474:Drivers/STM32F7xx_HAL_Driver/Src/stm32f7xx_hal_dcmi.c ****   * @retval HAL status     
 475:Drivers/STM32F7xx_HAL_Driver/Src/stm32f7xx_hal_dcmi.c ****   */
 476:Drivers/STM32F7xx_HAL_Driver/Src/stm32f7xx_hal_dcmi.c **** HAL_StatusTypeDef HAL_DCMI_Resume(DCMI_HandleTypeDef* hdcmi)
 477:Drivers/STM32F7xx_HAL_Driver/Src/stm32f7xx_hal_dcmi.c **** {
 478:Drivers/STM32F7xx_HAL_Driver/Src/stm32f7xx_hal_dcmi.c ****   /* Process locked */
 479:Drivers/STM32F7xx_HAL_Driver/Src/stm32f7xx_hal_dcmi.c ****   __HAL_LOCK(hdcmi);
 480:Drivers/STM32F7xx_HAL_Driver/Src/stm32f7xx_hal_dcmi.c ****   
 481:Drivers/STM32F7xx_HAL_Driver/Src/stm32f7xx_hal_dcmi.c ****   if(hdcmi->State == HAL_DCMI_STATE_SUSPENDED)
 482:Drivers/STM32F7xx_HAL_Driver/Src/stm32f7xx_hal_dcmi.c ****   {
 483:Drivers/STM32F7xx_HAL_Driver/Src/stm32f7xx_hal_dcmi.c ****     /* Change DCMI state */
 484:Drivers/STM32F7xx_HAL_Driver/Src/stm32f7xx_hal_dcmi.c ****     hdcmi->State = HAL_DCMI_STATE_BUSY;
 485:Drivers/STM32F7xx_HAL_Driver/Src/stm32f7xx_hal_dcmi.c ****     
 486:Drivers/STM32F7xx_HAL_Driver/Src/stm32f7xx_hal_dcmi.c ****     /* Disable Capture */
 487:Drivers/STM32F7xx_HAL_Driver/Src/stm32f7xx_hal_dcmi.c ****     hdcmi->Instance->CR |= DCMI_CR_CAPTURE;
 488:Drivers/STM32F7xx_HAL_Driver/Src/stm32f7xx_hal_dcmi.c ****   } 
ARM GAS  C:\Users\Patryk\AppData\Local\Temp\ccmZaiys.s 			page 10


 489:Drivers/STM32F7xx_HAL_Driver/Src/stm32f7xx_hal_dcmi.c ****   /* Process Unlocked */
 490:Drivers/STM32F7xx_HAL_Driver/Src/stm32f7xx_hal_dcmi.c ****   __HAL_UNLOCK(hdcmi);
 491:Drivers/STM32F7xx_HAL_Driver/Src/stm32f7xx_hal_dcmi.c ****   
 492:Drivers/STM32F7xx_HAL_Driver/Src/stm32f7xx_hal_dcmi.c ****   /* Return function status */
 493:Drivers/STM32F7xx_HAL_Driver/Src/stm32f7xx_hal_dcmi.c ****   return HAL_OK;
 494:Drivers/STM32F7xx_HAL_Driver/Src/stm32f7xx_hal_dcmi.c **** }
 495:Drivers/STM32F7xx_HAL_Driver/Src/stm32f7xx_hal_dcmi.c **** 
 496:Drivers/STM32F7xx_HAL_Driver/Src/stm32f7xx_hal_dcmi.c **** /**
 497:Drivers/STM32F7xx_HAL_Driver/Src/stm32f7xx_hal_dcmi.c ****   * @brief  Handles DCMI interrupt request.
 498:Drivers/STM32F7xx_HAL_Driver/Src/stm32f7xx_hal_dcmi.c ****   * @param  hdcmi pointer to a DCMI_HandleTypeDef structure that contains
 499:Drivers/STM32F7xx_HAL_Driver/Src/stm32f7xx_hal_dcmi.c ****   *                the configuration information for the DCMI.
 500:Drivers/STM32F7xx_HAL_Driver/Src/stm32f7xx_hal_dcmi.c ****   * @retval None
 501:Drivers/STM32F7xx_HAL_Driver/Src/stm32f7xx_hal_dcmi.c ****   */
 502:Drivers/STM32F7xx_HAL_Driver/Src/stm32f7xx_hal_dcmi.c **** void HAL_DCMI_IRQHandler(DCMI_HandleTypeDef *hdcmi)
 503:Drivers/STM32F7xx_HAL_Driver/Src/stm32f7xx_hal_dcmi.c **** {  
 504:Drivers/STM32F7xx_HAL_Driver/Src/stm32f7xx_hal_dcmi.c ****   uint32_t isr_value = READ_REG(hdcmi->Instance->MISR);
 505:Drivers/STM32F7xx_HAL_Driver/Src/stm32f7xx_hal_dcmi.c ****   
 506:Drivers/STM32F7xx_HAL_Driver/Src/stm32f7xx_hal_dcmi.c ****   /* Synchronization error interrupt management *******************************/
 507:Drivers/STM32F7xx_HAL_Driver/Src/stm32f7xx_hal_dcmi.c ****   if((isr_value & DCMI_FLAG_ERRRI) == DCMI_FLAG_ERRRI)
 508:Drivers/STM32F7xx_HAL_Driver/Src/stm32f7xx_hal_dcmi.c ****   {
 509:Drivers/STM32F7xx_HAL_Driver/Src/stm32f7xx_hal_dcmi.c ****     /* Clear the Synchronization error flag */
 510:Drivers/STM32F7xx_HAL_Driver/Src/stm32f7xx_hal_dcmi.c ****     __HAL_DCMI_CLEAR_FLAG(hdcmi, DCMI_FLAG_ERRRI);
 511:Drivers/STM32F7xx_HAL_Driver/Src/stm32f7xx_hal_dcmi.c ****     
 512:Drivers/STM32F7xx_HAL_Driver/Src/stm32f7xx_hal_dcmi.c ****     /* Update error code */
 513:Drivers/STM32F7xx_HAL_Driver/Src/stm32f7xx_hal_dcmi.c ****     hdcmi->ErrorCode |= HAL_DCMI_ERROR_SYNC;
 514:Drivers/STM32F7xx_HAL_Driver/Src/stm32f7xx_hal_dcmi.c ****     
 515:Drivers/STM32F7xx_HAL_Driver/Src/stm32f7xx_hal_dcmi.c ****     /* Change DCMI state */
 516:Drivers/STM32F7xx_HAL_Driver/Src/stm32f7xx_hal_dcmi.c ****     hdcmi->State = HAL_DCMI_STATE_ERROR;
 517:Drivers/STM32F7xx_HAL_Driver/Src/stm32f7xx_hal_dcmi.c ****     
 518:Drivers/STM32F7xx_HAL_Driver/Src/stm32f7xx_hal_dcmi.c ****     /* Set the synchronization error callback */
 519:Drivers/STM32F7xx_HAL_Driver/Src/stm32f7xx_hal_dcmi.c ****     hdcmi->DMA_Handle->XferAbortCallback = DCMI_DMAError;
 520:Drivers/STM32F7xx_HAL_Driver/Src/stm32f7xx_hal_dcmi.c ****     
 521:Drivers/STM32F7xx_HAL_Driver/Src/stm32f7xx_hal_dcmi.c ****     /* Abort the DMA Transfer */
 522:Drivers/STM32F7xx_HAL_Driver/Src/stm32f7xx_hal_dcmi.c ****     HAL_DMA_Abort_IT(hdcmi->DMA_Handle); 
 523:Drivers/STM32F7xx_HAL_Driver/Src/stm32f7xx_hal_dcmi.c ****   }
 524:Drivers/STM32F7xx_HAL_Driver/Src/stm32f7xx_hal_dcmi.c ****   /* Overflow interrupt management ********************************************/
 525:Drivers/STM32F7xx_HAL_Driver/Src/stm32f7xx_hal_dcmi.c ****   if((isr_value & DCMI_FLAG_OVRRI) == DCMI_FLAG_OVRRI)
 526:Drivers/STM32F7xx_HAL_Driver/Src/stm32f7xx_hal_dcmi.c ****   {
 527:Drivers/STM32F7xx_HAL_Driver/Src/stm32f7xx_hal_dcmi.c ****     /* Clear the Overflow flag */
 528:Drivers/STM32F7xx_HAL_Driver/Src/stm32f7xx_hal_dcmi.c ****     __HAL_DCMI_CLEAR_FLAG(hdcmi, DCMI_FLAG_OVRRI);
 529:Drivers/STM32F7xx_HAL_Driver/Src/stm32f7xx_hal_dcmi.c ****     
 530:Drivers/STM32F7xx_HAL_Driver/Src/stm32f7xx_hal_dcmi.c ****     /* Update error code */
 531:Drivers/STM32F7xx_HAL_Driver/Src/stm32f7xx_hal_dcmi.c ****     hdcmi->ErrorCode |= HAL_DCMI_ERROR_OVR;
 532:Drivers/STM32F7xx_HAL_Driver/Src/stm32f7xx_hal_dcmi.c ****     
 533:Drivers/STM32F7xx_HAL_Driver/Src/stm32f7xx_hal_dcmi.c ****     /* Change DCMI state */
 534:Drivers/STM32F7xx_HAL_Driver/Src/stm32f7xx_hal_dcmi.c ****     hdcmi->State = HAL_DCMI_STATE_ERROR;
 535:Drivers/STM32F7xx_HAL_Driver/Src/stm32f7xx_hal_dcmi.c ****     
 536:Drivers/STM32F7xx_HAL_Driver/Src/stm32f7xx_hal_dcmi.c ****     /* Set the overflow callback */
 537:Drivers/STM32F7xx_HAL_Driver/Src/stm32f7xx_hal_dcmi.c ****     hdcmi->DMA_Handle->XferAbortCallback = DCMI_DMAError;
 538:Drivers/STM32F7xx_HAL_Driver/Src/stm32f7xx_hal_dcmi.c ****     
 539:Drivers/STM32F7xx_HAL_Driver/Src/stm32f7xx_hal_dcmi.c ****     /* Abort the DMA Transfer */
 540:Drivers/STM32F7xx_HAL_Driver/Src/stm32f7xx_hal_dcmi.c ****     HAL_DMA_Abort_IT(hdcmi->DMA_Handle);
 541:Drivers/STM32F7xx_HAL_Driver/Src/stm32f7xx_hal_dcmi.c ****   }
 542:Drivers/STM32F7xx_HAL_Driver/Src/stm32f7xx_hal_dcmi.c ****   /* Line Interrupt management ************************************************/
 543:Drivers/STM32F7xx_HAL_Driver/Src/stm32f7xx_hal_dcmi.c ****   if((isr_value & DCMI_FLAG_LINERI) == DCMI_FLAG_LINERI)
 544:Drivers/STM32F7xx_HAL_Driver/Src/stm32f7xx_hal_dcmi.c ****   {
 545:Drivers/STM32F7xx_HAL_Driver/Src/stm32f7xx_hal_dcmi.c ****     /* Clear the Line interrupt flag */  
ARM GAS  C:\Users\Patryk\AppData\Local\Temp\ccmZaiys.s 			page 11


 546:Drivers/STM32F7xx_HAL_Driver/Src/stm32f7xx_hal_dcmi.c ****     __HAL_DCMI_CLEAR_FLAG(hdcmi, DCMI_FLAG_LINERI);
 547:Drivers/STM32F7xx_HAL_Driver/Src/stm32f7xx_hal_dcmi.c ****     
 548:Drivers/STM32F7xx_HAL_Driver/Src/stm32f7xx_hal_dcmi.c ****     /* Line interrupt Callback */
 549:Drivers/STM32F7xx_HAL_Driver/Src/stm32f7xx_hal_dcmi.c ****     HAL_DCMI_LineEventCallback(hdcmi);
 550:Drivers/STM32F7xx_HAL_Driver/Src/stm32f7xx_hal_dcmi.c ****   }
 551:Drivers/STM32F7xx_HAL_Driver/Src/stm32f7xx_hal_dcmi.c ****   /* VSYNC interrupt management ***********************************************/
 552:Drivers/STM32F7xx_HAL_Driver/Src/stm32f7xx_hal_dcmi.c ****   if((isr_value & DCMI_FLAG_VSYNCRI) == DCMI_FLAG_VSYNCRI)
 553:Drivers/STM32F7xx_HAL_Driver/Src/stm32f7xx_hal_dcmi.c ****   {
 554:Drivers/STM32F7xx_HAL_Driver/Src/stm32f7xx_hal_dcmi.c ****     /* Clear the VSYNC flag */
 555:Drivers/STM32F7xx_HAL_Driver/Src/stm32f7xx_hal_dcmi.c ****     __HAL_DCMI_CLEAR_FLAG(hdcmi, DCMI_FLAG_VSYNCRI);
 556:Drivers/STM32F7xx_HAL_Driver/Src/stm32f7xx_hal_dcmi.c ****     
 557:Drivers/STM32F7xx_HAL_Driver/Src/stm32f7xx_hal_dcmi.c ****     /* VSYNC Callback */
 558:Drivers/STM32F7xx_HAL_Driver/Src/stm32f7xx_hal_dcmi.c ****     HAL_DCMI_VsyncEventCallback(hdcmi);
 559:Drivers/STM32F7xx_HAL_Driver/Src/stm32f7xx_hal_dcmi.c ****   }
 560:Drivers/STM32F7xx_HAL_Driver/Src/stm32f7xx_hal_dcmi.c ****   /* FRAME interrupt management ***********************************************/
 561:Drivers/STM32F7xx_HAL_Driver/Src/stm32f7xx_hal_dcmi.c ****   if((isr_value & DCMI_FLAG_FRAMERI) == DCMI_FLAG_FRAMERI)   
 562:Drivers/STM32F7xx_HAL_Driver/Src/stm32f7xx_hal_dcmi.c ****   {
 563:Drivers/STM32F7xx_HAL_Driver/Src/stm32f7xx_hal_dcmi.c ****     /* When snapshot mode, disable Vsync, Error and Overrun interrupts */
 564:Drivers/STM32F7xx_HAL_Driver/Src/stm32f7xx_hal_dcmi.c ****     if((hdcmi->Instance->CR & DCMI_CR_CM) == DCMI_MODE_SNAPSHOT)
 565:Drivers/STM32F7xx_HAL_Driver/Src/stm32f7xx_hal_dcmi.c ****     { 
 566:Drivers/STM32F7xx_HAL_Driver/Src/stm32f7xx_hal_dcmi.c ****       /* Disable the Line, Vsync, Error and Overrun interrupts */
 567:Drivers/STM32F7xx_HAL_Driver/Src/stm32f7xx_hal_dcmi.c ****       __HAL_DCMI_DISABLE_IT(hdcmi, DCMI_IT_LINE | DCMI_IT_VSYNC | DCMI_IT_ERR | DCMI_IT_OVR);
 568:Drivers/STM32F7xx_HAL_Driver/Src/stm32f7xx_hal_dcmi.c ****     }
 569:Drivers/STM32F7xx_HAL_Driver/Src/stm32f7xx_hal_dcmi.c ****     
 570:Drivers/STM32F7xx_HAL_Driver/Src/stm32f7xx_hal_dcmi.c ****     /* Disable the Frame interrupt */
 571:Drivers/STM32F7xx_HAL_Driver/Src/stm32f7xx_hal_dcmi.c ****     __HAL_DCMI_DISABLE_IT(hdcmi, DCMI_IT_FRAME);
 572:Drivers/STM32F7xx_HAL_Driver/Src/stm32f7xx_hal_dcmi.c ****     
 573:Drivers/STM32F7xx_HAL_Driver/Src/stm32f7xx_hal_dcmi.c ****     /* Clear the End of Frame flag */
 574:Drivers/STM32F7xx_HAL_Driver/Src/stm32f7xx_hal_dcmi.c ****     __HAL_DCMI_CLEAR_FLAG(hdcmi, DCMI_FLAG_FRAMERI);
 575:Drivers/STM32F7xx_HAL_Driver/Src/stm32f7xx_hal_dcmi.c ****     
 576:Drivers/STM32F7xx_HAL_Driver/Src/stm32f7xx_hal_dcmi.c ****     /* Frame Callback */
 577:Drivers/STM32F7xx_HAL_Driver/Src/stm32f7xx_hal_dcmi.c ****     HAL_DCMI_FrameEventCallback(hdcmi);
 578:Drivers/STM32F7xx_HAL_Driver/Src/stm32f7xx_hal_dcmi.c ****   }
 579:Drivers/STM32F7xx_HAL_Driver/Src/stm32f7xx_hal_dcmi.c **** }
 580:Drivers/STM32F7xx_HAL_Driver/Src/stm32f7xx_hal_dcmi.c **** 
 581:Drivers/STM32F7xx_HAL_Driver/Src/stm32f7xx_hal_dcmi.c **** /**
 582:Drivers/STM32F7xx_HAL_Driver/Src/stm32f7xx_hal_dcmi.c ****   * @brief  Error DCMI callback.
 583:Drivers/STM32F7xx_HAL_Driver/Src/stm32f7xx_hal_dcmi.c ****   * @param  hdcmi pointer to a DCMI_HandleTypeDef structure that contains
 584:Drivers/STM32F7xx_HAL_Driver/Src/stm32f7xx_hal_dcmi.c ****   *                the configuration information for DCMI.
 585:Drivers/STM32F7xx_HAL_Driver/Src/stm32f7xx_hal_dcmi.c ****   * @retval None
 586:Drivers/STM32F7xx_HAL_Driver/Src/stm32f7xx_hal_dcmi.c ****   */
 587:Drivers/STM32F7xx_HAL_Driver/Src/stm32f7xx_hal_dcmi.c **** __weak void HAL_DCMI_ErrorCallback(DCMI_HandleTypeDef *hdcmi)
 588:Drivers/STM32F7xx_HAL_Driver/Src/stm32f7xx_hal_dcmi.c **** {
 589:Drivers/STM32F7xx_HAL_Driver/Src/stm32f7xx_hal_dcmi.c ****   /* Prevent unused argument(s) compilation warning */
 590:Drivers/STM32F7xx_HAL_Driver/Src/stm32f7xx_hal_dcmi.c ****   UNUSED(hdcmi);
 591:Drivers/STM32F7xx_HAL_Driver/Src/stm32f7xx_hal_dcmi.c ****  
 592:Drivers/STM32F7xx_HAL_Driver/Src/stm32f7xx_hal_dcmi.c ****   /* NOTE : This function Should not be modified, when the callback is needed,
 593:Drivers/STM32F7xx_HAL_Driver/Src/stm32f7xx_hal_dcmi.c ****             the HAL_DCMI_ErrorCallback could be implemented in the user file
 594:Drivers/STM32F7xx_HAL_Driver/Src/stm32f7xx_hal_dcmi.c ****    */
 595:Drivers/STM32F7xx_HAL_Driver/Src/stm32f7xx_hal_dcmi.c **** }
 596:Drivers/STM32F7xx_HAL_Driver/Src/stm32f7xx_hal_dcmi.c **** 
 597:Drivers/STM32F7xx_HAL_Driver/Src/stm32f7xx_hal_dcmi.c **** /**
 598:Drivers/STM32F7xx_HAL_Driver/Src/stm32f7xx_hal_dcmi.c ****   * @brief  Line Event callback.
 599:Drivers/STM32F7xx_HAL_Driver/Src/stm32f7xx_hal_dcmi.c ****   * @param  hdcmi pointer to a DCMI_HandleTypeDef structure that contains
 600:Drivers/STM32F7xx_HAL_Driver/Src/stm32f7xx_hal_dcmi.c ****   *                the configuration information for DCMI.
 601:Drivers/STM32F7xx_HAL_Driver/Src/stm32f7xx_hal_dcmi.c ****   * @retval None
 602:Drivers/STM32F7xx_HAL_Driver/Src/stm32f7xx_hal_dcmi.c ****   */
ARM GAS  C:\Users\Patryk\AppData\Local\Temp\ccmZaiys.s 			page 12


 603:Drivers/STM32F7xx_HAL_Driver/Src/stm32f7xx_hal_dcmi.c **** __weak void HAL_DCMI_LineEventCallback(DCMI_HandleTypeDef *hdcmi)
 604:Drivers/STM32F7xx_HAL_Driver/Src/stm32f7xx_hal_dcmi.c **** {
 605:Drivers/STM32F7xx_HAL_Driver/Src/stm32f7xx_hal_dcmi.c ****   /* NOTE : This function Should not be modified, when the callback is needed,
 606:Drivers/STM32F7xx_HAL_Driver/Src/stm32f7xx_hal_dcmi.c ****             the HAL_DCMI_LineEventCallback could be implemented in the user file
 607:Drivers/STM32F7xx_HAL_Driver/Src/stm32f7xx_hal_dcmi.c ****    */
 608:Drivers/STM32F7xx_HAL_Driver/Src/stm32f7xx_hal_dcmi.c **** }
 609:Drivers/STM32F7xx_HAL_Driver/Src/stm32f7xx_hal_dcmi.c **** 
 610:Drivers/STM32F7xx_HAL_Driver/Src/stm32f7xx_hal_dcmi.c **** /**
 611:Drivers/STM32F7xx_HAL_Driver/Src/stm32f7xx_hal_dcmi.c ****   * @brief  VSYNC Event callback.
 612:Drivers/STM32F7xx_HAL_Driver/Src/stm32f7xx_hal_dcmi.c ****   * @param  hdcmi pointer to a DCMI_HandleTypeDef structure that contains
 613:Drivers/STM32F7xx_HAL_Driver/Src/stm32f7xx_hal_dcmi.c ****   *                the configuration information for DCMI.
 614:Drivers/STM32F7xx_HAL_Driver/Src/stm32f7xx_hal_dcmi.c ****   * @retval None
 615:Drivers/STM32F7xx_HAL_Driver/Src/stm32f7xx_hal_dcmi.c ****   */
 616:Drivers/STM32F7xx_HAL_Driver/Src/stm32f7xx_hal_dcmi.c **** __weak void HAL_DCMI_VsyncEventCallback(DCMI_HandleTypeDef *hdcmi)
 617:Drivers/STM32F7xx_HAL_Driver/Src/stm32f7xx_hal_dcmi.c **** {
 618:Drivers/STM32F7xx_HAL_Driver/Src/stm32f7xx_hal_dcmi.c ****   /* Prevent unused argument(s) compilation warning */
 619:Drivers/STM32F7xx_HAL_Driver/Src/stm32f7xx_hal_dcmi.c ****   UNUSED(hdcmi);
 620:Drivers/STM32F7xx_HAL_Driver/Src/stm32f7xx_hal_dcmi.c ****  
 621:Drivers/STM32F7xx_HAL_Driver/Src/stm32f7xx_hal_dcmi.c ****   /* NOTE : This function Should not be modified, when the callback is needed,
 622:Drivers/STM32F7xx_HAL_Driver/Src/stm32f7xx_hal_dcmi.c ****             the HAL_DCMI_VsyncEventCallback could be implemented in the user file
 623:Drivers/STM32F7xx_HAL_Driver/Src/stm32f7xx_hal_dcmi.c ****    */
 624:Drivers/STM32F7xx_HAL_Driver/Src/stm32f7xx_hal_dcmi.c **** }
 625:Drivers/STM32F7xx_HAL_Driver/Src/stm32f7xx_hal_dcmi.c **** 
 626:Drivers/STM32F7xx_HAL_Driver/Src/stm32f7xx_hal_dcmi.c **** /**
 627:Drivers/STM32F7xx_HAL_Driver/Src/stm32f7xx_hal_dcmi.c ****   * @brief  Frame Event callback.
 628:Drivers/STM32F7xx_HAL_Driver/Src/stm32f7xx_hal_dcmi.c ****   * @param  hdcmi pointer to a DCMI_HandleTypeDef structure that contains
 629:Drivers/STM32F7xx_HAL_Driver/Src/stm32f7xx_hal_dcmi.c ****   *                the configuration information for DCMI.
 630:Drivers/STM32F7xx_HAL_Driver/Src/stm32f7xx_hal_dcmi.c ****   * @retval None
 631:Drivers/STM32F7xx_HAL_Driver/Src/stm32f7xx_hal_dcmi.c ****   */
 632:Drivers/STM32F7xx_HAL_Driver/Src/stm32f7xx_hal_dcmi.c **** __weak void HAL_DCMI_FrameEventCallback(DCMI_HandleTypeDef *hdcmi)
 633:Drivers/STM32F7xx_HAL_Driver/Src/stm32f7xx_hal_dcmi.c **** {
 634:Drivers/STM32F7xx_HAL_Driver/Src/stm32f7xx_hal_dcmi.c ****   /* Prevent unused argument(s) compilation warning */
 635:Drivers/STM32F7xx_HAL_Driver/Src/stm32f7xx_hal_dcmi.c ****   UNUSED(hdcmi);
 636:Drivers/STM32F7xx_HAL_Driver/Src/stm32f7xx_hal_dcmi.c ****  
 637:Drivers/STM32F7xx_HAL_Driver/Src/stm32f7xx_hal_dcmi.c ****   /* NOTE : This function Should not be modified, when the callback is needed,
 638:Drivers/STM32F7xx_HAL_Driver/Src/stm32f7xx_hal_dcmi.c ****             the HAL_DCMI_FrameEventCallback could be implemented in the user file
 639:Drivers/STM32F7xx_HAL_Driver/Src/stm32f7xx_hal_dcmi.c ****    */
 640:Drivers/STM32F7xx_HAL_Driver/Src/stm32f7xx_hal_dcmi.c **** }
 641:Drivers/STM32F7xx_HAL_Driver/Src/stm32f7xx_hal_dcmi.c **** 
 642:Drivers/STM32F7xx_HAL_Driver/Src/stm32f7xx_hal_dcmi.c **** /**
 643:Drivers/STM32F7xx_HAL_Driver/Src/stm32f7xx_hal_dcmi.c ****   * @}
 644:Drivers/STM32F7xx_HAL_Driver/Src/stm32f7xx_hal_dcmi.c ****   */
 645:Drivers/STM32F7xx_HAL_Driver/Src/stm32f7xx_hal_dcmi.c **** 
 646:Drivers/STM32F7xx_HAL_Driver/Src/stm32f7xx_hal_dcmi.c **** /** @defgroup DCMI_Exported_Functions_Group3 Peripheral Control functions
 647:Drivers/STM32F7xx_HAL_Driver/Src/stm32f7xx_hal_dcmi.c ****  *  @brief    Peripheral Control functions 
 648:Drivers/STM32F7xx_HAL_Driver/Src/stm32f7xx_hal_dcmi.c ****  *
 649:Drivers/STM32F7xx_HAL_Driver/Src/stm32f7xx_hal_dcmi.c **** @verbatim   
 650:Drivers/STM32F7xx_HAL_Driver/Src/stm32f7xx_hal_dcmi.c ****  ===============================================================================
 651:Drivers/STM32F7xx_HAL_Driver/Src/stm32f7xx_hal_dcmi.c ****                     ##### Peripheral Control functions #####
 652:Drivers/STM32F7xx_HAL_Driver/Src/stm32f7xx_hal_dcmi.c ****  ===============================================================================  
 653:Drivers/STM32F7xx_HAL_Driver/Src/stm32f7xx_hal_dcmi.c **** [..]  This section provides functions allowing to:
 654:Drivers/STM32F7xx_HAL_Driver/Src/stm32f7xx_hal_dcmi.c ****       (+) Configure the CROP feature.
 655:Drivers/STM32F7xx_HAL_Driver/Src/stm32f7xx_hal_dcmi.c ****       (+) Enable/Disable the CROP feature.
 656:Drivers/STM32F7xx_HAL_Driver/Src/stm32f7xx_hal_dcmi.c ****       (+) Set embedded synchronization delimiters unmasks.
 657:Drivers/STM32F7xx_HAL_Driver/Src/stm32f7xx_hal_dcmi.c **** 
 658:Drivers/STM32F7xx_HAL_Driver/Src/stm32f7xx_hal_dcmi.c **** @endverbatim
 659:Drivers/STM32F7xx_HAL_Driver/Src/stm32f7xx_hal_dcmi.c ****   * @{
ARM GAS  C:\Users\Patryk\AppData\Local\Temp\ccmZaiys.s 			page 13


 660:Drivers/STM32F7xx_HAL_Driver/Src/stm32f7xx_hal_dcmi.c ****   */
 661:Drivers/STM32F7xx_HAL_Driver/Src/stm32f7xx_hal_dcmi.c **** 
 662:Drivers/STM32F7xx_HAL_Driver/Src/stm32f7xx_hal_dcmi.c **** /**
 663:Drivers/STM32F7xx_HAL_Driver/Src/stm32f7xx_hal_dcmi.c ****   * @brief  Configure the DCMI CROP coordinate.
 664:Drivers/STM32F7xx_HAL_Driver/Src/stm32f7xx_hal_dcmi.c ****   * @param  hdcmi pointer to a DCMI_HandleTypeDef structure that contains
 665:Drivers/STM32F7xx_HAL_Driver/Src/stm32f7xx_hal_dcmi.c ****   *                the configuration information for DCMI.
 666:Drivers/STM32F7xx_HAL_Driver/Src/stm32f7xx_hal_dcmi.c ****   * @param  YSize DCMI Line number
 667:Drivers/STM32F7xx_HAL_Driver/Src/stm32f7xx_hal_dcmi.c ****   * @param  XSize DCMI Pixel per line
 668:Drivers/STM32F7xx_HAL_Driver/Src/stm32f7xx_hal_dcmi.c ****   * @param  X0    DCMI window X offset
 669:Drivers/STM32F7xx_HAL_Driver/Src/stm32f7xx_hal_dcmi.c ****   * @param  Y0    DCMI window Y offset
 670:Drivers/STM32F7xx_HAL_Driver/Src/stm32f7xx_hal_dcmi.c ****   * @retval HAL status
 671:Drivers/STM32F7xx_HAL_Driver/Src/stm32f7xx_hal_dcmi.c ****   */
 672:Drivers/STM32F7xx_HAL_Driver/Src/stm32f7xx_hal_dcmi.c **** HAL_StatusTypeDef HAL_DCMI_ConfigCrop(DCMI_HandleTypeDef *hdcmi, uint32_t X0, uint32_t Y0, uint32_t
 673:Drivers/STM32F7xx_HAL_Driver/Src/stm32f7xx_hal_dcmi.c **** {
 674:Drivers/STM32F7xx_HAL_Driver/Src/stm32f7xx_hal_dcmi.c ****   /* Process Locked */
 675:Drivers/STM32F7xx_HAL_Driver/Src/stm32f7xx_hal_dcmi.c ****   __HAL_LOCK(hdcmi);
 676:Drivers/STM32F7xx_HAL_Driver/Src/stm32f7xx_hal_dcmi.c **** 
 677:Drivers/STM32F7xx_HAL_Driver/Src/stm32f7xx_hal_dcmi.c ****   /* Lock the DCMI peripheral state */
 678:Drivers/STM32F7xx_HAL_Driver/Src/stm32f7xx_hal_dcmi.c ****   hdcmi->State = HAL_DCMI_STATE_BUSY;
 679:Drivers/STM32F7xx_HAL_Driver/Src/stm32f7xx_hal_dcmi.c **** 
 680:Drivers/STM32F7xx_HAL_Driver/Src/stm32f7xx_hal_dcmi.c ****   /* Check the parameters */
 681:Drivers/STM32F7xx_HAL_Driver/Src/stm32f7xx_hal_dcmi.c ****   assert_param(IS_DCMI_WINDOW_COORDINATE(X0));
 682:Drivers/STM32F7xx_HAL_Driver/Src/stm32f7xx_hal_dcmi.c ****   assert_param(IS_DCMI_WINDOW_HEIGHT(Y0));
 683:Drivers/STM32F7xx_HAL_Driver/Src/stm32f7xx_hal_dcmi.c ****   assert_param(IS_DCMI_WINDOW_COORDINATE(XSize));
 684:Drivers/STM32F7xx_HAL_Driver/Src/stm32f7xx_hal_dcmi.c ****   assert_param(IS_DCMI_WINDOW_COORDINATE(YSize));
 685:Drivers/STM32F7xx_HAL_Driver/Src/stm32f7xx_hal_dcmi.c **** 	
 686:Drivers/STM32F7xx_HAL_Driver/Src/stm32f7xx_hal_dcmi.c ****   /* Configure CROP */
 687:Drivers/STM32F7xx_HAL_Driver/Src/stm32f7xx_hal_dcmi.c ****   hdcmi->Instance->CWSIZER = (XSize | (YSize << DCMI_CWSIZE_VLINE_Pos));
 688:Drivers/STM32F7xx_HAL_Driver/Src/stm32f7xx_hal_dcmi.c ****   hdcmi->Instance->CWSTRTR = (X0 | (Y0 << DCMI_CWSTRT_VST_Pos));
 689:Drivers/STM32F7xx_HAL_Driver/Src/stm32f7xx_hal_dcmi.c **** 
 690:Drivers/STM32F7xx_HAL_Driver/Src/stm32f7xx_hal_dcmi.c ****   /* Initialize the DCMI state*/
 691:Drivers/STM32F7xx_HAL_Driver/Src/stm32f7xx_hal_dcmi.c ****   hdcmi->State  = HAL_DCMI_STATE_READY;
 692:Drivers/STM32F7xx_HAL_Driver/Src/stm32f7xx_hal_dcmi.c **** 
 693:Drivers/STM32F7xx_HAL_Driver/Src/stm32f7xx_hal_dcmi.c ****   /* Process Unlocked */
 694:Drivers/STM32F7xx_HAL_Driver/Src/stm32f7xx_hal_dcmi.c ****   __HAL_UNLOCK(hdcmi);
 695:Drivers/STM32F7xx_HAL_Driver/Src/stm32f7xx_hal_dcmi.c **** 
 696:Drivers/STM32F7xx_HAL_Driver/Src/stm32f7xx_hal_dcmi.c ****   return HAL_OK;
 697:Drivers/STM32F7xx_HAL_Driver/Src/stm32f7xx_hal_dcmi.c **** }
 698:Drivers/STM32F7xx_HAL_Driver/Src/stm32f7xx_hal_dcmi.c **** 
 699:Drivers/STM32F7xx_HAL_Driver/Src/stm32f7xx_hal_dcmi.c **** /**
 700:Drivers/STM32F7xx_HAL_Driver/Src/stm32f7xx_hal_dcmi.c ****   * @brief  Disable the Crop feature.
 701:Drivers/STM32F7xx_HAL_Driver/Src/stm32f7xx_hal_dcmi.c ****   * @param  hdcmi pointer to a DCMI_HandleTypeDef structure that contains
 702:Drivers/STM32F7xx_HAL_Driver/Src/stm32f7xx_hal_dcmi.c ****   *                the configuration information for DCMI.
 703:Drivers/STM32F7xx_HAL_Driver/Src/stm32f7xx_hal_dcmi.c ****   * @retval HAL status
 704:Drivers/STM32F7xx_HAL_Driver/Src/stm32f7xx_hal_dcmi.c ****   */
 705:Drivers/STM32F7xx_HAL_Driver/Src/stm32f7xx_hal_dcmi.c **** HAL_StatusTypeDef HAL_DCMI_DisableCrop(DCMI_HandleTypeDef *hdcmi)
 706:Drivers/STM32F7xx_HAL_Driver/Src/stm32f7xx_hal_dcmi.c **** {
 707:Drivers/STM32F7xx_HAL_Driver/Src/stm32f7xx_hal_dcmi.c ****   /* Process Locked */
 708:Drivers/STM32F7xx_HAL_Driver/Src/stm32f7xx_hal_dcmi.c ****   __HAL_LOCK(hdcmi);
 709:Drivers/STM32F7xx_HAL_Driver/Src/stm32f7xx_hal_dcmi.c **** 
 710:Drivers/STM32F7xx_HAL_Driver/Src/stm32f7xx_hal_dcmi.c ****   /* Lock the DCMI peripheral state */
 711:Drivers/STM32F7xx_HAL_Driver/Src/stm32f7xx_hal_dcmi.c ****   hdcmi->State = HAL_DCMI_STATE_BUSY;
 712:Drivers/STM32F7xx_HAL_Driver/Src/stm32f7xx_hal_dcmi.c **** 
 713:Drivers/STM32F7xx_HAL_Driver/Src/stm32f7xx_hal_dcmi.c ****   /* Disable DCMI Crop feature */
 714:Drivers/STM32F7xx_HAL_Driver/Src/stm32f7xx_hal_dcmi.c ****   hdcmi->Instance->CR &= ~(uint32_t)DCMI_CR_CROP;  
 715:Drivers/STM32F7xx_HAL_Driver/Src/stm32f7xx_hal_dcmi.c **** 
 716:Drivers/STM32F7xx_HAL_Driver/Src/stm32f7xx_hal_dcmi.c ****   /* Change the DCMI state*/
ARM GAS  C:\Users\Patryk\AppData\Local\Temp\ccmZaiys.s 			page 14


 717:Drivers/STM32F7xx_HAL_Driver/Src/stm32f7xx_hal_dcmi.c ****   hdcmi->State = HAL_DCMI_STATE_READY;   
 718:Drivers/STM32F7xx_HAL_Driver/Src/stm32f7xx_hal_dcmi.c **** 
 719:Drivers/STM32F7xx_HAL_Driver/Src/stm32f7xx_hal_dcmi.c ****   /* Process Unlocked */
 720:Drivers/STM32F7xx_HAL_Driver/Src/stm32f7xx_hal_dcmi.c ****   __HAL_UNLOCK(hdcmi);
 721:Drivers/STM32F7xx_HAL_Driver/Src/stm32f7xx_hal_dcmi.c **** 
 722:Drivers/STM32F7xx_HAL_Driver/Src/stm32f7xx_hal_dcmi.c ****   return HAL_OK;  
 723:Drivers/STM32F7xx_HAL_Driver/Src/stm32f7xx_hal_dcmi.c **** }
 724:Drivers/STM32F7xx_HAL_Driver/Src/stm32f7xx_hal_dcmi.c **** 
 725:Drivers/STM32F7xx_HAL_Driver/Src/stm32f7xx_hal_dcmi.c **** /**
 726:Drivers/STM32F7xx_HAL_Driver/Src/stm32f7xx_hal_dcmi.c ****   * @brief  Enable the Crop feature.
 727:Drivers/STM32F7xx_HAL_Driver/Src/stm32f7xx_hal_dcmi.c ****   * @param  hdcmi pointer to a DCMI_HandleTypeDef structure that contains
 728:Drivers/STM32F7xx_HAL_Driver/Src/stm32f7xx_hal_dcmi.c ****   *                the configuration information for DCMI.
 729:Drivers/STM32F7xx_HAL_Driver/Src/stm32f7xx_hal_dcmi.c ****   * @retval HAL status
 730:Drivers/STM32F7xx_HAL_Driver/Src/stm32f7xx_hal_dcmi.c ****   */
 731:Drivers/STM32F7xx_HAL_Driver/Src/stm32f7xx_hal_dcmi.c **** HAL_StatusTypeDef HAL_DCMI_EnableCrop(DCMI_HandleTypeDef *hdcmi)
 732:Drivers/STM32F7xx_HAL_Driver/Src/stm32f7xx_hal_dcmi.c **** {
 733:Drivers/STM32F7xx_HAL_Driver/Src/stm32f7xx_hal_dcmi.c ****   /* Process Locked */
 734:Drivers/STM32F7xx_HAL_Driver/Src/stm32f7xx_hal_dcmi.c ****   __HAL_LOCK(hdcmi);
 735:Drivers/STM32F7xx_HAL_Driver/Src/stm32f7xx_hal_dcmi.c **** 
 736:Drivers/STM32F7xx_HAL_Driver/Src/stm32f7xx_hal_dcmi.c ****   /* Lock the DCMI peripheral state */
 737:Drivers/STM32F7xx_HAL_Driver/Src/stm32f7xx_hal_dcmi.c ****   hdcmi->State = HAL_DCMI_STATE_BUSY;
 738:Drivers/STM32F7xx_HAL_Driver/Src/stm32f7xx_hal_dcmi.c **** 
 739:Drivers/STM32F7xx_HAL_Driver/Src/stm32f7xx_hal_dcmi.c ****   /* Enable DCMI Crop feature */
 740:Drivers/STM32F7xx_HAL_Driver/Src/stm32f7xx_hal_dcmi.c ****   hdcmi->Instance->CR |= (uint32_t)DCMI_CR_CROP;
 741:Drivers/STM32F7xx_HAL_Driver/Src/stm32f7xx_hal_dcmi.c **** 
 742:Drivers/STM32F7xx_HAL_Driver/Src/stm32f7xx_hal_dcmi.c ****   /* Change the DCMI state*/
 743:Drivers/STM32F7xx_HAL_Driver/Src/stm32f7xx_hal_dcmi.c ****   hdcmi->State = HAL_DCMI_STATE_READY;
 744:Drivers/STM32F7xx_HAL_Driver/Src/stm32f7xx_hal_dcmi.c **** 
 745:Drivers/STM32F7xx_HAL_Driver/Src/stm32f7xx_hal_dcmi.c ****   /* Process Unlocked */
 746:Drivers/STM32F7xx_HAL_Driver/Src/stm32f7xx_hal_dcmi.c ****   __HAL_UNLOCK(hdcmi);
 747:Drivers/STM32F7xx_HAL_Driver/Src/stm32f7xx_hal_dcmi.c **** 
 748:Drivers/STM32F7xx_HAL_Driver/Src/stm32f7xx_hal_dcmi.c ****   return HAL_OK;  
 749:Drivers/STM32F7xx_HAL_Driver/Src/stm32f7xx_hal_dcmi.c **** }
 750:Drivers/STM32F7xx_HAL_Driver/Src/stm32f7xx_hal_dcmi.c **** 
 751:Drivers/STM32F7xx_HAL_Driver/Src/stm32f7xx_hal_dcmi.c **** /**
 752:Drivers/STM32F7xx_HAL_Driver/Src/stm32f7xx_hal_dcmi.c ****   * @}
 753:Drivers/STM32F7xx_HAL_Driver/Src/stm32f7xx_hal_dcmi.c ****   */
 754:Drivers/STM32F7xx_HAL_Driver/Src/stm32f7xx_hal_dcmi.c **** 
 755:Drivers/STM32F7xx_HAL_Driver/Src/stm32f7xx_hal_dcmi.c **** /** @defgroup DCMI_Exported_Functions_Group4 Peripheral State functions
 756:Drivers/STM32F7xx_HAL_Driver/Src/stm32f7xx_hal_dcmi.c ****  *  @brief    Peripheral State functions 
 757:Drivers/STM32F7xx_HAL_Driver/Src/stm32f7xx_hal_dcmi.c ****  *
 758:Drivers/STM32F7xx_HAL_Driver/Src/stm32f7xx_hal_dcmi.c **** @verbatim   
 759:Drivers/STM32F7xx_HAL_Driver/Src/stm32f7xx_hal_dcmi.c ****  ===============================================================================
 760:Drivers/STM32F7xx_HAL_Driver/Src/stm32f7xx_hal_dcmi.c ****                ##### Peripheral State and Errors functions #####
 761:Drivers/STM32F7xx_HAL_Driver/Src/stm32f7xx_hal_dcmi.c ****  ===============================================================================  
 762:Drivers/STM32F7xx_HAL_Driver/Src/stm32f7xx_hal_dcmi.c ****     [..]
 763:Drivers/STM32F7xx_HAL_Driver/Src/stm32f7xx_hal_dcmi.c ****     This subsection provides functions allowing to
 764:Drivers/STM32F7xx_HAL_Driver/Src/stm32f7xx_hal_dcmi.c ****       (+) Check the DCMI state.
 765:Drivers/STM32F7xx_HAL_Driver/Src/stm32f7xx_hal_dcmi.c ****       (+) Get the specific DCMI error flag.  
 766:Drivers/STM32F7xx_HAL_Driver/Src/stm32f7xx_hal_dcmi.c **** 
 767:Drivers/STM32F7xx_HAL_Driver/Src/stm32f7xx_hal_dcmi.c **** @endverbatim
 768:Drivers/STM32F7xx_HAL_Driver/Src/stm32f7xx_hal_dcmi.c ****   * @{
 769:Drivers/STM32F7xx_HAL_Driver/Src/stm32f7xx_hal_dcmi.c ****   */ 
 770:Drivers/STM32F7xx_HAL_Driver/Src/stm32f7xx_hal_dcmi.c **** 
 771:Drivers/STM32F7xx_HAL_Driver/Src/stm32f7xx_hal_dcmi.c **** /**
 772:Drivers/STM32F7xx_HAL_Driver/Src/stm32f7xx_hal_dcmi.c ****   * @brief  Return the DCMI state
 773:Drivers/STM32F7xx_HAL_Driver/Src/stm32f7xx_hal_dcmi.c ****   * @param  hdcmi pointer to a DCMI_HandleTypeDef structure that contains
ARM GAS  C:\Users\Patryk\AppData\Local\Temp\ccmZaiys.s 			page 15


 774:Drivers/STM32F7xx_HAL_Driver/Src/stm32f7xx_hal_dcmi.c ****   *                the configuration information for DCMI.
 775:Drivers/STM32F7xx_HAL_Driver/Src/stm32f7xx_hal_dcmi.c ****   * @retval HAL state
 776:Drivers/STM32F7xx_HAL_Driver/Src/stm32f7xx_hal_dcmi.c ****   */
 777:Drivers/STM32F7xx_HAL_Driver/Src/stm32f7xx_hal_dcmi.c **** HAL_DCMI_StateTypeDef HAL_DCMI_GetState(DCMI_HandleTypeDef *hdcmi)  
 778:Drivers/STM32F7xx_HAL_Driver/Src/stm32f7xx_hal_dcmi.c **** {
 779:Drivers/STM32F7xx_HAL_Driver/Src/stm32f7xx_hal_dcmi.c ****   return hdcmi->State;
 780:Drivers/STM32F7xx_HAL_Driver/Src/stm32f7xx_hal_dcmi.c **** }
 781:Drivers/STM32F7xx_HAL_Driver/Src/stm32f7xx_hal_dcmi.c **** 
 782:Drivers/STM32F7xx_HAL_Driver/Src/stm32f7xx_hal_dcmi.c **** /**
 783:Drivers/STM32F7xx_HAL_Driver/Src/stm32f7xx_hal_dcmi.c **** * @brief  Return the DCMI error code
 784:Drivers/STM32F7xx_HAL_Driver/Src/stm32f7xx_hal_dcmi.c **** * @param  hdcmi  pointer to a DCMI_HandleTypeDef structure that contains
 785:Drivers/STM32F7xx_HAL_Driver/Src/stm32f7xx_hal_dcmi.c ****   *               the configuration information for DCMI.
 786:Drivers/STM32F7xx_HAL_Driver/Src/stm32f7xx_hal_dcmi.c **** * @retval DCMI Error Code
 787:Drivers/STM32F7xx_HAL_Driver/Src/stm32f7xx_hal_dcmi.c **** */
 788:Drivers/STM32F7xx_HAL_Driver/Src/stm32f7xx_hal_dcmi.c **** uint32_t HAL_DCMI_GetError(DCMI_HandleTypeDef *hdcmi)
 789:Drivers/STM32F7xx_HAL_Driver/Src/stm32f7xx_hal_dcmi.c **** {
 790:Drivers/STM32F7xx_HAL_Driver/Src/stm32f7xx_hal_dcmi.c ****   return hdcmi->ErrorCode;
 791:Drivers/STM32F7xx_HAL_Driver/Src/stm32f7xx_hal_dcmi.c **** }
 792:Drivers/STM32F7xx_HAL_Driver/Src/stm32f7xx_hal_dcmi.c **** 
 793:Drivers/STM32F7xx_HAL_Driver/Src/stm32f7xx_hal_dcmi.c **** /**
 794:Drivers/STM32F7xx_HAL_Driver/Src/stm32f7xx_hal_dcmi.c ****   * @}
 795:Drivers/STM32F7xx_HAL_Driver/Src/stm32f7xx_hal_dcmi.c ****   */
 796:Drivers/STM32F7xx_HAL_Driver/Src/stm32f7xx_hal_dcmi.c **** /* Private functions ---------------------------------------------------------*/
 797:Drivers/STM32F7xx_HAL_Driver/Src/stm32f7xx_hal_dcmi.c **** /** @defgroup DCMI_Private_Functions DCMI Private Functions
 798:Drivers/STM32F7xx_HAL_Driver/Src/stm32f7xx_hal_dcmi.c ****   * @{
 799:Drivers/STM32F7xx_HAL_Driver/Src/stm32f7xx_hal_dcmi.c ****   */
 800:Drivers/STM32F7xx_HAL_Driver/Src/stm32f7xx_hal_dcmi.c ****   /**
 801:Drivers/STM32F7xx_HAL_Driver/Src/stm32f7xx_hal_dcmi.c ****   * @brief  DMA conversion complete callback. 
 802:Drivers/STM32F7xx_HAL_Driver/Src/stm32f7xx_hal_dcmi.c ****   * @param  hdma pointer to a DMA_HandleTypeDef structure that contains
 803:Drivers/STM32F7xx_HAL_Driver/Src/stm32f7xx_hal_dcmi.c ****   *                the configuration information for the specified DMA module.
 804:Drivers/STM32F7xx_HAL_Driver/Src/stm32f7xx_hal_dcmi.c ****   * @retval None
 805:Drivers/STM32F7xx_HAL_Driver/Src/stm32f7xx_hal_dcmi.c ****   */
 806:Drivers/STM32F7xx_HAL_Driver/Src/stm32f7xx_hal_dcmi.c **** static void DCMI_DMAXferCplt(DMA_HandleTypeDef *hdma)
 807:Drivers/STM32F7xx_HAL_Driver/Src/stm32f7xx_hal_dcmi.c **** {
  27              		.loc 1 807 0
  28              		.cfi_startproc
  29              		@ args = 0, pretend = 0, frame = 0
  30              		@ frame_needed = 0, uses_anonymous_args = 0
  31              	.LVL0:
  32 0000 10B5     		push	{r4, lr}
  33              	.LCFI0:
  34              		.cfi_def_cfa_offset 8
  35              		.cfi_offset 4, -8
  36              		.cfi_offset 14, -4
  37              	.LVL1:
 808:Drivers/STM32F7xx_HAL_Driver/Src/stm32f7xx_hal_dcmi.c ****   uint32_t tmp = 0;
 809:Drivers/STM32F7xx_HAL_Driver/Src/stm32f7xx_hal_dcmi.c **** 
 810:Drivers/STM32F7xx_HAL_Driver/Src/stm32f7xx_hal_dcmi.c ****   DCMI_HandleTypeDef* hdcmi = ( DCMI_HandleTypeDef* )((DMA_HandleTypeDef* )hdma)->Parent;
  38              		.loc 1 810 0
  39 0002 846B     		ldr	r4, [r0, #56]
  40              	.LVL2:
 811:Drivers/STM32F7xx_HAL_Driver/Src/stm32f7xx_hal_dcmi.c **** 
 812:Drivers/STM32F7xx_HAL_Driver/Src/stm32f7xx_hal_dcmi.c ****   if(hdcmi->XferCount != 0)
  41              		.loc 1 812 0
  42 0004 A36B     		ldr	r3, [r4, #56]
  43 0006 43B3     		cbz	r3, .L2
 813:Drivers/STM32F7xx_HAL_Driver/Src/stm32f7xx_hal_dcmi.c ****   {
ARM GAS  C:\Users\Patryk\AppData\Local\Temp\ccmZaiys.s 			page 16


 814:Drivers/STM32F7xx_HAL_Driver/Src/stm32f7xx_hal_dcmi.c ****     /* Update memory 0 address location */
 815:Drivers/STM32F7xx_HAL_Driver/Src/stm32f7xx_hal_dcmi.c ****     tmp = ((hdcmi->DMA_Handle->Instance->CR) & DMA_SxCR_CT);
  44              		.loc 1 815 0
  45 0008 A06C     		ldr	r0, [r4, #72]
  46              	.LVL3:
  47 000a 0268     		ldr	r2, [r0]
  48 000c 1368     		ldr	r3, [r2]
  49 000e 03F40023 		and	r3, r3, #524288
  50              	.LVL4:
 816:Drivers/STM32F7xx_HAL_Driver/Src/stm32f7xx_hal_dcmi.c ****     if(((hdcmi->XferCount % 2) == 0) && (tmp != 0))
  51              		.loc 1 816 0
  52 0012 A16B     		ldr	r1, [r4, #56]
  53 0014 11F0010F 		tst	r1, #1
  54 0018 00D1     		bne	.L3
  55              		.loc 1 816 0 is_stmt 0 discriminator 1
  56 001a 43B9     		cbnz	r3, .L8
  57              	.L3:
 817:Drivers/STM32F7xx_HAL_Driver/Src/stm32f7xx_hal_dcmi.c ****     {
 818:Drivers/STM32F7xx_HAL_Driver/Src/stm32f7xx_hal_dcmi.c ****       tmp = hdcmi->DMA_Handle->Instance->M0AR;
 819:Drivers/STM32F7xx_HAL_Driver/Src/stm32f7xx_hal_dcmi.c ****       HAL_DMAEx_ChangeMemory(hdcmi->DMA_Handle, (tmp + (8*hdcmi->XferSize)), MEMORY0);
 820:Drivers/STM32F7xx_HAL_Driver/Src/stm32f7xx_hal_dcmi.c ****       hdcmi->XferCount--;
 821:Drivers/STM32F7xx_HAL_Driver/Src/stm32f7xx_hal_dcmi.c ****     }
 822:Drivers/STM32F7xx_HAL_Driver/Src/stm32f7xx_hal_dcmi.c ****     /* Update memory 1 address location */
 823:Drivers/STM32F7xx_HAL_Driver/Src/stm32f7xx_hal_dcmi.c ****     else if((hdcmi->DMA_Handle->Instance->CR & DMA_SxCR_CT) == 0)
  58              		.loc 1 823 0 is_stmt 1
  59 001c 1368     		ldr	r3, [r2]
  60              	.LVL5:
  61 001e 13F4002F 		tst	r3, #524288
  62 0022 0FD0     		beq	.L9
  63              	.L4:
 824:Drivers/STM32F7xx_HAL_Driver/Src/stm32f7xx_hal_dcmi.c ****     {
 825:Drivers/STM32F7xx_HAL_Driver/Src/stm32f7xx_hal_dcmi.c ****       tmp = hdcmi->DMA_Handle->Instance->M1AR;
 826:Drivers/STM32F7xx_HAL_Driver/Src/stm32f7xx_hal_dcmi.c ****       HAL_DMAEx_ChangeMemory(hdcmi->DMA_Handle, (tmp + (8*hdcmi->XferSize)), MEMORY1);
 827:Drivers/STM32F7xx_HAL_Driver/Src/stm32f7xx_hal_dcmi.c ****       hdcmi->XferCount--;
 828:Drivers/STM32F7xx_HAL_Driver/Src/stm32f7xx_hal_dcmi.c ****     }
 829:Drivers/STM32F7xx_HAL_Driver/Src/stm32f7xx_hal_dcmi.c ****   }
 830:Drivers/STM32F7xx_HAL_Driver/Src/stm32f7xx_hal_dcmi.c ****   /* Update memory 0 address location */
 831:Drivers/STM32F7xx_HAL_Driver/Src/stm32f7xx_hal_dcmi.c ****   else if((hdcmi->DMA_Handle->Instance->CR & DMA_SxCR_CT) != 0)
 832:Drivers/STM32F7xx_HAL_Driver/Src/stm32f7xx_hal_dcmi.c ****   {
 833:Drivers/STM32F7xx_HAL_Driver/Src/stm32f7xx_hal_dcmi.c ****     hdcmi->DMA_Handle->Instance->M0AR = hdcmi->pBuffPtr;
 834:Drivers/STM32F7xx_HAL_Driver/Src/stm32f7xx_hal_dcmi.c ****   }
 835:Drivers/STM32F7xx_HAL_Driver/Src/stm32f7xx_hal_dcmi.c ****   /* Update memory 1 address location */
 836:Drivers/STM32F7xx_HAL_Driver/Src/stm32f7xx_hal_dcmi.c ****   else if((hdcmi->DMA_Handle->Instance->CR & DMA_SxCR_CT) == 0)
 837:Drivers/STM32F7xx_HAL_Driver/Src/stm32f7xx_hal_dcmi.c ****   {
 838:Drivers/STM32F7xx_HAL_Driver/Src/stm32f7xx_hal_dcmi.c ****     tmp = hdcmi->pBuffPtr;
 839:Drivers/STM32F7xx_HAL_Driver/Src/stm32f7xx_hal_dcmi.c ****     hdcmi->DMA_Handle->Instance->M1AR = (tmp + (4*hdcmi->XferSize));
 840:Drivers/STM32F7xx_HAL_Driver/Src/stm32f7xx_hal_dcmi.c ****     hdcmi->XferCount = hdcmi->XferTransferNumber;
 841:Drivers/STM32F7xx_HAL_Driver/Src/stm32f7xx_hal_dcmi.c ****   }
 842:Drivers/STM32F7xx_HAL_Driver/Src/stm32f7xx_hal_dcmi.c **** 
 843:Drivers/STM32F7xx_HAL_Driver/Src/stm32f7xx_hal_dcmi.c ****   /* Check if the frame is transferred */
 844:Drivers/STM32F7xx_HAL_Driver/Src/stm32f7xx_hal_dcmi.c ****   if(hdcmi->XferCount == hdcmi->XferTransferNumber)
  64              		.loc 1 844 0
  65 0024 A26B     		ldr	r2, [r4, #56]
  66 0026 236C     		ldr	r3, [r4, #64]
  67 0028 9A42     		cmp	r2, r3
  68 002a 2BD0     		beq	.L10
  69              	.L1:
ARM GAS  C:\Users\Patryk\AppData\Local\Temp\ccmZaiys.s 			page 17


 845:Drivers/STM32F7xx_HAL_Driver/Src/stm32f7xx_hal_dcmi.c ****   {
 846:Drivers/STM32F7xx_HAL_Driver/Src/stm32f7xx_hal_dcmi.c ****     /* Enable the Frame interrupt */
 847:Drivers/STM32F7xx_HAL_Driver/Src/stm32f7xx_hal_dcmi.c ****     __HAL_DCMI_ENABLE_IT(hdcmi, DCMI_IT_FRAME);
 848:Drivers/STM32F7xx_HAL_Driver/Src/stm32f7xx_hal_dcmi.c ****     
 849:Drivers/STM32F7xx_HAL_Driver/Src/stm32f7xx_hal_dcmi.c ****     /* When snapshot mode, set dcmi state to ready */
 850:Drivers/STM32F7xx_HAL_Driver/Src/stm32f7xx_hal_dcmi.c ****     if((hdcmi->Instance->CR & DCMI_CR_CM) == DCMI_MODE_SNAPSHOT)
 851:Drivers/STM32F7xx_HAL_Driver/Src/stm32f7xx_hal_dcmi.c ****     {  
 852:Drivers/STM32F7xx_HAL_Driver/Src/stm32f7xx_hal_dcmi.c ****       hdcmi->State= HAL_DCMI_STATE_READY;
 853:Drivers/STM32F7xx_HAL_Driver/Src/stm32f7xx_hal_dcmi.c ****     }
 854:Drivers/STM32F7xx_HAL_Driver/Src/stm32f7xx_hal_dcmi.c ****   }  
 855:Drivers/STM32F7xx_HAL_Driver/Src/stm32f7xx_hal_dcmi.c **** }
  70              		.loc 1 855 0
  71 002c 10BD     		pop	{r4, pc}
  72              	.LVL6:
  73              	.L8:
 818:Drivers/STM32F7xx_HAL_Driver/Src/stm32f7xx_hal_dcmi.c ****       HAL_DMAEx_ChangeMemory(hdcmi->DMA_Handle, (tmp + (8*hdcmi->XferSize)), MEMORY0);
  74              		.loc 1 818 0
  75 002e D368     		ldr	r3, [r2, #12]
  76              	.LVL7:
 819:Drivers/STM32F7xx_HAL_Driver/Src/stm32f7xx_hal_dcmi.c ****       hdcmi->XferCount--;
  77              		.loc 1 819 0
  78 0030 E16B     		ldr	r1, [r4, #60]
  79 0032 0022     		movs	r2, #0
  80 0034 03EBC101 		add	r1, r3, r1, lsl #3
  81 0038 FFF7FEFF 		bl	HAL_DMAEx_ChangeMemory
  82              	.LVL8:
 820:Drivers/STM32F7xx_HAL_Driver/Src/stm32f7xx_hal_dcmi.c ****     }
  83              		.loc 1 820 0
  84 003c A36B     		ldr	r3, [r4, #56]
  85 003e 013B     		subs	r3, r3, #1
  86 0040 A363     		str	r3, [r4, #56]
  87 0042 EFE7     		b	.L4
  88              	.L9:
 825:Drivers/STM32F7xx_HAL_Driver/Src/stm32f7xx_hal_dcmi.c ****       HAL_DMAEx_ChangeMemory(hdcmi->DMA_Handle, (tmp + (8*hdcmi->XferSize)), MEMORY1);
  89              		.loc 1 825 0
  90 0044 1369     		ldr	r3, [r2, #16]
  91              	.LVL9:
 826:Drivers/STM32F7xx_HAL_Driver/Src/stm32f7xx_hal_dcmi.c ****       hdcmi->XferCount--;
  92              		.loc 1 826 0
  93 0046 E16B     		ldr	r1, [r4, #60]
  94 0048 0122     		movs	r2, #1
  95 004a 03EBC101 		add	r1, r3, r1, lsl #3
  96 004e FFF7FEFF 		bl	HAL_DMAEx_ChangeMemory
  97              	.LVL10:
 827:Drivers/STM32F7xx_HAL_Driver/Src/stm32f7xx_hal_dcmi.c ****     }
  98              		.loc 1 827 0
  99 0052 A36B     		ldr	r3, [r4, #56]
 100 0054 013B     		subs	r3, r3, #1
 101 0056 A363     		str	r3, [r4, #56]
 102 0058 E4E7     		b	.L4
 103              	.LVL11:
 104              	.L2:
 831:Drivers/STM32F7xx_HAL_Driver/Src/stm32f7xx_hal_dcmi.c ****   {
 105              		.loc 1 831 0
 106 005a A36C     		ldr	r3, [r4, #72]
 107 005c 1B68     		ldr	r3, [r3]
 108 005e 1A68     		ldr	r2, [r3]
ARM GAS  C:\Users\Patryk\AppData\Local\Temp\ccmZaiys.s 			page 18


 109 0060 12F4002F 		tst	r2, #524288
 110 0064 02D0     		beq	.L5
 833:Drivers/STM32F7xx_HAL_Driver/Src/stm32f7xx_hal_dcmi.c ****   }
 111              		.loc 1 833 0
 112 0066 626C     		ldr	r2, [r4, #68]
 113 0068 DA60     		str	r2, [r3, #12]
 114 006a DBE7     		b	.L4
 115              	.L5:
 836:Drivers/STM32F7xx_HAL_Driver/Src/stm32f7xx_hal_dcmi.c ****   {
 116              		.loc 1 836 0
 117 006c 1A68     		ldr	r2, [r3]
 118 006e 12F4002F 		tst	r2, #524288
 119 0072 D7D1     		bne	.L4
 838:Drivers/STM32F7xx_HAL_Driver/Src/stm32f7xx_hal_dcmi.c ****     hdcmi->DMA_Handle->Instance->M1AR = (tmp + (4*hdcmi->XferSize));
 120              		.loc 1 838 0
 121 0074 626C     		ldr	r2, [r4, #68]
 122              	.LVL12:
 839:Drivers/STM32F7xx_HAL_Driver/Src/stm32f7xx_hal_dcmi.c ****     hdcmi->XferCount = hdcmi->XferTransferNumber;
 123              		.loc 1 839 0
 124 0076 E16B     		ldr	r1, [r4, #60]
 125 0078 02EB8102 		add	r2, r2, r1, lsl #2
 126              	.LVL13:
 127 007c 1A61     		str	r2, [r3, #16]
 128              	.LVL14:
 840:Drivers/STM32F7xx_HAL_Driver/Src/stm32f7xx_hal_dcmi.c ****   }
 129              		.loc 1 840 0
 130 007e 236C     		ldr	r3, [r4, #64]
 131 0080 A363     		str	r3, [r4, #56]
 132 0082 CFE7     		b	.L4
 133              	.LVL15:
 134              	.L10:
 847:Drivers/STM32F7xx_HAL_Driver/Src/stm32f7xx_hal_dcmi.c ****     
 135              		.loc 1 847 0
 136 0084 2268     		ldr	r2, [r4]
 137 0086 D368     		ldr	r3, [r2, #12]
 138 0088 43F00103 		orr	r3, r3, #1
 139 008c D360     		str	r3, [r2, #12]
 850:Drivers/STM32F7xx_HAL_Driver/Src/stm32f7xx_hal_dcmi.c ****     {  
 140              		.loc 1 850 0
 141 008e 2368     		ldr	r3, [r4]
 142 0090 1B68     		ldr	r3, [r3]
 143 0092 13F0020F 		tst	r3, #2
 144 0096 C9D0     		beq	.L1
 852:Drivers/STM32F7xx_HAL_Driver/Src/stm32f7xx_hal_dcmi.c ****     }
 145              		.loc 1 852 0
 146 0098 0123     		movs	r3, #1
 147 009a 84F83530 		strb	r3, [r4, #53]
 148              		.loc 1 855 0
 149 009e C5E7     		b	.L1
 150              		.cfi_endproc
 151              	.LFE156:
 153              		.section	.text.HAL_DCMI_MspInit,"ax",%progbits
 154              		.align	1
 155              		.weak	HAL_DCMI_MspInit
 156              		.syntax unified
 157              		.thumb
 158              		.thumb_func
ARM GAS  C:\Users\Patryk\AppData\Local\Temp\ccmZaiys.s 			page 19


 159              		.fpu fpv5-sp-d16
 161              	HAL_DCMI_MspInit:
 162              	.LFB140:
 240:Drivers/STM32F7xx_HAL_Driver/Src/stm32f7xx_hal_dcmi.c ****   /* Prevent unused argument(s) compilation warning */
 163              		.loc 1 240 0
 164              		.cfi_startproc
 165              		@ args = 0, pretend = 0, frame = 0
 166              		@ frame_needed = 0, uses_anonymous_args = 0
 167              		@ link register save eliminated.
 168              	.LVL16:
 247:Drivers/STM32F7xx_HAL_Driver/Src/stm32f7xx_hal_dcmi.c **** 
 169              		.loc 1 247 0
 170 0000 7047     		bx	lr
 171              		.cfi_endproc
 172              	.LFE140:
 174              		.section	.text.HAL_DCMI_Init,"ax",%progbits
 175              		.align	1
 176              		.global	HAL_DCMI_Init
 177              		.syntax unified
 178              		.thumb
 179              		.thumb_func
 180              		.fpu fpv5-sp-d16
 182              	HAL_DCMI_Init:
 183              	.LFB138:
 144:Drivers/STM32F7xx_HAL_Driver/Src/stm32f7xx_hal_dcmi.c ****   /* Check the DCMI peripheral state */
 184              		.loc 1 144 0
 185              		.cfi_startproc
 186              		@ args = 0, pretend = 0, frame = 0
 187              		@ frame_needed = 0, uses_anonymous_args = 0
 188              	.LVL17:
 146:Drivers/STM32F7xx_HAL_Driver/Src/stm32f7xx_hal_dcmi.c ****   {
 189              		.loc 1 146 0
 190 0000 0028     		cmp	r0, #0
 191 0002 44D0     		beq	.L16
 144:Drivers/STM32F7xx_HAL_Driver/Src/stm32f7xx_hal_dcmi.c ****   /* Check the DCMI peripheral state */
 192              		.loc 1 144 0
 193 0004 10B5     		push	{r4, lr}
 194              	.LCFI1:
 195              		.cfi_def_cfa_offset 8
 196              		.cfi_offset 4, -8
 197              		.cfi_offset 14, -4
 198 0006 0446     		mov	r4, r0
 166:Drivers/STM32F7xx_HAL_Driver/Src/stm32f7xx_hal_dcmi.c ****   {
 199              		.loc 1 166 0
 200 0008 90F83530 		ldrb	r3, [r0, #53]	@ zero_extendqisi2
 201 000c 002B     		cmp	r3, #0
 202 000e 2ED0     		beq	.L21
 203              	.LVL18:
 204              	.L14:
 173:Drivers/STM32F7xx_HAL_Driver/Src/stm32f7xx_hal_dcmi.c ****                           /* Configures the HS, VS, DE and PC polarity */
 205              		.loc 1 173 0
 206 0010 0223     		movs	r3, #2
 207 0012 84F83530 		strb	r3, [r4, #53]
 175:Drivers/STM32F7xx_HAL_Driver/Src/stm32f7xx_hal_dcmi.c ****                            DCMI_CR_EDM_1  | DCMI_CR_FCRC_0 | DCMI_CR_FCRC_1 | DCMI_CR_JPEG  |\
 208              		.loc 1 175 0
 209 0016 2268     		ldr	r2, [r4]
 210 0018 1168     		ldr	r1, [r2]
ARM GAS  C:\Users\Patryk\AppData\Local\Temp\ccmZaiys.s 			page 20


 211 001a 1E4B     		ldr	r3, .L23
 212 001c 0B40     		ands	r3, r3, r1
 213 001e 1360     		str	r3, [r2]
 180:Drivers/STM32F7xx_HAL_Driver/Src/stm32f7xx_hal_dcmi.c ****                                      hdcmi->Init.VSPolarity  | hdcmi->Init.HSPolarity  |\
 214              		.loc 1 180 0
 215 0020 2268     		ldr	r2, [r4]
 216 0022 1168     		ldr	r1, [r2]
 217 0024 6368     		ldr	r3, [r4, #4]
 218 0026 6069     		ldr	r0, [r4, #20]
 219 0028 0343     		orrs	r3, r3, r0
 181:Drivers/STM32F7xx_HAL_Driver/Src/stm32f7xx_hal_dcmi.c ****                                      hdcmi->Init.PCKPolarity | hdcmi->Init.ExtendedDataMode |\
 220              		.loc 1 181 0
 221 002a E068     		ldr	r0, [r4, #12]
 180:Drivers/STM32F7xx_HAL_Driver/Src/stm32f7xx_hal_dcmi.c ****                                      hdcmi->Init.VSPolarity  | hdcmi->Init.HSPolarity  |\
 222              		.loc 1 180 0
 223 002c 0343     		orrs	r3, r3, r0
 181:Drivers/STM32F7xx_HAL_Driver/Src/stm32f7xx_hal_dcmi.c ****                                      hdcmi->Init.PCKPolarity | hdcmi->Init.ExtendedDataMode |\
 224              		.loc 1 181 0
 225 002e 2069     		ldr	r0, [r4, #16]
 226 0030 0343     		orrs	r3, r3, r0
 182:Drivers/STM32F7xx_HAL_Driver/Src/stm32f7xx_hal_dcmi.c ****                                      hdcmi->Init.JPEGMode | hdcmi->Init.ByteSelectMode |\
 227              		.loc 1 182 0
 228 0032 A068     		ldr	r0, [r4, #8]
 181:Drivers/STM32F7xx_HAL_Driver/Src/stm32f7xx_hal_dcmi.c ****                                      hdcmi->Init.PCKPolarity | hdcmi->Init.ExtendedDataMode |\
 229              		.loc 1 181 0
 230 0034 0343     		orrs	r3, r3, r0
 182:Drivers/STM32F7xx_HAL_Driver/Src/stm32f7xx_hal_dcmi.c ****                                      hdcmi->Init.JPEGMode | hdcmi->Init.ByteSelectMode |\
 231              		.loc 1 182 0
 232 0036 A069     		ldr	r0, [r4, #24]
 233 0038 0343     		orrs	r3, r3, r0
 183:Drivers/STM32F7xx_HAL_Driver/Src/stm32f7xx_hal_dcmi.c ****                                      hdcmi->Init.ByteSelectStart | hdcmi->Init.LineSelectMode |\
 234              		.loc 1 183 0
 235 003a 206A     		ldr	r0, [r4, #32]
 182:Drivers/STM32F7xx_HAL_Driver/Src/stm32f7xx_hal_dcmi.c ****                                      hdcmi->Init.JPEGMode | hdcmi->Init.ByteSelectMode |\
 236              		.loc 1 182 0
 237 003c 0343     		orrs	r3, r3, r0
 183:Drivers/STM32F7xx_HAL_Driver/Src/stm32f7xx_hal_dcmi.c ****                                      hdcmi->Init.ByteSelectStart | hdcmi->Init.LineSelectMode |\
 238              		.loc 1 183 0
 239 003e 606A     		ldr	r0, [r4, #36]
 240 0040 0343     		orrs	r3, r3, r0
 184:Drivers/STM32F7xx_HAL_Driver/Src/stm32f7xx_hal_dcmi.c ****                                      hdcmi->Init.LineSelectStart);
 241              		.loc 1 184 0
 242 0042 A06A     		ldr	r0, [r4, #40]
 183:Drivers/STM32F7xx_HAL_Driver/Src/stm32f7xx_hal_dcmi.c ****                                      hdcmi->Init.ByteSelectStart | hdcmi->Init.LineSelectMode |\
 243              		.loc 1 183 0
 244 0044 0343     		orrs	r3, r3, r0
 184:Drivers/STM32F7xx_HAL_Driver/Src/stm32f7xx_hal_dcmi.c ****                                      hdcmi->Init.LineSelectStart);
 245              		.loc 1 184 0
 246 0046 E06A     		ldr	r0, [r4, #44]
 247 0048 0343     		orrs	r3, r3, r0
 185:Drivers/STM32F7xx_HAL_Driver/Src/stm32f7xx_hal_dcmi.c ****                                      
 248              		.loc 1 185 0
 249 004a 206B     		ldr	r0, [r4, #48]
 184:Drivers/STM32F7xx_HAL_Driver/Src/stm32f7xx_hal_dcmi.c ****                                      hdcmi->Init.LineSelectStart);
 250              		.loc 1 184 0
 251 004c 0343     		orrs	r3, r3, r0
 180:Drivers/STM32F7xx_HAL_Driver/Src/stm32f7xx_hal_dcmi.c ****                                      hdcmi->Init.VSPolarity  | hdcmi->Init.HSPolarity  |\
ARM GAS  C:\Users\Patryk\AppData\Local\Temp\ccmZaiys.s 			page 21


 252              		.loc 1 180 0
 253 004e 0B43     		orrs	r3, r3, r1
 254 0050 1360     		str	r3, [r2]
 187:Drivers/STM32F7xx_HAL_Driver/Src/stm32f7xx_hal_dcmi.c ****   {
 255              		.loc 1 187 0
 256 0052 6368     		ldr	r3, [r4, #4]
 257 0054 102B     		cmp	r3, #16
 258 0056 0DD0     		beq	.L22
 259              	.L15:
 197:Drivers/STM32F7xx_HAL_Driver/Src/stm32f7xx_hal_dcmi.c **** 
 260              		.loc 1 197 0
 261 0058 2268     		ldr	r2, [r4]
 262 005a D368     		ldr	r3, [r2, #12]
 263 005c 43F01E03 		orr	r3, r3, #30
 264 0060 D360     		str	r3, [r2, #12]
 200:Drivers/STM32F7xx_HAL_Driver/Src/stm32f7xx_hal_dcmi.c ****   
 265              		.loc 1 200 0
 266 0062 0020     		movs	r0, #0
 267 0064 E064     		str	r0, [r4, #76]
 203:Drivers/STM32F7xx_HAL_Driver/Src/stm32f7xx_hal_dcmi.c **** 
 268              		.loc 1 203 0
 269 0066 0123     		movs	r3, #1
 270 0068 84F83530 		strb	r3, [r4, #53]
 206:Drivers/STM32F7xx_HAL_Driver/Src/stm32f7xx_hal_dcmi.c **** 
 271              		.loc 1 206 0
 272 006c 10BD     		pop	{r4, pc}
 273              	.LVL19:
 274              	.L21:
 169:Drivers/STM32F7xx_HAL_Driver/Src/stm32f7xx_hal_dcmi.c ****   } 
 275              		.loc 1 169 0
 276 006e FFF7FEFF 		bl	HAL_DCMI_MspInit
 277              	.LVL20:
 278 0072 CDE7     		b	.L14
 279              	.L22:
 189:Drivers/STM32F7xx_HAL_Driver/Src/stm32f7xx_hal_dcmi.c ****                              ((uint32_t)hdcmi->Init.SyncroCode.LineStartCode << DCMI_ESCR_LSC_Pos)|
 280              		.loc 1 189 0
 281 0074 237F     		ldrb	r3, [r4, #28]	@ zero_extendqisi2
 190:Drivers/STM32F7xx_HAL_Driver/Src/stm32f7xx_hal_dcmi.c ****                              ((uint32_t)hdcmi->Init.SyncroCode.LineEndCode << DCMI_ESCR_LEC_Pos) |\
 282              		.loc 1 190 0
 283 0076 627F     		ldrb	r2, [r4, #29]	@ zero_extendqisi2
 189:Drivers/STM32F7xx_HAL_Driver/Src/stm32f7xx_hal_dcmi.c ****                              ((uint32_t)hdcmi->Init.SyncroCode.LineStartCode << DCMI_ESCR_LSC_Pos)|
 284              		.loc 1 189 0
 285 0078 43EA0223 		orr	r3, r3, r2, lsl #8
 191:Drivers/STM32F7xx_HAL_Driver/Src/stm32f7xx_hal_dcmi.c ****                              ((uint32_t)hdcmi->Init.SyncroCode.FrameEndCode << DCMI_ESCR_FEC_Pos));
 286              		.loc 1 191 0
 287 007c A27F     		ldrb	r2, [r4, #30]	@ zero_extendqisi2
 190:Drivers/STM32F7xx_HAL_Driver/Src/stm32f7xx_hal_dcmi.c ****                              ((uint32_t)hdcmi->Init.SyncroCode.LineEndCode << DCMI_ESCR_LEC_Pos) |\
 288              		.loc 1 190 0
 289 007e 43EA0243 		orr	r3, r3, r2, lsl #16
 192:Drivers/STM32F7xx_HAL_Driver/Src/stm32f7xx_hal_dcmi.c **** 
 290              		.loc 1 192 0
 291 0082 E17F     		ldrb	r1, [r4, #31]	@ zero_extendqisi2
 189:Drivers/STM32F7xx_HAL_Driver/Src/stm32f7xx_hal_dcmi.c ****                              ((uint32_t)hdcmi->Init.SyncroCode.LineStartCode << DCMI_ESCR_LSC_Pos)|
 292              		.loc 1 189 0
 293 0084 2268     		ldr	r2, [r4]
 191:Drivers/STM32F7xx_HAL_Driver/Src/stm32f7xx_hal_dcmi.c ****                              ((uint32_t)hdcmi->Init.SyncroCode.FrameEndCode << DCMI_ESCR_FEC_Pos));
 294              		.loc 1 191 0
ARM GAS  C:\Users\Patryk\AppData\Local\Temp\ccmZaiys.s 			page 22


 295 0086 43EA0163 		orr	r3, r3, r1, lsl #24
 189:Drivers/STM32F7xx_HAL_Driver/Src/stm32f7xx_hal_dcmi.c ****                              ((uint32_t)hdcmi->Init.SyncroCode.LineStartCode << DCMI_ESCR_LSC_Pos)|
 296              		.loc 1 189 0
 297 008a 9361     		str	r3, [r2, #24]
 298 008c E4E7     		b	.L15
 299              	.LVL21:
 300              	.L16:
 301              	.LCFI2:
 302              		.cfi_def_cfa_offset 0
 303              		.cfi_restore 4
 304              		.cfi_restore 14
 148:Drivers/STM32F7xx_HAL_Driver/Src/stm32f7xx_hal_dcmi.c ****   }
 305              		.loc 1 148 0
 306 008e 0120     		movs	r0, #1
 307              	.LVL22:
 206:Drivers/STM32F7xx_HAL_Driver/Src/stm32f7xx_hal_dcmi.c **** 
 308              		.loc 1 206 0
 309 0090 7047     		bx	lr
 310              	.L24:
 311 0092 00BF     		.align	2
 312              	.L23:
 313 0094 07F0E0FF 		.word	-2035705
 314              		.cfi_endproc
 315              	.LFE138:
 317              		.section	.text.HAL_DCMI_MspDeInit,"ax",%progbits
 318              		.align	1
 319              		.weak	HAL_DCMI_MspDeInit
 320              		.syntax unified
 321              		.thumb
 322              		.thumb_func
 323              		.fpu fpv5-sp-d16
 325              	HAL_DCMI_MspDeInit:
 326              	.LFB141:
 256:Drivers/STM32F7xx_HAL_Driver/Src/stm32f7xx_hal_dcmi.c ****   /* Prevent unused argument(s) compilation warning */
 327              		.loc 1 256 0
 328              		.cfi_startproc
 329              		@ args = 0, pretend = 0, frame = 0
 330              		@ frame_needed = 0, uses_anonymous_args = 0
 331              		@ link register save eliminated.
 332              	.LVL23:
 263:Drivers/STM32F7xx_HAL_Driver/Src/stm32f7xx_hal_dcmi.c **** 
 333              		.loc 1 263 0
 334 0000 7047     		bx	lr
 335              		.cfi_endproc
 336              	.LFE141:
 338              		.section	.text.HAL_DCMI_DeInit,"ax",%progbits
 339              		.align	1
 340              		.global	HAL_DCMI_DeInit
 341              		.syntax unified
 342              		.thumb
 343              		.thumb_func
 344              		.fpu fpv5-sp-d16
 346              	HAL_DCMI_DeInit:
 347              	.LFB139:
 217:Drivers/STM32F7xx_HAL_Driver/Src/stm32f7xx_hal_dcmi.c ****   /* DeInit the low level hardware */
 348              		.loc 1 217 0
 349              		.cfi_startproc
ARM GAS  C:\Users\Patryk\AppData\Local\Temp\ccmZaiys.s 			page 23


 350              		@ args = 0, pretend = 0, frame = 0
 351              		@ frame_needed = 0, uses_anonymous_args = 0
 352              	.LVL24:
 353 0000 10B5     		push	{r4, lr}
 354              	.LCFI3:
 355              		.cfi_def_cfa_offset 8
 356              		.cfi_offset 4, -8
 357              		.cfi_offset 14, -4
 358 0002 0446     		mov	r4, r0
 219:Drivers/STM32F7xx_HAL_Driver/Src/stm32f7xx_hal_dcmi.c **** 
 359              		.loc 1 219 0
 360 0004 FFF7FEFF 		bl	HAL_DCMI_MspDeInit
 361              	.LVL25:
 222:Drivers/STM32F7xx_HAL_Driver/Src/stm32f7xx_hal_dcmi.c **** 
 362              		.loc 1 222 0
 363 0008 0020     		movs	r0, #0
 364 000a E064     		str	r0, [r4, #76]
 225:Drivers/STM32F7xx_HAL_Driver/Src/stm32f7xx_hal_dcmi.c **** 
 365              		.loc 1 225 0
 366 000c 84F83500 		strb	r0, [r4, #53]
 228:Drivers/STM32F7xx_HAL_Driver/Src/stm32f7xx_hal_dcmi.c **** 
 367              		.loc 1 228 0
 368 0010 84F83400 		strb	r0, [r4, #52]
 231:Drivers/STM32F7xx_HAL_Driver/Src/stm32f7xx_hal_dcmi.c **** 
 369              		.loc 1 231 0
 370 0014 10BD     		pop	{r4, pc}
 371              		.cfi_endproc
 372              	.LFE139:
 374              		.section	.text.HAL_DCMI_Start_DMA,"ax",%progbits
 375              		.align	1
 376              		.global	HAL_DCMI_Start_DMA
 377              		.syntax unified
 378              		.thumb
 379              		.thumb_func
 380              		.fpu fpv5-sp-d16
 382              	HAL_DCMI_Start_DMA:
 383              	.LFB142:
 295:Drivers/STM32F7xx_HAL_Driver/Src/stm32f7xx_hal_dcmi.c ****   /* Initialize the second memory address */
 384              		.loc 1 295 0
 385              		.cfi_startproc
 386              		@ args = 0, pretend = 0, frame = 0
 387              		@ frame_needed = 0, uses_anonymous_args = 0
 388              	.LVL26:
 389 0000 30B5     		push	{r4, r5, lr}
 390              	.LCFI4:
 391              		.cfi_def_cfa_offset 12
 392              		.cfi_offset 4, -12
 393              		.cfi_offset 5, -8
 394              		.cfi_offset 14, -4
 395 0002 83B0     		sub	sp, sp, #12
 396              	.LCFI5:
 397              		.cfi_def_cfa_offset 24
 398              	.LVL27:
 303:Drivers/STM32F7xx_HAL_Driver/Src/stm32f7xx_hal_dcmi.c ****   
 399              		.loc 1 303 0
 400 0004 90F83440 		ldrb	r4, [r0, #52]	@ zero_extendqisi2
 401 0008 012C     		cmp	r4, #1
ARM GAS  C:\Users\Patryk\AppData\Local\Temp\ccmZaiys.s 			page 24


 402 000a 53D0     		beq	.L34
 403 000c 0446     		mov	r4, r0
 303:Drivers/STM32F7xx_HAL_Driver/Src/stm32f7xx_hal_dcmi.c ****   
 404              		.loc 1 303 0 is_stmt 0 discriminator 2
 405 000e 0120     		movs	r0, #1
 406              	.LVL28:
 407 0010 84F83400 		strb	r0, [r4, #52]
 306:Drivers/STM32F7xx_HAL_Driver/Src/stm32f7xx_hal_dcmi.c **** 
 408              		.loc 1 306 0 is_stmt 1 discriminator 2
 409 0014 0220     		movs	r0, #2
 410 0016 84F83500 		strb	r0, [r4, #53]
 309:Drivers/STM32F7xx_HAL_Driver/Src/stm32f7xx_hal_dcmi.c ****   
 411              		.loc 1 309 0 discriminator 2
 412 001a 2568     		ldr	r5, [r4]
 413 001c 2868     		ldr	r0, [r5]
 414 001e 40F48040 		orr	r0, r0, #16384
 415 0022 2860     		str	r0, [r5]
 312:Drivers/STM32F7xx_HAL_Driver/Src/stm32f7xx_hal_dcmi.c ****   hdcmi->Instance->CR |=  (uint32_t)(DCMI_Mode);
 416              		.loc 1 312 0 discriminator 2
 417 0024 2568     		ldr	r5, [r4]
 418 0026 2868     		ldr	r0, [r5]
 419 0028 20F00200 		bic	r0, r0, #2
 420 002c 2860     		str	r0, [r5]
 313:Drivers/STM32F7xx_HAL_Driver/Src/stm32f7xx_hal_dcmi.c **** 
 421              		.loc 1 313 0 discriminator 2
 422 002e 2568     		ldr	r5, [r4]
 423 0030 2868     		ldr	r0, [r5]
 424 0032 0143     		orrs	r1, r1, r0
 425              	.LVL29:
 426 0034 2960     		str	r1, [r5]
 316:Drivers/STM32F7xx_HAL_Driver/Src/stm32f7xx_hal_dcmi.c **** 
 427              		.loc 1 316 0 discriminator 2
 428 0036 A16C     		ldr	r1, [r4, #72]
 429 0038 1F48     		ldr	r0, .L37
 430 003a C863     		str	r0, [r1, #60]
 319:Drivers/STM32F7xx_HAL_Driver/Src/stm32f7xx_hal_dcmi.c **** 
 431              		.loc 1 319 0 discriminator 2
 432 003c A16C     		ldr	r1, [r4, #72]
 433 003e 1F48     		ldr	r0, .L37+4
 434 0040 C864     		str	r0, [r1, #76]
 322:Drivers/STM32F7xx_HAL_Driver/Src/stm32f7xx_hal_dcmi.c **** 
 435              		.loc 1 322 0 discriminator 2
 436 0042 A06C     		ldr	r0, [r4, #72]
 437 0044 0021     		movs	r1, #0
 438 0046 0165     		str	r1, [r0, #80]
 325:Drivers/STM32F7xx_HAL_Driver/Src/stm32f7xx_hal_dcmi.c ****   hdcmi->XferTransferNumber = 0;
 439              		.loc 1 325 0 discriminator 2
 440 0048 A163     		str	r1, [r4, #56]
 326:Drivers/STM32F7xx_HAL_Driver/Src/stm32f7xx_hal_dcmi.c ****   
 441              		.loc 1 326 0 discriminator 2
 442 004a 2164     		str	r1, [r4, #64]
 328:Drivers/STM32F7xx_HAL_Driver/Src/stm32f7xx_hal_dcmi.c ****   {
 443              		.loc 1 328 0 discriminator 2
 444 004c B3F5803F 		cmp	r3, #65536
 445 0050 07D3     		bcc	.L36
 336:Drivers/STM32F7xx_HAL_Driver/Src/stm32f7xx_hal_dcmi.c **** 
 446              		.loc 1 336 0
ARM GAS  C:\Users\Patryk\AppData\Local\Temp\ccmZaiys.s 			page 25


 447 0052 A16C     		ldr	r1, [r4, #72]
 448 0054 1848     		ldr	r0, .L37
 449 0056 4864     		str	r0, [r1, #68]
 339:Drivers/STM32F7xx_HAL_Driver/Src/stm32f7xx_hal_dcmi.c ****     hdcmi->XferSize = Length;
 450              		.loc 1 339 0
 451 0058 0121     		movs	r1, #1
 452 005a A163     		str	r1, [r4, #56]
 340:Drivers/STM32F7xx_HAL_Driver/Src/stm32f7xx_hal_dcmi.c ****     hdcmi->pBuffPtr = pData;
 453              		.loc 1 340 0
 454 005c E363     		str	r3, [r4, #60]
 341:Drivers/STM32F7xx_HAL_Driver/Src/stm32f7xx_hal_dcmi.c ****       
 455              		.loc 1 341 0
 456 005e 6264     		str	r2, [r4, #68]
 344:Drivers/STM32F7xx_HAL_Driver/Src/stm32f7xx_hal_dcmi.c ****     {
 457              		.loc 1 344 0
 458 0060 0BE0     		b	.L32
 459              	.L36:
 331:Drivers/STM32F7xx_HAL_Driver/Src/stm32f7xx_hal_dcmi.c ****   }
 460              		.loc 1 331 0
 461 0062 2168     		ldr	r1, [r4]
 462 0064 2831     		adds	r1, r1, #40
 463 0066 A06C     		ldr	r0, [r4, #72]
 464 0068 FFF7FEFF 		bl	HAL_DMA_Start_IT
 465              	.LVL30:
 466 006c 18E0     		b	.L31
 467              	.LVL31:
 468              	.L33:
 346:Drivers/STM32F7xx_HAL_Driver/Src/stm32f7xx_hal_dcmi.c ****       hdcmi->XferCount = hdcmi->XferCount*2;
 469              		.loc 1 346 0
 470 006e E36B     		ldr	r3, [r4, #60]
 471 0070 5B08     		lsrs	r3, r3, #1
 472 0072 E363     		str	r3, [r4, #60]
 347:Drivers/STM32F7xx_HAL_Driver/Src/stm32f7xx_hal_dcmi.c ****     }
 473              		.loc 1 347 0
 474 0074 A36B     		ldr	r3, [r4, #56]
 475 0076 5B00     		lsls	r3, r3, #1
 476 0078 A363     		str	r3, [r4, #56]
 477              	.L32:
 344:Drivers/STM32F7xx_HAL_Driver/Src/stm32f7xx_hal_dcmi.c ****     {
 478              		.loc 1 344 0
 479 007a E36B     		ldr	r3, [r4, #60]
 480 007c B3F5803F 		cmp	r3, #65536
 481 0080 F5D2     		bcs	.L33
 351:Drivers/STM32F7xx_HAL_Driver/Src/stm32f7xx_hal_dcmi.c ****     hdcmi->XferTransferNumber = hdcmi->XferCount;
 482              		.loc 1 351 0
 483 0082 A36B     		ldr	r3, [r4, #56]
 484 0084 023B     		subs	r3, r3, #2
 485 0086 A363     		str	r3, [r4, #56]
 352:Drivers/STM32F7xx_HAL_Driver/Src/stm32f7xx_hal_dcmi.c **** 
 486              		.loc 1 352 0
 487 0088 A36B     		ldr	r3, [r4, #56]
 488 008a 2364     		str	r3, [r4, #64]
 355:Drivers/STM32F7xx_HAL_Driver/Src/stm32f7xx_hal_dcmi.c **** 
 489              		.loc 1 355 0
 490 008c E36B     		ldr	r3, [r4, #60]
 491              	.LVL32:
 358:Drivers/STM32F7xx_HAL_Driver/Src/stm32f7xx_hal_dcmi.c ****   }
ARM GAS  C:\Users\Patryk\AppData\Local\Temp\ccmZaiys.s 			page 26


 492              		.loc 1 358 0
 493 008e 2168     		ldr	r1, [r4]
 494 0090 E06B     		ldr	r0, [r4, #60]
 495 0092 0090     		str	r0, [sp]
 496 0094 02EB8303 		add	r3, r2, r3, lsl #2
 497              	.LVL33:
 498 0098 2831     		adds	r1, r1, #40
 499 009a A06C     		ldr	r0, [r4, #72]
 500 009c FFF7FEFF 		bl	HAL_DMAEx_MultiBufferStart_IT
 501              	.LVL34:
 502              	.L31:
 362:Drivers/STM32F7xx_HAL_Driver/Src/stm32f7xx_hal_dcmi.c **** 
 503              		.loc 1 362 0
 504 00a0 2268     		ldr	r2, [r4]
 505 00a2 1368     		ldr	r3, [r2]
 506 00a4 43F00103 		orr	r3, r3, #1
 507 00a8 1360     		str	r3, [r2]
 365:Drivers/STM32F7xx_HAL_Driver/Src/stm32f7xx_hal_dcmi.c **** 
 508              		.loc 1 365 0
 509 00aa 0020     		movs	r0, #0
 510 00ac 84F83400 		strb	r0, [r4, #52]
 511              	.LVL35:
 512              	.L29:
 369:Drivers/STM32F7xx_HAL_Driver/Src/stm32f7xx_hal_dcmi.c **** 
 513              		.loc 1 369 0
 514 00b0 03B0     		add	sp, sp, #12
 515              	.LCFI6:
 516              		.cfi_remember_state
 517              		.cfi_def_cfa_offset 12
 518              		@ sp needed
 519 00b2 30BD     		pop	{r4, r5, pc}
 520              	.LVL36:
 521              	.L34:
 522              	.LCFI7:
 523              		.cfi_restore_state
 303:Drivers/STM32F7xx_HAL_Driver/Src/stm32f7xx_hal_dcmi.c ****   
 524              		.loc 1 303 0
 525 00b4 0220     		movs	r0, #2
 526              	.LVL37:
 527 00b6 FBE7     		b	.L29
 528              	.L38:
 529              		.align	2
 530              	.L37:
 531 00b8 00000000 		.word	DCMI_DMAXferCplt
 532 00bc 00000000 		.word	DCMI_DMAError
 533              		.cfi_endproc
 534              	.LFE142:
 536              		.section	.text.HAL_DCMI_Stop,"ax",%progbits
 537              		.align	1
 538              		.global	HAL_DCMI_Stop
 539              		.syntax unified
 540              		.thumb
 541              		.thumb_func
 542              		.fpu fpv5-sp-d16
 544              	HAL_DCMI_Stop:
 545              	.LFB143:
 378:Drivers/STM32F7xx_HAL_Driver/Src/stm32f7xx_hal_dcmi.c ****   register uint32_t count = HAL_TIMEOUT_DCMI_STOP * (SystemCoreClock /8/1000);
ARM GAS  C:\Users\Patryk\AppData\Local\Temp\ccmZaiys.s 			page 27


 546              		.loc 1 378 0
 547              		.cfi_startproc
 548              		@ args = 0, pretend = 0, frame = 0
 549              		@ frame_needed = 0, uses_anonymous_args = 0
 550              	.LVL38:
 551 0000 38B5     		push	{r3, r4, r5, lr}
 552              	.LCFI8:
 553              		.cfi_def_cfa_offset 16
 554              		.cfi_offset 3, -16
 555              		.cfi_offset 4, -12
 556              		.cfi_offset 5, -8
 557              		.cfi_offset 14, -4
 379:Drivers/STM32F7xx_HAL_Driver/Src/stm32f7xx_hal_dcmi.c ****   HAL_StatusTypeDef status = HAL_OK;
 558              		.loc 1 379 0
 559 0002 1E4B     		ldr	r3, .L47
 560 0004 1B68     		ldr	r3, [r3]
 561 0006 1E4A     		ldr	r2, .L47+4
 562 0008 A2FB0323 		umull	r2, r3, r2, r3
 563 000c 5A0A     		lsrs	r2, r3, #9
 564 000e 4FF47A73 		mov	r3, #1000
 565 0012 03FB02F3 		mul	r3, r3, r2
 566              	.LVL39:
 383:Drivers/STM32F7xx_HAL_Driver/Src/stm32f7xx_hal_dcmi.c ****   
 567              		.loc 1 383 0
 568 0016 90F83420 		ldrb	r2, [r0, #52]	@ zero_extendqisi2
 569 001a 012A     		cmp	r2, #1
 570 001c 2CD0     		beq	.L44
 383:Drivers/STM32F7xx_HAL_Driver/Src/stm32f7xx_hal_dcmi.c ****   
 571              		.loc 1 383 0 is_stmt 0 discriminator 2
 572 001e 0122     		movs	r2, #1
 573 0020 80F83420 		strb	r2, [r0, #52]
 386:Drivers/STM32F7xx_HAL_Driver/Src/stm32f7xx_hal_dcmi.c **** 
 574              		.loc 1 386 0 is_stmt 1 discriminator 2
 575 0024 0222     		movs	r2, #2
 576 0026 80F83520 		strb	r2, [r0, #53]
 389:Drivers/STM32F7xx_HAL_Driver/Src/stm32f7xx_hal_dcmi.c **** 
 577              		.loc 1 389 0 discriminator 2
 578 002a 0168     		ldr	r1, [r0]
 579 002c 0A68     		ldr	r2, [r1]
 580 002e 22F00102 		bic	r2, r2, #1
 581 0032 0A60     		str	r2, [r1]
 582              	.L43:
 394:Drivers/STM32F7xx_HAL_Driver/Src/stm32f7xx_hal_dcmi.c ****     {
 583              		.loc 1 394 0
 584 0034 5A1E     		subs	r2, r3, #1
 585              	.LVL40:
 586 0036 3BB1     		cbz	r3, .L46
 403:Drivers/STM32F7xx_HAL_Driver/Src/stm32f7xx_hal_dcmi.c **** 
 587              		.loc 1 403 0
 588 0038 0368     		ldr	r3, [r0]
 589 003a 1968     		ldr	r1, [r3]
 394:Drivers/STM32F7xx_HAL_Driver/Src/stm32f7xx_hal_dcmi.c ****     {
 590              		.loc 1 394 0
 591 003c 1346     		mov	r3, r2
 403:Drivers/STM32F7xx_HAL_Driver/Src/stm32f7xx_hal_dcmi.c **** 
 592              		.loc 1 403 0
 593 003e 11F0010F 		tst	r1, #1
ARM GAS  C:\Users\Patryk\AppData\Local\Temp\ccmZaiys.s 			page 28


 594 0042 F7D1     		bne	.L43
 380:Drivers/STM32F7xx_HAL_Driver/Src/stm32f7xx_hal_dcmi.c **** 
 595              		.loc 1 380 0
 596 0044 0025     		movs	r5, #0
 597 0046 04E0     		b	.L42
 598              	.L46:
 397:Drivers/STM32F7xx_HAL_Driver/Src/stm32f7xx_hal_dcmi.c ****       
 599              		.loc 1 397 0
 600 0048 C36C     		ldr	r3, [r0, #76]
 601 004a 43F02003 		orr	r3, r3, #32
 602 004e C364     		str	r3, [r0, #76]
 603              	.LVL41:
 399:Drivers/STM32F7xx_HAL_Driver/Src/stm32f7xx_hal_dcmi.c ****       break;
 604              		.loc 1 399 0
 605 0050 0325     		movs	r5, #3
 606              	.LVL42:
 607              	.L42:
 608 0052 0446     		mov	r4, r0
 609              	.LVL43:
 406:Drivers/STM32F7xx_HAL_Driver/Src/stm32f7xx_hal_dcmi.c **** 
 610              		.loc 1 406 0
 611 0054 0268     		ldr	r2, [r0]
 612              	.LVL44:
 613 0056 1368     		ldr	r3, [r2]
 614 0058 23F48043 		bic	r3, r3, #16384
 615 005c 1360     		str	r3, [r2]
 409:Drivers/STM32F7xx_HAL_Driver/Src/stm32f7xx_hal_dcmi.c **** 
 616              		.loc 1 409 0
 617 005e 806C     		ldr	r0, [r0, #72]
 618              	.LVL45:
 619 0060 FFF7FEFF 		bl	HAL_DMA_Abort
 620              	.LVL46:
 412:Drivers/STM32F7xx_HAL_Driver/Src/stm32f7xx_hal_dcmi.c **** 
 621              		.loc 1 412 0
 622 0064 E36C     		ldr	r3, [r4, #76]
 623 0066 E364     		str	r3, [r4, #76]
 415:Drivers/STM32F7xx_HAL_Driver/Src/stm32f7xx_hal_dcmi.c **** 
 624              		.loc 1 415 0
 625 0068 0123     		movs	r3, #1
 626 006a 84F83530 		strb	r3, [r4, #53]
 418:Drivers/STM32F7xx_HAL_Driver/Src/stm32f7xx_hal_dcmi.c **** 
 627              		.loc 1 418 0
 628 006e 0023     		movs	r3, #0
 629 0070 84F83430 		strb	r3, [r4, #52]
 630              	.LVL47:
 631              	.L40:
 422:Drivers/STM32F7xx_HAL_Driver/Src/stm32f7xx_hal_dcmi.c **** 
 632              		.loc 1 422 0
 633 0074 2846     		mov	r0, r5
 634 0076 38BD     		pop	{r3, r4, r5, pc}
 635              	.LVL48:
 636              	.L44:
 383:Drivers/STM32F7xx_HAL_Driver/Src/stm32f7xx_hal_dcmi.c ****   
 637              		.loc 1 383 0
 638 0078 0225     		movs	r5, #2
 639 007a FBE7     		b	.L40
 640              	.L48:
ARM GAS  C:\Users\Patryk\AppData\Local\Temp\ccmZaiys.s 			page 29


 641              		.align	2
 642              	.L47:
 643 007c 00000000 		.word	SystemCoreClock
 644 0080 D34D6210 		.word	274877907
 645              		.cfi_endproc
 646              	.LFE143:
 648              		.section	.text.HAL_DCMI_Suspend,"ax",%progbits
 649              		.align	1
 650              		.global	HAL_DCMI_Suspend
 651              		.syntax unified
 652              		.thumb
 653              		.thumb_func
 654              		.fpu fpv5-sp-d16
 656              	HAL_DCMI_Suspend:
 657              	.LFB144:
 431:Drivers/STM32F7xx_HAL_Driver/Src/stm32f7xx_hal_dcmi.c ****   register uint32_t count = HAL_TIMEOUT_DCMI_STOP * (SystemCoreClock /8/1000);
 658              		.loc 1 431 0
 659              		.cfi_startproc
 660              		@ args = 0, pretend = 0, frame = 0
 661              		@ frame_needed = 0, uses_anonymous_args = 0
 662              		@ link register save eliminated.
 663              	.LVL49:
 664 0000 0246     		mov	r2, r0
 432:Drivers/STM32F7xx_HAL_Driver/Src/stm32f7xx_hal_dcmi.c ****   HAL_StatusTypeDef status = HAL_OK;
 665              		.loc 1 432 0
 666 0002 1C4B     		ldr	r3, .L58
 667 0004 1B68     		ldr	r3, [r3]
 668 0006 1C49     		ldr	r1, .L58+4
 669 0008 A1FB0313 		umull	r1, r3, r1, r3
 670 000c 590A     		lsrs	r1, r3, #9
 671 000e 4FF47A73 		mov	r3, #1000
 672 0012 03FB01F3 		mul	r3, r3, r1
 673              	.LVL50:
 436:Drivers/STM32F7xx_HAL_Driver/Src/stm32f7xx_hal_dcmi.c **** 
 674              		.loc 1 436 0
 675 0016 90F83410 		ldrb	r1, [r0, #52]	@ zero_extendqisi2
 676 001a 0129     		cmp	r1, #1
 677 001c 27D0     		beq	.L54
 436:Drivers/STM32F7xx_HAL_Driver/Src/stm32f7xx_hal_dcmi.c **** 
 678              		.loc 1 436 0 is_stmt 0 discriminator 2
 679 001e 0121     		movs	r1, #1
 680 0020 80F83410 		strb	r1, [r0, #52]
 438:Drivers/STM32F7xx_HAL_Driver/Src/stm32f7xx_hal_dcmi.c ****   {
 681              		.loc 1 438 0 is_stmt 1 discriminator 2
 682 0024 90F83510 		ldrb	r1, [r0, #53]	@ zero_extendqisi2
 683 0028 C9B2     		uxtb	r1, r1
 684 002a 0229     		cmp	r1, #2
 685 002c 04D0     		beq	.L56
 433:Drivers/STM32F7xx_HAL_Driver/Src/stm32f7xx_hal_dcmi.c **** 
 686              		.loc 1 433 0
 687 002e 0020     		movs	r0, #0
 688              	.LVL51:
 689              	.L51:
 464:Drivers/STM32F7xx_HAL_Driver/Src/stm32f7xx_hal_dcmi.c ****   
 690              		.loc 1 464 0
 691 0030 0023     		movs	r3, #0
 692 0032 82F83430 		strb	r3, [r2, #52]
ARM GAS  C:\Users\Patryk\AppData\Local\Temp\ccmZaiys.s 			page 30


 467:Drivers/STM32F7xx_HAL_Driver/Src/stm32f7xx_hal_dcmi.c **** }
 693              		.loc 1 467 0
 694 0036 7047     		bx	lr
 695              	.LVL52:
 696              	.L56:
 441:Drivers/STM32F7xx_HAL_Driver/Src/stm32f7xx_hal_dcmi.c **** 
 697              		.loc 1 441 0
 698 0038 0521     		movs	r1, #5
 699 003a 80F83510 		strb	r1, [r0, #53]
 444:Drivers/STM32F7xx_HAL_Driver/Src/stm32f7xx_hal_dcmi.c **** 
 700              		.loc 1 444 0
 701 003e 0068     		ldr	r0, [r0]
 702              	.LVL53:
 703 0040 0168     		ldr	r1, [r0]
 704 0042 21F00101 		bic	r1, r1, #1
 705 0046 0160     		str	r1, [r0]
 706              	.L53:
 449:Drivers/STM32F7xx_HAL_Driver/Src/stm32f7xx_hal_dcmi.c ****       {        
 707              		.loc 1 449 0
 708 0048 591E     		subs	r1, r3, #1
 709              	.LVL54:
 710 004a 3BB1     		cbz	r3, .L57
 461:Drivers/STM32F7xx_HAL_Driver/Src/stm32f7xx_hal_dcmi.c ****   }    
 711              		.loc 1 461 0
 712 004c 1368     		ldr	r3, [r2]
 713 004e 1868     		ldr	r0, [r3]
 449:Drivers/STM32F7xx_HAL_Driver/Src/stm32f7xx_hal_dcmi.c ****       {        
 714              		.loc 1 449 0
 715 0050 0B46     		mov	r3, r1
 461:Drivers/STM32F7xx_HAL_Driver/Src/stm32f7xx_hal_dcmi.c ****   }    
 716              		.loc 1 461 0
 717 0052 10F0010F 		tst	r0, #1
 718 0056 F7D1     		bne	.L53
 433:Drivers/STM32F7xx_HAL_Driver/Src/stm32f7xx_hal_dcmi.c **** 
 719              		.loc 1 433 0
 720 0058 0020     		movs	r0, #0
 721 005a E9E7     		b	.L51
 722              	.L57:
 452:Drivers/STM32F7xx_HAL_Driver/Src/stm32f7xx_hal_dcmi.c ****         
 723              		.loc 1 452 0
 724 005c D36C     		ldr	r3, [r2, #76]
 725 005e 43F02003 		orr	r3, r3, #32
 726 0062 D364     		str	r3, [r2, #76]
 455:Drivers/STM32F7xx_HAL_Driver/Src/stm32f7xx_hal_dcmi.c ****         
 727              		.loc 1 455 0
 728 0064 0123     		movs	r3, #1
 729 0066 82F83530 		strb	r3, [r2, #53]
 730              	.LVL55:
 457:Drivers/STM32F7xx_HAL_Driver/Src/stm32f7xx_hal_dcmi.c ****         break;
 731              		.loc 1 457 0
 732 006a 0320     		movs	r0, #3
 458:Drivers/STM32F7xx_HAL_Driver/Src/stm32f7xx_hal_dcmi.c ****       }
 733              		.loc 1 458 0
 734 006c E0E7     		b	.L51
 735              	.LVL56:
 736              	.L54:
 436:Drivers/STM32F7xx_HAL_Driver/Src/stm32f7xx_hal_dcmi.c **** 
ARM GAS  C:\Users\Patryk\AppData\Local\Temp\ccmZaiys.s 			page 31


 737              		.loc 1 436 0
 738 006e 0220     		movs	r0, #2
 739              	.LVL57:
 468:Drivers/STM32F7xx_HAL_Driver/Src/stm32f7xx_hal_dcmi.c **** 
 740              		.loc 1 468 0
 741 0070 7047     		bx	lr
 742              	.L59:
 743 0072 00BF     		.align	2
 744              	.L58:
 745 0074 00000000 		.word	SystemCoreClock
 746 0078 D34D6210 		.word	274877907
 747              		.cfi_endproc
 748              	.LFE144:
 750              		.section	.text.HAL_DCMI_Resume,"ax",%progbits
 751              		.align	1
 752              		.global	HAL_DCMI_Resume
 753              		.syntax unified
 754              		.thumb
 755              		.thumb_func
 756              		.fpu fpv5-sp-d16
 758              	HAL_DCMI_Resume:
 759              	.LFB145:
 477:Drivers/STM32F7xx_HAL_Driver/Src/stm32f7xx_hal_dcmi.c ****   /* Process locked */
 760              		.loc 1 477 0
 761              		.cfi_startproc
 762              		@ args = 0, pretend = 0, frame = 0
 763              		@ frame_needed = 0, uses_anonymous_args = 0
 764              		@ link register save eliminated.
 765              	.LVL58:
 479:Drivers/STM32F7xx_HAL_Driver/Src/stm32f7xx_hal_dcmi.c ****   
 766              		.loc 1 479 0
 767 0000 90F83430 		ldrb	r3, [r0, #52]	@ zero_extendqisi2
 768 0004 012B     		cmp	r3, #1
 769 0006 15D0     		beq	.L63
 479:Drivers/STM32F7xx_HAL_Driver/Src/stm32f7xx_hal_dcmi.c ****   
 770              		.loc 1 479 0 is_stmt 0 discriminator 2
 771 0008 0123     		movs	r3, #1
 772 000a 80F83430 		strb	r3, [r0, #52]
 481:Drivers/STM32F7xx_HAL_Driver/Src/stm32f7xx_hal_dcmi.c ****   {
 773              		.loc 1 481 0 is_stmt 1 discriminator 2
 774 000e 90F83530 		ldrb	r3, [r0, #53]	@ zero_extendqisi2
 775 0012 DBB2     		uxtb	r3, r3
 776 0014 052B     		cmp	r3, #5
 777 0016 04D0     		beq	.L64
 778              	.L62:
 490:Drivers/STM32F7xx_HAL_Driver/Src/stm32f7xx_hal_dcmi.c ****   
 779              		.loc 1 490 0
 780 0018 0023     		movs	r3, #0
 781 001a 80F83430 		strb	r3, [r0, #52]
 493:Drivers/STM32F7xx_HAL_Driver/Src/stm32f7xx_hal_dcmi.c **** }
 782              		.loc 1 493 0
 783 001e 1846     		mov	r0, r3
 784              	.LVL59:
 785 0020 7047     		bx	lr
 786              	.LVL60:
 787              	.L64:
 484:Drivers/STM32F7xx_HAL_Driver/Src/stm32f7xx_hal_dcmi.c ****     
ARM GAS  C:\Users\Patryk\AppData\Local\Temp\ccmZaiys.s 			page 32


 788              		.loc 1 484 0
 789 0022 0223     		movs	r3, #2
 790 0024 80F83530 		strb	r3, [r0, #53]
 487:Drivers/STM32F7xx_HAL_Driver/Src/stm32f7xx_hal_dcmi.c ****   } 
 791              		.loc 1 487 0
 792 0028 0268     		ldr	r2, [r0]
 793 002a 1368     		ldr	r3, [r2]
 794 002c 43F00103 		orr	r3, r3, #1
 795 0030 1360     		str	r3, [r2]
 796 0032 F1E7     		b	.L62
 797              	.L63:
 479:Drivers/STM32F7xx_HAL_Driver/Src/stm32f7xx_hal_dcmi.c ****   
 798              		.loc 1 479 0
 799 0034 0220     		movs	r0, #2
 800              	.LVL61:
 494:Drivers/STM32F7xx_HAL_Driver/Src/stm32f7xx_hal_dcmi.c **** 
 801              		.loc 1 494 0
 802 0036 7047     		bx	lr
 803              		.cfi_endproc
 804              	.LFE145:
 806              		.section	.text.HAL_DCMI_ErrorCallback,"ax",%progbits
 807              		.align	1
 808              		.weak	HAL_DCMI_ErrorCallback
 809              		.syntax unified
 810              		.thumb
 811              		.thumb_func
 812              		.fpu fpv5-sp-d16
 814              	HAL_DCMI_ErrorCallback:
 815              	.LFB147:
 588:Drivers/STM32F7xx_HAL_Driver/Src/stm32f7xx_hal_dcmi.c ****   /* Prevent unused argument(s) compilation warning */
 816              		.loc 1 588 0
 817              		.cfi_startproc
 818              		@ args = 0, pretend = 0, frame = 0
 819              		@ frame_needed = 0, uses_anonymous_args = 0
 820              		@ link register save eliminated.
 821              	.LVL62:
 595:Drivers/STM32F7xx_HAL_Driver/Src/stm32f7xx_hal_dcmi.c **** 
 822              		.loc 1 595 0
 823 0000 7047     		bx	lr
 824              		.cfi_endproc
 825              	.LFE147:
 827              		.section	.text.DCMI_DMAError,"ax",%progbits
 828              		.align	1
 829              		.syntax unified
 830              		.thumb
 831              		.thumb_func
 832              		.fpu fpv5-sp-d16
 834              	DCMI_DMAError:
 835              	.LFB157:
 856:Drivers/STM32F7xx_HAL_Driver/Src/stm32f7xx_hal_dcmi.c **** 
 857:Drivers/STM32F7xx_HAL_Driver/Src/stm32f7xx_hal_dcmi.c **** /**
 858:Drivers/STM32F7xx_HAL_Driver/Src/stm32f7xx_hal_dcmi.c ****   * @brief  DMA error callback 
 859:Drivers/STM32F7xx_HAL_Driver/Src/stm32f7xx_hal_dcmi.c ****   * @param  hdma pointer to a DMA_HandleTypeDef structure that contains
 860:Drivers/STM32F7xx_HAL_Driver/Src/stm32f7xx_hal_dcmi.c ****   *                the configuration information for the specified DMA module.
 861:Drivers/STM32F7xx_HAL_Driver/Src/stm32f7xx_hal_dcmi.c ****   * @retval None
 862:Drivers/STM32F7xx_HAL_Driver/Src/stm32f7xx_hal_dcmi.c ****   */
 863:Drivers/STM32F7xx_HAL_Driver/Src/stm32f7xx_hal_dcmi.c **** static void DCMI_DMAError(DMA_HandleTypeDef *hdma)
ARM GAS  C:\Users\Patryk\AppData\Local\Temp\ccmZaiys.s 			page 33


 864:Drivers/STM32F7xx_HAL_Driver/Src/stm32f7xx_hal_dcmi.c **** {
 836              		.loc 1 864 0
 837              		.cfi_startproc
 838              		@ args = 0, pretend = 0, frame = 0
 839              		@ frame_needed = 0, uses_anonymous_args = 0
 840              	.LVL63:
 841 0000 08B5     		push	{r3, lr}
 842              	.LCFI9:
 843              		.cfi_def_cfa_offset 8
 844              		.cfi_offset 3, -8
 845              		.cfi_offset 14, -4
 865:Drivers/STM32F7xx_HAL_Driver/Src/stm32f7xx_hal_dcmi.c ****   DCMI_HandleTypeDef* hdcmi = ( DCMI_HandleTypeDef* )((DMA_HandleTypeDef* )hdma)->Parent;
 846              		.loc 1 865 0
 847 0002 806B     		ldr	r0, [r0, #56]
 848              	.LVL64:
 866:Drivers/STM32F7xx_HAL_Driver/Src/stm32f7xx_hal_dcmi.c ****  
 867:Drivers/STM32F7xx_HAL_Driver/Src/stm32f7xx_hal_dcmi.c ****   if(hdcmi->DMA_Handle->ErrorCode != HAL_DMA_ERROR_FE)
 849              		.loc 1 867 0
 850 0004 836C     		ldr	r3, [r0, #72]
 851 0006 5B6D     		ldr	r3, [r3, #84]
 852 0008 022B     		cmp	r3, #2
 853 000a 06D0     		beq	.L67
 868:Drivers/STM32F7xx_HAL_Driver/Src/stm32f7xx_hal_dcmi.c ****   {
 869:Drivers/STM32F7xx_HAL_Driver/Src/stm32f7xx_hal_dcmi.c ****     /* Initialize the DCMI state*/
 870:Drivers/STM32F7xx_HAL_Driver/Src/stm32f7xx_hal_dcmi.c ****     hdcmi->State = HAL_DCMI_STATE_READY;
 854              		.loc 1 870 0
 855 000c 0123     		movs	r3, #1
 856 000e 80F83530 		strb	r3, [r0, #53]
 871:Drivers/STM32F7xx_HAL_Driver/Src/stm32f7xx_hal_dcmi.c ****     
 872:Drivers/STM32F7xx_HAL_Driver/Src/stm32f7xx_hal_dcmi.c ****     /* Set DCMI Error Code */
 873:Drivers/STM32F7xx_HAL_Driver/Src/stm32f7xx_hal_dcmi.c ****     hdcmi->ErrorCode |= HAL_DCMI_ERROR_DMA;
 857              		.loc 1 873 0
 858 0012 C36C     		ldr	r3, [r0, #76]
 859 0014 43F04003 		orr	r3, r3, #64
 860 0018 C364     		str	r3, [r0, #76]
 861              	.L67:
 874:Drivers/STM32F7xx_HAL_Driver/Src/stm32f7xx_hal_dcmi.c ****   }
 875:Drivers/STM32F7xx_HAL_Driver/Src/stm32f7xx_hal_dcmi.c **** 
 876:Drivers/STM32F7xx_HAL_Driver/Src/stm32f7xx_hal_dcmi.c ****   /* DCMI error Callback */  
 877:Drivers/STM32F7xx_HAL_Driver/Src/stm32f7xx_hal_dcmi.c ****   HAL_DCMI_ErrorCallback(hdcmi);
 862              		.loc 1 877 0
 863 001a FFF7FEFF 		bl	HAL_DCMI_ErrorCallback
 864              	.LVL65:
 878:Drivers/STM32F7xx_HAL_Driver/Src/stm32f7xx_hal_dcmi.c **** }
 865              		.loc 1 878 0
 866 001e 08BD     		pop	{r3, pc}
 867              		.cfi_endproc
 868              	.LFE157:
 870              		.section	.text.HAL_DCMI_LineEventCallback,"ax",%progbits
 871              		.align	1
 872              		.weak	HAL_DCMI_LineEventCallback
 873              		.syntax unified
 874              		.thumb
 875              		.thumb_func
 876              		.fpu fpv5-sp-d16
 878              	HAL_DCMI_LineEventCallback:
 879              	.LFB148:
ARM GAS  C:\Users\Patryk\AppData\Local\Temp\ccmZaiys.s 			page 34


 604:Drivers/STM32F7xx_HAL_Driver/Src/stm32f7xx_hal_dcmi.c ****   /* NOTE : This function Should not be modified, when the callback is needed,
 880              		.loc 1 604 0
 881              		.cfi_startproc
 882              		@ args = 0, pretend = 0, frame = 0
 883              		@ frame_needed = 0, uses_anonymous_args = 0
 884              		@ link register save eliminated.
 885              	.LVL66:
 608:Drivers/STM32F7xx_HAL_Driver/Src/stm32f7xx_hal_dcmi.c **** 
 886              		.loc 1 608 0
 887 0000 7047     		bx	lr
 888              		.cfi_endproc
 889              	.LFE148:
 891              		.section	.text.HAL_DCMI_VsyncEventCallback,"ax",%progbits
 892              		.align	1
 893              		.weak	HAL_DCMI_VsyncEventCallback
 894              		.syntax unified
 895              		.thumb
 896              		.thumb_func
 897              		.fpu fpv5-sp-d16
 899              	HAL_DCMI_VsyncEventCallback:
 900              	.LFB149:
 617:Drivers/STM32F7xx_HAL_Driver/Src/stm32f7xx_hal_dcmi.c ****   /* Prevent unused argument(s) compilation warning */
 901              		.loc 1 617 0
 902              		.cfi_startproc
 903              		@ args = 0, pretend = 0, frame = 0
 904              		@ frame_needed = 0, uses_anonymous_args = 0
 905              		@ link register save eliminated.
 906              	.LVL67:
 624:Drivers/STM32F7xx_HAL_Driver/Src/stm32f7xx_hal_dcmi.c **** 
 907              		.loc 1 624 0
 908 0000 7047     		bx	lr
 909              		.cfi_endproc
 910              	.LFE149:
 912              		.section	.text.HAL_DCMI_FrameEventCallback,"ax",%progbits
 913              		.align	1
 914              		.weak	HAL_DCMI_FrameEventCallback
 915              		.syntax unified
 916              		.thumb
 917              		.thumb_func
 918              		.fpu fpv5-sp-d16
 920              	HAL_DCMI_FrameEventCallback:
 921              	.LFB150:
 633:Drivers/STM32F7xx_HAL_Driver/Src/stm32f7xx_hal_dcmi.c ****   /* Prevent unused argument(s) compilation warning */
 922              		.loc 1 633 0
 923              		.cfi_startproc
 924              		@ args = 0, pretend = 0, frame = 0
 925              		@ frame_needed = 0, uses_anonymous_args = 0
 926              		@ link register save eliminated.
 927              	.LVL68:
 640:Drivers/STM32F7xx_HAL_Driver/Src/stm32f7xx_hal_dcmi.c **** 
 928              		.loc 1 640 0
 929 0000 7047     		bx	lr
 930              		.cfi_endproc
 931              	.LFE150:
 933              		.section	.text.HAL_DCMI_IRQHandler,"ax",%progbits
 934              		.align	1
 935              		.global	HAL_DCMI_IRQHandler
ARM GAS  C:\Users\Patryk\AppData\Local\Temp\ccmZaiys.s 			page 35


 936              		.syntax unified
 937              		.thumb
 938              		.thumb_func
 939              		.fpu fpv5-sp-d16
 941              	HAL_DCMI_IRQHandler:
 942              	.LFB146:
 503:Drivers/STM32F7xx_HAL_Driver/Src/stm32f7xx_hal_dcmi.c ****   uint32_t isr_value = READ_REG(hdcmi->Instance->MISR);
 943              		.loc 1 503 0
 944              		.cfi_startproc
 945              		@ args = 0, pretend = 0, frame = 0
 946              		@ frame_needed = 0, uses_anonymous_args = 0
 947              	.LVL69:
 948 0000 38B5     		push	{r3, r4, r5, lr}
 949              	.LCFI10:
 950              		.cfi_def_cfa_offset 16
 951              		.cfi_offset 3, -16
 952              		.cfi_offset 4, -12
 953              		.cfi_offset 5, -8
 954              		.cfi_offset 14, -4
 955 0002 0446     		mov	r4, r0
 504:Drivers/STM32F7xx_HAL_Driver/Src/stm32f7xx_hal_dcmi.c ****   
 956              		.loc 1 504 0
 957 0004 0368     		ldr	r3, [r0]
 958 0006 1D69     		ldr	r5, [r3, #16]
 959              	.LVL70:
 507:Drivers/STM32F7xx_HAL_Driver/Src/stm32f7xx_hal_dcmi.c ****   {
 960              		.loc 1 507 0
 961 0008 15F0040F 		tst	r5, #4
 962 000c 20D1     		bne	.L80
 963              	.LVL71:
 964              	.L73:
 525:Drivers/STM32F7xx_HAL_Driver/Src/stm32f7xx_hal_dcmi.c ****   {
 965              		.loc 1 525 0
 966 000e 15F0020F 		tst	r5, #2
 967 0012 2CD1     		bne	.L81
 968              	.L74:
 543:Drivers/STM32F7xx_HAL_Driver/Src/stm32f7xx_hal_dcmi.c ****   {
 969              		.loc 1 543 0
 970 0014 15F0100F 		tst	r5, #16
 971 0018 3AD1     		bne	.L82
 972              	.L75:
 552:Drivers/STM32F7xx_HAL_Driver/Src/stm32f7xx_hal_dcmi.c ****   {
 973              		.loc 1 552 0
 974 001a 15F0080F 		tst	r5, #8
 975 001e 3ED1     		bne	.L83
 976              	.L76:
 561:Drivers/STM32F7xx_HAL_Driver/Src/stm32f7xx_hal_dcmi.c ****   {
 977              		.loc 1 561 0
 978 0020 15F0010F 		tst	r5, #1
 979 0024 13D0     		beq	.L72
 564:Drivers/STM32F7xx_HAL_Driver/Src/stm32f7xx_hal_dcmi.c ****     { 
 980              		.loc 1 564 0
 981 0026 2368     		ldr	r3, [r4]
 982 0028 1A68     		ldr	r2, [r3]
 983 002a 12F0020F 		tst	r2, #2
 984 002e 03D0     		beq	.L78
 567:Drivers/STM32F7xx_HAL_Driver/Src/stm32f7xx_hal_dcmi.c ****     }
ARM GAS  C:\Users\Patryk\AppData\Local\Temp\ccmZaiys.s 			page 36


 985              		.loc 1 567 0
 986 0030 DA68     		ldr	r2, [r3, #12]
 987 0032 22F01E02 		bic	r2, r2, #30
 988 0036 DA60     		str	r2, [r3, #12]
 989              	.L78:
 571:Drivers/STM32F7xx_HAL_Driver/Src/stm32f7xx_hal_dcmi.c ****     
 990              		.loc 1 571 0
 991 0038 2268     		ldr	r2, [r4]
 992 003a D368     		ldr	r3, [r2, #12]
 993 003c 23F00103 		bic	r3, r3, #1
 994 0040 D360     		str	r3, [r2, #12]
 574:Drivers/STM32F7xx_HAL_Driver/Src/stm32f7xx_hal_dcmi.c ****     
 995              		.loc 1 574 0
 996 0042 2368     		ldr	r3, [r4]
 997 0044 0122     		movs	r2, #1
 998 0046 5A61     		str	r2, [r3, #20]
 577:Drivers/STM32F7xx_HAL_Driver/Src/stm32f7xx_hal_dcmi.c ****   }
 999              		.loc 1 577 0
 1000 0048 2046     		mov	r0, r4
 1001 004a FFF7FEFF 		bl	HAL_DCMI_FrameEventCallback
 1002              	.LVL72:
 1003              	.L72:
 579:Drivers/STM32F7xx_HAL_Driver/Src/stm32f7xx_hal_dcmi.c **** 
 1004              		.loc 1 579 0
 1005 004e 38BD     		pop	{r3, r4, r5, pc}
 1006              	.LVL73:
 1007              	.L80:
 510:Drivers/STM32F7xx_HAL_Driver/Src/stm32f7xx_hal_dcmi.c ****     
 1008              		.loc 1 510 0
 1009 0050 0422     		movs	r2, #4
 1010 0052 5A61     		str	r2, [r3, #20]
 513:Drivers/STM32F7xx_HAL_Driver/Src/stm32f7xx_hal_dcmi.c ****     
 1011              		.loc 1 513 0
 1012 0054 C36C     		ldr	r3, [r0, #76]
 1013 0056 43F00203 		orr	r3, r3, #2
 1014 005a C364     		str	r3, [r0, #76]
 516:Drivers/STM32F7xx_HAL_Driver/Src/stm32f7xx_hal_dcmi.c ****     
 1015              		.loc 1 516 0
 1016 005c 80F83520 		strb	r2, [r0, #53]
 519:Drivers/STM32F7xx_HAL_Driver/Src/stm32f7xx_hal_dcmi.c ****     
 1017              		.loc 1 519 0
 1018 0060 836C     		ldr	r3, [r0, #72]
 1019 0062 124A     		ldr	r2, .L84
 1020 0064 1A65     		str	r2, [r3, #80]
 522:Drivers/STM32F7xx_HAL_Driver/Src/stm32f7xx_hal_dcmi.c ****   }
 1021              		.loc 1 522 0
 1022 0066 806C     		ldr	r0, [r0, #72]
 1023              	.LVL74:
 1024 0068 FFF7FEFF 		bl	HAL_DMA_Abort_IT
 1025              	.LVL75:
 1026 006c CFE7     		b	.L73
 1027              	.L81:
 528:Drivers/STM32F7xx_HAL_Driver/Src/stm32f7xx_hal_dcmi.c ****     
 1028              		.loc 1 528 0
 1029 006e 2368     		ldr	r3, [r4]
 1030 0070 0222     		movs	r2, #2
 1031 0072 5A61     		str	r2, [r3, #20]
ARM GAS  C:\Users\Patryk\AppData\Local\Temp\ccmZaiys.s 			page 37


 531:Drivers/STM32F7xx_HAL_Driver/Src/stm32f7xx_hal_dcmi.c ****     
 1032              		.loc 1 531 0
 1033 0074 E36C     		ldr	r3, [r4, #76]
 1034 0076 43F00103 		orr	r3, r3, #1
 1035 007a E364     		str	r3, [r4, #76]
 534:Drivers/STM32F7xx_HAL_Driver/Src/stm32f7xx_hal_dcmi.c ****     
 1036              		.loc 1 534 0
 1037 007c 0423     		movs	r3, #4
 1038 007e 84F83530 		strb	r3, [r4, #53]
 537:Drivers/STM32F7xx_HAL_Driver/Src/stm32f7xx_hal_dcmi.c ****     
 1039              		.loc 1 537 0
 1040 0082 A36C     		ldr	r3, [r4, #72]
 1041 0084 094A     		ldr	r2, .L84
 1042 0086 1A65     		str	r2, [r3, #80]
 540:Drivers/STM32F7xx_HAL_Driver/Src/stm32f7xx_hal_dcmi.c ****   }
 1043              		.loc 1 540 0
 1044 0088 A06C     		ldr	r0, [r4, #72]
 1045 008a FFF7FEFF 		bl	HAL_DMA_Abort_IT
 1046              	.LVL76:
 1047 008e C1E7     		b	.L74
 1048              	.L82:
 546:Drivers/STM32F7xx_HAL_Driver/Src/stm32f7xx_hal_dcmi.c ****     
 1049              		.loc 1 546 0
 1050 0090 2368     		ldr	r3, [r4]
 1051 0092 1022     		movs	r2, #16
 1052 0094 5A61     		str	r2, [r3, #20]
 549:Drivers/STM32F7xx_HAL_Driver/Src/stm32f7xx_hal_dcmi.c ****   }
 1053              		.loc 1 549 0
 1054 0096 2046     		mov	r0, r4
 1055 0098 FFF7FEFF 		bl	HAL_DCMI_LineEventCallback
 1056              	.LVL77:
 1057 009c BDE7     		b	.L75
 1058              	.L83:
 555:Drivers/STM32F7xx_HAL_Driver/Src/stm32f7xx_hal_dcmi.c ****     
 1059              		.loc 1 555 0
 1060 009e 2368     		ldr	r3, [r4]
 1061 00a0 0822     		movs	r2, #8
 1062 00a2 5A61     		str	r2, [r3, #20]
 558:Drivers/STM32F7xx_HAL_Driver/Src/stm32f7xx_hal_dcmi.c ****   }
 1063              		.loc 1 558 0
 1064 00a4 2046     		mov	r0, r4
 1065 00a6 FFF7FEFF 		bl	HAL_DCMI_VsyncEventCallback
 1066              	.LVL78:
 1067 00aa B9E7     		b	.L76
 1068              	.L85:
 1069              		.align	2
 1070              	.L84:
 1071 00ac 00000000 		.word	DCMI_DMAError
 1072              		.cfi_endproc
 1073              	.LFE146:
 1075              		.section	.text.HAL_DCMI_ConfigCrop,"ax",%progbits
 1076              		.align	1
 1077              		.global	HAL_DCMI_ConfigCrop
 1078              		.syntax unified
 1079              		.thumb
 1080              		.thumb_func
 1081              		.fpu fpv5-sp-d16
ARM GAS  C:\Users\Patryk\AppData\Local\Temp\ccmZaiys.s 			page 38


 1083              	HAL_DCMI_ConfigCrop:
 1084              	.LFB151:
 673:Drivers/STM32F7xx_HAL_Driver/Src/stm32f7xx_hal_dcmi.c ****   /* Process Locked */
 1085              		.loc 1 673 0
 1086              		.cfi_startproc
 1087              		@ args = 4, pretend = 0, frame = 0
 1088              		@ frame_needed = 0, uses_anonymous_args = 0
 1089              		@ link register save eliminated.
 1090              	.LVL79:
 1091 0000 30B4     		push	{r4, r5}
 1092              	.LCFI11:
 1093              		.cfi_def_cfa_offset 8
 1094              		.cfi_offset 4, -8
 1095              		.cfi_offset 5, -4
 675:Drivers/STM32F7xx_HAL_Driver/Src/stm32f7xx_hal_dcmi.c **** 
 1096              		.loc 1 675 0
 1097 0002 90F83440 		ldrb	r4, [r0, #52]	@ zero_extendqisi2
 1098 0006 012C     		cmp	r4, #1
 1099 0008 14D0     		beq	.L88
 678:Drivers/STM32F7xx_HAL_Driver/Src/stm32f7xx_hal_dcmi.c **** 
 1100              		.loc 1 678 0 discriminator 2
 1101 000a 0224     		movs	r4, #2
 1102 000c 80F83540 		strb	r4, [r0, #53]
 687:Drivers/STM32F7xx_HAL_Driver/Src/stm32f7xx_hal_dcmi.c ****   hdcmi->Instance->CWSTRTR = (X0 | (Y0 << DCMI_CWSTRT_VST_Pos));
 1103              		.loc 1 687 0 discriminator 2
 1104 0010 0468     		ldr	r4, [r0]
 1105 0012 029D     		ldr	r5, [sp, #8]
 1106 0014 43EA0543 		orr	r3, r3, r5, lsl #16
 1107              	.LVL80:
 1108 0018 6362     		str	r3, [r4, #36]
 688:Drivers/STM32F7xx_HAL_Driver/Src/stm32f7xx_hal_dcmi.c **** 
 1109              		.loc 1 688 0 discriminator 2
 1110 001a 0368     		ldr	r3, [r0]
 1111 001c 41EA0241 		orr	r1, r1, r2, lsl #16
 1112              	.LVL81:
 1113 0020 1962     		str	r1, [r3, #32]
 691:Drivers/STM32F7xx_HAL_Driver/Src/stm32f7xx_hal_dcmi.c **** 
 1114              		.loc 1 691 0 discriminator 2
 1115 0022 0123     		movs	r3, #1
 1116 0024 80F83530 		strb	r3, [r0, #53]
 694:Drivers/STM32F7xx_HAL_Driver/Src/stm32f7xx_hal_dcmi.c **** 
 1117              		.loc 1 694 0 discriminator 2
 1118 0028 0023     		movs	r3, #0
 1119 002a 80F83430 		strb	r3, [r0, #52]
 696:Drivers/STM32F7xx_HAL_Driver/Src/stm32f7xx_hal_dcmi.c **** }
 1120              		.loc 1 696 0 discriminator 2
 1121 002e 1846     		mov	r0, r3
 1122              	.LVL82:
 1123              	.L87:
 697:Drivers/STM32F7xx_HAL_Driver/Src/stm32f7xx_hal_dcmi.c **** 
 1124              		.loc 1 697 0
 1125 0030 30BC     		pop	{r4, r5}
 1126              	.LCFI12:
 1127              		.cfi_remember_state
 1128              		.cfi_restore 5
 1129              		.cfi_restore 4
 1130              		.cfi_def_cfa_offset 0
ARM GAS  C:\Users\Patryk\AppData\Local\Temp\ccmZaiys.s 			page 39


 1131              	.LVL83:
 1132 0032 7047     		bx	lr
 1133              	.LVL84:
 1134              	.L88:
 1135              	.LCFI13:
 1136              		.cfi_restore_state
 675:Drivers/STM32F7xx_HAL_Driver/Src/stm32f7xx_hal_dcmi.c **** 
 1137              		.loc 1 675 0
 1138 0034 0220     		movs	r0, #2
 1139              	.LVL85:
 1140 0036 FBE7     		b	.L87
 1141              		.cfi_endproc
 1142              	.LFE151:
 1144              		.section	.text.HAL_DCMI_DisableCrop,"ax",%progbits
 1145              		.align	1
 1146              		.global	HAL_DCMI_DisableCrop
 1147              		.syntax unified
 1148              		.thumb
 1149              		.thumb_func
 1150              		.fpu fpv5-sp-d16
 1152              	HAL_DCMI_DisableCrop:
 1153              	.LFB152:
 706:Drivers/STM32F7xx_HAL_Driver/Src/stm32f7xx_hal_dcmi.c ****   /* Process Locked */
 1154              		.loc 1 706 0
 1155              		.cfi_startproc
 1156              		@ args = 0, pretend = 0, frame = 0
 1157              		@ frame_needed = 0, uses_anonymous_args = 0
 1158              		@ link register save eliminated.
 1159              	.LVL86:
 708:Drivers/STM32F7xx_HAL_Driver/Src/stm32f7xx_hal_dcmi.c **** 
 1160              		.loc 1 708 0
 1161 0000 90F83430 		ldrb	r3, [r0, #52]	@ zero_extendqisi2
 1162 0004 012B     		cmp	r3, #1
 1163 0006 11D0     		beq	.L92
 708:Drivers/STM32F7xx_HAL_Driver/Src/stm32f7xx_hal_dcmi.c **** 
 1164              		.loc 1 708 0 is_stmt 0 discriminator 2
 1165 0008 0122     		movs	r2, #1
 1166 000a 80F83420 		strb	r2, [r0, #52]
 711:Drivers/STM32F7xx_HAL_Driver/Src/stm32f7xx_hal_dcmi.c **** 
 1167              		.loc 1 711 0 is_stmt 1 discriminator 2
 1168 000e 0223     		movs	r3, #2
 1169 0010 80F83530 		strb	r3, [r0, #53]
 714:Drivers/STM32F7xx_HAL_Driver/Src/stm32f7xx_hal_dcmi.c **** 
 1170              		.loc 1 714 0 discriminator 2
 1171 0014 0168     		ldr	r1, [r0]
 1172 0016 0B68     		ldr	r3, [r1]
 1173 0018 23F00403 		bic	r3, r3, #4
 1174 001c 0B60     		str	r3, [r1]
 717:Drivers/STM32F7xx_HAL_Driver/Src/stm32f7xx_hal_dcmi.c **** 
 1175              		.loc 1 717 0 discriminator 2
 1176 001e 80F83520 		strb	r2, [r0, #53]
 720:Drivers/STM32F7xx_HAL_Driver/Src/stm32f7xx_hal_dcmi.c **** 
 1177              		.loc 1 720 0 discriminator 2
 1178 0022 0023     		movs	r3, #0
 1179 0024 80F83430 		strb	r3, [r0, #52]
 722:Drivers/STM32F7xx_HAL_Driver/Src/stm32f7xx_hal_dcmi.c **** }
 1180              		.loc 1 722 0 discriminator 2
ARM GAS  C:\Users\Patryk\AppData\Local\Temp\ccmZaiys.s 			page 40


 1181 0028 1846     		mov	r0, r3
 1182              	.LVL87:
 1183 002a 7047     		bx	lr
 1184              	.LVL88:
 1185              	.L92:
 708:Drivers/STM32F7xx_HAL_Driver/Src/stm32f7xx_hal_dcmi.c **** 
 1186              		.loc 1 708 0
 1187 002c 0220     		movs	r0, #2
 1188              	.LVL89:
 723:Drivers/STM32F7xx_HAL_Driver/Src/stm32f7xx_hal_dcmi.c **** 
 1189              		.loc 1 723 0
 1190 002e 7047     		bx	lr
 1191              		.cfi_endproc
 1192              	.LFE152:
 1194              		.section	.text.HAL_DCMI_EnableCrop,"ax",%progbits
 1195              		.align	1
 1196              		.global	HAL_DCMI_EnableCrop
 1197              		.syntax unified
 1198              		.thumb
 1199              		.thumb_func
 1200              		.fpu fpv5-sp-d16
 1202              	HAL_DCMI_EnableCrop:
 1203              	.LFB153:
 732:Drivers/STM32F7xx_HAL_Driver/Src/stm32f7xx_hal_dcmi.c ****   /* Process Locked */
 1204              		.loc 1 732 0
 1205              		.cfi_startproc
 1206              		@ args = 0, pretend = 0, frame = 0
 1207              		@ frame_needed = 0, uses_anonymous_args = 0
 1208              		@ link register save eliminated.
 1209              	.LVL90:
 734:Drivers/STM32F7xx_HAL_Driver/Src/stm32f7xx_hal_dcmi.c **** 
 1210              		.loc 1 734 0
 1211 0000 90F83430 		ldrb	r3, [r0, #52]	@ zero_extendqisi2
 1212 0004 012B     		cmp	r3, #1
 1213 0006 11D0     		beq	.L95
 734:Drivers/STM32F7xx_HAL_Driver/Src/stm32f7xx_hal_dcmi.c **** 
 1214              		.loc 1 734 0 is_stmt 0 discriminator 2
 1215 0008 0122     		movs	r2, #1
 1216 000a 80F83420 		strb	r2, [r0, #52]
 737:Drivers/STM32F7xx_HAL_Driver/Src/stm32f7xx_hal_dcmi.c **** 
 1217              		.loc 1 737 0 is_stmt 1 discriminator 2
 1218 000e 0223     		movs	r3, #2
 1219 0010 80F83530 		strb	r3, [r0, #53]
 740:Drivers/STM32F7xx_HAL_Driver/Src/stm32f7xx_hal_dcmi.c **** 
 1220              		.loc 1 740 0 discriminator 2
 1221 0014 0168     		ldr	r1, [r0]
 1222 0016 0B68     		ldr	r3, [r1]
 1223 0018 43F00403 		orr	r3, r3, #4
 1224 001c 0B60     		str	r3, [r1]
 743:Drivers/STM32F7xx_HAL_Driver/Src/stm32f7xx_hal_dcmi.c **** 
 1225              		.loc 1 743 0 discriminator 2
 1226 001e 80F83520 		strb	r2, [r0, #53]
 746:Drivers/STM32F7xx_HAL_Driver/Src/stm32f7xx_hal_dcmi.c **** 
 1227              		.loc 1 746 0 discriminator 2
 1228 0022 0023     		movs	r3, #0
 1229 0024 80F83430 		strb	r3, [r0, #52]
 748:Drivers/STM32F7xx_HAL_Driver/Src/stm32f7xx_hal_dcmi.c **** }
ARM GAS  C:\Users\Patryk\AppData\Local\Temp\ccmZaiys.s 			page 41


 1230              		.loc 1 748 0 discriminator 2
 1231 0028 1846     		mov	r0, r3
 1232              	.LVL91:
 1233 002a 7047     		bx	lr
 1234              	.LVL92:
 1235              	.L95:
 734:Drivers/STM32F7xx_HAL_Driver/Src/stm32f7xx_hal_dcmi.c **** 
 1236              		.loc 1 734 0
 1237 002c 0220     		movs	r0, #2
 1238              	.LVL93:
 749:Drivers/STM32F7xx_HAL_Driver/Src/stm32f7xx_hal_dcmi.c **** 
 1239              		.loc 1 749 0
 1240 002e 7047     		bx	lr
 1241              		.cfi_endproc
 1242              	.LFE153:
 1244              		.section	.text.HAL_DCMI_GetState,"ax",%progbits
 1245              		.align	1
 1246              		.global	HAL_DCMI_GetState
 1247              		.syntax unified
 1248              		.thumb
 1249              		.thumb_func
 1250              		.fpu fpv5-sp-d16
 1252              	HAL_DCMI_GetState:
 1253              	.LFB154:
 778:Drivers/STM32F7xx_HAL_Driver/Src/stm32f7xx_hal_dcmi.c ****   return hdcmi->State;
 1254              		.loc 1 778 0
 1255              		.cfi_startproc
 1256              		@ args = 0, pretend = 0, frame = 0
 1257              		@ frame_needed = 0, uses_anonymous_args = 0
 1258              		@ link register save eliminated.
 1259              	.LVL94:
 779:Drivers/STM32F7xx_HAL_Driver/Src/stm32f7xx_hal_dcmi.c **** }
 1260              		.loc 1 779 0
 1261 0000 90F83500 		ldrb	r0, [r0, #53]	@ zero_extendqisi2
 1262              	.LVL95:
 780:Drivers/STM32F7xx_HAL_Driver/Src/stm32f7xx_hal_dcmi.c **** 
 1263              		.loc 1 780 0
 1264 0004 7047     		bx	lr
 1265              		.cfi_endproc
 1266              	.LFE154:
 1268              		.section	.text.HAL_DCMI_GetError,"ax",%progbits
 1269              		.align	1
 1270              		.global	HAL_DCMI_GetError
 1271              		.syntax unified
 1272              		.thumb
 1273              		.thumb_func
 1274              		.fpu fpv5-sp-d16
 1276              	HAL_DCMI_GetError:
 1277              	.LFB155:
 789:Drivers/STM32F7xx_HAL_Driver/Src/stm32f7xx_hal_dcmi.c ****   return hdcmi->ErrorCode;
 1278              		.loc 1 789 0
 1279              		.cfi_startproc
 1280              		@ args = 0, pretend = 0, frame = 0
 1281              		@ frame_needed = 0, uses_anonymous_args = 0
 1282              		@ link register save eliminated.
 1283              	.LVL96:
 790:Drivers/STM32F7xx_HAL_Driver/Src/stm32f7xx_hal_dcmi.c **** }
ARM GAS  C:\Users\Patryk\AppData\Local\Temp\ccmZaiys.s 			page 42


 1284              		.loc 1 790 0
 1285 0000 C06C     		ldr	r0, [r0, #76]
 1286              	.LVL97:
 791:Drivers/STM32F7xx_HAL_Driver/Src/stm32f7xx_hal_dcmi.c **** 
 1287              		.loc 1 791 0
 1288 0002 7047     		bx	lr
 1289              		.cfi_endproc
 1290              	.LFE155:
 1292              		.text
 1293              	.Letext0:
 1294              		.file 2 "c:\\program files (x86)\\gnu\\7_2018-q2-update\\arm-none-eabi\\include\\machine\\_default
 1295              		.file 3 "c:\\program files (x86)\\gnu\\7_2018-q2-update\\arm-none-eabi\\include\\sys\\_stdint.h"
 1296              		.file 4 "Drivers/CMSIS/Include/core_cm7.h"
 1297              		.file 5 "Drivers/CMSIS/Device/ST/STM32F7xx/Include/system_stm32f7xx.h"
 1298              		.file 6 "Drivers/CMSIS/Device/ST/STM32F7xx/Include/stm32f746xx.h"
 1299              		.file 7 "c:\\program files (x86)\\gnu\\7_2018-q2-update\\arm-none-eabi\\include\\sys\\lock.h"
 1300              		.file 8 "c:\\program files (x86)\\gnu\\7_2018-q2-update\\arm-none-eabi\\include\\sys\\_types.h"
 1301              		.file 9 "c:\\program files (x86)\\gnu\\7_2018-q2-update\\lib\\gcc\\arm-none-eabi\\7.3.1\\include\\
 1302              		.file 10 "c:\\program files (x86)\\gnu\\7_2018-q2-update\\arm-none-eabi\\include\\sys\\reent.h"
 1303              		.file 11 "Drivers/STM32F7xx_HAL_Driver/Inc/stm32f7xx_hal_def.h"
 1304              		.file 12 "Drivers/STM32F7xx_HAL_Driver/Inc/stm32f7xx_hal_dma.h"
 1305              		.file 13 "Drivers/STM32F7xx_HAL_Driver/Inc/stm32f7xx_hal_dma_ex.h"
 1306              		.file 14 "Drivers/STM32F7xx_HAL_Driver/Inc/stm32f7xx_hal_dcmi.h"
ARM GAS  C:\Users\Patryk\AppData\Local\Temp\ccmZaiys.s 			page 43

