ARM GAS  C:\Users\Student\AppData\Local\Temp\ccDKlFGt.s 			page 1


   1              		.cpu cortex-m7
   2              		.eabi_attribute 27, 1
   3              		.eabi_attribute 28, 1
   4              		.eabi_attribute 20, 1
   5              		.eabi_attribute 21, 1
   6              		.eabi_attribute 23, 3
   7              		.eabi_attribute 24, 1
   8              		.eabi_attribute 25, 1
   9              		.eabi_attribute 26, 1
  10              		.eabi_attribute 30, 1
  11              		.eabi_attribute 34, 1
  12              		.eabi_attribute 18, 4
  13              		.file	"stm32f7xx_hal_rtc.c"
  14              		.text
  15              	.Ltext0:
  16              		.cfi_sections	.debug_frame
  17              		.section	.text.HAL_RTC_MspInit,"ax",%progbits
  18              		.align	1
  19              		.weak	HAL_RTC_MspInit
  20              		.syntax unified
  21              		.thumb
  22              		.thumb_func
  23              		.fpu fpv5-sp-d16
  25              	HAL_RTC_MspInit:
  26              	.LFB138:
  27              		.file 1 "Drivers/STM32F7xx_HAL_Driver/Src/stm32f7xx_hal_rtc.c"
   1:Drivers/STM32F7xx_HAL_Driver/Src/stm32f7xx_hal_rtc.c **** /**
   2:Drivers/STM32F7xx_HAL_Driver/Src/stm32f7xx_hal_rtc.c ****   ******************************************************************************
   3:Drivers/STM32F7xx_HAL_Driver/Src/stm32f7xx_hal_rtc.c ****   * @file    stm32f7xx_hal_rtc.c
   4:Drivers/STM32F7xx_HAL_Driver/Src/stm32f7xx_hal_rtc.c ****   * @author  MCD Application Team
   5:Drivers/STM32F7xx_HAL_Driver/Src/stm32f7xx_hal_rtc.c ****   * @brief   RTC HAL module driver.
   6:Drivers/STM32F7xx_HAL_Driver/Src/stm32f7xx_hal_rtc.c ****   *          This file provides firmware functions to manage the following 
   7:Drivers/STM32F7xx_HAL_Driver/Src/stm32f7xx_hal_rtc.c ****   *          functionalities of the Real Time Clock (RTC) peripheral:
   8:Drivers/STM32F7xx_HAL_Driver/Src/stm32f7xx_hal_rtc.c ****   *           + Initialization and de-initialization functions
   9:Drivers/STM32F7xx_HAL_Driver/Src/stm32f7xx_hal_rtc.c ****   *           + RTC Time and Date functions
  10:Drivers/STM32F7xx_HAL_Driver/Src/stm32f7xx_hal_rtc.c ****   *           + RTC Alarm functions
  11:Drivers/STM32F7xx_HAL_Driver/Src/stm32f7xx_hal_rtc.c ****   *           + Peripheral Control functions   
  12:Drivers/STM32F7xx_HAL_Driver/Src/stm32f7xx_hal_rtc.c ****   *           + Peripheral State functions
  13:Drivers/STM32F7xx_HAL_Driver/Src/stm32f7xx_hal_rtc.c ****   *         
  14:Drivers/STM32F7xx_HAL_Driver/Src/stm32f7xx_hal_rtc.c ****   @verbatim
  15:Drivers/STM32F7xx_HAL_Driver/Src/stm32f7xx_hal_rtc.c ****   ==============================================================================
  16:Drivers/STM32F7xx_HAL_Driver/Src/stm32f7xx_hal_rtc.c ****               ##### Backup Domain Operating Condition #####
  17:Drivers/STM32F7xx_HAL_Driver/Src/stm32f7xx_hal_rtc.c ****   ==============================================================================
  18:Drivers/STM32F7xx_HAL_Driver/Src/stm32f7xx_hal_rtc.c ****   [..] The real-time clock (RTC), the RTC backup registers, and the backup 
  19:Drivers/STM32F7xx_HAL_Driver/Src/stm32f7xx_hal_rtc.c ****        SRAM (BKP SRAM) can be powered from the VBAT voltage when the main 
  20:Drivers/STM32F7xx_HAL_Driver/Src/stm32f7xx_hal_rtc.c ****        VDD supply is powered off.
  21:Drivers/STM32F7xx_HAL_Driver/Src/stm32f7xx_hal_rtc.c ****        To retain the content of the RTC backup registers, backup SRAM, and supply 
  22:Drivers/STM32F7xx_HAL_Driver/Src/stm32f7xx_hal_rtc.c ****        the RTC when VDD is turned off, VBAT pin can be connected to an optional 
  23:Drivers/STM32F7xx_HAL_Driver/Src/stm32f7xx_hal_rtc.c ****        standby voltage supplied by a battery or by another source.
  24:Drivers/STM32F7xx_HAL_Driver/Src/stm32f7xx_hal_rtc.c **** 
  25:Drivers/STM32F7xx_HAL_Driver/Src/stm32f7xx_hal_rtc.c ****   [..] To allow the RTC operating even when the main digital supply (VDD) is turned
  26:Drivers/STM32F7xx_HAL_Driver/Src/stm32f7xx_hal_rtc.c ****        off, the VBAT pin powers the following blocks:
  27:Drivers/STM32F7xx_HAL_Driver/Src/stm32f7xx_hal_rtc.c ****     (#) The RTC
  28:Drivers/STM32F7xx_HAL_Driver/Src/stm32f7xx_hal_rtc.c ****     (#) The LSE oscillator
  29:Drivers/STM32F7xx_HAL_Driver/Src/stm32f7xx_hal_rtc.c ****     (#) The backup SRAM when the low power backup regulator is enabled
  30:Drivers/STM32F7xx_HAL_Driver/Src/stm32f7xx_hal_rtc.c ****     (#) PC13 to PC15 I/Os, plus PI8 I/O (when available)
  31:Drivers/STM32F7xx_HAL_Driver/Src/stm32f7xx_hal_rtc.c ****   
ARM GAS  C:\Users\Student\AppData\Local\Temp\ccDKlFGt.s 			page 2


  32:Drivers/STM32F7xx_HAL_Driver/Src/stm32f7xx_hal_rtc.c ****   [..] When the backup domain is supplied by VDD (analog switch connected to VDD),
  33:Drivers/STM32F7xx_HAL_Driver/Src/stm32f7xx_hal_rtc.c ****        the following pins are available:
  34:Drivers/STM32F7xx_HAL_Driver/Src/stm32f7xx_hal_rtc.c ****     (#) PC14 and PC15 can be used as either GPIO or LSE pins
  35:Drivers/STM32F7xx_HAL_Driver/Src/stm32f7xx_hal_rtc.c ****     (#) PC13 can be used as a GPIO or as the RTC_AF1 pin
  36:Drivers/STM32F7xx_HAL_Driver/Src/stm32f7xx_hal_rtc.c ****     (#) PI8 can be used as a GPIO or as the RTC_AF2 pin
  37:Drivers/STM32F7xx_HAL_Driver/Src/stm32f7xx_hal_rtc.c ****   
  38:Drivers/STM32F7xx_HAL_Driver/Src/stm32f7xx_hal_rtc.c ****   [..] When the backup domain is supplied by VBAT (analog switch connected to VBAT 
  39:Drivers/STM32F7xx_HAL_Driver/Src/stm32f7xx_hal_rtc.c ****        because VDD is not present), the following pins are available:
  40:Drivers/STM32F7xx_HAL_Driver/Src/stm32f7xx_hal_rtc.c ****     (#) PC14 and PC15 can be used as LSE pins only
  41:Drivers/STM32F7xx_HAL_Driver/Src/stm32f7xx_hal_rtc.c ****     (#) PC13 can be used as the RTC_AF1 pin 
  42:Drivers/STM32F7xx_HAL_Driver/Src/stm32f7xx_hal_rtc.c ****     (#) PI8 can be used as the RTC_AF2 pin
  43:Drivers/STM32F7xx_HAL_Driver/Src/stm32f7xx_hal_rtc.c ****     (#) PC1 can be used as the RTC_AF3 pin
  44:Drivers/STM32F7xx_HAL_Driver/Src/stm32f7xx_hal_rtc.c ****              
  45:Drivers/STM32F7xx_HAL_Driver/Src/stm32f7xx_hal_rtc.c ****                    ##### Backup Domain Reset #####
  46:Drivers/STM32F7xx_HAL_Driver/Src/stm32f7xx_hal_rtc.c ****   ==================================================================
  47:Drivers/STM32F7xx_HAL_Driver/Src/stm32f7xx_hal_rtc.c ****   [..] The backup domain reset sets all RTC registers and the RCC_BDCR register 
  48:Drivers/STM32F7xx_HAL_Driver/Src/stm32f7xx_hal_rtc.c ****        to their reset values. The BKPSRAM is not affected by this reset. The only
  49:Drivers/STM32F7xx_HAL_Driver/Src/stm32f7xx_hal_rtc.c ****        way to reset the BKPSRAM is through the Flash interface by requesting 
  50:Drivers/STM32F7xx_HAL_Driver/Src/stm32f7xx_hal_rtc.c ****        a protection level change from 1 to 0.
  51:Drivers/STM32F7xx_HAL_Driver/Src/stm32f7xx_hal_rtc.c ****   [..] A backup domain reset is generated when one of the following events occurs:
  52:Drivers/STM32F7xx_HAL_Driver/Src/stm32f7xx_hal_rtc.c ****     (#) Software reset, triggered by setting the BDRST bit in the 
  53:Drivers/STM32F7xx_HAL_Driver/Src/stm32f7xx_hal_rtc.c ****         RCC Backup domain control register (RCC_BDCR). 
  54:Drivers/STM32F7xx_HAL_Driver/Src/stm32f7xx_hal_rtc.c ****     (#) VDD or VBAT power on, if both supplies have previously been powered off.  
  55:Drivers/STM32F7xx_HAL_Driver/Src/stm32f7xx_hal_rtc.c **** 
  56:Drivers/STM32F7xx_HAL_Driver/Src/stm32f7xx_hal_rtc.c ****                    ##### Backup Domain Access #####
  57:Drivers/STM32F7xx_HAL_Driver/Src/stm32f7xx_hal_rtc.c ****   ==================================================================
  58:Drivers/STM32F7xx_HAL_Driver/Src/stm32f7xx_hal_rtc.c ****   [..] After reset, the backup domain (RTC registers, RTC backup data 
  59:Drivers/STM32F7xx_HAL_Driver/Src/stm32f7xx_hal_rtc.c ****        registers and backup SRAM) is protected against possible unwanted write 
  60:Drivers/STM32F7xx_HAL_Driver/Src/stm32f7xx_hal_rtc.c ****        accesses. 
  61:Drivers/STM32F7xx_HAL_Driver/Src/stm32f7xx_hal_rtc.c ****   [..] To enable access to the RTC Domain and RTC registers, proceed as follows:
  62:Drivers/STM32F7xx_HAL_Driver/Src/stm32f7xx_hal_rtc.c ****     (+) Enable the Power Controller (PWR) APB1 interface clock using the
  63:Drivers/STM32F7xx_HAL_Driver/Src/stm32f7xx_hal_rtc.c ****         __HAL_RCC_PWR_CLK_ENABLE() function.
  64:Drivers/STM32F7xx_HAL_Driver/Src/stm32f7xx_hal_rtc.c ****     (+) Enable access to RTC domain using the HAL_PWR_EnableBkUpAccess() function.
  65:Drivers/STM32F7xx_HAL_Driver/Src/stm32f7xx_hal_rtc.c ****     (+) Select the RTC clock source using the __HAL_RCC_RTC_CONFIG() function.
  66:Drivers/STM32F7xx_HAL_Driver/Src/stm32f7xx_hal_rtc.c ****     (+) Enable RTC Clock using the __HAL_RCC_RTC_ENABLE() function.
  67:Drivers/STM32F7xx_HAL_Driver/Src/stm32f7xx_hal_rtc.c ****   
  68:Drivers/STM32F7xx_HAL_Driver/Src/stm32f7xx_hal_rtc.c ****   
  69:Drivers/STM32F7xx_HAL_Driver/Src/stm32f7xx_hal_rtc.c ****                   ##### How to use this driver #####
  70:Drivers/STM32F7xx_HAL_Driver/Src/stm32f7xx_hal_rtc.c ****   ==================================================================
  71:Drivers/STM32F7xx_HAL_Driver/Src/stm32f7xx_hal_rtc.c ****   [..] 
  72:Drivers/STM32F7xx_HAL_Driver/Src/stm32f7xx_hal_rtc.c ****     (+) Enable the RTC domain access (see description in the section above).
  73:Drivers/STM32F7xx_HAL_Driver/Src/stm32f7xx_hal_rtc.c ****     (+) Configure the RTC Prescaler (Asynchronous and Synchronous) and RTC hour 
  74:Drivers/STM32F7xx_HAL_Driver/Src/stm32f7xx_hal_rtc.c ****         format using the HAL_RTC_Init() function.
  75:Drivers/STM32F7xx_HAL_Driver/Src/stm32f7xx_hal_rtc.c ****   
  76:Drivers/STM32F7xx_HAL_Driver/Src/stm32f7xx_hal_rtc.c ****   *** Time and Date configuration ***
  77:Drivers/STM32F7xx_HAL_Driver/Src/stm32f7xx_hal_rtc.c ****   ===================================
  78:Drivers/STM32F7xx_HAL_Driver/Src/stm32f7xx_hal_rtc.c ****   [..] 
  79:Drivers/STM32F7xx_HAL_Driver/Src/stm32f7xx_hal_rtc.c ****     (+) To configure the RTC Calendar (Time and Date) use the HAL_RTC_SetTime() 
  80:Drivers/STM32F7xx_HAL_Driver/Src/stm32f7xx_hal_rtc.c ****         and HAL_RTC_SetDate() functions.
  81:Drivers/STM32F7xx_HAL_Driver/Src/stm32f7xx_hal_rtc.c ****     (+) To read the RTC Calendar, use the HAL_RTC_GetTime() and HAL_RTC_GetDate() functions. 
  82:Drivers/STM32F7xx_HAL_Driver/Src/stm32f7xx_hal_rtc.c ****   
  83:Drivers/STM32F7xx_HAL_Driver/Src/stm32f7xx_hal_rtc.c ****   *** Alarm configuration ***
  84:Drivers/STM32F7xx_HAL_Driver/Src/stm32f7xx_hal_rtc.c ****   ===========================
  85:Drivers/STM32F7xx_HAL_Driver/Src/stm32f7xx_hal_rtc.c ****   [..]
  86:Drivers/STM32F7xx_HAL_Driver/Src/stm32f7xx_hal_rtc.c ****     (+) To configure the RTC Alarm use the HAL_RTC_SetAlarm() function. 
  87:Drivers/STM32F7xx_HAL_Driver/Src/stm32f7xx_hal_rtc.c ****         You can also configure the RTC Alarm with interrupt mode using the HAL_RTC_SetAlarm_IT() fu
  88:Drivers/STM32F7xx_HAL_Driver/Src/stm32f7xx_hal_rtc.c ****     (+) To read the RTC Alarm, use the HAL_RTC_GetAlarm() function.
ARM GAS  C:\Users\Student\AppData\Local\Temp\ccDKlFGt.s 			page 3


  89:Drivers/STM32F7xx_HAL_Driver/Src/stm32f7xx_hal_rtc.c ****   
  90:Drivers/STM32F7xx_HAL_Driver/Src/stm32f7xx_hal_rtc.c ****                   ##### RTC and low power modes #####
  91:Drivers/STM32F7xx_HAL_Driver/Src/stm32f7xx_hal_rtc.c ****   ==================================================================
  92:Drivers/STM32F7xx_HAL_Driver/Src/stm32f7xx_hal_rtc.c ****   [..] The MCU can be woken up from a low power mode by an RTC alternate 
  93:Drivers/STM32F7xx_HAL_Driver/Src/stm32f7xx_hal_rtc.c ****        function.
  94:Drivers/STM32F7xx_HAL_Driver/Src/stm32f7xx_hal_rtc.c ****   [..] The RTC alternate functions are the RTC alarms (Alarm A and Alarm B), 
  95:Drivers/STM32F7xx_HAL_Driver/Src/stm32f7xx_hal_rtc.c ****        RTC wakeup, RTC tamper event detection and RTC time stamp event detection.
  96:Drivers/STM32F7xx_HAL_Driver/Src/stm32f7xx_hal_rtc.c ****        These RTC alternate functions can wake up the system from the Stop and 
  97:Drivers/STM32F7xx_HAL_Driver/Src/stm32f7xx_hal_rtc.c ****        Standby low power modes.
  98:Drivers/STM32F7xx_HAL_Driver/Src/stm32f7xx_hal_rtc.c ****   [..] The system can also wake up from low power modes without depending 
  99:Drivers/STM32F7xx_HAL_Driver/Src/stm32f7xx_hal_rtc.c ****        on an external interrupt (Auto-wakeup mode), by using the RTC alarm 
 100:Drivers/STM32F7xx_HAL_Driver/Src/stm32f7xx_hal_rtc.c ****        or the RTC wakeup events.
 101:Drivers/STM32F7xx_HAL_Driver/Src/stm32f7xx_hal_rtc.c ****   [..] The RTC provides a programmable time base for waking up from the 
 102:Drivers/STM32F7xx_HAL_Driver/Src/stm32f7xx_hal_rtc.c ****        Stop or Standby mode at regular intervals.
 103:Drivers/STM32F7xx_HAL_Driver/Src/stm32f7xx_hal_rtc.c ****        Wakeup from STOP and STANDBY modes is possible only when the RTC clock source
 104:Drivers/STM32F7xx_HAL_Driver/Src/stm32f7xx_hal_rtc.c ****        is LSE or LSI.
 105:Drivers/STM32F7xx_HAL_Driver/Src/stm32f7xx_hal_rtc.c ****      
 106:Drivers/STM32F7xx_HAL_Driver/Src/stm32f7xx_hal_rtc.c ****    @endverbatim
 107:Drivers/STM32F7xx_HAL_Driver/Src/stm32f7xx_hal_rtc.c ****   ******************************************************************************
 108:Drivers/STM32F7xx_HAL_Driver/Src/stm32f7xx_hal_rtc.c ****   * @attention
 109:Drivers/STM32F7xx_HAL_Driver/Src/stm32f7xx_hal_rtc.c ****   *
 110:Drivers/STM32F7xx_HAL_Driver/Src/stm32f7xx_hal_rtc.c ****   * <h2><center>&copy; COPYRIGHT(c) 2017 STMicroelectronics</center></h2>
 111:Drivers/STM32F7xx_HAL_Driver/Src/stm32f7xx_hal_rtc.c ****   *
 112:Drivers/STM32F7xx_HAL_Driver/Src/stm32f7xx_hal_rtc.c ****   * Redistribution and use in source and binary forms, with or without modification,
 113:Drivers/STM32F7xx_HAL_Driver/Src/stm32f7xx_hal_rtc.c ****   * are permitted provided that the following conditions are met:
 114:Drivers/STM32F7xx_HAL_Driver/Src/stm32f7xx_hal_rtc.c ****   *   1. Redistributions of source code must retain the above copyright notice,
 115:Drivers/STM32F7xx_HAL_Driver/Src/stm32f7xx_hal_rtc.c ****   *      this list of conditions and the following disclaimer.
 116:Drivers/STM32F7xx_HAL_Driver/Src/stm32f7xx_hal_rtc.c ****   *   2. Redistributions in binary form must reproduce the above copyright notice,
 117:Drivers/STM32F7xx_HAL_Driver/Src/stm32f7xx_hal_rtc.c ****   *      this list of conditions and the following disclaimer in the documentation
 118:Drivers/STM32F7xx_HAL_Driver/Src/stm32f7xx_hal_rtc.c ****   *      and/or other materials provided with the distribution.
 119:Drivers/STM32F7xx_HAL_Driver/Src/stm32f7xx_hal_rtc.c ****   *   3. Neither the name of STMicroelectronics nor the names of its contributors
 120:Drivers/STM32F7xx_HAL_Driver/Src/stm32f7xx_hal_rtc.c ****   *      may be used to endorse or promote products derived from this software
 121:Drivers/STM32F7xx_HAL_Driver/Src/stm32f7xx_hal_rtc.c ****   *      without specific prior written permission.
 122:Drivers/STM32F7xx_HAL_Driver/Src/stm32f7xx_hal_rtc.c ****   *
 123:Drivers/STM32F7xx_HAL_Driver/Src/stm32f7xx_hal_rtc.c ****   * THIS SOFTWARE IS PROVIDED BY THE COPYRIGHT HOLDERS AND CONTRIBUTORS "AS IS"
 124:Drivers/STM32F7xx_HAL_Driver/Src/stm32f7xx_hal_rtc.c ****   * AND ANY EXPRESS OR IMPLIED WARRANTIES, INCLUDING, BUT NOT LIMITED TO, THE
 125:Drivers/STM32F7xx_HAL_Driver/Src/stm32f7xx_hal_rtc.c ****   * IMPLIED WARRANTIES OF MERCHANTABILITY AND FITNESS FOR A PARTICULAR PURPOSE ARE
 126:Drivers/STM32F7xx_HAL_Driver/Src/stm32f7xx_hal_rtc.c ****   * DISCLAIMED. IN NO EVENT SHALL THE COPYRIGHT HOLDER OR CONTRIBUTORS BE LIABLE
 127:Drivers/STM32F7xx_HAL_Driver/Src/stm32f7xx_hal_rtc.c ****   * FOR ANY DIRECT, INDIRECT, INCIDENTAL, SPECIAL, EXEMPLARY, OR CONSEQUENTIAL
 128:Drivers/STM32F7xx_HAL_Driver/Src/stm32f7xx_hal_rtc.c ****   * DAMAGES (INCLUDING, BUT NOT LIMITED TO, PROCUREMENT OF SUBSTITUTE GOODS OR
 129:Drivers/STM32F7xx_HAL_Driver/Src/stm32f7xx_hal_rtc.c ****   * SERVICES; LOSS OF USE, DATA, OR PROFITS; OR BUSINESS INTERRUPTION) HOWEVER
 130:Drivers/STM32F7xx_HAL_Driver/Src/stm32f7xx_hal_rtc.c ****   * CAUSED AND ON ANY THEORY OF LIABILITY, WHETHER IN CONTRACT, STRICT LIABILITY,
 131:Drivers/STM32F7xx_HAL_Driver/Src/stm32f7xx_hal_rtc.c ****   * OR TORT (INCLUDING NEGLIGENCE OR OTHERWISE) ARISING IN ANY WAY OUT OF THE USE
 132:Drivers/STM32F7xx_HAL_Driver/Src/stm32f7xx_hal_rtc.c ****   * OF THIS SOFTWARE, EVEN IF ADVISED OF THE POSSIBILITY OF SUCH DAMAGE.
 133:Drivers/STM32F7xx_HAL_Driver/Src/stm32f7xx_hal_rtc.c ****   *
 134:Drivers/STM32F7xx_HAL_Driver/Src/stm32f7xx_hal_rtc.c ****   ******************************************************************************
 135:Drivers/STM32F7xx_HAL_Driver/Src/stm32f7xx_hal_rtc.c ****   */ 
 136:Drivers/STM32F7xx_HAL_Driver/Src/stm32f7xx_hal_rtc.c **** 
 137:Drivers/STM32F7xx_HAL_Driver/Src/stm32f7xx_hal_rtc.c **** /* Includes ------------------------------------------------------------------*/
 138:Drivers/STM32F7xx_HAL_Driver/Src/stm32f7xx_hal_rtc.c **** #include "stm32f7xx_hal.h"
 139:Drivers/STM32F7xx_HAL_Driver/Src/stm32f7xx_hal_rtc.c **** 
 140:Drivers/STM32F7xx_HAL_Driver/Src/stm32f7xx_hal_rtc.c **** /** @addtogroup STM32F7xx_HAL_Driver
 141:Drivers/STM32F7xx_HAL_Driver/Src/stm32f7xx_hal_rtc.c ****   * @{
 142:Drivers/STM32F7xx_HAL_Driver/Src/stm32f7xx_hal_rtc.c ****   */
 143:Drivers/STM32F7xx_HAL_Driver/Src/stm32f7xx_hal_rtc.c **** 
 144:Drivers/STM32F7xx_HAL_Driver/Src/stm32f7xx_hal_rtc.c **** /** @defgroup RTC RTC
 145:Drivers/STM32F7xx_HAL_Driver/Src/stm32f7xx_hal_rtc.c ****   * @brief RTC HAL module driver
ARM GAS  C:\Users\Student\AppData\Local\Temp\ccDKlFGt.s 			page 4


 146:Drivers/STM32F7xx_HAL_Driver/Src/stm32f7xx_hal_rtc.c ****   * @{
 147:Drivers/STM32F7xx_HAL_Driver/Src/stm32f7xx_hal_rtc.c ****   */
 148:Drivers/STM32F7xx_HAL_Driver/Src/stm32f7xx_hal_rtc.c **** 
 149:Drivers/STM32F7xx_HAL_Driver/Src/stm32f7xx_hal_rtc.c **** #ifdef HAL_RTC_MODULE_ENABLED
 150:Drivers/STM32F7xx_HAL_Driver/Src/stm32f7xx_hal_rtc.c **** 
 151:Drivers/STM32F7xx_HAL_Driver/Src/stm32f7xx_hal_rtc.c **** /* Private typedef -----------------------------------------------------------*/
 152:Drivers/STM32F7xx_HAL_Driver/Src/stm32f7xx_hal_rtc.c **** /* Private define ------------------------------------------------------------*/
 153:Drivers/STM32F7xx_HAL_Driver/Src/stm32f7xx_hal_rtc.c **** /* Private macro -------------------------------------------------------------*/
 154:Drivers/STM32F7xx_HAL_Driver/Src/stm32f7xx_hal_rtc.c **** /* Private variables ---------------------------------------------------------*/
 155:Drivers/STM32F7xx_HAL_Driver/Src/stm32f7xx_hal_rtc.c **** /* Private function prototypes -----------------------------------------------*/
 156:Drivers/STM32F7xx_HAL_Driver/Src/stm32f7xx_hal_rtc.c **** /* Private functions ---------------------------------------------------------*/
 157:Drivers/STM32F7xx_HAL_Driver/Src/stm32f7xx_hal_rtc.c **** 
 158:Drivers/STM32F7xx_HAL_Driver/Src/stm32f7xx_hal_rtc.c **** /** @defgroup RTC_Exported_Functions RTC Exported Functions
 159:Drivers/STM32F7xx_HAL_Driver/Src/stm32f7xx_hal_rtc.c ****   * @{
 160:Drivers/STM32F7xx_HAL_Driver/Src/stm32f7xx_hal_rtc.c ****   */
 161:Drivers/STM32F7xx_HAL_Driver/Src/stm32f7xx_hal_rtc.c ****   
 162:Drivers/STM32F7xx_HAL_Driver/Src/stm32f7xx_hal_rtc.c **** /** @defgroup RTC_Group1 Initialization and de-initialization functions 
 163:Drivers/STM32F7xx_HAL_Driver/Src/stm32f7xx_hal_rtc.c ****  *  @brief    Initialization and Configuration functions 
 164:Drivers/STM32F7xx_HAL_Driver/Src/stm32f7xx_hal_rtc.c ****  *
 165:Drivers/STM32F7xx_HAL_Driver/Src/stm32f7xx_hal_rtc.c **** @verbatim    
 166:Drivers/STM32F7xx_HAL_Driver/Src/stm32f7xx_hal_rtc.c ****  ===============================================================================
 167:Drivers/STM32F7xx_HAL_Driver/Src/stm32f7xx_hal_rtc.c ****               ##### Initialization and de-initialization functions #####
 168:Drivers/STM32F7xx_HAL_Driver/Src/stm32f7xx_hal_rtc.c ****  ===============================================================================
 169:Drivers/STM32F7xx_HAL_Driver/Src/stm32f7xx_hal_rtc.c ****    [..] This section provides functions allowing to initialize and configure the 
 170:Drivers/STM32F7xx_HAL_Driver/Src/stm32f7xx_hal_rtc.c ****          RTC Prescaler (Synchronous and Asynchronous), RTC Hour format, disable 
 171:Drivers/STM32F7xx_HAL_Driver/Src/stm32f7xx_hal_rtc.c ****          RTC registers Write protection, enter and exit the RTC initialization mode, 
 172:Drivers/STM32F7xx_HAL_Driver/Src/stm32f7xx_hal_rtc.c ****          RTC registers synchronization check and reference clock detection enable.
 173:Drivers/STM32F7xx_HAL_Driver/Src/stm32f7xx_hal_rtc.c ****          (#) The RTC Prescaler is programmed to generate the RTC 1Hz time base. 
 174:Drivers/STM32F7xx_HAL_Driver/Src/stm32f7xx_hal_rtc.c ****              It is split into 2 programmable prescalers to minimize power consumption.
 175:Drivers/STM32F7xx_HAL_Driver/Src/stm32f7xx_hal_rtc.c ****              (++) A 7-bit asynchronous prescaler and a 13-bit synchronous prescaler.
 176:Drivers/STM32F7xx_HAL_Driver/Src/stm32f7xx_hal_rtc.c ****              (++) When both prescalers are used, it is recommended to configure the 
 177:Drivers/STM32F7xx_HAL_Driver/Src/stm32f7xx_hal_rtc.c ****                  asynchronous prescaler to a high value to minimize power consumption.
 178:Drivers/STM32F7xx_HAL_Driver/Src/stm32f7xx_hal_rtc.c ****          (#) All RTC registers are Write protected. Writing to the RTC registers
 179:Drivers/STM32F7xx_HAL_Driver/Src/stm32f7xx_hal_rtc.c ****              is enabled by writing a key into the Write Protection register, RTC_WPR.
 180:Drivers/STM32F7xx_HAL_Driver/Src/stm32f7xx_hal_rtc.c ****          (#) To configure the RTC Calendar, user application should enter 
 181:Drivers/STM32F7xx_HAL_Driver/Src/stm32f7xx_hal_rtc.c ****              initialization mode. In this mode, the calendar counter is stopped 
 182:Drivers/STM32F7xx_HAL_Driver/Src/stm32f7xx_hal_rtc.c ****              and its value can be updated. When the initialization sequence is 
 183:Drivers/STM32F7xx_HAL_Driver/Src/stm32f7xx_hal_rtc.c ****              complete, the calendar restarts counting after 4 RTCCLK cycles.
 184:Drivers/STM32F7xx_HAL_Driver/Src/stm32f7xx_hal_rtc.c ****          (#) To read the calendar through the shadow registers after Calendar 
 185:Drivers/STM32F7xx_HAL_Driver/Src/stm32f7xx_hal_rtc.c ****              initialization, calendar update or after wakeup from low power modes 
 186:Drivers/STM32F7xx_HAL_Driver/Src/stm32f7xx_hal_rtc.c ****              the software must first clear the RSF flag. The software must then 
 187:Drivers/STM32F7xx_HAL_Driver/Src/stm32f7xx_hal_rtc.c ****              wait until it is set again before reading the calendar, which means 
 188:Drivers/STM32F7xx_HAL_Driver/Src/stm32f7xx_hal_rtc.c ****              that the calendar registers have been correctly copied into the 
 189:Drivers/STM32F7xx_HAL_Driver/Src/stm32f7xx_hal_rtc.c ****              RTC_TR and RTC_DR shadow registers.The HAL_RTC_WaitForSynchro() function 
 190:Drivers/STM32F7xx_HAL_Driver/Src/stm32f7xx_hal_rtc.c ****              implements the above software sequence (RSF clear and RSF check).
 191:Drivers/STM32F7xx_HAL_Driver/Src/stm32f7xx_hal_rtc.c ****  
 192:Drivers/STM32F7xx_HAL_Driver/Src/stm32f7xx_hal_rtc.c **** @endverbatim
 193:Drivers/STM32F7xx_HAL_Driver/Src/stm32f7xx_hal_rtc.c ****   * @{
 194:Drivers/STM32F7xx_HAL_Driver/Src/stm32f7xx_hal_rtc.c ****   */
 195:Drivers/STM32F7xx_HAL_Driver/Src/stm32f7xx_hal_rtc.c **** 
 196:Drivers/STM32F7xx_HAL_Driver/Src/stm32f7xx_hal_rtc.c **** /**
 197:Drivers/STM32F7xx_HAL_Driver/Src/stm32f7xx_hal_rtc.c ****   * @brief  Initializes the RTC peripheral 
 198:Drivers/STM32F7xx_HAL_Driver/Src/stm32f7xx_hal_rtc.c ****   * @param  hrtc pointer to a RTC_HandleTypeDef structure that contains
 199:Drivers/STM32F7xx_HAL_Driver/Src/stm32f7xx_hal_rtc.c ****   *                the configuration information for RTC.
 200:Drivers/STM32F7xx_HAL_Driver/Src/stm32f7xx_hal_rtc.c ****   * @retval HAL status
 201:Drivers/STM32F7xx_HAL_Driver/Src/stm32f7xx_hal_rtc.c ****   */
 202:Drivers/STM32F7xx_HAL_Driver/Src/stm32f7xx_hal_rtc.c **** HAL_StatusTypeDef HAL_RTC_Init(RTC_HandleTypeDef *hrtc)
ARM GAS  C:\Users\Student\AppData\Local\Temp\ccDKlFGt.s 			page 5


 203:Drivers/STM32F7xx_HAL_Driver/Src/stm32f7xx_hal_rtc.c **** {
 204:Drivers/STM32F7xx_HAL_Driver/Src/stm32f7xx_hal_rtc.c ****   /* Check the RTC peripheral state */
 205:Drivers/STM32F7xx_HAL_Driver/Src/stm32f7xx_hal_rtc.c ****   if(hrtc == NULL)
 206:Drivers/STM32F7xx_HAL_Driver/Src/stm32f7xx_hal_rtc.c ****   {
 207:Drivers/STM32F7xx_HAL_Driver/Src/stm32f7xx_hal_rtc.c ****      return HAL_ERROR;
 208:Drivers/STM32F7xx_HAL_Driver/Src/stm32f7xx_hal_rtc.c ****   }
 209:Drivers/STM32F7xx_HAL_Driver/Src/stm32f7xx_hal_rtc.c ****   
 210:Drivers/STM32F7xx_HAL_Driver/Src/stm32f7xx_hal_rtc.c ****   /* Check the parameters */
 211:Drivers/STM32F7xx_HAL_Driver/Src/stm32f7xx_hal_rtc.c ****   assert_param(IS_RTC_ALL_INSTANCE(hrtc->Instance));
 212:Drivers/STM32F7xx_HAL_Driver/Src/stm32f7xx_hal_rtc.c ****   assert_param(IS_RTC_HOUR_FORMAT(hrtc->Init.HourFormat));
 213:Drivers/STM32F7xx_HAL_Driver/Src/stm32f7xx_hal_rtc.c ****   assert_param(IS_RTC_ASYNCH_PREDIV(hrtc->Init.AsynchPrediv));
 214:Drivers/STM32F7xx_HAL_Driver/Src/stm32f7xx_hal_rtc.c ****   assert_param(IS_RTC_SYNCH_PREDIV(hrtc->Init.SynchPrediv));
 215:Drivers/STM32F7xx_HAL_Driver/Src/stm32f7xx_hal_rtc.c ****   assert_param (IS_RTC_OUTPUT(hrtc->Init.OutPut));
 216:Drivers/STM32F7xx_HAL_Driver/Src/stm32f7xx_hal_rtc.c ****   assert_param (IS_RTC_OUTPUT_POL(hrtc->Init.OutPutPolarity));
 217:Drivers/STM32F7xx_HAL_Driver/Src/stm32f7xx_hal_rtc.c ****   assert_param(IS_RTC_OUTPUT_TYPE(hrtc->Init.OutPutType));
 218:Drivers/STM32F7xx_HAL_Driver/Src/stm32f7xx_hal_rtc.c ****     
 219:Drivers/STM32F7xx_HAL_Driver/Src/stm32f7xx_hal_rtc.c ****   if(hrtc->State == HAL_RTC_STATE_RESET)
 220:Drivers/STM32F7xx_HAL_Driver/Src/stm32f7xx_hal_rtc.c ****   {
 221:Drivers/STM32F7xx_HAL_Driver/Src/stm32f7xx_hal_rtc.c ****     /* Allocate lock resource and initialize it */
 222:Drivers/STM32F7xx_HAL_Driver/Src/stm32f7xx_hal_rtc.c ****     hrtc->Lock = HAL_UNLOCKED;
 223:Drivers/STM32F7xx_HAL_Driver/Src/stm32f7xx_hal_rtc.c ****     /* Initialize RTC MSP */
 224:Drivers/STM32F7xx_HAL_Driver/Src/stm32f7xx_hal_rtc.c ****     HAL_RTC_MspInit(hrtc);
 225:Drivers/STM32F7xx_HAL_Driver/Src/stm32f7xx_hal_rtc.c ****   }
 226:Drivers/STM32F7xx_HAL_Driver/Src/stm32f7xx_hal_rtc.c ****   
 227:Drivers/STM32F7xx_HAL_Driver/Src/stm32f7xx_hal_rtc.c ****   /* Set RTC state */  
 228:Drivers/STM32F7xx_HAL_Driver/Src/stm32f7xx_hal_rtc.c ****   hrtc->State = HAL_RTC_STATE_BUSY;  
 229:Drivers/STM32F7xx_HAL_Driver/Src/stm32f7xx_hal_rtc.c ****        
 230:Drivers/STM32F7xx_HAL_Driver/Src/stm32f7xx_hal_rtc.c ****   /* Disable the write protection for RTC registers */
 231:Drivers/STM32F7xx_HAL_Driver/Src/stm32f7xx_hal_rtc.c ****   __HAL_RTC_WRITEPROTECTION_DISABLE(hrtc);
 232:Drivers/STM32F7xx_HAL_Driver/Src/stm32f7xx_hal_rtc.c **** 
 233:Drivers/STM32F7xx_HAL_Driver/Src/stm32f7xx_hal_rtc.c ****   /* Set Initialization mode */
 234:Drivers/STM32F7xx_HAL_Driver/Src/stm32f7xx_hal_rtc.c ****   if(RTC_EnterInitMode(hrtc) != HAL_OK)
 235:Drivers/STM32F7xx_HAL_Driver/Src/stm32f7xx_hal_rtc.c ****   {
 236:Drivers/STM32F7xx_HAL_Driver/Src/stm32f7xx_hal_rtc.c ****     /* Enable the write protection for RTC registers */
 237:Drivers/STM32F7xx_HAL_Driver/Src/stm32f7xx_hal_rtc.c ****     __HAL_RTC_WRITEPROTECTION_ENABLE(hrtc); 
 238:Drivers/STM32F7xx_HAL_Driver/Src/stm32f7xx_hal_rtc.c ****     
 239:Drivers/STM32F7xx_HAL_Driver/Src/stm32f7xx_hal_rtc.c ****     /* Set RTC state */
 240:Drivers/STM32F7xx_HAL_Driver/Src/stm32f7xx_hal_rtc.c ****     hrtc->State = HAL_RTC_STATE_ERROR;
 241:Drivers/STM32F7xx_HAL_Driver/Src/stm32f7xx_hal_rtc.c ****     
 242:Drivers/STM32F7xx_HAL_Driver/Src/stm32f7xx_hal_rtc.c ****     return HAL_ERROR;
 243:Drivers/STM32F7xx_HAL_Driver/Src/stm32f7xx_hal_rtc.c ****   } 
 244:Drivers/STM32F7xx_HAL_Driver/Src/stm32f7xx_hal_rtc.c ****   else
 245:Drivers/STM32F7xx_HAL_Driver/Src/stm32f7xx_hal_rtc.c ****   { 
 246:Drivers/STM32F7xx_HAL_Driver/Src/stm32f7xx_hal_rtc.c ****     /* Clear RTC_CR FMT, OSEL and POL Bits */
 247:Drivers/STM32F7xx_HAL_Driver/Src/stm32f7xx_hal_rtc.c ****     hrtc->Instance->CR &= ((uint32_t)~(RTC_CR_FMT | RTC_CR_OSEL | RTC_CR_POL));
 248:Drivers/STM32F7xx_HAL_Driver/Src/stm32f7xx_hal_rtc.c ****     /* Set RTC_CR register */
 249:Drivers/STM32F7xx_HAL_Driver/Src/stm32f7xx_hal_rtc.c ****     hrtc->Instance->CR |= (uint32_t)(hrtc->Init.HourFormat | hrtc->Init.OutPut | hrtc->Init.OutPutP
 250:Drivers/STM32F7xx_HAL_Driver/Src/stm32f7xx_hal_rtc.c ****     
 251:Drivers/STM32F7xx_HAL_Driver/Src/stm32f7xx_hal_rtc.c ****     /* Configure the RTC PRER */
 252:Drivers/STM32F7xx_HAL_Driver/Src/stm32f7xx_hal_rtc.c ****     hrtc->Instance->PRER = (uint32_t)(hrtc->Init.SynchPrediv);
 253:Drivers/STM32F7xx_HAL_Driver/Src/stm32f7xx_hal_rtc.c ****     hrtc->Instance->PRER |= (uint32_t)(hrtc->Init.AsynchPrediv << 16);
 254:Drivers/STM32F7xx_HAL_Driver/Src/stm32f7xx_hal_rtc.c ****     
 255:Drivers/STM32F7xx_HAL_Driver/Src/stm32f7xx_hal_rtc.c ****     /* Exit Initialization mode */
 256:Drivers/STM32F7xx_HAL_Driver/Src/stm32f7xx_hal_rtc.c ****     hrtc->Instance->ISR &= (uint32_t)~RTC_ISR_INIT; 
 257:Drivers/STM32F7xx_HAL_Driver/Src/stm32f7xx_hal_rtc.c ****     
 258:Drivers/STM32F7xx_HAL_Driver/Src/stm32f7xx_hal_rtc.c ****     hrtc->Instance->OR &= (uint32_t)~RTC_OR_ALARMTYPE;
 259:Drivers/STM32F7xx_HAL_Driver/Src/stm32f7xx_hal_rtc.c ****     hrtc->Instance->OR |= (uint32_t)(hrtc->Init.OutPutType); 
ARM GAS  C:\Users\Student\AppData\Local\Temp\ccDKlFGt.s 			page 6


 260:Drivers/STM32F7xx_HAL_Driver/Src/stm32f7xx_hal_rtc.c ****     
 261:Drivers/STM32F7xx_HAL_Driver/Src/stm32f7xx_hal_rtc.c ****     /* Enable the write protection for RTC registers */
 262:Drivers/STM32F7xx_HAL_Driver/Src/stm32f7xx_hal_rtc.c ****     __HAL_RTC_WRITEPROTECTION_ENABLE(hrtc); 
 263:Drivers/STM32F7xx_HAL_Driver/Src/stm32f7xx_hal_rtc.c ****     
 264:Drivers/STM32F7xx_HAL_Driver/Src/stm32f7xx_hal_rtc.c ****     /* Set RTC state */
 265:Drivers/STM32F7xx_HAL_Driver/Src/stm32f7xx_hal_rtc.c ****     hrtc->State = HAL_RTC_STATE_READY;
 266:Drivers/STM32F7xx_HAL_Driver/Src/stm32f7xx_hal_rtc.c ****     
 267:Drivers/STM32F7xx_HAL_Driver/Src/stm32f7xx_hal_rtc.c ****     return HAL_OK;
 268:Drivers/STM32F7xx_HAL_Driver/Src/stm32f7xx_hal_rtc.c ****   }
 269:Drivers/STM32F7xx_HAL_Driver/Src/stm32f7xx_hal_rtc.c **** }
 270:Drivers/STM32F7xx_HAL_Driver/Src/stm32f7xx_hal_rtc.c **** 
 271:Drivers/STM32F7xx_HAL_Driver/Src/stm32f7xx_hal_rtc.c **** /**
 272:Drivers/STM32F7xx_HAL_Driver/Src/stm32f7xx_hal_rtc.c ****   * @brief  DeInitializes the RTC peripheral 
 273:Drivers/STM32F7xx_HAL_Driver/Src/stm32f7xx_hal_rtc.c ****   * @param  hrtc pointer to a RTC_HandleTypeDef structure that contains
 274:Drivers/STM32F7xx_HAL_Driver/Src/stm32f7xx_hal_rtc.c ****   *                the configuration information for RTC.
 275:Drivers/STM32F7xx_HAL_Driver/Src/stm32f7xx_hal_rtc.c ****   * @note   This function doesn't reset the RTC Backup Data registers.   
 276:Drivers/STM32F7xx_HAL_Driver/Src/stm32f7xx_hal_rtc.c ****   * @retval HAL status
 277:Drivers/STM32F7xx_HAL_Driver/Src/stm32f7xx_hal_rtc.c ****   */
 278:Drivers/STM32F7xx_HAL_Driver/Src/stm32f7xx_hal_rtc.c **** HAL_StatusTypeDef HAL_RTC_DeInit(RTC_HandleTypeDef *hrtc)
 279:Drivers/STM32F7xx_HAL_Driver/Src/stm32f7xx_hal_rtc.c **** {
 280:Drivers/STM32F7xx_HAL_Driver/Src/stm32f7xx_hal_rtc.c ****   uint32_t tickstart = 0;
 281:Drivers/STM32F7xx_HAL_Driver/Src/stm32f7xx_hal_rtc.c ****   
 282:Drivers/STM32F7xx_HAL_Driver/Src/stm32f7xx_hal_rtc.c ****   /* Check the parameters */
 283:Drivers/STM32F7xx_HAL_Driver/Src/stm32f7xx_hal_rtc.c ****   assert_param(IS_RTC_ALL_INSTANCE(hrtc->Instance));
 284:Drivers/STM32F7xx_HAL_Driver/Src/stm32f7xx_hal_rtc.c **** 
 285:Drivers/STM32F7xx_HAL_Driver/Src/stm32f7xx_hal_rtc.c ****   /* Set RTC state */
 286:Drivers/STM32F7xx_HAL_Driver/Src/stm32f7xx_hal_rtc.c ****   hrtc->State = HAL_RTC_STATE_BUSY; 
 287:Drivers/STM32F7xx_HAL_Driver/Src/stm32f7xx_hal_rtc.c ****   
 288:Drivers/STM32F7xx_HAL_Driver/Src/stm32f7xx_hal_rtc.c ****   /* Disable the write protection for RTC registers */
 289:Drivers/STM32F7xx_HAL_Driver/Src/stm32f7xx_hal_rtc.c ****   __HAL_RTC_WRITEPROTECTION_DISABLE(hrtc);
 290:Drivers/STM32F7xx_HAL_Driver/Src/stm32f7xx_hal_rtc.c ****   
 291:Drivers/STM32F7xx_HAL_Driver/Src/stm32f7xx_hal_rtc.c ****   /* Set Initialization mode */
 292:Drivers/STM32F7xx_HAL_Driver/Src/stm32f7xx_hal_rtc.c ****   if(RTC_EnterInitMode(hrtc) != HAL_OK)
 293:Drivers/STM32F7xx_HAL_Driver/Src/stm32f7xx_hal_rtc.c ****   {
 294:Drivers/STM32F7xx_HAL_Driver/Src/stm32f7xx_hal_rtc.c ****     /* Enable the write protection for RTC registers */
 295:Drivers/STM32F7xx_HAL_Driver/Src/stm32f7xx_hal_rtc.c ****     __HAL_RTC_WRITEPROTECTION_ENABLE(hrtc); 
 296:Drivers/STM32F7xx_HAL_Driver/Src/stm32f7xx_hal_rtc.c ****     
 297:Drivers/STM32F7xx_HAL_Driver/Src/stm32f7xx_hal_rtc.c ****     /* Set RTC state */
 298:Drivers/STM32F7xx_HAL_Driver/Src/stm32f7xx_hal_rtc.c ****     hrtc->State = HAL_RTC_STATE_ERROR;
 299:Drivers/STM32F7xx_HAL_Driver/Src/stm32f7xx_hal_rtc.c ****     
 300:Drivers/STM32F7xx_HAL_Driver/Src/stm32f7xx_hal_rtc.c ****     return HAL_ERROR;
 301:Drivers/STM32F7xx_HAL_Driver/Src/stm32f7xx_hal_rtc.c ****   }  
 302:Drivers/STM32F7xx_HAL_Driver/Src/stm32f7xx_hal_rtc.c ****   else
 303:Drivers/STM32F7xx_HAL_Driver/Src/stm32f7xx_hal_rtc.c ****   {
 304:Drivers/STM32F7xx_HAL_Driver/Src/stm32f7xx_hal_rtc.c ****     /* Reset TR, DR and CR registers */
 305:Drivers/STM32F7xx_HAL_Driver/Src/stm32f7xx_hal_rtc.c ****     hrtc->Instance->TR = (uint32_t)0x00000000;
 306:Drivers/STM32F7xx_HAL_Driver/Src/stm32f7xx_hal_rtc.c ****     hrtc->Instance->DR = (uint32_t)0x00002101;
 307:Drivers/STM32F7xx_HAL_Driver/Src/stm32f7xx_hal_rtc.c ****     /* Reset All CR bits except CR[2:0] */
 308:Drivers/STM32F7xx_HAL_Driver/Src/stm32f7xx_hal_rtc.c ****     hrtc->Instance->CR &= (uint32_t)0x00000007;
 309:Drivers/STM32F7xx_HAL_Driver/Src/stm32f7xx_hal_rtc.c **** 
 310:Drivers/STM32F7xx_HAL_Driver/Src/stm32f7xx_hal_rtc.c ****     /* Get tick */
 311:Drivers/STM32F7xx_HAL_Driver/Src/stm32f7xx_hal_rtc.c ****     tickstart = HAL_GetTick();
 312:Drivers/STM32F7xx_HAL_Driver/Src/stm32f7xx_hal_rtc.c **** 
 313:Drivers/STM32F7xx_HAL_Driver/Src/stm32f7xx_hal_rtc.c ****     /* Wait till WUTWF flag is set and if Time out is reached exit */
 314:Drivers/STM32F7xx_HAL_Driver/Src/stm32f7xx_hal_rtc.c ****     while(((hrtc->Instance->ISR) & RTC_ISR_WUTWF) == (uint32_t)RESET)
 315:Drivers/STM32F7xx_HAL_Driver/Src/stm32f7xx_hal_rtc.c ****     {
 316:Drivers/STM32F7xx_HAL_Driver/Src/stm32f7xx_hal_rtc.c ****       if((HAL_GetTick() - tickstart ) > RTC_TIMEOUT_VALUE)
ARM GAS  C:\Users\Student\AppData\Local\Temp\ccDKlFGt.s 			page 7


 317:Drivers/STM32F7xx_HAL_Driver/Src/stm32f7xx_hal_rtc.c ****       { 
 318:Drivers/STM32F7xx_HAL_Driver/Src/stm32f7xx_hal_rtc.c ****         /* Enable the write protection for RTC registers */
 319:Drivers/STM32F7xx_HAL_Driver/Src/stm32f7xx_hal_rtc.c ****         __HAL_RTC_WRITEPROTECTION_ENABLE(hrtc); 
 320:Drivers/STM32F7xx_HAL_Driver/Src/stm32f7xx_hal_rtc.c ****         
 321:Drivers/STM32F7xx_HAL_Driver/Src/stm32f7xx_hal_rtc.c ****         /* Set RTC state */
 322:Drivers/STM32F7xx_HAL_Driver/Src/stm32f7xx_hal_rtc.c ****         hrtc->State = HAL_RTC_STATE_TIMEOUT;
 323:Drivers/STM32F7xx_HAL_Driver/Src/stm32f7xx_hal_rtc.c ****         
 324:Drivers/STM32F7xx_HAL_Driver/Src/stm32f7xx_hal_rtc.c ****         return HAL_TIMEOUT;
 325:Drivers/STM32F7xx_HAL_Driver/Src/stm32f7xx_hal_rtc.c ****       }      
 326:Drivers/STM32F7xx_HAL_Driver/Src/stm32f7xx_hal_rtc.c ****     }
 327:Drivers/STM32F7xx_HAL_Driver/Src/stm32f7xx_hal_rtc.c ****     
 328:Drivers/STM32F7xx_HAL_Driver/Src/stm32f7xx_hal_rtc.c ****     /* Reset all RTC CR register bits */
 329:Drivers/STM32F7xx_HAL_Driver/Src/stm32f7xx_hal_rtc.c ****     hrtc->Instance->CR &= (uint32_t)0x00000000;
 330:Drivers/STM32F7xx_HAL_Driver/Src/stm32f7xx_hal_rtc.c ****     hrtc->Instance->WUTR = (uint32_t)0x0000FFFF;
 331:Drivers/STM32F7xx_HAL_Driver/Src/stm32f7xx_hal_rtc.c ****     hrtc->Instance->PRER = (uint32_t)0x007F00FF;
 332:Drivers/STM32F7xx_HAL_Driver/Src/stm32f7xx_hal_rtc.c ****     hrtc->Instance->ALRMAR = (uint32_t)0x00000000;
 333:Drivers/STM32F7xx_HAL_Driver/Src/stm32f7xx_hal_rtc.c ****     hrtc->Instance->ALRMBR = (uint32_t)0x00000000;
 334:Drivers/STM32F7xx_HAL_Driver/Src/stm32f7xx_hal_rtc.c ****     hrtc->Instance->SHIFTR = (uint32_t)0x00000000;
 335:Drivers/STM32F7xx_HAL_Driver/Src/stm32f7xx_hal_rtc.c ****     hrtc->Instance->CALR = (uint32_t)0x00000000;
 336:Drivers/STM32F7xx_HAL_Driver/Src/stm32f7xx_hal_rtc.c ****     hrtc->Instance->ALRMASSR = (uint32_t)0x00000000;
 337:Drivers/STM32F7xx_HAL_Driver/Src/stm32f7xx_hal_rtc.c ****     hrtc->Instance->ALRMBSSR = (uint32_t)0x00000000;
 338:Drivers/STM32F7xx_HAL_Driver/Src/stm32f7xx_hal_rtc.c ****     
 339:Drivers/STM32F7xx_HAL_Driver/Src/stm32f7xx_hal_rtc.c ****     /* Reset ISR register and exit initialization mode */
 340:Drivers/STM32F7xx_HAL_Driver/Src/stm32f7xx_hal_rtc.c ****     hrtc->Instance->ISR = (uint32_t)0x00000000;
 341:Drivers/STM32F7xx_HAL_Driver/Src/stm32f7xx_hal_rtc.c ****     
 342:Drivers/STM32F7xx_HAL_Driver/Src/stm32f7xx_hal_rtc.c ****     /* Reset Tamper and alternate functions configuration register */
 343:Drivers/STM32F7xx_HAL_Driver/Src/stm32f7xx_hal_rtc.c ****     hrtc->Instance->TAMPCR = 0x00000000;
 344:Drivers/STM32F7xx_HAL_Driver/Src/stm32f7xx_hal_rtc.c ****     
 345:Drivers/STM32F7xx_HAL_Driver/Src/stm32f7xx_hal_rtc.c ****     /* Reset Option register */
 346:Drivers/STM32F7xx_HAL_Driver/Src/stm32f7xx_hal_rtc.c ****     hrtc->Instance->OR = 0x00000000;
 347:Drivers/STM32F7xx_HAL_Driver/Src/stm32f7xx_hal_rtc.c ****     
 348:Drivers/STM32F7xx_HAL_Driver/Src/stm32f7xx_hal_rtc.c ****     /* If  RTC_CR_BYPSHAD bit = 0, wait for synchro else this check is not needed */
 349:Drivers/STM32F7xx_HAL_Driver/Src/stm32f7xx_hal_rtc.c ****     if((hrtc->Instance->CR & RTC_CR_BYPSHAD) == RESET)
 350:Drivers/STM32F7xx_HAL_Driver/Src/stm32f7xx_hal_rtc.c ****     {
 351:Drivers/STM32F7xx_HAL_Driver/Src/stm32f7xx_hal_rtc.c ****       if(HAL_RTC_WaitForSynchro(hrtc) != HAL_OK)
 352:Drivers/STM32F7xx_HAL_Driver/Src/stm32f7xx_hal_rtc.c ****       {
 353:Drivers/STM32F7xx_HAL_Driver/Src/stm32f7xx_hal_rtc.c ****         /* Enable the write protection for RTC registers */
 354:Drivers/STM32F7xx_HAL_Driver/Src/stm32f7xx_hal_rtc.c ****         __HAL_RTC_WRITEPROTECTION_ENABLE(hrtc);  
 355:Drivers/STM32F7xx_HAL_Driver/Src/stm32f7xx_hal_rtc.c ****         
 356:Drivers/STM32F7xx_HAL_Driver/Src/stm32f7xx_hal_rtc.c ****         hrtc->State = HAL_RTC_STATE_ERROR;
 357:Drivers/STM32F7xx_HAL_Driver/Src/stm32f7xx_hal_rtc.c ****         
 358:Drivers/STM32F7xx_HAL_Driver/Src/stm32f7xx_hal_rtc.c ****         return HAL_ERROR;
 359:Drivers/STM32F7xx_HAL_Driver/Src/stm32f7xx_hal_rtc.c ****       }
 360:Drivers/STM32F7xx_HAL_Driver/Src/stm32f7xx_hal_rtc.c ****     }    
 361:Drivers/STM32F7xx_HAL_Driver/Src/stm32f7xx_hal_rtc.c ****   }
 362:Drivers/STM32F7xx_HAL_Driver/Src/stm32f7xx_hal_rtc.c ****   
 363:Drivers/STM32F7xx_HAL_Driver/Src/stm32f7xx_hal_rtc.c ****   /* Enable the write protection for RTC registers */
 364:Drivers/STM32F7xx_HAL_Driver/Src/stm32f7xx_hal_rtc.c ****   __HAL_RTC_WRITEPROTECTION_ENABLE(hrtc);
 365:Drivers/STM32F7xx_HAL_Driver/Src/stm32f7xx_hal_rtc.c ****   
 366:Drivers/STM32F7xx_HAL_Driver/Src/stm32f7xx_hal_rtc.c ****   /* De-Initialize RTC MSP */
 367:Drivers/STM32F7xx_HAL_Driver/Src/stm32f7xx_hal_rtc.c ****   HAL_RTC_MspDeInit(hrtc);
 368:Drivers/STM32F7xx_HAL_Driver/Src/stm32f7xx_hal_rtc.c ****   
 369:Drivers/STM32F7xx_HAL_Driver/Src/stm32f7xx_hal_rtc.c ****   hrtc->State = HAL_RTC_STATE_RESET; 
 370:Drivers/STM32F7xx_HAL_Driver/Src/stm32f7xx_hal_rtc.c **** 
 371:Drivers/STM32F7xx_HAL_Driver/Src/stm32f7xx_hal_rtc.c ****   /* Release Lock */
 372:Drivers/STM32F7xx_HAL_Driver/Src/stm32f7xx_hal_rtc.c ****   __HAL_UNLOCK(hrtc);
 373:Drivers/STM32F7xx_HAL_Driver/Src/stm32f7xx_hal_rtc.c **** 
ARM GAS  C:\Users\Student\AppData\Local\Temp\ccDKlFGt.s 			page 8


 374:Drivers/STM32F7xx_HAL_Driver/Src/stm32f7xx_hal_rtc.c ****   return HAL_OK;
 375:Drivers/STM32F7xx_HAL_Driver/Src/stm32f7xx_hal_rtc.c **** }
 376:Drivers/STM32F7xx_HAL_Driver/Src/stm32f7xx_hal_rtc.c **** 
 377:Drivers/STM32F7xx_HAL_Driver/Src/stm32f7xx_hal_rtc.c **** /**
 378:Drivers/STM32F7xx_HAL_Driver/Src/stm32f7xx_hal_rtc.c ****   * @brief  Initializes the RTC MSP.
 379:Drivers/STM32F7xx_HAL_Driver/Src/stm32f7xx_hal_rtc.c ****   * @param  hrtc pointer to a RTC_HandleTypeDef structure that contains
 380:Drivers/STM32F7xx_HAL_Driver/Src/stm32f7xx_hal_rtc.c ****   *                the configuration information for RTC.  
 381:Drivers/STM32F7xx_HAL_Driver/Src/stm32f7xx_hal_rtc.c ****   * @retval None
 382:Drivers/STM32F7xx_HAL_Driver/Src/stm32f7xx_hal_rtc.c ****   */
 383:Drivers/STM32F7xx_HAL_Driver/Src/stm32f7xx_hal_rtc.c **** __weak void HAL_RTC_MspInit(RTC_HandleTypeDef* hrtc)
 384:Drivers/STM32F7xx_HAL_Driver/Src/stm32f7xx_hal_rtc.c **** {
  28              		.loc 1 384 0
  29              		.cfi_startproc
  30              		@ args = 0, pretend = 0, frame = 0
  31              		@ frame_needed = 0, uses_anonymous_args = 0
  32              		@ link register save eliminated.
  33              	.LVL0:
  34 0000 7047     		bx	lr
  35              		.cfi_endproc
  36              	.LFE138:
  38              		.section	.text.HAL_RTC_MspDeInit,"ax",%progbits
  39              		.align	1
  40              		.weak	HAL_RTC_MspDeInit
  41              		.syntax unified
  42              		.thumb
  43              		.thumb_func
  44              		.fpu fpv5-sp-d16
  46              	HAL_RTC_MspDeInit:
  47              	.LFB139:
 385:Drivers/STM32F7xx_HAL_Driver/Src/stm32f7xx_hal_rtc.c ****   /* Prevent unused argument(s) compilation warning */
 386:Drivers/STM32F7xx_HAL_Driver/Src/stm32f7xx_hal_rtc.c ****   UNUSED(hrtc);
 387:Drivers/STM32F7xx_HAL_Driver/Src/stm32f7xx_hal_rtc.c ****   
 388:Drivers/STM32F7xx_HAL_Driver/Src/stm32f7xx_hal_rtc.c ****   /* NOTE : This function Should not be modified, when the callback is needed,
 389:Drivers/STM32F7xx_HAL_Driver/Src/stm32f7xx_hal_rtc.c ****             the HAL_RTC_MspInit could be implemented in the user file
 390:Drivers/STM32F7xx_HAL_Driver/Src/stm32f7xx_hal_rtc.c ****    */ 
 391:Drivers/STM32F7xx_HAL_Driver/Src/stm32f7xx_hal_rtc.c **** }
 392:Drivers/STM32F7xx_HAL_Driver/Src/stm32f7xx_hal_rtc.c **** 
 393:Drivers/STM32F7xx_HAL_Driver/Src/stm32f7xx_hal_rtc.c **** /**
 394:Drivers/STM32F7xx_HAL_Driver/Src/stm32f7xx_hal_rtc.c ****   * @brief  DeInitializes the RTC MSP.
 395:Drivers/STM32F7xx_HAL_Driver/Src/stm32f7xx_hal_rtc.c ****   * @param  hrtc pointer to a RTC_HandleTypeDef structure that contains
 396:Drivers/STM32F7xx_HAL_Driver/Src/stm32f7xx_hal_rtc.c ****   *                the configuration information for RTC. 
 397:Drivers/STM32F7xx_HAL_Driver/Src/stm32f7xx_hal_rtc.c ****   * @retval None
 398:Drivers/STM32F7xx_HAL_Driver/Src/stm32f7xx_hal_rtc.c ****   */
 399:Drivers/STM32F7xx_HAL_Driver/Src/stm32f7xx_hal_rtc.c **** __weak void HAL_RTC_MspDeInit(RTC_HandleTypeDef* hrtc)
 400:Drivers/STM32F7xx_HAL_Driver/Src/stm32f7xx_hal_rtc.c **** {
  48              		.loc 1 400 0
  49              		.cfi_startproc
  50              		@ args = 0, pretend = 0, frame = 0
  51              		@ frame_needed = 0, uses_anonymous_args = 0
  52              		@ link register save eliminated.
  53              	.LVL1:
  54 0000 7047     		bx	lr
  55              		.cfi_endproc
  56              	.LFE139:
  58              		.section	.text.HAL_RTC_DeactivateAlarm,"ax",%progbits
  59              		.align	1
  60              		.global	HAL_RTC_DeactivateAlarm
ARM GAS  C:\Users\Student\AppData\Local\Temp\ccDKlFGt.s 			page 9


  61              		.syntax unified
  62              		.thumb
  63              		.thumb_func
  64              		.fpu fpv5-sp-d16
  66              	HAL_RTC_DeactivateAlarm:
  67              	.LFB146:
 401:Drivers/STM32F7xx_HAL_Driver/Src/stm32f7xx_hal_rtc.c ****   /* Prevent unused argument(s) compilation warning */
 402:Drivers/STM32F7xx_HAL_Driver/Src/stm32f7xx_hal_rtc.c ****   UNUSED(hrtc);
 403:Drivers/STM32F7xx_HAL_Driver/Src/stm32f7xx_hal_rtc.c ****   
 404:Drivers/STM32F7xx_HAL_Driver/Src/stm32f7xx_hal_rtc.c ****   /* NOTE : This function Should not be modified, when the callback is needed,
 405:Drivers/STM32F7xx_HAL_Driver/Src/stm32f7xx_hal_rtc.c ****             the HAL_RTC_MspDeInit could be implemented in the user file
 406:Drivers/STM32F7xx_HAL_Driver/Src/stm32f7xx_hal_rtc.c ****    */ 
 407:Drivers/STM32F7xx_HAL_Driver/Src/stm32f7xx_hal_rtc.c **** }
 408:Drivers/STM32F7xx_HAL_Driver/Src/stm32f7xx_hal_rtc.c **** 
 409:Drivers/STM32F7xx_HAL_Driver/Src/stm32f7xx_hal_rtc.c **** /**
 410:Drivers/STM32F7xx_HAL_Driver/Src/stm32f7xx_hal_rtc.c ****   * @}
 411:Drivers/STM32F7xx_HAL_Driver/Src/stm32f7xx_hal_rtc.c ****   */
 412:Drivers/STM32F7xx_HAL_Driver/Src/stm32f7xx_hal_rtc.c **** 
 413:Drivers/STM32F7xx_HAL_Driver/Src/stm32f7xx_hal_rtc.c **** /** @defgroup RTC_Group2 RTC Time and Date functions
 414:Drivers/STM32F7xx_HAL_Driver/Src/stm32f7xx_hal_rtc.c ****  *  @brief   RTC Time and Date functions
 415:Drivers/STM32F7xx_HAL_Driver/Src/stm32f7xx_hal_rtc.c ****  *
 416:Drivers/STM32F7xx_HAL_Driver/Src/stm32f7xx_hal_rtc.c **** @verbatim   
 417:Drivers/STM32F7xx_HAL_Driver/Src/stm32f7xx_hal_rtc.c ****  ===============================================================================
 418:Drivers/STM32F7xx_HAL_Driver/Src/stm32f7xx_hal_rtc.c ****                  ##### RTC Time and Date functions #####
 419:Drivers/STM32F7xx_HAL_Driver/Src/stm32f7xx_hal_rtc.c ****  ===============================================================================  
 420:Drivers/STM32F7xx_HAL_Driver/Src/stm32f7xx_hal_rtc.c ****  
 421:Drivers/STM32F7xx_HAL_Driver/Src/stm32f7xx_hal_rtc.c ****  [..] This section provides functions allowing to configure Time and Date features
 422:Drivers/STM32F7xx_HAL_Driver/Src/stm32f7xx_hal_rtc.c **** 
 423:Drivers/STM32F7xx_HAL_Driver/Src/stm32f7xx_hal_rtc.c **** @endverbatim
 424:Drivers/STM32F7xx_HAL_Driver/Src/stm32f7xx_hal_rtc.c ****   * @{
 425:Drivers/STM32F7xx_HAL_Driver/Src/stm32f7xx_hal_rtc.c ****   */
 426:Drivers/STM32F7xx_HAL_Driver/Src/stm32f7xx_hal_rtc.c **** 
 427:Drivers/STM32F7xx_HAL_Driver/Src/stm32f7xx_hal_rtc.c **** /**
 428:Drivers/STM32F7xx_HAL_Driver/Src/stm32f7xx_hal_rtc.c ****   * @brief  Sets RTC current time.
 429:Drivers/STM32F7xx_HAL_Driver/Src/stm32f7xx_hal_rtc.c ****   * @param  hrtc pointer to a RTC_HandleTypeDef structure that contains
 430:Drivers/STM32F7xx_HAL_Driver/Src/stm32f7xx_hal_rtc.c ****   *                the configuration information for RTC.
 431:Drivers/STM32F7xx_HAL_Driver/Src/stm32f7xx_hal_rtc.c ****   * @param  sTime Pointer to Time structure
 432:Drivers/STM32F7xx_HAL_Driver/Src/stm32f7xx_hal_rtc.c ****   * @param  Format Specifies the format of the entered parameters.
 433:Drivers/STM32F7xx_HAL_Driver/Src/stm32f7xx_hal_rtc.c ****   *          This parameter can be one of the following values:
 434:Drivers/STM32F7xx_HAL_Driver/Src/stm32f7xx_hal_rtc.c ****   *            @arg FORMAT_BIN: Binary data format 
 435:Drivers/STM32F7xx_HAL_Driver/Src/stm32f7xx_hal_rtc.c ****   *            @arg FORMAT_BCD: BCD data format
 436:Drivers/STM32F7xx_HAL_Driver/Src/stm32f7xx_hal_rtc.c ****   * @retval HAL status
 437:Drivers/STM32F7xx_HAL_Driver/Src/stm32f7xx_hal_rtc.c ****   */
 438:Drivers/STM32F7xx_HAL_Driver/Src/stm32f7xx_hal_rtc.c **** HAL_StatusTypeDef HAL_RTC_SetTime(RTC_HandleTypeDef *hrtc, RTC_TimeTypeDef *sTime, uint32_t Format)
 439:Drivers/STM32F7xx_HAL_Driver/Src/stm32f7xx_hal_rtc.c **** {
 440:Drivers/STM32F7xx_HAL_Driver/Src/stm32f7xx_hal_rtc.c ****   uint32_t tmpreg = 0;
 441:Drivers/STM32F7xx_HAL_Driver/Src/stm32f7xx_hal_rtc.c ****   
 442:Drivers/STM32F7xx_HAL_Driver/Src/stm32f7xx_hal_rtc.c ****  /* Check the parameters */
 443:Drivers/STM32F7xx_HAL_Driver/Src/stm32f7xx_hal_rtc.c ****   assert_param(IS_RTC_FORMAT(Format));
 444:Drivers/STM32F7xx_HAL_Driver/Src/stm32f7xx_hal_rtc.c ****   assert_param(IS_RTC_DAYLIGHT_SAVING(sTime->DayLightSaving));
 445:Drivers/STM32F7xx_HAL_Driver/Src/stm32f7xx_hal_rtc.c ****   assert_param(IS_RTC_STORE_OPERATION(sTime->StoreOperation));
 446:Drivers/STM32F7xx_HAL_Driver/Src/stm32f7xx_hal_rtc.c ****   
 447:Drivers/STM32F7xx_HAL_Driver/Src/stm32f7xx_hal_rtc.c ****   /* Process Locked */ 
 448:Drivers/STM32F7xx_HAL_Driver/Src/stm32f7xx_hal_rtc.c ****   __HAL_LOCK(hrtc);
 449:Drivers/STM32F7xx_HAL_Driver/Src/stm32f7xx_hal_rtc.c ****   
 450:Drivers/STM32F7xx_HAL_Driver/Src/stm32f7xx_hal_rtc.c ****   hrtc->State = HAL_RTC_STATE_BUSY;
 451:Drivers/STM32F7xx_HAL_Driver/Src/stm32f7xx_hal_rtc.c ****   
ARM GAS  C:\Users\Student\AppData\Local\Temp\ccDKlFGt.s 			page 10


 452:Drivers/STM32F7xx_HAL_Driver/Src/stm32f7xx_hal_rtc.c ****   if(Format == RTC_FORMAT_BIN)
 453:Drivers/STM32F7xx_HAL_Driver/Src/stm32f7xx_hal_rtc.c ****   {
 454:Drivers/STM32F7xx_HAL_Driver/Src/stm32f7xx_hal_rtc.c ****     if((hrtc->Instance->CR & RTC_CR_FMT) != (uint32_t)RESET)
 455:Drivers/STM32F7xx_HAL_Driver/Src/stm32f7xx_hal_rtc.c ****     {
 456:Drivers/STM32F7xx_HAL_Driver/Src/stm32f7xx_hal_rtc.c ****       assert_param(IS_RTC_HOUR12(sTime->Hours));
 457:Drivers/STM32F7xx_HAL_Driver/Src/stm32f7xx_hal_rtc.c ****       assert_param(IS_RTC_HOURFORMAT12(sTime->TimeFormat));
 458:Drivers/STM32F7xx_HAL_Driver/Src/stm32f7xx_hal_rtc.c ****     } 
 459:Drivers/STM32F7xx_HAL_Driver/Src/stm32f7xx_hal_rtc.c ****     else
 460:Drivers/STM32F7xx_HAL_Driver/Src/stm32f7xx_hal_rtc.c ****     {
 461:Drivers/STM32F7xx_HAL_Driver/Src/stm32f7xx_hal_rtc.c ****       sTime->TimeFormat = 0x00;
 462:Drivers/STM32F7xx_HAL_Driver/Src/stm32f7xx_hal_rtc.c ****       assert_param(IS_RTC_HOUR24(sTime->Hours));
 463:Drivers/STM32F7xx_HAL_Driver/Src/stm32f7xx_hal_rtc.c ****     }
 464:Drivers/STM32F7xx_HAL_Driver/Src/stm32f7xx_hal_rtc.c ****     assert_param(IS_RTC_MINUTES(sTime->Minutes));
 465:Drivers/STM32F7xx_HAL_Driver/Src/stm32f7xx_hal_rtc.c ****     assert_param(IS_RTC_SECONDS(sTime->Seconds));
 466:Drivers/STM32F7xx_HAL_Driver/Src/stm32f7xx_hal_rtc.c ****     
 467:Drivers/STM32F7xx_HAL_Driver/Src/stm32f7xx_hal_rtc.c ****     tmpreg = (uint32_t)(((uint32_t)RTC_ByteToBcd2(sTime->Hours) << 16) | \
 468:Drivers/STM32F7xx_HAL_Driver/Src/stm32f7xx_hal_rtc.c ****                         ((uint32_t)RTC_ByteToBcd2(sTime->Minutes) << 8) | \
 469:Drivers/STM32F7xx_HAL_Driver/Src/stm32f7xx_hal_rtc.c ****                         ((uint32_t)RTC_ByteToBcd2(sTime->Seconds)) | \
 470:Drivers/STM32F7xx_HAL_Driver/Src/stm32f7xx_hal_rtc.c ****                         (((uint32_t)sTime->TimeFormat) << 16));  
 471:Drivers/STM32F7xx_HAL_Driver/Src/stm32f7xx_hal_rtc.c ****   }
 472:Drivers/STM32F7xx_HAL_Driver/Src/stm32f7xx_hal_rtc.c ****   else
 473:Drivers/STM32F7xx_HAL_Driver/Src/stm32f7xx_hal_rtc.c ****   {
 474:Drivers/STM32F7xx_HAL_Driver/Src/stm32f7xx_hal_rtc.c ****     if((hrtc->Instance->CR & RTC_CR_FMT) != (uint32_t)RESET)
 475:Drivers/STM32F7xx_HAL_Driver/Src/stm32f7xx_hal_rtc.c ****     {
 476:Drivers/STM32F7xx_HAL_Driver/Src/stm32f7xx_hal_rtc.c ****       tmpreg = RTC_Bcd2ToByte(sTime->Hours);
 477:Drivers/STM32F7xx_HAL_Driver/Src/stm32f7xx_hal_rtc.c ****       assert_param(IS_RTC_HOUR12(tmpreg));
 478:Drivers/STM32F7xx_HAL_Driver/Src/stm32f7xx_hal_rtc.c ****       assert_param(IS_RTC_HOURFORMAT12(sTime->TimeFormat)); 
 479:Drivers/STM32F7xx_HAL_Driver/Src/stm32f7xx_hal_rtc.c ****     } 
 480:Drivers/STM32F7xx_HAL_Driver/Src/stm32f7xx_hal_rtc.c ****     else
 481:Drivers/STM32F7xx_HAL_Driver/Src/stm32f7xx_hal_rtc.c ****     {
 482:Drivers/STM32F7xx_HAL_Driver/Src/stm32f7xx_hal_rtc.c ****       sTime->TimeFormat = 0x00;
 483:Drivers/STM32F7xx_HAL_Driver/Src/stm32f7xx_hal_rtc.c ****       assert_param(IS_RTC_HOUR24(RTC_Bcd2ToByte(sTime->Hours)));
 484:Drivers/STM32F7xx_HAL_Driver/Src/stm32f7xx_hal_rtc.c ****     }
 485:Drivers/STM32F7xx_HAL_Driver/Src/stm32f7xx_hal_rtc.c ****     assert_param(IS_RTC_MINUTES(RTC_Bcd2ToByte(sTime->Minutes)));
 486:Drivers/STM32F7xx_HAL_Driver/Src/stm32f7xx_hal_rtc.c ****     assert_param(IS_RTC_SECONDS(RTC_Bcd2ToByte(sTime->Seconds)));
 487:Drivers/STM32F7xx_HAL_Driver/Src/stm32f7xx_hal_rtc.c ****     tmpreg = (((uint32_t)(sTime->Hours) << 16) | \
 488:Drivers/STM32F7xx_HAL_Driver/Src/stm32f7xx_hal_rtc.c ****               ((uint32_t)(sTime->Minutes) << 8) | \
 489:Drivers/STM32F7xx_HAL_Driver/Src/stm32f7xx_hal_rtc.c ****               ((uint32_t)sTime->Seconds) | \
 490:Drivers/STM32F7xx_HAL_Driver/Src/stm32f7xx_hal_rtc.c ****               ((uint32_t)(sTime->TimeFormat) << 16));   
 491:Drivers/STM32F7xx_HAL_Driver/Src/stm32f7xx_hal_rtc.c ****   }
 492:Drivers/STM32F7xx_HAL_Driver/Src/stm32f7xx_hal_rtc.c ****   
 493:Drivers/STM32F7xx_HAL_Driver/Src/stm32f7xx_hal_rtc.c ****   /* Disable the write protection for RTC registers */
 494:Drivers/STM32F7xx_HAL_Driver/Src/stm32f7xx_hal_rtc.c ****   __HAL_RTC_WRITEPROTECTION_DISABLE(hrtc);
 495:Drivers/STM32F7xx_HAL_Driver/Src/stm32f7xx_hal_rtc.c ****   
 496:Drivers/STM32F7xx_HAL_Driver/Src/stm32f7xx_hal_rtc.c ****   /* Set Initialization mode */
 497:Drivers/STM32F7xx_HAL_Driver/Src/stm32f7xx_hal_rtc.c ****   if(RTC_EnterInitMode(hrtc) != HAL_OK)
 498:Drivers/STM32F7xx_HAL_Driver/Src/stm32f7xx_hal_rtc.c ****   {
 499:Drivers/STM32F7xx_HAL_Driver/Src/stm32f7xx_hal_rtc.c ****     /* Enable the write protection for RTC registers */
 500:Drivers/STM32F7xx_HAL_Driver/Src/stm32f7xx_hal_rtc.c ****     __HAL_RTC_WRITEPROTECTION_ENABLE(hrtc); 
 501:Drivers/STM32F7xx_HAL_Driver/Src/stm32f7xx_hal_rtc.c ****     
 502:Drivers/STM32F7xx_HAL_Driver/Src/stm32f7xx_hal_rtc.c ****     /* Set RTC state */
 503:Drivers/STM32F7xx_HAL_Driver/Src/stm32f7xx_hal_rtc.c ****     hrtc->State = HAL_RTC_STATE_ERROR;
 504:Drivers/STM32F7xx_HAL_Driver/Src/stm32f7xx_hal_rtc.c ****     
 505:Drivers/STM32F7xx_HAL_Driver/Src/stm32f7xx_hal_rtc.c ****     /* Process Unlocked */ 
 506:Drivers/STM32F7xx_HAL_Driver/Src/stm32f7xx_hal_rtc.c ****     __HAL_UNLOCK(hrtc);
 507:Drivers/STM32F7xx_HAL_Driver/Src/stm32f7xx_hal_rtc.c ****     
 508:Drivers/STM32F7xx_HAL_Driver/Src/stm32f7xx_hal_rtc.c ****     return HAL_ERROR;
ARM GAS  C:\Users\Student\AppData\Local\Temp\ccDKlFGt.s 			page 11


 509:Drivers/STM32F7xx_HAL_Driver/Src/stm32f7xx_hal_rtc.c ****   } 
 510:Drivers/STM32F7xx_HAL_Driver/Src/stm32f7xx_hal_rtc.c ****   else
 511:Drivers/STM32F7xx_HAL_Driver/Src/stm32f7xx_hal_rtc.c ****   {
 512:Drivers/STM32F7xx_HAL_Driver/Src/stm32f7xx_hal_rtc.c ****     /* Set the RTC_TR register */
 513:Drivers/STM32F7xx_HAL_Driver/Src/stm32f7xx_hal_rtc.c ****     hrtc->Instance->TR = (uint32_t)(tmpreg & RTC_TR_RESERVED_MASK);
 514:Drivers/STM32F7xx_HAL_Driver/Src/stm32f7xx_hal_rtc.c ****      
 515:Drivers/STM32F7xx_HAL_Driver/Src/stm32f7xx_hal_rtc.c ****     /* Clear the bits to be configured */
 516:Drivers/STM32F7xx_HAL_Driver/Src/stm32f7xx_hal_rtc.c ****     hrtc->Instance->CR &= (uint32_t)~RTC_CR_BKP;
 517:Drivers/STM32F7xx_HAL_Driver/Src/stm32f7xx_hal_rtc.c ****     
 518:Drivers/STM32F7xx_HAL_Driver/Src/stm32f7xx_hal_rtc.c ****     /* Configure the RTC_CR register */
 519:Drivers/STM32F7xx_HAL_Driver/Src/stm32f7xx_hal_rtc.c ****     hrtc->Instance->CR |= (uint32_t)(sTime->DayLightSaving | sTime->StoreOperation);
 520:Drivers/STM32F7xx_HAL_Driver/Src/stm32f7xx_hal_rtc.c ****     
 521:Drivers/STM32F7xx_HAL_Driver/Src/stm32f7xx_hal_rtc.c ****     /* Exit Initialization mode */
 522:Drivers/STM32F7xx_HAL_Driver/Src/stm32f7xx_hal_rtc.c ****     hrtc->Instance->ISR &= (uint32_t)~RTC_ISR_INIT;  
 523:Drivers/STM32F7xx_HAL_Driver/Src/stm32f7xx_hal_rtc.c ****     
 524:Drivers/STM32F7xx_HAL_Driver/Src/stm32f7xx_hal_rtc.c ****     /* If  CR_BYPSHAD bit = 0, wait for synchro else this check is not needed */
 525:Drivers/STM32F7xx_HAL_Driver/Src/stm32f7xx_hal_rtc.c ****     if((hrtc->Instance->CR & RTC_CR_BYPSHAD) == RESET)
 526:Drivers/STM32F7xx_HAL_Driver/Src/stm32f7xx_hal_rtc.c ****     {
 527:Drivers/STM32F7xx_HAL_Driver/Src/stm32f7xx_hal_rtc.c ****       if(HAL_RTC_WaitForSynchro(hrtc) != HAL_OK)
 528:Drivers/STM32F7xx_HAL_Driver/Src/stm32f7xx_hal_rtc.c ****       {        
 529:Drivers/STM32F7xx_HAL_Driver/Src/stm32f7xx_hal_rtc.c ****         /* Enable the write protection for RTC registers */
 530:Drivers/STM32F7xx_HAL_Driver/Src/stm32f7xx_hal_rtc.c ****         __HAL_RTC_WRITEPROTECTION_ENABLE(hrtc);  
 531:Drivers/STM32F7xx_HAL_Driver/Src/stm32f7xx_hal_rtc.c ****         
 532:Drivers/STM32F7xx_HAL_Driver/Src/stm32f7xx_hal_rtc.c ****         hrtc->State = HAL_RTC_STATE_ERROR;
 533:Drivers/STM32F7xx_HAL_Driver/Src/stm32f7xx_hal_rtc.c ****         
 534:Drivers/STM32F7xx_HAL_Driver/Src/stm32f7xx_hal_rtc.c ****         /* Process Unlocked */ 
 535:Drivers/STM32F7xx_HAL_Driver/Src/stm32f7xx_hal_rtc.c ****         __HAL_UNLOCK(hrtc);
 536:Drivers/STM32F7xx_HAL_Driver/Src/stm32f7xx_hal_rtc.c ****         
 537:Drivers/STM32F7xx_HAL_Driver/Src/stm32f7xx_hal_rtc.c ****         return HAL_ERROR;
 538:Drivers/STM32F7xx_HAL_Driver/Src/stm32f7xx_hal_rtc.c ****       }
 539:Drivers/STM32F7xx_HAL_Driver/Src/stm32f7xx_hal_rtc.c ****     }
 540:Drivers/STM32F7xx_HAL_Driver/Src/stm32f7xx_hal_rtc.c ****     
 541:Drivers/STM32F7xx_HAL_Driver/Src/stm32f7xx_hal_rtc.c ****     /* Enable the write protection for RTC registers */
 542:Drivers/STM32F7xx_HAL_Driver/Src/stm32f7xx_hal_rtc.c ****     __HAL_RTC_WRITEPROTECTION_ENABLE(hrtc);
 543:Drivers/STM32F7xx_HAL_Driver/Src/stm32f7xx_hal_rtc.c ****     
 544:Drivers/STM32F7xx_HAL_Driver/Src/stm32f7xx_hal_rtc.c ****    hrtc->State = HAL_RTC_STATE_READY;
 545:Drivers/STM32F7xx_HAL_Driver/Src/stm32f7xx_hal_rtc.c ****   
 546:Drivers/STM32F7xx_HAL_Driver/Src/stm32f7xx_hal_rtc.c ****    __HAL_UNLOCK(hrtc); 
 547:Drivers/STM32F7xx_HAL_Driver/Src/stm32f7xx_hal_rtc.c ****      
 548:Drivers/STM32F7xx_HAL_Driver/Src/stm32f7xx_hal_rtc.c ****    return HAL_OK;
 549:Drivers/STM32F7xx_HAL_Driver/Src/stm32f7xx_hal_rtc.c ****   }
 550:Drivers/STM32F7xx_HAL_Driver/Src/stm32f7xx_hal_rtc.c **** }
 551:Drivers/STM32F7xx_HAL_Driver/Src/stm32f7xx_hal_rtc.c **** 
 552:Drivers/STM32F7xx_HAL_Driver/Src/stm32f7xx_hal_rtc.c **** /**
 553:Drivers/STM32F7xx_HAL_Driver/Src/stm32f7xx_hal_rtc.c ****   * @brief  Gets RTC current time.
 554:Drivers/STM32F7xx_HAL_Driver/Src/stm32f7xx_hal_rtc.c ****   * @param  hrtc RTC handle
 555:Drivers/STM32F7xx_HAL_Driver/Src/stm32f7xx_hal_rtc.c ****   * @param  sTime Pointer to Time structure with Hours, Minutes and Seconds fields returned 
 556:Drivers/STM32F7xx_HAL_Driver/Src/stm32f7xx_hal_rtc.c ****   *                with input format (BIN or BCD), also SubSeconds field returning the
 557:Drivers/STM32F7xx_HAL_Driver/Src/stm32f7xx_hal_rtc.c ****   *                RTC_SSR register content and SecondFraction field the Synchronous pre-scaler
 558:Drivers/STM32F7xx_HAL_Driver/Src/stm32f7xx_hal_rtc.c ****   *                factor to be used for second fraction ratio computation.
 559:Drivers/STM32F7xx_HAL_Driver/Src/stm32f7xx_hal_rtc.c ****   * @param  Format Specifies the format of the entered parameters.
 560:Drivers/STM32F7xx_HAL_Driver/Src/stm32f7xx_hal_rtc.c ****   *          This parameter can be one of the following values:
 561:Drivers/STM32F7xx_HAL_Driver/Src/stm32f7xx_hal_rtc.c ****   *            @arg RTC_FORMAT_BIN: Binary data format 
 562:Drivers/STM32F7xx_HAL_Driver/Src/stm32f7xx_hal_rtc.c ****   *            @arg RTC_FORMAT_BCD: BCD data format
 563:Drivers/STM32F7xx_HAL_Driver/Src/stm32f7xx_hal_rtc.c ****   * @note  You can use SubSeconds and SecondFraction (sTime structure fields returned) to convert S
 564:Drivers/STM32F7xx_HAL_Driver/Src/stm32f7xx_hal_rtc.c ****   *        value in second fraction ratio with time unit following generic formula:
 565:Drivers/STM32F7xx_HAL_Driver/Src/stm32f7xx_hal_rtc.c ****   *        Second fraction ratio * time_unit= [(SecondFraction-SubSeconds)/(SecondFraction+1)] * ti
ARM GAS  C:\Users\Student\AppData\Local\Temp\ccDKlFGt.s 			page 12


 566:Drivers/STM32F7xx_HAL_Driver/Src/stm32f7xx_hal_rtc.c ****   *        This conversion can be performed only if no shift operation is pending (ie. SHFP=0) when
 567:Drivers/STM32F7xx_HAL_Driver/Src/stm32f7xx_hal_rtc.c ****   * @note  You must call HAL_RTC_GetDate() after HAL_RTC_GetTime() to unlock the values 
 568:Drivers/STM32F7xx_HAL_Driver/Src/stm32f7xx_hal_rtc.c ****   *        in the higher-order calendar shadow registers to ensure consistency between the time and
 569:Drivers/STM32F7xx_HAL_Driver/Src/stm32f7xx_hal_rtc.c ****   *        Reading RTC current time locks the values in calendar shadow registers until Current dat
 570:Drivers/STM32F7xx_HAL_Driver/Src/stm32f7xx_hal_rtc.c ****   *        to ensure consistency between the time and date values.
 571:Drivers/STM32F7xx_HAL_Driver/Src/stm32f7xx_hal_rtc.c ****   * @retval HAL status
 572:Drivers/STM32F7xx_HAL_Driver/Src/stm32f7xx_hal_rtc.c ****   */
 573:Drivers/STM32F7xx_HAL_Driver/Src/stm32f7xx_hal_rtc.c **** HAL_StatusTypeDef HAL_RTC_GetTime(RTC_HandleTypeDef *hrtc, RTC_TimeTypeDef *sTime, uint32_t Format)
 574:Drivers/STM32F7xx_HAL_Driver/Src/stm32f7xx_hal_rtc.c **** {
 575:Drivers/STM32F7xx_HAL_Driver/Src/stm32f7xx_hal_rtc.c ****   uint32_t tmpreg = 0;
 576:Drivers/STM32F7xx_HAL_Driver/Src/stm32f7xx_hal_rtc.c **** 
 577:Drivers/STM32F7xx_HAL_Driver/Src/stm32f7xx_hal_rtc.c ****   /* Check the parameters */
 578:Drivers/STM32F7xx_HAL_Driver/Src/stm32f7xx_hal_rtc.c ****   assert_param(IS_RTC_FORMAT(Format));
 579:Drivers/STM32F7xx_HAL_Driver/Src/stm32f7xx_hal_rtc.c ****   
 580:Drivers/STM32F7xx_HAL_Driver/Src/stm32f7xx_hal_rtc.c ****   /* Get subseconds values from the correspondent registers*/
 581:Drivers/STM32F7xx_HAL_Driver/Src/stm32f7xx_hal_rtc.c ****   sTime->SubSeconds = (uint32_t)(hrtc->Instance->SSR);
 582:Drivers/STM32F7xx_HAL_Driver/Src/stm32f7xx_hal_rtc.c ****   
 583:Drivers/STM32F7xx_HAL_Driver/Src/stm32f7xx_hal_rtc.c ****   /* Get SecondFraction structure field from the corresponding register field*/
 584:Drivers/STM32F7xx_HAL_Driver/Src/stm32f7xx_hal_rtc.c ****   sTime->SecondFraction = (uint32_t)(hrtc->Instance->PRER & RTC_PRER_PREDIV_S);
 585:Drivers/STM32F7xx_HAL_Driver/Src/stm32f7xx_hal_rtc.c **** 
 586:Drivers/STM32F7xx_HAL_Driver/Src/stm32f7xx_hal_rtc.c ****   /* Get the TR register */
 587:Drivers/STM32F7xx_HAL_Driver/Src/stm32f7xx_hal_rtc.c ****   tmpreg = (uint32_t)(hrtc->Instance->TR & RTC_TR_RESERVED_MASK); 
 588:Drivers/STM32F7xx_HAL_Driver/Src/stm32f7xx_hal_rtc.c ****   
 589:Drivers/STM32F7xx_HAL_Driver/Src/stm32f7xx_hal_rtc.c ****   /* Fill the structure fields with the read parameters */
 590:Drivers/STM32F7xx_HAL_Driver/Src/stm32f7xx_hal_rtc.c ****   sTime->Hours = (uint8_t)((tmpreg & (RTC_TR_HT | RTC_TR_HU)) >> 16);
 591:Drivers/STM32F7xx_HAL_Driver/Src/stm32f7xx_hal_rtc.c ****   sTime->Minutes = (uint8_t)((tmpreg & (RTC_TR_MNT | RTC_TR_MNU)) >>8);
 592:Drivers/STM32F7xx_HAL_Driver/Src/stm32f7xx_hal_rtc.c ****   sTime->Seconds = (uint8_t)(tmpreg & (RTC_TR_ST | RTC_TR_SU));
 593:Drivers/STM32F7xx_HAL_Driver/Src/stm32f7xx_hal_rtc.c ****   sTime->TimeFormat = (uint8_t)((tmpreg & (RTC_TR_PM)) >> 16); 
 594:Drivers/STM32F7xx_HAL_Driver/Src/stm32f7xx_hal_rtc.c ****   
 595:Drivers/STM32F7xx_HAL_Driver/Src/stm32f7xx_hal_rtc.c ****   /* Check the input parameters format */
 596:Drivers/STM32F7xx_HAL_Driver/Src/stm32f7xx_hal_rtc.c ****   if(Format == RTC_FORMAT_BIN)
 597:Drivers/STM32F7xx_HAL_Driver/Src/stm32f7xx_hal_rtc.c ****   {
 598:Drivers/STM32F7xx_HAL_Driver/Src/stm32f7xx_hal_rtc.c ****     /* Convert the time structure parameters to Binary format */
 599:Drivers/STM32F7xx_HAL_Driver/Src/stm32f7xx_hal_rtc.c ****     sTime->Hours = (uint8_t)RTC_Bcd2ToByte(sTime->Hours);
 600:Drivers/STM32F7xx_HAL_Driver/Src/stm32f7xx_hal_rtc.c ****     sTime->Minutes = (uint8_t)RTC_Bcd2ToByte(sTime->Minutes);
 601:Drivers/STM32F7xx_HAL_Driver/Src/stm32f7xx_hal_rtc.c ****     sTime->Seconds = (uint8_t)RTC_Bcd2ToByte(sTime->Seconds);  
 602:Drivers/STM32F7xx_HAL_Driver/Src/stm32f7xx_hal_rtc.c ****   }
 603:Drivers/STM32F7xx_HAL_Driver/Src/stm32f7xx_hal_rtc.c ****   
 604:Drivers/STM32F7xx_HAL_Driver/Src/stm32f7xx_hal_rtc.c ****   return HAL_OK;
 605:Drivers/STM32F7xx_HAL_Driver/Src/stm32f7xx_hal_rtc.c **** }
 606:Drivers/STM32F7xx_HAL_Driver/Src/stm32f7xx_hal_rtc.c **** 
 607:Drivers/STM32F7xx_HAL_Driver/Src/stm32f7xx_hal_rtc.c **** /**
 608:Drivers/STM32F7xx_HAL_Driver/Src/stm32f7xx_hal_rtc.c ****   * @brief  Sets RTC current date.
 609:Drivers/STM32F7xx_HAL_Driver/Src/stm32f7xx_hal_rtc.c ****   * @param  hrtc pointer to a RTC_HandleTypeDef structure that contains
 610:Drivers/STM32F7xx_HAL_Driver/Src/stm32f7xx_hal_rtc.c ****   *                the configuration information for RTC.
 611:Drivers/STM32F7xx_HAL_Driver/Src/stm32f7xx_hal_rtc.c ****   * @param  sDate Pointer to date structure
 612:Drivers/STM32F7xx_HAL_Driver/Src/stm32f7xx_hal_rtc.c ****   * @param  Format specifies the format of the entered parameters.
 613:Drivers/STM32F7xx_HAL_Driver/Src/stm32f7xx_hal_rtc.c ****   *          This parameter can be one of the following values:
 614:Drivers/STM32F7xx_HAL_Driver/Src/stm32f7xx_hal_rtc.c ****   *            @arg RTC_FORMAT_BIN: Binary data format 
 615:Drivers/STM32F7xx_HAL_Driver/Src/stm32f7xx_hal_rtc.c ****   *            @arg RTC_FORMAT_BCD: BCD data format
 616:Drivers/STM32F7xx_HAL_Driver/Src/stm32f7xx_hal_rtc.c ****   * @retval HAL status
 617:Drivers/STM32F7xx_HAL_Driver/Src/stm32f7xx_hal_rtc.c ****   */
 618:Drivers/STM32F7xx_HAL_Driver/Src/stm32f7xx_hal_rtc.c **** HAL_StatusTypeDef HAL_RTC_SetDate(RTC_HandleTypeDef *hrtc, RTC_DateTypeDef *sDate, uint32_t Format)
 619:Drivers/STM32F7xx_HAL_Driver/Src/stm32f7xx_hal_rtc.c **** {
 620:Drivers/STM32F7xx_HAL_Driver/Src/stm32f7xx_hal_rtc.c ****   uint32_t datetmpreg = 0;
 621:Drivers/STM32F7xx_HAL_Driver/Src/stm32f7xx_hal_rtc.c ****   
 622:Drivers/STM32F7xx_HAL_Driver/Src/stm32f7xx_hal_rtc.c ****  /* Check the parameters */
ARM GAS  C:\Users\Student\AppData\Local\Temp\ccDKlFGt.s 			page 13


 623:Drivers/STM32F7xx_HAL_Driver/Src/stm32f7xx_hal_rtc.c ****   assert_param(IS_RTC_FORMAT(Format));
 624:Drivers/STM32F7xx_HAL_Driver/Src/stm32f7xx_hal_rtc.c ****   
 625:Drivers/STM32F7xx_HAL_Driver/Src/stm32f7xx_hal_rtc.c ****  /* Process Locked */ 
 626:Drivers/STM32F7xx_HAL_Driver/Src/stm32f7xx_hal_rtc.c ****  __HAL_LOCK(hrtc);
 627:Drivers/STM32F7xx_HAL_Driver/Src/stm32f7xx_hal_rtc.c ****   
 628:Drivers/STM32F7xx_HAL_Driver/Src/stm32f7xx_hal_rtc.c ****   hrtc->State = HAL_RTC_STATE_BUSY; 
 629:Drivers/STM32F7xx_HAL_Driver/Src/stm32f7xx_hal_rtc.c ****   
 630:Drivers/STM32F7xx_HAL_Driver/Src/stm32f7xx_hal_rtc.c ****   if((Format == RTC_FORMAT_BIN) && ((sDate->Month & 0x10U) == 0x10U))
 631:Drivers/STM32F7xx_HAL_Driver/Src/stm32f7xx_hal_rtc.c ****   {
 632:Drivers/STM32F7xx_HAL_Driver/Src/stm32f7xx_hal_rtc.c ****     sDate->Month = (uint8_t)((sDate->Month & (uint8_t)~(0x10U)) + (uint8_t)0x0AU);
 633:Drivers/STM32F7xx_HAL_Driver/Src/stm32f7xx_hal_rtc.c ****   }
 634:Drivers/STM32F7xx_HAL_Driver/Src/stm32f7xx_hal_rtc.c ****   
 635:Drivers/STM32F7xx_HAL_Driver/Src/stm32f7xx_hal_rtc.c ****   assert_param(IS_RTC_WEEKDAY(sDate->WeekDay));
 636:Drivers/STM32F7xx_HAL_Driver/Src/stm32f7xx_hal_rtc.c ****   
 637:Drivers/STM32F7xx_HAL_Driver/Src/stm32f7xx_hal_rtc.c ****   if(Format == RTC_FORMAT_BIN)
 638:Drivers/STM32F7xx_HAL_Driver/Src/stm32f7xx_hal_rtc.c ****   {   
 639:Drivers/STM32F7xx_HAL_Driver/Src/stm32f7xx_hal_rtc.c ****     assert_param(IS_RTC_YEAR(sDate->Year));
 640:Drivers/STM32F7xx_HAL_Driver/Src/stm32f7xx_hal_rtc.c ****     assert_param(IS_RTC_MONTH(sDate->Month));
 641:Drivers/STM32F7xx_HAL_Driver/Src/stm32f7xx_hal_rtc.c ****     assert_param(IS_RTC_DATE(sDate->Date)); 
 642:Drivers/STM32F7xx_HAL_Driver/Src/stm32f7xx_hal_rtc.c ****     
 643:Drivers/STM32F7xx_HAL_Driver/Src/stm32f7xx_hal_rtc.c ****    datetmpreg = (((uint32_t)RTC_ByteToBcd2(sDate->Year) << 16) | \
 644:Drivers/STM32F7xx_HAL_Driver/Src/stm32f7xx_hal_rtc.c ****                  ((uint32_t)RTC_ByteToBcd2(sDate->Month) << 8) | \
 645:Drivers/STM32F7xx_HAL_Driver/Src/stm32f7xx_hal_rtc.c ****                  ((uint32_t)RTC_ByteToBcd2(sDate->Date)) | \
 646:Drivers/STM32F7xx_HAL_Driver/Src/stm32f7xx_hal_rtc.c ****                  ((uint32_t)sDate->WeekDay << 13));   
 647:Drivers/STM32F7xx_HAL_Driver/Src/stm32f7xx_hal_rtc.c ****   }
 648:Drivers/STM32F7xx_HAL_Driver/Src/stm32f7xx_hal_rtc.c ****   else
 649:Drivers/STM32F7xx_HAL_Driver/Src/stm32f7xx_hal_rtc.c ****   {   
 650:Drivers/STM32F7xx_HAL_Driver/Src/stm32f7xx_hal_rtc.c ****     assert_param(IS_RTC_YEAR(RTC_Bcd2ToByte(sDate->Year)));
 651:Drivers/STM32F7xx_HAL_Driver/Src/stm32f7xx_hal_rtc.c ****     assert_param(IS_RTC_MONTH(sDate->Month));
 652:Drivers/STM32F7xx_HAL_Driver/Src/stm32f7xx_hal_rtc.c ****     assert_param(IS_RTC_DATE(sDate->Date));
 653:Drivers/STM32F7xx_HAL_Driver/Src/stm32f7xx_hal_rtc.c ****     
 654:Drivers/STM32F7xx_HAL_Driver/Src/stm32f7xx_hal_rtc.c ****     datetmpreg = ((((uint32_t)sDate->Year) << 16) | \
 655:Drivers/STM32F7xx_HAL_Driver/Src/stm32f7xx_hal_rtc.c ****                   (((uint32_t)sDate->Month) << 8) | \
 656:Drivers/STM32F7xx_HAL_Driver/Src/stm32f7xx_hal_rtc.c ****                   ((uint32_t)sDate->Date) | \
 657:Drivers/STM32F7xx_HAL_Driver/Src/stm32f7xx_hal_rtc.c ****                   (((uint32_t)sDate->WeekDay) << 13));  
 658:Drivers/STM32F7xx_HAL_Driver/Src/stm32f7xx_hal_rtc.c ****   }
 659:Drivers/STM32F7xx_HAL_Driver/Src/stm32f7xx_hal_rtc.c **** 
 660:Drivers/STM32F7xx_HAL_Driver/Src/stm32f7xx_hal_rtc.c ****   /* Disable the write protection for RTC registers */
 661:Drivers/STM32F7xx_HAL_Driver/Src/stm32f7xx_hal_rtc.c ****   __HAL_RTC_WRITEPROTECTION_DISABLE(hrtc);
 662:Drivers/STM32F7xx_HAL_Driver/Src/stm32f7xx_hal_rtc.c ****   
 663:Drivers/STM32F7xx_HAL_Driver/Src/stm32f7xx_hal_rtc.c ****   /* Set Initialization mode */
 664:Drivers/STM32F7xx_HAL_Driver/Src/stm32f7xx_hal_rtc.c ****   if(RTC_EnterInitMode(hrtc) != HAL_OK)
 665:Drivers/STM32F7xx_HAL_Driver/Src/stm32f7xx_hal_rtc.c ****   {
 666:Drivers/STM32F7xx_HAL_Driver/Src/stm32f7xx_hal_rtc.c ****     /* Enable the write protection for RTC registers */
 667:Drivers/STM32F7xx_HAL_Driver/Src/stm32f7xx_hal_rtc.c ****     __HAL_RTC_WRITEPROTECTION_ENABLE(hrtc); 
 668:Drivers/STM32F7xx_HAL_Driver/Src/stm32f7xx_hal_rtc.c ****     
 669:Drivers/STM32F7xx_HAL_Driver/Src/stm32f7xx_hal_rtc.c ****     /* Set RTC state*/
 670:Drivers/STM32F7xx_HAL_Driver/Src/stm32f7xx_hal_rtc.c ****     hrtc->State = HAL_RTC_STATE_ERROR;
 671:Drivers/STM32F7xx_HAL_Driver/Src/stm32f7xx_hal_rtc.c ****     
 672:Drivers/STM32F7xx_HAL_Driver/Src/stm32f7xx_hal_rtc.c ****     /* Process Unlocked */ 
 673:Drivers/STM32F7xx_HAL_Driver/Src/stm32f7xx_hal_rtc.c ****     __HAL_UNLOCK(hrtc);
 674:Drivers/STM32F7xx_HAL_Driver/Src/stm32f7xx_hal_rtc.c ****     
 675:Drivers/STM32F7xx_HAL_Driver/Src/stm32f7xx_hal_rtc.c ****     return HAL_ERROR;
 676:Drivers/STM32F7xx_HAL_Driver/Src/stm32f7xx_hal_rtc.c ****   } 
 677:Drivers/STM32F7xx_HAL_Driver/Src/stm32f7xx_hal_rtc.c ****   else
 678:Drivers/STM32F7xx_HAL_Driver/Src/stm32f7xx_hal_rtc.c ****   {
 679:Drivers/STM32F7xx_HAL_Driver/Src/stm32f7xx_hal_rtc.c ****     /* Set the RTC_DR register */
ARM GAS  C:\Users\Student\AppData\Local\Temp\ccDKlFGt.s 			page 14


 680:Drivers/STM32F7xx_HAL_Driver/Src/stm32f7xx_hal_rtc.c ****     hrtc->Instance->DR = (uint32_t)(datetmpreg & RTC_DR_RESERVED_MASK);
 681:Drivers/STM32F7xx_HAL_Driver/Src/stm32f7xx_hal_rtc.c ****     
 682:Drivers/STM32F7xx_HAL_Driver/Src/stm32f7xx_hal_rtc.c ****     /* Exit Initialization mode */
 683:Drivers/STM32F7xx_HAL_Driver/Src/stm32f7xx_hal_rtc.c ****     hrtc->Instance->ISR &= (uint32_t)~RTC_ISR_INIT;  
 684:Drivers/STM32F7xx_HAL_Driver/Src/stm32f7xx_hal_rtc.c ****     
 685:Drivers/STM32F7xx_HAL_Driver/Src/stm32f7xx_hal_rtc.c ****     /* If  CR_BYPSHAD bit = 0, wait for synchro else this check is not needed */
 686:Drivers/STM32F7xx_HAL_Driver/Src/stm32f7xx_hal_rtc.c ****     if((hrtc->Instance->CR & RTC_CR_BYPSHAD) == RESET)
 687:Drivers/STM32F7xx_HAL_Driver/Src/stm32f7xx_hal_rtc.c ****     {
 688:Drivers/STM32F7xx_HAL_Driver/Src/stm32f7xx_hal_rtc.c ****       if(HAL_RTC_WaitForSynchro(hrtc) != HAL_OK)
 689:Drivers/STM32F7xx_HAL_Driver/Src/stm32f7xx_hal_rtc.c ****       { 
 690:Drivers/STM32F7xx_HAL_Driver/Src/stm32f7xx_hal_rtc.c ****         /* Enable the write protection for RTC registers */
 691:Drivers/STM32F7xx_HAL_Driver/Src/stm32f7xx_hal_rtc.c ****         __HAL_RTC_WRITEPROTECTION_ENABLE(hrtc);  
 692:Drivers/STM32F7xx_HAL_Driver/Src/stm32f7xx_hal_rtc.c ****         
 693:Drivers/STM32F7xx_HAL_Driver/Src/stm32f7xx_hal_rtc.c ****         hrtc->State = HAL_RTC_STATE_ERROR;
 694:Drivers/STM32F7xx_HAL_Driver/Src/stm32f7xx_hal_rtc.c ****         
 695:Drivers/STM32F7xx_HAL_Driver/Src/stm32f7xx_hal_rtc.c ****         /* Process Unlocked */ 
 696:Drivers/STM32F7xx_HAL_Driver/Src/stm32f7xx_hal_rtc.c ****         __HAL_UNLOCK(hrtc);
 697:Drivers/STM32F7xx_HAL_Driver/Src/stm32f7xx_hal_rtc.c ****         
 698:Drivers/STM32F7xx_HAL_Driver/Src/stm32f7xx_hal_rtc.c ****         return HAL_ERROR;
 699:Drivers/STM32F7xx_HAL_Driver/Src/stm32f7xx_hal_rtc.c ****       }
 700:Drivers/STM32F7xx_HAL_Driver/Src/stm32f7xx_hal_rtc.c ****     }
 701:Drivers/STM32F7xx_HAL_Driver/Src/stm32f7xx_hal_rtc.c ****     
 702:Drivers/STM32F7xx_HAL_Driver/Src/stm32f7xx_hal_rtc.c ****     /* Enable the write protection for RTC registers */
 703:Drivers/STM32F7xx_HAL_Driver/Src/stm32f7xx_hal_rtc.c ****     __HAL_RTC_WRITEPROTECTION_ENABLE(hrtc);  
 704:Drivers/STM32F7xx_HAL_Driver/Src/stm32f7xx_hal_rtc.c ****     
 705:Drivers/STM32F7xx_HAL_Driver/Src/stm32f7xx_hal_rtc.c ****     hrtc->State = HAL_RTC_STATE_READY ;
 706:Drivers/STM32F7xx_HAL_Driver/Src/stm32f7xx_hal_rtc.c ****     
 707:Drivers/STM32F7xx_HAL_Driver/Src/stm32f7xx_hal_rtc.c ****     /* Process Unlocked */ 
 708:Drivers/STM32F7xx_HAL_Driver/Src/stm32f7xx_hal_rtc.c ****     __HAL_UNLOCK(hrtc);
 709:Drivers/STM32F7xx_HAL_Driver/Src/stm32f7xx_hal_rtc.c ****     
 710:Drivers/STM32F7xx_HAL_Driver/Src/stm32f7xx_hal_rtc.c ****     return HAL_OK;    
 711:Drivers/STM32F7xx_HAL_Driver/Src/stm32f7xx_hal_rtc.c ****   }
 712:Drivers/STM32F7xx_HAL_Driver/Src/stm32f7xx_hal_rtc.c **** }
 713:Drivers/STM32F7xx_HAL_Driver/Src/stm32f7xx_hal_rtc.c **** 
 714:Drivers/STM32F7xx_HAL_Driver/Src/stm32f7xx_hal_rtc.c **** /**
 715:Drivers/STM32F7xx_HAL_Driver/Src/stm32f7xx_hal_rtc.c ****   * @brief  Gets RTC current date.
 716:Drivers/STM32F7xx_HAL_Driver/Src/stm32f7xx_hal_rtc.c ****   * @param  hrtc pointer to a RTC_HandleTypeDef structure that contains
 717:Drivers/STM32F7xx_HAL_Driver/Src/stm32f7xx_hal_rtc.c ****   *                the configuration information for RTC.
 718:Drivers/STM32F7xx_HAL_Driver/Src/stm32f7xx_hal_rtc.c ****   * @param  sDate Pointer to Date structure
 719:Drivers/STM32F7xx_HAL_Driver/Src/stm32f7xx_hal_rtc.c ****   * @param  Format Specifies the format of the entered parameters.
 720:Drivers/STM32F7xx_HAL_Driver/Src/stm32f7xx_hal_rtc.c ****   *          This parameter can be one of the following values:
 721:Drivers/STM32F7xx_HAL_Driver/Src/stm32f7xx_hal_rtc.c ****   *            @arg RTC_FORMAT_BIN:  Binary data format 
 722:Drivers/STM32F7xx_HAL_Driver/Src/stm32f7xx_hal_rtc.c ****   *            @arg RTC_FORMAT_BCD:  BCD data format
 723:Drivers/STM32F7xx_HAL_Driver/Src/stm32f7xx_hal_rtc.c ****   * @note You must call HAL_RTC_GetDate() after HAL_RTC_GetTime() to unlock the values 
 724:Drivers/STM32F7xx_HAL_Driver/Src/stm32f7xx_hal_rtc.c ****   * in the higher-order calendar shadow registers to ensure consistency between the time and date v
 725:Drivers/STM32F7xx_HAL_Driver/Src/stm32f7xx_hal_rtc.c ****   * Reading RTC current time locks the values in calendar shadow registers until Current date is re
 726:Drivers/STM32F7xx_HAL_Driver/Src/stm32f7xx_hal_rtc.c ****   * @retval HAL status
 727:Drivers/STM32F7xx_HAL_Driver/Src/stm32f7xx_hal_rtc.c ****   */
 728:Drivers/STM32F7xx_HAL_Driver/Src/stm32f7xx_hal_rtc.c **** HAL_StatusTypeDef HAL_RTC_GetDate(RTC_HandleTypeDef *hrtc, RTC_DateTypeDef *sDate, uint32_t Format)
 729:Drivers/STM32F7xx_HAL_Driver/Src/stm32f7xx_hal_rtc.c **** {
 730:Drivers/STM32F7xx_HAL_Driver/Src/stm32f7xx_hal_rtc.c ****   uint32_t datetmpreg = 0;
 731:Drivers/STM32F7xx_HAL_Driver/Src/stm32f7xx_hal_rtc.c **** 
 732:Drivers/STM32F7xx_HAL_Driver/Src/stm32f7xx_hal_rtc.c ****   /* Check the parameters */
 733:Drivers/STM32F7xx_HAL_Driver/Src/stm32f7xx_hal_rtc.c ****   assert_param(IS_RTC_FORMAT(Format));
 734:Drivers/STM32F7xx_HAL_Driver/Src/stm32f7xx_hal_rtc.c ****           
 735:Drivers/STM32F7xx_HAL_Driver/Src/stm32f7xx_hal_rtc.c ****   /* Get the DR register */
 736:Drivers/STM32F7xx_HAL_Driver/Src/stm32f7xx_hal_rtc.c ****   datetmpreg = (uint32_t)(hrtc->Instance->DR & RTC_DR_RESERVED_MASK); 
ARM GAS  C:\Users\Student\AppData\Local\Temp\ccDKlFGt.s 			page 15


 737:Drivers/STM32F7xx_HAL_Driver/Src/stm32f7xx_hal_rtc.c **** 
 738:Drivers/STM32F7xx_HAL_Driver/Src/stm32f7xx_hal_rtc.c ****   /* Fill the structure fields with the read parameters */
 739:Drivers/STM32F7xx_HAL_Driver/Src/stm32f7xx_hal_rtc.c ****   sDate->Year = (uint8_t)((datetmpreg & (RTC_DR_YT | RTC_DR_YU)) >> 16);
 740:Drivers/STM32F7xx_HAL_Driver/Src/stm32f7xx_hal_rtc.c ****   sDate->Month = (uint8_t)((datetmpreg & (RTC_DR_MT | RTC_DR_MU)) >> 8);
 741:Drivers/STM32F7xx_HAL_Driver/Src/stm32f7xx_hal_rtc.c ****   sDate->Date = (uint8_t)(datetmpreg & (RTC_DR_DT | RTC_DR_DU));
 742:Drivers/STM32F7xx_HAL_Driver/Src/stm32f7xx_hal_rtc.c ****   sDate->WeekDay = (uint8_t)((datetmpreg & (RTC_DR_WDU)) >> 13); 
 743:Drivers/STM32F7xx_HAL_Driver/Src/stm32f7xx_hal_rtc.c **** 
 744:Drivers/STM32F7xx_HAL_Driver/Src/stm32f7xx_hal_rtc.c ****   /* Check the input parameters format */
 745:Drivers/STM32F7xx_HAL_Driver/Src/stm32f7xx_hal_rtc.c ****   if(Format == RTC_FORMAT_BIN)
 746:Drivers/STM32F7xx_HAL_Driver/Src/stm32f7xx_hal_rtc.c ****   {    
 747:Drivers/STM32F7xx_HAL_Driver/Src/stm32f7xx_hal_rtc.c ****     /* Convert the date structure parameters to Binary format */
 748:Drivers/STM32F7xx_HAL_Driver/Src/stm32f7xx_hal_rtc.c ****     sDate->Year = (uint8_t)RTC_Bcd2ToByte(sDate->Year);
 749:Drivers/STM32F7xx_HAL_Driver/Src/stm32f7xx_hal_rtc.c ****     sDate->Month = (uint8_t)RTC_Bcd2ToByte(sDate->Month);
 750:Drivers/STM32F7xx_HAL_Driver/Src/stm32f7xx_hal_rtc.c ****     sDate->Date = (uint8_t)RTC_Bcd2ToByte(sDate->Date);  
 751:Drivers/STM32F7xx_HAL_Driver/Src/stm32f7xx_hal_rtc.c ****   }
 752:Drivers/STM32F7xx_HAL_Driver/Src/stm32f7xx_hal_rtc.c ****   return HAL_OK;
 753:Drivers/STM32F7xx_HAL_Driver/Src/stm32f7xx_hal_rtc.c **** }
 754:Drivers/STM32F7xx_HAL_Driver/Src/stm32f7xx_hal_rtc.c **** 
 755:Drivers/STM32F7xx_HAL_Driver/Src/stm32f7xx_hal_rtc.c **** /**
 756:Drivers/STM32F7xx_HAL_Driver/Src/stm32f7xx_hal_rtc.c ****   * @}
 757:Drivers/STM32F7xx_HAL_Driver/Src/stm32f7xx_hal_rtc.c ****   */
 758:Drivers/STM32F7xx_HAL_Driver/Src/stm32f7xx_hal_rtc.c **** 
 759:Drivers/STM32F7xx_HAL_Driver/Src/stm32f7xx_hal_rtc.c **** /** @defgroup RTC_Group3 RTC Alarm functions
 760:Drivers/STM32F7xx_HAL_Driver/Src/stm32f7xx_hal_rtc.c ****  *  @brief   RTC Alarm functions
 761:Drivers/STM32F7xx_HAL_Driver/Src/stm32f7xx_hal_rtc.c ****  *
 762:Drivers/STM32F7xx_HAL_Driver/Src/stm32f7xx_hal_rtc.c **** @verbatim   
 763:Drivers/STM32F7xx_HAL_Driver/Src/stm32f7xx_hal_rtc.c ****  ===============================================================================
 764:Drivers/STM32F7xx_HAL_Driver/Src/stm32f7xx_hal_rtc.c ****                  ##### RTC Alarm functions #####
 765:Drivers/STM32F7xx_HAL_Driver/Src/stm32f7xx_hal_rtc.c ****  ===============================================================================  
 766:Drivers/STM32F7xx_HAL_Driver/Src/stm32f7xx_hal_rtc.c ****  
 767:Drivers/STM32F7xx_HAL_Driver/Src/stm32f7xx_hal_rtc.c ****  [..] This section provides functions allowing to configure Alarm feature
 768:Drivers/STM32F7xx_HAL_Driver/Src/stm32f7xx_hal_rtc.c **** 
 769:Drivers/STM32F7xx_HAL_Driver/Src/stm32f7xx_hal_rtc.c **** @endverbatim
 770:Drivers/STM32F7xx_HAL_Driver/Src/stm32f7xx_hal_rtc.c ****   * @{
 771:Drivers/STM32F7xx_HAL_Driver/Src/stm32f7xx_hal_rtc.c ****   */
 772:Drivers/STM32F7xx_HAL_Driver/Src/stm32f7xx_hal_rtc.c **** /**
 773:Drivers/STM32F7xx_HAL_Driver/Src/stm32f7xx_hal_rtc.c ****   * @brief  Sets the specified RTC Alarm.
 774:Drivers/STM32F7xx_HAL_Driver/Src/stm32f7xx_hal_rtc.c ****   * @param  hrtc pointer to a RTC_HandleTypeDef structure that contains
 775:Drivers/STM32F7xx_HAL_Driver/Src/stm32f7xx_hal_rtc.c ****   *                the configuration information for RTC.
 776:Drivers/STM32F7xx_HAL_Driver/Src/stm32f7xx_hal_rtc.c ****   * @param  sAlarm Pointer to Alarm structure
 777:Drivers/STM32F7xx_HAL_Driver/Src/stm32f7xx_hal_rtc.c ****   * @param  Format Specifies the format of the entered parameters.
 778:Drivers/STM32F7xx_HAL_Driver/Src/stm32f7xx_hal_rtc.c ****   *          This parameter can be one of the following values:
 779:Drivers/STM32F7xx_HAL_Driver/Src/stm32f7xx_hal_rtc.c ****   *             @arg FORMAT_BIN: Binary data format 
 780:Drivers/STM32F7xx_HAL_Driver/Src/stm32f7xx_hal_rtc.c ****   *             @arg FORMAT_BCD: BCD data format
 781:Drivers/STM32F7xx_HAL_Driver/Src/stm32f7xx_hal_rtc.c ****   * @retval HAL status
 782:Drivers/STM32F7xx_HAL_Driver/Src/stm32f7xx_hal_rtc.c ****   */
 783:Drivers/STM32F7xx_HAL_Driver/Src/stm32f7xx_hal_rtc.c **** HAL_StatusTypeDef HAL_RTC_SetAlarm(RTC_HandleTypeDef *hrtc, RTC_AlarmTypeDef *sAlarm, uint32_t Form
 784:Drivers/STM32F7xx_HAL_Driver/Src/stm32f7xx_hal_rtc.c **** {
 785:Drivers/STM32F7xx_HAL_Driver/Src/stm32f7xx_hal_rtc.c ****   uint32_t tickstart = 0;
 786:Drivers/STM32F7xx_HAL_Driver/Src/stm32f7xx_hal_rtc.c ****   uint32_t tmpreg = 0, subsecondtmpreg = 0;
 787:Drivers/STM32F7xx_HAL_Driver/Src/stm32f7xx_hal_rtc.c ****   
 788:Drivers/STM32F7xx_HAL_Driver/Src/stm32f7xx_hal_rtc.c ****   /* Check the parameters */
 789:Drivers/STM32F7xx_HAL_Driver/Src/stm32f7xx_hal_rtc.c ****   assert_param(IS_RTC_FORMAT(Format));
 790:Drivers/STM32F7xx_HAL_Driver/Src/stm32f7xx_hal_rtc.c ****   assert_param(IS_RTC_ALARM(sAlarm->Alarm));
 791:Drivers/STM32F7xx_HAL_Driver/Src/stm32f7xx_hal_rtc.c ****   assert_param(IS_RTC_ALARM_MASK(sAlarm->AlarmMask));
 792:Drivers/STM32F7xx_HAL_Driver/Src/stm32f7xx_hal_rtc.c ****   assert_param(IS_RTC_ALARM_DATE_WEEKDAY_SEL(sAlarm->AlarmDateWeekDaySel));
 793:Drivers/STM32F7xx_HAL_Driver/Src/stm32f7xx_hal_rtc.c ****   assert_param(IS_RTC_ALARM_SUB_SECOND_VALUE(sAlarm->AlarmTime.SubSeconds));
ARM GAS  C:\Users\Student\AppData\Local\Temp\ccDKlFGt.s 			page 16


 794:Drivers/STM32F7xx_HAL_Driver/Src/stm32f7xx_hal_rtc.c ****   assert_param(IS_RTC_ALARM_SUB_SECOND_MASK(sAlarm->AlarmSubSecondMask));
 795:Drivers/STM32F7xx_HAL_Driver/Src/stm32f7xx_hal_rtc.c ****   
 796:Drivers/STM32F7xx_HAL_Driver/Src/stm32f7xx_hal_rtc.c ****   /* Process Locked */ 
 797:Drivers/STM32F7xx_HAL_Driver/Src/stm32f7xx_hal_rtc.c ****   __HAL_LOCK(hrtc);
 798:Drivers/STM32F7xx_HAL_Driver/Src/stm32f7xx_hal_rtc.c ****   
 799:Drivers/STM32F7xx_HAL_Driver/Src/stm32f7xx_hal_rtc.c ****   hrtc->State = HAL_RTC_STATE_BUSY;
 800:Drivers/STM32F7xx_HAL_Driver/Src/stm32f7xx_hal_rtc.c ****   
 801:Drivers/STM32F7xx_HAL_Driver/Src/stm32f7xx_hal_rtc.c ****   if(Format == RTC_FORMAT_BIN)
 802:Drivers/STM32F7xx_HAL_Driver/Src/stm32f7xx_hal_rtc.c ****   {
 803:Drivers/STM32F7xx_HAL_Driver/Src/stm32f7xx_hal_rtc.c ****     if((hrtc->Instance->CR & RTC_CR_FMT) != (uint32_t)RESET)
 804:Drivers/STM32F7xx_HAL_Driver/Src/stm32f7xx_hal_rtc.c ****     {
 805:Drivers/STM32F7xx_HAL_Driver/Src/stm32f7xx_hal_rtc.c ****       assert_param(IS_RTC_HOUR12(sAlarm->AlarmTime.Hours));
 806:Drivers/STM32F7xx_HAL_Driver/Src/stm32f7xx_hal_rtc.c ****       assert_param(IS_RTC_HOURFORMAT12(sAlarm->AlarmTime.TimeFormat));
 807:Drivers/STM32F7xx_HAL_Driver/Src/stm32f7xx_hal_rtc.c ****     } 
 808:Drivers/STM32F7xx_HAL_Driver/Src/stm32f7xx_hal_rtc.c ****     else
 809:Drivers/STM32F7xx_HAL_Driver/Src/stm32f7xx_hal_rtc.c ****     {
 810:Drivers/STM32F7xx_HAL_Driver/Src/stm32f7xx_hal_rtc.c ****       sAlarm->AlarmTime.TimeFormat = 0x00;
 811:Drivers/STM32F7xx_HAL_Driver/Src/stm32f7xx_hal_rtc.c ****       assert_param(IS_RTC_HOUR24(sAlarm->AlarmTime.Hours));
 812:Drivers/STM32F7xx_HAL_Driver/Src/stm32f7xx_hal_rtc.c ****     }
 813:Drivers/STM32F7xx_HAL_Driver/Src/stm32f7xx_hal_rtc.c ****     assert_param(IS_RTC_MINUTES(sAlarm->AlarmTime.Minutes));
 814:Drivers/STM32F7xx_HAL_Driver/Src/stm32f7xx_hal_rtc.c ****     assert_param(IS_RTC_SECONDS(sAlarm->AlarmTime.Seconds));
 815:Drivers/STM32F7xx_HAL_Driver/Src/stm32f7xx_hal_rtc.c ****     
 816:Drivers/STM32F7xx_HAL_Driver/Src/stm32f7xx_hal_rtc.c ****     if(sAlarm->AlarmDateWeekDaySel == RTC_ALARMDATEWEEKDAYSEL_DATE)
 817:Drivers/STM32F7xx_HAL_Driver/Src/stm32f7xx_hal_rtc.c ****     {
 818:Drivers/STM32F7xx_HAL_Driver/Src/stm32f7xx_hal_rtc.c ****       assert_param(IS_RTC_ALARM_DATE_WEEKDAY_DATE(sAlarm->AlarmDateWeekDay));
 819:Drivers/STM32F7xx_HAL_Driver/Src/stm32f7xx_hal_rtc.c ****     }
 820:Drivers/STM32F7xx_HAL_Driver/Src/stm32f7xx_hal_rtc.c ****     else
 821:Drivers/STM32F7xx_HAL_Driver/Src/stm32f7xx_hal_rtc.c ****     {
 822:Drivers/STM32F7xx_HAL_Driver/Src/stm32f7xx_hal_rtc.c ****       assert_param(IS_RTC_ALARM_DATE_WEEKDAY_WEEKDAY(sAlarm->AlarmDateWeekDay));
 823:Drivers/STM32F7xx_HAL_Driver/Src/stm32f7xx_hal_rtc.c ****     }
 824:Drivers/STM32F7xx_HAL_Driver/Src/stm32f7xx_hal_rtc.c ****     
 825:Drivers/STM32F7xx_HAL_Driver/Src/stm32f7xx_hal_rtc.c ****     tmpreg = (((uint32_t)RTC_ByteToBcd2(sAlarm->AlarmTime.Hours) << 16) | \
 826:Drivers/STM32F7xx_HAL_Driver/Src/stm32f7xx_hal_rtc.c ****               ((uint32_t)RTC_ByteToBcd2(sAlarm->AlarmTime.Minutes) << 8) | \
 827:Drivers/STM32F7xx_HAL_Driver/Src/stm32f7xx_hal_rtc.c ****               ((uint32_t)RTC_ByteToBcd2(sAlarm->AlarmTime.Seconds)) | \
 828:Drivers/STM32F7xx_HAL_Driver/Src/stm32f7xx_hal_rtc.c ****               ((uint32_t)(sAlarm->AlarmTime.TimeFormat) << 16) | \
 829:Drivers/STM32F7xx_HAL_Driver/Src/stm32f7xx_hal_rtc.c ****               ((uint32_t)RTC_ByteToBcd2(sAlarm->AlarmDateWeekDay) << 24) | \
 830:Drivers/STM32F7xx_HAL_Driver/Src/stm32f7xx_hal_rtc.c ****               ((uint32_t)sAlarm->AlarmDateWeekDaySel) | \
 831:Drivers/STM32F7xx_HAL_Driver/Src/stm32f7xx_hal_rtc.c ****               ((uint32_t)sAlarm->AlarmMask)); 
 832:Drivers/STM32F7xx_HAL_Driver/Src/stm32f7xx_hal_rtc.c ****   }
 833:Drivers/STM32F7xx_HAL_Driver/Src/stm32f7xx_hal_rtc.c ****   else
 834:Drivers/STM32F7xx_HAL_Driver/Src/stm32f7xx_hal_rtc.c ****   {
 835:Drivers/STM32F7xx_HAL_Driver/Src/stm32f7xx_hal_rtc.c ****     if((hrtc->Instance->CR & RTC_CR_FMT) != (uint32_t)RESET)
 836:Drivers/STM32F7xx_HAL_Driver/Src/stm32f7xx_hal_rtc.c ****     {
 837:Drivers/STM32F7xx_HAL_Driver/Src/stm32f7xx_hal_rtc.c ****       tmpreg = RTC_Bcd2ToByte(sAlarm->AlarmTime.Hours);
 838:Drivers/STM32F7xx_HAL_Driver/Src/stm32f7xx_hal_rtc.c ****       assert_param(IS_RTC_HOUR12(tmpreg));
 839:Drivers/STM32F7xx_HAL_Driver/Src/stm32f7xx_hal_rtc.c ****       assert_param(IS_RTC_HOURFORMAT12(sAlarm->AlarmTime.TimeFormat));
 840:Drivers/STM32F7xx_HAL_Driver/Src/stm32f7xx_hal_rtc.c ****     } 
 841:Drivers/STM32F7xx_HAL_Driver/Src/stm32f7xx_hal_rtc.c ****     else
 842:Drivers/STM32F7xx_HAL_Driver/Src/stm32f7xx_hal_rtc.c ****     {
 843:Drivers/STM32F7xx_HAL_Driver/Src/stm32f7xx_hal_rtc.c ****       sAlarm->AlarmTime.TimeFormat = 0x00;
 844:Drivers/STM32F7xx_HAL_Driver/Src/stm32f7xx_hal_rtc.c ****       assert_param(IS_RTC_HOUR24(RTC_Bcd2ToByte(sAlarm->AlarmTime.Hours)));
 845:Drivers/STM32F7xx_HAL_Driver/Src/stm32f7xx_hal_rtc.c ****     }
 846:Drivers/STM32F7xx_HAL_Driver/Src/stm32f7xx_hal_rtc.c ****     
 847:Drivers/STM32F7xx_HAL_Driver/Src/stm32f7xx_hal_rtc.c ****     assert_param(IS_RTC_MINUTES(RTC_Bcd2ToByte(sAlarm->AlarmTime.Minutes)));
 848:Drivers/STM32F7xx_HAL_Driver/Src/stm32f7xx_hal_rtc.c ****     assert_param(IS_RTC_SECONDS(RTC_Bcd2ToByte(sAlarm->AlarmTime.Seconds)));
 849:Drivers/STM32F7xx_HAL_Driver/Src/stm32f7xx_hal_rtc.c ****     
 850:Drivers/STM32F7xx_HAL_Driver/Src/stm32f7xx_hal_rtc.c ****     if(sAlarm->AlarmDateWeekDaySel == RTC_ALARMDATEWEEKDAYSEL_DATE)
ARM GAS  C:\Users\Student\AppData\Local\Temp\ccDKlFGt.s 			page 17


 851:Drivers/STM32F7xx_HAL_Driver/Src/stm32f7xx_hal_rtc.c ****     {
 852:Drivers/STM32F7xx_HAL_Driver/Src/stm32f7xx_hal_rtc.c ****       tmpreg = RTC_Bcd2ToByte(sAlarm->AlarmDateWeekDay);
 853:Drivers/STM32F7xx_HAL_Driver/Src/stm32f7xx_hal_rtc.c ****       assert_param(IS_RTC_ALARM_DATE_WEEKDAY_DATE(tmpreg));    
 854:Drivers/STM32F7xx_HAL_Driver/Src/stm32f7xx_hal_rtc.c ****     }
 855:Drivers/STM32F7xx_HAL_Driver/Src/stm32f7xx_hal_rtc.c ****     else
 856:Drivers/STM32F7xx_HAL_Driver/Src/stm32f7xx_hal_rtc.c ****     {
 857:Drivers/STM32F7xx_HAL_Driver/Src/stm32f7xx_hal_rtc.c ****       tmpreg = RTC_Bcd2ToByte(sAlarm->AlarmDateWeekDay);
 858:Drivers/STM32F7xx_HAL_Driver/Src/stm32f7xx_hal_rtc.c ****       assert_param(IS_RTC_ALARM_DATE_WEEKDAY_WEEKDAY(tmpreg));      
 859:Drivers/STM32F7xx_HAL_Driver/Src/stm32f7xx_hal_rtc.c ****     }  
 860:Drivers/STM32F7xx_HAL_Driver/Src/stm32f7xx_hal_rtc.c ****     
 861:Drivers/STM32F7xx_HAL_Driver/Src/stm32f7xx_hal_rtc.c ****     tmpreg = (((uint32_t)(sAlarm->AlarmTime.Hours) << 16) | \
 862:Drivers/STM32F7xx_HAL_Driver/Src/stm32f7xx_hal_rtc.c ****               ((uint32_t)(sAlarm->AlarmTime.Minutes) << 8) | \
 863:Drivers/STM32F7xx_HAL_Driver/Src/stm32f7xx_hal_rtc.c ****               ((uint32_t) sAlarm->AlarmTime.Seconds) | \
 864:Drivers/STM32F7xx_HAL_Driver/Src/stm32f7xx_hal_rtc.c ****               ((uint32_t)(sAlarm->AlarmTime.TimeFormat) << 16) | \
 865:Drivers/STM32F7xx_HAL_Driver/Src/stm32f7xx_hal_rtc.c ****               ((uint32_t)(sAlarm->AlarmDateWeekDay) << 24) | \
 866:Drivers/STM32F7xx_HAL_Driver/Src/stm32f7xx_hal_rtc.c ****               ((uint32_t)sAlarm->AlarmDateWeekDaySel) | \
 867:Drivers/STM32F7xx_HAL_Driver/Src/stm32f7xx_hal_rtc.c ****               ((uint32_t)sAlarm->AlarmMask));   
 868:Drivers/STM32F7xx_HAL_Driver/Src/stm32f7xx_hal_rtc.c ****   }
 869:Drivers/STM32F7xx_HAL_Driver/Src/stm32f7xx_hal_rtc.c ****   
 870:Drivers/STM32F7xx_HAL_Driver/Src/stm32f7xx_hal_rtc.c ****   /* Configure the Alarm A or Alarm B Sub Second registers */
 871:Drivers/STM32F7xx_HAL_Driver/Src/stm32f7xx_hal_rtc.c ****   subsecondtmpreg = (uint32_t)((uint32_t)(sAlarm->AlarmTime.SubSeconds) | (uint32_t)(sAlarm->AlarmS
 872:Drivers/STM32F7xx_HAL_Driver/Src/stm32f7xx_hal_rtc.c ****   
 873:Drivers/STM32F7xx_HAL_Driver/Src/stm32f7xx_hal_rtc.c ****   /* Disable the write protection for RTC registers */
 874:Drivers/STM32F7xx_HAL_Driver/Src/stm32f7xx_hal_rtc.c ****   __HAL_RTC_WRITEPROTECTION_DISABLE(hrtc);
 875:Drivers/STM32F7xx_HAL_Driver/Src/stm32f7xx_hal_rtc.c **** 
 876:Drivers/STM32F7xx_HAL_Driver/Src/stm32f7xx_hal_rtc.c ****   /* Configure the Alarm register */
 877:Drivers/STM32F7xx_HAL_Driver/Src/stm32f7xx_hal_rtc.c ****   if(sAlarm->Alarm == RTC_ALARM_A)
 878:Drivers/STM32F7xx_HAL_Driver/Src/stm32f7xx_hal_rtc.c ****   {
 879:Drivers/STM32F7xx_HAL_Driver/Src/stm32f7xx_hal_rtc.c ****     /* Disable the Alarm A interrupt */
 880:Drivers/STM32F7xx_HAL_Driver/Src/stm32f7xx_hal_rtc.c ****     __HAL_RTC_ALARMA_DISABLE(hrtc);
 881:Drivers/STM32F7xx_HAL_Driver/Src/stm32f7xx_hal_rtc.c ****     
 882:Drivers/STM32F7xx_HAL_Driver/Src/stm32f7xx_hal_rtc.c ****     /* In case of interrupt mode is used, the interrupt source must disabled */ 
 883:Drivers/STM32F7xx_HAL_Driver/Src/stm32f7xx_hal_rtc.c ****     __HAL_RTC_ALARM_DISABLE_IT(hrtc, RTC_IT_ALRA);
 884:Drivers/STM32F7xx_HAL_Driver/Src/stm32f7xx_hal_rtc.c **** 
 885:Drivers/STM32F7xx_HAL_Driver/Src/stm32f7xx_hal_rtc.c ****     /* Get tick */
 886:Drivers/STM32F7xx_HAL_Driver/Src/stm32f7xx_hal_rtc.c ****     tickstart = HAL_GetTick();
 887:Drivers/STM32F7xx_HAL_Driver/Src/stm32f7xx_hal_rtc.c **** 
 888:Drivers/STM32F7xx_HAL_Driver/Src/stm32f7xx_hal_rtc.c ****     /* Wait till RTC ALRAWF flag is set and if Time out is reached exit */
 889:Drivers/STM32F7xx_HAL_Driver/Src/stm32f7xx_hal_rtc.c ****     while(__HAL_RTC_ALARM_GET_FLAG(hrtc, RTC_FLAG_ALRAWF) == RESET)
 890:Drivers/STM32F7xx_HAL_Driver/Src/stm32f7xx_hal_rtc.c ****     {
 891:Drivers/STM32F7xx_HAL_Driver/Src/stm32f7xx_hal_rtc.c ****       if((HAL_GetTick() - tickstart ) > RTC_TIMEOUT_VALUE)
 892:Drivers/STM32F7xx_HAL_Driver/Src/stm32f7xx_hal_rtc.c ****       {
 893:Drivers/STM32F7xx_HAL_Driver/Src/stm32f7xx_hal_rtc.c ****         /* Enable the write protection for RTC registers */
 894:Drivers/STM32F7xx_HAL_Driver/Src/stm32f7xx_hal_rtc.c ****         __HAL_RTC_WRITEPROTECTION_ENABLE(hrtc);
 895:Drivers/STM32F7xx_HAL_Driver/Src/stm32f7xx_hal_rtc.c ****         
 896:Drivers/STM32F7xx_HAL_Driver/Src/stm32f7xx_hal_rtc.c ****         hrtc->State = HAL_RTC_STATE_TIMEOUT; 
 897:Drivers/STM32F7xx_HAL_Driver/Src/stm32f7xx_hal_rtc.c ****         
 898:Drivers/STM32F7xx_HAL_Driver/Src/stm32f7xx_hal_rtc.c ****         /* Process Unlocked */ 
 899:Drivers/STM32F7xx_HAL_Driver/Src/stm32f7xx_hal_rtc.c ****         __HAL_UNLOCK(hrtc);
 900:Drivers/STM32F7xx_HAL_Driver/Src/stm32f7xx_hal_rtc.c ****         
 901:Drivers/STM32F7xx_HAL_Driver/Src/stm32f7xx_hal_rtc.c ****         return HAL_TIMEOUT;
 902:Drivers/STM32F7xx_HAL_Driver/Src/stm32f7xx_hal_rtc.c ****       }   
 903:Drivers/STM32F7xx_HAL_Driver/Src/stm32f7xx_hal_rtc.c ****     }
 904:Drivers/STM32F7xx_HAL_Driver/Src/stm32f7xx_hal_rtc.c ****     
 905:Drivers/STM32F7xx_HAL_Driver/Src/stm32f7xx_hal_rtc.c ****     hrtc->Instance->ALRMAR = (uint32_t)tmpreg;
 906:Drivers/STM32F7xx_HAL_Driver/Src/stm32f7xx_hal_rtc.c ****     /* Configure the Alarm A Sub Second register */
 907:Drivers/STM32F7xx_HAL_Driver/Src/stm32f7xx_hal_rtc.c ****     hrtc->Instance->ALRMASSR = subsecondtmpreg;
ARM GAS  C:\Users\Student\AppData\Local\Temp\ccDKlFGt.s 			page 18


 908:Drivers/STM32F7xx_HAL_Driver/Src/stm32f7xx_hal_rtc.c ****     /* Configure the Alarm state: Enable Alarm */
 909:Drivers/STM32F7xx_HAL_Driver/Src/stm32f7xx_hal_rtc.c ****     __HAL_RTC_ALARMA_ENABLE(hrtc);
 910:Drivers/STM32F7xx_HAL_Driver/Src/stm32f7xx_hal_rtc.c ****   }
 911:Drivers/STM32F7xx_HAL_Driver/Src/stm32f7xx_hal_rtc.c ****   else
 912:Drivers/STM32F7xx_HAL_Driver/Src/stm32f7xx_hal_rtc.c ****   {
 913:Drivers/STM32F7xx_HAL_Driver/Src/stm32f7xx_hal_rtc.c ****     /* Disable the Alarm B interrupt */
 914:Drivers/STM32F7xx_HAL_Driver/Src/stm32f7xx_hal_rtc.c ****     __HAL_RTC_ALARMB_DISABLE(hrtc);
 915:Drivers/STM32F7xx_HAL_Driver/Src/stm32f7xx_hal_rtc.c ****     
 916:Drivers/STM32F7xx_HAL_Driver/Src/stm32f7xx_hal_rtc.c ****     /* In case of interrupt mode is used, the interrupt source must disabled */ 
 917:Drivers/STM32F7xx_HAL_Driver/Src/stm32f7xx_hal_rtc.c ****     __HAL_RTC_ALARM_DISABLE_IT(hrtc, RTC_IT_ALRB);
 918:Drivers/STM32F7xx_HAL_Driver/Src/stm32f7xx_hal_rtc.c **** 
 919:Drivers/STM32F7xx_HAL_Driver/Src/stm32f7xx_hal_rtc.c ****     /* Get tick */
 920:Drivers/STM32F7xx_HAL_Driver/Src/stm32f7xx_hal_rtc.c ****     tickstart = HAL_GetTick();
 921:Drivers/STM32F7xx_HAL_Driver/Src/stm32f7xx_hal_rtc.c **** 
 922:Drivers/STM32F7xx_HAL_Driver/Src/stm32f7xx_hal_rtc.c ****     /* Wait till RTC ALRBWF flag is set and if Time out is reached exit */
 923:Drivers/STM32F7xx_HAL_Driver/Src/stm32f7xx_hal_rtc.c ****     while(__HAL_RTC_ALARM_GET_FLAG(hrtc, RTC_FLAG_ALRBWF) == RESET)
 924:Drivers/STM32F7xx_HAL_Driver/Src/stm32f7xx_hal_rtc.c ****     {
 925:Drivers/STM32F7xx_HAL_Driver/Src/stm32f7xx_hal_rtc.c ****       if((HAL_GetTick() - tickstart ) > RTC_TIMEOUT_VALUE)
 926:Drivers/STM32F7xx_HAL_Driver/Src/stm32f7xx_hal_rtc.c ****       {
 927:Drivers/STM32F7xx_HAL_Driver/Src/stm32f7xx_hal_rtc.c ****         /* Enable the write protection for RTC registers */
 928:Drivers/STM32F7xx_HAL_Driver/Src/stm32f7xx_hal_rtc.c ****         __HAL_RTC_WRITEPROTECTION_ENABLE(hrtc);
 929:Drivers/STM32F7xx_HAL_Driver/Src/stm32f7xx_hal_rtc.c ****         
 930:Drivers/STM32F7xx_HAL_Driver/Src/stm32f7xx_hal_rtc.c ****         hrtc->State = HAL_RTC_STATE_TIMEOUT; 
 931:Drivers/STM32F7xx_HAL_Driver/Src/stm32f7xx_hal_rtc.c ****         
 932:Drivers/STM32F7xx_HAL_Driver/Src/stm32f7xx_hal_rtc.c ****         /* Process Unlocked */ 
 933:Drivers/STM32F7xx_HAL_Driver/Src/stm32f7xx_hal_rtc.c ****         __HAL_UNLOCK(hrtc);
 934:Drivers/STM32F7xx_HAL_Driver/Src/stm32f7xx_hal_rtc.c ****         
 935:Drivers/STM32F7xx_HAL_Driver/Src/stm32f7xx_hal_rtc.c ****         return HAL_TIMEOUT;
 936:Drivers/STM32F7xx_HAL_Driver/Src/stm32f7xx_hal_rtc.c ****       }  
 937:Drivers/STM32F7xx_HAL_Driver/Src/stm32f7xx_hal_rtc.c ****     }    
 938:Drivers/STM32F7xx_HAL_Driver/Src/stm32f7xx_hal_rtc.c ****     
 939:Drivers/STM32F7xx_HAL_Driver/Src/stm32f7xx_hal_rtc.c ****     hrtc->Instance->ALRMBR = (uint32_t)tmpreg;
 940:Drivers/STM32F7xx_HAL_Driver/Src/stm32f7xx_hal_rtc.c ****     /* Configure the Alarm B Sub Second register */
 941:Drivers/STM32F7xx_HAL_Driver/Src/stm32f7xx_hal_rtc.c ****     hrtc->Instance->ALRMBSSR = subsecondtmpreg;
 942:Drivers/STM32F7xx_HAL_Driver/Src/stm32f7xx_hal_rtc.c ****     /* Configure the Alarm state: Enable Alarm */
 943:Drivers/STM32F7xx_HAL_Driver/Src/stm32f7xx_hal_rtc.c ****     __HAL_RTC_ALARMB_ENABLE(hrtc); 
 944:Drivers/STM32F7xx_HAL_Driver/Src/stm32f7xx_hal_rtc.c ****   }
 945:Drivers/STM32F7xx_HAL_Driver/Src/stm32f7xx_hal_rtc.c ****   
 946:Drivers/STM32F7xx_HAL_Driver/Src/stm32f7xx_hal_rtc.c ****   /* Enable the write protection for RTC registers */
 947:Drivers/STM32F7xx_HAL_Driver/Src/stm32f7xx_hal_rtc.c ****   __HAL_RTC_WRITEPROTECTION_ENABLE(hrtc);   
 948:Drivers/STM32F7xx_HAL_Driver/Src/stm32f7xx_hal_rtc.c ****   
 949:Drivers/STM32F7xx_HAL_Driver/Src/stm32f7xx_hal_rtc.c ****   /* Change RTC state */
 950:Drivers/STM32F7xx_HAL_Driver/Src/stm32f7xx_hal_rtc.c ****   hrtc->State = HAL_RTC_STATE_READY; 
 951:Drivers/STM32F7xx_HAL_Driver/Src/stm32f7xx_hal_rtc.c ****   
 952:Drivers/STM32F7xx_HAL_Driver/Src/stm32f7xx_hal_rtc.c ****   /* Process Unlocked */ 
 953:Drivers/STM32F7xx_HAL_Driver/Src/stm32f7xx_hal_rtc.c ****   __HAL_UNLOCK(hrtc);
 954:Drivers/STM32F7xx_HAL_Driver/Src/stm32f7xx_hal_rtc.c ****   
 955:Drivers/STM32F7xx_HAL_Driver/Src/stm32f7xx_hal_rtc.c ****   return HAL_OK;
 956:Drivers/STM32F7xx_HAL_Driver/Src/stm32f7xx_hal_rtc.c **** }
 957:Drivers/STM32F7xx_HAL_Driver/Src/stm32f7xx_hal_rtc.c **** 
 958:Drivers/STM32F7xx_HAL_Driver/Src/stm32f7xx_hal_rtc.c **** /**
 959:Drivers/STM32F7xx_HAL_Driver/Src/stm32f7xx_hal_rtc.c ****   * @brief  Sets the specified RTC Alarm with Interrupt 
 960:Drivers/STM32F7xx_HAL_Driver/Src/stm32f7xx_hal_rtc.c ****   * @param  hrtc pointer to a RTC_HandleTypeDef structure that contains
 961:Drivers/STM32F7xx_HAL_Driver/Src/stm32f7xx_hal_rtc.c ****   *                the configuration information for RTC.
 962:Drivers/STM32F7xx_HAL_Driver/Src/stm32f7xx_hal_rtc.c ****   * @param  sAlarm Pointer to Alarm structure
 963:Drivers/STM32F7xx_HAL_Driver/Src/stm32f7xx_hal_rtc.c ****   * @param  Format Specifies the format of the entered parameters.
 964:Drivers/STM32F7xx_HAL_Driver/Src/stm32f7xx_hal_rtc.c ****   *          This parameter can be one of the following values:
ARM GAS  C:\Users\Student\AppData\Local\Temp\ccDKlFGt.s 			page 19


 965:Drivers/STM32F7xx_HAL_Driver/Src/stm32f7xx_hal_rtc.c ****   *             @arg FORMAT_BIN: Binary data format 
 966:Drivers/STM32F7xx_HAL_Driver/Src/stm32f7xx_hal_rtc.c ****   *             @arg FORMAT_BCD: BCD data format
 967:Drivers/STM32F7xx_HAL_Driver/Src/stm32f7xx_hal_rtc.c ****   * @note   The Alarm register can only be written when the corresponding Alarm
 968:Drivers/STM32F7xx_HAL_Driver/Src/stm32f7xx_hal_rtc.c ****   *         is disabled (Use the HAL_RTC_DeactivateAlarm()).   
 969:Drivers/STM32F7xx_HAL_Driver/Src/stm32f7xx_hal_rtc.c ****   * @note   The HAL_RTC_SetTime() must be called before enabling the Alarm feature.   
 970:Drivers/STM32F7xx_HAL_Driver/Src/stm32f7xx_hal_rtc.c ****   * @retval HAL status
 971:Drivers/STM32F7xx_HAL_Driver/Src/stm32f7xx_hal_rtc.c ****   */
 972:Drivers/STM32F7xx_HAL_Driver/Src/stm32f7xx_hal_rtc.c **** HAL_StatusTypeDef HAL_RTC_SetAlarm_IT(RTC_HandleTypeDef *hrtc, RTC_AlarmTypeDef *sAlarm, uint32_t F
 973:Drivers/STM32F7xx_HAL_Driver/Src/stm32f7xx_hal_rtc.c **** {
 974:Drivers/STM32F7xx_HAL_Driver/Src/stm32f7xx_hal_rtc.c ****   uint32_t tmpreg = 0U, subsecondtmpreg = 0U;
 975:Drivers/STM32F7xx_HAL_Driver/Src/stm32f7xx_hal_rtc.c ****   __IO uint32_t count = RTC_TIMEOUT_VALUE  * (SystemCoreClock / 32U / 1000U) ;
 976:Drivers/STM32F7xx_HAL_Driver/Src/stm32f7xx_hal_rtc.c ****   
 977:Drivers/STM32F7xx_HAL_Driver/Src/stm32f7xx_hal_rtc.c ****   /* Check the parameters */
 978:Drivers/STM32F7xx_HAL_Driver/Src/stm32f7xx_hal_rtc.c ****   assert_param(IS_RTC_FORMAT(Format));
 979:Drivers/STM32F7xx_HAL_Driver/Src/stm32f7xx_hal_rtc.c ****   assert_param(IS_RTC_ALARM(sAlarm->Alarm));
 980:Drivers/STM32F7xx_HAL_Driver/Src/stm32f7xx_hal_rtc.c ****   assert_param(IS_RTC_ALARM_MASK(sAlarm->AlarmMask));
 981:Drivers/STM32F7xx_HAL_Driver/Src/stm32f7xx_hal_rtc.c ****   assert_param(IS_RTC_ALARM_DATE_WEEKDAY_SEL(sAlarm->AlarmDateWeekDaySel));
 982:Drivers/STM32F7xx_HAL_Driver/Src/stm32f7xx_hal_rtc.c ****   assert_param(IS_RTC_ALARM_SUB_SECOND_VALUE(sAlarm->AlarmTime.SubSeconds));
 983:Drivers/STM32F7xx_HAL_Driver/Src/stm32f7xx_hal_rtc.c ****   assert_param(IS_RTC_ALARM_SUB_SECOND_MASK(sAlarm->AlarmSubSecondMask));
 984:Drivers/STM32F7xx_HAL_Driver/Src/stm32f7xx_hal_rtc.c ****       
 985:Drivers/STM32F7xx_HAL_Driver/Src/stm32f7xx_hal_rtc.c ****   /* Process Locked */ 
 986:Drivers/STM32F7xx_HAL_Driver/Src/stm32f7xx_hal_rtc.c ****   __HAL_LOCK(hrtc);
 987:Drivers/STM32F7xx_HAL_Driver/Src/stm32f7xx_hal_rtc.c ****   
 988:Drivers/STM32F7xx_HAL_Driver/Src/stm32f7xx_hal_rtc.c ****   hrtc->State = HAL_RTC_STATE_BUSY;
 989:Drivers/STM32F7xx_HAL_Driver/Src/stm32f7xx_hal_rtc.c ****   
 990:Drivers/STM32F7xx_HAL_Driver/Src/stm32f7xx_hal_rtc.c ****   if(Format == RTC_FORMAT_BIN)
 991:Drivers/STM32F7xx_HAL_Driver/Src/stm32f7xx_hal_rtc.c ****   {
 992:Drivers/STM32F7xx_HAL_Driver/Src/stm32f7xx_hal_rtc.c ****     if((hrtc->Instance->CR & RTC_CR_FMT) != (uint32_t)RESET)
 993:Drivers/STM32F7xx_HAL_Driver/Src/stm32f7xx_hal_rtc.c ****     {
 994:Drivers/STM32F7xx_HAL_Driver/Src/stm32f7xx_hal_rtc.c ****       assert_param(IS_RTC_HOUR12(sAlarm->AlarmTime.Hours));
 995:Drivers/STM32F7xx_HAL_Driver/Src/stm32f7xx_hal_rtc.c ****       assert_param(IS_RTC_HOURFORMAT12(sAlarm->AlarmTime.TimeFormat));
 996:Drivers/STM32F7xx_HAL_Driver/Src/stm32f7xx_hal_rtc.c ****     } 
 997:Drivers/STM32F7xx_HAL_Driver/Src/stm32f7xx_hal_rtc.c ****     else
 998:Drivers/STM32F7xx_HAL_Driver/Src/stm32f7xx_hal_rtc.c ****     {
 999:Drivers/STM32F7xx_HAL_Driver/Src/stm32f7xx_hal_rtc.c ****       sAlarm->AlarmTime.TimeFormat = 0x00U;
1000:Drivers/STM32F7xx_HAL_Driver/Src/stm32f7xx_hal_rtc.c ****       assert_param(IS_RTC_HOUR24(sAlarm->AlarmTime.Hours));
1001:Drivers/STM32F7xx_HAL_Driver/Src/stm32f7xx_hal_rtc.c ****     }
1002:Drivers/STM32F7xx_HAL_Driver/Src/stm32f7xx_hal_rtc.c ****     assert_param(IS_RTC_MINUTES(sAlarm->AlarmTime.Minutes));
1003:Drivers/STM32F7xx_HAL_Driver/Src/stm32f7xx_hal_rtc.c ****     assert_param(IS_RTC_SECONDS(sAlarm->AlarmTime.Seconds));
1004:Drivers/STM32F7xx_HAL_Driver/Src/stm32f7xx_hal_rtc.c ****     
1005:Drivers/STM32F7xx_HAL_Driver/Src/stm32f7xx_hal_rtc.c ****     if(sAlarm->AlarmDateWeekDaySel == RTC_ALARMDATEWEEKDAYSEL_DATE)
1006:Drivers/STM32F7xx_HAL_Driver/Src/stm32f7xx_hal_rtc.c ****     {
1007:Drivers/STM32F7xx_HAL_Driver/Src/stm32f7xx_hal_rtc.c ****       assert_param(IS_RTC_ALARM_DATE_WEEKDAY_DATE(sAlarm->AlarmDateWeekDay));
1008:Drivers/STM32F7xx_HAL_Driver/Src/stm32f7xx_hal_rtc.c ****     }
1009:Drivers/STM32F7xx_HAL_Driver/Src/stm32f7xx_hal_rtc.c ****     else
1010:Drivers/STM32F7xx_HAL_Driver/Src/stm32f7xx_hal_rtc.c ****     {
1011:Drivers/STM32F7xx_HAL_Driver/Src/stm32f7xx_hal_rtc.c ****       assert_param(IS_RTC_ALARM_DATE_WEEKDAY_WEEKDAY(sAlarm->AlarmDateWeekDay));
1012:Drivers/STM32F7xx_HAL_Driver/Src/stm32f7xx_hal_rtc.c ****     }
1013:Drivers/STM32F7xx_HAL_Driver/Src/stm32f7xx_hal_rtc.c ****     tmpreg = (((uint32_t)RTC_ByteToBcd2(sAlarm->AlarmTime.Hours) << 16U) | \
1014:Drivers/STM32F7xx_HAL_Driver/Src/stm32f7xx_hal_rtc.c ****               ((uint32_t)RTC_ByteToBcd2(sAlarm->AlarmTime.Minutes) << 8U) | \
1015:Drivers/STM32F7xx_HAL_Driver/Src/stm32f7xx_hal_rtc.c ****               ((uint32_t)RTC_ByteToBcd2(sAlarm->AlarmTime.Seconds)) | \
1016:Drivers/STM32F7xx_HAL_Driver/Src/stm32f7xx_hal_rtc.c ****               ((uint32_t)(sAlarm->AlarmTime.TimeFormat) << 16U) | \
1017:Drivers/STM32F7xx_HAL_Driver/Src/stm32f7xx_hal_rtc.c ****               ((uint32_t)RTC_ByteToBcd2(sAlarm->AlarmDateWeekDay) << 24U) | \
1018:Drivers/STM32F7xx_HAL_Driver/Src/stm32f7xx_hal_rtc.c ****               ((uint32_t)sAlarm->AlarmDateWeekDaySel) | \
1019:Drivers/STM32F7xx_HAL_Driver/Src/stm32f7xx_hal_rtc.c ****               ((uint32_t)sAlarm->AlarmMask)); 
1020:Drivers/STM32F7xx_HAL_Driver/Src/stm32f7xx_hal_rtc.c ****   }
1021:Drivers/STM32F7xx_HAL_Driver/Src/stm32f7xx_hal_rtc.c ****   else
ARM GAS  C:\Users\Student\AppData\Local\Temp\ccDKlFGt.s 			page 20


1022:Drivers/STM32F7xx_HAL_Driver/Src/stm32f7xx_hal_rtc.c ****   {
1023:Drivers/STM32F7xx_HAL_Driver/Src/stm32f7xx_hal_rtc.c ****     if((hrtc->Instance->CR & RTC_CR_FMT) != (uint32_t)RESET)
1024:Drivers/STM32F7xx_HAL_Driver/Src/stm32f7xx_hal_rtc.c ****     {
1025:Drivers/STM32F7xx_HAL_Driver/Src/stm32f7xx_hal_rtc.c ****       tmpreg = RTC_Bcd2ToByte(sAlarm->AlarmTime.Hours);
1026:Drivers/STM32F7xx_HAL_Driver/Src/stm32f7xx_hal_rtc.c ****       assert_param(IS_RTC_HOUR12(tmpreg));
1027:Drivers/STM32F7xx_HAL_Driver/Src/stm32f7xx_hal_rtc.c ****       assert_param(IS_RTC_HOURFORMAT12(sAlarm->AlarmTime.TimeFormat));
1028:Drivers/STM32F7xx_HAL_Driver/Src/stm32f7xx_hal_rtc.c ****     } 
1029:Drivers/STM32F7xx_HAL_Driver/Src/stm32f7xx_hal_rtc.c ****     else
1030:Drivers/STM32F7xx_HAL_Driver/Src/stm32f7xx_hal_rtc.c ****     {
1031:Drivers/STM32F7xx_HAL_Driver/Src/stm32f7xx_hal_rtc.c ****       sAlarm->AlarmTime.TimeFormat = 0x00U;
1032:Drivers/STM32F7xx_HAL_Driver/Src/stm32f7xx_hal_rtc.c ****       assert_param(IS_RTC_HOUR24(RTC_Bcd2ToByte(sAlarm->AlarmTime.Hours)));
1033:Drivers/STM32F7xx_HAL_Driver/Src/stm32f7xx_hal_rtc.c ****     }
1034:Drivers/STM32F7xx_HAL_Driver/Src/stm32f7xx_hal_rtc.c ****     
1035:Drivers/STM32F7xx_HAL_Driver/Src/stm32f7xx_hal_rtc.c ****     assert_param(IS_RTC_MINUTES(RTC_Bcd2ToByte(sAlarm->AlarmTime.Minutes)));
1036:Drivers/STM32F7xx_HAL_Driver/Src/stm32f7xx_hal_rtc.c ****     assert_param(IS_RTC_SECONDS(RTC_Bcd2ToByte(sAlarm->AlarmTime.Seconds)));
1037:Drivers/STM32F7xx_HAL_Driver/Src/stm32f7xx_hal_rtc.c ****     
1038:Drivers/STM32F7xx_HAL_Driver/Src/stm32f7xx_hal_rtc.c ****     if(sAlarm->AlarmDateWeekDaySel == RTC_ALARMDATEWEEKDAYSEL_DATE)
1039:Drivers/STM32F7xx_HAL_Driver/Src/stm32f7xx_hal_rtc.c ****     {
1040:Drivers/STM32F7xx_HAL_Driver/Src/stm32f7xx_hal_rtc.c ****       tmpreg = RTC_Bcd2ToByte(sAlarm->AlarmDateWeekDay);
1041:Drivers/STM32F7xx_HAL_Driver/Src/stm32f7xx_hal_rtc.c ****       assert_param(IS_RTC_ALARM_DATE_WEEKDAY_DATE(tmpreg));    
1042:Drivers/STM32F7xx_HAL_Driver/Src/stm32f7xx_hal_rtc.c ****     }
1043:Drivers/STM32F7xx_HAL_Driver/Src/stm32f7xx_hal_rtc.c ****     else
1044:Drivers/STM32F7xx_HAL_Driver/Src/stm32f7xx_hal_rtc.c ****     {
1045:Drivers/STM32F7xx_HAL_Driver/Src/stm32f7xx_hal_rtc.c ****       tmpreg = RTC_Bcd2ToByte(sAlarm->AlarmDateWeekDay);
1046:Drivers/STM32F7xx_HAL_Driver/Src/stm32f7xx_hal_rtc.c ****       assert_param(IS_RTC_ALARM_DATE_WEEKDAY_WEEKDAY(tmpreg));      
1047:Drivers/STM32F7xx_HAL_Driver/Src/stm32f7xx_hal_rtc.c ****     }
1048:Drivers/STM32F7xx_HAL_Driver/Src/stm32f7xx_hal_rtc.c ****     tmpreg = (((uint32_t)(sAlarm->AlarmTime.Hours) << 16U) | \
1049:Drivers/STM32F7xx_HAL_Driver/Src/stm32f7xx_hal_rtc.c ****               ((uint32_t)(sAlarm->AlarmTime.Minutes) << 8U) | \
1050:Drivers/STM32F7xx_HAL_Driver/Src/stm32f7xx_hal_rtc.c ****               ((uint32_t) sAlarm->AlarmTime.Seconds) | \
1051:Drivers/STM32F7xx_HAL_Driver/Src/stm32f7xx_hal_rtc.c ****               ((uint32_t)(sAlarm->AlarmTime.TimeFormat) << 16U) | \
1052:Drivers/STM32F7xx_HAL_Driver/Src/stm32f7xx_hal_rtc.c ****               ((uint32_t)(sAlarm->AlarmDateWeekDay) << 24U) | \
1053:Drivers/STM32F7xx_HAL_Driver/Src/stm32f7xx_hal_rtc.c ****               ((uint32_t)sAlarm->AlarmDateWeekDaySel) | \
1054:Drivers/STM32F7xx_HAL_Driver/Src/stm32f7xx_hal_rtc.c ****               ((uint32_t)sAlarm->AlarmMask));     
1055:Drivers/STM32F7xx_HAL_Driver/Src/stm32f7xx_hal_rtc.c ****   }
1056:Drivers/STM32F7xx_HAL_Driver/Src/stm32f7xx_hal_rtc.c ****   /* Configure the Alarm A or Alarm B Sub Second registers */
1057:Drivers/STM32F7xx_HAL_Driver/Src/stm32f7xx_hal_rtc.c ****   subsecondtmpreg = (uint32_t)((uint32_t)(sAlarm->AlarmTime.SubSeconds) | (uint32_t)(sAlarm->AlarmS
1058:Drivers/STM32F7xx_HAL_Driver/Src/stm32f7xx_hal_rtc.c ****   
1059:Drivers/STM32F7xx_HAL_Driver/Src/stm32f7xx_hal_rtc.c ****   /* Disable the write protection for RTC registers */
1060:Drivers/STM32F7xx_HAL_Driver/Src/stm32f7xx_hal_rtc.c ****   __HAL_RTC_WRITEPROTECTION_DISABLE(hrtc);
1061:Drivers/STM32F7xx_HAL_Driver/Src/stm32f7xx_hal_rtc.c ****   
1062:Drivers/STM32F7xx_HAL_Driver/Src/stm32f7xx_hal_rtc.c ****   /* Configure the Alarm register */
1063:Drivers/STM32F7xx_HAL_Driver/Src/stm32f7xx_hal_rtc.c ****   if(sAlarm->Alarm == RTC_ALARM_A)
1064:Drivers/STM32F7xx_HAL_Driver/Src/stm32f7xx_hal_rtc.c ****   {
1065:Drivers/STM32F7xx_HAL_Driver/Src/stm32f7xx_hal_rtc.c ****     /* Disable the Alarm A interrupt */
1066:Drivers/STM32F7xx_HAL_Driver/Src/stm32f7xx_hal_rtc.c ****     __HAL_RTC_ALARMA_DISABLE(hrtc);
1067:Drivers/STM32F7xx_HAL_Driver/Src/stm32f7xx_hal_rtc.c **** 
1068:Drivers/STM32F7xx_HAL_Driver/Src/stm32f7xx_hal_rtc.c ****     /* Clear flag alarm A */
1069:Drivers/STM32F7xx_HAL_Driver/Src/stm32f7xx_hal_rtc.c ****     __HAL_RTC_ALARM_CLEAR_FLAG(hrtc, RTC_FLAG_ALRAF);
1070:Drivers/STM32F7xx_HAL_Driver/Src/stm32f7xx_hal_rtc.c **** 
1071:Drivers/STM32F7xx_HAL_Driver/Src/stm32f7xx_hal_rtc.c ****     /* Wait till RTC ALRAWF flag is set and if Time out is reached exit */
1072:Drivers/STM32F7xx_HAL_Driver/Src/stm32f7xx_hal_rtc.c ****     do
1073:Drivers/STM32F7xx_HAL_Driver/Src/stm32f7xx_hal_rtc.c ****     {
1074:Drivers/STM32F7xx_HAL_Driver/Src/stm32f7xx_hal_rtc.c ****       if (count-- == 0U)
1075:Drivers/STM32F7xx_HAL_Driver/Src/stm32f7xx_hal_rtc.c ****       {
1076:Drivers/STM32F7xx_HAL_Driver/Src/stm32f7xx_hal_rtc.c ****         /* Enable the write protection for RTC registers */
1077:Drivers/STM32F7xx_HAL_Driver/Src/stm32f7xx_hal_rtc.c ****         __HAL_RTC_WRITEPROTECTION_ENABLE(hrtc);
1078:Drivers/STM32F7xx_HAL_Driver/Src/stm32f7xx_hal_rtc.c **** 
ARM GAS  C:\Users\Student\AppData\Local\Temp\ccDKlFGt.s 			page 21


1079:Drivers/STM32F7xx_HAL_Driver/Src/stm32f7xx_hal_rtc.c ****         hrtc->State = HAL_RTC_STATE_TIMEOUT;
1080:Drivers/STM32F7xx_HAL_Driver/Src/stm32f7xx_hal_rtc.c **** 
1081:Drivers/STM32F7xx_HAL_Driver/Src/stm32f7xx_hal_rtc.c ****         /* Process Unlocked */
1082:Drivers/STM32F7xx_HAL_Driver/Src/stm32f7xx_hal_rtc.c ****         __HAL_UNLOCK(hrtc);
1083:Drivers/STM32F7xx_HAL_Driver/Src/stm32f7xx_hal_rtc.c **** 
1084:Drivers/STM32F7xx_HAL_Driver/Src/stm32f7xx_hal_rtc.c ****         return HAL_TIMEOUT;
1085:Drivers/STM32F7xx_HAL_Driver/Src/stm32f7xx_hal_rtc.c ****       }
1086:Drivers/STM32F7xx_HAL_Driver/Src/stm32f7xx_hal_rtc.c ****     } 
1087:Drivers/STM32F7xx_HAL_Driver/Src/stm32f7xx_hal_rtc.c ****     while (__HAL_RTC_ALARM_GET_FLAG(hrtc, RTC_FLAG_ALRAWF) == RESET);
1088:Drivers/STM32F7xx_HAL_Driver/Src/stm32f7xx_hal_rtc.c **** 
1089:Drivers/STM32F7xx_HAL_Driver/Src/stm32f7xx_hal_rtc.c ****     hrtc->Instance->ALRMAR = (uint32_t)tmpreg;
1090:Drivers/STM32F7xx_HAL_Driver/Src/stm32f7xx_hal_rtc.c ****     /* Configure the Alarm A Sub Second register */
1091:Drivers/STM32F7xx_HAL_Driver/Src/stm32f7xx_hal_rtc.c ****     hrtc->Instance->ALRMASSR = subsecondtmpreg;
1092:Drivers/STM32F7xx_HAL_Driver/Src/stm32f7xx_hal_rtc.c ****     /* Configure the Alarm state: Enable Alarm */
1093:Drivers/STM32F7xx_HAL_Driver/Src/stm32f7xx_hal_rtc.c ****     __HAL_RTC_ALARMA_ENABLE(hrtc);
1094:Drivers/STM32F7xx_HAL_Driver/Src/stm32f7xx_hal_rtc.c ****     /* Configure the Alarm interrupt */
1095:Drivers/STM32F7xx_HAL_Driver/Src/stm32f7xx_hal_rtc.c ****     __HAL_RTC_ALARM_ENABLE_IT(hrtc,RTC_IT_ALRA);
1096:Drivers/STM32F7xx_HAL_Driver/Src/stm32f7xx_hal_rtc.c ****   }
1097:Drivers/STM32F7xx_HAL_Driver/Src/stm32f7xx_hal_rtc.c ****   else
1098:Drivers/STM32F7xx_HAL_Driver/Src/stm32f7xx_hal_rtc.c ****   {
1099:Drivers/STM32F7xx_HAL_Driver/Src/stm32f7xx_hal_rtc.c ****     /* Disable the Alarm B interrupt */
1100:Drivers/STM32F7xx_HAL_Driver/Src/stm32f7xx_hal_rtc.c ****     __HAL_RTC_ALARMB_DISABLE(hrtc);
1101:Drivers/STM32F7xx_HAL_Driver/Src/stm32f7xx_hal_rtc.c **** 
1102:Drivers/STM32F7xx_HAL_Driver/Src/stm32f7xx_hal_rtc.c ****     /* Clear flag alarm B */
1103:Drivers/STM32F7xx_HAL_Driver/Src/stm32f7xx_hal_rtc.c ****     __HAL_RTC_ALARM_CLEAR_FLAG(hrtc, RTC_FLAG_ALRBF);
1104:Drivers/STM32F7xx_HAL_Driver/Src/stm32f7xx_hal_rtc.c **** 
1105:Drivers/STM32F7xx_HAL_Driver/Src/stm32f7xx_hal_rtc.c ****     /* Wait till RTC ALRBWF flag is set and if Time out is reached exit */
1106:Drivers/STM32F7xx_HAL_Driver/Src/stm32f7xx_hal_rtc.c ****     do
1107:Drivers/STM32F7xx_HAL_Driver/Src/stm32f7xx_hal_rtc.c ****     {
1108:Drivers/STM32F7xx_HAL_Driver/Src/stm32f7xx_hal_rtc.c ****       if (count-- == 0U)
1109:Drivers/STM32F7xx_HAL_Driver/Src/stm32f7xx_hal_rtc.c ****       {
1110:Drivers/STM32F7xx_HAL_Driver/Src/stm32f7xx_hal_rtc.c ****         /* Enable the write protection for RTC registers */
1111:Drivers/STM32F7xx_HAL_Driver/Src/stm32f7xx_hal_rtc.c ****         __HAL_RTC_WRITEPROTECTION_ENABLE(hrtc);
1112:Drivers/STM32F7xx_HAL_Driver/Src/stm32f7xx_hal_rtc.c **** 
1113:Drivers/STM32F7xx_HAL_Driver/Src/stm32f7xx_hal_rtc.c ****         hrtc->State = HAL_RTC_STATE_TIMEOUT;
1114:Drivers/STM32F7xx_HAL_Driver/Src/stm32f7xx_hal_rtc.c **** 
1115:Drivers/STM32F7xx_HAL_Driver/Src/stm32f7xx_hal_rtc.c ****         /* Process Unlocked */
1116:Drivers/STM32F7xx_HAL_Driver/Src/stm32f7xx_hal_rtc.c ****         __HAL_UNLOCK(hrtc);
1117:Drivers/STM32F7xx_HAL_Driver/Src/stm32f7xx_hal_rtc.c **** 
1118:Drivers/STM32F7xx_HAL_Driver/Src/stm32f7xx_hal_rtc.c ****         return HAL_TIMEOUT;
1119:Drivers/STM32F7xx_HAL_Driver/Src/stm32f7xx_hal_rtc.c ****       }
1120:Drivers/STM32F7xx_HAL_Driver/Src/stm32f7xx_hal_rtc.c ****     } 
1121:Drivers/STM32F7xx_HAL_Driver/Src/stm32f7xx_hal_rtc.c ****     while (__HAL_RTC_ALARM_GET_FLAG(hrtc, RTC_FLAG_ALRBWF) == RESET);
1122:Drivers/STM32F7xx_HAL_Driver/Src/stm32f7xx_hal_rtc.c ****     
1123:Drivers/STM32F7xx_HAL_Driver/Src/stm32f7xx_hal_rtc.c ****     hrtc->Instance->ALRMBR = (uint32_t)tmpreg;
1124:Drivers/STM32F7xx_HAL_Driver/Src/stm32f7xx_hal_rtc.c ****     /* Configure the Alarm B Sub Second register */
1125:Drivers/STM32F7xx_HAL_Driver/Src/stm32f7xx_hal_rtc.c ****     hrtc->Instance->ALRMBSSR = subsecondtmpreg;
1126:Drivers/STM32F7xx_HAL_Driver/Src/stm32f7xx_hal_rtc.c ****     /* Configure the Alarm state: Enable Alarm */
1127:Drivers/STM32F7xx_HAL_Driver/Src/stm32f7xx_hal_rtc.c ****     __HAL_RTC_ALARMB_ENABLE(hrtc);
1128:Drivers/STM32F7xx_HAL_Driver/Src/stm32f7xx_hal_rtc.c ****     /* Configure the Alarm interrupt */
1129:Drivers/STM32F7xx_HAL_Driver/Src/stm32f7xx_hal_rtc.c ****     __HAL_RTC_ALARM_ENABLE_IT(hrtc, RTC_IT_ALRB);
1130:Drivers/STM32F7xx_HAL_Driver/Src/stm32f7xx_hal_rtc.c ****   }
1131:Drivers/STM32F7xx_HAL_Driver/Src/stm32f7xx_hal_rtc.c **** 
1132:Drivers/STM32F7xx_HAL_Driver/Src/stm32f7xx_hal_rtc.c ****   /* RTC Alarm Interrupt Configuration: EXTI configuration */
1133:Drivers/STM32F7xx_HAL_Driver/Src/stm32f7xx_hal_rtc.c ****   __HAL_RTC_ALARM_EXTI_ENABLE_IT();
1134:Drivers/STM32F7xx_HAL_Driver/Src/stm32f7xx_hal_rtc.c ****   
1135:Drivers/STM32F7xx_HAL_Driver/Src/stm32f7xx_hal_rtc.c ****   EXTI->RTSR |= RTC_EXTI_LINE_ALARM_EVENT;
ARM GAS  C:\Users\Student\AppData\Local\Temp\ccDKlFGt.s 			page 22


1136:Drivers/STM32F7xx_HAL_Driver/Src/stm32f7xx_hal_rtc.c ****   
1137:Drivers/STM32F7xx_HAL_Driver/Src/stm32f7xx_hal_rtc.c ****   /* Enable the write protection for RTC registers */
1138:Drivers/STM32F7xx_HAL_Driver/Src/stm32f7xx_hal_rtc.c ****   __HAL_RTC_WRITEPROTECTION_ENABLE(hrtc);  
1139:Drivers/STM32F7xx_HAL_Driver/Src/stm32f7xx_hal_rtc.c ****   
1140:Drivers/STM32F7xx_HAL_Driver/Src/stm32f7xx_hal_rtc.c ****   hrtc->State = HAL_RTC_STATE_READY; 
1141:Drivers/STM32F7xx_HAL_Driver/Src/stm32f7xx_hal_rtc.c ****   
1142:Drivers/STM32F7xx_HAL_Driver/Src/stm32f7xx_hal_rtc.c ****   /* Process Unlocked */ 
1143:Drivers/STM32F7xx_HAL_Driver/Src/stm32f7xx_hal_rtc.c ****   __HAL_UNLOCK(hrtc);  
1144:Drivers/STM32F7xx_HAL_Driver/Src/stm32f7xx_hal_rtc.c ****   
1145:Drivers/STM32F7xx_HAL_Driver/Src/stm32f7xx_hal_rtc.c ****   return HAL_OK;
1146:Drivers/STM32F7xx_HAL_Driver/Src/stm32f7xx_hal_rtc.c **** }
1147:Drivers/STM32F7xx_HAL_Driver/Src/stm32f7xx_hal_rtc.c **** 
1148:Drivers/STM32F7xx_HAL_Driver/Src/stm32f7xx_hal_rtc.c **** /**
1149:Drivers/STM32F7xx_HAL_Driver/Src/stm32f7xx_hal_rtc.c ****   * @brief  Deactive the specified RTC Alarm 
1150:Drivers/STM32F7xx_HAL_Driver/Src/stm32f7xx_hal_rtc.c ****   * @param  hrtc pointer to a RTC_HandleTypeDef structure that contains
1151:Drivers/STM32F7xx_HAL_Driver/Src/stm32f7xx_hal_rtc.c ****   *                the configuration information for RTC.
1152:Drivers/STM32F7xx_HAL_Driver/Src/stm32f7xx_hal_rtc.c ****   * @param  Alarm Specifies the Alarm.
1153:Drivers/STM32F7xx_HAL_Driver/Src/stm32f7xx_hal_rtc.c ****   *          This parameter can be one of the following values:
1154:Drivers/STM32F7xx_HAL_Driver/Src/stm32f7xx_hal_rtc.c ****   *            @arg RTC_ALARM_A:  AlarmA
1155:Drivers/STM32F7xx_HAL_Driver/Src/stm32f7xx_hal_rtc.c ****   *            @arg RTC_ALARM_B:  AlarmB
1156:Drivers/STM32F7xx_HAL_Driver/Src/stm32f7xx_hal_rtc.c ****   * @retval HAL status
1157:Drivers/STM32F7xx_HAL_Driver/Src/stm32f7xx_hal_rtc.c ****   */
1158:Drivers/STM32F7xx_HAL_Driver/Src/stm32f7xx_hal_rtc.c **** HAL_StatusTypeDef HAL_RTC_DeactivateAlarm(RTC_HandleTypeDef *hrtc, uint32_t Alarm)
1159:Drivers/STM32F7xx_HAL_Driver/Src/stm32f7xx_hal_rtc.c **** {
  68              		.loc 1 1159 0
  69              		.cfi_startproc
  70              		@ args = 0, pretend = 0, frame = 0
  71              		@ frame_needed = 0, uses_anonymous_args = 0
  72              	.LVL2:
  73              		.loc 1 1159 0
  74 0000 38B5     		push	{r3, r4, r5, lr}
  75              	.LCFI0:
  76              		.cfi_def_cfa_offset 16
  77              		.cfi_offset 3, -16
  78              		.cfi_offset 4, -12
  79              		.cfi_offset 5, -8
  80              		.cfi_offset 14, -4
  81              	.LVL3:
1160:Drivers/STM32F7xx_HAL_Driver/Src/stm32f7xx_hal_rtc.c ****   uint32_t tickstart = 0;
1161:Drivers/STM32F7xx_HAL_Driver/Src/stm32f7xx_hal_rtc.c ****   
1162:Drivers/STM32F7xx_HAL_Driver/Src/stm32f7xx_hal_rtc.c ****   /* Check the parameters */
1163:Drivers/STM32F7xx_HAL_Driver/Src/stm32f7xx_hal_rtc.c ****   assert_param(IS_RTC_ALARM(Alarm));
1164:Drivers/STM32F7xx_HAL_Driver/Src/stm32f7xx_hal_rtc.c ****   
1165:Drivers/STM32F7xx_HAL_Driver/Src/stm32f7xx_hal_rtc.c ****   /* Process Locked */ 
1166:Drivers/STM32F7xx_HAL_Driver/Src/stm32f7xx_hal_rtc.c ****   __HAL_LOCK(hrtc);
  82              		.loc 1 1166 0
  83 0002 037F     		ldrb	r3, [r0, #28]	@ zero_extendqisi2
  84 0004 012B     		cmp	r3, #1
  85 0006 55D0     		beq	.L11
  86 0008 0446     		mov	r4, r0
  87              		.loc 1 1166 0 is_stmt 0 discriminator 2
  88 000a 0123     		movs	r3, #1
  89 000c 0377     		strb	r3, [r0, #28]
1167:Drivers/STM32F7xx_HAL_Driver/Src/stm32f7xx_hal_rtc.c ****   
1168:Drivers/STM32F7xx_HAL_Driver/Src/stm32f7xx_hal_rtc.c ****   hrtc->State = HAL_RTC_STATE_BUSY;
  90              		.loc 1 1168 0 is_stmt 1 discriminator 2
  91 000e 0223     		movs	r3, #2
ARM GAS  C:\Users\Student\AppData\Local\Temp\ccDKlFGt.s 			page 23


  92 0010 4377     		strb	r3, [r0, #29]
1169:Drivers/STM32F7xx_HAL_Driver/Src/stm32f7xx_hal_rtc.c ****   
1170:Drivers/STM32F7xx_HAL_Driver/Src/stm32f7xx_hal_rtc.c ****   /* Disable the write protection for RTC registers */
1171:Drivers/STM32F7xx_HAL_Driver/Src/stm32f7xx_hal_rtc.c ****   __HAL_RTC_WRITEPROTECTION_DISABLE(hrtc);
  93              		.loc 1 1171 0 discriminator 2
  94 0012 0368     		ldr	r3, [r0]
  95 0014 CA22     		movs	r2, #202
  96 0016 5A62     		str	r2, [r3, #36]
  97 0018 0368     		ldr	r3, [r0]
  98 001a 5322     		movs	r2, #83
  99 001c 5A62     		str	r2, [r3, #36]
1172:Drivers/STM32F7xx_HAL_Driver/Src/stm32f7xx_hal_rtc.c ****   
1173:Drivers/STM32F7xx_HAL_Driver/Src/stm32f7xx_hal_rtc.c ****   if(Alarm == RTC_ALARM_A)
 100              		.loc 1 1173 0 discriminator 2
 101 001e B1F5807F 		cmp	r1, #256
 102 0022 1FD0     		beq	.L13
1174:Drivers/STM32F7xx_HAL_Driver/Src/stm32f7xx_hal_rtc.c ****   {
1175:Drivers/STM32F7xx_HAL_Driver/Src/stm32f7xx_hal_rtc.c ****     /* AlarmA */
1176:Drivers/STM32F7xx_HAL_Driver/Src/stm32f7xx_hal_rtc.c ****     __HAL_RTC_ALARMA_DISABLE(hrtc);
1177:Drivers/STM32F7xx_HAL_Driver/Src/stm32f7xx_hal_rtc.c ****     
1178:Drivers/STM32F7xx_HAL_Driver/Src/stm32f7xx_hal_rtc.c ****     /* In case of interrupt mode is used, the interrupt source must disabled */ 
1179:Drivers/STM32F7xx_HAL_Driver/Src/stm32f7xx_hal_rtc.c ****     __HAL_RTC_ALARM_DISABLE_IT(hrtc, RTC_IT_ALRA);
1180:Drivers/STM32F7xx_HAL_Driver/Src/stm32f7xx_hal_rtc.c **** 
1181:Drivers/STM32F7xx_HAL_Driver/Src/stm32f7xx_hal_rtc.c ****     /* Get tick */
1182:Drivers/STM32F7xx_HAL_Driver/Src/stm32f7xx_hal_rtc.c ****     tickstart = HAL_GetTick();
1183:Drivers/STM32F7xx_HAL_Driver/Src/stm32f7xx_hal_rtc.c **** 
1184:Drivers/STM32F7xx_HAL_Driver/Src/stm32f7xx_hal_rtc.c ****     /* Wait till RTC ALRxWF flag is set and if Time out is reached exit */
1185:Drivers/STM32F7xx_HAL_Driver/Src/stm32f7xx_hal_rtc.c ****     while(__HAL_RTC_ALARM_GET_FLAG(hrtc, RTC_FLAG_ALRAWF) == RESET)
1186:Drivers/STM32F7xx_HAL_Driver/Src/stm32f7xx_hal_rtc.c ****     {
1187:Drivers/STM32F7xx_HAL_Driver/Src/stm32f7xx_hal_rtc.c ****       if((HAL_GetTick() - tickstart ) > RTC_TIMEOUT_VALUE)
1188:Drivers/STM32F7xx_HAL_Driver/Src/stm32f7xx_hal_rtc.c ****       { 
1189:Drivers/STM32F7xx_HAL_Driver/Src/stm32f7xx_hal_rtc.c ****         /* Enable the write protection for RTC registers */
1190:Drivers/STM32F7xx_HAL_Driver/Src/stm32f7xx_hal_rtc.c ****         __HAL_RTC_WRITEPROTECTION_ENABLE(hrtc);
1191:Drivers/STM32F7xx_HAL_Driver/Src/stm32f7xx_hal_rtc.c ****         
1192:Drivers/STM32F7xx_HAL_Driver/Src/stm32f7xx_hal_rtc.c ****         hrtc->State = HAL_RTC_STATE_TIMEOUT; 
1193:Drivers/STM32F7xx_HAL_Driver/Src/stm32f7xx_hal_rtc.c ****         
1194:Drivers/STM32F7xx_HAL_Driver/Src/stm32f7xx_hal_rtc.c ****         /* Process Unlocked */ 
1195:Drivers/STM32F7xx_HAL_Driver/Src/stm32f7xx_hal_rtc.c ****         __HAL_UNLOCK(hrtc);
1196:Drivers/STM32F7xx_HAL_Driver/Src/stm32f7xx_hal_rtc.c ****         
1197:Drivers/STM32F7xx_HAL_Driver/Src/stm32f7xx_hal_rtc.c ****         return HAL_TIMEOUT;
1198:Drivers/STM32F7xx_HAL_Driver/Src/stm32f7xx_hal_rtc.c ****       }      
1199:Drivers/STM32F7xx_HAL_Driver/Src/stm32f7xx_hal_rtc.c ****     }
1200:Drivers/STM32F7xx_HAL_Driver/Src/stm32f7xx_hal_rtc.c ****   }
1201:Drivers/STM32F7xx_HAL_Driver/Src/stm32f7xx_hal_rtc.c ****   else
1202:Drivers/STM32F7xx_HAL_Driver/Src/stm32f7xx_hal_rtc.c ****   {
1203:Drivers/STM32F7xx_HAL_Driver/Src/stm32f7xx_hal_rtc.c ****     /* AlarmB */
1204:Drivers/STM32F7xx_HAL_Driver/Src/stm32f7xx_hal_rtc.c ****     __HAL_RTC_ALARMB_DISABLE(hrtc);
 103              		.loc 1 1204 0
 104 0024 0268     		ldr	r2, [r0]
 105 0026 9368     		ldr	r3, [r2, #8]
 106 0028 23F40073 		bic	r3, r3, #512
 107 002c 9360     		str	r3, [r2, #8]
1205:Drivers/STM32F7xx_HAL_Driver/Src/stm32f7xx_hal_rtc.c ****     
1206:Drivers/STM32F7xx_HAL_Driver/Src/stm32f7xx_hal_rtc.c ****     /* In case of interrupt mode is used, the interrupt source must disabled */ 
1207:Drivers/STM32F7xx_HAL_Driver/Src/stm32f7xx_hal_rtc.c ****     __HAL_RTC_ALARM_DISABLE_IT(hrtc,RTC_IT_ALRB);
 108              		.loc 1 1207 0
 109 002e 0268     		ldr	r2, [r0]
ARM GAS  C:\Users\Student\AppData\Local\Temp\ccDKlFGt.s 			page 24


 110 0030 9368     		ldr	r3, [r2, #8]
 111 0032 23F40053 		bic	r3, r3, #8192
 112 0036 9360     		str	r3, [r2, #8]
1208:Drivers/STM32F7xx_HAL_Driver/Src/stm32f7xx_hal_rtc.c **** 
1209:Drivers/STM32F7xx_HAL_Driver/Src/stm32f7xx_hal_rtc.c ****     /* Get tick */
1210:Drivers/STM32F7xx_HAL_Driver/Src/stm32f7xx_hal_rtc.c ****     tickstart = HAL_GetTick();
 113              		.loc 1 1210 0
 114 0038 FFF7FEFF 		bl	HAL_GetTick
 115              	.LVL4:
 116 003c 0546     		mov	r5, r0
 117              	.LVL5:
 118              	.L9:
1211:Drivers/STM32F7xx_HAL_Driver/Src/stm32f7xx_hal_rtc.c **** 
1212:Drivers/STM32F7xx_HAL_Driver/Src/stm32f7xx_hal_rtc.c ****     /* Wait till RTC ALRxWF flag is set and if Time out is reached exit */
1213:Drivers/STM32F7xx_HAL_Driver/Src/stm32f7xx_hal_rtc.c ****     while(__HAL_RTC_ALARM_GET_FLAG(hrtc, RTC_FLAG_ALRBWF) == RESET)
 119              		.loc 1 1213 0
 120 003e 2368     		ldr	r3, [r4]
 121 0040 DB68     		ldr	r3, [r3, #12]
 122 0042 13F0020F 		tst	r3, #2
 123 0046 2DD1     		bne	.L8
1214:Drivers/STM32F7xx_HAL_Driver/Src/stm32f7xx_hal_rtc.c ****     {
1215:Drivers/STM32F7xx_HAL_Driver/Src/stm32f7xx_hal_rtc.c ****       if((HAL_GetTick() - tickstart ) > RTC_TIMEOUT_VALUE)
 124              		.loc 1 1215 0
 125 0048 FFF7FEFF 		bl	HAL_GetTick
 126              	.LVL6:
 127 004c 401B     		subs	r0, r0, r5
 128 004e B0F57A7F 		cmp	r0, #1000
 129 0052 F4D9     		bls	.L9
1216:Drivers/STM32F7xx_HAL_Driver/Src/stm32f7xx_hal_rtc.c ****       {
1217:Drivers/STM32F7xx_HAL_Driver/Src/stm32f7xx_hal_rtc.c ****         /* Enable the write protection for RTC registers */
1218:Drivers/STM32F7xx_HAL_Driver/Src/stm32f7xx_hal_rtc.c ****         __HAL_RTC_WRITEPROTECTION_ENABLE(hrtc);
 130              		.loc 1 1218 0
 131 0054 2368     		ldr	r3, [r4]
 132 0056 FF22     		movs	r2, #255
 133 0058 5A62     		str	r2, [r3, #36]
1219:Drivers/STM32F7xx_HAL_Driver/Src/stm32f7xx_hal_rtc.c ****         
1220:Drivers/STM32F7xx_HAL_Driver/Src/stm32f7xx_hal_rtc.c ****         hrtc->State = HAL_RTC_STATE_TIMEOUT; 
 134              		.loc 1 1220 0
 135 005a 0320     		movs	r0, #3
 136 005c 6077     		strb	r0, [r4, #29]
1221:Drivers/STM32F7xx_HAL_Driver/Src/stm32f7xx_hal_rtc.c ****         
1222:Drivers/STM32F7xx_HAL_Driver/Src/stm32f7xx_hal_rtc.c ****         /* Process Unlocked */ 
1223:Drivers/STM32F7xx_HAL_Driver/Src/stm32f7xx_hal_rtc.c ****         __HAL_UNLOCK(hrtc);
 137              		.loc 1 1223 0
 138 005e 0023     		movs	r3, #0
 139 0060 2377     		strb	r3, [r4, #28]
1224:Drivers/STM32F7xx_HAL_Driver/Src/stm32f7xx_hal_rtc.c ****         
1225:Drivers/STM32F7xx_HAL_Driver/Src/stm32f7xx_hal_rtc.c ****         return HAL_TIMEOUT;
 140              		.loc 1 1225 0
 141 0062 38BD     		pop	{r3, r4, r5, pc}
 142              	.LVL7:
 143              	.L13:
1176:Drivers/STM32F7xx_HAL_Driver/Src/stm32f7xx_hal_rtc.c ****     
 144              		.loc 1 1176 0
 145 0064 0268     		ldr	r2, [r0]
 146 0066 9368     		ldr	r3, [r2, #8]
 147 0068 23F48073 		bic	r3, r3, #256
ARM GAS  C:\Users\Student\AppData\Local\Temp\ccDKlFGt.s 			page 25


 148 006c 9360     		str	r3, [r2, #8]
1179:Drivers/STM32F7xx_HAL_Driver/Src/stm32f7xx_hal_rtc.c **** 
 149              		.loc 1 1179 0
 150 006e 0268     		ldr	r2, [r0]
 151 0070 9368     		ldr	r3, [r2, #8]
 152 0072 23F48053 		bic	r3, r3, #4096
 153 0076 9360     		str	r3, [r2, #8]
1182:Drivers/STM32F7xx_HAL_Driver/Src/stm32f7xx_hal_rtc.c **** 
 154              		.loc 1 1182 0
 155 0078 FFF7FEFF 		bl	HAL_GetTick
 156              	.LVL8:
 157 007c 0546     		mov	r5, r0
 158              	.LVL9:
 159              	.L6:
1185:Drivers/STM32F7xx_HAL_Driver/Src/stm32f7xx_hal_rtc.c ****     {
 160              		.loc 1 1185 0
 161 007e 2368     		ldr	r3, [r4]
 162 0080 DB68     		ldr	r3, [r3, #12]
 163 0082 13F0010F 		tst	r3, #1
 164 0086 0DD1     		bne	.L8
1187:Drivers/STM32F7xx_HAL_Driver/Src/stm32f7xx_hal_rtc.c ****       { 
 165              		.loc 1 1187 0
 166 0088 FFF7FEFF 		bl	HAL_GetTick
 167              	.LVL10:
 168 008c 401B     		subs	r0, r0, r5
 169 008e B0F57A7F 		cmp	r0, #1000
 170 0092 F4D9     		bls	.L6
1190:Drivers/STM32F7xx_HAL_Driver/Src/stm32f7xx_hal_rtc.c ****         
 171              		.loc 1 1190 0
 172 0094 2368     		ldr	r3, [r4]
 173 0096 FF22     		movs	r2, #255
 174 0098 5A62     		str	r2, [r3, #36]
1192:Drivers/STM32F7xx_HAL_Driver/Src/stm32f7xx_hal_rtc.c ****         
 175              		.loc 1 1192 0
 176 009a 0320     		movs	r0, #3
 177 009c 6077     		strb	r0, [r4, #29]
1195:Drivers/STM32F7xx_HAL_Driver/Src/stm32f7xx_hal_rtc.c ****         
 178              		.loc 1 1195 0
 179 009e 0023     		movs	r3, #0
 180 00a0 2377     		strb	r3, [r4, #28]
1197:Drivers/STM32F7xx_HAL_Driver/Src/stm32f7xx_hal_rtc.c ****       }      
 181              		.loc 1 1197 0
 182 00a2 38BD     		pop	{r3, r4, r5, pc}
 183              	.LVL11:
 184              	.L8:
1226:Drivers/STM32F7xx_HAL_Driver/Src/stm32f7xx_hal_rtc.c ****       }    
1227:Drivers/STM32F7xx_HAL_Driver/Src/stm32f7xx_hal_rtc.c ****     }
1228:Drivers/STM32F7xx_HAL_Driver/Src/stm32f7xx_hal_rtc.c ****   }
1229:Drivers/STM32F7xx_HAL_Driver/Src/stm32f7xx_hal_rtc.c ****   /* Enable the write protection for RTC registers */
1230:Drivers/STM32F7xx_HAL_Driver/Src/stm32f7xx_hal_rtc.c ****   __HAL_RTC_WRITEPROTECTION_ENABLE(hrtc);
 185              		.loc 1 1230 0
 186 00a4 2368     		ldr	r3, [r4]
 187 00a6 FF22     		movs	r2, #255
 188 00a8 5A62     		str	r2, [r3, #36]
1231:Drivers/STM32F7xx_HAL_Driver/Src/stm32f7xx_hal_rtc.c ****   
1232:Drivers/STM32F7xx_HAL_Driver/Src/stm32f7xx_hal_rtc.c ****   hrtc->State = HAL_RTC_STATE_READY; 
 189              		.loc 1 1232 0
ARM GAS  C:\Users\Student\AppData\Local\Temp\ccDKlFGt.s 			page 26


 190 00aa 0123     		movs	r3, #1
 191 00ac 6377     		strb	r3, [r4, #29]
1233:Drivers/STM32F7xx_HAL_Driver/Src/stm32f7xx_hal_rtc.c ****   
1234:Drivers/STM32F7xx_HAL_Driver/Src/stm32f7xx_hal_rtc.c ****   /* Process Unlocked */ 
1235:Drivers/STM32F7xx_HAL_Driver/Src/stm32f7xx_hal_rtc.c ****   __HAL_UNLOCK(hrtc);  
 192              		.loc 1 1235 0
 193 00ae 0020     		movs	r0, #0
 194 00b0 2077     		strb	r0, [r4, #28]
1236:Drivers/STM32F7xx_HAL_Driver/Src/stm32f7xx_hal_rtc.c ****   
1237:Drivers/STM32F7xx_HAL_Driver/Src/stm32f7xx_hal_rtc.c ****   return HAL_OK; 
 195              		.loc 1 1237 0
 196 00b2 38BD     		pop	{r3, r4, r5, pc}
 197              	.LVL12:
 198              	.L11:
1166:Drivers/STM32F7xx_HAL_Driver/Src/stm32f7xx_hal_rtc.c ****   
 199              		.loc 1 1166 0
 200 00b4 0220     		movs	r0, #2
 201              	.LVL13:
1238:Drivers/STM32F7xx_HAL_Driver/Src/stm32f7xx_hal_rtc.c **** }
 202              		.loc 1 1238 0
 203 00b6 38BD     		pop	{r3, r4, r5, pc}
 204              		.cfi_endproc
 205              	.LFE146:
 207              		.section	.text.HAL_RTC_AlarmAEventCallback,"ax",%progbits
 208              		.align	1
 209              		.weak	HAL_RTC_AlarmAEventCallback
 210              		.syntax unified
 211              		.thumb
 212              		.thumb_func
 213              		.fpu fpv5-sp-d16
 215              	HAL_RTC_AlarmAEventCallback:
 216              	.LFB149:
1239:Drivers/STM32F7xx_HAL_Driver/Src/stm32f7xx_hal_rtc.c ****            
1240:Drivers/STM32F7xx_HAL_Driver/Src/stm32f7xx_hal_rtc.c **** /**
1241:Drivers/STM32F7xx_HAL_Driver/Src/stm32f7xx_hal_rtc.c ****   * @brief  Gets the RTC Alarm value and masks.
1242:Drivers/STM32F7xx_HAL_Driver/Src/stm32f7xx_hal_rtc.c ****   * @param  hrtc pointer to a RTC_HandleTypeDef structure that contains
1243:Drivers/STM32F7xx_HAL_Driver/Src/stm32f7xx_hal_rtc.c ****   *                the configuration information for RTC.
1244:Drivers/STM32F7xx_HAL_Driver/Src/stm32f7xx_hal_rtc.c ****   * @param  sAlarm Pointer to Date structure
1245:Drivers/STM32F7xx_HAL_Driver/Src/stm32f7xx_hal_rtc.c ****   * @param  Alarm Specifies the Alarm.
1246:Drivers/STM32F7xx_HAL_Driver/Src/stm32f7xx_hal_rtc.c ****   *          This parameter can be one of the following values:
1247:Drivers/STM32F7xx_HAL_Driver/Src/stm32f7xx_hal_rtc.c ****   *             @arg RTC_ALARM_A: AlarmA
1248:Drivers/STM32F7xx_HAL_Driver/Src/stm32f7xx_hal_rtc.c ****   *             @arg RTC_ALARM_B: AlarmB  
1249:Drivers/STM32F7xx_HAL_Driver/Src/stm32f7xx_hal_rtc.c ****   * @param  Format Specifies the format of the entered parameters.
1250:Drivers/STM32F7xx_HAL_Driver/Src/stm32f7xx_hal_rtc.c ****   *          This parameter can be one of the following values:
1251:Drivers/STM32F7xx_HAL_Driver/Src/stm32f7xx_hal_rtc.c ****   *             @arg RTC_FORMAT_BIN: Binary data format 
1252:Drivers/STM32F7xx_HAL_Driver/Src/stm32f7xx_hal_rtc.c ****   *             @arg RTC_FORMAT_BCD: BCD data format
1253:Drivers/STM32F7xx_HAL_Driver/Src/stm32f7xx_hal_rtc.c ****   * @retval HAL status
1254:Drivers/STM32F7xx_HAL_Driver/Src/stm32f7xx_hal_rtc.c ****   */
1255:Drivers/STM32F7xx_HAL_Driver/Src/stm32f7xx_hal_rtc.c **** HAL_StatusTypeDef HAL_RTC_GetAlarm(RTC_HandleTypeDef *hrtc, RTC_AlarmTypeDef *sAlarm, uint32_t Alar
1256:Drivers/STM32F7xx_HAL_Driver/Src/stm32f7xx_hal_rtc.c **** {
1257:Drivers/STM32F7xx_HAL_Driver/Src/stm32f7xx_hal_rtc.c ****   uint32_t tmpreg = 0, subsecondtmpreg = 0;
1258:Drivers/STM32F7xx_HAL_Driver/Src/stm32f7xx_hal_rtc.c ****   
1259:Drivers/STM32F7xx_HAL_Driver/Src/stm32f7xx_hal_rtc.c ****   /* Check the parameters */
1260:Drivers/STM32F7xx_HAL_Driver/Src/stm32f7xx_hal_rtc.c ****   assert_param(IS_RTC_FORMAT(Format));
1261:Drivers/STM32F7xx_HAL_Driver/Src/stm32f7xx_hal_rtc.c ****   assert_param(IS_RTC_ALARM(Alarm));
1262:Drivers/STM32F7xx_HAL_Driver/Src/stm32f7xx_hal_rtc.c ****   
1263:Drivers/STM32F7xx_HAL_Driver/Src/stm32f7xx_hal_rtc.c ****   if(Alarm == RTC_ALARM_A)
ARM GAS  C:\Users\Student\AppData\Local\Temp\ccDKlFGt.s 			page 27


1264:Drivers/STM32F7xx_HAL_Driver/Src/stm32f7xx_hal_rtc.c ****   {
1265:Drivers/STM32F7xx_HAL_Driver/Src/stm32f7xx_hal_rtc.c ****     /* AlarmA */
1266:Drivers/STM32F7xx_HAL_Driver/Src/stm32f7xx_hal_rtc.c ****     sAlarm->Alarm = RTC_ALARM_A;
1267:Drivers/STM32F7xx_HAL_Driver/Src/stm32f7xx_hal_rtc.c ****     
1268:Drivers/STM32F7xx_HAL_Driver/Src/stm32f7xx_hal_rtc.c ****     tmpreg = (uint32_t)(hrtc->Instance->ALRMAR);
1269:Drivers/STM32F7xx_HAL_Driver/Src/stm32f7xx_hal_rtc.c ****     subsecondtmpreg = (uint32_t)((hrtc->Instance->ALRMASSR ) & RTC_ALRMASSR_SS);
1270:Drivers/STM32F7xx_HAL_Driver/Src/stm32f7xx_hal_rtc.c ****   }
1271:Drivers/STM32F7xx_HAL_Driver/Src/stm32f7xx_hal_rtc.c ****   else
1272:Drivers/STM32F7xx_HAL_Driver/Src/stm32f7xx_hal_rtc.c ****   {
1273:Drivers/STM32F7xx_HAL_Driver/Src/stm32f7xx_hal_rtc.c ****     sAlarm->Alarm = RTC_ALARM_B;
1274:Drivers/STM32F7xx_HAL_Driver/Src/stm32f7xx_hal_rtc.c ****     
1275:Drivers/STM32F7xx_HAL_Driver/Src/stm32f7xx_hal_rtc.c ****     tmpreg = (uint32_t)(hrtc->Instance->ALRMBR);
1276:Drivers/STM32F7xx_HAL_Driver/Src/stm32f7xx_hal_rtc.c ****     subsecondtmpreg = (uint32_t)((hrtc->Instance->ALRMBSSR) & RTC_ALRMBSSR_SS);
1277:Drivers/STM32F7xx_HAL_Driver/Src/stm32f7xx_hal_rtc.c ****   }
1278:Drivers/STM32F7xx_HAL_Driver/Src/stm32f7xx_hal_rtc.c ****     
1279:Drivers/STM32F7xx_HAL_Driver/Src/stm32f7xx_hal_rtc.c ****   /* Fill the structure with the read parameters */
1280:Drivers/STM32F7xx_HAL_Driver/Src/stm32f7xx_hal_rtc.c ****   sAlarm->AlarmTime.Hours = (uint32_t)((tmpreg & (RTC_ALRMAR_HT | RTC_ALRMAR_HU)) >> 16);
1281:Drivers/STM32F7xx_HAL_Driver/Src/stm32f7xx_hal_rtc.c ****   sAlarm->AlarmTime.Minutes = (uint32_t)((tmpreg & (RTC_ALRMAR_MNT | RTC_ALRMAR_MNU)) >> 8);
1282:Drivers/STM32F7xx_HAL_Driver/Src/stm32f7xx_hal_rtc.c ****   sAlarm->AlarmTime.Seconds = (uint32_t)(tmpreg & (RTC_ALRMAR_ST | RTC_ALRMAR_SU));
1283:Drivers/STM32F7xx_HAL_Driver/Src/stm32f7xx_hal_rtc.c ****   sAlarm->AlarmTime.TimeFormat = (uint32_t)((tmpreg & RTC_ALRMAR_PM) >> 16);
1284:Drivers/STM32F7xx_HAL_Driver/Src/stm32f7xx_hal_rtc.c ****   sAlarm->AlarmTime.SubSeconds = (uint32_t) subsecondtmpreg;
1285:Drivers/STM32F7xx_HAL_Driver/Src/stm32f7xx_hal_rtc.c ****   sAlarm->AlarmDateWeekDay = (uint32_t)((tmpreg & (RTC_ALRMAR_DT | RTC_ALRMAR_DU)) >> 24);
1286:Drivers/STM32F7xx_HAL_Driver/Src/stm32f7xx_hal_rtc.c ****   sAlarm->AlarmDateWeekDaySel = (uint32_t)(tmpreg & RTC_ALRMAR_WDSEL);
1287:Drivers/STM32F7xx_HAL_Driver/Src/stm32f7xx_hal_rtc.c ****   sAlarm->AlarmMask = (uint32_t)(tmpreg & RTC_ALARMMASK_ALL);
1288:Drivers/STM32F7xx_HAL_Driver/Src/stm32f7xx_hal_rtc.c ****     
1289:Drivers/STM32F7xx_HAL_Driver/Src/stm32f7xx_hal_rtc.c ****   if(Format == RTC_FORMAT_BIN)
1290:Drivers/STM32F7xx_HAL_Driver/Src/stm32f7xx_hal_rtc.c ****   {
1291:Drivers/STM32F7xx_HAL_Driver/Src/stm32f7xx_hal_rtc.c ****     sAlarm->AlarmTime.Hours = RTC_Bcd2ToByte(sAlarm->AlarmTime.Hours);
1292:Drivers/STM32F7xx_HAL_Driver/Src/stm32f7xx_hal_rtc.c ****     sAlarm->AlarmTime.Minutes = RTC_Bcd2ToByte(sAlarm->AlarmTime.Minutes);
1293:Drivers/STM32F7xx_HAL_Driver/Src/stm32f7xx_hal_rtc.c ****     sAlarm->AlarmTime.Seconds = RTC_Bcd2ToByte(sAlarm->AlarmTime.Seconds);
1294:Drivers/STM32F7xx_HAL_Driver/Src/stm32f7xx_hal_rtc.c ****     sAlarm->AlarmDateWeekDay = RTC_Bcd2ToByte(sAlarm->AlarmDateWeekDay);
1295:Drivers/STM32F7xx_HAL_Driver/Src/stm32f7xx_hal_rtc.c ****   }  
1296:Drivers/STM32F7xx_HAL_Driver/Src/stm32f7xx_hal_rtc.c ****     
1297:Drivers/STM32F7xx_HAL_Driver/Src/stm32f7xx_hal_rtc.c ****   return HAL_OK;
1298:Drivers/STM32F7xx_HAL_Driver/Src/stm32f7xx_hal_rtc.c **** }
1299:Drivers/STM32F7xx_HAL_Driver/Src/stm32f7xx_hal_rtc.c **** 
1300:Drivers/STM32F7xx_HAL_Driver/Src/stm32f7xx_hal_rtc.c **** /**
1301:Drivers/STM32F7xx_HAL_Driver/Src/stm32f7xx_hal_rtc.c ****   * @brief  This function handles Alarm interrupt request.
1302:Drivers/STM32F7xx_HAL_Driver/Src/stm32f7xx_hal_rtc.c ****   * @param  hrtc pointer to a RTC_HandleTypeDef structure that contains
1303:Drivers/STM32F7xx_HAL_Driver/Src/stm32f7xx_hal_rtc.c ****   *                the configuration information for RTC.
1304:Drivers/STM32F7xx_HAL_Driver/Src/stm32f7xx_hal_rtc.c ****   * @retval None
1305:Drivers/STM32F7xx_HAL_Driver/Src/stm32f7xx_hal_rtc.c ****   */
1306:Drivers/STM32F7xx_HAL_Driver/Src/stm32f7xx_hal_rtc.c **** void HAL_RTC_AlarmIRQHandler(RTC_HandleTypeDef* hrtc)
1307:Drivers/STM32F7xx_HAL_Driver/Src/stm32f7xx_hal_rtc.c **** {  
1308:Drivers/STM32F7xx_HAL_Driver/Src/stm32f7xx_hal_rtc.c ****   if(__HAL_RTC_ALARM_GET_IT(hrtc, RTC_IT_ALRA))
1309:Drivers/STM32F7xx_HAL_Driver/Src/stm32f7xx_hal_rtc.c ****   {
1310:Drivers/STM32F7xx_HAL_Driver/Src/stm32f7xx_hal_rtc.c ****     /* Get the status of the Interrupt */
1311:Drivers/STM32F7xx_HAL_Driver/Src/stm32f7xx_hal_rtc.c ****     if((uint32_t)(hrtc->Instance->CR & RTC_IT_ALRA) != (uint32_t)RESET)
1312:Drivers/STM32F7xx_HAL_Driver/Src/stm32f7xx_hal_rtc.c ****     {
1313:Drivers/STM32F7xx_HAL_Driver/Src/stm32f7xx_hal_rtc.c ****       /* AlarmA callback */ 
1314:Drivers/STM32F7xx_HAL_Driver/Src/stm32f7xx_hal_rtc.c ****       HAL_RTC_AlarmAEventCallback(hrtc);
1315:Drivers/STM32F7xx_HAL_Driver/Src/stm32f7xx_hal_rtc.c ****       
1316:Drivers/STM32F7xx_HAL_Driver/Src/stm32f7xx_hal_rtc.c ****       /* Clear the Alarm interrupt pending bit */
1317:Drivers/STM32F7xx_HAL_Driver/Src/stm32f7xx_hal_rtc.c ****       __HAL_RTC_ALARM_CLEAR_FLAG(hrtc,RTC_FLAG_ALRAF);
1318:Drivers/STM32F7xx_HAL_Driver/Src/stm32f7xx_hal_rtc.c ****     }
1319:Drivers/STM32F7xx_HAL_Driver/Src/stm32f7xx_hal_rtc.c ****   }
1320:Drivers/STM32F7xx_HAL_Driver/Src/stm32f7xx_hal_rtc.c ****   
ARM GAS  C:\Users\Student\AppData\Local\Temp\ccDKlFGt.s 			page 28


1321:Drivers/STM32F7xx_HAL_Driver/Src/stm32f7xx_hal_rtc.c ****   if(__HAL_RTC_ALARM_GET_IT(hrtc, RTC_IT_ALRB))
1322:Drivers/STM32F7xx_HAL_Driver/Src/stm32f7xx_hal_rtc.c ****   {
1323:Drivers/STM32F7xx_HAL_Driver/Src/stm32f7xx_hal_rtc.c ****     /* Get the status of the Interrupt */
1324:Drivers/STM32F7xx_HAL_Driver/Src/stm32f7xx_hal_rtc.c ****     if((uint32_t)(hrtc->Instance->CR & RTC_IT_ALRB) != (uint32_t)RESET)
1325:Drivers/STM32F7xx_HAL_Driver/Src/stm32f7xx_hal_rtc.c ****     {
1326:Drivers/STM32F7xx_HAL_Driver/Src/stm32f7xx_hal_rtc.c ****       /* AlarmB callback */ 
1327:Drivers/STM32F7xx_HAL_Driver/Src/stm32f7xx_hal_rtc.c ****       HAL_RTCEx_AlarmBEventCallback(hrtc);
1328:Drivers/STM32F7xx_HAL_Driver/Src/stm32f7xx_hal_rtc.c ****       
1329:Drivers/STM32F7xx_HAL_Driver/Src/stm32f7xx_hal_rtc.c ****       /* Clear the Alarm interrupt pending bit */
1330:Drivers/STM32F7xx_HAL_Driver/Src/stm32f7xx_hal_rtc.c ****       __HAL_RTC_ALARM_CLEAR_FLAG(hrtc,RTC_FLAG_ALRBF);
1331:Drivers/STM32F7xx_HAL_Driver/Src/stm32f7xx_hal_rtc.c ****     }
1332:Drivers/STM32F7xx_HAL_Driver/Src/stm32f7xx_hal_rtc.c ****   }
1333:Drivers/STM32F7xx_HAL_Driver/Src/stm32f7xx_hal_rtc.c ****   
1334:Drivers/STM32F7xx_HAL_Driver/Src/stm32f7xx_hal_rtc.c ****   /* Clear the EXTI's line Flag for RTC Alarm */
1335:Drivers/STM32F7xx_HAL_Driver/Src/stm32f7xx_hal_rtc.c ****   __HAL_RTC_ALARM_EXTI_CLEAR_FLAG();
1336:Drivers/STM32F7xx_HAL_Driver/Src/stm32f7xx_hal_rtc.c ****   
1337:Drivers/STM32F7xx_HAL_Driver/Src/stm32f7xx_hal_rtc.c ****   /* Change RTC state */
1338:Drivers/STM32F7xx_HAL_Driver/Src/stm32f7xx_hal_rtc.c ****   hrtc->State = HAL_RTC_STATE_READY;
1339:Drivers/STM32F7xx_HAL_Driver/Src/stm32f7xx_hal_rtc.c **** }
1340:Drivers/STM32F7xx_HAL_Driver/Src/stm32f7xx_hal_rtc.c **** 
1341:Drivers/STM32F7xx_HAL_Driver/Src/stm32f7xx_hal_rtc.c **** /**
1342:Drivers/STM32F7xx_HAL_Driver/Src/stm32f7xx_hal_rtc.c ****   * @brief  Alarm A callback.
1343:Drivers/STM32F7xx_HAL_Driver/Src/stm32f7xx_hal_rtc.c ****   * @param  hrtc pointer to a RTC_HandleTypeDef structure that contains
1344:Drivers/STM32F7xx_HAL_Driver/Src/stm32f7xx_hal_rtc.c ****   *                the configuration information for RTC.
1345:Drivers/STM32F7xx_HAL_Driver/Src/stm32f7xx_hal_rtc.c ****   * @retval None
1346:Drivers/STM32F7xx_HAL_Driver/Src/stm32f7xx_hal_rtc.c ****   */
1347:Drivers/STM32F7xx_HAL_Driver/Src/stm32f7xx_hal_rtc.c **** __weak void HAL_RTC_AlarmAEventCallback(RTC_HandleTypeDef *hrtc)
1348:Drivers/STM32F7xx_HAL_Driver/Src/stm32f7xx_hal_rtc.c **** {
 217              		.loc 1 1348 0
 218              		.cfi_startproc
 219              		@ args = 0, pretend = 0, frame = 0
 220              		@ frame_needed = 0, uses_anonymous_args = 0
 221              		@ link register save eliminated.
 222              	.LVL14:
 223 0000 7047     		bx	lr
 224              		.cfi_endproc
 225              	.LFE149:
 227              		.section	.text.HAL_RTC_AlarmIRQHandler,"ax",%progbits
 228              		.align	1
 229              		.global	HAL_RTC_AlarmIRQHandler
 230              		.syntax unified
 231              		.thumb
 232              		.thumb_func
 233              		.fpu fpv5-sp-d16
 235              	HAL_RTC_AlarmIRQHandler:
 236              	.LFB148:
1307:Drivers/STM32F7xx_HAL_Driver/Src/stm32f7xx_hal_rtc.c ****   if(__HAL_RTC_ALARM_GET_IT(hrtc, RTC_IT_ALRA))
 237              		.loc 1 1307 0
 238              		.cfi_startproc
 239              		@ args = 0, pretend = 0, frame = 0
 240              		@ frame_needed = 0, uses_anonymous_args = 0
 241              	.LVL15:
1307:Drivers/STM32F7xx_HAL_Driver/Src/stm32f7xx_hal_rtc.c ****   if(__HAL_RTC_ALARM_GET_IT(hrtc, RTC_IT_ALRA))
 242              		.loc 1 1307 0
 243 0000 10B5     		push	{r4, lr}
 244              	.LCFI1:
 245              		.cfi_def_cfa_offset 8
ARM GAS  C:\Users\Student\AppData\Local\Temp\ccDKlFGt.s 			page 29


 246              		.cfi_offset 4, -8
 247              		.cfi_offset 14, -4
 248 0002 0446     		mov	r4, r0
1308:Drivers/STM32F7xx_HAL_Driver/Src/stm32f7xx_hal_rtc.c ****   {
 249              		.loc 1 1308 0
 250 0004 0368     		ldr	r3, [r0]
 251 0006 DA68     		ldr	r2, [r3, #12]
 252 0008 12F4807F 		tst	r2, #256
 253 000c 03D0     		beq	.L16
1311:Drivers/STM32F7xx_HAL_Driver/Src/stm32f7xx_hal_rtc.c ****     {
 254              		.loc 1 1311 0
 255 000e 9B68     		ldr	r3, [r3, #8]
 256 0010 13F4805F 		tst	r3, #4096
 257 0014 0FD1     		bne	.L19
 258              	.LVL16:
 259              	.L16:
1321:Drivers/STM32F7xx_HAL_Driver/Src/stm32f7xx_hal_rtc.c ****   {
 260              		.loc 1 1321 0
 261 0016 2368     		ldr	r3, [r4]
 262 0018 DA68     		ldr	r2, [r3, #12]
 263 001a 12F4007F 		tst	r2, #512
 264 001e 03D0     		beq	.L17
1324:Drivers/STM32F7xx_HAL_Driver/Src/stm32f7xx_hal_rtc.c ****     {
 265              		.loc 1 1324 0
 266 0020 9B68     		ldr	r3, [r3, #8]
 267 0022 13F4005F 		tst	r3, #8192
 268 0026 0FD1     		bne	.L20
 269              	.L17:
1335:Drivers/STM32F7xx_HAL_Driver/Src/stm32f7xx_hal_rtc.c ****   
 270              		.loc 1 1335 0
 271 0028 4FF40032 		mov	r2, #131072
 272 002c 0B4B     		ldr	r3, .L21
 273 002e 5A61     		str	r2, [r3, #20]
1338:Drivers/STM32F7xx_HAL_Driver/Src/stm32f7xx_hal_rtc.c **** }
 274              		.loc 1 1338 0
 275 0030 0123     		movs	r3, #1
 276 0032 6377     		strb	r3, [r4, #29]
 277 0034 10BD     		pop	{r4, pc}
 278              	.LVL17:
 279              	.L19:
1314:Drivers/STM32F7xx_HAL_Driver/Src/stm32f7xx_hal_rtc.c ****       
 280              		.loc 1 1314 0
 281 0036 FFF7FEFF 		bl	HAL_RTC_AlarmAEventCallback
 282              	.LVL18:
1317:Drivers/STM32F7xx_HAL_Driver/Src/stm32f7xx_hal_rtc.c ****     }
 283              		.loc 1 1317 0
 284 003a 2268     		ldr	r2, [r4]
 285 003c D368     		ldr	r3, [r2, #12]
 286 003e DBB2     		uxtb	r3, r3
 287 0040 63F4C073 		orn	r3, r3, #384
 288 0044 D360     		str	r3, [r2, #12]
 289 0046 E6E7     		b	.L16
 290              	.L20:
1327:Drivers/STM32F7xx_HAL_Driver/Src/stm32f7xx_hal_rtc.c ****       
 291              		.loc 1 1327 0
 292 0048 2046     		mov	r0, r4
 293 004a FFF7FEFF 		bl	HAL_RTCEx_AlarmBEventCallback
ARM GAS  C:\Users\Student\AppData\Local\Temp\ccDKlFGt.s 			page 30


 294              	.LVL19:
1330:Drivers/STM32F7xx_HAL_Driver/Src/stm32f7xx_hal_rtc.c ****     }
 295              		.loc 1 1330 0
 296 004e 2268     		ldr	r2, [r4]
 297 0050 D368     		ldr	r3, [r2, #12]
 298 0052 DBB2     		uxtb	r3, r3
 299 0054 63F42073 		orn	r3, r3, #640
 300 0058 D360     		str	r3, [r2, #12]
 301 005a E5E7     		b	.L17
 302              	.L22:
 303              		.align	2
 304              	.L21:
 305 005c 003C0140 		.word	1073822720
 306              		.cfi_endproc
 307              	.LFE148:
 309              		.section	.text.HAL_RTC_PollForAlarmAEvent,"ax",%progbits
 310              		.align	1
 311              		.global	HAL_RTC_PollForAlarmAEvent
 312              		.syntax unified
 313              		.thumb
 314              		.thumb_func
 315              		.fpu fpv5-sp-d16
 317              	HAL_RTC_PollForAlarmAEvent:
 318              	.LFB150:
1349:Drivers/STM32F7xx_HAL_Driver/Src/stm32f7xx_hal_rtc.c ****   /* Prevent unused argument(s) compilation warning */
1350:Drivers/STM32F7xx_HAL_Driver/Src/stm32f7xx_hal_rtc.c ****   UNUSED(hrtc);
1351:Drivers/STM32F7xx_HAL_Driver/Src/stm32f7xx_hal_rtc.c ****   
1352:Drivers/STM32F7xx_HAL_Driver/Src/stm32f7xx_hal_rtc.c ****   /* NOTE : This function Should not be modified, when the callback is needed,
1353:Drivers/STM32F7xx_HAL_Driver/Src/stm32f7xx_hal_rtc.c ****             the HAL_RTC_AlarmAEventCallback could be implemented in the user file
1354:Drivers/STM32F7xx_HAL_Driver/Src/stm32f7xx_hal_rtc.c ****    */
1355:Drivers/STM32F7xx_HAL_Driver/Src/stm32f7xx_hal_rtc.c **** }
1356:Drivers/STM32F7xx_HAL_Driver/Src/stm32f7xx_hal_rtc.c **** 
1357:Drivers/STM32F7xx_HAL_Driver/Src/stm32f7xx_hal_rtc.c **** /**
1358:Drivers/STM32F7xx_HAL_Driver/Src/stm32f7xx_hal_rtc.c ****   * @brief  This function handles AlarmA Polling request.
1359:Drivers/STM32F7xx_HAL_Driver/Src/stm32f7xx_hal_rtc.c ****   * @param  hrtc pointer to a RTC_HandleTypeDef structure that contains
1360:Drivers/STM32F7xx_HAL_Driver/Src/stm32f7xx_hal_rtc.c ****   *                the configuration information for RTC.
1361:Drivers/STM32F7xx_HAL_Driver/Src/stm32f7xx_hal_rtc.c ****   * @param  Timeout Timeout duration
1362:Drivers/STM32F7xx_HAL_Driver/Src/stm32f7xx_hal_rtc.c ****   * @retval HAL status
1363:Drivers/STM32F7xx_HAL_Driver/Src/stm32f7xx_hal_rtc.c ****   */
1364:Drivers/STM32F7xx_HAL_Driver/Src/stm32f7xx_hal_rtc.c **** HAL_StatusTypeDef HAL_RTC_PollForAlarmAEvent(RTC_HandleTypeDef *hrtc, uint32_t Timeout)
1365:Drivers/STM32F7xx_HAL_Driver/Src/stm32f7xx_hal_rtc.c **** {
 319              		.loc 1 1365 0
 320              		.cfi_startproc
 321              		@ args = 0, pretend = 0, frame = 0
 322              		@ frame_needed = 0, uses_anonymous_args = 0
 323              	.LVL20:
 324 0000 70B5     		push	{r4, r5, r6, lr}
 325              	.LCFI2:
 326              		.cfi_def_cfa_offset 16
 327              		.cfi_offset 4, -16
 328              		.cfi_offset 5, -12
 329              		.cfi_offset 6, -8
 330              		.cfi_offset 14, -4
 331 0002 0446     		mov	r4, r0
 332 0004 0D46     		mov	r5, r1
 333              	.LVL21:
1366:Drivers/STM32F7xx_HAL_Driver/Src/stm32f7xx_hal_rtc.c ****   uint32_t tickstart = 0; 
ARM GAS  C:\Users\Student\AppData\Local\Temp\ccDKlFGt.s 			page 31


1367:Drivers/STM32F7xx_HAL_Driver/Src/stm32f7xx_hal_rtc.c **** 
1368:Drivers/STM32F7xx_HAL_Driver/Src/stm32f7xx_hal_rtc.c ****     /* Get tick */
1369:Drivers/STM32F7xx_HAL_Driver/Src/stm32f7xx_hal_rtc.c ****     tickstart = HAL_GetTick();
 334              		.loc 1 1369 0
 335 0006 FFF7FEFF 		bl	HAL_GetTick
 336              	.LVL22:
 337 000a 0646     		mov	r6, r0
 338              	.LVL23:
 339              	.L25:
1370:Drivers/STM32F7xx_HAL_Driver/Src/stm32f7xx_hal_rtc.c **** 
1371:Drivers/STM32F7xx_HAL_Driver/Src/stm32f7xx_hal_rtc.c ****   while(__HAL_RTC_ALARM_GET_FLAG(hrtc, RTC_FLAG_ALRAF) == RESET)
 340              		.loc 1 1371 0
 341 000c 2368     		ldr	r3, [r4]
 342 000e DA68     		ldr	r2, [r3, #12]
 343 0010 12F4807F 		tst	r2, #256
 344 0014 0BD1     		bne	.L30
1372:Drivers/STM32F7xx_HAL_Driver/Src/stm32f7xx_hal_rtc.c ****   {
1373:Drivers/STM32F7xx_HAL_Driver/Src/stm32f7xx_hal_rtc.c ****     if(Timeout != HAL_MAX_DELAY)
 345              		.loc 1 1373 0
 346 0016 B5F1FF3F 		cmp	r5, #-1
 347 001a F7D0     		beq	.L25
1374:Drivers/STM32F7xx_HAL_Driver/Src/stm32f7xx_hal_rtc.c ****     {
1375:Drivers/STM32F7xx_HAL_Driver/Src/stm32f7xx_hal_rtc.c ****       if((Timeout == 0)||((HAL_GetTick() - tickstart ) > Timeout))
 348              		.loc 1 1375 0
 349 001c 25B1     		cbz	r5, .L26
 350              		.loc 1 1375 0 is_stmt 0 discriminator 1
 351 001e FFF7FEFF 		bl	HAL_GetTick
 352              	.LVL24:
 353 0022 801B     		subs	r0, r0, r6
 354 0024 8542     		cmp	r5, r0
 355 0026 F1D2     		bcs	.L25
 356              	.L26:
1376:Drivers/STM32F7xx_HAL_Driver/Src/stm32f7xx_hal_rtc.c ****       {
1377:Drivers/STM32F7xx_HAL_Driver/Src/stm32f7xx_hal_rtc.c ****         hrtc->State = HAL_RTC_STATE_TIMEOUT;
 357              		.loc 1 1377 0 is_stmt 1
 358 0028 0320     		movs	r0, #3
 359 002a 6077     		strb	r0, [r4, #29]
1378:Drivers/STM32F7xx_HAL_Driver/Src/stm32f7xx_hal_rtc.c ****         return HAL_TIMEOUT;
 360              		.loc 1 1378 0
 361 002c 70BD     		pop	{r4, r5, r6, pc}
 362              	.LVL25:
 363              	.L30:
1379:Drivers/STM32F7xx_HAL_Driver/Src/stm32f7xx_hal_rtc.c ****       }
1380:Drivers/STM32F7xx_HAL_Driver/Src/stm32f7xx_hal_rtc.c ****     }
1381:Drivers/STM32F7xx_HAL_Driver/Src/stm32f7xx_hal_rtc.c ****   }
1382:Drivers/STM32F7xx_HAL_Driver/Src/stm32f7xx_hal_rtc.c ****   
1383:Drivers/STM32F7xx_HAL_Driver/Src/stm32f7xx_hal_rtc.c ****   /* Clear the Alarm interrupt pending bit */
1384:Drivers/STM32F7xx_HAL_Driver/Src/stm32f7xx_hal_rtc.c ****   __HAL_RTC_ALARM_CLEAR_FLAG(hrtc, RTC_FLAG_ALRAF);
 364              		.loc 1 1384 0
 365 002e DA68     		ldr	r2, [r3, #12]
 366 0030 D2B2     		uxtb	r2, r2
 367 0032 62F4C072 		orn	r2, r2, #384
 368 0036 DA60     		str	r2, [r3, #12]
1385:Drivers/STM32F7xx_HAL_Driver/Src/stm32f7xx_hal_rtc.c ****   
1386:Drivers/STM32F7xx_HAL_Driver/Src/stm32f7xx_hal_rtc.c ****   /* Change RTC state */
1387:Drivers/STM32F7xx_HAL_Driver/Src/stm32f7xx_hal_rtc.c ****   hrtc->State = HAL_RTC_STATE_READY; 
 369              		.loc 1 1387 0
ARM GAS  C:\Users\Student\AppData\Local\Temp\ccDKlFGt.s 			page 32


 370 0038 0123     		movs	r3, #1
 371 003a 6377     		strb	r3, [r4, #29]
1388:Drivers/STM32F7xx_HAL_Driver/Src/stm32f7xx_hal_rtc.c ****   
1389:Drivers/STM32F7xx_HAL_Driver/Src/stm32f7xx_hal_rtc.c ****   return HAL_OK;  
 372              		.loc 1 1389 0
 373 003c 0020     		movs	r0, #0
1390:Drivers/STM32F7xx_HAL_Driver/Src/stm32f7xx_hal_rtc.c **** }
 374              		.loc 1 1390 0
 375 003e 70BD     		pop	{r4, r5, r6, pc}
 376              		.cfi_endproc
 377              	.LFE150:
 379              		.section	.text.HAL_RTC_WaitForSynchro,"ax",%progbits
 380              		.align	1
 381              		.global	HAL_RTC_WaitForSynchro
 382              		.syntax unified
 383              		.thumb
 384              		.thumb_func
 385              		.fpu fpv5-sp-d16
 387              	HAL_RTC_WaitForSynchro:
 388              	.LFB151:
1391:Drivers/STM32F7xx_HAL_Driver/Src/stm32f7xx_hal_rtc.c **** 
1392:Drivers/STM32F7xx_HAL_Driver/Src/stm32f7xx_hal_rtc.c **** /**
1393:Drivers/STM32F7xx_HAL_Driver/Src/stm32f7xx_hal_rtc.c ****   * @}
1394:Drivers/STM32F7xx_HAL_Driver/Src/stm32f7xx_hal_rtc.c ****   */
1395:Drivers/STM32F7xx_HAL_Driver/Src/stm32f7xx_hal_rtc.c **** 
1396:Drivers/STM32F7xx_HAL_Driver/Src/stm32f7xx_hal_rtc.c **** /** @defgroup RTC_Group4 Peripheral Control functions 
1397:Drivers/STM32F7xx_HAL_Driver/Src/stm32f7xx_hal_rtc.c ****  *  @brief   Peripheral Control functions 
1398:Drivers/STM32F7xx_HAL_Driver/Src/stm32f7xx_hal_rtc.c ****  *
1399:Drivers/STM32F7xx_HAL_Driver/Src/stm32f7xx_hal_rtc.c **** @verbatim   
1400:Drivers/STM32F7xx_HAL_Driver/Src/stm32f7xx_hal_rtc.c ****  ===============================================================================
1401:Drivers/STM32F7xx_HAL_Driver/Src/stm32f7xx_hal_rtc.c ****                      ##### Peripheral Control functions #####
1402:Drivers/STM32F7xx_HAL_Driver/Src/stm32f7xx_hal_rtc.c ****  ===============================================================================  
1403:Drivers/STM32F7xx_HAL_Driver/Src/stm32f7xx_hal_rtc.c ****     [..]
1404:Drivers/STM32F7xx_HAL_Driver/Src/stm32f7xx_hal_rtc.c ****     This subsection provides functions allowing to
1405:Drivers/STM32F7xx_HAL_Driver/Src/stm32f7xx_hal_rtc.c ****       (+) Wait for RTC Time and Date Synchronization
1406:Drivers/STM32F7xx_HAL_Driver/Src/stm32f7xx_hal_rtc.c **** 
1407:Drivers/STM32F7xx_HAL_Driver/Src/stm32f7xx_hal_rtc.c **** @endverbatim
1408:Drivers/STM32F7xx_HAL_Driver/Src/stm32f7xx_hal_rtc.c ****   * @{
1409:Drivers/STM32F7xx_HAL_Driver/Src/stm32f7xx_hal_rtc.c ****   */
1410:Drivers/STM32F7xx_HAL_Driver/Src/stm32f7xx_hal_rtc.c **** 
1411:Drivers/STM32F7xx_HAL_Driver/Src/stm32f7xx_hal_rtc.c **** /**
1412:Drivers/STM32F7xx_HAL_Driver/Src/stm32f7xx_hal_rtc.c ****   * @brief  Waits until the RTC Time and Date registers (RTC_TR and RTC_DR) are 
1413:Drivers/STM32F7xx_HAL_Driver/Src/stm32f7xx_hal_rtc.c ****   *         synchronized with RTC APB clock.
1414:Drivers/STM32F7xx_HAL_Driver/Src/stm32f7xx_hal_rtc.c ****   * @note   The RTC Resynchronization mode is write protected, use the 
1415:Drivers/STM32F7xx_HAL_Driver/Src/stm32f7xx_hal_rtc.c ****   *         __HAL_RTC_WRITEPROTECTION_DISABLE() before calling this function. 
1416:Drivers/STM32F7xx_HAL_Driver/Src/stm32f7xx_hal_rtc.c ****   * @note   To read the calendar through the shadow registers after Calendar 
1417:Drivers/STM32F7xx_HAL_Driver/Src/stm32f7xx_hal_rtc.c ****   *         initialization, calendar update or after wakeup from low power modes 
1418:Drivers/STM32F7xx_HAL_Driver/Src/stm32f7xx_hal_rtc.c ****   *         the software must first clear the RSF flag. 
1419:Drivers/STM32F7xx_HAL_Driver/Src/stm32f7xx_hal_rtc.c ****   *         The software must then wait until it is set again before reading 
1420:Drivers/STM32F7xx_HAL_Driver/Src/stm32f7xx_hal_rtc.c ****   *         the calendar, which means that the calendar registers have been 
1421:Drivers/STM32F7xx_HAL_Driver/Src/stm32f7xx_hal_rtc.c ****   *         correctly copied into the RTC_TR and RTC_DR shadow registers.   
1422:Drivers/STM32F7xx_HAL_Driver/Src/stm32f7xx_hal_rtc.c ****   * @param  hrtc pointer to a RTC_HandleTypeDef structure that contains
1423:Drivers/STM32F7xx_HAL_Driver/Src/stm32f7xx_hal_rtc.c ****   *                the configuration information for RTC.
1424:Drivers/STM32F7xx_HAL_Driver/Src/stm32f7xx_hal_rtc.c ****   * @retval HAL status
1425:Drivers/STM32F7xx_HAL_Driver/Src/stm32f7xx_hal_rtc.c ****   */
1426:Drivers/STM32F7xx_HAL_Driver/Src/stm32f7xx_hal_rtc.c **** HAL_StatusTypeDef HAL_RTC_WaitForSynchro(RTC_HandleTypeDef* hrtc)
1427:Drivers/STM32F7xx_HAL_Driver/Src/stm32f7xx_hal_rtc.c **** {
ARM GAS  C:\Users\Student\AppData\Local\Temp\ccDKlFGt.s 			page 33


 389              		.loc 1 1427 0
 390              		.cfi_startproc
 391              		@ args = 0, pretend = 0, frame = 0
 392              		@ frame_needed = 0, uses_anonymous_args = 0
 393              	.LVL26:
 394 0000 38B5     		push	{r3, r4, r5, lr}
 395              	.LCFI3:
 396              		.cfi_def_cfa_offset 16
 397              		.cfi_offset 3, -16
 398              		.cfi_offset 4, -12
 399              		.cfi_offset 5, -8
 400              		.cfi_offset 14, -4
 401 0002 0446     		mov	r4, r0
 402              	.LVL27:
1428:Drivers/STM32F7xx_HAL_Driver/Src/stm32f7xx_hal_rtc.c ****   uint32_t tickstart = 0;
1429:Drivers/STM32F7xx_HAL_Driver/Src/stm32f7xx_hal_rtc.c **** 
1430:Drivers/STM32F7xx_HAL_Driver/Src/stm32f7xx_hal_rtc.c ****   /* Clear RSF flag */
1431:Drivers/STM32F7xx_HAL_Driver/Src/stm32f7xx_hal_rtc.c ****   hrtc->Instance->ISR &= (uint32_t)RTC_RSF_MASK;
 403              		.loc 1 1431 0
 404 0004 0268     		ldr	r2, [r0]
 405 0006 D368     		ldr	r3, [r2, #12]
 406 0008 23F0A003 		bic	r3, r3, #160
 407 000c D360     		str	r3, [r2, #12]
1432:Drivers/STM32F7xx_HAL_Driver/Src/stm32f7xx_hal_rtc.c **** 
1433:Drivers/STM32F7xx_HAL_Driver/Src/stm32f7xx_hal_rtc.c ****     /* Get tick */
1434:Drivers/STM32F7xx_HAL_Driver/Src/stm32f7xx_hal_rtc.c ****     tickstart = HAL_GetTick();
 408              		.loc 1 1434 0
 409 000e FFF7FEFF 		bl	HAL_GetTick
 410              	.LVL28:
 411 0012 0546     		mov	r5, r0
 412              	.LVL29:
 413              	.L32:
1435:Drivers/STM32F7xx_HAL_Driver/Src/stm32f7xx_hal_rtc.c **** 
1436:Drivers/STM32F7xx_HAL_Driver/Src/stm32f7xx_hal_rtc.c ****   /* Wait the registers to be synchronised */
1437:Drivers/STM32F7xx_HAL_Driver/Src/stm32f7xx_hal_rtc.c ****   while((hrtc->Instance->ISR & RTC_ISR_RSF) == (uint32_t)RESET)
 414              		.loc 1 1437 0
 415 0014 2368     		ldr	r3, [r4]
 416 0016 DB68     		ldr	r3, [r3, #12]
 417 0018 13F0200F 		tst	r3, #32
 418 001c 07D1     		bne	.L37
1438:Drivers/STM32F7xx_HAL_Driver/Src/stm32f7xx_hal_rtc.c ****   {
1439:Drivers/STM32F7xx_HAL_Driver/Src/stm32f7xx_hal_rtc.c ****     if((HAL_GetTick() - tickstart ) > RTC_TIMEOUT_VALUE)
 419              		.loc 1 1439 0
 420 001e FFF7FEFF 		bl	HAL_GetTick
 421              	.LVL30:
 422 0022 401B     		subs	r0, r0, r5
 423 0024 B0F57A7F 		cmp	r0, #1000
 424 0028 F4D9     		bls	.L32
1440:Drivers/STM32F7xx_HAL_Driver/Src/stm32f7xx_hal_rtc.c ****     {       
1441:Drivers/STM32F7xx_HAL_Driver/Src/stm32f7xx_hal_rtc.c ****       return HAL_TIMEOUT;
 425              		.loc 1 1441 0
 426 002a 0320     		movs	r0, #3
1442:Drivers/STM32F7xx_HAL_Driver/Src/stm32f7xx_hal_rtc.c ****     } 
1443:Drivers/STM32F7xx_HAL_Driver/Src/stm32f7xx_hal_rtc.c ****   }
1444:Drivers/STM32F7xx_HAL_Driver/Src/stm32f7xx_hal_rtc.c **** 
1445:Drivers/STM32F7xx_HAL_Driver/Src/stm32f7xx_hal_rtc.c ****   return HAL_OK;
1446:Drivers/STM32F7xx_HAL_Driver/Src/stm32f7xx_hal_rtc.c **** }
ARM GAS  C:\Users\Student\AppData\Local\Temp\ccDKlFGt.s 			page 34


 427              		.loc 1 1446 0
 428 002c 38BD     		pop	{r3, r4, r5, pc}
 429              	.LVL31:
 430              	.L37:
1445:Drivers/STM32F7xx_HAL_Driver/Src/stm32f7xx_hal_rtc.c **** }
 431              		.loc 1 1445 0
 432 002e 0020     		movs	r0, #0
 433 0030 38BD     		pop	{r3, r4, r5, pc}
 434              		.cfi_endproc
 435              	.LFE151:
 437              		.section	.text.HAL_RTC_GetState,"ax",%progbits
 438              		.align	1
 439              		.global	HAL_RTC_GetState
 440              		.syntax unified
 441              		.thumb
 442              		.thumb_func
 443              		.fpu fpv5-sp-d16
 445              	HAL_RTC_GetState:
 446              	.LFB152:
1447:Drivers/STM32F7xx_HAL_Driver/Src/stm32f7xx_hal_rtc.c **** 
1448:Drivers/STM32F7xx_HAL_Driver/Src/stm32f7xx_hal_rtc.c **** /**
1449:Drivers/STM32F7xx_HAL_Driver/Src/stm32f7xx_hal_rtc.c ****   * @}
1450:Drivers/STM32F7xx_HAL_Driver/Src/stm32f7xx_hal_rtc.c ****   */
1451:Drivers/STM32F7xx_HAL_Driver/Src/stm32f7xx_hal_rtc.c ****   
1452:Drivers/STM32F7xx_HAL_Driver/Src/stm32f7xx_hal_rtc.c **** /** @defgroup RTC_Group5 Peripheral State functions 
1453:Drivers/STM32F7xx_HAL_Driver/Src/stm32f7xx_hal_rtc.c ****  *  @brief   Peripheral State functions 
1454:Drivers/STM32F7xx_HAL_Driver/Src/stm32f7xx_hal_rtc.c ****  *
1455:Drivers/STM32F7xx_HAL_Driver/Src/stm32f7xx_hal_rtc.c **** @verbatim   
1456:Drivers/STM32F7xx_HAL_Driver/Src/stm32f7xx_hal_rtc.c ****  ===============================================================================
1457:Drivers/STM32F7xx_HAL_Driver/Src/stm32f7xx_hal_rtc.c ****                      ##### Peripheral State functions #####
1458:Drivers/STM32F7xx_HAL_Driver/Src/stm32f7xx_hal_rtc.c ****  ===============================================================================  
1459:Drivers/STM32F7xx_HAL_Driver/Src/stm32f7xx_hal_rtc.c ****     [..]
1460:Drivers/STM32F7xx_HAL_Driver/Src/stm32f7xx_hal_rtc.c ****     This subsection provides functions allowing to
1461:Drivers/STM32F7xx_HAL_Driver/Src/stm32f7xx_hal_rtc.c ****       (+) Get RTC state
1462:Drivers/STM32F7xx_HAL_Driver/Src/stm32f7xx_hal_rtc.c **** 
1463:Drivers/STM32F7xx_HAL_Driver/Src/stm32f7xx_hal_rtc.c **** @endverbatim
1464:Drivers/STM32F7xx_HAL_Driver/Src/stm32f7xx_hal_rtc.c ****   * @{
1465:Drivers/STM32F7xx_HAL_Driver/Src/stm32f7xx_hal_rtc.c ****   */
1466:Drivers/STM32F7xx_HAL_Driver/Src/stm32f7xx_hal_rtc.c **** /**
1467:Drivers/STM32F7xx_HAL_Driver/Src/stm32f7xx_hal_rtc.c ****   * @brief  Returns the RTC state.
1468:Drivers/STM32F7xx_HAL_Driver/Src/stm32f7xx_hal_rtc.c ****   * @param  hrtc pointer to a RTC_HandleTypeDef structure that contains
1469:Drivers/STM32F7xx_HAL_Driver/Src/stm32f7xx_hal_rtc.c ****   *                the configuration information for RTC.
1470:Drivers/STM32F7xx_HAL_Driver/Src/stm32f7xx_hal_rtc.c ****   * @retval HAL state
1471:Drivers/STM32F7xx_HAL_Driver/Src/stm32f7xx_hal_rtc.c ****   */
1472:Drivers/STM32F7xx_HAL_Driver/Src/stm32f7xx_hal_rtc.c **** HAL_RTCStateTypeDef HAL_RTC_GetState(RTC_HandleTypeDef* hrtc)
1473:Drivers/STM32F7xx_HAL_Driver/Src/stm32f7xx_hal_rtc.c **** {
 447              		.loc 1 1473 0
 448              		.cfi_startproc
 449              		@ args = 0, pretend = 0, frame = 0
 450              		@ frame_needed = 0, uses_anonymous_args = 0
 451              		@ link register save eliminated.
 452              	.LVL32:
1474:Drivers/STM32F7xx_HAL_Driver/Src/stm32f7xx_hal_rtc.c ****   return hrtc->State;
 453              		.loc 1 1474 0
 454 0000 407F     		ldrb	r0, [r0, #29]	@ zero_extendqisi2
 455              	.LVL33:
1475:Drivers/STM32F7xx_HAL_Driver/Src/stm32f7xx_hal_rtc.c **** }
ARM GAS  C:\Users\Student\AppData\Local\Temp\ccDKlFGt.s 			page 35


 456              		.loc 1 1475 0
 457 0002 7047     		bx	lr
 458              		.cfi_endproc
 459              	.LFE152:
 461              		.section	.text.RTC_EnterInitMode,"ax",%progbits
 462              		.align	1
 463              		.global	RTC_EnterInitMode
 464              		.syntax unified
 465              		.thumb
 466              		.thumb_func
 467              		.fpu fpv5-sp-d16
 469              	RTC_EnterInitMode:
 470              	.LFB153:
1476:Drivers/STM32F7xx_HAL_Driver/Src/stm32f7xx_hal_rtc.c **** 
1477:Drivers/STM32F7xx_HAL_Driver/Src/stm32f7xx_hal_rtc.c **** /**
1478:Drivers/STM32F7xx_HAL_Driver/Src/stm32f7xx_hal_rtc.c ****   * @}
1479:Drivers/STM32F7xx_HAL_Driver/Src/stm32f7xx_hal_rtc.c ****   */
1480:Drivers/STM32F7xx_HAL_Driver/Src/stm32f7xx_hal_rtc.c **** 
1481:Drivers/STM32F7xx_HAL_Driver/Src/stm32f7xx_hal_rtc.c **** /**
1482:Drivers/STM32F7xx_HAL_Driver/Src/stm32f7xx_hal_rtc.c ****   * @brief  Enters the RTC Initialization mode.
1483:Drivers/STM32F7xx_HAL_Driver/Src/stm32f7xx_hal_rtc.c ****   * @note   The RTC Initialization mode is write protected, use the
1484:Drivers/STM32F7xx_HAL_Driver/Src/stm32f7xx_hal_rtc.c ****   *         __HAL_RTC_WRITEPROTECTION_DISABLE() before calling this function.
1485:Drivers/STM32F7xx_HAL_Driver/Src/stm32f7xx_hal_rtc.c ****   * @param  hrtc pointer to a RTC_HandleTypeDef structure that contains
1486:Drivers/STM32F7xx_HAL_Driver/Src/stm32f7xx_hal_rtc.c ****   *                the configuration information for RTC.
1487:Drivers/STM32F7xx_HAL_Driver/Src/stm32f7xx_hal_rtc.c ****   * @retval HAL status
1488:Drivers/STM32F7xx_HAL_Driver/Src/stm32f7xx_hal_rtc.c ****   */
1489:Drivers/STM32F7xx_HAL_Driver/Src/stm32f7xx_hal_rtc.c **** HAL_StatusTypeDef RTC_EnterInitMode(RTC_HandleTypeDef* hrtc)
1490:Drivers/STM32F7xx_HAL_Driver/Src/stm32f7xx_hal_rtc.c **** {
 471              		.loc 1 1490 0
 472              		.cfi_startproc
 473              		@ args = 0, pretend = 0, frame = 0
 474              		@ frame_needed = 0, uses_anonymous_args = 0
 475              	.LVL34:
 476 0000 38B5     		push	{r3, r4, r5, lr}
 477              	.LCFI4:
 478              		.cfi_def_cfa_offset 16
 479              		.cfi_offset 3, -16
 480              		.cfi_offset 4, -12
 481              		.cfi_offset 5, -8
 482              		.cfi_offset 14, -4
 483              	.LVL35:
1491:Drivers/STM32F7xx_HAL_Driver/Src/stm32f7xx_hal_rtc.c ****   uint32_t tickstart = 0; 
1492:Drivers/STM32F7xx_HAL_Driver/Src/stm32f7xx_hal_rtc.c ****   
1493:Drivers/STM32F7xx_HAL_Driver/Src/stm32f7xx_hal_rtc.c ****   /* Check if the Initialization mode is set */
1494:Drivers/STM32F7xx_HAL_Driver/Src/stm32f7xx_hal_rtc.c ****   if((hrtc->Instance->ISR & RTC_ISR_INITF) == (uint32_t)RESET)
 484              		.loc 1 1494 0
 485 0002 0368     		ldr	r3, [r0]
 486 0004 DA68     		ldr	r2, [r3, #12]
 487 0006 12F0400F 		tst	r2, #64
 488 000a 01D0     		beq	.L46
1495:Drivers/STM32F7xx_HAL_Driver/Src/stm32f7xx_hal_rtc.c ****   {
1496:Drivers/STM32F7xx_HAL_Driver/Src/stm32f7xx_hal_rtc.c ****     /* Set the Initialization mode */
1497:Drivers/STM32F7xx_HAL_Driver/Src/stm32f7xx_hal_rtc.c ****     hrtc->Instance->ISR = (uint32_t)RTC_INIT_MASK;
1498:Drivers/STM32F7xx_HAL_Driver/Src/stm32f7xx_hal_rtc.c **** 
1499:Drivers/STM32F7xx_HAL_Driver/Src/stm32f7xx_hal_rtc.c ****     /* Get tick */
1500:Drivers/STM32F7xx_HAL_Driver/Src/stm32f7xx_hal_rtc.c ****     tickstart = HAL_GetTick();
1501:Drivers/STM32F7xx_HAL_Driver/Src/stm32f7xx_hal_rtc.c **** 
ARM GAS  C:\Users\Student\AppData\Local\Temp\ccDKlFGt.s 			page 36


1502:Drivers/STM32F7xx_HAL_Driver/Src/stm32f7xx_hal_rtc.c ****     /* Wait till RTC is in INIT state and if Time out is reached exit */
1503:Drivers/STM32F7xx_HAL_Driver/Src/stm32f7xx_hal_rtc.c ****     while((hrtc->Instance->ISR & RTC_ISR_INITF) == (uint32_t)RESET)
1504:Drivers/STM32F7xx_HAL_Driver/Src/stm32f7xx_hal_rtc.c ****     {
1505:Drivers/STM32F7xx_HAL_Driver/Src/stm32f7xx_hal_rtc.c ****       if((HAL_GetTick() - tickstart ) > RTC_TIMEOUT_VALUE)
1506:Drivers/STM32F7xx_HAL_Driver/Src/stm32f7xx_hal_rtc.c ****       {       
1507:Drivers/STM32F7xx_HAL_Driver/Src/stm32f7xx_hal_rtc.c ****         return HAL_TIMEOUT;
1508:Drivers/STM32F7xx_HAL_Driver/Src/stm32f7xx_hal_rtc.c ****       } 
1509:Drivers/STM32F7xx_HAL_Driver/Src/stm32f7xx_hal_rtc.c ****     }
1510:Drivers/STM32F7xx_HAL_Driver/Src/stm32f7xx_hal_rtc.c ****   }
1511:Drivers/STM32F7xx_HAL_Driver/Src/stm32f7xx_hal_rtc.c ****   
1512:Drivers/STM32F7xx_HAL_Driver/Src/stm32f7xx_hal_rtc.c ****   return HAL_OK;  
 489              		.loc 1 1512 0
 490 000c 0020     		movs	r0, #0
 491              	.LVL36:
 492 000e 38BD     		pop	{r3, r4, r5, pc}
 493              	.LVL37:
 494              	.L46:
 495 0010 0446     		mov	r4, r0
1497:Drivers/STM32F7xx_HAL_Driver/Src/stm32f7xx_hal_rtc.c **** 
 496              		.loc 1 1497 0
 497 0012 4FF0FF32 		mov	r2, #-1
 498 0016 DA60     		str	r2, [r3, #12]
1500:Drivers/STM32F7xx_HAL_Driver/Src/stm32f7xx_hal_rtc.c **** 
 499              		.loc 1 1500 0
 500 0018 FFF7FEFF 		bl	HAL_GetTick
 501              	.LVL38:
 502 001c 0546     		mov	r5, r0
 503              	.LVL39:
 504              	.L41:
1503:Drivers/STM32F7xx_HAL_Driver/Src/stm32f7xx_hal_rtc.c ****     {
 505              		.loc 1 1503 0
 506 001e 2368     		ldr	r3, [r4]
 507 0020 DB68     		ldr	r3, [r3, #12]
 508 0022 13F0400F 		tst	r3, #64
 509 0026 07D1     		bne	.L47
1505:Drivers/STM32F7xx_HAL_Driver/Src/stm32f7xx_hal_rtc.c ****       {       
 510              		.loc 1 1505 0
 511 0028 FFF7FEFF 		bl	HAL_GetTick
 512              	.LVL40:
 513 002c 401B     		subs	r0, r0, r5
 514 002e B0F57A7F 		cmp	r0, #1000
 515 0032 F4D9     		bls	.L41
1507:Drivers/STM32F7xx_HAL_Driver/Src/stm32f7xx_hal_rtc.c ****       } 
 516              		.loc 1 1507 0
 517 0034 0320     		movs	r0, #3
1513:Drivers/STM32F7xx_HAL_Driver/Src/stm32f7xx_hal_rtc.c **** }
 518              		.loc 1 1513 0
 519 0036 38BD     		pop	{r3, r4, r5, pc}
 520              	.LVL41:
 521              	.L47:
1512:Drivers/STM32F7xx_HAL_Driver/Src/stm32f7xx_hal_rtc.c **** }
 522              		.loc 1 1512 0
 523 0038 0020     		movs	r0, #0
 524 003a 38BD     		pop	{r3, r4, r5, pc}
 525              		.cfi_endproc
 526              	.LFE153:
 528              		.section	.text.HAL_RTC_Init,"ax",%progbits
ARM GAS  C:\Users\Student\AppData\Local\Temp\ccDKlFGt.s 			page 37


 529              		.align	1
 530              		.global	HAL_RTC_Init
 531              		.syntax unified
 532              		.thumb
 533              		.thumb_func
 534              		.fpu fpv5-sp-d16
 536              	HAL_RTC_Init:
 537              	.LFB136:
 203:Drivers/STM32F7xx_HAL_Driver/Src/stm32f7xx_hal_rtc.c ****   /* Check the RTC peripheral state */
 538              		.loc 1 203 0
 539              		.cfi_startproc
 540              		@ args = 0, pretend = 0, frame = 0
 541              		@ frame_needed = 0, uses_anonymous_args = 0
 542              	.LVL42:
 205:Drivers/STM32F7xx_HAL_Driver/Src/stm32f7xx_hal_rtc.c ****   {
 543              		.loc 1 205 0
 544 0000 0028     		cmp	r0, #0
 545 0002 4AD0     		beq	.L52
 203:Drivers/STM32F7xx_HAL_Driver/Src/stm32f7xx_hal_rtc.c ****   /* Check the RTC peripheral state */
 546              		.loc 1 203 0
 547 0004 38B5     		push	{r3, r4, r5, lr}
 548              	.LCFI5:
 549              		.cfi_def_cfa_offset 16
 550              		.cfi_offset 3, -16
 551              		.cfi_offset 4, -12
 552              		.cfi_offset 5, -8
 553              		.cfi_offset 14, -4
 554 0006 0446     		mov	r4, r0
 219:Drivers/STM32F7xx_HAL_Driver/Src/stm32f7xx_hal_rtc.c ****   {
 555              		.loc 1 219 0
 556 0008 437F     		ldrb	r3, [r0, #29]	@ zero_extendqisi2
 557 000a 002B     		cmp	r3, #0
 558 000c 3AD0     		beq	.L57
 559              	.LVL43:
 560              	.L50:
 228:Drivers/STM32F7xx_HAL_Driver/Src/stm32f7xx_hal_rtc.c ****        
 561              		.loc 1 228 0
 562 000e 0223     		movs	r3, #2
 563 0010 6377     		strb	r3, [r4, #29]
 231:Drivers/STM32F7xx_HAL_Driver/Src/stm32f7xx_hal_rtc.c **** 
 564              		.loc 1 231 0
 565 0012 2368     		ldr	r3, [r4]
 566 0014 CA22     		movs	r2, #202
 567 0016 5A62     		str	r2, [r3, #36]
 568 0018 2368     		ldr	r3, [r4]
 569 001a 5322     		movs	r2, #83
 570 001c 5A62     		str	r2, [r3, #36]
 234:Drivers/STM32F7xx_HAL_Driver/Src/stm32f7xx_hal_rtc.c ****   {
 571              		.loc 1 234 0
 572 001e 2046     		mov	r0, r4
 573 0020 FFF7FEFF 		bl	RTC_EnterInitMode
 574              	.LVL44:
 575 0024 0246     		mov	r2, r0
 576 0026 0028     		cmp	r0, #0
 577 0028 30D1     		bne	.L58
 247:Drivers/STM32F7xx_HAL_Driver/Src/stm32f7xx_hal_rtc.c ****     /* Set RTC_CR register */
 578              		.loc 1 247 0
ARM GAS  C:\Users\Student\AppData\Local\Temp\ccDKlFGt.s 			page 38


 579 002a 2168     		ldr	r1, [r4]
 580 002c 8868     		ldr	r0, [r1, #8]
 581 002e 1C4B     		ldr	r3, .L59
 582 0030 0340     		ands	r3, r3, r0
 583 0032 8B60     		str	r3, [r1, #8]
 249:Drivers/STM32F7xx_HAL_Driver/Src/stm32f7xx_hal_rtc.c ****     
 584              		.loc 1 249 0
 585 0034 2068     		ldr	r0, [r4]
 586 0036 8168     		ldr	r1, [r0, #8]
 587 0038 6368     		ldr	r3, [r4, #4]
 588 003a 2569     		ldr	r5, [r4, #16]
 589 003c 2B43     		orrs	r3, r3, r5
 590 003e 6569     		ldr	r5, [r4, #20]
 591 0040 2B43     		orrs	r3, r3, r5
 592 0042 0B43     		orrs	r3, r3, r1
 593 0044 8360     		str	r3, [r0, #8]
 252:Drivers/STM32F7xx_HAL_Driver/Src/stm32f7xx_hal_rtc.c ****     hrtc->Instance->PRER |= (uint32_t)(hrtc->Init.AsynchPrediv << 16);
 594              		.loc 1 252 0
 595 0046 2368     		ldr	r3, [r4]
 596 0048 E168     		ldr	r1, [r4, #12]
 597 004a 1961     		str	r1, [r3, #16]
 253:Drivers/STM32F7xx_HAL_Driver/Src/stm32f7xx_hal_rtc.c ****     
 598              		.loc 1 253 0
 599 004c 2168     		ldr	r1, [r4]
 600 004e 0B69     		ldr	r3, [r1, #16]
 601 0050 A068     		ldr	r0, [r4, #8]
 602 0052 43EA0043 		orr	r3, r3, r0, lsl #16
 603 0056 0B61     		str	r3, [r1, #16]
 256:Drivers/STM32F7xx_HAL_Driver/Src/stm32f7xx_hal_rtc.c ****     
 604              		.loc 1 256 0
 605 0058 2168     		ldr	r1, [r4]
 606 005a CB68     		ldr	r3, [r1, #12]
 607 005c 23F08003 		bic	r3, r3, #128
 608 0060 CB60     		str	r3, [r1, #12]
 258:Drivers/STM32F7xx_HAL_Driver/Src/stm32f7xx_hal_rtc.c ****     hrtc->Instance->OR |= (uint32_t)(hrtc->Init.OutPutType); 
 609              		.loc 1 258 0
 610 0062 2168     		ldr	r1, [r4]
 611 0064 CB6C     		ldr	r3, [r1, #76]
 612 0066 23F00803 		bic	r3, r3, #8
 613 006a CB64     		str	r3, [r1, #76]
 259:Drivers/STM32F7xx_HAL_Driver/Src/stm32f7xx_hal_rtc.c ****     
 614              		.loc 1 259 0
 615 006c 2168     		ldr	r1, [r4]
 616 006e CB6C     		ldr	r3, [r1, #76]
 617 0070 A069     		ldr	r0, [r4, #24]
 618 0072 0343     		orrs	r3, r3, r0
 619 0074 CB64     		str	r3, [r1, #76]
 262:Drivers/STM32F7xx_HAL_Driver/Src/stm32f7xx_hal_rtc.c ****     
 620              		.loc 1 262 0
 621 0076 2368     		ldr	r3, [r4]
 622 0078 FF21     		movs	r1, #255
 623 007a 5962     		str	r1, [r3, #36]
 265:Drivers/STM32F7xx_HAL_Driver/Src/stm32f7xx_hal_rtc.c ****     
 624              		.loc 1 265 0
 625 007c 0123     		movs	r3, #1
 626 007e 6377     		strb	r3, [r4, #29]
 627              	.L49:
ARM GAS  C:\Users\Student\AppData\Local\Temp\ccDKlFGt.s 			page 39


 269:Drivers/STM32F7xx_HAL_Driver/Src/stm32f7xx_hal_rtc.c **** 
 628              		.loc 1 269 0
 629 0080 1046     		mov	r0, r2
 630 0082 38BD     		pop	{r3, r4, r5, pc}
 631              	.LVL45:
 632              	.L57:
 222:Drivers/STM32F7xx_HAL_Driver/Src/stm32f7xx_hal_rtc.c ****     /* Initialize RTC MSP */
 633              		.loc 1 222 0
 634 0084 0377     		strb	r3, [r0, #28]
 224:Drivers/STM32F7xx_HAL_Driver/Src/stm32f7xx_hal_rtc.c ****   }
 635              		.loc 1 224 0
 636 0086 FFF7FEFF 		bl	HAL_RTC_MspInit
 637              	.LVL46:
 638 008a C0E7     		b	.L50
 639              	.L58:
 237:Drivers/STM32F7xx_HAL_Driver/Src/stm32f7xx_hal_rtc.c ****     
 640              		.loc 1 237 0
 641 008c 2368     		ldr	r3, [r4]
 642 008e FF22     		movs	r2, #255
 643 0090 5A62     		str	r2, [r3, #36]
 240:Drivers/STM32F7xx_HAL_Driver/Src/stm32f7xx_hal_rtc.c ****     
 644              		.loc 1 240 0
 645 0092 0423     		movs	r3, #4
 646 0094 6377     		strb	r3, [r4, #29]
 242:Drivers/STM32F7xx_HAL_Driver/Src/stm32f7xx_hal_rtc.c ****   } 
 647              		.loc 1 242 0
 648 0096 0122     		movs	r2, #1
 649 0098 F2E7     		b	.L49
 650              	.LVL47:
 651              	.L52:
 652              	.LCFI6:
 653              		.cfi_def_cfa_offset 0
 654              		.cfi_restore 3
 655              		.cfi_restore 4
 656              		.cfi_restore 5
 657              		.cfi_restore 14
 207:Drivers/STM32F7xx_HAL_Driver/Src/stm32f7xx_hal_rtc.c ****   }
 658              		.loc 1 207 0
 659 009a 0122     		movs	r2, #1
 269:Drivers/STM32F7xx_HAL_Driver/Src/stm32f7xx_hal_rtc.c **** 
 660              		.loc 1 269 0
 661 009c 1046     		mov	r0, r2
 662              	.LVL48:
 663 009e 7047     		bx	lr
 664              	.L60:
 665              		.align	2
 666              	.L59:
 667 00a0 BFFF8FFF 		.word	-7340097
 668              		.cfi_endproc
 669              	.LFE136:
 671              		.section	.text.HAL_RTC_DeInit,"ax",%progbits
 672              		.align	1
 673              		.global	HAL_RTC_DeInit
 674              		.syntax unified
 675              		.thumb
 676              		.thumb_func
 677              		.fpu fpv5-sp-d16
ARM GAS  C:\Users\Student\AppData\Local\Temp\ccDKlFGt.s 			page 40


 679              	HAL_RTC_DeInit:
 680              	.LFB137:
 279:Drivers/STM32F7xx_HAL_Driver/Src/stm32f7xx_hal_rtc.c ****   uint32_t tickstart = 0;
 681              		.loc 1 279 0
 682              		.cfi_startproc
 683              		@ args = 0, pretend = 0, frame = 0
 684              		@ frame_needed = 0, uses_anonymous_args = 0
 685              	.LVL49:
 686 0000 70B5     		push	{r4, r5, r6, lr}
 687              	.LCFI7:
 688              		.cfi_def_cfa_offset 16
 689              		.cfi_offset 4, -16
 690              		.cfi_offset 5, -12
 691              		.cfi_offset 6, -8
 692              		.cfi_offset 14, -4
 693 0002 0446     		mov	r4, r0
 694              	.LVL50:
 286:Drivers/STM32F7xx_HAL_Driver/Src/stm32f7xx_hal_rtc.c ****   
 695              		.loc 1 286 0
 696 0004 0223     		movs	r3, #2
 697 0006 4377     		strb	r3, [r0, #29]
 289:Drivers/STM32F7xx_HAL_Driver/Src/stm32f7xx_hal_rtc.c ****   
 698              		.loc 1 289 0
 699 0008 0368     		ldr	r3, [r0]
 700 000a CA22     		movs	r2, #202
 701 000c 5A62     		str	r2, [r3, #36]
 702 000e 0368     		ldr	r3, [r0]
 703 0010 5322     		movs	r2, #83
 704 0012 5A62     		str	r2, [r3, #36]
 292:Drivers/STM32F7xx_HAL_Driver/Src/stm32f7xx_hal_rtc.c ****   {
 705              		.loc 1 292 0
 706 0014 FFF7FEFF 		bl	RTC_EnterInitMode
 707              	.LVL51:
 708 0018 38B1     		cbz	r0, .L62
 295:Drivers/STM32F7xx_HAL_Driver/Src/stm32f7xx_hal_rtc.c ****     
 709              		.loc 1 295 0
 710 001a 2368     		ldr	r3, [r4]
 711 001c FF22     		movs	r2, #255
 712 001e 5A62     		str	r2, [r3, #36]
 298:Drivers/STM32F7xx_HAL_Driver/Src/stm32f7xx_hal_rtc.c ****     
 713              		.loc 1 298 0
 714 0020 0423     		movs	r3, #4
 715 0022 6377     		strb	r3, [r4, #29]
 300:Drivers/STM32F7xx_HAL_Driver/Src/stm32f7xx_hal_rtc.c ****   }  
 716              		.loc 1 300 0
 717 0024 0126     		movs	r6, #1
 718              	.LVL52:
 719              	.L63:
 375:Drivers/STM32F7xx_HAL_Driver/Src/stm32f7xx_hal_rtc.c **** 
 720              		.loc 1 375 0
 721 0026 3046     		mov	r0, r6
 722 0028 70BD     		pop	{r4, r5, r6, pc}
 723              	.LVL53:
 724              	.L62:
 725 002a 0646     		mov	r6, r0
 305:Drivers/STM32F7xx_HAL_Driver/Src/stm32f7xx_hal_rtc.c ****     hrtc->Instance->DR = (uint32_t)0x00002101;
 726              		.loc 1 305 0
ARM GAS  C:\Users\Student\AppData\Local\Temp\ccDKlFGt.s 			page 41


 727 002c 2368     		ldr	r3, [r4]
 728 002e 0022     		movs	r2, #0
 729 0030 1A60     		str	r2, [r3]
 306:Drivers/STM32F7xx_HAL_Driver/Src/stm32f7xx_hal_rtc.c ****     /* Reset All CR bits except CR[2:0] */
 730              		.loc 1 306 0
 731 0032 2368     		ldr	r3, [r4]
 732 0034 42F20112 		movw	r2, #8449
 733 0038 5A60     		str	r2, [r3, #4]
 308:Drivers/STM32F7xx_HAL_Driver/Src/stm32f7xx_hal_rtc.c **** 
 734              		.loc 1 308 0
 735 003a 2268     		ldr	r2, [r4]
 736 003c 9368     		ldr	r3, [r2, #8]
 737 003e 03F00703 		and	r3, r3, #7
 738 0042 9360     		str	r3, [r2, #8]
 311:Drivers/STM32F7xx_HAL_Driver/Src/stm32f7xx_hal_rtc.c **** 
 739              		.loc 1 311 0
 740 0044 FFF7FEFF 		bl	HAL_GetTick
 741              	.LVL54:
 742 0048 0546     		mov	r5, r0
 743              	.LVL55:
 744              	.L64:
 314:Drivers/STM32F7xx_HAL_Driver/Src/stm32f7xx_hal_rtc.c ****     {
 745              		.loc 1 314 0
 746 004a 2368     		ldr	r3, [r4]
 747 004c DA68     		ldr	r2, [r3, #12]
 748 004e 12F0040F 		tst	r2, #4
 749 0052 0BD1     		bne	.L68
 316:Drivers/STM32F7xx_HAL_Driver/Src/stm32f7xx_hal_rtc.c ****       { 
 750              		.loc 1 316 0
 751 0054 FFF7FEFF 		bl	HAL_GetTick
 752              	.LVL56:
 753 0058 401B     		subs	r0, r0, r5
 754 005a B0F57A7F 		cmp	r0, #1000
 755 005e F4D9     		bls	.L64
 319:Drivers/STM32F7xx_HAL_Driver/Src/stm32f7xx_hal_rtc.c ****         
 756              		.loc 1 319 0
 757 0060 2368     		ldr	r3, [r4]
 758 0062 FF22     		movs	r2, #255
 759 0064 5A62     		str	r2, [r3, #36]
 322:Drivers/STM32F7xx_HAL_Driver/Src/stm32f7xx_hal_rtc.c ****         
 760              		.loc 1 322 0
 761 0066 0326     		movs	r6, #3
 762 0068 6677     		strb	r6, [r4, #29]
 324:Drivers/STM32F7xx_HAL_Driver/Src/stm32f7xx_hal_rtc.c ****       }      
 763              		.loc 1 324 0
 764 006a DCE7     		b	.L63
 765              	.L68:
 329:Drivers/STM32F7xx_HAL_Driver/Src/stm32f7xx_hal_rtc.c ****     hrtc->Instance->WUTR = (uint32_t)0x0000FFFF;
 766              		.loc 1 329 0
 767 006c 9A68     		ldr	r2, [r3, #8]
 768 006e 0022     		movs	r2, #0
 769 0070 9A60     		str	r2, [r3, #8]
 330:Drivers/STM32F7xx_HAL_Driver/Src/stm32f7xx_hal_rtc.c ****     hrtc->Instance->PRER = (uint32_t)0x007F00FF;
 770              		.loc 1 330 0
 771 0072 2368     		ldr	r3, [r4]
 772 0074 4FF6FF71 		movw	r1, #65535
 773 0078 5961     		str	r1, [r3, #20]
ARM GAS  C:\Users\Student\AppData\Local\Temp\ccDKlFGt.s 			page 42


 331:Drivers/STM32F7xx_HAL_Driver/Src/stm32f7xx_hal_rtc.c ****     hrtc->Instance->ALRMAR = (uint32_t)0x00000000;
 774              		.loc 1 331 0
 775 007a 2368     		ldr	r3, [r4]
 776 007c 1649     		ldr	r1, .L70
 777 007e 1961     		str	r1, [r3, #16]
 332:Drivers/STM32F7xx_HAL_Driver/Src/stm32f7xx_hal_rtc.c ****     hrtc->Instance->ALRMBR = (uint32_t)0x00000000;
 778              		.loc 1 332 0
 779 0080 2368     		ldr	r3, [r4]
 780 0082 DA61     		str	r2, [r3, #28]
 333:Drivers/STM32F7xx_HAL_Driver/Src/stm32f7xx_hal_rtc.c ****     hrtc->Instance->SHIFTR = (uint32_t)0x00000000;
 781              		.loc 1 333 0
 782 0084 2368     		ldr	r3, [r4]
 783 0086 1A62     		str	r2, [r3, #32]
 334:Drivers/STM32F7xx_HAL_Driver/Src/stm32f7xx_hal_rtc.c ****     hrtc->Instance->CALR = (uint32_t)0x00000000;
 784              		.loc 1 334 0
 785 0088 2368     		ldr	r3, [r4]
 786 008a DA62     		str	r2, [r3, #44]
 335:Drivers/STM32F7xx_HAL_Driver/Src/stm32f7xx_hal_rtc.c ****     hrtc->Instance->ALRMASSR = (uint32_t)0x00000000;
 787              		.loc 1 335 0
 788 008c 2368     		ldr	r3, [r4]
 789 008e DA63     		str	r2, [r3, #60]
 336:Drivers/STM32F7xx_HAL_Driver/Src/stm32f7xx_hal_rtc.c ****     hrtc->Instance->ALRMBSSR = (uint32_t)0x00000000;
 790              		.loc 1 336 0
 791 0090 2368     		ldr	r3, [r4]
 792 0092 5A64     		str	r2, [r3, #68]
 337:Drivers/STM32F7xx_HAL_Driver/Src/stm32f7xx_hal_rtc.c ****     
 793              		.loc 1 337 0
 794 0094 2368     		ldr	r3, [r4]
 795 0096 9A64     		str	r2, [r3, #72]
 340:Drivers/STM32F7xx_HAL_Driver/Src/stm32f7xx_hal_rtc.c ****     
 796              		.loc 1 340 0
 797 0098 2368     		ldr	r3, [r4]
 798 009a DA60     		str	r2, [r3, #12]
 343:Drivers/STM32F7xx_HAL_Driver/Src/stm32f7xx_hal_rtc.c ****     
 799              		.loc 1 343 0
 800 009c 2368     		ldr	r3, [r4]
 801 009e 1A64     		str	r2, [r3, #64]
 346:Drivers/STM32F7xx_HAL_Driver/Src/stm32f7xx_hal_rtc.c ****     
 802              		.loc 1 346 0
 803 00a0 2368     		ldr	r3, [r4]
 804 00a2 DA64     		str	r2, [r3, #76]
 349:Drivers/STM32F7xx_HAL_Driver/Src/stm32f7xx_hal_rtc.c ****     {
 805              		.loc 1 349 0
 806 00a4 2368     		ldr	r3, [r4]
 807 00a6 9B68     		ldr	r3, [r3, #8]
 808 00a8 13F0200F 		tst	r3, #32
 809 00ac 03D1     		bne	.L66
 351:Drivers/STM32F7xx_HAL_Driver/Src/stm32f7xx_hal_rtc.c ****       {
 810              		.loc 1 351 0
 811 00ae 2046     		mov	r0, r4
 812 00b0 FFF7FEFF 		bl	HAL_RTC_WaitForSynchro
 813              	.LVL57:
 814 00b4 48B9     		cbnz	r0, .L69
 815              	.L66:
 364:Drivers/STM32F7xx_HAL_Driver/Src/stm32f7xx_hal_rtc.c ****   
 816              		.loc 1 364 0
 817 00b6 2368     		ldr	r3, [r4]
ARM GAS  C:\Users\Student\AppData\Local\Temp\ccDKlFGt.s 			page 43


 818 00b8 FF22     		movs	r2, #255
 819 00ba 5A62     		str	r2, [r3, #36]
 367:Drivers/STM32F7xx_HAL_Driver/Src/stm32f7xx_hal_rtc.c ****   
 820              		.loc 1 367 0
 821 00bc 2046     		mov	r0, r4
 822 00be FFF7FEFF 		bl	HAL_RTC_MspDeInit
 823              	.LVL58:
 369:Drivers/STM32F7xx_HAL_Driver/Src/stm32f7xx_hal_rtc.c **** 
 824              		.loc 1 369 0
 825 00c2 0023     		movs	r3, #0
 826 00c4 6377     		strb	r3, [r4, #29]
 372:Drivers/STM32F7xx_HAL_Driver/Src/stm32f7xx_hal_rtc.c **** 
 827              		.loc 1 372 0
 828 00c6 2377     		strb	r3, [r4, #28]
 374:Drivers/STM32F7xx_HAL_Driver/Src/stm32f7xx_hal_rtc.c **** }
 829              		.loc 1 374 0
 830 00c8 ADE7     		b	.L63
 831              	.L69:
 354:Drivers/STM32F7xx_HAL_Driver/Src/stm32f7xx_hal_rtc.c ****         
 832              		.loc 1 354 0
 833 00ca 2368     		ldr	r3, [r4]
 834 00cc FF22     		movs	r2, #255
 835 00ce 5A62     		str	r2, [r3, #36]
 356:Drivers/STM32F7xx_HAL_Driver/Src/stm32f7xx_hal_rtc.c ****         
 836              		.loc 1 356 0
 837 00d0 0423     		movs	r3, #4
 838 00d2 6377     		strb	r3, [r4, #29]
 358:Drivers/STM32F7xx_HAL_Driver/Src/stm32f7xx_hal_rtc.c ****       }
 839              		.loc 1 358 0
 840 00d4 0126     		movs	r6, #1
 841 00d6 A6E7     		b	.L63
 842              	.L71:
 843              		.align	2
 844              	.L70:
 845 00d8 FF007F00 		.word	8323327
 846              		.cfi_endproc
 847              	.LFE137:
 849              		.section	.text.RTC_ByteToBcd2,"ax",%progbits
 850              		.align	1
 851              		.global	RTC_ByteToBcd2
 852              		.syntax unified
 853              		.thumb
 854              		.thumb_func
 855              		.fpu fpv5-sp-d16
 857              	RTC_ByteToBcd2:
 858              	.LFB154:
1514:Drivers/STM32F7xx_HAL_Driver/Src/stm32f7xx_hal_rtc.c **** 
1515:Drivers/STM32F7xx_HAL_Driver/Src/stm32f7xx_hal_rtc.c **** 
1516:Drivers/STM32F7xx_HAL_Driver/Src/stm32f7xx_hal_rtc.c **** /**
1517:Drivers/STM32F7xx_HAL_Driver/Src/stm32f7xx_hal_rtc.c ****   * @brief  Converts a 2 digit decimal to BCD format.
1518:Drivers/STM32F7xx_HAL_Driver/Src/stm32f7xx_hal_rtc.c ****   * @param  Value Byte to be converted
1519:Drivers/STM32F7xx_HAL_Driver/Src/stm32f7xx_hal_rtc.c ****   * @retval Converted byte
1520:Drivers/STM32F7xx_HAL_Driver/Src/stm32f7xx_hal_rtc.c ****   */
1521:Drivers/STM32F7xx_HAL_Driver/Src/stm32f7xx_hal_rtc.c **** uint8_t RTC_ByteToBcd2(uint8_t Value)
1522:Drivers/STM32F7xx_HAL_Driver/Src/stm32f7xx_hal_rtc.c **** {
 859              		.loc 1 1522 0
 860              		.cfi_startproc
ARM GAS  C:\Users\Student\AppData\Local\Temp\ccDKlFGt.s 			page 44


 861              		@ args = 0, pretend = 0, frame = 0
 862              		@ frame_needed = 0, uses_anonymous_args = 0
 863              		@ link register save eliminated.
 864              	.LVL59:
1523:Drivers/STM32F7xx_HAL_Driver/Src/stm32f7xx_hal_rtc.c ****   uint32_t bcdhigh = 0;
 865              		.loc 1 1523 0
 866 0000 0023     		movs	r3, #0
1524:Drivers/STM32F7xx_HAL_Driver/Src/stm32f7xx_hal_rtc.c ****   
1525:Drivers/STM32F7xx_HAL_Driver/Src/stm32f7xx_hal_rtc.c ****   while(Value >= 10)
 867              		.loc 1 1525 0
 868 0002 02E0     		b	.L73
 869              	.LVL60:
 870              	.L74:
1526:Drivers/STM32F7xx_HAL_Driver/Src/stm32f7xx_hal_rtc.c ****   {
1527:Drivers/STM32F7xx_HAL_Driver/Src/stm32f7xx_hal_rtc.c ****     bcdhigh++;
 871              		.loc 1 1527 0
 872 0004 0133     		adds	r3, r3, #1
 873              	.LVL61:
1528:Drivers/STM32F7xx_HAL_Driver/Src/stm32f7xx_hal_rtc.c ****     Value -= 10;
 874              		.loc 1 1528 0
 875 0006 0A38     		subs	r0, r0, #10
 876              	.LVL62:
 877 0008 C0B2     		uxtb	r0, r0
 878              	.LVL63:
 879              	.L73:
1525:Drivers/STM32F7xx_HAL_Driver/Src/stm32f7xx_hal_rtc.c ****   {
 880              		.loc 1 1525 0
 881 000a 0928     		cmp	r0, #9
 882 000c FAD8     		bhi	.L74
1529:Drivers/STM32F7xx_HAL_Driver/Src/stm32f7xx_hal_rtc.c ****   }
1530:Drivers/STM32F7xx_HAL_Driver/Src/stm32f7xx_hal_rtc.c ****   
1531:Drivers/STM32F7xx_HAL_Driver/Src/stm32f7xx_hal_rtc.c ****   return  ((uint8_t)(bcdhigh << 4) | Value);
 883              		.loc 1 1531 0
 884 000e 1B01     		lsls	r3, r3, #4
 885              	.LVL64:
 886 0010 DBB2     		uxtb	r3, r3
1532:Drivers/STM32F7xx_HAL_Driver/Src/stm32f7xx_hal_rtc.c **** }
 887              		.loc 1 1532 0
 888 0012 1843     		orrs	r0, r0, r3
 889              	.LVL65:
 890 0014 7047     		bx	lr
 891              		.cfi_endproc
 892              	.LFE154:
 894              		.section	.text.HAL_RTC_SetDate,"ax",%progbits
 895              		.align	1
 896              		.global	HAL_RTC_SetDate
 897              		.syntax unified
 898              		.thumb
 899              		.thumb_func
 900              		.fpu fpv5-sp-d16
 902              	HAL_RTC_SetDate:
 903              	.LFB142:
 619:Drivers/STM32F7xx_HAL_Driver/Src/stm32f7xx_hal_rtc.c ****   uint32_t datetmpreg = 0;
 904              		.loc 1 619 0
 905              		.cfi_startproc
 906              		@ args = 0, pretend = 0, frame = 0
 907              		@ frame_needed = 0, uses_anonymous_args = 0
ARM GAS  C:\Users\Student\AppData\Local\Temp\ccDKlFGt.s 			page 45


 908              	.LVL66:
 909 0000 70B5     		push	{r4, r5, r6, lr}
 910              	.LCFI8:
 911              		.cfi_def_cfa_offset 16
 912              		.cfi_offset 4, -16
 913              		.cfi_offset 5, -12
 914              		.cfi_offset 6, -8
 915              		.cfi_offset 14, -4
 916              	.LVL67:
 626:Drivers/STM32F7xx_HAL_Driver/Src/stm32f7xx_hal_rtc.c ****   
 917              		.loc 1 626 0
 918 0002 037F     		ldrb	r3, [r0, #28]	@ zero_extendqisi2
 919 0004 012B     		cmp	r3, #1
 920 0006 63D0     		beq	.L82
 626:Drivers/STM32F7xx_HAL_Driver/Src/stm32f7xx_hal_rtc.c ****   
 921              		.loc 1 626 0 is_stmt 0 discriminator 2
 922 0008 0123     		movs	r3, #1
 923 000a 0377     		strb	r3, [r0, #28]
 628:Drivers/STM32F7xx_HAL_Driver/Src/stm32f7xx_hal_rtc.c ****   
 924              		.loc 1 628 0 is_stmt 1 discriminator 2
 925 000c 0223     		movs	r3, #2
 926 000e 4377     		strb	r3, [r0, #29]
 630:Drivers/STM32F7xx_HAL_Driver/Src/stm32f7xx_hal_rtc.c ****   {
 927              		.loc 1 630 0 discriminator 2
 928 0010 3AB9     		cbnz	r2, .L77
 630:Drivers/STM32F7xx_HAL_Driver/Src/stm32f7xx_hal_rtc.c ****   {
 929              		.loc 1 630 0 is_stmt 0 discriminator 1
 930 0012 4B78     		ldrb	r3, [r1, #1]	@ zero_extendqisi2
 931 0014 13F0100F 		tst	r3, #16
 932 0018 03D0     		beq	.L77
 632:Drivers/STM32F7xx_HAL_Driver/Src/stm32f7xx_hal_rtc.c ****   }
 933              		.loc 1 632 0 is_stmt 1
 934 001a 03F0EF03 		and	r3, r3, #239
 935 001e 0A33     		adds	r3, r3, #10
 936 0020 4B70     		strb	r3, [r1, #1]
 937              	.L77:
 938 0022 0E46     		mov	r6, r1
 939 0024 0446     		mov	r4, r0
 637:Drivers/STM32F7xx_HAL_Driver/Src/stm32f7xx_hal_rtc.c ****   {   
 940              		.loc 1 637 0
 941 0026 002A     		cmp	r2, #0
 942 0028 30D1     		bne	.L78
 643:Drivers/STM32F7xx_HAL_Driver/Src/stm32f7xx_hal_rtc.c ****                  ((uint32_t)RTC_ByteToBcd2(sDate->Month) << 8) | \
 943              		.loc 1 643 0
 944 002a C878     		ldrb	r0, [r1, #3]	@ zero_extendqisi2
 945              	.LVL68:
 946 002c FFF7FEFF 		bl	RTC_ByteToBcd2
 947              	.LVL69:
 948 0030 0504     		lsls	r5, r0, #16
 644:Drivers/STM32F7xx_HAL_Driver/Src/stm32f7xx_hal_rtc.c ****                  ((uint32_t)RTC_ByteToBcd2(sDate->Date)) | \
 949              		.loc 1 644 0
 950 0032 7078     		ldrb	r0, [r6, #1]	@ zero_extendqisi2
 951 0034 FFF7FEFF 		bl	RTC_ByteToBcd2
 952              	.LVL70:
 643:Drivers/STM32F7xx_HAL_Driver/Src/stm32f7xx_hal_rtc.c ****                  ((uint32_t)RTC_ByteToBcd2(sDate->Month) << 8) | \
 953              		.loc 1 643 0
 954 0038 45EA0025 		orr	r5, r5, r0, lsl #8
ARM GAS  C:\Users\Student\AppData\Local\Temp\ccDKlFGt.s 			page 46


 645:Drivers/STM32F7xx_HAL_Driver/Src/stm32f7xx_hal_rtc.c ****                  ((uint32_t)sDate->WeekDay << 13));   
 955              		.loc 1 645 0
 956 003c B078     		ldrb	r0, [r6, #2]	@ zero_extendqisi2
 957 003e FFF7FEFF 		bl	RTC_ByteToBcd2
 958              	.LVL71:
 644:Drivers/STM32F7xx_HAL_Driver/Src/stm32f7xx_hal_rtc.c ****                  ((uint32_t)RTC_ByteToBcd2(sDate->Date)) | \
 959              		.loc 1 644 0
 960 0042 0543     		orrs	r5, r5, r0
 646:Drivers/STM32F7xx_HAL_Driver/Src/stm32f7xx_hal_rtc.c ****   }
 961              		.loc 1 646 0
 962 0044 3078     		ldrb	r0, [r6]	@ zero_extendqisi2
 643:Drivers/STM32F7xx_HAL_Driver/Src/stm32f7xx_hal_rtc.c ****                  ((uint32_t)RTC_ByteToBcd2(sDate->Month) << 8) | \
 963              		.loc 1 643 0
 964 0046 45EA4035 		orr	r5, r5, r0, lsl #13
 965              	.LVL72:
 966              	.L79:
 661:Drivers/STM32F7xx_HAL_Driver/Src/stm32f7xx_hal_rtc.c ****   
 967              		.loc 1 661 0
 968 004a 2368     		ldr	r3, [r4]
 969 004c CA22     		movs	r2, #202
 970 004e 5A62     		str	r2, [r3, #36]
 971 0050 2368     		ldr	r3, [r4]
 972 0052 5322     		movs	r2, #83
 973 0054 5A62     		str	r2, [r3, #36]
 664:Drivers/STM32F7xx_HAL_Driver/Src/stm32f7xx_hal_rtc.c ****   {
 974              		.loc 1 664 0
 975 0056 2046     		mov	r0, r4
 976 0058 FFF7FEFF 		bl	RTC_EnterInitMode
 977              	.LVL73:
 978 005c 0646     		mov	r6, r0
 979              	.LVL74:
 980 005e 00BB     		cbnz	r0, .L84
 680:Drivers/STM32F7xx_HAL_Driver/Src/stm32f7xx_hal_rtc.c ****     
 981              		.loc 1 680 0
 982 0060 2268     		ldr	r2, [r4]
 983 0062 1D4B     		ldr	r3, .L86
 984 0064 2B40     		ands	r3, r3, r5
 985 0066 5360     		str	r3, [r2, #4]
 683:Drivers/STM32F7xx_HAL_Driver/Src/stm32f7xx_hal_rtc.c ****     
 986              		.loc 1 683 0
 987 0068 2268     		ldr	r2, [r4]
 988 006a D368     		ldr	r3, [r2, #12]
 989 006c 23F08003 		bic	r3, r3, #128
 990 0070 D360     		str	r3, [r2, #12]
 686:Drivers/STM32F7xx_HAL_Driver/Src/stm32f7xx_hal_rtc.c ****     {
 991              		.loc 1 686 0
 992 0072 2368     		ldr	r3, [r4]
 993 0074 9B68     		ldr	r3, [r3, #8]
 994 0076 13F0200F 		tst	r3, #32
 995 007a 1BD0     		beq	.L85
 996              	.L81:
 703:Drivers/STM32F7xx_HAL_Driver/Src/stm32f7xx_hal_rtc.c ****     
 997              		.loc 1 703 0
 998 007c 2368     		ldr	r3, [r4]
 999 007e FF22     		movs	r2, #255
 1000 0080 5A62     		str	r2, [r3, #36]
 705:Drivers/STM32F7xx_HAL_Driver/Src/stm32f7xx_hal_rtc.c ****     
ARM GAS  C:\Users\Student\AppData\Local\Temp\ccDKlFGt.s 			page 47


 1001              		.loc 1 705 0
 1002 0082 0123     		movs	r3, #1
 1003 0084 6377     		strb	r3, [r4, #29]
 708:Drivers/STM32F7xx_HAL_Driver/Src/stm32f7xx_hal_rtc.c ****     
 1004              		.loc 1 708 0
 1005 0086 0023     		movs	r3, #0
 1006 0088 2377     		strb	r3, [r4, #28]
 710:Drivers/STM32F7xx_HAL_Driver/Src/stm32f7xx_hal_rtc.c ****   }
 1007              		.loc 1 710 0
 1008 008a 22E0     		b	.L76
 1009              	.LVL75:
 1010              	.L78:
 654:Drivers/STM32F7xx_HAL_Driver/Src/stm32f7xx_hal_rtc.c ****                   (((uint32_t)sDate->Month) << 8) | \
 1011              		.loc 1 654 0
 1012 008c C878     		ldrb	r0, [r1, #3]	@ zero_extendqisi2
 1013              	.LVL76:
 655:Drivers/STM32F7xx_HAL_Driver/Src/stm32f7xx_hal_rtc.c ****                   ((uint32_t)sDate->Date) | \
 1014              		.loc 1 655 0
 1015 008e 4D78     		ldrb	r5, [r1, #1]	@ zero_extendqisi2
 1016 0090 2D02     		lsls	r5, r5, #8
 654:Drivers/STM32F7xx_HAL_Driver/Src/stm32f7xx_hal_rtc.c ****                   (((uint32_t)sDate->Month) << 8) | \
 1017              		.loc 1 654 0
 1018 0092 45EA0045 		orr	r5, r5, r0, lsl #16
 656:Drivers/STM32F7xx_HAL_Driver/Src/stm32f7xx_hal_rtc.c ****                   (((uint32_t)sDate->WeekDay) << 13));  
 1019              		.loc 1 656 0
 1020 0096 8878     		ldrb	r0, [r1, #2]	@ zero_extendqisi2
 655:Drivers/STM32F7xx_HAL_Driver/Src/stm32f7xx_hal_rtc.c ****                   ((uint32_t)sDate->Date) | \
 1021              		.loc 1 655 0
 1022 0098 0543     		orrs	r5, r5, r0
 657:Drivers/STM32F7xx_HAL_Driver/Src/stm32f7xx_hal_rtc.c ****   }
 1023              		.loc 1 657 0
 1024 009a 0878     		ldrb	r0, [r1]	@ zero_extendqisi2
 654:Drivers/STM32F7xx_HAL_Driver/Src/stm32f7xx_hal_rtc.c ****                   (((uint32_t)sDate->Month) << 8) | \
 1025              		.loc 1 654 0
 1026 009c 45EA4035 		orr	r5, r5, r0, lsl #13
 1027              	.LVL77:
 1028 00a0 D3E7     		b	.L79
 1029              	.LVL78:
 1030              	.L84:
 667:Drivers/STM32F7xx_HAL_Driver/Src/stm32f7xx_hal_rtc.c ****     
 1031              		.loc 1 667 0
 1032 00a2 2368     		ldr	r3, [r4]
 1033 00a4 FF22     		movs	r2, #255
 1034 00a6 5A62     		str	r2, [r3, #36]
 670:Drivers/STM32F7xx_HAL_Driver/Src/stm32f7xx_hal_rtc.c ****     
 1035              		.loc 1 670 0
 1036 00a8 0423     		movs	r3, #4
 1037 00aa 6377     		strb	r3, [r4, #29]
 673:Drivers/STM32F7xx_HAL_Driver/Src/stm32f7xx_hal_rtc.c ****     
 1038              		.loc 1 673 0
 1039 00ac 0023     		movs	r3, #0
 1040 00ae 2377     		strb	r3, [r4, #28]
 675:Drivers/STM32F7xx_HAL_Driver/Src/stm32f7xx_hal_rtc.c ****   } 
 1041              		.loc 1 675 0
 1042 00b0 0126     		movs	r6, #1
 1043 00b2 0EE0     		b	.L76
 1044              	.L85:
ARM GAS  C:\Users\Student\AppData\Local\Temp\ccDKlFGt.s 			page 48


 688:Drivers/STM32F7xx_HAL_Driver/Src/stm32f7xx_hal_rtc.c ****       { 
 1045              		.loc 1 688 0
 1046 00b4 2046     		mov	r0, r4
 1047 00b6 FFF7FEFF 		bl	HAL_RTC_WaitForSynchro
 1048              	.LVL79:
 1049 00ba 0028     		cmp	r0, #0
 1050 00bc DED0     		beq	.L81
 691:Drivers/STM32F7xx_HAL_Driver/Src/stm32f7xx_hal_rtc.c ****         
 1051              		.loc 1 691 0
 1052 00be 2368     		ldr	r3, [r4]
 1053 00c0 FF22     		movs	r2, #255
 1054 00c2 5A62     		str	r2, [r3, #36]
 693:Drivers/STM32F7xx_HAL_Driver/Src/stm32f7xx_hal_rtc.c ****         
 1055              		.loc 1 693 0
 1056 00c4 0423     		movs	r3, #4
 1057 00c6 6377     		strb	r3, [r4, #29]
 696:Drivers/STM32F7xx_HAL_Driver/Src/stm32f7xx_hal_rtc.c ****         
 1058              		.loc 1 696 0
 1059 00c8 0023     		movs	r3, #0
 1060 00ca 2377     		strb	r3, [r4, #28]
 698:Drivers/STM32F7xx_HAL_Driver/Src/stm32f7xx_hal_rtc.c ****       }
 1061              		.loc 1 698 0
 1062 00cc 0126     		movs	r6, #1
 1063 00ce 00E0     		b	.L76
 1064              	.LVL80:
 1065              	.L82:
 626:Drivers/STM32F7xx_HAL_Driver/Src/stm32f7xx_hal_rtc.c ****   
 1066              		.loc 1 626 0
 1067 00d0 0226     		movs	r6, #2
 1068              	.LVL81:
 1069              	.L76:
 712:Drivers/STM32F7xx_HAL_Driver/Src/stm32f7xx_hal_rtc.c **** 
 1070              		.loc 1 712 0
 1071 00d2 3046     		mov	r0, r6
 1072 00d4 70BD     		pop	{r4, r5, r6, pc}
 1073              	.L87:
 1074 00d6 00BF     		.align	2
 1075              	.L86:
 1076 00d8 3FFFFF00 		.word	16777023
 1077              		.cfi_endproc
 1078              	.LFE142:
 1080              		.section	.text.HAL_RTC_SetTime,"ax",%progbits
 1081              		.align	1
 1082              		.global	HAL_RTC_SetTime
 1083              		.syntax unified
 1084              		.thumb
 1085              		.thumb_func
 1086              		.fpu fpv5-sp-d16
 1088              	HAL_RTC_SetTime:
 1089              	.LFB140:
 439:Drivers/STM32F7xx_HAL_Driver/Src/stm32f7xx_hal_rtc.c ****   uint32_t tmpreg = 0;
 1090              		.loc 1 439 0
 1091              		.cfi_startproc
 1092              		@ args = 0, pretend = 0, frame = 0
 1093              		@ frame_needed = 0, uses_anonymous_args = 0
 1094              	.LVL82:
 1095 0000 F8B5     		push	{r3, r4, r5, r6, r7, lr}
ARM GAS  C:\Users\Student\AppData\Local\Temp\ccDKlFGt.s 			page 49


 1096              	.LCFI9:
 1097              		.cfi_def_cfa_offset 24
 1098              		.cfi_offset 3, -24
 1099              		.cfi_offset 4, -20
 1100              		.cfi_offset 5, -16
 1101              		.cfi_offset 6, -12
 1102              		.cfi_offset 7, -8
 1103              		.cfi_offset 14, -4
 1104              	.LVL83:
 448:Drivers/STM32F7xx_HAL_Driver/Src/stm32f7xx_hal_rtc.c ****   
 1105              		.loc 1 448 0
 1106 0002 037F     		ldrb	r3, [r0, #28]	@ zero_extendqisi2
 1107 0004 012B     		cmp	r3, #1
 1108 0006 75D0     		beq	.L96
 1109 0008 0E46     		mov	r6, r1
 1110 000a 0446     		mov	r4, r0
 448:Drivers/STM32F7xx_HAL_Driver/Src/stm32f7xx_hal_rtc.c ****   
 1111              		.loc 1 448 0 is_stmt 0 discriminator 2
 1112 000c 0123     		movs	r3, #1
 1113 000e 0377     		strb	r3, [r0, #28]
 450:Drivers/STM32F7xx_HAL_Driver/Src/stm32f7xx_hal_rtc.c ****   
 1114              		.loc 1 450 0 is_stmt 1 discriminator 2
 1115 0010 0223     		movs	r3, #2
 1116 0012 4377     		strb	r3, [r0, #29]
 452:Drivers/STM32F7xx_HAL_Driver/Src/stm32f7xx_hal_rtc.c ****   {
 1117              		.loc 1 452 0 discriminator 2
 1118 0014 002A     		cmp	r2, #0
 1119 0016 44D1     		bne	.L90
 454:Drivers/STM32F7xx_HAL_Driver/Src/stm32f7xx_hal_rtc.c ****     {
 1120              		.loc 1 454 0
 1121 0018 0368     		ldr	r3, [r0]
 1122 001a 9B68     		ldr	r3, [r3, #8]
 1123 001c 13F0400F 		tst	r3, #64
 1124 0020 01D1     		bne	.L91
 461:Drivers/STM32F7xx_HAL_Driver/Src/stm32f7xx_hal_rtc.c ****       assert_param(IS_RTC_HOUR24(sTime->Hours));
 1125              		.loc 1 461 0
 1126 0022 0023     		movs	r3, #0
 1127 0024 0B73     		strb	r3, [r1, #12]
 1128              	.L91:
 467:Drivers/STM32F7xx_HAL_Driver/Src/stm32f7xx_hal_rtc.c ****                         ((uint32_t)RTC_ByteToBcd2(sTime->Minutes) << 8) | \
 1129              		.loc 1 467 0
 1130 0026 3078     		ldrb	r0, [r6]	@ zero_extendqisi2
 1131              	.LVL84:
 1132 0028 FFF7FEFF 		bl	RTC_ByteToBcd2
 1133              	.LVL85:
 1134 002c 0504     		lsls	r5, r0, #16
 468:Drivers/STM32F7xx_HAL_Driver/Src/stm32f7xx_hal_rtc.c ****                         ((uint32_t)RTC_ByteToBcd2(sTime->Seconds)) | \
 1135              		.loc 1 468 0
 1136 002e 7078     		ldrb	r0, [r6, #1]	@ zero_extendqisi2
 1137 0030 FFF7FEFF 		bl	RTC_ByteToBcd2
 1138              	.LVL86:
 467:Drivers/STM32F7xx_HAL_Driver/Src/stm32f7xx_hal_rtc.c ****                         ((uint32_t)RTC_ByteToBcd2(sTime->Minutes) << 8) | \
 1139              		.loc 1 467 0
 1140 0034 45EA0025 		orr	r5, r5, r0, lsl #8
 469:Drivers/STM32F7xx_HAL_Driver/Src/stm32f7xx_hal_rtc.c ****                         (((uint32_t)sTime->TimeFormat) << 16));  
 1141              		.loc 1 469 0
 1142 0038 B078     		ldrb	r0, [r6, #2]	@ zero_extendqisi2
ARM GAS  C:\Users\Student\AppData\Local\Temp\ccDKlFGt.s 			page 50


 1143 003a FFF7FEFF 		bl	RTC_ByteToBcd2
 1144              	.LVL87:
 468:Drivers/STM32F7xx_HAL_Driver/Src/stm32f7xx_hal_rtc.c ****                         ((uint32_t)RTC_ByteToBcd2(sTime->Seconds)) | \
 1145              		.loc 1 468 0
 1146 003e 0543     		orrs	r5, r5, r0
 470:Drivers/STM32F7xx_HAL_Driver/Src/stm32f7xx_hal_rtc.c ****   }
 1147              		.loc 1 470 0
 1148 0040 307B     		ldrb	r0, [r6, #12]	@ zero_extendqisi2
 467:Drivers/STM32F7xx_HAL_Driver/Src/stm32f7xx_hal_rtc.c ****                         ((uint32_t)RTC_ByteToBcd2(sTime->Minutes) << 8) | \
 1149              		.loc 1 467 0
 1150 0042 45EA0045 		orr	r5, r5, r0, lsl #16
 1151              	.LVL88:
 1152              	.L92:
 494:Drivers/STM32F7xx_HAL_Driver/Src/stm32f7xx_hal_rtc.c ****   
 1153              		.loc 1 494 0
 1154 0046 2368     		ldr	r3, [r4]
 1155 0048 CA22     		movs	r2, #202
 1156 004a 5A62     		str	r2, [r3, #36]
 1157 004c 2368     		ldr	r3, [r4]
 1158 004e 5322     		movs	r2, #83
 1159 0050 5A62     		str	r2, [r3, #36]
 497:Drivers/STM32F7xx_HAL_Driver/Src/stm32f7xx_hal_rtc.c ****   {
 1160              		.loc 1 497 0
 1161 0052 2046     		mov	r0, r4
 1162 0054 FFF7FEFF 		bl	RTC_EnterInitMode
 1163              	.LVL89:
 1164 0058 0746     		mov	r7, r0
 1165 005a 0028     		cmp	r0, #0
 1166 005c 33D1     		bne	.L98
 513:Drivers/STM32F7xx_HAL_Driver/Src/stm32f7xx_hal_rtc.c ****      
 1167              		.loc 1 513 0
 1168 005e 2268     		ldr	r2, [r4]
 1169 0060 264B     		ldr	r3, .L100
 1170 0062 2B40     		ands	r3, r3, r5
 1171 0064 1360     		str	r3, [r2]
 516:Drivers/STM32F7xx_HAL_Driver/Src/stm32f7xx_hal_rtc.c ****     
 1172              		.loc 1 516 0
 1173 0066 2268     		ldr	r2, [r4]
 1174 0068 9368     		ldr	r3, [r2, #8]
 1175 006a 23F48023 		bic	r3, r3, #262144
 1176 006e 9360     		str	r3, [r2, #8]
 519:Drivers/STM32F7xx_HAL_Driver/Src/stm32f7xx_hal_rtc.c ****     
 1177              		.loc 1 519 0
 1178 0070 2168     		ldr	r1, [r4]
 1179 0072 8B68     		ldr	r3, [r1, #8]
 1180 0074 3269     		ldr	r2, [r6, #16]
 1181 0076 7069     		ldr	r0, [r6, #20]
 1182 0078 0243     		orrs	r2, r2, r0
 1183 007a 1343     		orrs	r3, r3, r2
 1184 007c 8B60     		str	r3, [r1, #8]
 522:Drivers/STM32F7xx_HAL_Driver/Src/stm32f7xx_hal_rtc.c ****     
 1185              		.loc 1 522 0
 1186 007e 2268     		ldr	r2, [r4]
 1187 0080 D368     		ldr	r3, [r2, #12]
 1188 0082 23F08003 		bic	r3, r3, #128
 1189 0086 D360     		str	r3, [r2, #12]
 525:Drivers/STM32F7xx_HAL_Driver/Src/stm32f7xx_hal_rtc.c ****     {
ARM GAS  C:\Users\Student\AppData\Local\Temp\ccDKlFGt.s 			page 51


 1190              		.loc 1 525 0
 1191 0088 2368     		ldr	r3, [r4]
 1192 008a 9B68     		ldr	r3, [r3, #8]
 1193 008c 13F0200F 		tst	r3, #32
 1194 0090 22D0     		beq	.L99
 1195              	.L95:
 542:Drivers/STM32F7xx_HAL_Driver/Src/stm32f7xx_hal_rtc.c ****     
 1196              		.loc 1 542 0
 1197 0092 2368     		ldr	r3, [r4]
 1198 0094 FF22     		movs	r2, #255
 1199 0096 5A62     		str	r2, [r3, #36]
 544:Drivers/STM32F7xx_HAL_Driver/Src/stm32f7xx_hal_rtc.c ****   
 1200              		.loc 1 544 0
 1201 0098 0123     		movs	r3, #1
 1202 009a 6377     		strb	r3, [r4, #29]
 546:Drivers/STM32F7xx_HAL_Driver/Src/stm32f7xx_hal_rtc.c ****      
 1203              		.loc 1 546 0
 1204 009c 0023     		movs	r3, #0
 1205 009e 2377     		strb	r3, [r4, #28]
 548:Drivers/STM32F7xx_HAL_Driver/Src/stm32f7xx_hal_rtc.c ****   }
 1206              		.loc 1 548 0
 1207 00a0 29E0     		b	.L89
 1208              	.LVL90:
 1209              	.L90:
 474:Drivers/STM32F7xx_HAL_Driver/Src/stm32f7xx_hal_rtc.c ****     {
 1210              		.loc 1 474 0
 1211 00a2 0368     		ldr	r3, [r0]
 1212 00a4 9B68     		ldr	r3, [r3, #8]
 1213 00a6 13F0400F 		tst	r3, #64
 1214 00aa 01D1     		bne	.L93
 482:Drivers/STM32F7xx_HAL_Driver/Src/stm32f7xx_hal_rtc.c ****       assert_param(IS_RTC_HOUR24(RTC_Bcd2ToByte(sTime->Hours)));
 1215              		.loc 1 482 0
 1216 00ac 0023     		movs	r3, #0
 1217 00ae 0B73     		strb	r3, [r1, #12]
 1218              	.L93:
 487:Drivers/STM32F7xx_HAL_Driver/Src/stm32f7xx_hal_rtc.c ****               ((uint32_t)(sTime->Minutes) << 8) | \
 1219              		.loc 1 487 0
 1220 00b0 3078     		ldrb	r0, [r6]	@ zero_extendqisi2
 1221              	.LVL91:
 488:Drivers/STM32F7xx_HAL_Driver/Src/stm32f7xx_hal_rtc.c ****               ((uint32_t)sTime->Seconds) | \
 1222              		.loc 1 488 0
 1223 00b2 7578     		ldrb	r5, [r6, #1]	@ zero_extendqisi2
 1224 00b4 2D02     		lsls	r5, r5, #8
 487:Drivers/STM32F7xx_HAL_Driver/Src/stm32f7xx_hal_rtc.c ****               ((uint32_t)(sTime->Minutes) << 8) | \
 1225              		.loc 1 487 0
 1226 00b6 45EA0045 		orr	r5, r5, r0, lsl #16
 489:Drivers/STM32F7xx_HAL_Driver/Src/stm32f7xx_hal_rtc.c ****               ((uint32_t)(sTime->TimeFormat) << 16));   
 1227              		.loc 1 489 0
 1228 00ba B078     		ldrb	r0, [r6, #2]	@ zero_extendqisi2
 488:Drivers/STM32F7xx_HAL_Driver/Src/stm32f7xx_hal_rtc.c ****               ((uint32_t)sTime->Seconds) | \
 1229              		.loc 1 488 0
 1230 00bc 0543     		orrs	r5, r5, r0
 490:Drivers/STM32F7xx_HAL_Driver/Src/stm32f7xx_hal_rtc.c ****   }
 1231              		.loc 1 490 0
 1232 00be 307B     		ldrb	r0, [r6, #12]	@ zero_extendqisi2
 487:Drivers/STM32F7xx_HAL_Driver/Src/stm32f7xx_hal_rtc.c ****               ((uint32_t)(sTime->Minutes) << 8) | \
 1233              		.loc 1 487 0
ARM GAS  C:\Users\Student\AppData\Local\Temp\ccDKlFGt.s 			page 52


 1234 00c0 45EA0045 		orr	r5, r5, r0, lsl #16
 1235              	.LVL92:
 1236 00c4 BFE7     		b	.L92
 1237              	.LVL93:
 1238              	.L98:
 500:Drivers/STM32F7xx_HAL_Driver/Src/stm32f7xx_hal_rtc.c ****     
 1239              		.loc 1 500 0
 1240 00c6 2368     		ldr	r3, [r4]
 1241 00c8 FF22     		movs	r2, #255
 1242 00ca 5A62     		str	r2, [r3, #36]
 503:Drivers/STM32F7xx_HAL_Driver/Src/stm32f7xx_hal_rtc.c ****     
 1243              		.loc 1 503 0
 1244 00cc 0423     		movs	r3, #4
 1245 00ce 6377     		strb	r3, [r4, #29]
 506:Drivers/STM32F7xx_HAL_Driver/Src/stm32f7xx_hal_rtc.c ****     
 1246              		.loc 1 506 0
 1247 00d0 0023     		movs	r3, #0
 1248 00d2 2377     		strb	r3, [r4, #28]
 508:Drivers/STM32F7xx_HAL_Driver/Src/stm32f7xx_hal_rtc.c ****   } 
 1249              		.loc 1 508 0
 1250 00d4 0127     		movs	r7, #1
 1251 00d6 0EE0     		b	.L89
 1252              	.L99:
 527:Drivers/STM32F7xx_HAL_Driver/Src/stm32f7xx_hal_rtc.c ****       {        
 1253              		.loc 1 527 0
 1254 00d8 2046     		mov	r0, r4
 1255 00da FFF7FEFF 		bl	HAL_RTC_WaitForSynchro
 1256              	.LVL94:
 1257 00de 0028     		cmp	r0, #0
 1258 00e0 D7D0     		beq	.L95
 530:Drivers/STM32F7xx_HAL_Driver/Src/stm32f7xx_hal_rtc.c ****         
 1259              		.loc 1 530 0
 1260 00e2 2368     		ldr	r3, [r4]
 1261 00e4 FF22     		movs	r2, #255
 1262 00e6 5A62     		str	r2, [r3, #36]
 532:Drivers/STM32F7xx_HAL_Driver/Src/stm32f7xx_hal_rtc.c ****         
 1263              		.loc 1 532 0
 1264 00e8 0423     		movs	r3, #4
 1265 00ea 6377     		strb	r3, [r4, #29]
 535:Drivers/STM32F7xx_HAL_Driver/Src/stm32f7xx_hal_rtc.c ****         
 1266              		.loc 1 535 0
 1267 00ec 0023     		movs	r3, #0
 1268 00ee 2377     		strb	r3, [r4, #28]
 537:Drivers/STM32F7xx_HAL_Driver/Src/stm32f7xx_hal_rtc.c ****       }
 1269              		.loc 1 537 0
 1270 00f0 0127     		movs	r7, #1
 1271 00f2 00E0     		b	.L89
 1272              	.LVL95:
 1273              	.L96:
 448:Drivers/STM32F7xx_HAL_Driver/Src/stm32f7xx_hal_rtc.c ****   
 1274              		.loc 1 448 0
 1275 00f4 0227     		movs	r7, #2
 1276              	.LVL96:
 1277              	.L89:
 550:Drivers/STM32F7xx_HAL_Driver/Src/stm32f7xx_hal_rtc.c **** 
 1278              		.loc 1 550 0
 1279 00f6 3846     		mov	r0, r7
ARM GAS  C:\Users\Student\AppData\Local\Temp\ccDKlFGt.s 			page 53


 1280 00f8 F8BD     		pop	{r3, r4, r5, r6, r7, pc}
 1281              	.L101:
 1282 00fa 00BF     		.align	2
 1283              	.L100:
 1284 00fc 7F7F7F00 		.word	8355711
 1285              		.cfi_endproc
 1286              	.LFE140:
 1288              		.section	.text.HAL_RTC_SetAlarm,"ax",%progbits
 1289              		.align	1
 1290              		.global	HAL_RTC_SetAlarm
 1291              		.syntax unified
 1292              		.thumb
 1293              		.thumb_func
 1294              		.fpu fpv5-sp-d16
 1296              	HAL_RTC_SetAlarm:
 1297              	.LFB144:
 784:Drivers/STM32F7xx_HAL_Driver/Src/stm32f7xx_hal_rtc.c ****   uint32_t tickstart = 0;
 1298              		.loc 1 784 0
 1299              		.cfi_startproc
 1300              		@ args = 0, pretend = 0, frame = 0
 1301              		@ frame_needed = 0, uses_anonymous_args = 0
 1302              	.LVL97:
 1303 0000 F8B5     		push	{r3, r4, r5, r6, r7, lr}
 1304              	.LCFI10:
 1305              		.cfi_def_cfa_offset 24
 1306              		.cfi_offset 3, -24
 1307              		.cfi_offset 4, -20
 1308              		.cfi_offset 5, -16
 1309              		.cfi_offset 6, -12
 1310              		.cfi_offset 7, -8
 1311              		.cfi_offset 14, -4
 1312              	.LVL98:
 797:Drivers/STM32F7xx_HAL_Driver/Src/stm32f7xx_hal_rtc.c ****   
 1313              		.loc 1 797 0
 1314 0002 037F     		ldrb	r3, [r0, #28]	@ zero_extendqisi2
 1315 0004 012B     		cmp	r3, #1
 1316 0006 00F0A980 		beq	.L114
 1317 000a 0D46     		mov	r5, r1
 1318 000c 0446     		mov	r4, r0
 797:Drivers/STM32F7xx_HAL_Driver/Src/stm32f7xx_hal_rtc.c ****   
 1319              		.loc 1 797 0 is_stmt 0 discriminator 2
 1320 000e 0123     		movs	r3, #1
 1321 0010 0377     		strb	r3, [r0, #28]
 799:Drivers/STM32F7xx_HAL_Driver/Src/stm32f7xx_hal_rtc.c ****   
 1322              		.loc 1 799 0 is_stmt 1 discriminator 2
 1323 0012 0223     		movs	r3, #2
 1324 0014 4377     		strb	r3, [r0, #29]
 801:Drivers/STM32F7xx_HAL_Driver/Src/stm32f7xx_hal_rtc.c ****   {
 1325              		.loc 1 801 0 discriminator 2
 1326 0016 002A     		cmp	r2, #0
 1327 0018 4DD1     		bne	.L104
 803:Drivers/STM32F7xx_HAL_Driver/Src/stm32f7xx_hal_rtc.c ****     {
 1328              		.loc 1 803 0
 1329 001a 0368     		ldr	r3, [r0]
 1330 001c 9B68     		ldr	r3, [r3, #8]
 1331 001e 13F0400F 		tst	r3, #64
 1332 0022 01D1     		bne	.L105
ARM GAS  C:\Users\Student\AppData\Local\Temp\ccDKlFGt.s 			page 54


 810:Drivers/STM32F7xx_HAL_Driver/Src/stm32f7xx_hal_rtc.c ****       assert_param(IS_RTC_HOUR24(sAlarm->AlarmTime.Hours));
 1333              		.loc 1 810 0
 1334 0024 0023     		movs	r3, #0
 1335 0026 0B73     		strb	r3, [r1, #12]
 1336              	.L105:
 816:Drivers/STM32F7xx_HAL_Driver/Src/stm32f7xx_hal_rtc.c ****     {
 1337              		.loc 1 816 0
 1338 0028 2E6A     		ldr	r6, [r5, #32]
 825:Drivers/STM32F7xx_HAL_Driver/Src/stm32f7xx_hal_rtc.c ****               ((uint32_t)RTC_ByteToBcd2(sAlarm->AlarmTime.Minutes) << 8) | \
 1339              		.loc 1 825 0
 1340 002a 2878     		ldrb	r0, [r5]	@ zero_extendqisi2
 1341              	.LVL99:
 1342 002c FFF7FEFF 		bl	RTC_ByteToBcd2
 1343              	.LVL100:
 1344 0030 0704     		lsls	r7, r0, #16
 826:Drivers/STM32F7xx_HAL_Driver/Src/stm32f7xx_hal_rtc.c ****               ((uint32_t)RTC_ByteToBcd2(sAlarm->AlarmTime.Seconds)) | \
 1345              		.loc 1 826 0
 1346 0032 6878     		ldrb	r0, [r5, #1]	@ zero_extendqisi2
 1347 0034 FFF7FEFF 		bl	RTC_ByteToBcd2
 1348              	.LVL101:
 825:Drivers/STM32F7xx_HAL_Driver/Src/stm32f7xx_hal_rtc.c ****               ((uint32_t)RTC_ByteToBcd2(sAlarm->AlarmTime.Minutes) << 8) | \
 1349              		.loc 1 825 0
 1350 0038 47EA0027 		orr	r7, r7, r0, lsl #8
 827:Drivers/STM32F7xx_HAL_Driver/Src/stm32f7xx_hal_rtc.c ****               ((uint32_t)(sAlarm->AlarmTime.TimeFormat) << 16) | \
 1351              		.loc 1 827 0
 1352 003c A878     		ldrb	r0, [r5, #2]	@ zero_extendqisi2
 1353 003e FFF7FEFF 		bl	RTC_ByteToBcd2
 1354              	.LVL102:
 826:Drivers/STM32F7xx_HAL_Driver/Src/stm32f7xx_hal_rtc.c ****               ((uint32_t)RTC_ByteToBcd2(sAlarm->AlarmTime.Seconds)) | \
 1355              		.loc 1 826 0
 1356 0042 0743     		orrs	r7, r7, r0
 828:Drivers/STM32F7xx_HAL_Driver/Src/stm32f7xx_hal_rtc.c ****               ((uint32_t)RTC_ByteToBcd2(sAlarm->AlarmDateWeekDay) << 24) | \
 1357              		.loc 1 828 0
 1358 0044 287B     		ldrb	r0, [r5, #12]	@ zero_extendqisi2
 827:Drivers/STM32F7xx_HAL_Driver/Src/stm32f7xx_hal_rtc.c ****               ((uint32_t)(sAlarm->AlarmTime.TimeFormat) << 16) | \
 1359              		.loc 1 827 0
 1360 0046 47EA0047 		orr	r7, r7, r0, lsl #16
 829:Drivers/STM32F7xx_HAL_Driver/Src/stm32f7xx_hal_rtc.c ****               ((uint32_t)sAlarm->AlarmDateWeekDaySel) | \
 1361              		.loc 1 829 0
 1362 004a 95F82400 		ldrb	r0, [r5, #36]	@ zero_extendqisi2
 1363 004e FFF7FEFF 		bl	RTC_ByteToBcd2
 1364              	.LVL103:
 828:Drivers/STM32F7xx_HAL_Driver/Src/stm32f7xx_hal_rtc.c ****               ((uint32_t)RTC_ByteToBcd2(sAlarm->AlarmDateWeekDay) << 24) | \
 1365              		.loc 1 828 0
 1366 0052 47EA0060 		orr	r0, r7, r0, lsl #24
 829:Drivers/STM32F7xx_HAL_Driver/Src/stm32f7xx_hal_rtc.c ****               ((uint32_t)sAlarm->AlarmDateWeekDaySel) | \
 1367              		.loc 1 829 0
 1368 0056 0643     		orrs	r6, r6, r0
 831:Drivers/STM32F7xx_HAL_Driver/Src/stm32f7xx_hal_rtc.c ****   }
 1369              		.loc 1 831 0
 1370 0058 AB69     		ldr	r3, [r5, #24]
 825:Drivers/STM32F7xx_HAL_Driver/Src/stm32f7xx_hal_rtc.c ****               ((uint32_t)RTC_ByteToBcd2(sAlarm->AlarmTime.Minutes) << 8) | \
 1371              		.loc 1 825 0
 1372 005a 1E43     		orrs	r6, r6, r3
 1373              	.LVL104:
 1374              	.L106:
 871:Drivers/STM32F7xx_HAL_Driver/Src/stm32f7xx_hal_rtc.c ****   
ARM GAS  C:\Users\Student\AppData\Local\Temp\ccDKlFGt.s 			page 55


 1375              		.loc 1 871 0
 1376 005c 6F68     		ldr	r7, [r5, #4]
 1377 005e EB69     		ldr	r3, [r5, #28]
 1378 0060 1F43     		orrs	r7, r7, r3
 1379              	.LVL105:
 874:Drivers/STM32F7xx_HAL_Driver/Src/stm32f7xx_hal_rtc.c **** 
 1380              		.loc 1 874 0
 1381 0062 2368     		ldr	r3, [r4]
 1382 0064 CA22     		movs	r2, #202
 1383 0066 5A62     		str	r2, [r3, #36]
 1384 0068 2368     		ldr	r3, [r4]
 1385 006a 5322     		movs	r2, #83
 1386 006c 5A62     		str	r2, [r3, #36]
 877:Drivers/STM32F7xx_HAL_Driver/Src/stm32f7xx_hal_rtc.c ****   {
 1387              		.loc 1 877 0
 1388 006e AB6A     		ldr	r3, [r5, #40]
 1389 0070 B3F5807F 		cmp	r3, #256
 1390 0074 39D0     		beq	.L116
 914:Drivers/STM32F7xx_HAL_Driver/Src/stm32f7xx_hal_rtc.c ****     
 1391              		.loc 1 914 0
 1392 0076 2268     		ldr	r2, [r4]
 1393 0078 9368     		ldr	r3, [r2, #8]
 1394 007a 23F40073 		bic	r3, r3, #512
 1395 007e 9360     		str	r3, [r2, #8]
 917:Drivers/STM32F7xx_HAL_Driver/Src/stm32f7xx_hal_rtc.c **** 
 1396              		.loc 1 917 0
 1397 0080 2268     		ldr	r2, [r4]
 1398 0082 9368     		ldr	r3, [r2, #8]
 1399 0084 23F40053 		bic	r3, r3, #8192
 1400 0088 9360     		str	r3, [r2, #8]
 920:Drivers/STM32F7xx_HAL_Driver/Src/stm32f7xx_hal_rtc.c **** 
 1401              		.loc 1 920 0
 1402 008a FFF7FEFF 		bl	HAL_GetTick
 1403              	.LVL106:
 1404 008e 0546     		mov	r5, r0
 1405              	.LVL107:
 1406              	.L112:
 923:Drivers/STM32F7xx_HAL_Driver/Src/stm32f7xx_hal_rtc.c ****     {
 1407              		.loc 1 923 0
 1408 0090 2368     		ldr	r3, [r4]
 1409 0092 DA68     		ldr	r2, [r3, #12]
 1410 0094 12F0020F 		tst	r2, #2
 1411 0098 50D1     		bne	.L117
 925:Drivers/STM32F7xx_HAL_Driver/Src/stm32f7xx_hal_rtc.c ****       {
 1412              		.loc 1 925 0
 1413 009a FFF7FEFF 		bl	HAL_GetTick
 1414              	.LVL108:
 1415 009e 401B     		subs	r0, r0, r5
 1416 00a0 B0F57A7F 		cmp	r0, #1000
 1417 00a4 F4D9     		bls	.L112
 928:Drivers/STM32F7xx_HAL_Driver/Src/stm32f7xx_hal_rtc.c ****         
 1418              		.loc 1 928 0
 1419 00a6 2368     		ldr	r3, [r4]
 1420 00a8 FF22     		movs	r2, #255
 1421 00aa 5A62     		str	r2, [r3, #36]
 930:Drivers/STM32F7xx_HAL_Driver/Src/stm32f7xx_hal_rtc.c ****         
 1422              		.loc 1 930 0
ARM GAS  C:\Users\Student\AppData\Local\Temp\ccDKlFGt.s 			page 56


 1423 00ac 0320     		movs	r0, #3
 1424 00ae 6077     		strb	r0, [r4, #29]
 933:Drivers/STM32F7xx_HAL_Driver/Src/stm32f7xx_hal_rtc.c ****         
 1425              		.loc 1 933 0
 1426 00b0 0023     		movs	r3, #0
 1427 00b2 2377     		strb	r3, [r4, #28]
 935:Drivers/STM32F7xx_HAL_Driver/Src/stm32f7xx_hal_rtc.c ****       }  
 1428              		.loc 1 935 0
 1429 00b4 F8BD     		pop	{r3, r4, r5, r6, r7, pc}
 1430              	.LVL109:
 1431              	.L104:
 835:Drivers/STM32F7xx_HAL_Driver/Src/stm32f7xx_hal_rtc.c ****     {
 1432              		.loc 1 835 0
 1433 00b6 0368     		ldr	r3, [r0]
 1434 00b8 9B68     		ldr	r3, [r3, #8]
 1435 00ba 13F0400F 		tst	r3, #64
 1436 00be 01D1     		bne	.L107
 843:Drivers/STM32F7xx_HAL_Driver/Src/stm32f7xx_hal_rtc.c ****       assert_param(IS_RTC_HOUR24(RTC_Bcd2ToByte(sAlarm->AlarmTime.Hours)));
 1437              		.loc 1 843 0
 1438 00c0 0023     		movs	r3, #0
 1439 00c2 0B73     		strb	r3, [r1, #12]
 1440              	.L107:
 850:Drivers/STM32F7xx_HAL_Driver/Src/stm32f7xx_hal_rtc.c ****     {
 1441              		.loc 1 850 0
 1442 00c4 2E6A     		ldr	r6, [r5, #32]
 861:Drivers/STM32F7xx_HAL_Driver/Src/stm32f7xx_hal_rtc.c ****               ((uint32_t)(sAlarm->AlarmTime.Minutes) << 8) | \
 1443              		.loc 1 861 0
 1444 00c6 2A78     		ldrb	r2, [r5]	@ zero_extendqisi2
 1445              	.LVL110:
 862:Drivers/STM32F7xx_HAL_Driver/Src/stm32f7xx_hal_rtc.c ****               ((uint32_t) sAlarm->AlarmTime.Seconds) | \
 1446              		.loc 1 862 0
 1447 00c8 6B78     		ldrb	r3, [r5, #1]	@ zero_extendqisi2
 1448 00ca 1B02     		lsls	r3, r3, #8
 861:Drivers/STM32F7xx_HAL_Driver/Src/stm32f7xx_hal_rtc.c ****               ((uint32_t)(sAlarm->AlarmTime.Minutes) << 8) | \
 1449              		.loc 1 861 0
 1450 00cc 43EA0243 		orr	r3, r3, r2, lsl #16
 863:Drivers/STM32F7xx_HAL_Driver/Src/stm32f7xx_hal_rtc.c ****               ((uint32_t)(sAlarm->AlarmTime.TimeFormat) << 16) | \
 1451              		.loc 1 863 0
 1452 00d0 AA78     		ldrb	r2, [r5, #2]	@ zero_extendqisi2
 862:Drivers/STM32F7xx_HAL_Driver/Src/stm32f7xx_hal_rtc.c ****               ((uint32_t) sAlarm->AlarmTime.Seconds) | \
 1453              		.loc 1 862 0
 1454 00d2 1343     		orrs	r3, r3, r2
 864:Drivers/STM32F7xx_HAL_Driver/Src/stm32f7xx_hal_rtc.c ****               ((uint32_t)(sAlarm->AlarmDateWeekDay) << 24) | \
 1455              		.loc 1 864 0
 1456 00d4 2A7B     		ldrb	r2, [r5, #12]	@ zero_extendqisi2
 863:Drivers/STM32F7xx_HAL_Driver/Src/stm32f7xx_hal_rtc.c ****               ((uint32_t)(sAlarm->AlarmTime.TimeFormat) << 16) | \
 1457              		.loc 1 863 0
 1458 00d6 43EA0243 		orr	r3, r3, r2, lsl #16
 865:Drivers/STM32F7xx_HAL_Driver/Src/stm32f7xx_hal_rtc.c ****               ((uint32_t)sAlarm->AlarmDateWeekDaySel) | \
 1459              		.loc 1 865 0
 1460 00da 95F82420 		ldrb	r2, [r5, #36]	@ zero_extendqisi2
 864:Drivers/STM32F7xx_HAL_Driver/Src/stm32f7xx_hal_rtc.c ****               ((uint32_t)(sAlarm->AlarmDateWeekDay) << 24) | \
 1461              		.loc 1 864 0
 1462 00de 43EA0263 		orr	r3, r3, r2, lsl #24
 865:Drivers/STM32F7xx_HAL_Driver/Src/stm32f7xx_hal_rtc.c ****               ((uint32_t)sAlarm->AlarmDateWeekDaySel) | \
 1463              		.loc 1 865 0
 1464 00e2 1E43     		orrs	r6, r6, r3
ARM GAS  C:\Users\Student\AppData\Local\Temp\ccDKlFGt.s 			page 57


 867:Drivers/STM32F7xx_HAL_Driver/Src/stm32f7xx_hal_rtc.c ****   }
 1465              		.loc 1 867 0
 1466 00e4 AB69     		ldr	r3, [r5, #24]
 861:Drivers/STM32F7xx_HAL_Driver/Src/stm32f7xx_hal_rtc.c ****               ((uint32_t)(sAlarm->AlarmTime.Minutes) << 8) | \
 1467              		.loc 1 861 0
 1468 00e6 1E43     		orrs	r6, r6, r3
 1469              	.LVL111:
 1470 00e8 B8E7     		b	.L106
 1471              	.LVL112:
 1472              	.L116:
 880:Drivers/STM32F7xx_HAL_Driver/Src/stm32f7xx_hal_rtc.c ****     
 1473              		.loc 1 880 0
 1474 00ea 2268     		ldr	r2, [r4]
 1475 00ec 9368     		ldr	r3, [r2, #8]
 1476 00ee 23F48073 		bic	r3, r3, #256
 1477 00f2 9360     		str	r3, [r2, #8]
 883:Drivers/STM32F7xx_HAL_Driver/Src/stm32f7xx_hal_rtc.c **** 
 1478              		.loc 1 883 0
 1479 00f4 2268     		ldr	r2, [r4]
 1480 00f6 9368     		ldr	r3, [r2, #8]
 1481 00f8 23F48053 		bic	r3, r3, #4096
 1482 00fc 9360     		str	r3, [r2, #8]
 886:Drivers/STM32F7xx_HAL_Driver/Src/stm32f7xx_hal_rtc.c **** 
 1483              		.loc 1 886 0
 1484 00fe FFF7FEFF 		bl	HAL_GetTick
 1485              	.LVL113:
 1486 0102 0546     		mov	r5, r0
 1487              	.LVL114:
 1488              	.L109:
 889:Drivers/STM32F7xx_HAL_Driver/Src/stm32f7xx_hal_rtc.c ****     {
 1489              		.loc 1 889 0
 1490 0104 2368     		ldr	r3, [r4]
 1491 0106 DA68     		ldr	r2, [r3, #12]
 1492 0108 12F0010F 		tst	r2, #1
 1493 010c 0DD1     		bne	.L118
 891:Drivers/STM32F7xx_HAL_Driver/Src/stm32f7xx_hal_rtc.c ****       {
 1494              		.loc 1 891 0
 1495 010e FFF7FEFF 		bl	HAL_GetTick
 1496              	.LVL115:
 1497 0112 401B     		subs	r0, r0, r5
 1498 0114 B0F57A7F 		cmp	r0, #1000
 1499 0118 F4D9     		bls	.L109
 894:Drivers/STM32F7xx_HAL_Driver/Src/stm32f7xx_hal_rtc.c ****         
 1500              		.loc 1 894 0
 1501 011a 2368     		ldr	r3, [r4]
 1502 011c FF22     		movs	r2, #255
 1503 011e 5A62     		str	r2, [r3, #36]
 896:Drivers/STM32F7xx_HAL_Driver/Src/stm32f7xx_hal_rtc.c ****         
 1504              		.loc 1 896 0
 1505 0120 0320     		movs	r0, #3
 1506 0122 6077     		strb	r0, [r4, #29]
 899:Drivers/STM32F7xx_HAL_Driver/Src/stm32f7xx_hal_rtc.c ****         
 1507              		.loc 1 899 0
 1508 0124 0023     		movs	r3, #0
 1509 0126 2377     		strb	r3, [r4, #28]
 901:Drivers/STM32F7xx_HAL_Driver/Src/stm32f7xx_hal_rtc.c ****       }   
 1510              		.loc 1 901 0
ARM GAS  C:\Users\Student\AppData\Local\Temp\ccDKlFGt.s 			page 58


 1511 0128 F8BD     		pop	{r3, r4, r5, r6, r7, pc}
 1512              	.LVL116:
 1513              	.L118:
 905:Drivers/STM32F7xx_HAL_Driver/Src/stm32f7xx_hal_rtc.c ****     /* Configure the Alarm A Sub Second register */
 1514              		.loc 1 905 0
 1515 012a DE61     		str	r6, [r3, #28]
 907:Drivers/STM32F7xx_HAL_Driver/Src/stm32f7xx_hal_rtc.c ****     /* Configure the Alarm state: Enable Alarm */
 1516              		.loc 1 907 0
 1517 012c 2368     		ldr	r3, [r4]
 1518 012e 5F64     		str	r7, [r3, #68]
 909:Drivers/STM32F7xx_HAL_Driver/Src/stm32f7xx_hal_rtc.c ****   }
 1519              		.loc 1 909 0
 1520 0130 2268     		ldr	r2, [r4]
 1521 0132 9368     		ldr	r3, [r2, #8]
 1522 0134 43F48073 		orr	r3, r3, #256
 1523 0138 9360     		str	r3, [r2, #8]
 1524 013a 07E0     		b	.L111
 1525              	.L117:
 939:Drivers/STM32F7xx_HAL_Driver/Src/stm32f7xx_hal_rtc.c ****     /* Configure the Alarm B Sub Second register */
 1526              		.loc 1 939 0
 1527 013c 1E62     		str	r6, [r3, #32]
 941:Drivers/STM32F7xx_HAL_Driver/Src/stm32f7xx_hal_rtc.c ****     /* Configure the Alarm state: Enable Alarm */
 1528              		.loc 1 941 0
 1529 013e 2368     		ldr	r3, [r4]
 1530 0140 9F64     		str	r7, [r3, #72]
 943:Drivers/STM32F7xx_HAL_Driver/Src/stm32f7xx_hal_rtc.c ****   }
 1531              		.loc 1 943 0
 1532 0142 2268     		ldr	r2, [r4]
 1533 0144 9368     		ldr	r3, [r2, #8]
 1534 0146 43F40073 		orr	r3, r3, #512
 1535 014a 9360     		str	r3, [r2, #8]
 1536              	.L111:
 947:Drivers/STM32F7xx_HAL_Driver/Src/stm32f7xx_hal_rtc.c ****   
 1537              		.loc 1 947 0
 1538 014c 2368     		ldr	r3, [r4]
 1539 014e FF22     		movs	r2, #255
 1540 0150 5A62     		str	r2, [r3, #36]
 950:Drivers/STM32F7xx_HAL_Driver/Src/stm32f7xx_hal_rtc.c ****   
 1541              		.loc 1 950 0
 1542 0152 0123     		movs	r3, #1
 1543 0154 6377     		strb	r3, [r4, #29]
 953:Drivers/STM32F7xx_HAL_Driver/Src/stm32f7xx_hal_rtc.c ****   
 1544              		.loc 1 953 0
 1545 0156 0020     		movs	r0, #0
 1546 0158 2077     		strb	r0, [r4, #28]
 955:Drivers/STM32F7xx_HAL_Driver/Src/stm32f7xx_hal_rtc.c **** }
 1547              		.loc 1 955 0
 1548 015a F8BD     		pop	{r3, r4, r5, r6, r7, pc}
 1549              	.LVL117:
 1550              	.L114:
 797:Drivers/STM32F7xx_HAL_Driver/Src/stm32f7xx_hal_rtc.c ****   
 1551              		.loc 1 797 0
 1552 015c 0220     		movs	r0, #2
 1553              	.LVL118:
 956:Drivers/STM32F7xx_HAL_Driver/Src/stm32f7xx_hal_rtc.c **** 
 1554              		.loc 1 956 0
 1555 015e F8BD     		pop	{r3, r4, r5, r6, r7, pc}
ARM GAS  C:\Users\Student\AppData\Local\Temp\ccDKlFGt.s 			page 59


 1556              		.cfi_endproc
 1557              	.LFE144:
 1559              		.section	.text.HAL_RTC_SetAlarm_IT,"ax",%progbits
 1560              		.align	1
 1561              		.global	HAL_RTC_SetAlarm_IT
 1562              		.syntax unified
 1563              		.thumb
 1564              		.thumb_func
 1565              		.fpu fpv5-sp-d16
 1567              	HAL_RTC_SetAlarm_IT:
 1568              	.LFB145:
 973:Drivers/STM32F7xx_HAL_Driver/Src/stm32f7xx_hal_rtc.c ****   uint32_t tmpreg = 0U, subsecondtmpreg = 0U;
 1569              		.loc 1 973 0
 1570              		.cfi_startproc
 1571              		@ args = 0, pretend = 0, frame = 8
 1572              		@ frame_needed = 0, uses_anonymous_args = 0
 1573              	.LVL119:
 1574 0000 F0B5     		push	{r4, r5, r6, r7, lr}
 1575              	.LCFI11:
 1576              		.cfi_def_cfa_offset 20
 1577              		.cfi_offset 4, -20
 1578              		.cfi_offset 5, -16
 1579              		.cfi_offset 6, -12
 1580              		.cfi_offset 7, -8
 1581              		.cfi_offset 14, -4
 1582 0002 83B0     		sub	sp, sp, #12
 1583              	.LCFI12:
 1584              		.cfi_def_cfa_offset 32
 1585              	.LVL120:
 975:Drivers/STM32F7xx_HAL_Driver/Src/stm32f7xx_hal_rtc.c ****   
 1586              		.loc 1 975 0
 1587 0004 634B     		ldr	r3, .L136
 1588 0006 1B68     		ldr	r3, [r3]
 1589 0008 634C     		ldr	r4, .L136+4
 1590 000a A4FB0343 		umull	r4, r3, r4, r3
 1591 000e DB0A     		lsrs	r3, r3, #11
 1592 0010 4FF47A76 		mov	r6, #1000
 1593 0014 06FB03F3 		mul	r3, r6, r3
 1594 0018 0193     		str	r3, [sp, #4]
 986:Drivers/STM32F7xx_HAL_Driver/Src/stm32f7xx_hal_rtc.c ****   
 1595              		.loc 1 986 0
 1596 001a 037F     		ldrb	r3, [r0, #28]	@ zero_extendqisi2
 1597 001c 012B     		cmp	r3, #1
 1598 001e 00F0B580 		beq	.L131
 1599 0022 0D46     		mov	r5, r1
 1600 0024 0446     		mov	r4, r0
 986:Drivers/STM32F7xx_HAL_Driver/Src/stm32f7xx_hal_rtc.c ****   
 1601              		.loc 1 986 0 is_stmt 0 discriminator 2
 1602 0026 0123     		movs	r3, #1
 1603 0028 0377     		strb	r3, [r0, #28]
 988:Drivers/STM32F7xx_HAL_Driver/Src/stm32f7xx_hal_rtc.c ****   
 1604              		.loc 1 988 0 is_stmt 1 discriminator 2
 1605 002a 0223     		movs	r3, #2
 1606 002c 4377     		strb	r3, [r0, #29]
 990:Drivers/STM32F7xx_HAL_Driver/Src/stm32f7xx_hal_rtc.c ****   {
 1607              		.loc 1 990 0 discriminator 2
 1608 002e 002A     		cmp	r2, #0
ARM GAS  C:\Users\Student\AppData\Local\Temp\ccDKlFGt.s 			page 60


 1609 0030 60D1     		bne	.L121
 992:Drivers/STM32F7xx_HAL_Driver/Src/stm32f7xx_hal_rtc.c ****     {
 1610              		.loc 1 992 0
 1611 0032 0368     		ldr	r3, [r0]
 1612 0034 9B68     		ldr	r3, [r3, #8]
 1613 0036 13F0400F 		tst	r3, #64
 1614 003a 01D1     		bne	.L122
 999:Drivers/STM32F7xx_HAL_Driver/Src/stm32f7xx_hal_rtc.c ****       assert_param(IS_RTC_HOUR24(sAlarm->AlarmTime.Hours));
 1615              		.loc 1 999 0
 1616 003c 0023     		movs	r3, #0
 1617 003e 0B73     		strb	r3, [r1, #12]
 1618              	.L122:
1005:Drivers/STM32F7xx_HAL_Driver/Src/stm32f7xx_hal_rtc.c ****     {
 1619              		.loc 1 1005 0
 1620 0040 2F6A     		ldr	r7, [r5, #32]
1013:Drivers/STM32F7xx_HAL_Driver/Src/stm32f7xx_hal_rtc.c ****               ((uint32_t)RTC_ByteToBcd2(sAlarm->AlarmTime.Minutes) << 8U) | \
 1621              		.loc 1 1013 0
 1622 0042 2878     		ldrb	r0, [r5]	@ zero_extendqisi2
 1623              	.LVL121:
 1624 0044 FFF7FEFF 		bl	RTC_ByteToBcd2
 1625              	.LVL122:
 1626 0048 0604     		lsls	r6, r0, #16
1014:Drivers/STM32F7xx_HAL_Driver/Src/stm32f7xx_hal_rtc.c ****               ((uint32_t)RTC_ByteToBcd2(sAlarm->AlarmTime.Seconds)) | \
 1627              		.loc 1 1014 0
 1628 004a 6878     		ldrb	r0, [r5, #1]	@ zero_extendqisi2
 1629 004c FFF7FEFF 		bl	RTC_ByteToBcd2
 1630              	.LVL123:
1013:Drivers/STM32F7xx_HAL_Driver/Src/stm32f7xx_hal_rtc.c ****               ((uint32_t)RTC_ByteToBcd2(sAlarm->AlarmTime.Minutes) << 8U) | \
 1631              		.loc 1 1013 0
 1632 0050 46EA0026 		orr	r6, r6, r0, lsl #8
1015:Drivers/STM32F7xx_HAL_Driver/Src/stm32f7xx_hal_rtc.c ****               ((uint32_t)(sAlarm->AlarmTime.TimeFormat) << 16U) | \
 1633              		.loc 1 1015 0
 1634 0054 A878     		ldrb	r0, [r5, #2]	@ zero_extendqisi2
 1635 0056 FFF7FEFF 		bl	RTC_ByteToBcd2
 1636              	.LVL124:
1014:Drivers/STM32F7xx_HAL_Driver/Src/stm32f7xx_hal_rtc.c ****               ((uint32_t)RTC_ByteToBcd2(sAlarm->AlarmTime.Seconds)) | \
 1637              		.loc 1 1014 0
 1638 005a 0643     		orrs	r6, r6, r0
1016:Drivers/STM32F7xx_HAL_Driver/Src/stm32f7xx_hal_rtc.c ****               ((uint32_t)RTC_ByteToBcd2(sAlarm->AlarmDateWeekDay) << 24U) | \
 1639              		.loc 1 1016 0
 1640 005c 287B     		ldrb	r0, [r5, #12]	@ zero_extendqisi2
1015:Drivers/STM32F7xx_HAL_Driver/Src/stm32f7xx_hal_rtc.c ****               ((uint32_t)(sAlarm->AlarmTime.TimeFormat) << 16U) | \
 1641              		.loc 1 1015 0
 1642 005e 46EA0046 		orr	r6, r6, r0, lsl #16
1017:Drivers/STM32F7xx_HAL_Driver/Src/stm32f7xx_hal_rtc.c ****               ((uint32_t)sAlarm->AlarmDateWeekDaySel) | \
 1643              		.loc 1 1017 0
 1644 0062 95F82400 		ldrb	r0, [r5, #36]	@ zero_extendqisi2
 1645 0066 FFF7FEFF 		bl	RTC_ByteToBcd2
 1646              	.LVL125:
1016:Drivers/STM32F7xx_HAL_Driver/Src/stm32f7xx_hal_rtc.c ****               ((uint32_t)RTC_ByteToBcd2(sAlarm->AlarmDateWeekDay) << 24U) | \
 1647              		.loc 1 1016 0
 1648 006a 46EA0060 		orr	r0, r6, r0, lsl #24
1017:Drivers/STM32F7xx_HAL_Driver/Src/stm32f7xx_hal_rtc.c ****               ((uint32_t)sAlarm->AlarmDateWeekDaySel) | \
 1649              		.loc 1 1017 0
 1650 006e 3843     		orrs	r0, r0, r7
1019:Drivers/STM32F7xx_HAL_Driver/Src/stm32f7xx_hal_rtc.c ****   }
 1651              		.loc 1 1019 0
ARM GAS  C:\Users\Student\AppData\Local\Temp\ccDKlFGt.s 			page 61


 1652 0070 A969     		ldr	r1, [r5, #24]
1013:Drivers/STM32F7xx_HAL_Driver/Src/stm32f7xx_hal_rtc.c ****               ((uint32_t)RTC_ByteToBcd2(sAlarm->AlarmTime.Minutes) << 8U) | \
 1653              		.loc 1 1013 0
 1654 0072 0143     		orrs	r1, r1, r0
 1655              	.LVL126:
 1656              	.L123:
1057:Drivers/STM32F7xx_HAL_Driver/Src/stm32f7xx_hal_rtc.c ****   
 1657              		.loc 1 1057 0
 1658 0074 6868     		ldr	r0, [r5, #4]
 1659 0076 EB69     		ldr	r3, [r5, #28]
 1660 0078 1843     		orrs	r0, r0, r3
 1661              	.LVL127:
1060:Drivers/STM32F7xx_HAL_Driver/Src/stm32f7xx_hal_rtc.c ****   
 1662              		.loc 1 1060 0
 1663 007a 2368     		ldr	r3, [r4]
 1664 007c CA22     		movs	r2, #202
 1665 007e 5A62     		str	r2, [r3, #36]
 1666 0080 2368     		ldr	r3, [r4]
 1667 0082 5322     		movs	r2, #83
 1668 0084 5A62     		str	r2, [r3, #36]
1063:Drivers/STM32F7xx_HAL_Driver/Src/stm32f7xx_hal_rtc.c ****   {
 1669              		.loc 1 1063 0
 1670 0086 AB6A     		ldr	r3, [r5, #40]
 1671 0088 B3F5807F 		cmp	r3, #256
 1672 008c 4CD0     		beq	.L133
1100:Drivers/STM32F7xx_HAL_Driver/Src/stm32f7xx_hal_rtc.c **** 
 1673              		.loc 1 1100 0
 1674 008e 2268     		ldr	r2, [r4]
 1675 0090 9368     		ldr	r3, [r2, #8]
 1676 0092 23F40073 		bic	r3, r3, #512
 1677 0096 9360     		str	r3, [r2, #8]
1103:Drivers/STM32F7xx_HAL_Driver/Src/stm32f7xx_hal_rtc.c **** 
 1678              		.loc 1 1103 0
 1679 0098 2268     		ldr	r2, [r4]
 1680 009a D368     		ldr	r3, [r2, #12]
 1681 009c DBB2     		uxtb	r3, r3
 1682 009e 63F42073 		orn	r3, r3, #640
 1683 00a2 D360     		str	r3, [r2, #12]
 1684              	.L130:
1108:Drivers/STM32F7xx_HAL_Driver/Src/stm32f7xx_hal_rtc.c ****       {
 1685              		.loc 1 1108 0
 1686 00a4 019B     		ldr	r3, [sp, #4]
 1687 00a6 5A1E     		subs	r2, r3, #1
 1688 00a8 0192     		str	r2, [sp, #4]
 1689 00aa 002B     		cmp	r3, #0
 1690 00ac 66D0     		beq	.L134
1121:Drivers/STM32F7xx_HAL_Driver/Src/stm32f7xx_hal_rtc.c ****     
 1691              		.loc 1 1121 0
 1692 00ae 2368     		ldr	r3, [r4]
 1693 00b0 DA68     		ldr	r2, [r3, #12]
 1694 00b2 12F0020F 		tst	r2, #2
 1695 00b6 F5D0     		beq	.L130
1123:Drivers/STM32F7xx_HAL_Driver/Src/stm32f7xx_hal_rtc.c ****     /* Configure the Alarm B Sub Second register */
 1696              		.loc 1 1123 0
 1697 00b8 1962     		str	r1, [r3, #32]
1125:Drivers/STM32F7xx_HAL_Driver/Src/stm32f7xx_hal_rtc.c ****     /* Configure the Alarm state: Enable Alarm */
 1698              		.loc 1 1125 0
ARM GAS  C:\Users\Student\AppData\Local\Temp\ccDKlFGt.s 			page 62


 1699 00ba 2368     		ldr	r3, [r4]
 1700 00bc 9864     		str	r0, [r3, #72]
1127:Drivers/STM32F7xx_HAL_Driver/Src/stm32f7xx_hal_rtc.c ****     /* Configure the Alarm interrupt */
 1701              		.loc 1 1127 0
 1702 00be 2268     		ldr	r2, [r4]
 1703 00c0 9368     		ldr	r3, [r2, #8]
 1704 00c2 43F40073 		orr	r3, r3, #512
 1705 00c6 9360     		str	r3, [r2, #8]
1129:Drivers/STM32F7xx_HAL_Driver/Src/stm32f7xx_hal_rtc.c ****   }
 1706              		.loc 1 1129 0
 1707 00c8 2268     		ldr	r2, [r4]
 1708 00ca 9368     		ldr	r3, [r2, #8]
 1709 00cc 43F40053 		orr	r3, r3, #8192
 1710 00d0 9360     		str	r3, [r2, #8]
 1711              	.L128:
1133:Drivers/STM32F7xx_HAL_Driver/Src/stm32f7xx_hal_rtc.c ****   
 1712              		.loc 1 1133 0
 1713 00d2 324B     		ldr	r3, .L136+8
 1714 00d4 1A68     		ldr	r2, [r3]
 1715 00d6 42F40032 		orr	r2, r2, #131072
 1716 00da 1A60     		str	r2, [r3]
1135:Drivers/STM32F7xx_HAL_Driver/Src/stm32f7xx_hal_rtc.c ****   
 1717              		.loc 1 1135 0
 1718 00dc 9A68     		ldr	r2, [r3, #8]
 1719 00de 42F40032 		orr	r2, r2, #131072
 1720 00e2 9A60     		str	r2, [r3, #8]
1138:Drivers/STM32F7xx_HAL_Driver/Src/stm32f7xx_hal_rtc.c ****   
 1721              		.loc 1 1138 0
 1722 00e4 2368     		ldr	r3, [r4]
 1723 00e6 FF22     		movs	r2, #255
 1724 00e8 5A62     		str	r2, [r3, #36]
1140:Drivers/STM32F7xx_HAL_Driver/Src/stm32f7xx_hal_rtc.c ****   
 1725              		.loc 1 1140 0
 1726 00ea 0123     		movs	r3, #1
 1727 00ec 6377     		strb	r3, [r4, #29]
1143:Drivers/STM32F7xx_HAL_Driver/Src/stm32f7xx_hal_rtc.c ****   
 1728              		.loc 1 1143 0
 1729 00ee 0020     		movs	r0, #0
 1730              	.LVL128:
 1731 00f0 2077     		strb	r0, [r4, #28]
1145:Drivers/STM32F7xx_HAL_Driver/Src/stm32f7xx_hal_rtc.c **** }
 1732              		.loc 1 1145 0
 1733 00f2 4CE0     		b	.L120
 1734              	.LVL129:
 1735              	.L121:
1023:Drivers/STM32F7xx_HAL_Driver/Src/stm32f7xx_hal_rtc.c ****     {
 1736              		.loc 1 1023 0
 1737 00f4 0368     		ldr	r3, [r0]
 1738 00f6 9B68     		ldr	r3, [r3, #8]
 1739 00f8 13F0400F 		tst	r3, #64
 1740 00fc 01D1     		bne	.L124
1031:Drivers/STM32F7xx_HAL_Driver/Src/stm32f7xx_hal_rtc.c ****       assert_param(IS_RTC_HOUR24(RTC_Bcd2ToByte(sAlarm->AlarmTime.Hours)));
 1741              		.loc 1 1031 0
 1742 00fe 0023     		movs	r3, #0
 1743 0100 0B73     		strb	r3, [r1, #12]
 1744              	.L124:
1038:Drivers/STM32F7xx_HAL_Driver/Src/stm32f7xx_hal_rtc.c ****     {
ARM GAS  C:\Users\Student\AppData\Local\Temp\ccDKlFGt.s 			page 63


 1745              		.loc 1 1038 0
 1746 0102 2A6A     		ldr	r2, [r5, #32]
 1747              	.LVL130:
1048:Drivers/STM32F7xx_HAL_Driver/Src/stm32f7xx_hal_rtc.c ****               ((uint32_t)(sAlarm->AlarmTime.Minutes) << 8U) | \
 1748              		.loc 1 1048 0
 1749 0104 2978     		ldrb	r1, [r5]	@ zero_extendqisi2
 1750              	.LVL131:
1049:Drivers/STM32F7xx_HAL_Driver/Src/stm32f7xx_hal_rtc.c ****               ((uint32_t) sAlarm->AlarmTime.Seconds) | \
 1751              		.loc 1 1049 0
 1752 0106 6B78     		ldrb	r3, [r5, #1]	@ zero_extendqisi2
 1753 0108 1B02     		lsls	r3, r3, #8
1048:Drivers/STM32F7xx_HAL_Driver/Src/stm32f7xx_hal_rtc.c ****               ((uint32_t)(sAlarm->AlarmTime.Minutes) << 8U) | \
 1754              		.loc 1 1048 0
 1755 010a 43EA0143 		orr	r3, r3, r1, lsl #16
1050:Drivers/STM32F7xx_HAL_Driver/Src/stm32f7xx_hal_rtc.c ****               ((uint32_t)(sAlarm->AlarmTime.TimeFormat) << 16U) | \
 1756              		.loc 1 1050 0
 1757 010e A978     		ldrb	r1, [r5, #2]	@ zero_extendqisi2
1049:Drivers/STM32F7xx_HAL_Driver/Src/stm32f7xx_hal_rtc.c ****               ((uint32_t) sAlarm->AlarmTime.Seconds) | \
 1758              		.loc 1 1049 0
 1759 0110 0B43     		orrs	r3, r3, r1
1051:Drivers/STM32F7xx_HAL_Driver/Src/stm32f7xx_hal_rtc.c ****               ((uint32_t)(sAlarm->AlarmDateWeekDay) << 24U) | \
 1760              		.loc 1 1051 0
 1761 0112 297B     		ldrb	r1, [r5, #12]	@ zero_extendqisi2
1050:Drivers/STM32F7xx_HAL_Driver/Src/stm32f7xx_hal_rtc.c ****               ((uint32_t)(sAlarm->AlarmTime.TimeFormat) << 16U) | \
 1762              		.loc 1 1050 0
 1763 0114 43EA0143 		orr	r3, r3, r1, lsl #16
1052:Drivers/STM32F7xx_HAL_Driver/Src/stm32f7xx_hal_rtc.c ****               ((uint32_t)sAlarm->AlarmDateWeekDaySel) | \
 1764              		.loc 1 1052 0
 1765 0118 95F82410 		ldrb	r1, [r5, #36]	@ zero_extendqisi2
1051:Drivers/STM32F7xx_HAL_Driver/Src/stm32f7xx_hal_rtc.c ****               ((uint32_t)(sAlarm->AlarmDateWeekDay) << 24U) | \
 1766              		.loc 1 1051 0
 1767 011c 43EA0163 		orr	r3, r3, r1, lsl #24
1052:Drivers/STM32F7xx_HAL_Driver/Src/stm32f7xx_hal_rtc.c ****               ((uint32_t)sAlarm->AlarmDateWeekDaySel) | \
 1768              		.loc 1 1052 0
 1769 0120 1343     		orrs	r3, r3, r2
1054:Drivers/STM32F7xx_HAL_Driver/Src/stm32f7xx_hal_rtc.c ****   }
 1770              		.loc 1 1054 0
 1771 0122 A969     		ldr	r1, [r5, #24]
1048:Drivers/STM32F7xx_HAL_Driver/Src/stm32f7xx_hal_rtc.c ****               ((uint32_t)(sAlarm->AlarmTime.Minutes) << 8U) | \
 1772              		.loc 1 1048 0
 1773 0124 1943     		orrs	r1, r1, r3
 1774              	.LVL132:
 1775 0126 A5E7     		b	.L123
 1776              	.LVL133:
 1777              	.L133:
1066:Drivers/STM32F7xx_HAL_Driver/Src/stm32f7xx_hal_rtc.c **** 
 1778              		.loc 1 1066 0
 1779 0128 2268     		ldr	r2, [r4]
 1780 012a 9368     		ldr	r3, [r2, #8]
 1781 012c 23F48073 		bic	r3, r3, #256
 1782 0130 9360     		str	r3, [r2, #8]
1069:Drivers/STM32F7xx_HAL_Driver/Src/stm32f7xx_hal_rtc.c **** 
 1783              		.loc 1 1069 0
 1784 0132 2268     		ldr	r2, [r4]
 1785 0134 D368     		ldr	r3, [r2, #12]
 1786 0136 DBB2     		uxtb	r3, r3
 1787 0138 63F4C073 		orn	r3, r3, #384
ARM GAS  C:\Users\Student\AppData\Local\Temp\ccDKlFGt.s 			page 64


 1788 013c D360     		str	r3, [r2, #12]
 1789              	.L127:
1074:Drivers/STM32F7xx_HAL_Driver/Src/stm32f7xx_hal_rtc.c ****       {
 1790              		.loc 1 1074 0
 1791 013e 019B     		ldr	r3, [sp, #4]
 1792 0140 5A1E     		subs	r2, r3, #1
 1793 0142 0192     		str	r2, [sp, #4]
 1794 0144 93B1     		cbz	r3, .L135
1087:Drivers/STM32F7xx_HAL_Driver/Src/stm32f7xx_hal_rtc.c **** 
 1795              		.loc 1 1087 0
 1796 0146 2368     		ldr	r3, [r4]
 1797 0148 DA68     		ldr	r2, [r3, #12]
 1798 014a 12F0010F 		tst	r2, #1
 1799 014e F6D0     		beq	.L127
1089:Drivers/STM32F7xx_HAL_Driver/Src/stm32f7xx_hal_rtc.c ****     /* Configure the Alarm A Sub Second register */
 1800              		.loc 1 1089 0
 1801 0150 D961     		str	r1, [r3, #28]
1091:Drivers/STM32F7xx_HAL_Driver/Src/stm32f7xx_hal_rtc.c ****     /* Configure the Alarm state: Enable Alarm */
 1802              		.loc 1 1091 0
 1803 0152 2368     		ldr	r3, [r4]
 1804 0154 5864     		str	r0, [r3, #68]
1093:Drivers/STM32F7xx_HAL_Driver/Src/stm32f7xx_hal_rtc.c ****     /* Configure the Alarm interrupt */
 1805              		.loc 1 1093 0
 1806 0156 2268     		ldr	r2, [r4]
 1807 0158 9368     		ldr	r3, [r2, #8]
 1808 015a 43F48073 		orr	r3, r3, #256
 1809 015e 9360     		str	r3, [r2, #8]
1095:Drivers/STM32F7xx_HAL_Driver/Src/stm32f7xx_hal_rtc.c ****   }
 1810              		.loc 1 1095 0
 1811 0160 2268     		ldr	r2, [r4]
 1812 0162 9368     		ldr	r3, [r2, #8]
 1813 0164 43F48053 		orr	r3, r3, #4096
 1814 0168 9360     		str	r3, [r2, #8]
 1815 016a B2E7     		b	.L128
 1816              	.L135:
1077:Drivers/STM32F7xx_HAL_Driver/Src/stm32f7xx_hal_rtc.c **** 
 1817              		.loc 1 1077 0
 1818 016c 2368     		ldr	r3, [r4]
 1819 016e FF22     		movs	r2, #255
 1820 0170 5A62     		str	r2, [r3, #36]
1079:Drivers/STM32F7xx_HAL_Driver/Src/stm32f7xx_hal_rtc.c **** 
 1821              		.loc 1 1079 0
 1822 0172 0320     		movs	r0, #3
 1823              	.LVL134:
 1824 0174 6077     		strb	r0, [r4, #29]
1082:Drivers/STM32F7xx_HAL_Driver/Src/stm32f7xx_hal_rtc.c **** 
 1825              		.loc 1 1082 0
 1826 0176 0023     		movs	r3, #0
 1827 0178 2377     		strb	r3, [r4, #28]
1084:Drivers/STM32F7xx_HAL_Driver/Src/stm32f7xx_hal_rtc.c ****       }
 1828              		.loc 1 1084 0
 1829 017a 08E0     		b	.L120
 1830              	.LVL135:
 1831              	.L134:
1111:Drivers/STM32F7xx_HAL_Driver/Src/stm32f7xx_hal_rtc.c **** 
 1832              		.loc 1 1111 0
 1833 017c 2368     		ldr	r3, [r4]
ARM GAS  C:\Users\Student\AppData\Local\Temp\ccDKlFGt.s 			page 65


 1834 017e FF22     		movs	r2, #255
 1835 0180 5A62     		str	r2, [r3, #36]
1113:Drivers/STM32F7xx_HAL_Driver/Src/stm32f7xx_hal_rtc.c **** 
 1836              		.loc 1 1113 0
 1837 0182 0320     		movs	r0, #3
 1838              	.LVL136:
 1839 0184 6077     		strb	r0, [r4, #29]
1116:Drivers/STM32F7xx_HAL_Driver/Src/stm32f7xx_hal_rtc.c **** 
 1840              		.loc 1 1116 0
 1841 0186 0023     		movs	r3, #0
 1842 0188 2377     		strb	r3, [r4, #28]
1118:Drivers/STM32F7xx_HAL_Driver/Src/stm32f7xx_hal_rtc.c ****       }
 1843              		.loc 1 1118 0
 1844 018a 00E0     		b	.L120
 1845              	.LVL137:
 1846              	.L131:
 986:Drivers/STM32F7xx_HAL_Driver/Src/stm32f7xx_hal_rtc.c ****   
 1847              		.loc 1 986 0
 1848 018c 0220     		movs	r0, #2
 1849              	.LVL138:
 1850              	.L120:
1146:Drivers/STM32F7xx_HAL_Driver/Src/stm32f7xx_hal_rtc.c **** 
 1851              		.loc 1 1146 0
 1852 018e 03B0     		add	sp, sp, #12
 1853              	.LCFI13:
 1854              		.cfi_def_cfa_offset 20
 1855              		@ sp needed
 1856 0190 F0BD     		pop	{r4, r5, r6, r7, pc}
 1857              	.L137:
 1858 0192 00BF     		.align	2
 1859              	.L136:
 1860 0194 00000000 		.word	SystemCoreClock
 1861 0198 D34D6210 		.word	274877907
 1862 019c 003C0140 		.word	1073822720
 1863              		.cfi_endproc
 1864              	.LFE145:
 1866              		.section	.text.RTC_Bcd2ToByte,"ax",%progbits
 1867              		.align	1
 1868              		.global	RTC_Bcd2ToByte
 1869              		.syntax unified
 1870              		.thumb
 1871              		.thumb_func
 1872              		.fpu fpv5-sp-d16
 1874              	RTC_Bcd2ToByte:
 1875              	.LFB155:
1533:Drivers/STM32F7xx_HAL_Driver/Src/stm32f7xx_hal_rtc.c **** 
1534:Drivers/STM32F7xx_HAL_Driver/Src/stm32f7xx_hal_rtc.c **** /**
1535:Drivers/STM32F7xx_HAL_Driver/Src/stm32f7xx_hal_rtc.c ****   * @brief  Converts from 2 digit BCD to Binary.
1536:Drivers/STM32F7xx_HAL_Driver/Src/stm32f7xx_hal_rtc.c ****   * @param  Value BCD value to be converted
1537:Drivers/STM32F7xx_HAL_Driver/Src/stm32f7xx_hal_rtc.c ****   * @retval Converted word
1538:Drivers/STM32F7xx_HAL_Driver/Src/stm32f7xx_hal_rtc.c ****   */
1539:Drivers/STM32F7xx_HAL_Driver/Src/stm32f7xx_hal_rtc.c **** uint8_t RTC_Bcd2ToByte(uint8_t Value)
1540:Drivers/STM32F7xx_HAL_Driver/Src/stm32f7xx_hal_rtc.c **** {
 1876              		.loc 1 1540 0
 1877              		.cfi_startproc
 1878              		@ args = 0, pretend = 0, frame = 0
 1879              		@ frame_needed = 0, uses_anonymous_args = 0
ARM GAS  C:\Users\Student\AppData\Local\Temp\ccDKlFGt.s 			page 66


 1880              		@ link register save eliminated.
 1881              	.LVL139:
1541:Drivers/STM32F7xx_HAL_Driver/Src/stm32f7xx_hal_rtc.c ****   uint32_t tmp = 0;
1542:Drivers/STM32F7xx_HAL_Driver/Src/stm32f7xx_hal_rtc.c ****   tmp = ((uint8_t)(Value & (uint8_t)0xF0) >> (uint8_t)0x4) * 10;
 1882              		.loc 1 1542 0
 1883 0000 0309     		lsrs	r3, r0, #4
 1884 0002 03EB8303 		add	r3, r3, r3, lsl #2
 1885 0006 5A00     		lsls	r2, r3, #1
 1886              	.LVL140:
1543:Drivers/STM32F7xx_HAL_Driver/Src/stm32f7xx_hal_rtc.c ****   return (tmp + (Value & (uint8_t)0x0F));
 1887              		.loc 1 1543 0
 1888 0008 00F00F00 		and	r0, r0, #15
 1889              	.LVL141:
 1890 000c 1044     		add	r0, r0, r2
1544:Drivers/STM32F7xx_HAL_Driver/Src/stm32f7xx_hal_rtc.c **** }
 1891              		.loc 1 1544 0
 1892 000e C0B2     		uxtb	r0, r0
 1893 0010 7047     		bx	lr
 1894              		.cfi_endproc
 1895              	.LFE155:
 1897              		.section	.text.HAL_RTC_GetTime,"ax",%progbits
 1898              		.align	1
 1899              		.global	HAL_RTC_GetTime
 1900              		.syntax unified
 1901              		.thumb
 1902              		.thumb_func
 1903              		.fpu fpv5-sp-d16
 1905              	HAL_RTC_GetTime:
 1906              	.LFB141:
 574:Drivers/STM32F7xx_HAL_Driver/Src/stm32f7xx_hal_rtc.c ****   uint32_t tmpreg = 0;
 1907              		.loc 1 574 0
 1908              		.cfi_startproc
 1909              		@ args = 0, pretend = 0, frame = 0
 1910              		@ frame_needed = 0, uses_anonymous_args = 0
 1911              	.LVL142:
 1912 0000 70B5     		push	{r4, r5, r6, lr}
 1913              	.LCFI14:
 1914              		.cfi_def_cfa_offset 16
 1915              		.cfi_offset 4, -16
 1916              		.cfi_offset 5, -12
 1917              		.cfi_offset 6, -8
 1918              		.cfi_offset 14, -4
 1919              	.LVL143:
 581:Drivers/STM32F7xx_HAL_Driver/Src/stm32f7xx_hal_rtc.c ****   
 1920              		.loc 1 581 0
 1921 0002 0368     		ldr	r3, [r0]
 1922 0004 9B6A     		ldr	r3, [r3, #40]
 1923 0006 4B60     		str	r3, [r1, #4]
 584:Drivers/STM32F7xx_HAL_Driver/Src/stm32f7xx_hal_rtc.c **** 
 1924              		.loc 1 584 0
 1925 0008 0368     		ldr	r3, [r0]
 1926 000a 1B69     		ldr	r3, [r3, #16]
 1927 000c C3F30E03 		ubfx	r3, r3, #0, #15
 1928 0010 8B60     		str	r3, [r1, #8]
 587:Drivers/STM32F7xx_HAL_Driver/Src/stm32f7xx_hal_rtc.c ****   
 1929              		.loc 1 587 0
 1930 0012 0368     		ldr	r3, [r0]
ARM GAS  C:\Users\Student\AppData\Local\Temp\ccDKlFGt.s 			page 67


 1931 0014 1868     		ldr	r0, [r3]
 1932              	.LVL144:
 1933 0016 0F4D     		ldr	r5, .L142
 1934 0018 0540     		ands	r5, r5, r0
 1935              	.LVL145:
 590:Drivers/STM32F7xx_HAL_Driver/Src/stm32f7xx_hal_rtc.c ****   sTime->Minutes = (uint8_t)((tmpreg & (RTC_TR_MNT | RTC_TR_MNU)) >>8);
 1936              		.loc 1 590 0
 1937 001a 2C0C     		lsrs	r4, r5, #16
 1938 001c 04F03F00 		and	r0, r4, #63
 1939 0020 0870     		strb	r0, [r1]
 591:Drivers/STM32F7xx_HAL_Driver/Src/stm32f7xx_hal_rtc.c ****   sTime->Seconds = (uint8_t)(tmpreg & (RTC_TR_ST | RTC_TR_SU));
 1940              		.loc 1 591 0
 1941 0022 C5F30626 		ubfx	r6, r5, #8, #7
 1942 0026 4E70     		strb	r6, [r1, #1]
 592:Drivers/STM32F7xx_HAL_Driver/Src/stm32f7xx_hal_rtc.c ****   sTime->TimeFormat = (uint8_t)((tmpreg & (RTC_TR_PM)) >> 16); 
 1943              		.loc 1 592 0
 1944 0028 05F07F05 		and	r5, r5, #127
 1945              	.LVL146:
 1946 002c 8D70     		strb	r5, [r1, #2]
 593:Drivers/STM32F7xx_HAL_Driver/Src/stm32f7xx_hal_rtc.c ****   
 1947              		.loc 1 593 0
 1948 002e 04F04004 		and	r4, r4, #64
 1949 0032 0C73     		strb	r4, [r1, #12]
 596:Drivers/STM32F7xx_HAL_Driver/Src/stm32f7xx_hal_rtc.c ****   {
 1950              		.loc 1 596 0
 1951 0034 5AB9     		cbnz	r2, .L140
 1952 0036 0C46     		mov	r4, r1
 599:Drivers/STM32F7xx_HAL_Driver/Src/stm32f7xx_hal_rtc.c ****     sTime->Minutes = (uint8_t)RTC_Bcd2ToByte(sTime->Minutes);
 1953              		.loc 1 599 0
 1954 0038 FFF7FEFF 		bl	RTC_Bcd2ToByte
 1955              	.LVL147:
 1956 003c 2070     		strb	r0, [r4]
 600:Drivers/STM32F7xx_HAL_Driver/Src/stm32f7xx_hal_rtc.c ****     sTime->Seconds = (uint8_t)RTC_Bcd2ToByte(sTime->Seconds);  
 1957              		.loc 1 600 0
 1958 003e 3046     		mov	r0, r6
 1959 0040 FFF7FEFF 		bl	RTC_Bcd2ToByte
 1960              	.LVL148:
 1961 0044 6070     		strb	r0, [r4, #1]
 601:Drivers/STM32F7xx_HAL_Driver/Src/stm32f7xx_hal_rtc.c ****   }
 1962              		.loc 1 601 0
 1963 0046 2846     		mov	r0, r5
 1964 0048 FFF7FEFF 		bl	RTC_Bcd2ToByte
 1965              	.LVL149:
 1966 004c A070     		strb	r0, [r4, #2]
 1967              	.LVL150:
 1968              	.L140:
 605:Drivers/STM32F7xx_HAL_Driver/Src/stm32f7xx_hal_rtc.c **** 
 1969              		.loc 1 605 0
 1970 004e 0020     		movs	r0, #0
 1971 0050 70BD     		pop	{r4, r5, r6, pc}
 1972              	.L143:
 1973 0052 00BF     		.align	2
 1974              	.L142:
 1975 0054 7F7F7F00 		.word	8355711
 1976              		.cfi_endproc
 1977              	.LFE141:
 1979              		.section	.text.HAL_RTC_GetDate,"ax",%progbits
ARM GAS  C:\Users\Student\AppData\Local\Temp\ccDKlFGt.s 			page 68


 1980              		.align	1
 1981              		.global	HAL_RTC_GetDate
 1982              		.syntax unified
 1983              		.thumb
 1984              		.thumb_func
 1985              		.fpu fpv5-sp-d16
 1987              	HAL_RTC_GetDate:
 1988              	.LFB143:
 729:Drivers/STM32F7xx_HAL_Driver/Src/stm32f7xx_hal_rtc.c ****   uint32_t datetmpreg = 0;
 1989              		.loc 1 729 0
 1990              		.cfi_startproc
 1991              		@ args = 0, pretend = 0, frame = 0
 1992              		@ frame_needed = 0, uses_anonymous_args = 0
 1993              	.LVL151:
 1994 0000 70B5     		push	{r4, r5, r6, lr}
 1995              	.LCFI15:
 1996              		.cfi_def_cfa_offset 16
 1997              		.cfi_offset 4, -16
 1998              		.cfi_offset 5, -12
 1999              		.cfi_offset 6, -8
 2000              		.cfi_offset 14, -4
 2001              	.LVL152:
 736:Drivers/STM32F7xx_HAL_Driver/Src/stm32f7xx_hal_rtc.c **** 
 2002              		.loc 1 736 0
 2003 0002 0368     		ldr	r3, [r0]
 2004 0004 5868     		ldr	r0, [r3, #4]
 2005              	.LVL153:
 2006 0006 0E4B     		ldr	r3, .L147
 2007 0008 0340     		ands	r3, r3, r0
 2008              	.LVL154:
 739:Drivers/STM32F7xx_HAL_Driver/Src/stm32f7xx_hal_rtc.c ****   sDate->Month = (uint8_t)((datetmpreg & (RTC_DR_MT | RTC_DR_MU)) >> 8);
 2009              		.loc 1 739 0
 2010 000a 180C     		lsrs	r0, r3, #16
 2011 000c C870     		strb	r0, [r1, #3]
 740:Drivers/STM32F7xx_HAL_Driver/Src/stm32f7xx_hal_rtc.c ****   sDate->Date = (uint8_t)(datetmpreg & (RTC_DR_DT | RTC_DR_DU));
 2012              		.loc 1 740 0
 2013 000e C3F30426 		ubfx	r6, r3, #8, #5
 2014 0012 4E70     		strb	r6, [r1, #1]
 741:Drivers/STM32F7xx_HAL_Driver/Src/stm32f7xx_hal_rtc.c ****   sDate->WeekDay = (uint8_t)((datetmpreg & (RTC_DR_WDU)) >> 13); 
 2015              		.loc 1 741 0
 2016 0014 03F03F05 		and	r5, r3, #63
 2017 0018 8D70     		strb	r5, [r1, #2]
 742:Drivers/STM32F7xx_HAL_Driver/Src/stm32f7xx_hal_rtc.c **** 
 2018              		.loc 1 742 0
 2019 001a C3F34233 		ubfx	r3, r3, #13, #3
 2020              	.LVL155:
 2021 001e 0B70     		strb	r3, [r1]
 745:Drivers/STM32F7xx_HAL_Driver/Src/stm32f7xx_hal_rtc.c ****   {    
 2022              		.loc 1 745 0
 2023 0020 5AB9     		cbnz	r2, .L145
 2024 0022 0C46     		mov	r4, r1
 748:Drivers/STM32F7xx_HAL_Driver/Src/stm32f7xx_hal_rtc.c ****     sDate->Month = (uint8_t)RTC_Bcd2ToByte(sDate->Month);
 2025              		.loc 1 748 0
 2026 0024 FFF7FEFF 		bl	RTC_Bcd2ToByte
 2027              	.LVL156:
 2028 0028 E070     		strb	r0, [r4, #3]
 749:Drivers/STM32F7xx_HAL_Driver/Src/stm32f7xx_hal_rtc.c ****     sDate->Date = (uint8_t)RTC_Bcd2ToByte(sDate->Date);  
ARM GAS  C:\Users\Student\AppData\Local\Temp\ccDKlFGt.s 			page 69


 2029              		.loc 1 749 0
 2030 002a 3046     		mov	r0, r6
 2031 002c FFF7FEFF 		bl	RTC_Bcd2ToByte
 2032              	.LVL157:
 2033 0030 6070     		strb	r0, [r4, #1]
 750:Drivers/STM32F7xx_HAL_Driver/Src/stm32f7xx_hal_rtc.c ****   }
 2034              		.loc 1 750 0
 2035 0032 2846     		mov	r0, r5
 2036 0034 FFF7FEFF 		bl	RTC_Bcd2ToByte
 2037              	.LVL158:
 2038 0038 A070     		strb	r0, [r4, #2]
 2039              	.LVL159:
 2040              	.L145:
 753:Drivers/STM32F7xx_HAL_Driver/Src/stm32f7xx_hal_rtc.c **** 
 2041              		.loc 1 753 0
 2042 003a 0020     		movs	r0, #0
 2043 003c 70BD     		pop	{r4, r5, r6, pc}
 2044              	.L148:
 2045 003e 00BF     		.align	2
 2046              	.L147:
 2047 0040 3FFFFF00 		.word	16777023
 2048              		.cfi_endproc
 2049              	.LFE143:
 2051              		.section	.text.HAL_RTC_GetAlarm,"ax",%progbits
 2052              		.align	1
 2053              		.global	HAL_RTC_GetAlarm
 2054              		.syntax unified
 2055              		.thumb
 2056              		.thumb_func
 2057              		.fpu fpv5-sp-d16
 2059              	HAL_RTC_GetAlarm:
 2060              	.LFB147:
1256:Drivers/STM32F7xx_HAL_Driver/Src/stm32f7xx_hal_rtc.c ****   uint32_t tmpreg = 0, subsecondtmpreg = 0;
 2061              		.loc 1 1256 0
 2062              		.cfi_startproc
 2063              		@ args = 0, pretend = 0, frame = 0
 2064              		@ frame_needed = 0, uses_anonymous_args = 0
 2065              	.LVL160:
 2066 0000 F8B5     		push	{r3, r4, r5, r6, r7, lr}
 2067              	.LCFI16:
 2068              		.cfi_def_cfa_offset 24
 2069              		.cfi_offset 3, -24
 2070              		.cfi_offset 4, -20
 2071              		.cfi_offset 5, -16
 2072              		.cfi_offset 6, -12
 2073              		.cfi_offset 7, -8
 2074              		.cfi_offset 14, -4
 2075              	.LVL161:
1263:Drivers/STM32F7xx_HAL_Driver/Src/stm32f7xx_hal_rtc.c ****   {
 2076              		.loc 1 1263 0
 2077 0002 B2F5807F 		cmp	r2, #256
 2078 0006 34D0     		beq	.L154
1273:Drivers/STM32F7xx_HAL_Driver/Src/stm32f7xx_hal_rtc.c ****     
 2079              		.loc 1 1273 0
 2080 0008 4FF40072 		mov	r2, #512
 2081              	.LVL162:
 2082 000c 8A62     		str	r2, [r1, #40]
ARM GAS  C:\Users\Student\AppData\Local\Temp\ccDKlFGt.s 			page 70


1275:Drivers/STM32F7xx_HAL_Driver/Src/stm32f7xx_hal_rtc.c ****     subsecondtmpreg = (uint32_t)((hrtc->Instance->ALRMBSSR) & RTC_ALRMBSSR_SS);
 2083              		.loc 1 1275 0
 2084 000e 0068     		ldr	r0, [r0]
 2085              	.LVL163:
 2086 0010 026A     		ldr	r2, [r0, #32]
 2087              	.LVL164:
1276:Drivers/STM32F7xx_HAL_Driver/Src/stm32f7xx_hal_rtc.c ****   }
 2088              		.loc 1 1276 0
 2089 0012 876C     		ldr	r7, [r0, #72]
 2090 0014 C7F30E07 		ubfx	r7, r7, #0, #15
 2091              	.LVL165:
 2092              	.L151:
1280:Drivers/STM32F7xx_HAL_Driver/Src/stm32f7xx_hal_rtc.c ****   sAlarm->AlarmTime.Minutes = (uint32_t)((tmpreg & (RTC_ALRMAR_MNT | RTC_ALRMAR_MNU)) >> 8);
 2093              		.loc 1 1280 0
 2094 0018 C2F30744 		ubfx	r4, r2, #16, #8
 2095 001c 04F03F00 		and	r0, r4, #63
 2096 0020 0870     		strb	r0, [r1]
1281:Drivers/STM32F7xx_HAL_Driver/Src/stm32f7xx_hal_rtc.c ****   sAlarm->AlarmTime.Seconds = (uint32_t)(tmpreg & (RTC_ALRMAR_ST | RTC_ALRMAR_SU));
 2097              		.loc 1 1281 0
 2098 0022 C2F30626 		ubfx	r6, r2, #8, #7
 2099 0026 4E70     		strb	r6, [r1, #1]
1282:Drivers/STM32F7xx_HAL_Driver/Src/stm32f7xx_hal_rtc.c ****   sAlarm->AlarmTime.TimeFormat = (uint32_t)((tmpreg & RTC_ALRMAR_PM) >> 16);
 2100              		.loc 1 1282 0
 2101 0028 02F07F05 		and	r5, r2, #127
 2102 002c 8D70     		strb	r5, [r1, #2]
1283:Drivers/STM32F7xx_HAL_Driver/Src/stm32f7xx_hal_rtc.c ****   sAlarm->AlarmTime.SubSeconds = (uint32_t) subsecondtmpreg;
 2103              		.loc 1 1283 0
 2104 002e 04F04004 		and	r4, r4, #64
 2105 0032 0C73     		strb	r4, [r1, #12]
1284:Drivers/STM32F7xx_HAL_Driver/Src/stm32f7xx_hal_rtc.c ****   sAlarm->AlarmDateWeekDay = (uint32_t)((tmpreg & (RTC_ALRMAR_DT | RTC_ALRMAR_DU)) >> 24);
 2106              		.loc 1 1284 0
 2107 0034 4F60     		str	r7, [r1, #4]
1285:Drivers/STM32F7xx_HAL_Driver/Src/stm32f7xx_hal_rtc.c ****   sAlarm->AlarmDateWeekDaySel = (uint32_t)(tmpreg & RTC_ALRMAR_WDSEL);
 2108              		.loc 1 1285 0
 2109 0036 C2F30567 		ubfx	r7, r2, #24, #6
 2110              	.LVL166:
 2111 003a 81F82470 		strb	r7, [r1, #36]
1286:Drivers/STM32F7xx_HAL_Driver/Src/stm32f7xx_hal_rtc.c ****   sAlarm->AlarmMask = (uint32_t)(tmpreg & RTC_ALARMMASK_ALL);
 2112              		.loc 1 1286 0
 2113 003e 02F08044 		and	r4, r2, #1073741824
 2114 0042 0C62     		str	r4, [r1, #32]
1287:Drivers/STM32F7xx_HAL_Driver/Src/stm32f7xx_hal_rtc.c ****     
 2115              		.loc 1 1287 0
 2116 0044 02F08032 		and	r2, r2, #-2139062144
 2117              	.LVL167:
 2118 0048 8A61     		str	r2, [r1, #24]
1289:Drivers/STM32F7xx_HAL_Driver/Src/stm32f7xx_hal_rtc.c ****   {
 2119              		.loc 1 1289 0
 2120 004a 83B9     		cbnz	r3, .L152
 2121 004c 0C46     		mov	r4, r1
1291:Drivers/STM32F7xx_HAL_Driver/Src/stm32f7xx_hal_rtc.c ****     sAlarm->AlarmTime.Minutes = RTC_Bcd2ToByte(sAlarm->AlarmTime.Minutes);
 2122              		.loc 1 1291 0
 2123 004e FFF7FEFF 		bl	RTC_Bcd2ToByte
 2124              	.LVL168:
 2125 0052 2070     		strb	r0, [r4]
1292:Drivers/STM32F7xx_HAL_Driver/Src/stm32f7xx_hal_rtc.c ****     sAlarm->AlarmTime.Seconds = RTC_Bcd2ToByte(sAlarm->AlarmTime.Seconds);
 2126              		.loc 1 1292 0
ARM GAS  C:\Users\Student\AppData\Local\Temp\ccDKlFGt.s 			page 71


 2127 0054 3046     		mov	r0, r6
 2128 0056 FFF7FEFF 		bl	RTC_Bcd2ToByte
 2129              	.LVL169:
 2130 005a 6070     		strb	r0, [r4, #1]
1293:Drivers/STM32F7xx_HAL_Driver/Src/stm32f7xx_hal_rtc.c ****     sAlarm->AlarmDateWeekDay = RTC_Bcd2ToByte(sAlarm->AlarmDateWeekDay);
 2131              		.loc 1 1293 0
 2132 005c 2846     		mov	r0, r5
 2133 005e FFF7FEFF 		bl	RTC_Bcd2ToByte
 2134              	.LVL170:
 2135 0062 A070     		strb	r0, [r4, #2]
1294:Drivers/STM32F7xx_HAL_Driver/Src/stm32f7xx_hal_rtc.c ****   }  
 2136              		.loc 1 1294 0
 2137 0064 3846     		mov	r0, r7
 2138 0066 FFF7FEFF 		bl	RTC_Bcd2ToByte
 2139              	.LVL171:
 2140 006a 84F82400 		strb	r0, [r4, #36]
 2141              	.LVL172:
 2142              	.L152:
1298:Drivers/STM32F7xx_HAL_Driver/Src/stm32f7xx_hal_rtc.c **** 
 2143              		.loc 1 1298 0
 2144 006e 0020     		movs	r0, #0
 2145 0070 F8BD     		pop	{r3, r4, r5, r6, r7, pc}
 2146              	.LVL173:
 2147              	.L154:
1266:Drivers/STM32F7xx_HAL_Driver/Src/stm32f7xx_hal_rtc.c ****     
 2148              		.loc 1 1266 0
 2149 0072 8A62     		str	r2, [r1, #40]
1268:Drivers/STM32F7xx_HAL_Driver/Src/stm32f7xx_hal_rtc.c ****     subsecondtmpreg = (uint32_t)((hrtc->Instance->ALRMASSR ) & RTC_ALRMASSR_SS);
 2150              		.loc 1 1268 0
 2151 0074 0068     		ldr	r0, [r0]
 2152              	.LVL174:
 2153 0076 C269     		ldr	r2, [r0, #28]
 2154              	.LVL175:
1269:Drivers/STM32F7xx_HAL_Driver/Src/stm32f7xx_hal_rtc.c ****   }
 2155              		.loc 1 1269 0
 2156 0078 476C     		ldr	r7, [r0, #68]
 2157 007a C7F30E07 		ubfx	r7, r7, #0, #15
 2158              	.LVL176:
 2159 007e CBE7     		b	.L151
 2160              		.cfi_endproc
 2161              	.LFE147:
 2163              		.text
 2164              	.Letext0:
 2165              		.file 2 "c:\\gcc_toolchain\\6_2017-q1-update\\arm-none-eabi\\include\\machine\\_default_types.h"
 2166              		.file 3 "c:\\gcc_toolchain\\6_2017-q1-update\\arm-none-eabi\\include\\sys\\_stdint.h"
 2167              		.file 4 "Drivers/CMSIS/Include/core_cm7.h"
 2168              		.file 5 "Drivers/CMSIS/Device/ST/STM32F7xx/Include/system_stm32f7xx.h"
 2169              		.file 6 "Drivers/CMSIS/Device/ST/STM32F7xx/Include/stm32f746xx.h"
 2170              		.file 7 "c:\\gcc_toolchain\\6_2017-q1-update\\arm-none-eabi\\include\\sys\\lock.h"
 2171              		.file 8 "c:\\gcc_toolchain\\6_2017-q1-update\\arm-none-eabi\\include\\sys\\_types.h"
 2172              		.file 9 "c:\\gcc_toolchain\\6_2017-q1-update\\lib\\gcc\\arm-none-eabi\\6.3.1\\include\\stddef.h"
 2173              		.file 10 "c:\\gcc_toolchain\\6_2017-q1-update\\arm-none-eabi\\include\\sys\\reent.h"
 2174              		.file 11 "Drivers/CMSIS/Device/ST/STM32F7xx/Include/stm32f7xx.h"
 2175              		.file 12 "Drivers/STM32F7xx_HAL_Driver/Inc/stm32f7xx_hal_def.h"
 2176              		.file 13 "Drivers/STM32F7xx_HAL_Driver/Inc/stm32f7xx_hal_rtc.h"
 2177              		.file 14 "Drivers/STM32F7xx_HAL_Driver/Inc/stm32f7xx_hal.h"
 2178              		.file 15 "Drivers/STM32F7xx_HAL_Driver/Inc/stm32f7xx_hal_rtc_ex.h"
ARM GAS  C:\Users\Student\AppData\Local\Temp\ccDKlFGt.s 			page 72


ARM GAS  C:\Users\Student\AppData\Local\Temp\ccDKlFGt.s 			page 73


DEFINED SYMBOLS
                            *ABS*:00000000 stm32f7xx_hal_rtc.c
C:\Users\Student\AppData\Local\Temp\ccDKlFGt.s:18     .text.HAL_RTC_MspInit:00000000 $t
C:\Users\Student\AppData\Local\Temp\ccDKlFGt.s:25     .text.HAL_RTC_MspInit:00000000 HAL_RTC_MspInit
C:\Users\Student\AppData\Local\Temp\ccDKlFGt.s:39     .text.HAL_RTC_MspDeInit:00000000 $t
C:\Users\Student\AppData\Local\Temp\ccDKlFGt.s:46     .text.HAL_RTC_MspDeInit:00000000 HAL_RTC_MspDeInit
C:\Users\Student\AppData\Local\Temp\ccDKlFGt.s:59     .text.HAL_RTC_DeactivateAlarm:00000000 $t
C:\Users\Student\AppData\Local\Temp\ccDKlFGt.s:66     .text.HAL_RTC_DeactivateAlarm:00000000 HAL_RTC_DeactivateAlarm
C:\Users\Student\AppData\Local\Temp\ccDKlFGt.s:208    .text.HAL_RTC_AlarmAEventCallback:00000000 $t
C:\Users\Student\AppData\Local\Temp\ccDKlFGt.s:215    .text.HAL_RTC_AlarmAEventCallback:00000000 HAL_RTC_AlarmAEventCallback
C:\Users\Student\AppData\Local\Temp\ccDKlFGt.s:228    .text.HAL_RTC_AlarmIRQHandler:00000000 $t
C:\Users\Student\AppData\Local\Temp\ccDKlFGt.s:235    .text.HAL_RTC_AlarmIRQHandler:00000000 HAL_RTC_AlarmIRQHandler
C:\Users\Student\AppData\Local\Temp\ccDKlFGt.s:305    .text.HAL_RTC_AlarmIRQHandler:0000005c $d
C:\Users\Student\AppData\Local\Temp\ccDKlFGt.s:310    .text.HAL_RTC_PollForAlarmAEvent:00000000 $t
C:\Users\Student\AppData\Local\Temp\ccDKlFGt.s:317    .text.HAL_RTC_PollForAlarmAEvent:00000000 HAL_RTC_PollForAlarmAEvent
C:\Users\Student\AppData\Local\Temp\ccDKlFGt.s:380    .text.HAL_RTC_WaitForSynchro:00000000 $t
C:\Users\Student\AppData\Local\Temp\ccDKlFGt.s:387    .text.HAL_RTC_WaitForSynchro:00000000 HAL_RTC_WaitForSynchro
C:\Users\Student\AppData\Local\Temp\ccDKlFGt.s:438    .text.HAL_RTC_GetState:00000000 $t
C:\Users\Student\AppData\Local\Temp\ccDKlFGt.s:445    .text.HAL_RTC_GetState:00000000 HAL_RTC_GetState
C:\Users\Student\AppData\Local\Temp\ccDKlFGt.s:462    .text.RTC_EnterInitMode:00000000 $t
C:\Users\Student\AppData\Local\Temp\ccDKlFGt.s:469    .text.RTC_EnterInitMode:00000000 RTC_EnterInitMode
C:\Users\Student\AppData\Local\Temp\ccDKlFGt.s:529    .text.HAL_RTC_Init:00000000 $t
C:\Users\Student\AppData\Local\Temp\ccDKlFGt.s:536    .text.HAL_RTC_Init:00000000 HAL_RTC_Init
C:\Users\Student\AppData\Local\Temp\ccDKlFGt.s:667    .text.HAL_RTC_Init:000000a0 $d
C:\Users\Student\AppData\Local\Temp\ccDKlFGt.s:672    .text.HAL_RTC_DeInit:00000000 $t
C:\Users\Student\AppData\Local\Temp\ccDKlFGt.s:679    .text.HAL_RTC_DeInit:00000000 HAL_RTC_DeInit
C:\Users\Student\AppData\Local\Temp\ccDKlFGt.s:845    .text.HAL_RTC_DeInit:000000d8 $d
C:\Users\Student\AppData\Local\Temp\ccDKlFGt.s:850    .text.RTC_ByteToBcd2:00000000 $t
C:\Users\Student\AppData\Local\Temp\ccDKlFGt.s:857    .text.RTC_ByteToBcd2:00000000 RTC_ByteToBcd2
C:\Users\Student\AppData\Local\Temp\ccDKlFGt.s:895    .text.HAL_RTC_SetDate:00000000 $t
C:\Users\Student\AppData\Local\Temp\ccDKlFGt.s:902    .text.HAL_RTC_SetDate:00000000 HAL_RTC_SetDate
C:\Users\Student\AppData\Local\Temp\ccDKlFGt.s:1076   .text.HAL_RTC_SetDate:000000d8 $d
C:\Users\Student\AppData\Local\Temp\ccDKlFGt.s:1081   .text.HAL_RTC_SetTime:00000000 $t
C:\Users\Student\AppData\Local\Temp\ccDKlFGt.s:1088   .text.HAL_RTC_SetTime:00000000 HAL_RTC_SetTime
C:\Users\Student\AppData\Local\Temp\ccDKlFGt.s:1284   .text.HAL_RTC_SetTime:000000fc $d
C:\Users\Student\AppData\Local\Temp\ccDKlFGt.s:1289   .text.HAL_RTC_SetAlarm:00000000 $t
C:\Users\Student\AppData\Local\Temp\ccDKlFGt.s:1296   .text.HAL_RTC_SetAlarm:00000000 HAL_RTC_SetAlarm
C:\Users\Student\AppData\Local\Temp\ccDKlFGt.s:1560   .text.HAL_RTC_SetAlarm_IT:00000000 $t
C:\Users\Student\AppData\Local\Temp\ccDKlFGt.s:1567   .text.HAL_RTC_SetAlarm_IT:00000000 HAL_RTC_SetAlarm_IT
C:\Users\Student\AppData\Local\Temp\ccDKlFGt.s:1860   .text.HAL_RTC_SetAlarm_IT:00000194 $d
C:\Users\Student\AppData\Local\Temp\ccDKlFGt.s:1867   .text.RTC_Bcd2ToByte:00000000 $t
C:\Users\Student\AppData\Local\Temp\ccDKlFGt.s:1874   .text.RTC_Bcd2ToByte:00000000 RTC_Bcd2ToByte
C:\Users\Student\AppData\Local\Temp\ccDKlFGt.s:1898   .text.HAL_RTC_GetTime:00000000 $t
C:\Users\Student\AppData\Local\Temp\ccDKlFGt.s:1905   .text.HAL_RTC_GetTime:00000000 HAL_RTC_GetTime
C:\Users\Student\AppData\Local\Temp\ccDKlFGt.s:1975   .text.HAL_RTC_GetTime:00000054 $d
C:\Users\Student\AppData\Local\Temp\ccDKlFGt.s:1980   .text.HAL_RTC_GetDate:00000000 $t
C:\Users\Student\AppData\Local\Temp\ccDKlFGt.s:1987   .text.HAL_RTC_GetDate:00000000 HAL_RTC_GetDate
C:\Users\Student\AppData\Local\Temp\ccDKlFGt.s:2047   .text.HAL_RTC_GetDate:00000040 $d
C:\Users\Student\AppData\Local\Temp\ccDKlFGt.s:2052   .text.HAL_RTC_GetAlarm:00000000 $t
C:\Users\Student\AppData\Local\Temp\ccDKlFGt.s:2059   .text.HAL_RTC_GetAlarm:00000000 HAL_RTC_GetAlarm
                     .debug_frame:00000010 $d

UNDEFINED SYMBOLS
HAL_GetTick
HAL_RTCEx_AlarmBEventCallback
SystemCoreClock
