ARM GAS  C:\Users\Patryk\AppData\Local\Temp\cc5QRopf.s 			page 1


   1              		.cpu cortex-m7
   2              		.eabi_attribute 27, 1
   3              		.eabi_attribute 28, 1
   4              		.eabi_attribute 20, 1
   5              		.eabi_attribute 21, 1
   6              		.eabi_attribute 23, 3
   7              		.eabi_attribute 24, 1
   8              		.eabi_attribute 25, 1
   9              		.eabi_attribute 26, 1
  10              		.eabi_attribute 30, 1
  11              		.eabi_attribute 34, 1
  12              		.eabi_attribute 18, 4
  13              		.file	"stm32f7xx_ll_usb.c"
  14              		.text
  15              	.Ltext0:
  16              		.cfi_sections	.debug_frame
  17              		.section	.text.USB_CoreReset,"ax",%progbits
  18              		.align	1
  19              		.syntax unified
  20              		.thumb
  21              		.thumb_func
  22              		.fpu fpv5-sp-d16
  24              	USB_CoreReset:
  25              	.LFB170:
  26              		.file 1 "Drivers/STM32F7xx_HAL_Driver/Src/stm32f7xx_ll_usb.c"
   1:Drivers/STM32F7xx_HAL_Driver/Src/stm32f7xx_ll_usb.c **** /**
   2:Drivers/STM32F7xx_HAL_Driver/Src/stm32f7xx_ll_usb.c ****   ******************************************************************************
   3:Drivers/STM32F7xx_HAL_Driver/Src/stm32f7xx_ll_usb.c ****   * @file    stm32f7xx_ll_usb.c
   4:Drivers/STM32F7xx_HAL_Driver/Src/stm32f7xx_ll_usb.c ****   * @author  MCD Application Team
   5:Drivers/STM32F7xx_HAL_Driver/Src/stm32f7xx_ll_usb.c ****   * @brief   USB Low Layer HAL module driver.
   6:Drivers/STM32F7xx_HAL_Driver/Src/stm32f7xx_ll_usb.c ****   *
   7:Drivers/STM32F7xx_HAL_Driver/Src/stm32f7xx_ll_usb.c ****   *          This file provides firmware functions to manage the following
   8:Drivers/STM32F7xx_HAL_Driver/Src/stm32f7xx_ll_usb.c ****   *          functionalities of the USB Peripheral Controller:
   9:Drivers/STM32F7xx_HAL_Driver/Src/stm32f7xx_ll_usb.c ****   *           + Initialization/de-initialization functions
  10:Drivers/STM32F7xx_HAL_Driver/Src/stm32f7xx_ll_usb.c ****   *           + I/O operation functions
  11:Drivers/STM32F7xx_HAL_Driver/Src/stm32f7xx_ll_usb.c ****   *           + Peripheral Control functions
  12:Drivers/STM32F7xx_HAL_Driver/Src/stm32f7xx_ll_usb.c ****   *           + Peripheral State functions
  13:Drivers/STM32F7xx_HAL_Driver/Src/stm32f7xx_ll_usb.c ****   *
  14:Drivers/STM32F7xx_HAL_Driver/Src/stm32f7xx_ll_usb.c ****   @verbatim
  15:Drivers/STM32F7xx_HAL_Driver/Src/stm32f7xx_ll_usb.c ****   ==============================================================================
  16:Drivers/STM32F7xx_HAL_Driver/Src/stm32f7xx_ll_usb.c ****                     ##### How to use this driver #####
  17:Drivers/STM32F7xx_HAL_Driver/Src/stm32f7xx_ll_usb.c ****   ==============================================================================
  18:Drivers/STM32F7xx_HAL_Driver/Src/stm32f7xx_ll_usb.c ****     [..]
  19:Drivers/STM32F7xx_HAL_Driver/Src/stm32f7xx_ll_usb.c ****       (#) Fill parameters of Init structure in USB_OTG_CfgTypeDef structure.
  20:Drivers/STM32F7xx_HAL_Driver/Src/stm32f7xx_ll_usb.c **** 
  21:Drivers/STM32F7xx_HAL_Driver/Src/stm32f7xx_ll_usb.c ****       (#) Call USB_CoreInit() API to initialize the USB Core peripheral.
  22:Drivers/STM32F7xx_HAL_Driver/Src/stm32f7xx_ll_usb.c **** 
  23:Drivers/STM32F7xx_HAL_Driver/Src/stm32f7xx_ll_usb.c ****       (#) The upper HAL HCD/PCD driver will call the right routines for its internal processes.
  24:Drivers/STM32F7xx_HAL_Driver/Src/stm32f7xx_ll_usb.c **** 
  25:Drivers/STM32F7xx_HAL_Driver/Src/stm32f7xx_ll_usb.c ****   @endverbatim
  26:Drivers/STM32F7xx_HAL_Driver/Src/stm32f7xx_ll_usb.c ****   ******************************************************************************
  27:Drivers/STM32F7xx_HAL_Driver/Src/stm32f7xx_ll_usb.c ****   * @attention
  28:Drivers/STM32F7xx_HAL_Driver/Src/stm32f7xx_ll_usb.c ****   *
  29:Drivers/STM32F7xx_HAL_Driver/Src/stm32f7xx_ll_usb.c ****   * <h2><center>&copy; COPYRIGHT(c) 2017 STMicroelectronics</center></h2>
  30:Drivers/STM32F7xx_HAL_Driver/Src/stm32f7xx_ll_usb.c ****   *
  31:Drivers/STM32F7xx_HAL_Driver/Src/stm32f7xx_ll_usb.c ****   * Redistribution and use in source and binary forms, with or without modification,
  32:Drivers/STM32F7xx_HAL_Driver/Src/stm32f7xx_ll_usb.c ****   * are permitted provided that the following conditions are met:
ARM GAS  C:\Users\Patryk\AppData\Local\Temp\cc5QRopf.s 			page 2


  33:Drivers/STM32F7xx_HAL_Driver/Src/stm32f7xx_ll_usb.c ****   *   1. Redistributions of source code must retain the above copyright notice,
  34:Drivers/STM32F7xx_HAL_Driver/Src/stm32f7xx_ll_usb.c ****   *      this list of conditions and the following disclaimer.
  35:Drivers/STM32F7xx_HAL_Driver/Src/stm32f7xx_ll_usb.c ****   *   2. Redistributions in binary form must reproduce the above copyright notice,
  36:Drivers/STM32F7xx_HAL_Driver/Src/stm32f7xx_ll_usb.c ****   *      this list of conditions and the following disclaimer in the documentation
  37:Drivers/STM32F7xx_HAL_Driver/Src/stm32f7xx_ll_usb.c ****   *      and/or other materials provided with the distribution.
  38:Drivers/STM32F7xx_HAL_Driver/Src/stm32f7xx_ll_usb.c ****   *   3. Neither the name of STMicroelectronics nor the names of its contributors
  39:Drivers/STM32F7xx_HAL_Driver/Src/stm32f7xx_ll_usb.c ****   *      may be used to endorse or promote products derived from this software
  40:Drivers/STM32F7xx_HAL_Driver/Src/stm32f7xx_ll_usb.c ****   *      without specific prior written permission.
  41:Drivers/STM32F7xx_HAL_Driver/Src/stm32f7xx_ll_usb.c ****   *
  42:Drivers/STM32F7xx_HAL_Driver/Src/stm32f7xx_ll_usb.c ****   * THIS SOFTWARE IS PROVIDED BY THE COPYRIGHT HOLDERS AND CONTRIBUTORS "AS IS"
  43:Drivers/STM32F7xx_HAL_Driver/Src/stm32f7xx_ll_usb.c ****   * AND ANY EXPRESS OR IMPLIED WARRANTIES, INCLUDING, BUT NOT LIMITED TO, THE
  44:Drivers/STM32F7xx_HAL_Driver/Src/stm32f7xx_ll_usb.c ****   * IMPLIED WARRANTIES OF MERCHANTABILITY AND FITNESS FOR A PARTICULAR PURPOSE ARE
  45:Drivers/STM32F7xx_HAL_Driver/Src/stm32f7xx_ll_usb.c ****   * DISCLAIMED. IN NO EVENT SHALL THE COPYRIGHT HOLDER OR CONTRIBUTORS BE LIABLE
  46:Drivers/STM32F7xx_HAL_Driver/Src/stm32f7xx_ll_usb.c ****   * FOR ANY DIRECT, INDIRECT, INCIDENTAL, SPECIAL, EXEMPLARY, OR CONSEQUENTIAL
  47:Drivers/STM32F7xx_HAL_Driver/Src/stm32f7xx_ll_usb.c ****   * DAMAGES (INCLUDING, BUT NOT LIMITED TO, PROCUREMENT OF SUBSTITUTE GOODS OR
  48:Drivers/STM32F7xx_HAL_Driver/Src/stm32f7xx_ll_usb.c ****   * SERVICES; LOSS OF USE, DATA, OR PROFITS; OR BUSINESS INTERRUPTION) HOWEVER
  49:Drivers/STM32F7xx_HAL_Driver/Src/stm32f7xx_ll_usb.c ****   * CAUSED AND ON ANY THEORY OF LIABILITY, WHETHER IN CONTRACT, STRICT LIABILITY,
  50:Drivers/STM32F7xx_HAL_Driver/Src/stm32f7xx_ll_usb.c ****   * OR TORT (INCLUDING NEGLIGENCE OR OTHERWISE) ARISING IN ANY WAY OUT OF THE USE
  51:Drivers/STM32F7xx_HAL_Driver/Src/stm32f7xx_ll_usb.c ****   * OF THIS SOFTWARE, EVEN IF ADVISED OF THE POSSIBILITY OF SUCH DAMAGE.
  52:Drivers/STM32F7xx_HAL_Driver/Src/stm32f7xx_ll_usb.c ****   *
  53:Drivers/STM32F7xx_HAL_Driver/Src/stm32f7xx_ll_usb.c ****   ******************************************************************************
  54:Drivers/STM32F7xx_HAL_Driver/Src/stm32f7xx_ll_usb.c ****   */
  55:Drivers/STM32F7xx_HAL_Driver/Src/stm32f7xx_ll_usb.c **** 
  56:Drivers/STM32F7xx_HAL_Driver/Src/stm32f7xx_ll_usb.c **** /* Includes ------------------------------------------------------------------*/
  57:Drivers/STM32F7xx_HAL_Driver/Src/stm32f7xx_ll_usb.c **** #include "stm32f7xx_hal.h"
  58:Drivers/STM32F7xx_HAL_Driver/Src/stm32f7xx_ll_usb.c **** 
  59:Drivers/STM32F7xx_HAL_Driver/Src/stm32f7xx_ll_usb.c **** /** @addtogroup STM32F7xx_LL_USB_DRIVER
  60:Drivers/STM32F7xx_HAL_Driver/Src/stm32f7xx_ll_usb.c ****   * @{
  61:Drivers/STM32F7xx_HAL_Driver/Src/stm32f7xx_ll_usb.c ****   */
  62:Drivers/STM32F7xx_HAL_Driver/Src/stm32f7xx_ll_usb.c **** 
  63:Drivers/STM32F7xx_HAL_Driver/Src/stm32f7xx_ll_usb.c **** #if defined (HAL_PCD_MODULE_ENABLED) || defined (HAL_HCD_MODULE_ENABLED)
  64:Drivers/STM32F7xx_HAL_Driver/Src/stm32f7xx_ll_usb.c **** 
  65:Drivers/STM32F7xx_HAL_Driver/Src/stm32f7xx_ll_usb.c **** /* Private typedef -----------------------------------------------------------*/
  66:Drivers/STM32F7xx_HAL_Driver/Src/stm32f7xx_ll_usb.c **** /* Private define ------------------------------------------------------------*/
  67:Drivers/STM32F7xx_HAL_Driver/Src/stm32f7xx_ll_usb.c **** /* Private macro -------------------------------------------------------------*/
  68:Drivers/STM32F7xx_HAL_Driver/Src/stm32f7xx_ll_usb.c **** /* Private variables ---------------------------------------------------------*/
  69:Drivers/STM32F7xx_HAL_Driver/Src/stm32f7xx_ll_usb.c **** /* Private function prototypes -----------------------------------------------*/
  70:Drivers/STM32F7xx_HAL_Driver/Src/stm32f7xx_ll_usb.c **** /* Private functions ---------------------------------------------------------*/
  71:Drivers/STM32F7xx_HAL_Driver/Src/stm32f7xx_ll_usb.c **** #if defined (USB_OTG_FS) || defined (USB_OTG_HS)
  72:Drivers/STM32F7xx_HAL_Driver/Src/stm32f7xx_ll_usb.c **** static HAL_StatusTypeDef USB_CoreReset(USB_OTG_GlobalTypeDef *USBx);
  73:Drivers/STM32F7xx_HAL_Driver/Src/stm32f7xx_ll_usb.c **** 
  74:Drivers/STM32F7xx_HAL_Driver/Src/stm32f7xx_ll_usb.c **** #ifdef USB_HS_PHYC
  75:Drivers/STM32F7xx_HAL_Driver/Src/stm32f7xx_ll_usb.c **** static HAL_StatusTypeDef USB_HS_PHYCInit(USB_OTG_GlobalTypeDef *USBx);
  76:Drivers/STM32F7xx_HAL_Driver/Src/stm32f7xx_ll_usb.c **** #endif
  77:Drivers/STM32F7xx_HAL_Driver/Src/stm32f7xx_ll_usb.c **** 
  78:Drivers/STM32F7xx_HAL_Driver/Src/stm32f7xx_ll_usb.c **** /* Exported functions --------------------------------------------------------*/
  79:Drivers/STM32F7xx_HAL_Driver/Src/stm32f7xx_ll_usb.c **** /** @defgroup USB_LL_Exported_Functions USB Low Layer Exported Functions
  80:Drivers/STM32F7xx_HAL_Driver/Src/stm32f7xx_ll_usb.c ****   * @{
  81:Drivers/STM32F7xx_HAL_Driver/Src/stm32f7xx_ll_usb.c ****   */
  82:Drivers/STM32F7xx_HAL_Driver/Src/stm32f7xx_ll_usb.c **** 
  83:Drivers/STM32F7xx_HAL_Driver/Src/stm32f7xx_ll_usb.c **** /** @defgroup USB_LL_Exported_Functions_Group1 Initialization/de-initialization functions
  84:Drivers/STM32F7xx_HAL_Driver/Src/stm32f7xx_ll_usb.c ****  *  @brief    Initialization and Configuration functions
  85:Drivers/STM32F7xx_HAL_Driver/Src/stm32f7xx_ll_usb.c ****  *
  86:Drivers/STM32F7xx_HAL_Driver/Src/stm32f7xx_ll_usb.c **** @verbatim
  87:Drivers/STM32F7xx_HAL_Driver/Src/stm32f7xx_ll_usb.c ****  ===============================================================================
  88:Drivers/STM32F7xx_HAL_Driver/Src/stm32f7xx_ll_usb.c ****                       ##### Initialization/de-initialization functions #####
  89:Drivers/STM32F7xx_HAL_Driver/Src/stm32f7xx_ll_usb.c ****  ===============================================================================
ARM GAS  C:\Users\Patryk\AppData\Local\Temp\cc5QRopf.s 			page 3


  90:Drivers/STM32F7xx_HAL_Driver/Src/stm32f7xx_ll_usb.c **** 
  91:Drivers/STM32F7xx_HAL_Driver/Src/stm32f7xx_ll_usb.c **** @endverbatim
  92:Drivers/STM32F7xx_HAL_Driver/Src/stm32f7xx_ll_usb.c ****   * @{
  93:Drivers/STM32F7xx_HAL_Driver/Src/stm32f7xx_ll_usb.c ****   */
  94:Drivers/STM32F7xx_HAL_Driver/Src/stm32f7xx_ll_usb.c **** 
  95:Drivers/STM32F7xx_HAL_Driver/Src/stm32f7xx_ll_usb.c **** /**
  96:Drivers/STM32F7xx_HAL_Driver/Src/stm32f7xx_ll_usb.c ****   * @brief  Initializes the USB Core
  97:Drivers/STM32F7xx_HAL_Driver/Src/stm32f7xx_ll_usb.c ****   * @param  USBx USB Instance
  98:Drivers/STM32F7xx_HAL_Driver/Src/stm32f7xx_ll_usb.c ****   * @param  cfg pointer to a USB_OTG_CfgTypeDef structure that contains
  99:Drivers/STM32F7xx_HAL_Driver/Src/stm32f7xx_ll_usb.c ****   *         the configuration information for the specified USBx peripheral.
 100:Drivers/STM32F7xx_HAL_Driver/Src/stm32f7xx_ll_usb.c ****   * @retval HAL status
 101:Drivers/STM32F7xx_HAL_Driver/Src/stm32f7xx_ll_usb.c ****   */
 102:Drivers/STM32F7xx_HAL_Driver/Src/stm32f7xx_ll_usb.c **** HAL_StatusTypeDef USB_CoreInit(USB_OTG_GlobalTypeDef *USBx, USB_OTG_CfgTypeDef cfg)
 103:Drivers/STM32F7xx_HAL_Driver/Src/stm32f7xx_ll_usb.c **** {
 104:Drivers/STM32F7xx_HAL_Driver/Src/stm32f7xx_ll_usb.c ****   if (cfg.phy_itface == USB_OTG_ULPI_PHY)
 105:Drivers/STM32F7xx_HAL_Driver/Src/stm32f7xx_ll_usb.c ****   {
 106:Drivers/STM32F7xx_HAL_Driver/Src/stm32f7xx_ll_usb.c ****     USBx->GCCFG &= ~(USB_OTG_GCCFG_PWRDWN);
 107:Drivers/STM32F7xx_HAL_Driver/Src/stm32f7xx_ll_usb.c **** 
 108:Drivers/STM32F7xx_HAL_Driver/Src/stm32f7xx_ll_usb.c ****     /* Init The ULPI Interface */
 109:Drivers/STM32F7xx_HAL_Driver/Src/stm32f7xx_ll_usb.c ****     USBx->GUSBCFG &= ~(USB_OTG_GUSBCFG_TSDPS | USB_OTG_GUSBCFG_ULPIFSLS | USB_OTG_GUSBCFG_PHYSEL);
 110:Drivers/STM32F7xx_HAL_Driver/Src/stm32f7xx_ll_usb.c **** 
 111:Drivers/STM32F7xx_HAL_Driver/Src/stm32f7xx_ll_usb.c ****     /* Select vbus source */
 112:Drivers/STM32F7xx_HAL_Driver/Src/stm32f7xx_ll_usb.c ****     USBx->GUSBCFG &= ~(USB_OTG_GUSBCFG_ULPIEVBUSD | USB_OTG_GUSBCFG_ULPIEVBUSI);
 113:Drivers/STM32F7xx_HAL_Driver/Src/stm32f7xx_ll_usb.c ****     if(cfg.use_external_vbus == 1U)
 114:Drivers/STM32F7xx_HAL_Driver/Src/stm32f7xx_ll_usb.c ****     {
 115:Drivers/STM32F7xx_HAL_Driver/Src/stm32f7xx_ll_usb.c ****       USBx->GUSBCFG |= USB_OTG_GUSBCFG_ULPIEVBUSD;
 116:Drivers/STM32F7xx_HAL_Driver/Src/stm32f7xx_ll_usb.c ****     }
 117:Drivers/STM32F7xx_HAL_Driver/Src/stm32f7xx_ll_usb.c ****     /* Reset after a PHY select  */
 118:Drivers/STM32F7xx_HAL_Driver/Src/stm32f7xx_ll_usb.c ****     (void)USB_CoreReset(USBx);
 119:Drivers/STM32F7xx_HAL_Driver/Src/stm32f7xx_ll_usb.c ****   }
 120:Drivers/STM32F7xx_HAL_Driver/Src/stm32f7xx_ll_usb.c **** #ifdef USB_HS_PHYC
 121:Drivers/STM32F7xx_HAL_Driver/Src/stm32f7xx_ll_usb.c ****   else if (cfg.phy_itface == USB_OTG_HS_EMBEDDED_PHY)
 122:Drivers/STM32F7xx_HAL_Driver/Src/stm32f7xx_ll_usb.c ****   {
 123:Drivers/STM32F7xx_HAL_Driver/Src/stm32f7xx_ll_usb.c ****     USBx->GCCFG &= ~(USB_OTG_GCCFG_PWRDWN);
 124:Drivers/STM32F7xx_HAL_Driver/Src/stm32f7xx_ll_usb.c **** 
 125:Drivers/STM32F7xx_HAL_Driver/Src/stm32f7xx_ll_usb.c ****     /* Init The UTMI Interface */
 126:Drivers/STM32F7xx_HAL_Driver/Src/stm32f7xx_ll_usb.c ****     USBx->GUSBCFG &= ~(USB_OTG_GUSBCFG_TSDPS | USB_OTG_GUSBCFG_ULPIFSLS | USB_OTG_GUSBCFG_PHYSEL);
 127:Drivers/STM32F7xx_HAL_Driver/Src/stm32f7xx_ll_usb.c **** 
 128:Drivers/STM32F7xx_HAL_Driver/Src/stm32f7xx_ll_usb.c ****     /* Select vbus source */
 129:Drivers/STM32F7xx_HAL_Driver/Src/stm32f7xx_ll_usb.c ****     USBx->GUSBCFG &= ~(USB_OTG_GUSBCFG_ULPIEVBUSD | USB_OTG_GUSBCFG_ULPIEVBUSI);
 130:Drivers/STM32F7xx_HAL_Driver/Src/stm32f7xx_ll_usb.c **** 
 131:Drivers/STM32F7xx_HAL_Driver/Src/stm32f7xx_ll_usb.c ****     /* Select UTMI Interace */
 132:Drivers/STM32F7xx_HAL_Driver/Src/stm32f7xx_ll_usb.c ****     USBx->GUSBCFG &= ~ USB_OTG_GUSBCFG_ULPI_UTMI_SEL;
 133:Drivers/STM32F7xx_HAL_Driver/Src/stm32f7xx_ll_usb.c ****     USBx->GCCFG |= USB_OTG_GCCFG_PHYHSEN;
 134:Drivers/STM32F7xx_HAL_Driver/Src/stm32f7xx_ll_usb.c **** 
 135:Drivers/STM32F7xx_HAL_Driver/Src/stm32f7xx_ll_usb.c ****     /* Enables control of a High Speed USB PHY */
 136:Drivers/STM32F7xx_HAL_Driver/Src/stm32f7xx_ll_usb.c ****     USB_HS_PHYCInit(USBx);
 137:Drivers/STM32F7xx_HAL_Driver/Src/stm32f7xx_ll_usb.c **** 
 138:Drivers/STM32F7xx_HAL_Driver/Src/stm32f7xx_ll_usb.c ****     if(cfg.use_external_vbus == 1)
 139:Drivers/STM32F7xx_HAL_Driver/Src/stm32f7xx_ll_usb.c ****     {
 140:Drivers/STM32F7xx_HAL_Driver/Src/stm32f7xx_ll_usb.c ****       USBx->GUSBCFG |= USB_OTG_GUSBCFG_ULPIEVBUSD;
 141:Drivers/STM32F7xx_HAL_Driver/Src/stm32f7xx_ll_usb.c ****     }
 142:Drivers/STM32F7xx_HAL_Driver/Src/stm32f7xx_ll_usb.c ****     /* Reset after a PHY select  */
 143:Drivers/STM32F7xx_HAL_Driver/Src/stm32f7xx_ll_usb.c ****     USB_CoreReset(USBx);
 144:Drivers/STM32F7xx_HAL_Driver/Src/stm32f7xx_ll_usb.c **** 
 145:Drivers/STM32F7xx_HAL_Driver/Src/stm32f7xx_ll_usb.c ****   }
 146:Drivers/STM32F7xx_HAL_Driver/Src/stm32f7xx_ll_usb.c **** #endif
ARM GAS  C:\Users\Patryk\AppData\Local\Temp\cc5QRopf.s 			page 4


 147:Drivers/STM32F7xx_HAL_Driver/Src/stm32f7xx_ll_usb.c ****   else /* FS interface (embedded Phy) */
 148:Drivers/STM32F7xx_HAL_Driver/Src/stm32f7xx_ll_usb.c ****   {
 149:Drivers/STM32F7xx_HAL_Driver/Src/stm32f7xx_ll_usb.c ****     /* Select FS Embedded PHY */
 150:Drivers/STM32F7xx_HAL_Driver/Src/stm32f7xx_ll_usb.c ****     USBx->GUSBCFG |= USB_OTG_GUSBCFG_PHYSEL;
 151:Drivers/STM32F7xx_HAL_Driver/Src/stm32f7xx_ll_usb.c **** 
 152:Drivers/STM32F7xx_HAL_Driver/Src/stm32f7xx_ll_usb.c ****     /* Reset after a PHY select and set Host mode */
 153:Drivers/STM32F7xx_HAL_Driver/Src/stm32f7xx_ll_usb.c ****     (void)USB_CoreReset(USBx);
 154:Drivers/STM32F7xx_HAL_Driver/Src/stm32f7xx_ll_usb.c **** 
 155:Drivers/STM32F7xx_HAL_Driver/Src/stm32f7xx_ll_usb.c ****     /* Deactivate the power down*/
 156:Drivers/STM32F7xx_HAL_Driver/Src/stm32f7xx_ll_usb.c ****     USBx->GCCFG = USB_OTG_GCCFG_PWRDWN;
 157:Drivers/STM32F7xx_HAL_Driver/Src/stm32f7xx_ll_usb.c ****   }
 158:Drivers/STM32F7xx_HAL_Driver/Src/stm32f7xx_ll_usb.c **** 
 159:Drivers/STM32F7xx_HAL_Driver/Src/stm32f7xx_ll_usb.c ****   if(cfg.dma_enable == 1U)
 160:Drivers/STM32F7xx_HAL_Driver/Src/stm32f7xx_ll_usb.c ****   {
 161:Drivers/STM32F7xx_HAL_Driver/Src/stm32f7xx_ll_usb.c ****     USBx->GAHBCFG |= USB_OTG_GAHBCFG_HBSTLEN_2;
 162:Drivers/STM32F7xx_HAL_Driver/Src/stm32f7xx_ll_usb.c ****     USBx->GAHBCFG |= USB_OTG_GAHBCFG_DMAEN;
 163:Drivers/STM32F7xx_HAL_Driver/Src/stm32f7xx_ll_usb.c ****   }
 164:Drivers/STM32F7xx_HAL_Driver/Src/stm32f7xx_ll_usb.c **** 
 165:Drivers/STM32F7xx_HAL_Driver/Src/stm32f7xx_ll_usb.c ****   return HAL_OK;
 166:Drivers/STM32F7xx_HAL_Driver/Src/stm32f7xx_ll_usb.c **** }
 167:Drivers/STM32F7xx_HAL_Driver/Src/stm32f7xx_ll_usb.c **** 
 168:Drivers/STM32F7xx_HAL_Driver/Src/stm32f7xx_ll_usb.c **** /**
 169:Drivers/STM32F7xx_HAL_Driver/Src/stm32f7xx_ll_usb.c ****   * @brief  USB_EnableGlobalInt
 170:Drivers/STM32F7xx_HAL_Driver/Src/stm32f7xx_ll_usb.c ****   *         Enables the controller's Global Int in the AHB Config reg
 171:Drivers/STM32F7xx_HAL_Driver/Src/stm32f7xx_ll_usb.c ****   * @param  USBx  Selected device
 172:Drivers/STM32F7xx_HAL_Driver/Src/stm32f7xx_ll_usb.c ****   * @retval HAL status
 173:Drivers/STM32F7xx_HAL_Driver/Src/stm32f7xx_ll_usb.c ****   */
 174:Drivers/STM32F7xx_HAL_Driver/Src/stm32f7xx_ll_usb.c **** HAL_StatusTypeDef USB_EnableGlobalInt(USB_OTG_GlobalTypeDef *USBx)
 175:Drivers/STM32F7xx_HAL_Driver/Src/stm32f7xx_ll_usb.c **** {
 176:Drivers/STM32F7xx_HAL_Driver/Src/stm32f7xx_ll_usb.c ****   USBx->GAHBCFG |= USB_OTG_GAHBCFG_GINT;
 177:Drivers/STM32F7xx_HAL_Driver/Src/stm32f7xx_ll_usb.c ****   return HAL_OK;
 178:Drivers/STM32F7xx_HAL_Driver/Src/stm32f7xx_ll_usb.c **** }
 179:Drivers/STM32F7xx_HAL_Driver/Src/stm32f7xx_ll_usb.c **** 
 180:Drivers/STM32F7xx_HAL_Driver/Src/stm32f7xx_ll_usb.c **** /**
 181:Drivers/STM32F7xx_HAL_Driver/Src/stm32f7xx_ll_usb.c ****   * @brief  USB_DisableGlobalInt
 182:Drivers/STM32F7xx_HAL_Driver/Src/stm32f7xx_ll_usb.c ****   *         Disable the controller's Global Int in the AHB Config reg
 183:Drivers/STM32F7xx_HAL_Driver/Src/stm32f7xx_ll_usb.c ****   * @param  USBx  Selected device
 184:Drivers/STM32F7xx_HAL_Driver/Src/stm32f7xx_ll_usb.c ****   * @retval HAL status
 185:Drivers/STM32F7xx_HAL_Driver/Src/stm32f7xx_ll_usb.c **** */
 186:Drivers/STM32F7xx_HAL_Driver/Src/stm32f7xx_ll_usb.c **** HAL_StatusTypeDef USB_DisableGlobalInt(USB_OTG_GlobalTypeDef *USBx)
 187:Drivers/STM32F7xx_HAL_Driver/Src/stm32f7xx_ll_usb.c **** {
 188:Drivers/STM32F7xx_HAL_Driver/Src/stm32f7xx_ll_usb.c ****   USBx->GAHBCFG &= ~USB_OTG_GAHBCFG_GINT;
 189:Drivers/STM32F7xx_HAL_Driver/Src/stm32f7xx_ll_usb.c ****   return HAL_OK;
 190:Drivers/STM32F7xx_HAL_Driver/Src/stm32f7xx_ll_usb.c **** }
 191:Drivers/STM32F7xx_HAL_Driver/Src/stm32f7xx_ll_usb.c **** 
 192:Drivers/STM32F7xx_HAL_Driver/Src/stm32f7xx_ll_usb.c **** /**
 193:Drivers/STM32F7xx_HAL_Driver/Src/stm32f7xx_ll_usb.c ****   * @brief  USB_SetCurrentMode : Set functional mode
 194:Drivers/STM32F7xx_HAL_Driver/Src/stm32f7xx_ll_usb.c ****   * @param  USBx  Selected device
 195:Drivers/STM32F7xx_HAL_Driver/Src/stm32f7xx_ll_usb.c ****   * @param  mode   current core mode
 196:Drivers/STM32F7xx_HAL_Driver/Src/stm32f7xx_ll_usb.c ****   *          This parameter can be one of these values:
 197:Drivers/STM32F7xx_HAL_Driver/Src/stm32f7xx_ll_usb.c ****   *            @arg USB_DEVICE_MODE: Peripheral mode
 198:Drivers/STM32F7xx_HAL_Driver/Src/stm32f7xx_ll_usb.c ****   *            @arg USB_HOST_MODE: Host mode
 199:Drivers/STM32F7xx_HAL_Driver/Src/stm32f7xx_ll_usb.c ****   *            @arg USB_DRD_MODE: Dual Role Device mode
 200:Drivers/STM32F7xx_HAL_Driver/Src/stm32f7xx_ll_usb.c ****   * @retval HAL status
 201:Drivers/STM32F7xx_HAL_Driver/Src/stm32f7xx_ll_usb.c ****   */
 202:Drivers/STM32F7xx_HAL_Driver/Src/stm32f7xx_ll_usb.c **** HAL_StatusTypeDef USB_SetCurrentMode(USB_OTG_GlobalTypeDef *USBx , USB_OTG_ModeTypeDef mode)
 203:Drivers/STM32F7xx_HAL_Driver/Src/stm32f7xx_ll_usb.c **** {
ARM GAS  C:\Users\Patryk\AppData\Local\Temp\cc5QRopf.s 			page 5


 204:Drivers/STM32F7xx_HAL_Driver/Src/stm32f7xx_ll_usb.c ****   USBx->GUSBCFG &= ~(USB_OTG_GUSBCFG_FHMOD | USB_OTG_GUSBCFG_FDMOD);
 205:Drivers/STM32F7xx_HAL_Driver/Src/stm32f7xx_ll_usb.c **** 
 206:Drivers/STM32F7xx_HAL_Driver/Src/stm32f7xx_ll_usb.c ****   if (mode == USB_HOST_MODE)
 207:Drivers/STM32F7xx_HAL_Driver/Src/stm32f7xx_ll_usb.c ****   {
 208:Drivers/STM32F7xx_HAL_Driver/Src/stm32f7xx_ll_usb.c ****     USBx->GUSBCFG |= USB_OTG_GUSBCFG_FHMOD;
 209:Drivers/STM32F7xx_HAL_Driver/Src/stm32f7xx_ll_usb.c ****   }
 210:Drivers/STM32F7xx_HAL_Driver/Src/stm32f7xx_ll_usb.c ****   else if (mode == USB_DEVICE_MODE)
 211:Drivers/STM32F7xx_HAL_Driver/Src/stm32f7xx_ll_usb.c ****   {
 212:Drivers/STM32F7xx_HAL_Driver/Src/stm32f7xx_ll_usb.c ****     USBx->GUSBCFG |= USB_OTG_GUSBCFG_FDMOD;
 213:Drivers/STM32F7xx_HAL_Driver/Src/stm32f7xx_ll_usb.c ****   }
 214:Drivers/STM32F7xx_HAL_Driver/Src/stm32f7xx_ll_usb.c ****   else
 215:Drivers/STM32F7xx_HAL_Driver/Src/stm32f7xx_ll_usb.c ****   {
 216:Drivers/STM32F7xx_HAL_Driver/Src/stm32f7xx_ll_usb.c ****     return HAL_ERROR;
 217:Drivers/STM32F7xx_HAL_Driver/Src/stm32f7xx_ll_usb.c ****   }
 218:Drivers/STM32F7xx_HAL_Driver/Src/stm32f7xx_ll_usb.c ****   HAL_Delay(50U);
 219:Drivers/STM32F7xx_HAL_Driver/Src/stm32f7xx_ll_usb.c **** 
 220:Drivers/STM32F7xx_HAL_Driver/Src/stm32f7xx_ll_usb.c ****   return HAL_OK;
 221:Drivers/STM32F7xx_HAL_Driver/Src/stm32f7xx_ll_usb.c **** }
 222:Drivers/STM32F7xx_HAL_Driver/Src/stm32f7xx_ll_usb.c **** 
 223:Drivers/STM32F7xx_HAL_Driver/Src/stm32f7xx_ll_usb.c **** /**
 224:Drivers/STM32F7xx_HAL_Driver/Src/stm32f7xx_ll_usb.c ****   * @brief  USB_DevInit : Initializes the USB_OTG controller registers
 225:Drivers/STM32F7xx_HAL_Driver/Src/stm32f7xx_ll_usb.c ****   *         for device mode
 226:Drivers/STM32F7xx_HAL_Driver/Src/stm32f7xx_ll_usb.c ****   * @param  USBx  Selected device
 227:Drivers/STM32F7xx_HAL_Driver/Src/stm32f7xx_ll_usb.c ****   * @param  cfg   pointer to a USB_OTG_CfgTypeDef structure that contains
 228:Drivers/STM32F7xx_HAL_Driver/Src/stm32f7xx_ll_usb.c ****   *         the configuration information for the specified USBx peripheral.
 229:Drivers/STM32F7xx_HAL_Driver/Src/stm32f7xx_ll_usb.c ****   * @retval HAL status
 230:Drivers/STM32F7xx_HAL_Driver/Src/stm32f7xx_ll_usb.c ****   */
 231:Drivers/STM32F7xx_HAL_Driver/Src/stm32f7xx_ll_usb.c **** HAL_StatusTypeDef USB_DevInit (USB_OTG_GlobalTypeDef *USBx, USB_OTG_CfgTypeDef cfg)
 232:Drivers/STM32F7xx_HAL_Driver/Src/stm32f7xx_ll_usb.c **** {
 233:Drivers/STM32F7xx_HAL_Driver/Src/stm32f7xx_ll_usb.c ****   uint32_t USBx_BASE = (uint32_t)USBx;
 234:Drivers/STM32F7xx_HAL_Driver/Src/stm32f7xx_ll_usb.c ****   uint32_t i;
 235:Drivers/STM32F7xx_HAL_Driver/Src/stm32f7xx_ll_usb.c **** 
 236:Drivers/STM32F7xx_HAL_Driver/Src/stm32f7xx_ll_usb.c ****   for (i = 0U; i < 15U; i++)
 237:Drivers/STM32F7xx_HAL_Driver/Src/stm32f7xx_ll_usb.c ****   {
 238:Drivers/STM32F7xx_HAL_Driver/Src/stm32f7xx_ll_usb.c ****     USBx->DIEPTXF[i] = 0U;
 239:Drivers/STM32F7xx_HAL_Driver/Src/stm32f7xx_ll_usb.c ****   }
 240:Drivers/STM32F7xx_HAL_Driver/Src/stm32f7xx_ll_usb.c **** 
 241:Drivers/STM32F7xx_HAL_Driver/Src/stm32f7xx_ll_usb.c ****   /*Activate VBUS Sensing B */
 242:Drivers/STM32F7xx_HAL_Driver/Src/stm32f7xx_ll_usb.c ****   USBx->GCCFG |= USB_OTG_GCCFG_VBDEN;
 243:Drivers/STM32F7xx_HAL_Driver/Src/stm32f7xx_ll_usb.c **** 
 244:Drivers/STM32F7xx_HAL_Driver/Src/stm32f7xx_ll_usb.c ****   if (cfg.vbus_sensing_enable == 0U)
 245:Drivers/STM32F7xx_HAL_Driver/Src/stm32f7xx_ll_usb.c ****   {
 246:Drivers/STM32F7xx_HAL_Driver/Src/stm32f7xx_ll_usb.c ****     /* Deactivate VBUS Sensing B */
 247:Drivers/STM32F7xx_HAL_Driver/Src/stm32f7xx_ll_usb.c ****     USBx->GCCFG &= ~USB_OTG_GCCFG_VBDEN;
 248:Drivers/STM32F7xx_HAL_Driver/Src/stm32f7xx_ll_usb.c **** 
 249:Drivers/STM32F7xx_HAL_Driver/Src/stm32f7xx_ll_usb.c ****     /* B-peripheral session valid override enable*/
 250:Drivers/STM32F7xx_HAL_Driver/Src/stm32f7xx_ll_usb.c ****     USBx->GOTGCTL |= USB_OTG_GOTGCTL_BVALOEN;
 251:Drivers/STM32F7xx_HAL_Driver/Src/stm32f7xx_ll_usb.c ****     USBx->GOTGCTL |= USB_OTG_GOTGCTL_BVALOVAL;
 252:Drivers/STM32F7xx_HAL_Driver/Src/stm32f7xx_ll_usb.c ****   }
 253:Drivers/STM32F7xx_HAL_Driver/Src/stm32f7xx_ll_usb.c **** 
 254:Drivers/STM32F7xx_HAL_Driver/Src/stm32f7xx_ll_usb.c ****   /* Restart the Phy Clock */
 255:Drivers/STM32F7xx_HAL_Driver/Src/stm32f7xx_ll_usb.c ****   USBx_PCGCCTL = 0U;
 256:Drivers/STM32F7xx_HAL_Driver/Src/stm32f7xx_ll_usb.c **** 
 257:Drivers/STM32F7xx_HAL_Driver/Src/stm32f7xx_ll_usb.c ****   /* Device mode configuration */
 258:Drivers/STM32F7xx_HAL_Driver/Src/stm32f7xx_ll_usb.c ****   USBx_DEVICE->DCFG |= DCFG_FRAME_INTERVAL_80;
 259:Drivers/STM32F7xx_HAL_Driver/Src/stm32f7xx_ll_usb.c **** 
 260:Drivers/STM32F7xx_HAL_Driver/Src/stm32f7xx_ll_usb.c ****   if(cfg.phy_itface == USB_OTG_ULPI_PHY)
ARM GAS  C:\Users\Patryk\AppData\Local\Temp\cc5QRopf.s 			page 6


 261:Drivers/STM32F7xx_HAL_Driver/Src/stm32f7xx_ll_usb.c ****   {
 262:Drivers/STM32F7xx_HAL_Driver/Src/stm32f7xx_ll_usb.c ****     if(cfg.speed == USB_OTG_SPEED_HIGH)
 263:Drivers/STM32F7xx_HAL_Driver/Src/stm32f7xx_ll_usb.c ****     {
 264:Drivers/STM32F7xx_HAL_Driver/Src/stm32f7xx_ll_usb.c ****       /* Set High speed phy */
 265:Drivers/STM32F7xx_HAL_Driver/Src/stm32f7xx_ll_usb.c ****       (void)USB_SetDevSpeed (USBx, USB_OTG_SPEED_HIGH);
 266:Drivers/STM32F7xx_HAL_Driver/Src/stm32f7xx_ll_usb.c ****     }
 267:Drivers/STM32F7xx_HAL_Driver/Src/stm32f7xx_ll_usb.c ****     else
 268:Drivers/STM32F7xx_HAL_Driver/Src/stm32f7xx_ll_usb.c ****     {
 269:Drivers/STM32F7xx_HAL_Driver/Src/stm32f7xx_ll_usb.c ****       /* set High speed phy in Full speed mode */
 270:Drivers/STM32F7xx_HAL_Driver/Src/stm32f7xx_ll_usb.c ****       (void)USB_SetDevSpeed (USBx, USB_OTG_SPEED_HIGH_IN_FULL);
 271:Drivers/STM32F7xx_HAL_Driver/Src/stm32f7xx_ll_usb.c ****     }
 272:Drivers/STM32F7xx_HAL_Driver/Src/stm32f7xx_ll_usb.c ****   }
 273:Drivers/STM32F7xx_HAL_Driver/Src/stm32f7xx_ll_usb.c ****   else if(cfg.phy_itface == USB_OTG_HS_EMBEDDED_PHY)
 274:Drivers/STM32F7xx_HAL_Driver/Src/stm32f7xx_ll_usb.c ****   {
 275:Drivers/STM32F7xx_HAL_Driver/Src/stm32f7xx_ll_usb.c ****     if(cfg.speed == USB_OTG_SPEED_HIGH)
 276:Drivers/STM32F7xx_HAL_Driver/Src/stm32f7xx_ll_usb.c ****     {
 277:Drivers/STM32F7xx_HAL_Driver/Src/stm32f7xx_ll_usb.c ****       /* Set High speed phy */
 278:Drivers/STM32F7xx_HAL_Driver/Src/stm32f7xx_ll_usb.c ****       (void)USB_SetDevSpeed (USBx, USB_OTG_SPEED_HIGH);
 279:Drivers/STM32F7xx_HAL_Driver/Src/stm32f7xx_ll_usb.c ****     }
 280:Drivers/STM32F7xx_HAL_Driver/Src/stm32f7xx_ll_usb.c ****     else
 281:Drivers/STM32F7xx_HAL_Driver/Src/stm32f7xx_ll_usb.c ****     {
 282:Drivers/STM32F7xx_HAL_Driver/Src/stm32f7xx_ll_usb.c ****       /* set High speed phy in Full speed mode */
 283:Drivers/STM32F7xx_HAL_Driver/Src/stm32f7xx_ll_usb.c ****       (void)USB_SetDevSpeed (USBx, USB_OTG_SPEED_HIGH_IN_FULL);
 284:Drivers/STM32F7xx_HAL_Driver/Src/stm32f7xx_ll_usb.c ****     }
 285:Drivers/STM32F7xx_HAL_Driver/Src/stm32f7xx_ll_usb.c ****   }
 286:Drivers/STM32F7xx_HAL_Driver/Src/stm32f7xx_ll_usb.c ****   else
 287:Drivers/STM32F7xx_HAL_Driver/Src/stm32f7xx_ll_usb.c ****   {
 288:Drivers/STM32F7xx_HAL_Driver/Src/stm32f7xx_ll_usb.c ****     /* Set Full speed phy */
 289:Drivers/STM32F7xx_HAL_Driver/Src/stm32f7xx_ll_usb.c ****     (void)USB_SetDevSpeed (USBx, USB_OTG_SPEED_FULL);
 290:Drivers/STM32F7xx_HAL_Driver/Src/stm32f7xx_ll_usb.c ****   }
 291:Drivers/STM32F7xx_HAL_Driver/Src/stm32f7xx_ll_usb.c **** 
 292:Drivers/STM32F7xx_HAL_Driver/Src/stm32f7xx_ll_usb.c ****   /* Flush the FIFOs */
 293:Drivers/STM32F7xx_HAL_Driver/Src/stm32f7xx_ll_usb.c ****   (void)USB_FlushTxFifo(USBx, 0x10U); /* all Tx FIFOs */
 294:Drivers/STM32F7xx_HAL_Driver/Src/stm32f7xx_ll_usb.c ****   (void)USB_FlushRxFifo(USBx);
 295:Drivers/STM32F7xx_HAL_Driver/Src/stm32f7xx_ll_usb.c **** 
 296:Drivers/STM32F7xx_HAL_Driver/Src/stm32f7xx_ll_usb.c ****   /* Clear all pending Device Interrupts */
 297:Drivers/STM32F7xx_HAL_Driver/Src/stm32f7xx_ll_usb.c ****   USBx_DEVICE->DIEPMSK = 0U;
 298:Drivers/STM32F7xx_HAL_Driver/Src/stm32f7xx_ll_usb.c ****   USBx_DEVICE->DOEPMSK = 0U;
 299:Drivers/STM32F7xx_HAL_Driver/Src/stm32f7xx_ll_usb.c ****   USBx_DEVICE->DAINTMSK = 0U;
 300:Drivers/STM32F7xx_HAL_Driver/Src/stm32f7xx_ll_usb.c **** 
 301:Drivers/STM32F7xx_HAL_Driver/Src/stm32f7xx_ll_usb.c ****   for (i = 0U; i < cfg.dev_endpoints; i++)
 302:Drivers/STM32F7xx_HAL_Driver/Src/stm32f7xx_ll_usb.c ****   {
 303:Drivers/STM32F7xx_HAL_Driver/Src/stm32f7xx_ll_usb.c ****     if ((USBx_INEP(i)->DIEPCTL & USB_OTG_DIEPCTL_EPENA) == USB_OTG_DIEPCTL_EPENA)
 304:Drivers/STM32F7xx_HAL_Driver/Src/stm32f7xx_ll_usb.c ****     {
 305:Drivers/STM32F7xx_HAL_Driver/Src/stm32f7xx_ll_usb.c ****       if (i == 0U)
 306:Drivers/STM32F7xx_HAL_Driver/Src/stm32f7xx_ll_usb.c ****       {
 307:Drivers/STM32F7xx_HAL_Driver/Src/stm32f7xx_ll_usb.c ****         USBx_INEP(i)->DIEPCTL = USB_OTG_DIEPCTL_SNAK;
 308:Drivers/STM32F7xx_HAL_Driver/Src/stm32f7xx_ll_usb.c ****       }
 309:Drivers/STM32F7xx_HAL_Driver/Src/stm32f7xx_ll_usb.c ****       else
 310:Drivers/STM32F7xx_HAL_Driver/Src/stm32f7xx_ll_usb.c ****       {
 311:Drivers/STM32F7xx_HAL_Driver/Src/stm32f7xx_ll_usb.c ****         USBx_INEP(i)->DIEPCTL = USB_OTG_DIEPCTL_EPDIS | USB_OTG_DIEPCTL_SNAK;
 312:Drivers/STM32F7xx_HAL_Driver/Src/stm32f7xx_ll_usb.c ****       }
 313:Drivers/STM32F7xx_HAL_Driver/Src/stm32f7xx_ll_usb.c ****     }
 314:Drivers/STM32F7xx_HAL_Driver/Src/stm32f7xx_ll_usb.c ****     else
 315:Drivers/STM32F7xx_HAL_Driver/Src/stm32f7xx_ll_usb.c ****     {
 316:Drivers/STM32F7xx_HAL_Driver/Src/stm32f7xx_ll_usb.c ****       USBx_INEP(i)->DIEPCTL = 0U;
 317:Drivers/STM32F7xx_HAL_Driver/Src/stm32f7xx_ll_usb.c ****     }
ARM GAS  C:\Users\Patryk\AppData\Local\Temp\cc5QRopf.s 			page 7


 318:Drivers/STM32F7xx_HAL_Driver/Src/stm32f7xx_ll_usb.c **** 
 319:Drivers/STM32F7xx_HAL_Driver/Src/stm32f7xx_ll_usb.c ****     USBx_INEP(i)->DIEPTSIZ = 0U;
 320:Drivers/STM32F7xx_HAL_Driver/Src/stm32f7xx_ll_usb.c ****     USBx_INEP(i)->DIEPINT  = 0xFB7FU;
 321:Drivers/STM32F7xx_HAL_Driver/Src/stm32f7xx_ll_usb.c ****   }
 322:Drivers/STM32F7xx_HAL_Driver/Src/stm32f7xx_ll_usb.c **** 
 323:Drivers/STM32F7xx_HAL_Driver/Src/stm32f7xx_ll_usb.c ****   for (i = 0U; i < cfg.dev_endpoints; i++)
 324:Drivers/STM32F7xx_HAL_Driver/Src/stm32f7xx_ll_usb.c ****   {
 325:Drivers/STM32F7xx_HAL_Driver/Src/stm32f7xx_ll_usb.c ****     if ((USBx_OUTEP(i)->DOEPCTL & USB_OTG_DOEPCTL_EPENA) == USB_OTG_DOEPCTL_EPENA)
 326:Drivers/STM32F7xx_HAL_Driver/Src/stm32f7xx_ll_usb.c ****     {
 327:Drivers/STM32F7xx_HAL_Driver/Src/stm32f7xx_ll_usb.c ****       if (i == 0U)
 328:Drivers/STM32F7xx_HAL_Driver/Src/stm32f7xx_ll_usb.c ****       {
 329:Drivers/STM32F7xx_HAL_Driver/Src/stm32f7xx_ll_usb.c ****         USBx_OUTEP(i)->DOEPCTL = USB_OTG_DOEPCTL_SNAK;
 330:Drivers/STM32F7xx_HAL_Driver/Src/stm32f7xx_ll_usb.c ****       }
 331:Drivers/STM32F7xx_HAL_Driver/Src/stm32f7xx_ll_usb.c ****       else
 332:Drivers/STM32F7xx_HAL_Driver/Src/stm32f7xx_ll_usb.c ****       {
 333:Drivers/STM32F7xx_HAL_Driver/Src/stm32f7xx_ll_usb.c ****         USBx_OUTEP(i)->DOEPCTL = USB_OTG_DOEPCTL_EPDIS | USB_OTG_DOEPCTL_SNAK;
 334:Drivers/STM32F7xx_HAL_Driver/Src/stm32f7xx_ll_usb.c ****       }
 335:Drivers/STM32F7xx_HAL_Driver/Src/stm32f7xx_ll_usb.c ****     }
 336:Drivers/STM32F7xx_HAL_Driver/Src/stm32f7xx_ll_usb.c ****     else
 337:Drivers/STM32F7xx_HAL_Driver/Src/stm32f7xx_ll_usb.c ****     {
 338:Drivers/STM32F7xx_HAL_Driver/Src/stm32f7xx_ll_usb.c ****       USBx_OUTEP(i)->DOEPCTL = 0U;
 339:Drivers/STM32F7xx_HAL_Driver/Src/stm32f7xx_ll_usb.c ****     }
 340:Drivers/STM32F7xx_HAL_Driver/Src/stm32f7xx_ll_usb.c **** 
 341:Drivers/STM32F7xx_HAL_Driver/Src/stm32f7xx_ll_usb.c ****     USBx_OUTEP(i)->DOEPTSIZ = 0U;
 342:Drivers/STM32F7xx_HAL_Driver/Src/stm32f7xx_ll_usb.c ****     USBx_OUTEP(i)->DOEPINT  = 0xFB7FU;
 343:Drivers/STM32F7xx_HAL_Driver/Src/stm32f7xx_ll_usb.c ****   }
 344:Drivers/STM32F7xx_HAL_Driver/Src/stm32f7xx_ll_usb.c **** 
 345:Drivers/STM32F7xx_HAL_Driver/Src/stm32f7xx_ll_usb.c ****   USBx_DEVICE->DIEPMSK &= ~(USB_OTG_DIEPMSK_TXFURM);
 346:Drivers/STM32F7xx_HAL_Driver/Src/stm32f7xx_ll_usb.c **** 
 347:Drivers/STM32F7xx_HAL_Driver/Src/stm32f7xx_ll_usb.c ****   if (cfg.dma_enable == 1U)
 348:Drivers/STM32F7xx_HAL_Driver/Src/stm32f7xx_ll_usb.c ****   {
 349:Drivers/STM32F7xx_HAL_Driver/Src/stm32f7xx_ll_usb.c ****     /*Set threshold parameters */
 350:Drivers/STM32F7xx_HAL_Driver/Src/stm32f7xx_ll_usb.c ****     USBx_DEVICE->DTHRCTL = USB_OTG_DTHRCTL_TXTHRLEN_6 |
 351:Drivers/STM32F7xx_HAL_Driver/Src/stm32f7xx_ll_usb.c ****                            USB_OTG_DTHRCTL_RXTHRLEN_6;
 352:Drivers/STM32F7xx_HAL_Driver/Src/stm32f7xx_ll_usb.c **** 
 353:Drivers/STM32F7xx_HAL_Driver/Src/stm32f7xx_ll_usb.c ****     USBx_DEVICE->DTHRCTL |= USB_OTG_DTHRCTL_RXTHREN |
 354:Drivers/STM32F7xx_HAL_Driver/Src/stm32f7xx_ll_usb.c ****                             USB_OTG_DTHRCTL_ISOTHREN |
 355:Drivers/STM32F7xx_HAL_Driver/Src/stm32f7xx_ll_usb.c ****                             USB_OTG_DTHRCTL_NONISOTHREN;
 356:Drivers/STM32F7xx_HAL_Driver/Src/stm32f7xx_ll_usb.c ****   }
 357:Drivers/STM32F7xx_HAL_Driver/Src/stm32f7xx_ll_usb.c **** 
 358:Drivers/STM32F7xx_HAL_Driver/Src/stm32f7xx_ll_usb.c ****   /* Disable all interrupts. */
 359:Drivers/STM32F7xx_HAL_Driver/Src/stm32f7xx_ll_usb.c ****   USBx->GINTMSK = 0U;
 360:Drivers/STM32F7xx_HAL_Driver/Src/stm32f7xx_ll_usb.c **** 
 361:Drivers/STM32F7xx_HAL_Driver/Src/stm32f7xx_ll_usb.c ****   /* Clear any pending interrupts */
 362:Drivers/STM32F7xx_HAL_Driver/Src/stm32f7xx_ll_usb.c ****   USBx->GINTSTS = 0xBFFFFFFFU;
 363:Drivers/STM32F7xx_HAL_Driver/Src/stm32f7xx_ll_usb.c **** 
 364:Drivers/STM32F7xx_HAL_Driver/Src/stm32f7xx_ll_usb.c ****   /* Enable the common interrupts */
 365:Drivers/STM32F7xx_HAL_Driver/Src/stm32f7xx_ll_usb.c ****   if (cfg.dma_enable == 0U)
 366:Drivers/STM32F7xx_HAL_Driver/Src/stm32f7xx_ll_usb.c ****   {
 367:Drivers/STM32F7xx_HAL_Driver/Src/stm32f7xx_ll_usb.c ****     USBx->GINTMSK |= USB_OTG_GINTMSK_RXFLVLM;
 368:Drivers/STM32F7xx_HAL_Driver/Src/stm32f7xx_ll_usb.c ****   }
 369:Drivers/STM32F7xx_HAL_Driver/Src/stm32f7xx_ll_usb.c **** 
 370:Drivers/STM32F7xx_HAL_Driver/Src/stm32f7xx_ll_usb.c ****   /* Enable interrupts matching to the Device mode ONLY */
 371:Drivers/STM32F7xx_HAL_Driver/Src/stm32f7xx_ll_usb.c ****   USBx->GINTMSK |= USB_OTG_GINTMSK_USBSUSPM | USB_OTG_GINTMSK_USBRST |
 372:Drivers/STM32F7xx_HAL_Driver/Src/stm32f7xx_ll_usb.c ****                    USB_OTG_GINTMSK_ENUMDNEM | USB_OTG_GINTMSK_IEPINT |
 373:Drivers/STM32F7xx_HAL_Driver/Src/stm32f7xx_ll_usb.c ****                    USB_OTG_GINTMSK_OEPINT   | USB_OTG_GINTMSK_IISOIXFRM|
 374:Drivers/STM32F7xx_HAL_Driver/Src/stm32f7xx_ll_usb.c ****                    USB_OTG_GINTMSK_PXFRM_IISOOXFRM | USB_OTG_GINTMSK_WUIM;
ARM GAS  C:\Users\Patryk\AppData\Local\Temp\cc5QRopf.s 			page 8


 375:Drivers/STM32F7xx_HAL_Driver/Src/stm32f7xx_ll_usb.c **** 
 376:Drivers/STM32F7xx_HAL_Driver/Src/stm32f7xx_ll_usb.c ****   if(cfg.Sof_enable != 0U)
 377:Drivers/STM32F7xx_HAL_Driver/Src/stm32f7xx_ll_usb.c ****   {
 378:Drivers/STM32F7xx_HAL_Driver/Src/stm32f7xx_ll_usb.c ****     USBx->GINTMSK |= USB_OTG_GINTMSK_SOFM;
 379:Drivers/STM32F7xx_HAL_Driver/Src/stm32f7xx_ll_usb.c ****   }
 380:Drivers/STM32F7xx_HAL_Driver/Src/stm32f7xx_ll_usb.c **** 
 381:Drivers/STM32F7xx_HAL_Driver/Src/stm32f7xx_ll_usb.c ****   if (cfg.vbus_sensing_enable == 1U)
 382:Drivers/STM32F7xx_HAL_Driver/Src/stm32f7xx_ll_usb.c ****   {
 383:Drivers/STM32F7xx_HAL_Driver/Src/stm32f7xx_ll_usb.c ****     USBx->GINTMSK |= (USB_OTG_GINTMSK_SRQIM | USB_OTG_GINTMSK_OTGINT);
 384:Drivers/STM32F7xx_HAL_Driver/Src/stm32f7xx_ll_usb.c ****   }
 385:Drivers/STM32F7xx_HAL_Driver/Src/stm32f7xx_ll_usb.c **** 
 386:Drivers/STM32F7xx_HAL_Driver/Src/stm32f7xx_ll_usb.c ****   return HAL_OK;
 387:Drivers/STM32F7xx_HAL_Driver/Src/stm32f7xx_ll_usb.c **** }
 388:Drivers/STM32F7xx_HAL_Driver/Src/stm32f7xx_ll_usb.c **** 
 389:Drivers/STM32F7xx_HAL_Driver/Src/stm32f7xx_ll_usb.c **** /**
 390:Drivers/STM32F7xx_HAL_Driver/Src/stm32f7xx_ll_usb.c ****   * @brief  USB_OTG_FlushTxFifo : Flush a Tx FIFO
 391:Drivers/STM32F7xx_HAL_Driver/Src/stm32f7xx_ll_usb.c ****   * @param  USBx  Selected device
 392:Drivers/STM32F7xx_HAL_Driver/Src/stm32f7xx_ll_usb.c ****   * @param  num  FIFO number
 393:Drivers/STM32F7xx_HAL_Driver/Src/stm32f7xx_ll_usb.c ****   *         This parameter can be a value from 1 to 15
 394:Drivers/STM32F7xx_HAL_Driver/Src/stm32f7xx_ll_usb.c ****             15 means Flush all Tx FIFOs
 395:Drivers/STM32F7xx_HAL_Driver/Src/stm32f7xx_ll_usb.c ****   * @retval HAL status
 396:Drivers/STM32F7xx_HAL_Driver/Src/stm32f7xx_ll_usb.c ****   */
 397:Drivers/STM32F7xx_HAL_Driver/Src/stm32f7xx_ll_usb.c **** HAL_StatusTypeDef USB_FlushTxFifo (USB_OTG_GlobalTypeDef *USBx, uint32_t num)
 398:Drivers/STM32F7xx_HAL_Driver/Src/stm32f7xx_ll_usb.c **** {
 399:Drivers/STM32F7xx_HAL_Driver/Src/stm32f7xx_ll_usb.c ****   uint32_t count = 0U;
 400:Drivers/STM32F7xx_HAL_Driver/Src/stm32f7xx_ll_usb.c **** 
 401:Drivers/STM32F7xx_HAL_Driver/Src/stm32f7xx_ll_usb.c ****   USBx->GRSTCTL = (USB_OTG_GRSTCTL_TXFFLSH | (num << 6));
 402:Drivers/STM32F7xx_HAL_Driver/Src/stm32f7xx_ll_usb.c **** 
 403:Drivers/STM32F7xx_HAL_Driver/Src/stm32f7xx_ll_usb.c ****   do
 404:Drivers/STM32F7xx_HAL_Driver/Src/stm32f7xx_ll_usb.c ****   {
 405:Drivers/STM32F7xx_HAL_Driver/Src/stm32f7xx_ll_usb.c ****     if (++count > 200000U)
 406:Drivers/STM32F7xx_HAL_Driver/Src/stm32f7xx_ll_usb.c ****     {
 407:Drivers/STM32F7xx_HAL_Driver/Src/stm32f7xx_ll_usb.c ****       return HAL_TIMEOUT;
 408:Drivers/STM32F7xx_HAL_Driver/Src/stm32f7xx_ll_usb.c ****     }
 409:Drivers/STM32F7xx_HAL_Driver/Src/stm32f7xx_ll_usb.c ****   }
 410:Drivers/STM32F7xx_HAL_Driver/Src/stm32f7xx_ll_usb.c ****   while ((USBx->GRSTCTL & USB_OTG_GRSTCTL_TXFFLSH) == USB_OTG_GRSTCTL_TXFFLSH);
 411:Drivers/STM32F7xx_HAL_Driver/Src/stm32f7xx_ll_usb.c **** 
 412:Drivers/STM32F7xx_HAL_Driver/Src/stm32f7xx_ll_usb.c ****   return HAL_OK;
 413:Drivers/STM32F7xx_HAL_Driver/Src/stm32f7xx_ll_usb.c **** }
 414:Drivers/STM32F7xx_HAL_Driver/Src/stm32f7xx_ll_usb.c **** 
 415:Drivers/STM32F7xx_HAL_Driver/Src/stm32f7xx_ll_usb.c **** /**
 416:Drivers/STM32F7xx_HAL_Driver/Src/stm32f7xx_ll_usb.c ****   * @brief  USB_FlushRxFifo : Flush Rx FIFO
 417:Drivers/STM32F7xx_HAL_Driver/Src/stm32f7xx_ll_usb.c ****   * @param  USBx  Selected device
 418:Drivers/STM32F7xx_HAL_Driver/Src/stm32f7xx_ll_usb.c ****   * @retval HAL status
 419:Drivers/STM32F7xx_HAL_Driver/Src/stm32f7xx_ll_usb.c ****   */
 420:Drivers/STM32F7xx_HAL_Driver/Src/stm32f7xx_ll_usb.c **** HAL_StatusTypeDef USB_FlushRxFifo(USB_OTG_GlobalTypeDef *USBx)
 421:Drivers/STM32F7xx_HAL_Driver/Src/stm32f7xx_ll_usb.c **** {
 422:Drivers/STM32F7xx_HAL_Driver/Src/stm32f7xx_ll_usb.c ****   uint32_t count = 0;
 423:Drivers/STM32F7xx_HAL_Driver/Src/stm32f7xx_ll_usb.c **** 
 424:Drivers/STM32F7xx_HAL_Driver/Src/stm32f7xx_ll_usb.c ****   USBx->GRSTCTL = USB_OTG_GRSTCTL_RXFFLSH;
 425:Drivers/STM32F7xx_HAL_Driver/Src/stm32f7xx_ll_usb.c **** 
 426:Drivers/STM32F7xx_HAL_Driver/Src/stm32f7xx_ll_usb.c ****   do
 427:Drivers/STM32F7xx_HAL_Driver/Src/stm32f7xx_ll_usb.c ****   {
 428:Drivers/STM32F7xx_HAL_Driver/Src/stm32f7xx_ll_usb.c ****     if (++count > 200000U)
 429:Drivers/STM32F7xx_HAL_Driver/Src/stm32f7xx_ll_usb.c ****     {
 430:Drivers/STM32F7xx_HAL_Driver/Src/stm32f7xx_ll_usb.c ****       return HAL_TIMEOUT;
 431:Drivers/STM32F7xx_HAL_Driver/Src/stm32f7xx_ll_usb.c ****     }
ARM GAS  C:\Users\Patryk\AppData\Local\Temp\cc5QRopf.s 			page 9


 432:Drivers/STM32F7xx_HAL_Driver/Src/stm32f7xx_ll_usb.c ****   }
 433:Drivers/STM32F7xx_HAL_Driver/Src/stm32f7xx_ll_usb.c ****   while ((USBx->GRSTCTL & USB_OTG_GRSTCTL_RXFFLSH) == USB_OTG_GRSTCTL_RXFFLSH);
 434:Drivers/STM32F7xx_HAL_Driver/Src/stm32f7xx_ll_usb.c **** 
 435:Drivers/STM32F7xx_HAL_Driver/Src/stm32f7xx_ll_usb.c ****   return HAL_OK;
 436:Drivers/STM32F7xx_HAL_Driver/Src/stm32f7xx_ll_usb.c **** }
 437:Drivers/STM32F7xx_HAL_Driver/Src/stm32f7xx_ll_usb.c **** 
 438:Drivers/STM32F7xx_HAL_Driver/Src/stm32f7xx_ll_usb.c **** /**
 439:Drivers/STM32F7xx_HAL_Driver/Src/stm32f7xx_ll_usb.c ****   * @brief  USB_SetDevSpeed :Initializes the DevSpd field of DCFG register
 440:Drivers/STM32F7xx_HAL_Driver/Src/stm32f7xx_ll_usb.c ****   *         depending the PHY type and the enumeration speed of the device.
 441:Drivers/STM32F7xx_HAL_Driver/Src/stm32f7xx_ll_usb.c ****   * @param  USBx  Selected device
 442:Drivers/STM32F7xx_HAL_Driver/Src/stm32f7xx_ll_usb.c ****   * @param  speed  device speed
 443:Drivers/STM32F7xx_HAL_Driver/Src/stm32f7xx_ll_usb.c ****   *          This parameter can be one of these values:
 444:Drivers/STM32F7xx_HAL_Driver/Src/stm32f7xx_ll_usb.c ****   *            @arg USB_OTG_SPEED_HIGH: High speed mode
 445:Drivers/STM32F7xx_HAL_Driver/Src/stm32f7xx_ll_usb.c ****   *            @arg USB_OTG_SPEED_HIGH_IN_FULL: High speed core in Full Speed mode
 446:Drivers/STM32F7xx_HAL_Driver/Src/stm32f7xx_ll_usb.c ****   *            @arg USB_OTG_SPEED_FULL: Full speed mode
 447:Drivers/STM32F7xx_HAL_Driver/Src/stm32f7xx_ll_usb.c ****   *            @arg USB_OTG_SPEED_LOW: Low speed mode
 448:Drivers/STM32F7xx_HAL_Driver/Src/stm32f7xx_ll_usb.c ****   * @retval  Hal status
 449:Drivers/STM32F7xx_HAL_Driver/Src/stm32f7xx_ll_usb.c ****   */
 450:Drivers/STM32F7xx_HAL_Driver/Src/stm32f7xx_ll_usb.c **** HAL_StatusTypeDef USB_SetDevSpeed(USB_OTG_GlobalTypeDef *USBx , uint8_t speed)
 451:Drivers/STM32F7xx_HAL_Driver/Src/stm32f7xx_ll_usb.c **** {
 452:Drivers/STM32F7xx_HAL_Driver/Src/stm32f7xx_ll_usb.c ****   uint32_t USBx_BASE = (uint32_t)USBx;
 453:Drivers/STM32F7xx_HAL_Driver/Src/stm32f7xx_ll_usb.c **** 
 454:Drivers/STM32F7xx_HAL_Driver/Src/stm32f7xx_ll_usb.c ****   USBx_DEVICE->DCFG |= speed;
 455:Drivers/STM32F7xx_HAL_Driver/Src/stm32f7xx_ll_usb.c ****   return HAL_OK;
 456:Drivers/STM32F7xx_HAL_Driver/Src/stm32f7xx_ll_usb.c **** }
 457:Drivers/STM32F7xx_HAL_Driver/Src/stm32f7xx_ll_usb.c **** 
 458:Drivers/STM32F7xx_HAL_Driver/Src/stm32f7xx_ll_usb.c **** /**
 459:Drivers/STM32F7xx_HAL_Driver/Src/stm32f7xx_ll_usb.c ****   * @brief  USB_GetDevSpeed :Return the  Dev Speed
 460:Drivers/STM32F7xx_HAL_Driver/Src/stm32f7xx_ll_usb.c ****   * @param  USBx  Selected device
 461:Drivers/STM32F7xx_HAL_Driver/Src/stm32f7xx_ll_usb.c ****   * @retval speed : device speed
 462:Drivers/STM32F7xx_HAL_Driver/Src/stm32f7xx_ll_usb.c ****   *          This parameter can be one of these values:
 463:Drivers/STM32F7xx_HAL_Driver/Src/stm32f7xx_ll_usb.c ****   *            @arg USB_OTG_SPEED_HIGH: High speed mode
 464:Drivers/STM32F7xx_HAL_Driver/Src/stm32f7xx_ll_usb.c ****   *            @arg USB_OTG_SPEED_FULL: Full speed mode
 465:Drivers/STM32F7xx_HAL_Driver/Src/stm32f7xx_ll_usb.c ****   *            @arg USB_OTG_SPEED_LOW: Low speed mode
 466:Drivers/STM32F7xx_HAL_Driver/Src/stm32f7xx_ll_usb.c ****   */
 467:Drivers/STM32F7xx_HAL_Driver/Src/stm32f7xx_ll_usb.c **** uint8_t USB_GetDevSpeed(USB_OTG_GlobalTypeDef *USBx)
 468:Drivers/STM32F7xx_HAL_Driver/Src/stm32f7xx_ll_usb.c **** {
 469:Drivers/STM32F7xx_HAL_Driver/Src/stm32f7xx_ll_usb.c ****   uint32_t USBx_BASE = (uint32_t)USBx;
 470:Drivers/STM32F7xx_HAL_Driver/Src/stm32f7xx_ll_usb.c ****   uint8_t speed;
 471:Drivers/STM32F7xx_HAL_Driver/Src/stm32f7xx_ll_usb.c ****   uint32_t DevEnumSpeed = USBx_DEVICE->DSTS & USB_OTG_DSTS_ENUMSPD;
 472:Drivers/STM32F7xx_HAL_Driver/Src/stm32f7xx_ll_usb.c **** 
 473:Drivers/STM32F7xx_HAL_Driver/Src/stm32f7xx_ll_usb.c ****   if(DevEnumSpeed == DSTS_ENUMSPD_HS_PHY_30MHZ_OR_60MHZ)
 474:Drivers/STM32F7xx_HAL_Driver/Src/stm32f7xx_ll_usb.c ****   {
 475:Drivers/STM32F7xx_HAL_Driver/Src/stm32f7xx_ll_usb.c ****     speed = USB_OTG_SPEED_HIGH;
 476:Drivers/STM32F7xx_HAL_Driver/Src/stm32f7xx_ll_usb.c ****   }
 477:Drivers/STM32F7xx_HAL_Driver/Src/stm32f7xx_ll_usb.c ****   else if ((DevEnumSpeed == DSTS_ENUMSPD_FS_PHY_30MHZ_OR_60MHZ) ||
 478:Drivers/STM32F7xx_HAL_Driver/Src/stm32f7xx_ll_usb.c ****       (DevEnumSpeed == DSTS_ENUMSPD_FS_PHY_48MHZ))
 479:Drivers/STM32F7xx_HAL_Driver/Src/stm32f7xx_ll_usb.c ****   {
 480:Drivers/STM32F7xx_HAL_Driver/Src/stm32f7xx_ll_usb.c ****     speed = USB_OTG_SPEED_FULL;
 481:Drivers/STM32F7xx_HAL_Driver/Src/stm32f7xx_ll_usb.c ****   }
 482:Drivers/STM32F7xx_HAL_Driver/Src/stm32f7xx_ll_usb.c ****   else if (DevEnumSpeed == DSTS_ENUMSPD_LS_PHY_6MHZ)
 483:Drivers/STM32F7xx_HAL_Driver/Src/stm32f7xx_ll_usb.c ****   {
 484:Drivers/STM32F7xx_HAL_Driver/Src/stm32f7xx_ll_usb.c ****     speed = USB_OTG_SPEED_LOW;
 485:Drivers/STM32F7xx_HAL_Driver/Src/stm32f7xx_ll_usb.c ****   }
 486:Drivers/STM32F7xx_HAL_Driver/Src/stm32f7xx_ll_usb.c ****   else
 487:Drivers/STM32F7xx_HAL_Driver/Src/stm32f7xx_ll_usb.c ****   {
 488:Drivers/STM32F7xx_HAL_Driver/Src/stm32f7xx_ll_usb.c ****     speed = 0U;
ARM GAS  C:\Users\Patryk\AppData\Local\Temp\cc5QRopf.s 			page 10


 489:Drivers/STM32F7xx_HAL_Driver/Src/stm32f7xx_ll_usb.c ****   }
 490:Drivers/STM32F7xx_HAL_Driver/Src/stm32f7xx_ll_usb.c **** 
 491:Drivers/STM32F7xx_HAL_Driver/Src/stm32f7xx_ll_usb.c ****   return speed;
 492:Drivers/STM32F7xx_HAL_Driver/Src/stm32f7xx_ll_usb.c **** }
 493:Drivers/STM32F7xx_HAL_Driver/Src/stm32f7xx_ll_usb.c **** 
 494:Drivers/STM32F7xx_HAL_Driver/Src/stm32f7xx_ll_usb.c **** /**
 495:Drivers/STM32F7xx_HAL_Driver/Src/stm32f7xx_ll_usb.c ****   * @brief  Activate and configure an endpoint
 496:Drivers/STM32F7xx_HAL_Driver/Src/stm32f7xx_ll_usb.c ****   * @param  USBx  Selected device
 497:Drivers/STM32F7xx_HAL_Driver/Src/stm32f7xx_ll_usb.c ****   * @param  ep pointer to endpoint structure
 498:Drivers/STM32F7xx_HAL_Driver/Src/stm32f7xx_ll_usb.c ****   * @retval HAL status
 499:Drivers/STM32F7xx_HAL_Driver/Src/stm32f7xx_ll_usb.c ****   */
 500:Drivers/STM32F7xx_HAL_Driver/Src/stm32f7xx_ll_usb.c **** HAL_StatusTypeDef USB_ActivateEndpoint(USB_OTG_GlobalTypeDef *USBx, USB_OTG_EPTypeDef *ep)
 501:Drivers/STM32F7xx_HAL_Driver/Src/stm32f7xx_ll_usb.c **** {
 502:Drivers/STM32F7xx_HAL_Driver/Src/stm32f7xx_ll_usb.c ****   uint32_t USBx_BASE = (uint32_t)USBx;
 503:Drivers/STM32F7xx_HAL_Driver/Src/stm32f7xx_ll_usb.c ****   uint32_t epnum = (uint32_t)ep->num;
 504:Drivers/STM32F7xx_HAL_Driver/Src/stm32f7xx_ll_usb.c **** 
 505:Drivers/STM32F7xx_HAL_Driver/Src/stm32f7xx_ll_usb.c ****   if (ep->is_in == 1U)
 506:Drivers/STM32F7xx_HAL_Driver/Src/stm32f7xx_ll_usb.c ****   {
 507:Drivers/STM32F7xx_HAL_Driver/Src/stm32f7xx_ll_usb.c ****    USBx_DEVICE->DAINTMSK |= USB_OTG_DAINTMSK_IEPM & (uint32_t)(1UL << (ep->num & 0xFU));
 508:Drivers/STM32F7xx_HAL_Driver/Src/stm32f7xx_ll_usb.c **** 
 509:Drivers/STM32F7xx_HAL_Driver/Src/stm32f7xx_ll_usb.c ****     if ((USBx_INEP(epnum)->DIEPCTL & USB_OTG_DIEPCTL_USBAEP) == 0U)
 510:Drivers/STM32F7xx_HAL_Driver/Src/stm32f7xx_ll_usb.c ****     {
 511:Drivers/STM32F7xx_HAL_Driver/Src/stm32f7xx_ll_usb.c ****       USBx_INEP(epnum)->DIEPCTL |= (ep->maxpacket & USB_OTG_DIEPCTL_MPSIZ) |
 512:Drivers/STM32F7xx_HAL_Driver/Src/stm32f7xx_ll_usb.c ****                                     ((uint32_t)ep->type << 18) | (epnum << 22) |
 513:Drivers/STM32F7xx_HAL_Driver/Src/stm32f7xx_ll_usb.c ****                                      USB_OTG_DIEPCTL_SD0PID_SEVNFRM |
 514:Drivers/STM32F7xx_HAL_Driver/Src/stm32f7xx_ll_usb.c ****                                      USB_OTG_DIEPCTL_USBAEP;
 515:Drivers/STM32F7xx_HAL_Driver/Src/stm32f7xx_ll_usb.c ****     }
 516:Drivers/STM32F7xx_HAL_Driver/Src/stm32f7xx_ll_usb.c ****   }
 517:Drivers/STM32F7xx_HAL_Driver/Src/stm32f7xx_ll_usb.c ****   else
 518:Drivers/STM32F7xx_HAL_Driver/Src/stm32f7xx_ll_usb.c ****   {
 519:Drivers/STM32F7xx_HAL_Driver/Src/stm32f7xx_ll_usb.c ****      USBx_DEVICE->DAINTMSK |= USB_OTG_DAINTMSK_OEPM & ((uint32_t)(1UL << (ep->num & 0xFU)) << 16);
 520:Drivers/STM32F7xx_HAL_Driver/Src/stm32f7xx_ll_usb.c **** 
 521:Drivers/STM32F7xx_HAL_Driver/Src/stm32f7xx_ll_usb.c ****     if (((USBx_OUTEP(epnum)->DOEPCTL) & USB_OTG_DOEPCTL_USBAEP) == 0U)
 522:Drivers/STM32F7xx_HAL_Driver/Src/stm32f7xx_ll_usb.c ****     {
 523:Drivers/STM32F7xx_HAL_Driver/Src/stm32f7xx_ll_usb.c ****       USBx_OUTEP(epnum)->DOEPCTL |= (ep->maxpacket & USB_OTG_DOEPCTL_MPSIZ) |
 524:Drivers/STM32F7xx_HAL_Driver/Src/stm32f7xx_ll_usb.c ****                                     ((uint32_t)ep->type << 18) |
 525:Drivers/STM32F7xx_HAL_Driver/Src/stm32f7xx_ll_usb.c ****                                      USB_OTG_DIEPCTL_SD0PID_SEVNFRM |
 526:Drivers/STM32F7xx_HAL_Driver/Src/stm32f7xx_ll_usb.c ****                                      USB_OTG_DOEPCTL_USBAEP;
 527:Drivers/STM32F7xx_HAL_Driver/Src/stm32f7xx_ll_usb.c ****     }
 528:Drivers/STM32F7xx_HAL_Driver/Src/stm32f7xx_ll_usb.c ****   }
 529:Drivers/STM32F7xx_HAL_Driver/Src/stm32f7xx_ll_usb.c ****   return HAL_OK;
 530:Drivers/STM32F7xx_HAL_Driver/Src/stm32f7xx_ll_usb.c **** }
 531:Drivers/STM32F7xx_HAL_Driver/Src/stm32f7xx_ll_usb.c **** 
 532:Drivers/STM32F7xx_HAL_Driver/Src/stm32f7xx_ll_usb.c **** /**
 533:Drivers/STM32F7xx_HAL_Driver/Src/stm32f7xx_ll_usb.c ****   * @brief  Activate and configure a dedicated endpoint
 534:Drivers/STM32F7xx_HAL_Driver/Src/stm32f7xx_ll_usb.c ****   * @param  USBx  Selected device
 535:Drivers/STM32F7xx_HAL_Driver/Src/stm32f7xx_ll_usb.c ****   * @param  ep pointer to endpoint structure
 536:Drivers/STM32F7xx_HAL_Driver/Src/stm32f7xx_ll_usb.c ****   * @retval HAL status
 537:Drivers/STM32F7xx_HAL_Driver/Src/stm32f7xx_ll_usb.c ****   */
 538:Drivers/STM32F7xx_HAL_Driver/Src/stm32f7xx_ll_usb.c **** HAL_StatusTypeDef USB_ActivateDedicatedEndpoint(USB_OTG_GlobalTypeDef *USBx, USB_OTG_EPTypeDef *ep)
 539:Drivers/STM32F7xx_HAL_Driver/Src/stm32f7xx_ll_usb.c **** {
 540:Drivers/STM32F7xx_HAL_Driver/Src/stm32f7xx_ll_usb.c ****   uint32_t USBx_BASE = (uint32_t)USBx;
 541:Drivers/STM32F7xx_HAL_Driver/Src/stm32f7xx_ll_usb.c ****   uint32_t epnum = (uint32_t)ep->num;
 542:Drivers/STM32F7xx_HAL_Driver/Src/stm32f7xx_ll_usb.c **** 
 543:Drivers/STM32F7xx_HAL_Driver/Src/stm32f7xx_ll_usb.c ****   /* Read DEPCTLn register */
 544:Drivers/STM32F7xx_HAL_Driver/Src/stm32f7xx_ll_usb.c ****   if (ep->is_in == 1U)
 545:Drivers/STM32F7xx_HAL_Driver/Src/stm32f7xx_ll_usb.c ****   {
ARM GAS  C:\Users\Patryk\AppData\Local\Temp\cc5QRopf.s 			page 11


 546:Drivers/STM32F7xx_HAL_Driver/Src/stm32f7xx_ll_usb.c ****     if (((USBx_INEP(epnum)->DIEPCTL) & USB_OTG_DIEPCTL_USBAEP) == 0U)
 547:Drivers/STM32F7xx_HAL_Driver/Src/stm32f7xx_ll_usb.c ****     {
 548:Drivers/STM32F7xx_HAL_Driver/Src/stm32f7xx_ll_usb.c ****       USBx_INEP(epnum)->DIEPCTL |= (ep->maxpacket & USB_OTG_DIEPCTL_MPSIZ) |
 549:Drivers/STM32F7xx_HAL_Driver/Src/stm32f7xx_ll_usb.c ****                                    ((uint32_t)ep->type << 18) | (epnum << 22) |
 550:Drivers/STM32F7xx_HAL_Driver/Src/stm32f7xx_ll_usb.c ****                                     USB_OTG_DIEPCTL_SD0PID_SEVNFRM |
 551:Drivers/STM32F7xx_HAL_Driver/Src/stm32f7xx_ll_usb.c ****                                     USB_OTG_DIEPCTL_USBAEP;
 552:Drivers/STM32F7xx_HAL_Driver/Src/stm32f7xx_ll_usb.c ****     }
 553:Drivers/STM32F7xx_HAL_Driver/Src/stm32f7xx_ll_usb.c **** 
 554:Drivers/STM32F7xx_HAL_Driver/Src/stm32f7xx_ll_usb.c ****    USBx_DEVICE->DEACHMSK |= USB_OTG_DAINTMSK_IEPM & (uint32_t)(1UL << (ep->num & 0xFU));
 555:Drivers/STM32F7xx_HAL_Driver/Src/stm32f7xx_ll_usb.c ****   }
 556:Drivers/STM32F7xx_HAL_Driver/Src/stm32f7xx_ll_usb.c ****   else
 557:Drivers/STM32F7xx_HAL_Driver/Src/stm32f7xx_ll_usb.c ****   {
 558:Drivers/STM32F7xx_HAL_Driver/Src/stm32f7xx_ll_usb.c ****     if (((USBx_OUTEP(epnum)->DOEPCTL) & USB_OTG_DOEPCTL_USBAEP) == 0U)
 559:Drivers/STM32F7xx_HAL_Driver/Src/stm32f7xx_ll_usb.c ****     {
 560:Drivers/STM32F7xx_HAL_Driver/Src/stm32f7xx_ll_usb.c ****       USBx_OUTEP(epnum)->DOEPCTL |= (ep->maxpacket & USB_OTG_DOEPCTL_MPSIZ) |
 561:Drivers/STM32F7xx_HAL_Driver/Src/stm32f7xx_ll_usb.c ****                                     ((uint32_t)ep->type << 18) | (epnum << 22) |
 562:Drivers/STM32F7xx_HAL_Driver/Src/stm32f7xx_ll_usb.c ****                                      USB_OTG_DOEPCTL_USBAEP;
 563:Drivers/STM32F7xx_HAL_Driver/Src/stm32f7xx_ll_usb.c ****     }
 564:Drivers/STM32F7xx_HAL_Driver/Src/stm32f7xx_ll_usb.c **** 
 565:Drivers/STM32F7xx_HAL_Driver/Src/stm32f7xx_ll_usb.c ****      USBx_DEVICE->DEACHMSK |= USB_OTG_DAINTMSK_OEPM & ((uint32_t)(1UL << (ep->num & 0xFU)) << 16);
 566:Drivers/STM32F7xx_HAL_Driver/Src/stm32f7xx_ll_usb.c ****   }
 567:Drivers/STM32F7xx_HAL_Driver/Src/stm32f7xx_ll_usb.c **** 
 568:Drivers/STM32F7xx_HAL_Driver/Src/stm32f7xx_ll_usb.c ****   return HAL_OK;
 569:Drivers/STM32F7xx_HAL_Driver/Src/stm32f7xx_ll_usb.c **** }
 570:Drivers/STM32F7xx_HAL_Driver/Src/stm32f7xx_ll_usb.c **** 
 571:Drivers/STM32F7xx_HAL_Driver/Src/stm32f7xx_ll_usb.c **** /**
 572:Drivers/STM32F7xx_HAL_Driver/Src/stm32f7xx_ll_usb.c ****   * @brief  De-activate and de-initialize an endpoint
 573:Drivers/STM32F7xx_HAL_Driver/Src/stm32f7xx_ll_usb.c ****   * @param  USBx  Selected device
 574:Drivers/STM32F7xx_HAL_Driver/Src/stm32f7xx_ll_usb.c ****   * @param  ep pointer to endpoint structure
 575:Drivers/STM32F7xx_HAL_Driver/Src/stm32f7xx_ll_usb.c ****   * @retval HAL status
 576:Drivers/STM32F7xx_HAL_Driver/Src/stm32f7xx_ll_usb.c ****   */
 577:Drivers/STM32F7xx_HAL_Driver/Src/stm32f7xx_ll_usb.c **** HAL_StatusTypeDef USB_DeactivateEndpoint(USB_OTG_GlobalTypeDef *USBx, USB_OTG_EPTypeDef *ep)
 578:Drivers/STM32F7xx_HAL_Driver/Src/stm32f7xx_ll_usb.c **** {
 579:Drivers/STM32F7xx_HAL_Driver/Src/stm32f7xx_ll_usb.c ****   uint32_t USBx_BASE = (uint32_t)USBx;
 580:Drivers/STM32F7xx_HAL_Driver/Src/stm32f7xx_ll_usb.c ****   uint32_t epnum = (uint32_t)ep->num;
 581:Drivers/STM32F7xx_HAL_Driver/Src/stm32f7xx_ll_usb.c **** 
 582:Drivers/STM32F7xx_HAL_Driver/Src/stm32f7xx_ll_usb.c ****   /* Read DEPCTLn register */
 583:Drivers/STM32F7xx_HAL_Driver/Src/stm32f7xx_ll_usb.c ****   if (ep->is_in == 1U)
 584:Drivers/STM32F7xx_HAL_Driver/Src/stm32f7xx_ll_usb.c ****   {
 585:Drivers/STM32F7xx_HAL_Driver/Src/stm32f7xx_ll_usb.c ****     USBx_DEVICE->DEACHMSK &= ~(USB_OTG_DAINTMSK_IEPM & (uint32_t)(1UL << (ep->num & 0xFU)));
 586:Drivers/STM32F7xx_HAL_Driver/Src/stm32f7xx_ll_usb.c ****     USBx_DEVICE->DAINTMSK &= ~(USB_OTG_DAINTMSK_IEPM & (uint32_t)(1UL << (ep->num & 0xFU)));
 587:Drivers/STM32F7xx_HAL_Driver/Src/stm32f7xx_ll_usb.c ****     USBx_INEP(epnum)->DIEPCTL &= ~(USB_OTG_DIEPCTL_USBAEP |
 588:Drivers/STM32F7xx_HAL_Driver/Src/stm32f7xx_ll_usb.c ****                                    USB_OTG_DIEPCTL_MPSIZ |
 589:Drivers/STM32F7xx_HAL_Driver/Src/stm32f7xx_ll_usb.c ****                                    USB_OTG_DIEPCTL_TXFNUM |
 590:Drivers/STM32F7xx_HAL_Driver/Src/stm32f7xx_ll_usb.c ****                                    USB_OTG_DIEPCTL_SD0PID_SEVNFRM |
 591:Drivers/STM32F7xx_HAL_Driver/Src/stm32f7xx_ll_usb.c ****                                    USB_OTG_DIEPCTL_EPTYP);
 592:Drivers/STM32F7xx_HAL_Driver/Src/stm32f7xx_ll_usb.c ****   }
 593:Drivers/STM32F7xx_HAL_Driver/Src/stm32f7xx_ll_usb.c ****   else
 594:Drivers/STM32F7xx_HAL_Driver/Src/stm32f7xx_ll_usb.c ****   {
 595:Drivers/STM32F7xx_HAL_Driver/Src/stm32f7xx_ll_usb.c ****     USBx_DEVICE->DEACHMSK &= ~(USB_OTG_DAINTMSK_OEPM & ((uint32_t)(1UL << (ep->num & 0xFU)) << 16))
 596:Drivers/STM32F7xx_HAL_Driver/Src/stm32f7xx_ll_usb.c ****     USBx_DEVICE->DAINTMSK &= ~(USB_OTG_DAINTMSK_OEPM & ((uint32_t)(1UL << (ep->num & 0xFU)) << 16))
 597:Drivers/STM32F7xx_HAL_Driver/Src/stm32f7xx_ll_usb.c ****     USBx_OUTEP(epnum)->DOEPCTL &= ~(USB_OTG_DOEPCTL_USBAEP |
 598:Drivers/STM32F7xx_HAL_Driver/Src/stm32f7xx_ll_usb.c ****                                     USB_OTG_DOEPCTL_MPSIZ |
 599:Drivers/STM32F7xx_HAL_Driver/Src/stm32f7xx_ll_usb.c ****                                     USB_OTG_DOEPCTL_SD0PID_SEVNFRM |
 600:Drivers/STM32F7xx_HAL_Driver/Src/stm32f7xx_ll_usb.c ****                                     USB_OTG_DOEPCTL_EPTYP);
 601:Drivers/STM32F7xx_HAL_Driver/Src/stm32f7xx_ll_usb.c ****   }
 602:Drivers/STM32F7xx_HAL_Driver/Src/stm32f7xx_ll_usb.c **** 
ARM GAS  C:\Users\Patryk\AppData\Local\Temp\cc5QRopf.s 			page 12


 603:Drivers/STM32F7xx_HAL_Driver/Src/stm32f7xx_ll_usb.c ****   return HAL_OK;
 604:Drivers/STM32F7xx_HAL_Driver/Src/stm32f7xx_ll_usb.c **** }
 605:Drivers/STM32F7xx_HAL_Driver/Src/stm32f7xx_ll_usb.c **** 
 606:Drivers/STM32F7xx_HAL_Driver/Src/stm32f7xx_ll_usb.c **** /**
 607:Drivers/STM32F7xx_HAL_Driver/Src/stm32f7xx_ll_usb.c ****   * @brief  De-activate and de-initialize a dedicated endpoint
 608:Drivers/STM32F7xx_HAL_Driver/Src/stm32f7xx_ll_usb.c ****   * @param  USBx  Selected device
 609:Drivers/STM32F7xx_HAL_Driver/Src/stm32f7xx_ll_usb.c ****   * @param  ep pointer to endpoint structure
 610:Drivers/STM32F7xx_HAL_Driver/Src/stm32f7xx_ll_usb.c ****   * @retval HAL status
 611:Drivers/STM32F7xx_HAL_Driver/Src/stm32f7xx_ll_usb.c ****   */
 612:Drivers/STM32F7xx_HAL_Driver/Src/stm32f7xx_ll_usb.c **** HAL_StatusTypeDef USB_DeactivateDedicatedEndpoint(USB_OTG_GlobalTypeDef *USBx, USB_OTG_EPTypeDef *e
 613:Drivers/STM32F7xx_HAL_Driver/Src/stm32f7xx_ll_usb.c **** {
 614:Drivers/STM32F7xx_HAL_Driver/Src/stm32f7xx_ll_usb.c ****   uint32_t USBx_BASE = (uint32_t)USBx;
 615:Drivers/STM32F7xx_HAL_Driver/Src/stm32f7xx_ll_usb.c ****   uint32_t epnum = (uint32_t)ep->num;
 616:Drivers/STM32F7xx_HAL_Driver/Src/stm32f7xx_ll_usb.c **** 
 617:Drivers/STM32F7xx_HAL_Driver/Src/stm32f7xx_ll_usb.c ****   /* Read DEPCTLn register */
 618:Drivers/STM32F7xx_HAL_Driver/Src/stm32f7xx_ll_usb.c ****   if (ep->is_in == 1U)
 619:Drivers/STM32F7xx_HAL_Driver/Src/stm32f7xx_ll_usb.c ****   {
 620:Drivers/STM32F7xx_HAL_Driver/Src/stm32f7xx_ll_usb.c ****    USBx_INEP(epnum)->DIEPCTL &= ~ USB_OTG_DIEPCTL_USBAEP;
 621:Drivers/STM32F7xx_HAL_Driver/Src/stm32f7xx_ll_usb.c ****    USBx_DEVICE->DAINTMSK &= ~(USB_OTG_DAINTMSK_IEPM & (uint32_t)(1UL << (ep->num & 0xFU)));
 622:Drivers/STM32F7xx_HAL_Driver/Src/stm32f7xx_ll_usb.c ****   }
 623:Drivers/STM32F7xx_HAL_Driver/Src/stm32f7xx_ll_usb.c ****   else
 624:Drivers/STM32F7xx_HAL_Driver/Src/stm32f7xx_ll_usb.c ****   {
 625:Drivers/STM32F7xx_HAL_Driver/Src/stm32f7xx_ll_usb.c ****      USBx_OUTEP(epnum)->DOEPCTL &= ~USB_OTG_DOEPCTL_USBAEP;
 626:Drivers/STM32F7xx_HAL_Driver/Src/stm32f7xx_ll_usb.c ****      USBx_DEVICE->DAINTMSK &= ~(USB_OTG_DAINTMSK_OEPM & ((uint32_t)(1UL << (ep->num & 0xFU)) << 16)
 627:Drivers/STM32F7xx_HAL_Driver/Src/stm32f7xx_ll_usb.c ****   }
 628:Drivers/STM32F7xx_HAL_Driver/Src/stm32f7xx_ll_usb.c **** 
 629:Drivers/STM32F7xx_HAL_Driver/Src/stm32f7xx_ll_usb.c ****   return HAL_OK;
 630:Drivers/STM32F7xx_HAL_Driver/Src/stm32f7xx_ll_usb.c **** }
 631:Drivers/STM32F7xx_HAL_Driver/Src/stm32f7xx_ll_usb.c **** 
 632:Drivers/STM32F7xx_HAL_Driver/Src/stm32f7xx_ll_usb.c **** /**
 633:Drivers/STM32F7xx_HAL_Driver/Src/stm32f7xx_ll_usb.c ****   * @brief  USB_EPStartXfer : setup and starts a transfer over an EP
 634:Drivers/STM32F7xx_HAL_Driver/Src/stm32f7xx_ll_usb.c ****   * @param  USBx  Selected device
 635:Drivers/STM32F7xx_HAL_Driver/Src/stm32f7xx_ll_usb.c ****   * @param  ep pointer to endpoint structure
 636:Drivers/STM32F7xx_HAL_Driver/Src/stm32f7xx_ll_usb.c ****   * @param  dma USB dma enabled or disabled
 637:Drivers/STM32F7xx_HAL_Driver/Src/stm32f7xx_ll_usb.c ****   *          This parameter can be one of these values:
 638:Drivers/STM32F7xx_HAL_Driver/Src/stm32f7xx_ll_usb.c ****   *           0 : DMA feature not used
 639:Drivers/STM32F7xx_HAL_Driver/Src/stm32f7xx_ll_usb.c ****   *           1 : DMA feature used
 640:Drivers/STM32F7xx_HAL_Driver/Src/stm32f7xx_ll_usb.c ****   * @retval HAL status
 641:Drivers/STM32F7xx_HAL_Driver/Src/stm32f7xx_ll_usb.c ****   */
 642:Drivers/STM32F7xx_HAL_Driver/Src/stm32f7xx_ll_usb.c **** HAL_StatusTypeDef USB_EPStartXfer(USB_OTG_GlobalTypeDef *USBx , USB_OTG_EPTypeDef *ep, uint8_t dma)
 643:Drivers/STM32F7xx_HAL_Driver/Src/stm32f7xx_ll_usb.c **** {
 644:Drivers/STM32F7xx_HAL_Driver/Src/stm32f7xx_ll_usb.c ****   uint32_t USBx_BASE = (uint32_t)USBx;
 645:Drivers/STM32F7xx_HAL_Driver/Src/stm32f7xx_ll_usb.c ****   uint32_t epnum = (uint32_t)ep->num;
 646:Drivers/STM32F7xx_HAL_Driver/Src/stm32f7xx_ll_usb.c ****   uint16_t pktcnt;
 647:Drivers/STM32F7xx_HAL_Driver/Src/stm32f7xx_ll_usb.c **** 
 648:Drivers/STM32F7xx_HAL_Driver/Src/stm32f7xx_ll_usb.c ****   /* IN endpoint */
 649:Drivers/STM32F7xx_HAL_Driver/Src/stm32f7xx_ll_usb.c ****   if (ep->is_in == 1U)
 650:Drivers/STM32F7xx_HAL_Driver/Src/stm32f7xx_ll_usb.c ****   {
 651:Drivers/STM32F7xx_HAL_Driver/Src/stm32f7xx_ll_usb.c ****     /* Zero Length Packet? */
 652:Drivers/STM32F7xx_HAL_Driver/Src/stm32f7xx_ll_usb.c ****     if (ep->xfer_len == 0U)
 653:Drivers/STM32F7xx_HAL_Driver/Src/stm32f7xx_ll_usb.c ****     {
 654:Drivers/STM32F7xx_HAL_Driver/Src/stm32f7xx_ll_usb.c ****       USBx_INEP(epnum)->DIEPTSIZ &= ~(USB_OTG_DIEPTSIZ_PKTCNT);
 655:Drivers/STM32F7xx_HAL_Driver/Src/stm32f7xx_ll_usb.c ****       USBx_INEP(epnum)->DIEPTSIZ |= (USB_OTG_DIEPTSIZ_PKTCNT & (1U << 19));
 656:Drivers/STM32F7xx_HAL_Driver/Src/stm32f7xx_ll_usb.c ****       USBx_INEP(epnum)->DIEPTSIZ &= ~(USB_OTG_DIEPTSIZ_XFRSIZ);
 657:Drivers/STM32F7xx_HAL_Driver/Src/stm32f7xx_ll_usb.c ****     }
 658:Drivers/STM32F7xx_HAL_Driver/Src/stm32f7xx_ll_usb.c ****     else
 659:Drivers/STM32F7xx_HAL_Driver/Src/stm32f7xx_ll_usb.c ****     {
ARM GAS  C:\Users\Patryk\AppData\Local\Temp\cc5QRopf.s 			page 13


 660:Drivers/STM32F7xx_HAL_Driver/Src/stm32f7xx_ll_usb.c ****       /* Program the transfer size and packet count
 661:Drivers/STM32F7xx_HAL_Driver/Src/stm32f7xx_ll_usb.c ****       * as follows: xfersize = N * maxpacket +
 662:Drivers/STM32F7xx_HAL_Driver/Src/stm32f7xx_ll_usb.c ****       * short_packet pktcnt = N + (short_packet
 663:Drivers/STM32F7xx_HAL_Driver/Src/stm32f7xx_ll_usb.c ****       * exist ? 1 : 0)
 664:Drivers/STM32F7xx_HAL_Driver/Src/stm32f7xx_ll_usb.c ****       */
 665:Drivers/STM32F7xx_HAL_Driver/Src/stm32f7xx_ll_usb.c ****       USBx_INEP(epnum)->DIEPTSIZ &= ~(USB_OTG_DIEPTSIZ_XFRSIZ);
 666:Drivers/STM32F7xx_HAL_Driver/Src/stm32f7xx_ll_usb.c ****       USBx_INEP(epnum)->DIEPTSIZ &= ~(USB_OTG_DIEPTSIZ_PKTCNT);
 667:Drivers/STM32F7xx_HAL_Driver/Src/stm32f7xx_ll_usb.c ****       USBx_INEP(epnum)->DIEPTSIZ |= (USB_OTG_DIEPTSIZ_PKTCNT & (((ep->xfer_len + ep->maxpacket - 1U
 668:Drivers/STM32F7xx_HAL_Driver/Src/stm32f7xx_ll_usb.c ****       USBx_INEP(epnum)->DIEPTSIZ |= (USB_OTG_DIEPTSIZ_XFRSIZ & ep->xfer_len);
 669:Drivers/STM32F7xx_HAL_Driver/Src/stm32f7xx_ll_usb.c **** 
 670:Drivers/STM32F7xx_HAL_Driver/Src/stm32f7xx_ll_usb.c ****       if (ep->type == EP_TYPE_ISOC)
 671:Drivers/STM32F7xx_HAL_Driver/Src/stm32f7xx_ll_usb.c ****       {
 672:Drivers/STM32F7xx_HAL_Driver/Src/stm32f7xx_ll_usb.c ****         USBx_INEP(epnum)->DIEPTSIZ &= ~(USB_OTG_DIEPTSIZ_MULCNT);
 673:Drivers/STM32F7xx_HAL_Driver/Src/stm32f7xx_ll_usb.c ****         USBx_INEP(epnum)->DIEPTSIZ |= (USB_OTG_DIEPTSIZ_MULCNT & (1U << 29));
 674:Drivers/STM32F7xx_HAL_Driver/Src/stm32f7xx_ll_usb.c ****       }
 675:Drivers/STM32F7xx_HAL_Driver/Src/stm32f7xx_ll_usb.c ****     }
 676:Drivers/STM32F7xx_HAL_Driver/Src/stm32f7xx_ll_usb.c **** 
 677:Drivers/STM32F7xx_HAL_Driver/Src/stm32f7xx_ll_usb.c ****     if (dma == 1U)
 678:Drivers/STM32F7xx_HAL_Driver/Src/stm32f7xx_ll_usb.c ****     {
 679:Drivers/STM32F7xx_HAL_Driver/Src/stm32f7xx_ll_usb.c ****       USBx_INEP(epnum)->DIEPDMA = (uint32_t)(ep->dma_addr);
 680:Drivers/STM32F7xx_HAL_Driver/Src/stm32f7xx_ll_usb.c ****     }
 681:Drivers/STM32F7xx_HAL_Driver/Src/stm32f7xx_ll_usb.c ****     else
 682:Drivers/STM32F7xx_HAL_Driver/Src/stm32f7xx_ll_usb.c ****     {
 683:Drivers/STM32F7xx_HAL_Driver/Src/stm32f7xx_ll_usb.c ****       if (ep->type != EP_TYPE_ISOC)
 684:Drivers/STM32F7xx_HAL_Driver/Src/stm32f7xx_ll_usb.c ****       {
 685:Drivers/STM32F7xx_HAL_Driver/Src/stm32f7xx_ll_usb.c ****         /* Enable the Tx FIFO Empty Interrupt for this EP */
 686:Drivers/STM32F7xx_HAL_Driver/Src/stm32f7xx_ll_usb.c ****         if (ep->xfer_len > 0U)
 687:Drivers/STM32F7xx_HAL_Driver/Src/stm32f7xx_ll_usb.c ****         {
 688:Drivers/STM32F7xx_HAL_Driver/Src/stm32f7xx_ll_usb.c ****           USBx_DEVICE->DIEPEMPMSK |= 1UL << (ep->num & 0xFU);
 689:Drivers/STM32F7xx_HAL_Driver/Src/stm32f7xx_ll_usb.c ****         }
 690:Drivers/STM32F7xx_HAL_Driver/Src/stm32f7xx_ll_usb.c ****       }
 691:Drivers/STM32F7xx_HAL_Driver/Src/stm32f7xx_ll_usb.c ****     }
 692:Drivers/STM32F7xx_HAL_Driver/Src/stm32f7xx_ll_usb.c **** 
 693:Drivers/STM32F7xx_HAL_Driver/Src/stm32f7xx_ll_usb.c ****     if (ep->type == EP_TYPE_ISOC)
 694:Drivers/STM32F7xx_HAL_Driver/Src/stm32f7xx_ll_usb.c ****     {
 695:Drivers/STM32F7xx_HAL_Driver/Src/stm32f7xx_ll_usb.c ****       if ((USBx_DEVICE->DSTS & (1U << 8)) == 0U)
 696:Drivers/STM32F7xx_HAL_Driver/Src/stm32f7xx_ll_usb.c ****       {
 697:Drivers/STM32F7xx_HAL_Driver/Src/stm32f7xx_ll_usb.c ****         USBx_INEP(epnum)->DIEPCTL |= USB_OTG_DIEPCTL_SODDFRM;
 698:Drivers/STM32F7xx_HAL_Driver/Src/stm32f7xx_ll_usb.c ****       }
 699:Drivers/STM32F7xx_HAL_Driver/Src/stm32f7xx_ll_usb.c ****       else
 700:Drivers/STM32F7xx_HAL_Driver/Src/stm32f7xx_ll_usb.c ****       {
 701:Drivers/STM32F7xx_HAL_Driver/Src/stm32f7xx_ll_usb.c ****         USBx_INEP(epnum)->DIEPCTL |= USB_OTG_DIEPCTL_SD0PID_SEVNFRM;
 702:Drivers/STM32F7xx_HAL_Driver/Src/stm32f7xx_ll_usb.c ****       }
 703:Drivers/STM32F7xx_HAL_Driver/Src/stm32f7xx_ll_usb.c ****     }
 704:Drivers/STM32F7xx_HAL_Driver/Src/stm32f7xx_ll_usb.c **** 
 705:Drivers/STM32F7xx_HAL_Driver/Src/stm32f7xx_ll_usb.c ****     /* EP enable, IN data in FIFO */
 706:Drivers/STM32F7xx_HAL_Driver/Src/stm32f7xx_ll_usb.c ****     USBx_INEP(epnum)->DIEPCTL |= (USB_OTG_DIEPCTL_CNAK | USB_OTG_DIEPCTL_EPENA);
 707:Drivers/STM32F7xx_HAL_Driver/Src/stm32f7xx_ll_usb.c **** 
 708:Drivers/STM32F7xx_HAL_Driver/Src/stm32f7xx_ll_usb.c ****     if (ep->type == EP_TYPE_ISOC)
 709:Drivers/STM32F7xx_HAL_Driver/Src/stm32f7xx_ll_usb.c ****     {
 710:Drivers/STM32F7xx_HAL_Driver/Src/stm32f7xx_ll_usb.c ****       (void)USB_WritePacket(USBx, ep->xfer_buff, ep->num, (uint16_t)ep->xfer_len, dma);
 711:Drivers/STM32F7xx_HAL_Driver/Src/stm32f7xx_ll_usb.c ****     }
 712:Drivers/STM32F7xx_HAL_Driver/Src/stm32f7xx_ll_usb.c ****   }
 713:Drivers/STM32F7xx_HAL_Driver/Src/stm32f7xx_ll_usb.c ****   else /* OUT endpoint */
 714:Drivers/STM32F7xx_HAL_Driver/Src/stm32f7xx_ll_usb.c ****   {
 715:Drivers/STM32F7xx_HAL_Driver/Src/stm32f7xx_ll_usb.c ****     /* Program the transfer size and packet count as follows:
 716:Drivers/STM32F7xx_HAL_Driver/Src/stm32f7xx_ll_usb.c ****     * pktcnt = N
ARM GAS  C:\Users\Patryk\AppData\Local\Temp\cc5QRopf.s 			page 14


 717:Drivers/STM32F7xx_HAL_Driver/Src/stm32f7xx_ll_usb.c ****     * xfersize = N * maxpacket
 718:Drivers/STM32F7xx_HAL_Driver/Src/stm32f7xx_ll_usb.c ****     */
 719:Drivers/STM32F7xx_HAL_Driver/Src/stm32f7xx_ll_usb.c ****     USBx_OUTEP(epnum)->DOEPTSIZ &= ~(USB_OTG_DOEPTSIZ_XFRSIZ);
 720:Drivers/STM32F7xx_HAL_Driver/Src/stm32f7xx_ll_usb.c ****     USBx_OUTEP(epnum)->DOEPTSIZ &= ~(USB_OTG_DOEPTSIZ_PKTCNT);
 721:Drivers/STM32F7xx_HAL_Driver/Src/stm32f7xx_ll_usb.c **** 
 722:Drivers/STM32F7xx_HAL_Driver/Src/stm32f7xx_ll_usb.c ****     if (ep->xfer_len == 0U)
 723:Drivers/STM32F7xx_HAL_Driver/Src/stm32f7xx_ll_usb.c ****     {
 724:Drivers/STM32F7xx_HAL_Driver/Src/stm32f7xx_ll_usb.c ****       USBx_OUTEP(epnum)->DOEPTSIZ |= (USB_OTG_DOEPTSIZ_XFRSIZ & ep->maxpacket);
 725:Drivers/STM32F7xx_HAL_Driver/Src/stm32f7xx_ll_usb.c ****       USBx_OUTEP(epnum)->DOEPTSIZ |= (USB_OTG_DOEPTSIZ_PKTCNT & (1U << 19));
 726:Drivers/STM32F7xx_HAL_Driver/Src/stm32f7xx_ll_usb.c ****     }
 727:Drivers/STM32F7xx_HAL_Driver/Src/stm32f7xx_ll_usb.c ****     else
 728:Drivers/STM32F7xx_HAL_Driver/Src/stm32f7xx_ll_usb.c ****     {
 729:Drivers/STM32F7xx_HAL_Driver/Src/stm32f7xx_ll_usb.c ****       pktcnt = (uint16_t)((ep->xfer_len + ep->maxpacket - 1U) / ep->maxpacket);
 730:Drivers/STM32F7xx_HAL_Driver/Src/stm32f7xx_ll_usb.c ****       USBx_OUTEP(epnum)->DOEPTSIZ |= USB_OTG_DOEPTSIZ_PKTCNT & ((uint32_t)pktcnt << 19);
 731:Drivers/STM32F7xx_HAL_Driver/Src/stm32f7xx_ll_usb.c ****       USBx_OUTEP(epnum)->DOEPTSIZ |= USB_OTG_DOEPTSIZ_XFRSIZ & (ep->maxpacket * pktcnt);
 732:Drivers/STM32F7xx_HAL_Driver/Src/stm32f7xx_ll_usb.c ****     }
 733:Drivers/STM32F7xx_HAL_Driver/Src/stm32f7xx_ll_usb.c **** 
 734:Drivers/STM32F7xx_HAL_Driver/Src/stm32f7xx_ll_usb.c ****     if (dma == 1U)
 735:Drivers/STM32F7xx_HAL_Driver/Src/stm32f7xx_ll_usb.c ****     {
 736:Drivers/STM32F7xx_HAL_Driver/Src/stm32f7xx_ll_usb.c ****       USBx_OUTEP(epnum)->DOEPDMA = (uint32_t)ep->xfer_buff;
 737:Drivers/STM32F7xx_HAL_Driver/Src/stm32f7xx_ll_usb.c ****     }
 738:Drivers/STM32F7xx_HAL_Driver/Src/stm32f7xx_ll_usb.c **** 
 739:Drivers/STM32F7xx_HAL_Driver/Src/stm32f7xx_ll_usb.c ****     if (ep->type == EP_TYPE_ISOC)
 740:Drivers/STM32F7xx_HAL_Driver/Src/stm32f7xx_ll_usb.c ****     {
 741:Drivers/STM32F7xx_HAL_Driver/Src/stm32f7xx_ll_usb.c ****       if ((USBx_DEVICE->DSTS & (1U << 8)) == 0U)
 742:Drivers/STM32F7xx_HAL_Driver/Src/stm32f7xx_ll_usb.c ****       {
 743:Drivers/STM32F7xx_HAL_Driver/Src/stm32f7xx_ll_usb.c ****         USBx_OUTEP(epnum)->DOEPCTL |= USB_OTG_DOEPCTL_SODDFRM;
 744:Drivers/STM32F7xx_HAL_Driver/Src/stm32f7xx_ll_usb.c ****       }
 745:Drivers/STM32F7xx_HAL_Driver/Src/stm32f7xx_ll_usb.c ****       else
 746:Drivers/STM32F7xx_HAL_Driver/Src/stm32f7xx_ll_usb.c ****       {
 747:Drivers/STM32F7xx_HAL_Driver/Src/stm32f7xx_ll_usb.c ****         USBx_OUTEP(epnum)->DOEPCTL |= USB_OTG_DOEPCTL_SD0PID_SEVNFRM;
 748:Drivers/STM32F7xx_HAL_Driver/Src/stm32f7xx_ll_usb.c ****       }
 749:Drivers/STM32F7xx_HAL_Driver/Src/stm32f7xx_ll_usb.c ****     }
 750:Drivers/STM32F7xx_HAL_Driver/Src/stm32f7xx_ll_usb.c ****     /* EP enable */
 751:Drivers/STM32F7xx_HAL_Driver/Src/stm32f7xx_ll_usb.c ****     USBx_OUTEP(epnum)->DOEPCTL |= (USB_OTG_DOEPCTL_CNAK | USB_OTG_DOEPCTL_EPENA);
 752:Drivers/STM32F7xx_HAL_Driver/Src/stm32f7xx_ll_usb.c ****   }
 753:Drivers/STM32F7xx_HAL_Driver/Src/stm32f7xx_ll_usb.c **** 
 754:Drivers/STM32F7xx_HAL_Driver/Src/stm32f7xx_ll_usb.c ****   return HAL_OK;
 755:Drivers/STM32F7xx_HAL_Driver/Src/stm32f7xx_ll_usb.c **** }
 756:Drivers/STM32F7xx_HAL_Driver/Src/stm32f7xx_ll_usb.c **** 
 757:Drivers/STM32F7xx_HAL_Driver/Src/stm32f7xx_ll_usb.c **** /**
 758:Drivers/STM32F7xx_HAL_Driver/Src/stm32f7xx_ll_usb.c ****   * @brief  USB_EP0StartXfer : setup and starts a transfer over the EP  0
 759:Drivers/STM32F7xx_HAL_Driver/Src/stm32f7xx_ll_usb.c ****   * @param  USBx  Selected device
 760:Drivers/STM32F7xx_HAL_Driver/Src/stm32f7xx_ll_usb.c ****   * @param  ep pointer to endpoint structure
 761:Drivers/STM32F7xx_HAL_Driver/Src/stm32f7xx_ll_usb.c ****   * @param  dma USB dma enabled or disabled
 762:Drivers/STM32F7xx_HAL_Driver/Src/stm32f7xx_ll_usb.c ****   *          This parameter can be one of these values:
 763:Drivers/STM32F7xx_HAL_Driver/Src/stm32f7xx_ll_usb.c ****   *           0 : DMA feature not used
 764:Drivers/STM32F7xx_HAL_Driver/Src/stm32f7xx_ll_usb.c ****   *           1 : DMA feature used
 765:Drivers/STM32F7xx_HAL_Driver/Src/stm32f7xx_ll_usb.c ****   * @retval HAL status
 766:Drivers/STM32F7xx_HAL_Driver/Src/stm32f7xx_ll_usb.c ****   */
 767:Drivers/STM32F7xx_HAL_Driver/Src/stm32f7xx_ll_usb.c **** HAL_StatusTypeDef USB_EP0StartXfer(USB_OTG_GlobalTypeDef *USBx , USB_OTG_EPTypeDef *ep, uint8_t dma
 768:Drivers/STM32F7xx_HAL_Driver/Src/stm32f7xx_ll_usb.c **** {
 769:Drivers/STM32F7xx_HAL_Driver/Src/stm32f7xx_ll_usb.c ****   uint32_t USBx_BASE = (uint32_t)USBx;
 770:Drivers/STM32F7xx_HAL_Driver/Src/stm32f7xx_ll_usb.c ****   uint32_t epnum = (uint32_t)ep->num;
 771:Drivers/STM32F7xx_HAL_Driver/Src/stm32f7xx_ll_usb.c **** 
 772:Drivers/STM32F7xx_HAL_Driver/Src/stm32f7xx_ll_usb.c ****   /* IN endpoint */
 773:Drivers/STM32F7xx_HAL_Driver/Src/stm32f7xx_ll_usb.c ****   if (ep->is_in == 1U)
ARM GAS  C:\Users\Patryk\AppData\Local\Temp\cc5QRopf.s 			page 15


 774:Drivers/STM32F7xx_HAL_Driver/Src/stm32f7xx_ll_usb.c ****   {
 775:Drivers/STM32F7xx_HAL_Driver/Src/stm32f7xx_ll_usb.c ****     /* Zero Length Packet? */
 776:Drivers/STM32F7xx_HAL_Driver/Src/stm32f7xx_ll_usb.c ****     if (ep->xfer_len == 0U)
 777:Drivers/STM32F7xx_HAL_Driver/Src/stm32f7xx_ll_usb.c ****     {
 778:Drivers/STM32F7xx_HAL_Driver/Src/stm32f7xx_ll_usb.c ****       USBx_INEP(epnum)->DIEPTSIZ &= ~(USB_OTG_DIEPTSIZ_PKTCNT);
 779:Drivers/STM32F7xx_HAL_Driver/Src/stm32f7xx_ll_usb.c ****       USBx_INEP(epnum)->DIEPTSIZ |= (USB_OTG_DIEPTSIZ_PKTCNT & (1U << 19));
 780:Drivers/STM32F7xx_HAL_Driver/Src/stm32f7xx_ll_usb.c ****       USBx_INEP(epnum)->DIEPTSIZ &= ~(USB_OTG_DIEPTSIZ_XFRSIZ);
 781:Drivers/STM32F7xx_HAL_Driver/Src/stm32f7xx_ll_usb.c ****     }
 782:Drivers/STM32F7xx_HAL_Driver/Src/stm32f7xx_ll_usb.c ****     else
 783:Drivers/STM32F7xx_HAL_Driver/Src/stm32f7xx_ll_usb.c ****     {
 784:Drivers/STM32F7xx_HAL_Driver/Src/stm32f7xx_ll_usb.c ****       /* Program the transfer size and packet count
 785:Drivers/STM32F7xx_HAL_Driver/Src/stm32f7xx_ll_usb.c ****       * as follows: xfersize = N * maxpacket +
 786:Drivers/STM32F7xx_HAL_Driver/Src/stm32f7xx_ll_usb.c ****       * short_packet pktcnt = N + (short_packet
 787:Drivers/STM32F7xx_HAL_Driver/Src/stm32f7xx_ll_usb.c ****       * exist ? 1 : 0)
 788:Drivers/STM32F7xx_HAL_Driver/Src/stm32f7xx_ll_usb.c ****       */
 789:Drivers/STM32F7xx_HAL_Driver/Src/stm32f7xx_ll_usb.c ****       USBx_INEP(epnum)->DIEPTSIZ &= ~(USB_OTG_DIEPTSIZ_XFRSIZ);
 790:Drivers/STM32F7xx_HAL_Driver/Src/stm32f7xx_ll_usb.c ****       USBx_INEP(epnum)->DIEPTSIZ &= ~(USB_OTG_DIEPTSIZ_PKTCNT);
 791:Drivers/STM32F7xx_HAL_Driver/Src/stm32f7xx_ll_usb.c **** 
 792:Drivers/STM32F7xx_HAL_Driver/Src/stm32f7xx_ll_usb.c ****       if(ep->xfer_len > ep->maxpacket)
 793:Drivers/STM32F7xx_HAL_Driver/Src/stm32f7xx_ll_usb.c ****       {
 794:Drivers/STM32F7xx_HAL_Driver/Src/stm32f7xx_ll_usb.c ****         ep->xfer_len = ep->maxpacket;
 795:Drivers/STM32F7xx_HAL_Driver/Src/stm32f7xx_ll_usb.c ****       }
 796:Drivers/STM32F7xx_HAL_Driver/Src/stm32f7xx_ll_usb.c ****       USBx_INEP(epnum)->DIEPTSIZ |= (USB_OTG_DIEPTSIZ_PKTCNT & (1U << 19));
 797:Drivers/STM32F7xx_HAL_Driver/Src/stm32f7xx_ll_usb.c ****       USBx_INEP(epnum)->DIEPTSIZ |= (USB_OTG_DIEPTSIZ_XFRSIZ & ep->xfer_len);
 798:Drivers/STM32F7xx_HAL_Driver/Src/stm32f7xx_ll_usb.c ****     }
 799:Drivers/STM32F7xx_HAL_Driver/Src/stm32f7xx_ll_usb.c **** 
 800:Drivers/STM32F7xx_HAL_Driver/Src/stm32f7xx_ll_usb.c ****     if (dma == 1U)
 801:Drivers/STM32F7xx_HAL_Driver/Src/stm32f7xx_ll_usb.c ****     {
 802:Drivers/STM32F7xx_HAL_Driver/Src/stm32f7xx_ll_usb.c ****       USBx_INEP(epnum)->DIEPDMA = (uint32_t)(ep->dma_addr);
 803:Drivers/STM32F7xx_HAL_Driver/Src/stm32f7xx_ll_usb.c ****     }
 804:Drivers/STM32F7xx_HAL_Driver/Src/stm32f7xx_ll_usb.c ****     else
 805:Drivers/STM32F7xx_HAL_Driver/Src/stm32f7xx_ll_usb.c ****     {
 806:Drivers/STM32F7xx_HAL_Driver/Src/stm32f7xx_ll_usb.c ****       /* Enable the Tx FIFO Empty Interrupt for this EP */
 807:Drivers/STM32F7xx_HAL_Driver/Src/stm32f7xx_ll_usb.c ****       if (ep->xfer_len > 0U)
 808:Drivers/STM32F7xx_HAL_Driver/Src/stm32f7xx_ll_usb.c ****       {
 809:Drivers/STM32F7xx_HAL_Driver/Src/stm32f7xx_ll_usb.c ****         USBx_DEVICE->DIEPEMPMSK |= 1UL << (ep->num & 0xFU);
 810:Drivers/STM32F7xx_HAL_Driver/Src/stm32f7xx_ll_usb.c ****       }
 811:Drivers/STM32F7xx_HAL_Driver/Src/stm32f7xx_ll_usb.c ****     }
 812:Drivers/STM32F7xx_HAL_Driver/Src/stm32f7xx_ll_usb.c **** 
 813:Drivers/STM32F7xx_HAL_Driver/Src/stm32f7xx_ll_usb.c ****     /* EP enable, IN data in FIFO */
 814:Drivers/STM32F7xx_HAL_Driver/Src/stm32f7xx_ll_usb.c ****     USBx_INEP(epnum)->DIEPCTL |= (USB_OTG_DIEPCTL_CNAK | USB_OTG_DIEPCTL_EPENA);
 815:Drivers/STM32F7xx_HAL_Driver/Src/stm32f7xx_ll_usb.c ****   }
 816:Drivers/STM32F7xx_HAL_Driver/Src/stm32f7xx_ll_usb.c ****   else /* OUT endpoint */
 817:Drivers/STM32F7xx_HAL_Driver/Src/stm32f7xx_ll_usb.c ****   {
 818:Drivers/STM32F7xx_HAL_Driver/Src/stm32f7xx_ll_usb.c ****     /* Program the transfer size and packet count as follows:
 819:Drivers/STM32F7xx_HAL_Driver/Src/stm32f7xx_ll_usb.c ****     * pktcnt = N
 820:Drivers/STM32F7xx_HAL_Driver/Src/stm32f7xx_ll_usb.c ****     * xfersize = N * maxpacket
 821:Drivers/STM32F7xx_HAL_Driver/Src/stm32f7xx_ll_usb.c ****     */
 822:Drivers/STM32F7xx_HAL_Driver/Src/stm32f7xx_ll_usb.c ****     USBx_OUTEP(epnum)->DOEPTSIZ &= ~(USB_OTG_DOEPTSIZ_XFRSIZ);
 823:Drivers/STM32F7xx_HAL_Driver/Src/stm32f7xx_ll_usb.c ****     USBx_OUTEP(epnum)->DOEPTSIZ &= ~(USB_OTG_DOEPTSIZ_PKTCNT);
 824:Drivers/STM32F7xx_HAL_Driver/Src/stm32f7xx_ll_usb.c **** 
 825:Drivers/STM32F7xx_HAL_Driver/Src/stm32f7xx_ll_usb.c ****     if (ep->xfer_len > 0U)
 826:Drivers/STM32F7xx_HAL_Driver/Src/stm32f7xx_ll_usb.c ****     {
 827:Drivers/STM32F7xx_HAL_Driver/Src/stm32f7xx_ll_usb.c ****       ep->xfer_len = ep->maxpacket;
 828:Drivers/STM32F7xx_HAL_Driver/Src/stm32f7xx_ll_usb.c ****     }
 829:Drivers/STM32F7xx_HAL_Driver/Src/stm32f7xx_ll_usb.c **** 
 830:Drivers/STM32F7xx_HAL_Driver/Src/stm32f7xx_ll_usb.c ****     USBx_OUTEP(epnum)->DOEPTSIZ |= (USB_OTG_DOEPTSIZ_PKTCNT & (1U << 19));
ARM GAS  C:\Users\Patryk\AppData\Local\Temp\cc5QRopf.s 			page 16


 831:Drivers/STM32F7xx_HAL_Driver/Src/stm32f7xx_ll_usb.c ****     USBx_OUTEP(epnum)->DOEPTSIZ |= (USB_OTG_DOEPTSIZ_XFRSIZ & (ep->maxpacket));
 832:Drivers/STM32F7xx_HAL_Driver/Src/stm32f7xx_ll_usb.c **** 
 833:Drivers/STM32F7xx_HAL_Driver/Src/stm32f7xx_ll_usb.c ****     if (dma == 1U)
 834:Drivers/STM32F7xx_HAL_Driver/Src/stm32f7xx_ll_usb.c ****     {
 835:Drivers/STM32F7xx_HAL_Driver/Src/stm32f7xx_ll_usb.c ****       USBx_OUTEP(epnum)->DOEPDMA = (uint32_t)(ep->xfer_buff);
 836:Drivers/STM32F7xx_HAL_Driver/Src/stm32f7xx_ll_usb.c ****     }
 837:Drivers/STM32F7xx_HAL_Driver/Src/stm32f7xx_ll_usb.c **** 
 838:Drivers/STM32F7xx_HAL_Driver/Src/stm32f7xx_ll_usb.c ****     /* EP enable */
 839:Drivers/STM32F7xx_HAL_Driver/Src/stm32f7xx_ll_usb.c ****     USBx_OUTEP(epnum)->DOEPCTL |= (USB_OTG_DOEPCTL_CNAK | USB_OTG_DOEPCTL_EPENA);
 840:Drivers/STM32F7xx_HAL_Driver/Src/stm32f7xx_ll_usb.c ****   }
 841:Drivers/STM32F7xx_HAL_Driver/Src/stm32f7xx_ll_usb.c **** 
 842:Drivers/STM32F7xx_HAL_Driver/Src/stm32f7xx_ll_usb.c ****   return HAL_OK;
 843:Drivers/STM32F7xx_HAL_Driver/Src/stm32f7xx_ll_usb.c **** }
 844:Drivers/STM32F7xx_HAL_Driver/Src/stm32f7xx_ll_usb.c **** 
 845:Drivers/STM32F7xx_HAL_Driver/Src/stm32f7xx_ll_usb.c **** /**
 846:Drivers/STM32F7xx_HAL_Driver/Src/stm32f7xx_ll_usb.c ****   * @brief  USB_WritePacket : Writes a packet into the Tx FIFO associated
 847:Drivers/STM32F7xx_HAL_Driver/Src/stm32f7xx_ll_usb.c ****   *         with the EP/channel
 848:Drivers/STM32F7xx_HAL_Driver/Src/stm32f7xx_ll_usb.c ****   * @param  USBx  Selected device
 849:Drivers/STM32F7xx_HAL_Driver/Src/stm32f7xx_ll_usb.c ****   * @param  src   pointer to source buffer
 850:Drivers/STM32F7xx_HAL_Driver/Src/stm32f7xx_ll_usb.c ****   * @param  ch_ep_num  endpoint or host channel number
 851:Drivers/STM32F7xx_HAL_Driver/Src/stm32f7xx_ll_usb.c ****   * @param  len  Number of bytes to write
 852:Drivers/STM32F7xx_HAL_Driver/Src/stm32f7xx_ll_usb.c ****   * @param  dma USB dma enabled or disabled
 853:Drivers/STM32F7xx_HAL_Driver/Src/stm32f7xx_ll_usb.c ****   *          This parameter can be one of these values:
 854:Drivers/STM32F7xx_HAL_Driver/Src/stm32f7xx_ll_usb.c ****   *           0 : DMA feature not used
 855:Drivers/STM32F7xx_HAL_Driver/Src/stm32f7xx_ll_usb.c ****   *           1 : DMA feature used
 856:Drivers/STM32F7xx_HAL_Driver/Src/stm32f7xx_ll_usb.c ****   * @retval HAL status
 857:Drivers/STM32F7xx_HAL_Driver/Src/stm32f7xx_ll_usb.c ****   */
 858:Drivers/STM32F7xx_HAL_Driver/Src/stm32f7xx_ll_usb.c **** HAL_StatusTypeDef USB_WritePacket(USB_OTG_GlobalTypeDef *USBx, uint8_t *src, uint8_t ch_ep_num, uin
 859:Drivers/STM32F7xx_HAL_Driver/Src/stm32f7xx_ll_usb.c **** {
 860:Drivers/STM32F7xx_HAL_Driver/Src/stm32f7xx_ll_usb.c ****   uint32_t USBx_BASE = (uint32_t)USBx;
 861:Drivers/STM32F7xx_HAL_Driver/Src/stm32f7xx_ll_usb.c ****   uint32_t *pSrc = (uint32_t *)src;
 862:Drivers/STM32F7xx_HAL_Driver/Src/stm32f7xx_ll_usb.c ****   uint32_t count32b, i;
 863:Drivers/STM32F7xx_HAL_Driver/Src/stm32f7xx_ll_usb.c **** 
 864:Drivers/STM32F7xx_HAL_Driver/Src/stm32f7xx_ll_usb.c ****   if (dma == 0U)
 865:Drivers/STM32F7xx_HAL_Driver/Src/stm32f7xx_ll_usb.c ****   {
 866:Drivers/STM32F7xx_HAL_Driver/Src/stm32f7xx_ll_usb.c ****     count32b =  ((uint32_t)len + 3U) / 4U;
 867:Drivers/STM32F7xx_HAL_Driver/Src/stm32f7xx_ll_usb.c ****     for (i = 0U; i < count32b; i++)
 868:Drivers/STM32F7xx_HAL_Driver/Src/stm32f7xx_ll_usb.c ****     {
 869:Drivers/STM32F7xx_HAL_Driver/Src/stm32f7xx_ll_usb.c ****       USBx_DFIFO((uint32_t)ch_ep_num) = *((__packed uint32_t *)pSrc);
 870:Drivers/STM32F7xx_HAL_Driver/Src/stm32f7xx_ll_usb.c ****       pSrc++;
 871:Drivers/STM32F7xx_HAL_Driver/Src/stm32f7xx_ll_usb.c ****     }
 872:Drivers/STM32F7xx_HAL_Driver/Src/stm32f7xx_ll_usb.c ****   }
 873:Drivers/STM32F7xx_HAL_Driver/Src/stm32f7xx_ll_usb.c **** 
 874:Drivers/STM32F7xx_HAL_Driver/Src/stm32f7xx_ll_usb.c ****   return HAL_OK;
 875:Drivers/STM32F7xx_HAL_Driver/Src/stm32f7xx_ll_usb.c **** }
 876:Drivers/STM32F7xx_HAL_Driver/Src/stm32f7xx_ll_usb.c **** 
 877:Drivers/STM32F7xx_HAL_Driver/Src/stm32f7xx_ll_usb.c **** /**
 878:Drivers/STM32F7xx_HAL_Driver/Src/stm32f7xx_ll_usb.c ****   * @brief  USB_ReadPacket : read a packet from the Tx FIFO associated
 879:Drivers/STM32F7xx_HAL_Driver/Src/stm32f7xx_ll_usb.c ****   *         with the EP/channel
 880:Drivers/STM32F7xx_HAL_Driver/Src/stm32f7xx_ll_usb.c ****   * @param  USBx  Selected device
 881:Drivers/STM32F7xx_HAL_Driver/Src/stm32f7xx_ll_usb.c ****   * @param  dest  source pointer
 882:Drivers/STM32F7xx_HAL_Driver/Src/stm32f7xx_ll_usb.c ****   * @param  len  Number of bytes to read
 883:Drivers/STM32F7xx_HAL_Driver/Src/stm32f7xx_ll_usb.c ****   * @param  dma USB dma enabled or disabled
 884:Drivers/STM32F7xx_HAL_Driver/Src/stm32f7xx_ll_usb.c ****   *          This parameter can be one of these values:
 885:Drivers/STM32F7xx_HAL_Driver/Src/stm32f7xx_ll_usb.c ****   *           0 : DMA feature not used
 886:Drivers/STM32F7xx_HAL_Driver/Src/stm32f7xx_ll_usb.c ****   *           1 : DMA feature used
 887:Drivers/STM32F7xx_HAL_Driver/Src/stm32f7xx_ll_usb.c ****   * @retval pointer to destination buffer
ARM GAS  C:\Users\Patryk\AppData\Local\Temp\cc5QRopf.s 			page 17


 888:Drivers/STM32F7xx_HAL_Driver/Src/stm32f7xx_ll_usb.c ****   */
 889:Drivers/STM32F7xx_HAL_Driver/Src/stm32f7xx_ll_usb.c **** void *USB_ReadPacket(USB_OTG_GlobalTypeDef *USBx, uint8_t *dest, uint16_t len)
 890:Drivers/STM32F7xx_HAL_Driver/Src/stm32f7xx_ll_usb.c **** {
 891:Drivers/STM32F7xx_HAL_Driver/Src/stm32f7xx_ll_usb.c ****   uint32_t USBx_BASE = (uint32_t)USBx;
 892:Drivers/STM32F7xx_HAL_Driver/Src/stm32f7xx_ll_usb.c ****   uint32_t *pDest = (uint32_t *)dest;
 893:Drivers/STM32F7xx_HAL_Driver/Src/stm32f7xx_ll_usb.c ****   uint32_t i;
 894:Drivers/STM32F7xx_HAL_Driver/Src/stm32f7xx_ll_usb.c ****   uint32_t count32b = ((uint32_t)len + 3U) / 4U;
 895:Drivers/STM32F7xx_HAL_Driver/Src/stm32f7xx_ll_usb.c **** 
 896:Drivers/STM32F7xx_HAL_Driver/Src/stm32f7xx_ll_usb.c ****   for (i = 0U; i < count32b; i++)
 897:Drivers/STM32F7xx_HAL_Driver/Src/stm32f7xx_ll_usb.c ****   {
 898:Drivers/STM32F7xx_HAL_Driver/Src/stm32f7xx_ll_usb.c ****     *(__packed uint32_t *)pDest = USBx_DFIFO(0U);
 899:Drivers/STM32F7xx_HAL_Driver/Src/stm32f7xx_ll_usb.c ****     pDest++;
 900:Drivers/STM32F7xx_HAL_Driver/Src/stm32f7xx_ll_usb.c ****   }
 901:Drivers/STM32F7xx_HAL_Driver/Src/stm32f7xx_ll_usb.c **** 
 902:Drivers/STM32F7xx_HAL_Driver/Src/stm32f7xx_ll_usb.c ****   return ((void *)pDest);
 903:Drivers/STM32F7xx_HAL_Driver/Src/stm32f7xx_ll_usb.c **** }
 904:Drivers/STM32F7xx_HAL_Driver/Src/stm32f7xx_ll_usb.c **** 
 905:Drivers/STM32F7xx_HAL_Driver/Src/stm32f7xx_ll_usb.c **** /**
 906:Drivers/STM32F7xx_HAL_Driver/Src/stm32f7xx_ll_usb.c ****   * @brief  USB_EPSetStall : set a stall condition over an EP
 907:Drivers/STM32F7xx_HAL_Driver/Src/stm32f7xx_ll_usb.c ****   * @param  USBx  Selected device
 908:Drivers/STM32F7xx_HAL_Driver/Src/stm32f7xx_ll_usb.c ****   * @param  ep pointer to endpoint structure
 909:Drivers/STM32F7xx_HAL_Driver/Src/stm32f7xx_ll_usb.c ****   * @retval HAL status
 910:Drivers/STM32F7xx_HAL_Driver/Src/stm32f7xx_ll_usb.c ****   */
 911:Drivers/STM32F7xx_HAL_Driver/Src/stm32f7xx_ll_usb.c **** HAL_StatusTypeDef USB_EPSetStall(USB_OTG_GlobalTypeDef *USBx , USB_OTG_EPTypeDef *ep)
 912:Drivers/STM32F7xx_HAL_Driver/Src/stm32f7xx_ll_usb.c **** {
 913:Drivers/STM32F7xx_HAL_Driver/Src/stm32f7xx_ll_usb.c ****   uint32_t USBx_BASE = (uint32_t)USBx;
 914:Drivers/STM32F7xx_HAL_Driver/Src/stm32f7xx_ll_usb.c ****   uint32_t epnum = (uint32_t)ep->num;
 915:Drivers/STM32F7xx_HAL_Driver/Src/stm32f7xx_ll_usb.c **** 
 916:Drivers/STM32F7xx_HAL_Driver/Src/stm32f7xx_ll_usb.c ****   if (ep->is_in == 1U)
 917:Drivers/STM32F7xx_HAL_Driver/Src/stm32f7xx_ll_usb.c ****   {
 918:Drivers/STM32F7xx_HAL_Driver/Src/stm32f7xx_ll_usb.c ****     if (((USBx_INEP(epnum)->DIEPCTL & USB_OTG_DIEPCTL_EPENA) == 0U) && (epnum != 0U))
 919:Drivers/STM32F7xx_HAL_Driver/Src/stm32f7xx_ll_usb.c ****     {
 920:Drivers/STM32F7xx_HAL_Driver/Src/stm32f7xx_ll_usb.c ****       USBx_INEP(epnum)->DIEPCTL &= ~(USB_OTG_DIEPCTL_EPDIS);
 921:Drivers/STM32F7xx_HAL_Driver/Src/stm32f7xx_ll_usb.c ****     }
 922:Drivers/STM32F7xx_HAL_Driver/Src/stm32f7xx_ll_usb.c ****     USBx_INEP(epnum)->DIEPCTL |= USB_OTG_DIEPCTL_STALL;
 923:Drivers/STM32F7xx_HAL_Driver/Src/stm32f7xx_ll_usb.c ****   }
 924:Drivers/STM32F7xx_HAL_Driver/Src/stm32f7xx_ll_usb.c ****   else
 925:Drivers/STM32F7xx_HAL_Driver/Src/stm32f7xx_ll_usb.c ****   {
 926:Drivers/STM32F7xx_HAL_Driver/Src/stm32f7xx_ll_usb.c ****     if (((USBx_OUTEP(epnum)->DOEPCTL & USB_OTG_DOEPCTL_EPENA) == 0U) && (epnum != 0U))
 927:Drivers/STM32F7xx_HAL_Driver/Src/stm32f7xx_ll_usb.c ****     {
 928:Drivers/STM32F7xx_HAL_Driver/Src/stm32f7xx_ll_usb.c ****       USBx_OUTEP(epnum)->DOEPCTL &= ~(USB_OTG_DOEPCTL_EPDIS);
 929:Drivers/STM32F7xx_HAL_Driver/Src/stm32f7xx_ll_usb.c ****     }
 930:Drivers/STM32F7xx_HAL_Driver/Src/stm32f7xx_ll_usb.c ****     USBx_OUTEP(epnum)->DOEPCTL |= USB_OTG_DOEPCTL_STALL;
 931:Drivers/STM32F7xx_HAL_Driver/Src/stm32f7xx_ll_usb.c ****   }
 932:Drivers/STM32F7xx_HAL_Driver/Src/stm32f7xx_ll_usb.c **** 
 933:Drivers/STM32F7xx_HAL_Driver/Src/stm32f7xx_ll_usb.c ****   return HAL_OK;
 934:Drivers/STM32F7xx_HAL_Driver/Src/stm32f7xx_ll_usb.c **** }
 935:Drivers/STM32F7xx_HAL_Driver/Src/stm32f7xx_ll_usb.c **** 
 936:Drivers/STM32F7xx_HAL_Driver/Src/stm32f7xx_ll_usb.c **** /**
 937:Drivers/STM32F7xx_HAL_Driver/Src/stm32f7xx_ll_usb.c ****   * @brief  USB_EPClearStall : Clear a stall condition over an EP
 938:Drivers/STM32F7xx_HAL_Driver/Src/stm32f7xx_ll_usb.c ****   * @param  USBx  Selected device
 939:Drivers/STM32F7xx_HAL_Driver/Src/stm32f7xx_ll_usb.c ****   * @param  ep pointer to endpoint structure
 940:Drivers/STM32F7xx_HAL_Driver/Src/stm32f7xx_ll_usb.c ****   * @retval HAL status
 941:Drivers/STM32F7xx_HAL_Driver/Src/stm32f7xx_ll_usb.c ****   */
 942:Drivers/STM32F7xx_HAL_Driver/Src/stm32f7xx_ll_usb.c **** HAL_StatusTypeDef USB_EPClearStall(USB_OTG_GlobalTypeDef *USBx, USB_OTG_EPTypeDef *ep)
 943:Drivers/STM32F7xx_HAL_Driver/Src/stm32f7xx_ll_usb.c **** {
 944:Drivers/STM32F7xx_HAL_Driver/Src/stm32f7xx_ll_usb.c ****   uint32_t USBx_BASE = (uint32_t)USBx;
ARM GAS  C:\Users\Patryk\AppData\Local\Temp\cc5QRopf.s 			page 18


 945:Drivers/STM32F7xx_HAL_Driver/Src/stm32f7xx_ll_usb.c ****   uint32_t epnum = (uint32_t)ep->num;
 946:Drivers/STM32F7xx_HAL_Driver/Src/stm32f7xx_ll_usb.c **** 
 947:Drivers/STM32F7xx_HAL_Driver/Src/stm32f7xx_ll_usb.c ****   if (ep->is_in == 1U)
 948:Drivers/STM32F7xx_HAL_Driver/Src/stm32f7xx_ll_usb.c ****   {
 949:Drivers/STM32F7xx_HAL_Driver/Src/stm32f7xx_ll_usb.c ****     USBx_INEP(epnum)->DIEPCTL &= ~USB_OTG_DIEPCTL_STALL;
 950:Drivers/STM32F7xx_HAL_Driver/Src/stm32f7xx_ll_usb.c ****     if ((ep->type == EP_TYPE_INTR) || (ep->type == EP_TYPE_BULK))
 951:Drivers/STM32F7xx_HAL_Driver/Src/stm32f7xx_ll_usb.c ****     {
 952:Drivers/STM32F7xx_HAL_Driver/Src/stm32f7xx_ll_usb.c ****        USBx_INEP(epnum)->DIEPCTL |= USB_OTG_DIEPCTL_SD0PID_SEVNFRM; /* DATA0 */
 953:Drivers/STM32F7xx_HAL_Driver/Src/stm32f7xx_ll_usb.c ****     }
 954:Drivers/STM32F7xx_HAL_Driver/Src/stm32f7xx_ll_usb.c ****   }
 955:Drivers/STM32F7xx_HAL_Driver/Src/stm32f7xx_ll_usb.c ****   else
 956:Drivers/STM32F7xx_HAL_Driver/Src/stm32f7xx_ll_usb.c ****   {
 957:Drivers/STM32F7xx_HAL_Driver/Src/stm32f7xx_ll_usb.c ****     USBx_OUTEP(epnum)->DOEPCTL &= ~USB_OTG_DOEPCTL_STALL;
 958:Drivers/STM32F7xx_HAL_Driver/Src/stm32f7xx_ll_usb.c ****     if ((ep->type == EP_TYPE_INTR) || (ep->type == EP_TYPE_BULK))
 959:Drivers/STM32F7xx_HAL_Driver/Src/stm32f7xx_ll_usb.c ****     {
 960:Drivers/STM32F7xx_HAL_Driver/Src/stm32f7xx_ll_usb.c ****       USBx_OUTEP(epnum)->DOEPCTL |= USB_OTG_DOEPCTL_SD0PID_SEVNFRM; /* DATA0 */
 961:Drivers/STM32F7xx_HAL_Driver/Src/stm32f7xx_ll_usb.c ****     }
 962:Drivers/STM32F7xx_HAL_Driver/Src/stm32f7xx_ll_usb.c ****   }
 963:Drivers/STM32F7xx_HAL_Driver/Src/stm32f7xx_ll_usb.c ****   return HAL_OK;
 964:Drivers/STM32F7xx_HAL_Driver/Src/stm32f7xx_ll_usb.c **** }
 965:Drivers/STM32F7xx_HAL_Driver/Src/stm32f7xx_ll_usb.c **** 
 966:Drivers/STM32F7xx_HAL_Driver/Src/stm32f7xx_ll_usb.c **** /**
 967:Drivers/STM32F7xx_HAL_Driver/Src/stm32f7xx_ll_usb.c ****   * @brief  USB_StopDevice : Stop the usb device mode
 968:Drivers/STM32F7xx_HAL_Driver/Src/stm32f7xx_ll_usb.c ****   * @param  USBx  Selected device
 969:Drivers/STM32F7xx_HAL_Driver/Src/stm32f7xx_ll_usb.c ****   * @retval HAL status
 970:Drivers/STM32F7xx_HAL_Driver/Src/stm32f7xx_ll_usb.c ****   */
 971:Drivers/STM32F7xx_HAL_Driver/Src/stm32f7xx_ll_usb.c **** HAL_StatusTypeDef USB_StopDevice(USB_OTG_GlobalTypeDef *USBx)
 972:Drivers/STM32F7xx_HAL_Driver/Src/stm32f7xx_ll_usb.c **** {
 973:Drivers/STM32F7xx_HAL_Driver/Src/stm32f7xx_ll_usb.c ****   uint32_t USBx_BASE = (uint32_t)USBx;
 974:Drivers/STM32F7xx_HAL_Driver/Src/stm32f7xx_ll_usb.c ****   uint32_t i;
 975:Drivers/STM32F7xx_HAL_Driver/Src/stm32f7xx_ll_usb.c **** 
 976:Drivers/STM32F7xx_HAL_Driver/Src/stm32f7xx_ll_usb.c ****   /* Clear Pending interrupt */
 977:Drivers/STM32F7xx_HAL_Driver/Src/stm32f7xx_ll_usb.c ****   for (i = 0U; i < 15U; i++)
 978:Drivers/STM32F7xx_HAL_Driver/Src/stm32f7xx_ll_usb.c ****   {
 979:Drivers/STM32F7xx_HAL_Driver/Src/stm32f7xx_ll_usb.c ****     USBx_INEP(i)->DIEPINT = 0xFB7FU;
 980:Drivers/STM32F7xx_HAL_Driver/Src/stm32f7xx_ll_usb.c ****     USBx_OUTEP(i)->DOEPINT = 0xFB7FU;
 981:Drivers/STM32F7xx_HAL_Driver/Src/stm32f7xx_ll_usb.c ****   }
 982:Drivers/STM32F7xx_HAL_Driver/Src/stm32f7xx_ll_usb.c **** 
 983:Drivers/STM32F7xx_HAL_Driver/Src/stm32f7xx_ll_usb.c ****   /* Clear interrupt masks */
 984:Drivers/STM32F7xx_HAL_Driver/Src/stm32f7xx_ll_usb.c ****   USBx_DEVICE->DIEPMSK  = 0U;
 985:Drivers/STM32F7xx_HAL_Driver/Src/stm32f7xx_ll_usb.c ****   USBx_DEVICE->DOEPMSK  = 0U;
 986:Drivers/STM32F7xx_HAL_Driver/Src/stm32f7xx_ll_usb.c ****   USBx_DEVICE->DAINTMSK = 0U;
 987:Drivers/STM32F7xx_HAL_Driver/Src/stm32f7xx_ll_usb.c **** 
 988:Drivers/STM32F7xx_HAL_Driver/Src/stm32f7xx_ll_usb.c ****   /* Flush the FIFO */
 989:Drivers/STM32F7xx_HAL_Driver/Src/stm32f7xx_ll_usb.c ****   (void)USB_FlushRxFifo(USBx);
 990:Drivers/STM32F7xx_HAL_Driver/Src/stm32f7xx_ll_usb.c ****   (void)USB_FlushTxFifo(USBx ,  0x10U);
 991:Drivers/STM32F7xx_HAL_Driver/Src/stm32f7xx_ll_usb.c **** 
 992:Drivers/STM32F7xx_HAL_Driver/Src/stm32f7xx_ll_usb.c ****   return HAL_OK;
 993:Drivers/STM32F7xx_HAL_Driver/Src/stm32f7xx_ll_usb.c **** }
 994:Drivers/STM32F7xx_HAL_Driver/Src/stm32f7xx_ll_usb.c **** 
 995:Drivers/STM32F7xx_HAL_Driver/Src/stm32f7xx_ll_usb.c **** /**
 996:Drivers/STM32F7xx_HAL_Driver/Src/stm32f7xx_ll_usb.c ****   * @brief  USB_SetDevAddress : Stop the usb device mode
 997:Drivers/STM32F7xx_HAL_Driver/Src/stm32f7xx_ll_usb.c ****   * @param  USBx  Selected device
 998:Drivers/STM32F7xx_HAL_Driver/Src/stm32f7xx_ll_usb.c ****   * @param  address  new device address to be assigned
 999:Drivers/STM32F7xx_HAL_Driver/Src/stm32f7xx_ll_usb.c ****   *          This parameter can be a value from 0 to 255
1000:Drivers/STM32F7xx_HAL_Driver/Src/stm32f7xx_ll_usb.c ****   * @retval HAL status
1001:Drivers/STM32F7xx_HAL_Driver/Src/stm32f7xx_ll_usb.c ****   */
ARM GAS  C:\Users\Patryk\AppData\Local\Temp\cc5QRopf.s 			page 19


1002:Drivers/STM32F7xx_HAL_Driver/Src/stm32f7xx_ll_usb.c **** HAL_StatusTypeDef  USB_SetDevAddress (USB_OTG_GlobalTypeDef *USBx, uint8_t address)
1003:Drivers/STM32F7xx_HAL_Driver/Src/stm32f7xx_ll_usb.c **** {
1004:Drivers/STM32F7xx_HAL_Driver/Src/stm32f7xx_ll_usb.c ****   uint32_t USBx_BASE = (uint32_t)USBx;
1005:Drivers/STM32F7xx_HAL_Driver/Src/stm32f7xx_ll_usb.c **** 
1006:Drivers/STM32F7xx_HAL_Driver/Src/stm32f7xx_ll_usb.c ****   USBx_DEVICE->DCFG &= ~ (USB_OTG_DCFG_DAD);
1007:Drivers/STM32F7xx_HAL_Driver/Src/stm32f7xx_ll_usb.c ****   USBx_DEVICE->DCFG |= ((uint32_t)address << 4) & USB_OTG_DCFG_DAD;
1008:Drivers/STM32F7xx_HAL_Driver/Src/stm32f7xx_ll_usb.c **** 
1009:Drivers/STM32F7xx_HAL_Driver/Src/stm32f7xx_ll_usb.c ****   return HAL_OK;
1010:Drivers/STM32F7xx_HAL_Driver/Src/stm32f7xx_ll_usb.c **** }
1011:Drivers/STM32F7xx_HAL_Driver/Src/stm32f7xx_ll_usb.c **** 
1012:Drivers/STM32F7xx_HAL_Driver/Src/stm32f7xx_ll_usb.c **** /**
1013:Drivers/STM32F7xx_HAL_Driver/Src/stm32f7xx_ll_usb.c ****   * @brief  USB_DevConnect : Connect the USB device by enabling the pull-up/pull-down
1014:Drivers/STM32F7xx_HAL_Driver/Src/stm32f7xx_ll_usb.c ****   * @param  USBx  Selected device
1015:Drivers/STM32F7xx_HAL_Driver/Src/stm32f7xx_ll_usb.c ****   * @retval HAL status
1016:Drivers/STM32F7xx_HAL_Driver/Src/stm32f7xx_ll_usb.c ****   */
1017:Drivers/STM32F7xx_HAL_Driver/Src/stm32f7xx_ll_usb.c **** HAL_StatusTypeDef  USB_DevConnect (USB_OTG_GlobalTypeDef *USBx)
1018:Drivers/STM32F7xx_HAL_Driver/Src/stm32f7xx_ll_usb.c **** {
1019:Drivers/STM32F7xx_HAL_Driver/Src/stm32f7xx_ll_usb.c ****   uint32_t USBx_BASE = (uint32_t)USBx;
1020:Drivers/STM32F7xx_HAL_Driver/Src/stm32f7xx_ll_usb.c **** 
1021:Drivers/STM32F7xx_HAL_Driver/Src/stm32f7xx_ll_usb.c ****   USBx_DEVICE->DCTL &= ~USB_OTG_DCTL_SDIS;
1022:Drivers/STM32F7xx_HAL_Driver/Src/stm32f7xx_ll_usb.c ****   HAL_Delay(3U);
1023:Drivers/STM32F7xx_HAL_Driver/Src/stm32f7xx_ll_usb.c **** 
1024:Drivers/STM32F7xx_HAL_Driver/Src/stm32f7xx_ll_usb.c ****   return HAL_OK;
1025:Drivers/STM32F7xx_HAL_Driver/Src/stm32f7xx_ll_usb.c **** }
1026:Drivers/STM32F7xx_HAL_Driver/Src/stm32f7xx_ll_usb.c **** 
1027:Drivers/STM32F7xx_HAL_Driver/Src/stm32f7xx_ll_usb.c **** /**
1028:Drivers/STM32F7xx_HAL_Driver/Src/stm32f7xx_ll_usb.c ****   * @brief  USB_DevDisconnect : Disconnect the USB device by disabling the pull-up/pull-down
1029:Drivers/STM32F7xx_HAL_Driver/Src/stm32f7xx_ll_usb.c ****   * @param  USBx  Selected device
1030:Drivers/STM32F7xx_HAL_Driver/Src/stm32f7xx_ll_usb.c ****   * @retval HAL status
1031:Drivers/STM32F7xx_HAL_Driver/Src/stm32f7xx_ll_usb.c ****   */
1032:Drivers/STM32F7xx_HAL_Driver/Src/stm32f7xx_ll_usb.c **** HAL_StatusTypeDef  USB_DevDisconnect (USB_OTG_GlobalTypeDef *USBx)
1033:Drivers/STM32F7xx_HAL_Driver/Src/stm32f7xx_ll_usb.c **** {
1034:Drivers/STM32F7xx_HAL_Driver/Src/stm32f7xx_ll_usb.c ****   uint32_t USBx_BASE = (uint32_t)USBx;
1035:Drivers/STM32F7xx_HAL_Driver/Src/stm32f7xx_ll_usb.c **** 
1036:Drivers/STM32F7xx_HAL_Driver/Src/stm32f7xx_ll_usb.c ****   USBx_DEVICE->DCTL |= USB_OTG_DCTL_SDIS;
1037:Drivers/STM32F7xx_HAL_Driver/Src/stm32f7xx_ll_usb.c ****   HAL_Delay(3U);
1038:Drivers/STM32F7xx_HAL_Driver/Src/stm32f7xx_ll_usb.c **** 
1039:Drivers/STM32F7xx_HAL_Driver/Src/stm32f7xx_ll_usb.c ****   return HAL_OK;
1040:Drivers/STM32F7xx_HAL_Driver/Src/stm32f7xx_ll_usb.c **** }
1041:Drivers/STM32F7xx_HAL_Driver/Src/stm32f7xx_ll_usb.c **** 
1042:Drivers/STM32F7xx_HAL_Driver/Src/stm32f7xx_ll_usb.c **** /**
1043:Drivers/STM32F7xx_HAL_Driver/Src/stm32f7xx_ll_usb.c ****   * @brief  USB_ReadInterrupts: return the global USB interrupt status
1044:Drivers/STM32F7xx_HAL_Driver/Src/stm32f7xx_ll_usb.c ****   * @param  USBx  Selected device
1045:Drivers/STM32F7xx_HAL_Driver/Src/stm32f7xx_ll_usb.c ****   * @retval HAL status
1046:Drivers/STM32F7xx_HAL_Driver/Src/stm32f7xx_ll_usb.c ****   */
1047:Drivers/STM32F7xx_HAL_Driver/Src/stm32f7xx_ll_usb.c **** uint32_t  USB_ReadInterrupts (USB_OTG_GlobalTypeDef *USBx)
1048:Drivers/STM32F7xx_HAL_Driver/Src/stm32f7xx_ll_usb.c **** {
1049:Drivers/STM32F7xx_HAL_Driver/Src/stm32f7xx_ll_usb.c ****   uint32_t tmpreg;
1050:Drivers/STM32F7xx_HAL_Driver/Src/stm32f7xx_ll_usb.c **** 
1051:Drivers/STM32F7xx_HAL_Driver/Src/stm32f7xx_ll_usb.c ****   tmpreg = USBx->GINTSTS;
1052:Drivers/STM32F7xx_HAL_Driver/Src/stm32f7xx_ll_usb.c ****   tmpreg &= USBx->GINTMSK;
1053:Drivers/STM32F7xx_HAL_Driver/Src/stm32f7xx_ll_usb.c **** 
1054:Drivers/STM32F7xx_HAL_Driver/Src/stm32f7xx_ll_usb.c ****   return tmpreg;
1055:Drivers/STM32F7xx_HAL_Driver/Src/stm32f7xx_ll_usb.c **** }
1056:Drivers/STM32F7xx_HAL_Driver/Src/stm32f7xx_ll_usb.c **** 
1057:Drivers/STM32F7xx_HAL_Driver/Src/stm32f7xx_ll_usb.c **** /**
1058:Drivers/STM32F7xx_HAL_Driver/Src/stm32f7xx_ll_usb.c ****   * @brief  USB_ReadDevAllOutEpInterrupt: return the USB device OUT endpoints interrupt status
ARM GAS  C:\Users\Patryk\AppData\Local\Temp\cc5QRopf.s 			page 20


1059:Drivers/STM32F7xx_HAL_Driver/Src/stm32f7xx_ll_usb.c ****   * @param  USBx  Selected device
1060:Drivers/STM32F7xx_HAL_Driver/Src/stm32f7xx_ll_usb.c ****   * @retval HAL status
1061:Drivers/STM32F7xx_HAL_Driver/Src/stm32f7xx_ll_usb.c ****   */
1062:Drivers/STM32F7xx_HAL_Driver/Src/stm32f7xx_ll_usb.c **** uint32_t USB_ReadDevAllOutEpInterrupt (USB_OTG_GlobalTypeDef *USBx)
1063:Drivers/STM32F7xx_HAL_Driver/Src/stm32f7xx_ll_usb.c **** {
1064:Drivers/STM32F7xx_HAL_Driver/Src/stm32f7xx_ll_usb.c ****   uint32_t USBx_BASE = (uint32_t)USBx;
1065:Drivers/STM32F7xx_HAL_Driver/Src/stm32f7xx_ll_usb.c ****   uint32_t tmpreg;
1066:Drivers/STM32F7xx_HAL_Driver/Src/stm32f7xx_ll_usb.c **** 
1067:Drivers/STM32F7xx_HAL_Driver/Src/stm32f7xx_ll_usb.c ****   tmpreg  = USBx_DEVICE->DAINT;
1068:Drivers/STM32F7xx_HAL_Driver/Src/stm32f7xx_ll_usb.c ****   tmpreg &= USBx_DEVICE->DAINTMSK;
1069:Drivers/STM32F7xx_HAL_Driver/Src/stm32f7xx_ll_usb.c **** 
1070:Drivers/STM32F7xx_HAL_Driver/Src/stm32f7xx_ll_usb.c ****   return ((tmpreg & 0xffff0000U) >> 16);
1071:Drivers/STM32F7xx_HAL_Driver/Src/stm32f7xx_ll_usb.c **** }
1072:Drivers/STM32F7xx_HAL_Driver/Src/stm32f7xx_ll_usb.c **** 
1073:Drivers/STM32F7xx_HAL_Driver/Src/stm32f7xx_ll_usb.c **** /**
1074:Drivers/STM32F7xx_HAL_Driver/Src/stm32f7xx_ll_usb.c ****   * @brief  USB_ReadDevAllInEpInterrupt: return the USB device IN endpoints interrupt status
1075:Drivers/STM32F7xx_HAL_Driver/Src/stm32f7xx_ll_usb.c ****   * @param  USBx  Selected device
1076:Drivers/STM32F7xx_HAL_Driver/Src/stm32f7xx_ll_usb.c ****   * @retval HAL status
1077:Drivers/STM32F7xx_HAL_Driver/Src/stm32f7xx_ll_usb.c ****   */
1078:Drivers/STM32F7xx_HAL_Driver/Src/stm32f7xx_ll_usb.c **** uint32_t USB_ReadDevAllInEpInterrupt (USB_OTG_GlobalTypeDef *USBx)
1079:Drivers/STM32F7xx_HAL_Driver/Src/stm32f7xx_ll_usb.c **** {
1080:Drivers/STM32F7xx_HAL_Driver/Src/stm32f7xx_ll_usb.c ****   uint32_t USBx_BASE = (uint32_t)USBx;
1081:Drivers/STM32F7xx_HAL_Driver/Src/stm32f7xx_ll_usb.c ****   uint32_t tmpreg;
1082:Drivers/STM32F7xx_HAL_Driver/Src/stm32f7xx_ll_usb.c **** 
1083:Drivers/STM32F7xx_HAL_Driver/Src/stm32f7xx_ll_usb.c ****   tmpreg  = USBx_DEVICE->DAINT;
1084:Drivers/STM32F7xx_HAL_Driver/Src/stm32f7xx_ll_usb.c ****   tmpreg &= USBx_DEVICE->DAINTMSK;
1085:Drivers/STM32F7xx_HAL_Driver/Src/stm32f7xx_ll_usb.c **** 
1086:Drivers/STM32F7xx_HAL_Driver/Src/stm32f7xx_ll_usb.c ****   return ((tmpreg & 0xFFFFU));
1087:Drivers/STM32F7xx_HAL_Driver/Src/stm32f7xx_ll_usb.c **** }
1088:Drivers/STM32F7xx_HAL_Driver/Src/stm32f7xx_ll_usb.c **** 
1089:Drivers/STM32F7xx_HAL_Driver/Src/stm32f7xx_ll_usb.c **** /**
1090:Drivers/STM32F7xx_HAL_Driver/Src/stm32f7xx_ll_usb.c ****   * @brief  Returns Device OUT EP Interrupt register
1091:Drivers/STM32F7xx_HAL_Driver/Src/stm32f7xx_ll_usb.c ****   * @param  USBx  Selected device
1092:Drivers/STM32F7xx_HAL_Driver/Src/stm32f7xx_ll_usb.c ****   * @param  epnum  endpoint number
1093:Drivers/STM32F7xx_HAL_Driver/Src/stm32f7xx_ll_usb.c ****   *          This parameter can be a value from 0 to 15
1094:Drivers/STM32F7xx_HAL_Driver/Src/stm32f7xx_ll_usb.c ****   * @retval Device OUT EP Interrupt register
1095:Drivers/STM32F7xx_HAL_Driver/Src/stm32f7xx_ll_usb.c ****   */
1096:Drivers/STM32F7xx_HAL_Driver/Src/stm32f7xx_ll_usb.c **** uint32_t USB_ReadDevOutEPInterrupt (USB_OTG_GlobalTypeDef *USBx , uint8_t epnum)
1097:Drivers/STM32F7xx_HAL_Driver/Src/stm32f7xx_ll_usb.c **** {
1098:Drivers/STM32F7xx_HAL_Driver/Src/stm32f7xx_ll_usb.c ****   uint32_t USBx_BASE = (uint32_t)USBx;
1099:Drivers/STM32F7xx_HAL_Driver/Src/stm32f7xx_ll_usb.c ****   uint32_t tmpreg;
1100:Drivers/STM32F7xx_HAL_Driver/Src/stm32f7xx_ll_usb.c **** 
1101:Drivers/STM32F7xx_HAL_Driver/Src/stm32f7xx_ll_usb.c ****   tmpreg  = USBx_OUTEP((uint32_t)epnum)->DOEPINT;
1102:Drivers/STM32F7xx_HAL_Driver/Src/stm32f7xx_ll_usb.c ****   tmpreg &= USBx_DEVICE->DOEPMSK;
1103:Drivers/STM32F7xx_HAL_Driver/Src/stm32f7xx_ll_usb.c **** 
1104:Drivers/STM32F7xx_HAL_Driver/Src/stm32f7xx_ll_usb.c ****   return tmpreg;
1105:Drivers/STM32F7xx_HAL_Driver/Src/stm32f7xx_ll_usb.c **** }
1106:Drivers/STM32F7xx_HAL_Driver/Src/stm32f7xx_ll_usb.c **** 
1107:Drivers/STM32F7xx_HAL_Driver/Src/stm32f7xx_ll_usb.c **** /**
1108:Drivers/STM32F7xx_HAL_Driver/Src/stm32f7xx_ll_usb.c ****   * @brief  Returns Device IN EP Interrupt register
1109:Drivers/STM32F7xx_HAL_Driver/Src/stm32f7xx_ll_usb.c ****   * @param  USBx  Selected device
1110:Drivers/STM32F7xx_HAL_Driver/Src/stm32f7xx_ll_usb.c ****   * @param  epnum  endpoint number
1111:Drivers/STM32F7xx_HAL_Driver/Src/stm32f7xx_ll_usb.c ****   *          This parameter can be a value from 0 to 15
1112:Drivers/STM32F7xx_HAL_Driver/Src/stm32f7xx_ll_usb.c ****   * @retval Device IN EP Interrupt register
1113:Drivers/STM32F7xx_HAL_Driver/Src/stm32f7xx_ll_usb.c ****   */
1114:Drivers/STM32F7xx_HAL_Driver/Src/stm32f7xx_ll_usb.c **** uint32_t USB_ReadDevInEPInterrupt (USB_OTG_GlobalTypeDef *USBx , uint8_t epnum)
1115:Drivers/STM32F7xx_HAL_Driver/Src/stm32f7xx_ll_usb.c **** {
ARM GAS  C:\Users\Patryk\AppData\Local\Temp\cc5QRopf.s 			page 21


1116:Drivers/STM32F7xx_HAL_Driver/Src/stm32f7xx_ll_usb.c ****   uint32_t USBx_BASE = (uint32_t)USBx;
1117:Drivers/STM32F7xx_HAL_Driver/Src/stm32f7xx_ll_usb.c ****   uint32_t tmpreg, msk, emp;
1118:Drivers/STM32F7xx_HAL_Driver/Src/stm32f7xx_ll_usb.c **** 
1119:Drivers/STM32F7xx_HAL_Driver/Src/stm32f7xx_ll_usb.c ****   msk = USBx_DEVICE->DIEPMSK;
1120:Drivers/STM32F7xx_HAL_Driver/Src/stm32f7xx_ll_usb.c ****   emp = USBx_DEVICE->DIEPEMPMSK;
1121:Drivers/STM32F7xx_HAL_Driver/Src/stm32f7xx_ll_usb.c ****   msk |= ((emp >> (epnum & 0xFU)) & 0x1U) << 7;
1122:Drivers/STM32F7xx_HAL_Driver/Src/stm32f7xx_ll_usb.c ****   tmpreg = USBx_INEP((uint32_t)epnum)->DIEPINT & msk;
1123:Drivers/STM32F7xx_HAL_Driver/Src/stm32f7xx_ll_usb.c **** 
1124:Drivers/STM32F7xx_HAL_Driver/Src/stm32f7xx_ll_usb.c ****   return tmpreg;
1125:Drivers/STM32F7xx_HAL_Driver/Src/stm32f7xx_ll_usb.c **** }
1126:Drivers/STM32F7xx_HAL_Driver/Src/stm32f7xx_ll_usb.c **** 
1127:Drivers/STM32F7xx_HAL_Driver/Src/stm32f7xx_ll_usb.c **** /**
1128:Drivers/STM32F7xx_HAL_Driver/Src/stm32f7xx_ll_usb.c ****   * @brief  USB_ClearInterrupts: clear a USB interrupt
1129:Drivers/STM32F7xx_HAL_Driver/Src/stm32f7xx_ll_usb.c ****   * @param  USBx  Selected device
1130:Drivers/STM32F7xx_HAL_Driver/Src/stm32f7xx_ll_usb.c ****   * @param  interrupt  interrupt flag
1131:Drivers/STM32F7xx_HAL_Driver/Src/stm32f7xx_ll_usb.c ****   * @retval None
1132:Drivers/STM32F7xx_HAL_Driver/Src/stm32f7xx_ll_usb.c ****   */
1133:Drivers/STM32F7xx_HAL_Driver/Src/stm32f7xx_ll_usb.c **** void  USB_ClearInterrupts (USB_OTG_GlobalTypeDef *USBx, uint32_t interrupt)
1134:Drivers/STM32F7xx_HAL_Driver/Src/stm32f7xx_ll_usb.c **** {
1135:Drivers/STM32F7xx_HAL_Driver/Src/stm32f7xx_ll_usb.c ****   USBx->GINTSTS |= interrupt;
1136:Drivers/STM32F7xx_HAL_Driver/Src/stm32f7xx_ll_usb.c **** }
1137:Drivers/STM32F7xx_HAL_Driver/Src/stm32f7xx_ll_usb.c **** 
1138:Drivers/STM32F7xx_HAL_Driver/Src/stm32f7xx_ll_usb.c **** /**
1139:Drivers/STM32F7xx_HAL_Driver/Src/stm32f7xx_ll_usb.c ****   * @brief  Returns USB core mode
1140:Drivers/STM32F7xx_HAL_Driver/Src/stm32f7xx_ll_usb.c ****   * @param  USBx  Selected device
1141:Drivers/STM32F7xx_HAL_Driver/Src/stm32f7xx_ll_usb.c ****   * @retval return core mode : Host or Device
1142:Drivers/STM32F7xx_HAL_Driver/Src/stm32f7xx_ll_usb.c ****   *          This parameter can be one of these values:
1143:Drivers/STM32F7xx_HAL_Driver/Src/stm32f7xx_ll_usb.c ****   *           0 : Host
1144:Drivers/STM32F7xx_HAL_Driver/Src/stm32f7xx_ll_usb.c ****   *           1 : Device
1145:Drivers/STM32F7xx_HAL_Driver/Src/stm32f7xx_ll_usb.c ****   */
1146:Drivers/STM32F7xx_HAL_Driver/Src/stm32f7xx_ll_usb.c **** uint32_t USB_GetMode(USB_OTG_GlobalTypeDef *USBx)
1147:Drivers/STM32F7xx_HAL_Driver/Src/stm32f7xx_ll_usb.c **** {
1148:Drivers/STM32F7xx_HAL_Driver/Src/stm32f7xx_ll_usb.c ****   return ((USBx->GINTSTS ) & 0x1U);
1149:Drivers/STM32F7xx_HAL_Driver/Src/stm32f7xx_ll_usb.c **** }
1150:Drivers/STM32F7xx_HAL_Driver/Src/stm32f7xx_ll_usb.c **** 
1151:Drivers/STM32F7xx_HAL_Driver/Src/stm32f7xx_ll_usb.c **** /**
1152:Drivers/STM32F7xx_HAL_Driver/Src/stm32f7xx_ll_usb.c ****   * @brief  Activate EP0 for Setup transactions
1153:Drivers/STM32F7xx_HAL_Driver/Src/stm32f7xx_ll_usb.c ****   * @param  USBx  Selected device
1154:Drivers/STM32F7xx_HAL_Driver/Src/stm32f7xx_ll_usb.c ****   * @retval HAL status
1155:Drivers/STM32F7xx_HAL_Driver/Src/stm32f7xx_ll_usb.c ****   */
1156:Drivers/STM32F7xx_HAL_Driver/Src/stm32f7xx_ll_usb.c **** HAL_StatusTypeDef  USB_ActivateSetup (USB_OTG_GlobalTypeDef *USBx)
1157:Drivers/STM32F7xx_HAL_Driver/Src/stm32f7xx_ll_usb.c **** {
1158:Drivers/STM32F7xx_HAL_Driver/Src/stm32f7xx_ll_usb.c ****   uint32_t USBx_BASE = (uint32_t)USBx;
1159:Drivers/STM32F7xx_HAL_Driver/Src/stm32f7xx_ll_usb.c **** 
1160:Drivers/STM32F7xx_HAL_Driver/Src/stm32f7xx_ll_usb.c ****   /* Set the MPS of the IN EP based on the enumeration speed */
1161:Drivers/STM32F7xx_HAL_Driver/Src/stm32f7xx_ll_usb.c ****   USBx_INEP(0U)->DIEPCTL &= ~USB_OTG_DIEPCTL_MPSIZ;
1162:Drivers/STM32F7xx_HAL_Driver/Src/stm32f7xx_ll_usb.c **** 
1163:Drivers/STM32F7xx_HAL_Driver/Src/stm32f7xx_ll_usb.c ****   if((USBx_DEVICE->DSTS & USB_OTG_DSTS_ENUMSPD) == DSTS_ENUMSPD_LS_PHY_6MHZ)
1164:Drivers/STM32F7xx_HAL_Driver/Src/stm32f7xx_ll_usb.c ****   {
1165:Drivers/STM32F7xx_HAL_Driver/Src/stm32f7xx_ll_usb.c ****     USBx_INEP(0U)->DIEPCTL |= 3U;
1166:Drivers/STM32F7xx_HAL_Driver/Src/stm32f7xx_ll_usb.c ****   }
1167:Drivers/STM32F7xx_HAL_Driver/Src/stm32f7xx_ll_usb.c ****   USBx_DEVICE->DCTL |= USB_OTG_DCTL_CGINAK;
1168:Drivers/STM32F7xx_HAL_Driver/Src/stm32f7xx_ll_usb.c **** 
1169:Drivers/STM32F7xx_HAL_Driver/Src/stm32f7xx_ll_usb.c ****   return HAL_OK;
1170:Drivers/STM32F7xx_HAL_Driver/Src/stm32f7xx_ll_usb.c **** }
1171:Drivers/STM32F7xx_HAL_Driver/Src/stm32f7xx_ll_usb.c **** 
1172:Drivers/STM32F7xx_HAL_Driver/Src/stm32f7xx_ll_usb.c **** /**
ARM GAS  C:\Users\Patryk\AppData\Local\Temp\cc5QRopf.s 			page 22


1173:Drivers/STM32F7xx_HAL_Driver/Src/stm32f7xx_ll_usb.c ****   * @brief  Prepare the EP0 to start the first control setup
1174:Drivers/STM32F7xx_HAL_Driver/Src/stm32f7xx_ll_usb.c ****   * @param  USBx  Selected device
1175:Drivers/STM32F7xx_HAL_Driver/Src/stm32f7xx_ll_usb.c ****   * @param  dma USB dma enabled or disabled
1176:Drivers/STM32F7xx_HAL_Driver/Src/stm32f7xx_ll_usb.c ****   *          This parameter can be one of these values:
1177:Drivers/STM32F7xx_HAL_Driver/Src/stm32f7xx_ll_usb.c ****   *           0 : DMA feature not used
1178:Drivers/STM32F7xx_HAL_Driver/Src/stm32f7xx_ll_usb.c ****   *           1 : DMA feature used
1179:Drivers/STM32F7xx_HAL_Driver/Src/stm32f7xx_ll_usb.c ****   * @param  psetup  pointer to setup packet
1180:Drivers/STM32F7xx_HAL_Driver/Src/stm32f7xx_ll_usb.c ****   * @retval HAL status
1181:Drivers/STM32F7xx_HAL_Driver/Src/stm32f7xx_ll_usb.c ****   */
1182:Drivers/STM32F7xx_HAL_Driver/Src/stm32f7xx_ll_usb.c **** HAL_StatusTypeDef USB_EP0_OutStart(USB_OTG_GlobalTypeDef *USBx, uint8_t dma, uint8_t *psetup)
1183:Drivers/STM32F7xx_HAL_Driver/Src/stm32f7xx_ll_usb.c **** {
1184:Drivers/STM32F7xx_HAL_Driver/Src/stm32f7xx_ll_usb.c ****   uint32_t USBx_BASE = (uint32_t)USBx;
1185:Drivers/STM32F7xx_HAL_Driver/Src/stm32f7xx_ll_usb.c **** 
1186:Drivers/STM32F7xx_HAL_Driver/Src/stm32f7xx_ll_usb.c ****   USBx_OUTEP(0U)->DOEPTSIZ = 0U;
1187:Drivers/STM32F7xx_HAL_Driver/Src/stm32f7xx_ll_usb.c ****   USBx_OUTEP(0U)->DOEPTSIZ |= (USB_OTG_DOEPTSIZ_PKTCNT & (1U << 19));
1188:Drivers/STM32F7xx_HAL_Driver/Src/stm32f7xx_ll_usb.c ****   USBx_OUTEP(0U)->DOEPTSIZ |= (3U * 8U);
1189:Drivers/STM32F7xx_HAL_Driver/Src/stm32f7xx_ll_usb.c ****   USBx_OUTEP(0U)->DOEPTSIZ |=  USB_OTG_DOEPTSIZ_STUPCNT;
1190:Drivers/STM32F7xx_HAL_Driver/Src/stm32f7xx_ll_usb.c **** 
1191:Drivers/STM32F7xx_HAL_Driver/Src/stm32f7xx_ll_usb.c ****   if (dma == 1U)
1192:Drivers/STM32F7xx_HAL_Driver/Src/stm32f7xx_ll_usb.c ****   {
1193:Drivers/STM32F7xx_HAL_Driver/Src/stm32f7xx_ll_usb.c ****     USBx_OUTEP(0U)->DOEPDMA = (uint32_t)psetup;
1194:Drivers/STM32F7xx_HAL_Driver/Src/stm32f7xx_ll_usb.c ****     /* EP enable */
1195:Drivers/STM32F7xx_HAL_Driver/Src/stm32f7xx_ll_usb.c ****     USBx_OUTEP(0U)->DOEPCTL = 0x80008000U;
1196:Drivers/STM32F7xx_HAL_Driver/Src/stm32f7xx_ll_usb.c ****   }
1197:Drivers/STM32F7xx_HAL_Driver/Src/stm32f7xx_ll_usb.c **** 
1198:Drivers/STM32F7xx_HAL_Driver/Src/stm32f7xx_ll_usb.c ****   return HAL_OK;
1199:Drivers/STM32F7xx_HAL_Driver/Src/stm32f7xx_ll_usb.c **** }
1200:Drivers/STM32F7xx_HAL_Driver/Src/stm32f7xx_ll_usb.c **** 
1201:Drivers/STM32F7xx_HAL_Driver/Src/stm32f7xx_ll_usb.c **** /**
1202:Drivers/STM32F7xx_HAL_Driver/Src/stm32f7xx_ll_usb.c ****   * @brief  Reset the USB Core (needed after USB clock settings change)
1203:Drivers/STM32F7xx_HAL_Driver/Src/stm32f7xx_ll_usb.c ****   * @param  USBx  Selected device
1204:Drivers/STM32F7xx_HAL_Driver/Src/stm32f7xx_ll_usb.c ****   * @retval HAL status
1205:Drivers/STM32F7xx_HAL_Driver/Src/stm32f7xx_ll_usb.c ****   */
1206:Drivers/STM32F7xx_HAL_Driver/Src/stm32f7xx_ll_usb.c **** static HAL_StatusTypeDef USB_CoreReset(USB_OTG_GlobalTypeDef *USBx)
1207:Drivers/STM32F7xx_HAL_Driver/Src/stm32f7xx_ll_usb.c **** {
  27              		.loc 1 1207 0
  28              		.cfi_startproc
  29              		@ args = 0, pretend = 0, frame = 0
  30              		@ frame_needed = 0, uses_anonymous_args = 0
  31              		@ link register save eliminated.
  32              	.LVL0:
1208:Drivers/STM32F7xx_HAL_Driver/Src/stm32f7xx_ll_usb.c ****   uint32_t count = 0U;
  33              		.loc 1 1208 0
  34 0000 0023     		movs	r3, #0
  35              	.LVL1:
  36              	.L3:
1209:Drivers/STM32F7xx_HAL_Driver/Src/stm32f7xx_ll_usb.c **** 
1210:Drivers/STM32F7xx_HAL_Driver/Src/stm32f7xx_ll_usb.c ****   /* Wait for AHB master IDLE state. */
1211:Drivers/STM32F7xx_HAL_Driver/Src/stm32f7xx_ll_usb.c ****   do
1212:Drivers/STM32F7xx_HAL_Driver/Src/stm32f7xx_ll_usb.c ****   {
1213:Drivers/STM32F7xx_HAL_Driver/Src/stm32f7xx_ll_usb.c ****     if (++count > 200000U)
  37              		.loc 1 1213 0
  38 0002 0133     		adds	r3, r3, #1
  39              	.LVL2:
  40 0004 0C4A     		ldr	r2, .L7
  41 0006 9342     		cmp	r3, r2
  42 0008 11D8     		bhi	.L5
ARM GAS  C:\Users\Patryk\AppData\Local\Temp\cc5QRopf.s 			page 23


1214:Drivers/STM32F7xx_HAL_Driver/Src/stm32f7xx_ll_usb.c ****     {
1215:Drivers/STM32F7xx_HAL_Driver/Src/stm32f7xx_ll_usb.c ****       return HAL_TIMEOUT;
1216:Drivers/STM32F7xx_HAL_Driver/Src/stm32f7xx_ll_usb.c ****     }
1217:Drivers/STM32F7xx_HAL_Driver/Src/stm32f7xx_ll_usb.c ****   }
1218:Drivers/STM32F7xx_HAL_Driver/Src/stm32f7xx_ll_usb.c ****   while ((USBx->GRSTCTL & USB_OTG_GRSTCTL_AHBIDL) == 0U);
  43              		.loc 1 1218 0
  44 000a 0269     		ldr	r2, [r0, #16]
  45 000c 002A     		cmp	r2, #0
  46 000e F8DA     		bge	.L3
  47              	.LVL3:
1219:Drivers/STM32F7xx_HAL_Driver/Src/stm32f7xx_ll_usb.c **** 
1220:Drivers/STM32F7xx_HAL_Driver/Src/stm32f7xx_ll_usb.c ****   /* Core Soft Reset */
1221:Drivers/STM32F7xx_HAL_Driver/Src/stm32f7xx_ll_usb.c ****   count = 0U;
1222:Drivers/STM32F7xx_HAL_Driver/Src/stm32f7xx_ll_usb.c ****   USBx->GRSTCTL |= USB_OTG_GRSTCTL_CSRST;
  48              		.loc 1 1222 0
  49 0010 0369     		ldr	r3, [r0, #16]
  50 0012 43F00103 		orr	r3, r3, #1
  51 0016 0361     		str	r3, [r0, #16]
1221:Drivers/STM32F7xx_HAL_Driver/Src/stm32f7xx_ll_usb.c ****   USBx->GRSTCTL |= USB_OTG_GRSTCTL_CSRST;
  52              		.loc 1 1221 0
  53 0018 0023     		movs	r3, #0
  54              	.LVL4:
  55              	.L4:
1223:Drivers/STM32F7xx_HAL_Driver/Src/stm32f7xx_ll_usb.c **** 
1224:Drivers/STM32F7xx_HAL_Driver/Src/stm32f7xx_ll_usb.c ****   do
1225:Drivers/STM32F7xx_HAL_Driver/Src/stm32f7xx_ll_usb.c ****   {
1226:Drivers/STM32F7xx_HAL_Driver/Src/stm32f7xx_ll_usb.c ****     if (++count > 200000U)
  56              		.loc 1 1226 0
  57 001a 0133     		adds	r3, r3, #1
  58              	.LVL5:
  59 001c 064A     		ldr	r2, .L7
  60 001e 9342     		cmp	r3, r2
  61 0020 07D8     		bhi	.L6
1227:Drivers/STM32F7xx_HAL_Driver/Src/stm32f7xx_ll_usb.c ****     {
1228:Drivers/STM32F7xx_HAL_Driver/Src/stm32f7xx_ll_usb.c ****       return HAL_TIMEOUT;
1229:Drivers/STM32F7xx_HAL_Driver/Src/stm32f7xx_ll_usb.c ****     }
1230:Drivers/STM32F7xx_HAL_Driver/Src/stm32f7xx_ll_usb.c ****   }
1231:Drivers/STM32F7xx_HAL_Driver/Src/stm32f7xx_ll_usb.c ****   while ((USBx->GRSTCTL & USB_OTG_GRSTCTL_CSRST) == USB_OTG_GRSTCTL_CSRST);
  62              		.loc 1 1231 0
  63 0022 0269     		ldr	r2, [r0, #16]
  64 0024 12F0010F 		tst	r2, #1
  65 0028 F7D1     		bne	.L4
1232:Drivers/STM32F7xx_HAL_Driver/Src/stm32f7xx_ll_usb.c **** 
1233:Drivers/STM32F7xx_HAL_Driver/Src/stm32f7xx_ll_usb.c ****   return HAL_OK;
  66              		.loc 1 1233 0
  67 002a 0020     		movs	r0, #0
  68              	.LVL6:
  69 002c 7047     		bx	lr
  70              	.LVL7:
  71              	.L5:
1215:Drivers/STM32F7xx_HAL_Driver/Src/stm32f7xx_ll_usb.c ****     }
  72              		.loc 1 1215 0
  73 002e 0320     		movs	r0, #3
  74              	.LVL8:
  75 0030 7047     		bx	lr
  76              	.LVL9:
  77              	.L6:
ARM GAS  C:\Users\Patryk\AppData\Local\Temp\cc5QRopf.s 			page 24


1228:Drivers/STM32F7xx_HAL_Driver/Src/stm32f7xx_ll_usb.c ****     }
  78              		.loc 1 1228 0
  79 0032 0320     		movs	r0, #3
  80              	.LVL10:
1234:Drivers/STM32F7xx_HAL_Driver/Src/stm32f7xx_ll_usb.c **** }
  81              		.loc 1 1234 0
  82 0034 7047     		bx	lr
  83              	.L8:
  84 0036 00BF     		.align	2
  85              	.L7:
  86 0038 400D0300 		.word	200000
  87              		.cfi_endproc
  88              	.LFE170:
  90              		.section	.text.USB_CoreInit,"ax",%progbits
  91              		.align	1
  92              		.global	USB_CoreInit
  93              		.syntax unified
  94              		.thumb
  95              		.thumb_func
  96              		.fpu fpv5-sp-d16
  98              	USB_CoreInit:
  99              	.LFB138:
 103:Drivers/STM32F7xx_HAL_Driver/Src/stm32f7xx_ll_usb.c ****   if (cfg.phy_itface == USB_OTG_ULPI_PHY)
 100              		.loc 1 103 0
 101              		.cfi_startproc
 102              		@ args = 56, pretend = 16, frame = 0
 103              		@ frame_needed = 0, uses_anonymous_args = 0
 104              	.LVL11:
 105 0000 84B0     		sub	sp, sp, #16
 106              	.LCFI0:
 107              		.cfi_def_cfa_offset 16
 108 0002 10B5     		push	{r4, lr}
 109              	.LCFI1:
 110              		.cfi_def_cfa_offset 24
 111              		.cfi_offset 4, -24
 112              		.cfi_offset 14, -20
 113 0004 0446     		mov	r4, r0
 114 0006 03A8     		add	r0, sp, #12
 115              	.LVL12:
 116 0008 80E80E00 		stm	r0, {r1, r2, r3}
 104:Drivers/STM32F7xx_HAL_Driver/Src/stm32f7xx_ll_usb.c ****   {
 117              		.loc 1 104 0
 118 000c 089B     		ldr	r3, [sp, #32]
 119 000e 012B     		cmp	r3, #1
 120 0010 1ED1     		bne	.L10
 106:Drivers/STM32F7xx_HAL_Driver/Src/stm32f7xx_ll_usb.c **** 
 121              		.loc 1 106 0
 122 0012 A36B     		ldr	r3, [r4, #56]
 123 0014 23F48033 		bic	r3, r3, #65536
 124 0018 A363     		str	r3, [r4, #56]
 109:Drivers/STM32F7xx_HAL_Driver/Src/stm32f7xx_ll_usb.c **** 
 125              		.loc 1 109 0
 126 001a E268     		ldr	r2, [r4, #12]
 127 001c 164B     		ldr	r3, .L17
 128 001e 1340     		ands	r3, r3, r2
 129 0020 E360     		str	r3, [r4, #12]
 112:Drivers/STM32F7xx_HAL_Driver/Src/stm32f7xx_ll_usb.c ****     if(cfg.use_external_vbus == 1U)
ARM GAS  C:\Users\Patryk\AppData\Local\Temp\cc5QRopf.s 			page 25


 130              		.loc 1 112 0
 131 0022 E368     		ldr	r3, [r4, #12]
 132 0024 23F44013 		bic	r3, r3, #3145728
 133 0028 E360     		str	r3, [r4, #12]
 113:Drivers/STM32F7xx_HAL_Driver/Src/stm32f7xx_ll_usb.c ****     {
 134              		.loc 1 113 0
 135 002a 0F9B     		ldr	r3, [sp, #60]
 136 002c 012B     		cmp	r3, #1
 137 002e 0AD0     		beq	.L15
 138              	.L11:
 118:Drivers/STM32F7xx_HAL_Driver/Src/stm32f7xx_ll_usb.c ****   }
 139              		.loc 1 118 0
 140 0030 2046     		mov	r0, r4
 141 0032 FFF7FEFF 		bl	USB_CoreReset
 142              	.LVL13:
 143              	.L12:
 159:Drivers/STM32F7xx_HAL_Driver/Src/stm32f7xx_ll_usb.c ****   {
 144              		.loc 1 159 0
 145 0036 069B     		ldr	r3, [sp, #24]
 146 0038 012B     		cmp	r3, #1
 147 003a 14D0     		beq	.L16
 148              	.L13:
 166:Drivers/STM32F7xx_HAL_Driver/Src/stm32f7xx_ll_usb.c **** 
 149              		.loc 1 166 0
 150 003c 0020     		movs	r0, #0
 151 003e BDE81040 		pop	{r4, lr}
 152              	.LCFI2:
 153              		.cfi_remember_state
 154              		.cfi_restore 14
 155              		.cfi_restore 4
 156              		.cfi_def_cfa_offset 16
 157              	.LVL14:
 158 0042 04B0     		add	sp, sp, #16
 159              	.LCFI3:
 160              		.cfi_def_cfa_offset 0
 161 0044 7047     		bx	lr
 162              	.LVL15:
 163              	.L15:
 164              	.LCFI4:
 165              		.cfi_restore_state
 115:Drivers/STM32F7xx_HAL_Driver/Src/stm32f7xx_ll_usb.c ****     }
 166              		.loc 1 115 0
 167 0046 E368     		ldr	r3, [r4, #12]
 168 0048 43F48013 		orr	r3, r3, #1048576
 169 004c E360     		str	r3, [r4, #12]
 170 004e EFE7     		b	.L11
 171              	.L10:
 150:Drivers/STM32F7xx_HAL_Driver/Src/stm32f7xx_ll_usb.c **** 
 172              		.loc 1 150 0
 173 0050 E368     		ldr	r3, [r4, #12]
 174 0052 43F04003 		orr	r3, r3, #64
 175 0056 E360     		str	r3, [r4, #12]
 153:Drivers/STM32F7xx_HAL_Driver/Src/stm32f7xx_ll_usb.c **** 
 176              		.loc 1 153 0
 177 0058 2046     		mov	r0, r4
 178 005a FFF7FEFF 		bl	USB_CoreReset
 179              	.LVL16:
ARM GAS  C:\Users\Patryk\AppData\Local\Temp\cc5QRopf.s 			page 26


 156:Drivers/STM32F7xx_HAL_Driver/Src/stm32f7xx_ll_usb.c ****   }
 180              		.loc 1 156 0
 181 005e 4FF48033 		mov	r3, #65536
 182 0062 A363     		str	r3, [r4, #56]
 183 0064 E7E7     		b	.L12
 184              	.L16:
 161:Drivers/STM32F7xx_HAL_Driver/Src/stm32f7xx_ll_usb.c ****     USBx->GAHBCFG |= USB_OTG_GAHBCFG_DMAEN;
 185              		.loc 1 161 0
 186 0066 A368     		ldr	r3, [r4, #8]
 187 0068 43F00603 		orr	r3, r3, #6
 188 006c A360     		str	r3, [r4, #8]
 162:Drivers/STM32F7xx_HAL_Driver/Src/stm32f7xx_ll_usb.c ****   }
 189              		.loc 1 162 0
 190 006e A368     		ldr	r3, [r4, #8]
 191 0070 43F02003 		orr	r3, r3, #32
 192 0074 A360     		str	r3, [r4, #8]
 193 0076 E1E7     		b	.L13
 194              	.L18:
 195              		.align	2
 196              	.L17:
 197 0078 BFFFBDFF 		.word	-4325441
 198              		.cfi_endproc
 199              	.LFE138:
 201              		.section	.text.USB_EnableGlobalInt,"ax",%progbits
 202              		.align	1
 203              		.global	USB_EnableGlobalInt
 204              		.syntax unified
 205              		.thumb
 206              		.thumb_func
 207              		.fpu fpv5-sp-d16
 209              	USB_EnableGlobalInt:
 210              	.LFB139:
 175:Drivers/STM32F7xx_HAL_Driver/Src/stm32f7xx_ll_usb.c ****   USBx->GAHBCFG |= USB_OTG_GAHBCFG_GINT;
 211              		.loc 1 175 0
 212              		.cfi_startproc
 213              		@ args = 0, pretend = 0, frame = 0
 214              		@ frame_needed = 0, uses_anonymous_args = 0
 215              		@ link register save eliminated.
 216              	.LVL17:
 176:Drivers/STM32F7xx_HAL_Driver/Src/stm32f7xx_ll_usb.c ****   return HAL_OK;
 217              		.loc 1 176 0
 218 0000 8368     		ldr	r3, [r0, #8]
 219 0002 43F00103 		orr	r3, r3, #1
 220 0006 8360     		str	r3, [r0, #8]
 178:Drivers/STM32F7xx_HAL_Driver/Src/stm32f7xx_ll_usb.c **** 
 221              		.loc 1 178 0
 222 0008 0020     		movs	r0, #0
 223              	.LVL18:
 224 000a 7047     		bx	lr
 225              		.cfi_endproc
 226              	.LFE139:
 228              		.section	.text.USB_DisableGlobalInt,"ax",%progbits
 229              		.align	1
 230              		.global	USB_DisableGlobalInt
 231              		.syntax unified
 232              		.thumb
 233              		.thumb_func
ARM GAS  C:\Users\Patryk\AppData\Local\Temp\cc5QRopf.s 			page 27


 234              		.fpu fpv5-sp-d16
 236              	USB_DisableGlobalInt:
 237              	.LFB140:
 187:Drivers/STM32F7xx_HAL_Driver/Src/stm32f7xx_ll_usb.c ****   USBx->GAHBCFG &= ~USB_OTG_GAHBCFG_GINT;
 238              		.loc 1 187 0
 239              		.cfi_startproc
 240              		@ args = 0, pretend = 0, frame = 0
 241              		@ frame_needed = 0, uses_anonymous_args = 0
 242              		@ link register save eliminated.
 243              	.LVL19:
 188:Drivers/STM32F7xx_HAL_Driver/Src/stm32f7xx_ll_usb.c ****   return HAL_OK;
 244              		.loc 1 188 0
 245 0000 8368     		ldr	r3, [r0, #8]
 246 0002 23F00103 		bic	r3, r3, #1
 247 0006 8360     		str	r3, [r0, #8]
 190:Drivers/STM32F7xx_HAL_Driver/Src/stm32f7xx_ll_usb.c **** 
 248              		.loc 1 190 0
 249 0008 0020     		movs	r0, #0
 250              	.LVL20:
 251 000a 7047     		bx	lr
 252              		.cfi_endproc
 253              	.LFE140:
 255              		.section	.text.USB_SetCurrentMode,"ax",%progbits
 256              		.align	1
 257              		.global	USB_SetCurrentMode
 258              		.syntax unified
 259              		.thumb
 260              		.thumb_func
 261              		.fpu fpv5-sp-d16
 263              	USB_SetCurrentMode:
 264              	.LFB141:
 203:Drivers/STM32F7xx_HAL_Driver/Src/stm32f7xx_ll_usb.c ****   USBx->GUSBCFG &= ~(USB_OTG_GUSBCFG_FHMOD | USB_OTG_GUSBCFG_FDMOD);
 265              		.loc 1 203 0
 266              		.cfi_startproc
 267              		@ args = 0, pretend = 0, frame = 0
 268              		@ frame_needed = 0, uses_anonymous_args = 0
 269              	.LVL21:
 270 0000 08B5     		push	{r3, lr}
 271              	.LCFI5:
 272              		.cfi_def_cfa_offset 8
 273              		.cfi_offset 3, -8
 274              		.cfi_offset 14, -4
 204:Drivers/STM32F7xx_HAL_Driver/Src/stm32f7xx_ll_usb.c **** 
 275              		.loc 1 204 0
 276 0002 C368     		ldr	r3, [r0, #12]
 277 0004 23F0C043 		bic	r3, r3, #1610612736
 278 0008 C360     		str	r3, [r0, #12]
 206:Drivers/STM32F7xx_HAL_Driver/Src/stm32f7xx_ll_usb.c ****   {
 279              		.loc 1 206 0
 280 000a 0129     		cmp	r1, #1
 281 000c 09D0     		beq	.L27
 210:Drivers/STM32F7xx_HAL_Driver/Src/stm32f7xx_ll_usb.c ****   {
 282              		.loc 1 210 0
 283 000e 69B9     		cbnz	r1, .L25
 212:Drivers/STM32F7xx_HAL_Driver/Src/stm32f7xx_ll_usb.c ****   }
 284              		.loc 1 212 0
 285 0010 C368     		ldr	r3, [r0, #12]
ARM GAS  C:\Users\Patryk\AppData\Local\Temp\cc5QRopf.s 			page 28


 286 0012 43F08043 		orr	r3, r3, #1073741824
 287 0016 C360     		str	r3, [r0, #12]
 288              	.L23:
 218:Drivers/STM32F7xx_HAL_Driver/Src/stm32f7xx_ll_usb.c **** 
 289              		.loc 1 218 0
 290 0018 3220     		movs	r0, #50
 291              	.LVL22:
 292 001a FFF7FEFF 		bl	HAL_Delay
 293              	.LVL23:
 220:Drivers/STM32F7xx_HAL_Driver/Src/stm32f7xx_ll_usb.c **** }
 294              		.loc 1 220 0
 295 001e 0020     		movs	r0, #0
 296              	.L24:
 221:Drivers/STM32F7xx_HAL_Driver/Src/stm32f7xx_ll_usb.c **** 
 297              		.loc 1 221 0
 298 0020 08BD     		pop	{r3, pc}
 299              	.LVL24:
 300              	.L27:
 208:Drivers/STM32F7xx_HAL_Driver/Src/stm32f7xx_ll_usb.c ****   }
 301              		.loc 1 208 0
 302 0022 C368     		ldr	r3, [r0, #12]
 303 0024 43F00053 		orr	r3, r3, #536870912
 304 0028 C360     		str	r3, [r0, #12]
 305 002a F5E7     		b	.L23
 306              	.L25:
 216:Drivers/STM32F7xx_HAL_Driver/Src/stm32f7xx_ll_usb.c ****   }
 307              		.loc 1 216 0
 308 002c 0120     		movs	r0, #1
 309              	.LVL25:
 310 002e F7E7     		b	.L24
 311              		.cfi_endproc
 312              	.LFE141:
 314              		.section	.text.USB_FlushTxFifo,"ax",%progbits
 315              		.align	1
 316              		.global	USB_FlushTxFifo
 317              		.syntax unified
 318              		.thumb
 319              		.thumb_func
 320              		.fpu fpv5-sp-d16
 322              	USB_FlushTxFifo:
 323              	.LFB143:
 398:Drivers/STM32F7xx_HAL_Driver/Src/stm32f7xx_ll_usb.c ****   uint32_t count = 0U;
 324              		.loc 1 398 0
 325              		.cfi_startproc
 326              		@ args = 0, pretend = 0, frame = 0
 327              		@ frame_needed = 0, uses_anonymous_args = 0
 328              		@ link register save eliminated.
 329              	.LVL26:
 401:Drivers/STM32F7xx_HAL_Driver/Src/stm32f7xx_ll_usb.c **** 
 330              		.loc 1 401 0
 331 0000 8901     		lsls	r1, r1, #6
 332              	.LVL27:
 333 0002 41F02001 		orr	r1, r1, #32
 334 0006 0161     		str	r1, [r0, #16]
 399:Drivers/STM32F7xx_HAL_Driver/Src/stm32f7xx_ll_usb.c **** 
 335              		.loc 1 399 0
 336 0008 0023     		movs	r3, #0
ARM GAS  C:\Users\Patryk\AppData\Local\Temp\cc5QRopf.s 			page 29


 337              	.LVL28:
 338              	.L30:
 405:Drivers/STM32F7xx_HAL_Driver/Src/stm32f7xx_ll_usb.c ****     {
 339              		.loc 1 405 0
 340 000a 0133     		adds	r3, r3, #1
 341              	.LVL29:
 342 000c 054A     		ldr	r2, .L32
 343 000e 9342     		cmp	r3, r2
 344 0010 05D8     		bhi	.L31
 410:Drivers/STM32F7xx_HAL_Driver/Src/stm32f7xx_ll_usb.c **** 
 345              		.loc 1 410 0
 346 0012 0269     		ldr	r2, [r0, #16]
 347 0014 12F0200F 		tst	r2, #32
 348 0018 F7D1     		bne	.L30
 412:Drivers/STM32F7xx_HAL_Driver/Src/stm32f7xx_ll_usb.c **** }
 349              		.loc 1 412 0
 350 001a 0020     		movs	r0, #0
 351              	.LVL30:
 352 001c 7047     		bx	lr
 353              	.LVL31:
 354              	.L31:
 407:Drivers/STM32F7xx_HAL_Driver/Src/stm32f7xx_ll_usb.c ****     }
 355              		.loc 1 407 0
 356 001e 0320     		movs	r0, #3
 357              	.LVL32:
 413:Drivers/STM32F7xx_HAL_Driver/Src/stm32f7xx_ll_usb.c **** 
 358              		.loc 1 413 0
 359 0020 7047     		bx	lr
 360              	.L33:
 361 0022 00BF     		.align	2
 362              	.L32:
 363 0024 400D0300 		.word	200000
 364              		.cfi_endproc
 365              	.LFE143:
 367              		.section	.text.USB_FlushRxFifo,"ax",%progbits
 368              		.align	1
 369              		.global	USB_FlushRxFifo
 370              		.syntax unified
 371              		.thumb
 372              		.thumb_func
 373              		.fpu fpv5-sp-d16
 375              	USB_FlushRxFifo:
 376              	.LFB144:
 421:Drivers/STM32F7xx_HAL_Driver/Src/stm32f7xx_ll_usb.c ****   uint32_t count = 0;
 377              		.loc 1 421 0
 378              		.cfi_startproc
 379              		@ args = 0, pretend = 0, frame = 0
 380              		@ frame_needed = 0, uses_anonymous_args = 0
 381              		@ link register save eliminated.
 382              	.LVL33:
 424:Drivers/STM32F7xx_HAL_Driver/Src/stm32f7xx_ll_usb.c **** 
 383              		.loc 1 424 0
 384 0000 1023     		movs	r3, #16
 385 0002 0361     		str	r3, [r0, #16]
 422:Drivers/STM32F7xx_HAL_Driver/Src/stm32f7xx_ll_usb.c **** 
 386              		.loc 1 422 0
 387 0004 0023     		movs	r3, #0
ARM GAS  C:\Users\Patryk\AppData\Local\Temp\cc5QRopf.s 			page 30


 388              	.LVL34:
 389              	.L36:
 428:Drivers/STM32F7xx_HAL_Driver/Src/stm32f7xx_ll_usb.c ****     {
 390              		.loc 1 428 0
 391 0006 0133     		adds	r3, r3, #1
 392              	.LVL35:
 393 0008 054A     		ldr	r2, .L38
 394 000a 9342     		cmp	r3, r2
 395 000c 05D8     		bhi	.L37
 433:Drivers/STM32F7xx_HAL_Driver/Src/stm32f7xx_ll_usb.c **** 
 396              		.loc 1 433 0
 397 000e 0269     		ldr	r2, [r0, #16]
 398 0010 12F0100F 		tst	r2, #16
 399 0014 F7D1     		bne	.L36
 435:Drivers/STM32F7xx_HAL_Driver/Src/stm32f7xx_ll_usb.c **** }
 400              		.loc 1 435 0
 401 0016 0020     		movs	r0, #0
 402              	.LVL36:
 403 0018 7047     		bx	lr
 404              	.LVL37:
 405              	.L37:
 430:Drivers/STM32F7xx_HAL_Driver/Src/stm32f7xx_ll_usb.c ****     }
 406              		.loc 1 430 0
 407 001a 0320     		movs	r0, #3
 408              	.LVL38:
 436:Drivers/STM32F7xx_HAL_Driver/Src/stm32f7xx_ll_usb.c **** 
 409              		.loc 1 436 0
 410 001c 7047     		bx	lr
 411              	.L39:
 412 001e 00BF     		.align	2
 413              	.L38:
 414 0020 400D0300 		.word	200000
 415              		.cfi_endproc
 416              	.LFE144:
 418              		.section	.text.USB_SetDevSpeed,"ax",%progbits
 419              		.align	1
 420              		.global	USB_SetDevSpeed
 421              		.syntax unified
 422              		.thumb
 423              		.thumb_func
 424              		.fpu fpv5-sp-d16
 426              	USB_SetDevSpeed:
 427              	.LFB145:
 451:Drivers/STM32F7xx_HAL_Driver/Src/stm32f7xx_ll_usb.c ****   uint32_t USBx_BASE = (uint32_t)USBx;
 428              		.loc 1 451 0
 429              		.cfi_startproc
 430              		@ args = 0, pretend = 0, frame = 0
 431              		@ frame_needed = 0, uses_anonymous_args = 0
 432              		@ link register save eliminated.
 433              	.LVL39:
 454:Drivers/STM32F7xx_HAL_Driver/Src/stm32f7xx_ll_usb.c ****   return HAL_OK;
 434              		.loc 1 454 0
 435 0000 D0F80038 		ldr	r3, [r0, #2048]
 436 0004 1943     		orrs	r1, r1, r3
 437              	.LVL40:
 438 0006 C0F80018 		str	r1, [r0, #2048]
 456:Drivers/STM32F7xx_HAL_Driver/Src/stm32f7xx_ll_usb.c **** 
ARM GAS  C:\Users\Patryk\AppData\Local\Temp\cc5QRopf.s 			page 31


 439              		.loc 1 456 0
 440 000a 0020     		movs	r0, #0
 441              	.LVL41:
 442 000c 7047     		bx	lr
 443              		.cfi_endproc
 444              	.LFE145:
 446              		.section	.text.USB_DevInit,"ax",%progbits
 447              		.align	1
 448              		.global	USB_DevInit
 449              		.syntax unified
 450              		.thumb
 451              		.thumb_func
 452              		.fpu fpv5-sp-d16
 454              	USB_DevInit:
 455              	.LFB142:
 232:Drivers/STM32F7xx_HAL_Driver/Src/stm32f7xx_ll_usb.c ****   uint32_t USBx_BASE = (uint32_t)USBx;
 456              		.loc 1 232 0
 457              		.cfi_startproc
 458              		@ args = 56, pretend = 16, frame = 0
 459              		@ frame_needed = 0, uses_anonymous_args = 0
 460              	.LVL42:
 461 0000 84B0     		sub	sp, sp, #16
 462              	.LCFI6:
 463              		.cfi_def_cfa_offset 16
 464 0002 F8B5     		push	{r3, r4, r5, r6, r7, lr}
 465              	.LCFI7:
 466              		.cfi_def_cfa_offset 40
 467              		.cfi_offset 3, -40
 468              		.cfi_offset 4, -36
 469              		.cfi_offset 5, -32
 470              		.cfi_offset 6, -28
 471              		.cfi_offset 7, -24
 472              		.cfi_offset 14, -20
 473 0004 0446     		mov	r4, r0
 474 0006 07A8     		add	r0, sp, #28
 475              	.LVL43:
 476 0008 80E80E00 		stm	r0, {r1, r2, r3}
 233:Drivers/STM32F7xx_HAL_Driver/Src/stm32f7xx_ll_usb.c ****   uint32_t i;
 477              		.loc 1 233 0
 478 000c 2546     		mov	r5, r4
 479              	.LVL44:
 236:Drivers/STM32F7xx_HAL_Driver/Src/stm32f7xx_ll_usb.c ****   {
 480              		.loc 1 236 0
 481 000e 0023     		movs	r3, #0
 482 0010 06E0     		b	.L42
 483              	.LVL45:
 484              	.L43:
 238:Drivers/STM32F7xx_HAL_Driver/Src/stm32f7xx_ll_usb.c ****   }
 485              		.loc 1 238 0 discriminator 3
 486 0012 03F14002 		add	r2, r3, #64
 487 0016 04EB8202 		add	r2, r4, r2, lsl #2
 488 001a 0021     		movs	r1, #0
 489 001c 5160     		str	r1, [r2, #4]
 236:Drivers/STM32F7xx_HAL_Driver/Src/stm32f7xx_ll_usb.c ****   {
 490              		.loc 1 236 0 discriminator 3
 491 001e 0133     		adds	r3, r3, #1
 492              	.LVL46:
ARM GAS  C:\Users\Patryk\AppData\Local\Temp\cc5QRopf.s 			page 32


 493              	.L42:
 236:Drivers/STM32F7xx_HAL_Driver/Src/stm32f7xx_ll_usb.c ****   {
 494              		.loc 1 236 0 is_stmt 0 discriminator 1
 495 0020 0E2B     		cmp	r3, #14
 496 0022 F6D9     		bls	.L43
 242:Drivers/STM32F7xx_HAL_Driver/Src/stm32f7xx_ll_usb.c **** 
 497              		.loc 1 242 0 is_stmt 1
 498 0024 A36B     		ldr	r3, [r4, #56]
 499              	.LVL47:
 500 0026 43F40013 		orr	r3, r3, #2097152
 501 002a A363     		str	r3, [r4, #56]
 244:Drivers/STM32F7xx_HAL_Driver/Src/stm32f7xx_ll_usb.c ****   {
 502              		.loc 1 244 0
 503 002c 119F     		ldr	r7, [sp, #68]
 504 002e 5FB9     		cbnz	r7, .L44
 247:Drivers/STM32F7xx_HAL_Driver/Src/stm32f7xx_ll_usb.c **** 
 505              		.loc 1 247 0
 506 0030 A36B     		ldr	r3, [r4, #56]
 507 0032 23F40013 		bic	r3, r3, #2097152
 508 0036 A363     		str	r3, [r4, #56]
 250:Drivers/STM32F7xx_HAL_Driver/Src/stm32f7xx_ll_usb.c ****     USBx->GOTGCTL |= USB_OTG_GOTGCTL_BVALOVAL;
 509              		.loc 1 250 0
 510 0038 2368     		ldr	r3, [r4]
 511 003a 43F04003 		orr	r3, r3, #64
 512 003e 2360     		str	r3, [r4]
 251:Drivers/STM32F7xx_HAL_Driver/Src/stm32f7xx_ll_usb.c ****   }
 513              		.loc 1 251 0
 514 0040 2368     		ldr	r3, [r4]
 515 0042 43F08003 		orr	r3, r3, #128
 516 0046 2360     		str	r3, [r4]
 517              	.L44:
 255:Drivers/STM32F7xx_HAL_Driver/Src/stm32f7xx_ll_usb.c **** 
 518              		.loc 1 255 0
 519 0048 0023     		movs	r3, #0
 520 004a C4F8003E 		str	r3, [r4, #3584]
 258:Drivers/STM32F7xx_HAL_Driver/Src/stm32f7xx_ll_usb.c **** 
 521              		.loc 1 258 0
 522 004e 04F50066 		add	r6, r4, #2048
 523 0052 D4F80038 		ldr	r3, [r4, #2048]
 524 0056 C4F80038 		str	r3, [r4, #2048]
 260:Drivers/STM32F7xx_HAL_Driver/Src/stm32f7xx_ll_usb.c ****   {
 525              		.loc 1 260 0
 526 005a 0C9B     		ldr	r3, [sp, #48]
 527 005c 012B     		cmp	r3, #1
 528 005e 08D0     		beq	.L65
 273:Drivers/STM32F7xx_HAL_Driver/Src/stm32f7xx_ll_usb.c ****   {
 529              		.loc 1 273 0
 530 0060 032B     		cmp	r3, #3
 531 0062 17D1     		bne	.L48
 275:Drivers/STM32F7xx_HAL_Driver/Src/stm32f7xx_ll_usb.c ****     {
 532              		.loc 1 275 0
 533 0064 099B     		ldr	r3, [sp, #36]
 534 0066 83B9     		cbnz	r3, .L49
 278:Drivers/STM32F7xx_HAL_Driver/Src/stm32f7xx_ll_usb.c ****     }
 535              		.loc 1 278 0
 536 0068 0021     		movs	r1, #0
 537 006a 2046     		mov	r0, r4
ARM GAS  C:\Users\Patryk\AppData\Local\Temp\cc5QRopf.s 			page 33


 538 006c FFF7FEFF 		bl	USB_SetDevSpeed
 539              	.LVL48:
 540 0070 14E0     		b	.L47
 541              	.L65:
 262:Drivers/STM32F7xx_HAL_Driver/Src/stm32f7xx_ll_usb.c ****     {
 542              		.loc 1 262 0
 543 0072 099B     		ldr	r3, [sp, #36]
 544 0074 23B9     		cbnz	r3, .L46
 265:Drivers/STM32F7xx_HAL_Driver/Src/stm32f7xx_ll_usb.c ****     }
 545              		.loc 1 265 0
 546 0076 0021     		movs	r1, #0
 547 0078 2046     		mov	r0, r4
 548 007a FFF7FEFF 		bl	USB_SetDevSpeed
 549              	.LVL49:
 550 007e 0DE0     		b	.L47
 551              	.L46:
 270:Drivers/STM32F7xx_HAL_Driver/Src/stm32f7xx_ll_usb.c ****     }
 552              		.loc 1 270 0
 553 0080 0121     		movs	r1, #1
 554 0082 2046     		mov	r0, r4
 555 0084 FFF7FEFF 		bl	USB_SetDevSpeed
 556              	.LVL50:
 557 0088 08E0     		b	.L47
 558              	.L49:
 283:Drivers/STM32F7xx_HAL_Driver/Src/stm32f7xx_ll_usb.c ****     }
 559              		.loc 1 283 0
 560 008a 0121     		movs	r1, #1
 561 008c 2046     		mov	r0, r4
 562 008e FFF7FEFF 		bl	USB_SetDevSpeed
 563              	.LVL51:
 564 0092 03E0     		b	.L47
 565              	.L48:
 289:Drivers/STM32F7xx_HAL_Driver/Src/stm32f7xx_ll_usb.c ****   }
 566              		.loc 1 289 0
 567 0094 0321     		movs	r1, #3
 568 0096 2046     		mov	r0, r4
 569 0098 FFF7FEFF 		bl	USB_SetDevSpeed
 570              	.LVL52:
 571              	.L47:
 293:Drivers/STM32F7xx_HAL_Driver/Src/stm32f7xx_ll_usb.c ****   (void)USB_FlushRxFifo(USBx);
 572              		.loc 1 293 0
 573 009c 1021     		movs	r1, #16
 574 009e 2046     		mov	r0, r4
 575 00a0 FFF7FEFF 		bl	USB_FlushTxFifo
 576              	.LVL53:
 294:Drivers/STM32F7xx_HAL_Driver/Src/stm32f7xx_ll_usb.c **** 
 577              		.loc 1 294 0
 578 00a4 2046     		mov	r0, r4
 579 00a6 FFF7FEFF 		bl	USB_FlushRxFifo
 580              	.LVL54:
 297:Drivers/STM32F7xx_HAL_Driver/Src/stm32f7xx_ll_usb.c ****   USBx_DEVICE->DOEPMSK = 0U;
 581              		.loc 1 297 0
 582 00aa 0023     		movs	r3, #0
 583 00ac 3361     		str	r3, [r6, #16]
 298:Drivers/STM32F7xx_HAL_Driver/Src/stm32f7xx_ll_usb.c ****   USBx_DEVICE->DAINTMSK = 0U;
 584              		.loc 1 298 0
 585 00ae 7361     		str	r3, [r6, #20]
ARM GAS  C:\Users\Patryk\AppData\Local\Temp\cc5QRopf.s 			page 34


 299:Drivers/STM32F7xx_HAL_Driver/Src/stm32f7xx_ll_usb.c **** 
 586              		.loc 1 299 0
 587 00b0 F361     		str	r3, [r6, #28]
 588              	.LVL55:
 301:Drivers/STM32F7xx_HAL_Driver/Src/stm32f7xx_ll_usb.c ****   {
 589              		.loc 1 301 0
 590 00b2 0AE0     		b	.L50
 591              	.LVL56:
 592              	.L67:
 305:Drivers/STM32F7xx_HAL_Driver/Src/stm32f7xx_ll_usb.c ****       {
 593              		.loc 1 305 0
 594 00b4 C3B9     		cbnz	r3, .L52
 307:Drivers/STM32F7xx_HAL_Driver/Src/stm32f7xx_ll_usb.c ****       }
 595              		.loc 1 307 0
 596 00b6 4FF00060 		mov	r0, #134217728
 597 00ba C2F80009 		str	r0, [r2, #2304]
 598              	.L53:
 319:Drivers/STM32F7xx_HAL_Driver/Src/stm32f7xx_ll_usb.c ****     USBx_INEP(i)->DIEPINT  = 0xFB7FU;
 599              		.loc 1 319 0 discriminator 2
 600 00be 0022     		movs	r2, #0
 601 00c0 0A61     		str	r2, [r1, #16]
 320:Drivers/STM32F7xx_HAL_Driver/Src/stm32f7xx_ll_usb.c ****   }
 602              		.loc 1 320 0 discriminator 2
 603 00c2 4FF67F32 		movw	r2, #64383
 604 00c6 8A60     		str	r2, [r1, #8]
 301:Drivers/STM32F7xx_HAL_Driver/Src/stm32f7xx_ll_usb.c ****   {
 605              		.loc 1 301 0 discriminator 2
 606 00c8 0133     		adds	r3, r3, #1
 607              	.LVL57:
 608              	.L50:
 301:Drivers/STM32F7xx_HAL_Driver/Src/stm32f7xx_ll_usb.c ****   {
 609              		.loc 1 301 0 is_stmt 0 discriminator 1
 610 00ca 0799     		ldr	r1, [sp, #28]
 611 00cc 9942     		cmp	r1, r3
 612 00ce 10D9     		bls	.L66
 303:Drivers/STM32F7xx_HAL_Driver/Src/stm32f7xx_ll_usb.c ****     {
 613              		.loc 1 303 0 is_stmt 1
 614 00d0 05EB4312 		add	r2, r5, r3, lsl #5
 615 00d4 02F51061 		add	r1, r2, #2304
 616 00d8 D2F80009 		ldr	r0, [r2, #2304]
 617 00dc 0028     		cmp	r0, #0
 618 00de E9DB     		blt	.L67
 316:Drivers/STM32F7xx_HAL_Driver/Src/stm32f7xx_ll_usb.c ****     }
 619              		.loc 1 316 0
 620 00e0 0020     		movs	r0, #0
 621 00e2 C2F80009 		str	r0, [r2, #2304]
 622 00e6 EAE7     		b	.L53
 623              	.L52:
 311:Drivers/STM32F7xx_HAL_Driver/Src/stm32f7xx_ll_usb.c ****       }
 624              		.loc 1 311 0
 625 00e8 4FF09040 		mov	r0, #1207959552
 626 00ec C2F80009 		str	r0, [r2, #2304]
 627 00f0 E5E7     		b	.L53
 628              	.L66:
 323:Drivers/STM32F7xx_HAL_Driver/Src/stm32f7xx_ll_usb.c ****   {
 629              		.loc 1 323 0
 630 00f2 0023     		movs	r3, #0
ARM GAS  C:\Users\Patryk\AppData\Local\Temp\cc5QRopf.s 			page 35


 631              	.LVL58:
 632 00f4 0AE0     		b	.L55
 633              	.LVL59:
 634              	.L70:
 327:Drivers/STM32F7xx_HAL_Driver/Src/stm32f7xx_ll_usb.c ****       {
 635              		.loc 1 327 0
 636 00f6 CBB1     		cbz	r3, .L68
 333:Drivers/STM32F7xx_HAL_Driver/Src/stm32f7xx_ll_usb.c ****       }
 637              		.loc 1 333 0
 638 00f8 4FF0904C 		mov	ip, #1207959552
 639 00fc C2F800CB 		str	ip, [r2, #2816]
 640              	.L58:
 341:Drivers/STM32F7xx_HAL_Driver/Src/stm32f7xx_ll_usb.c ****     USBx_OUTEP(i)->DOEPINT  = 0xFB7FU;
 641              		.loc 1 341 0 discriminator 2
 642 0100 0022     		movs	r2, #0
 643 0102 0261     		str	r2, [r0, #16]
 342:Drivers/STM32F7xx_HAL_Driver/Src/stm32f7xx_ll_usb.c ****   }
 644              		.loc 1 342 0 discriminator 2
 645 0104 4FF67F32 		movw	r2, #64383
 646 0108 8260     		str	r2, [r0, #8]
 323:Drivers/STM32F7xx_HAL_Driver/Src/stm32f7xx_ll_usb.c ****   {
 647              		.loc 1 323 0 discriminator 2
 648 010a 0133     		adds	r3, r3, #1
 649              	.LVL60:
 650              	.L55:
 323:Drivers/STM32F7xx_HAL_Driver/Src/stm32f7xx_ll_usb.c ****   {
 651              		.loc 1 323 0 is_stmt 0 discriminator 1
 652 010c 9942     		cmp	r1, r3
 653 010e 12D9     		bls	.L69
 325:Drivers/STM32F7xx_HAL_Driver/Src/stm32f7xx_ll_usb.c ****     {
 654              		.loc 1 325 0 is_stmt 1
 655 0110 05EB4312 		add	r2, r5, r3, lsl #5
 656 0114 02F53060 		add	r0, r2, #2816
 657 0118 D2F800CB 		ldr	ip, [r2, #2816]
 658 011c BCF1000F 		cmp	ip, #0
 659 0120 E9DB     		blt	.L70
 338:Drivers/STM32F7xx_HAL_Driver/Src/stm32f7xx_ll_usb.c ****     }
 660              		.loc 1 338 0
 661 0122 4FF0000C 		mov	ip, #0
 662 0126 C2F800CB 		str	ip, [r2, #2816]
 663 012a E9E7     		b	.L58
 664              	.L68:
 329:Drivers/STM32F7xx_HAL_Driver/Src/stm32f7xx_ll_usb.c ****       }
 665              		.loc 1 329 0
 666 012c 4FF0006C 		mov	ip, #134217728
 667 0130 C2F800CB 		str	ip, [r2, #2816]
 668 0134 E4E7     		b	.L58
 669              	.L69:
 345:Drivers/STM32F7xx_HAL_Driver/Src/stm32f7xx_ll_usb.c **** 
 670              		.loc 1 345 0
 671 0136 3369     		ldr	r3, [r6, #16]
 672              	.LVL61:
 673 0138 23F48073 		bic	r3, r3, #256
 674 013c 3361     		str	r3, [r6, #16]
 347:Drivers/STM32F7xx_HAL_Driver/Src/stm32f7xx_ll_usb.c ****   {
 675              		.loc 1 347 0
 676 013e 0A9B     		ldr	r3, [sp, #40]
ARM GAS  C:\Users\Patryk\AppData\Local\Temp\cc5QRopf.s 			page 36


 677 0140 012B     		cmp	r3, #1
 678 0142 1AD0     		beq	.L71
 679              	.L60:
 359:Drivers/STM32F7xx_HAL_Driver/Src/stm32f7xx_ll_usb.c **** 
 680              		.loc 1 359 0
 681 0144 0022     		movs	r2, #0
 682 0146 A261     		str	r2, [r4, #24]
 362:Drivers/STM32F7xx_HAL_Driver/Src/stm32f7xx_ll_usb.c **** 
 683              		.loc 1 362 0
 684 0148 6FF08042 		mvn	r2, #1073741824
 685 014c 6261     		str	r2, [r4, #20]
 365:Drivers/STM32F7xx_HAL_Driver/Src/stm32f7xx_ll_usb.c ****   {
 686              		.loc 1 365 0
 687 014e 1BB9     		cbnz	r3, .L61
 367:Drivers/STM32F7xx_HAL_Driver/Src/stm32f7xx_ll_usb.c ****   }
 688              		.loc 1 367 0
 689 0150 A369     		ldr	r3, [r4, #24]
 690 0152 43F01003 		orr	r3, r3, #16
 691 0156 A361     		str	r3, [r4, #24]
 692              	.L61:
 371:Drivers/STM32F7xx_HAL_Driver/Src/stm32f7xx_ll_usb.c ****                    USB_OTG_GINTMSK_ENUMDNEM | USB_OTG_GINTMSK_IEPINT |
 693              		.loc 1 371 0
 694 0158 A269     		ldr	r2, [r4, #24]
 695 015a 0E4B     		ldr	r3, .L73
 696 015c 1343     		orrs	r3, r3, r2
 697 015e A361     		str	r3, [r4, #24]
 376:Drivers/STM32F7xx_HAL_Driver/Src/stm32f7xx_ll_usb.c ****   {
 698              		.loc 1 376 0
 699 0160 0D9B     		ldr	r3, [sp, #52]
 700 0162 1BB1     		cbz	r3, .L62
 378:Drivers/STM32F7xx_HAL_Driver/Src/stm32f7xx_ll_usb.c ****   }
 701              		.loc 1 378 0
 702 0164 A369     		ldr	r3, [r4, #24]
 703 0166 43F00803 		orr	r3, r3, #8
 704 016a A361     		str	r3, [r4, #24]
 705              	.L62:
 381:Drivers/STM32F7xx_HAL_Driver/Src/stm32f7xx_ll_usb.c ****   {
 706              		.loc 1 381 0
 707 016c 012F     		cmp	r7, #1
 708 016e 0BD0     		beq	.L72
 709              	.L63:
 387:Drivers/STM32F7xx_HAL_Driver/Src/stm32f7xx_ll_usb.c **** 
 710              		.loc 1 387 0
 711 0170 0020     		movs	r0, #0
 712 0172 BDE8F840 		pop	{r3, r4, r5, r6, r7, lr}
 713              	.LCFI8:
 714              		.cfi_remember_state
 715              		.cfi_restore 14
 716              		.cfi_restore 7
 717              		.cfi_restore 6
 718              		.cfi_restore 5
 719              		.cfi_restore 4
 720              		.cfi_restore 3
 721              		.cfi_def_cfa_offset 16
 722              	.LVL62:
 723 0176 04B0     		add	sp, sp, #16
 724              	.LCFI9:
ARM GAS  C:\Users\Patryk\AppData\Local\Temp\cc5QRopf.s 			page 37


 725              		.cfi_def_cfa_offset 0
 726 0178 7047     		bx	lr
 727              	.LVL63:
 728              	.L71:
 729              	.LCFI10:
 730              		.cfi_restore_state
 350:Drivers/STM32F7xx_HAL_Driver/Src/stm32f7xx_ll_usb.c ****                            USB_OTG_DTHRCTL_RXTHRLEN_6;
 731              		.loc 1 350 0
 732 017a 074A     		ldr	r2, .L73+4
 733 017c 3263     		str	r2, [r6, #48]
 353:Drivers/STM32F7xx_HAL_Driver/Src/stm32f7xx_ll_usb.c ****                             USB_OTG_DTHRCTL_ISOTHREN |
 734              		.loc 1 353 0
 735 017e 316B     		ldr	r1, [r6, #48]
 736 0180 064A     		ldr	r2, .L73+8
 737 0182 0A43     		orrs	r2, r2, r1
 738 0184 3263     		str	r2, [r6, #48]
 739 0186 DDE7     		b	.L60
 740              	.L72:
 383:Drivers/STM32F7xx_HAL_Driver/Src/stm32f7xx_ll_usb.c ****   }
 741              		.loc 1 383 0
 742 0188 A269     		ldr	r2, [r4, #24]
 743 018a 054B     		ldr	r3, .L73+12
 744 018c 1343     		orrs	r3, r3, r2
 745 018e A361     		str	r3, [r4, #24]
 746 0190 EEE7     		b	.L63
 747              	.L74:
 748 0192 00BF     		.align	2
 749              	.L73:
 750 0194 00383C80 		.word	-2143537152
 751 0198 00018000 		.word	8388864
 752 019c 03000100 		.word	65539
 753 01a0 04000040 		.word	1073741828
 754              		.cfi_endproc
 755              	.LFE142:
 757              		.section	.text.USB_GetDevSpeed,"ax",%progbits
 758              		.align	1
 759              		.global	USB_GetDevSpeed
 760              		.syntax unified
 761              		.thumb
 762              		.thumb_func
 763              		.fpu fpv5-sp-d16
 765              	USB_GetDevSpeed:
 766              	.LFB146:
 468:Drivers/STM32F7xx_HAL_Driver/Src/stm32f7xx_ll_usb.c ****   uint32_t USBx_BASE = (uint32_t)USBx;
 767              		.loc 1 468 0
 768              		.cfi_startproc
 769              		@ args = 0, pretend = 0, frame = 0
 770              		@ frame_needed = 0, uses_anonymous_args = 0
 771              		@ link register save eliminated.
 772              	.LVL64:
 471:Drivers/STM32F7xx_HAL_Driver/Src/stm32f7xx_ll_usb.c **** 
 773              		.loc 1 471 0
 774 0000 D0F80838 		ldr	r3, [r0, #2056]
 775              	.LVL65:
 473:Drivers/STM32F7xx_HAL_Driver/Src/stm32f7xx_ll_usb.c ****   {
 776              		.loc 1 473 0
 777 0004 13F00603 		ands	r3, r3, #6
ARM GAS  C:\Users\Patryk\AppData\Local\Temp\cc5QRopf.s 			page 38


 778              	.LVL66:
 779 0008 09D0     		beq	.L77
 477:Drivers/STM32F7xx_HAL_Driver/Src/stm32f7xx_ll_usb.c ****       (DevEnumSpeed == DSTS_ENUMSPD_FS_PHY_48MHZ))
 780              		.loc 1 477 0
 781 000a 062B     		cmp	r3, #6
 782 000c 18BF     		it	ne
 783 000e 022B     		cmpne	r3, #2
 784 0010 07D0     		beq	.L78
 482:Drivers/STM32F7xx_HAL_Driver/Src/stm32f7xx_ll_usb.c ****   {
 785              		.loc 1 482 0
 786 0012 042B     		cmp	r3, #4
 787 0014 01D0     		beq	.L80
 488:Drivers/STM32F7xx_HAL_Driver/Src/stm32f7xx_ll_usb.c ****   }
 788              		.loc 1 488 0
 789 0016 0020     		movs	r0, #0
 790              	.LVL67:
 492:Drivers/STM32F7xx_HAL_Driver/Src/stm32f7xx_ll_usb.c **** 
 791              		.loc 1 492 0
 792 0018 7047     		bx	lr
 793              	.LVL68:
 794              	.L80:
 484:Drivers/STM32F7xx_HAL_Driver/Src/stm32f7xx_ll_usb.c ****   }
 795              		.loc 1 484 0
 796 001a 0220     		movs	r0, #2
 797              	.LVL69:
 798 001c 7047     		bx	lr
 799              	.LVL70:
 800              	.L77:
 475:Drivers/STM32F7xx_HAL_Driver/Src/stm32f7xx_ll_usb.c ****   }
 801              		.loc 1 475 0
 802 001e 0020     		movs	r0, #0
 803              	.LVL71:
 804 0020 7047     		bx	lr
 805              	.LVL72:
 806              	.L78:
 480:Drivers/STM32F7xx_HAL_Driver/Src/stm32f7xx_ll_usb.c ****   }
 807              		.loc 1 480 0
 808 0022 0320     		movs	r0, #3
 809              	.LVL73:
 810 0024 7047     		bx	lr
 811              		.cfi_endproc
 812              	.LFE146:
 814              		.section	.text.USB_ActivateEndpoint,"ax",%progbits
 815              		.align	1
 816              		.global	USB_ActivateEndpoint
 817              		.syntax unified
 818              		.thumb
 819              		.thumb_func
 820              		.fpu fpv5-sp-d16
 822              	USB_ActivateEndpoint:
 823              	.LFB147:
 501:Drivers/STM32F7xx_HAL_Driver/Src/stm32f7xx_ll_usb.c ****   uint32_t USBx_BASE = (uint32_t)USBx;
 824              		.loc 1 501 0
 825              		.cfi_startproc
 826              		@ args = 0, pretend = 0, frame = 0
 827              		@ frame_needed = 0, uses_anonymous_args = 0
 828              		@ link register save eliminated.
ARM GAS  C:\Users\Patryk\AppData\Local\Temp\cc5QRopf.s 			page 39


 829              	.LVL74:
 830 0000 70B4     		push	{r4, r5, r6}
 831              	.LCFI11:
 832              		.cfi_def_cfa_offset 12
 833              		.cfi_offset 4, -12
 834              		.cfi_offset 5, -8
 835              		.cfi_offset 6, -4
 836              	.LVL75:
 503:Drivers/STM32F7xx_HAL_Driver/Src/stm32f7xx_ll_usb.c **** 
 837              		.loc 1 503 0
 838 0002 0B78     		ldrb	r3, [r1]	@ zero_extendqisi2
 839              	.LVL76:
 505:Drivers/STM32F7xx_HAL_Driver/Src/stm32f7xx_ll_usb.c ****   {
 840              		.loc 1 505 0
 841 0004 4A78     		ldrb	r2, [r1, #1]	@ zero_extendqisi2
 842 0006 012A     		cmp	r2, #1
 843 0008 20D0     		beq	.L85
 519:Drivers/STM32F7xx_HAL_Driver/Src/stm32f7xx_ll_usb.c **** 
 844              		.loc 1 519 0
 845 000a D0F81C28 		ldr	r2, [r0, #2076]
 846 000e 03F00F06 		and	r6, r3, #15
 847 0012 0124     		movs	r4, #1
 848 0014 B440     		lsls	r4, r4, r6
 849 0016 42EA0442 		orr	r2, r2, r4, lsl #16
 850 001a C0F81C28 		str	r2, [r0, #2076]
 521:Drivers/STM32F7xx_HAL_Driver/Src/stm32f7xx_ll_usb.c ****     {
 851              		.loc 1 521 0
 852 001e 00EB4310 		add	r0, r0, r3, lsl #5
 853              	.LVL77:
 854 0022 D0F8003B 		ldr	r3, [r0, #2816]
 855              	.LVL78:
 856 0026 13F4004F 		tst	r3, #32768
 857 002a 0CD1     		bne	.L83
 523:Drivers/STM32F7xx_HAL_Driver/Src/stm32f7xx_ll_usb.c ****                                     ((uint32_t)ep->type << 18) |
 858              		.loc 1 523 0
 859 002c D0F8002B 		ldr	r2, [r0, #2816]
 860 0030 8B68     		ldr	r3, [r1, #8]
 861 0032 C3F30A03 		ubfx	r3, r3, #0, #11
 524:Drivers/STM32F7xx_HAL_Driver/Src/stm32f7xx_ll_usb.c ****                                      USB_OTG_DIEPCTL_SD0PID_SEVNFRM |
 862              		.loc 1 524 0
 863 0036 C978     		ldrb	r1, [r1, #3]	@ zero_extendqisi2
 864              	.LVL79:
 523:Drivers/STM32F7xx_HAL_Driver/Src/stm32f7xx_ll_usb.c ****                                     ((uint32_t)ep->type << 18) |
 865              		.loc 1 523 0
 866 0038 43EA8143 		orr	r3, r3, r1, lsl #18
 867 003c 1343     		orrs	r3, r3, r2
 868 003e 134A     		ldr	r2, .L86
 869 0040 1A43     		orrs	r2, r2, r3
 870 0042 C0F8002B 		str	r2, [r0, #2816]
 871              	.L83:
 530:Drivers/STM32F7xx_HAL_Driver/Src/stm32f7xx_ll_usb.c **** 
 872              		.loc 1 530 0
 873 0046 0020     		movs	r0, #0
 874 0048 70BC     		pop	{r4, r5, r6}
 875              	.LCFI12:
 876              		.cfi_remember_state
 877              		.cfi_restore 6
ARM GAS  C:\Users\Patryk\AppData\Local\Temp\cc5QRopf.s 			page 40


 878              		.cfi_restore 5
 879              		.cfi_restore 4
 880              		.cfi_def_cfa_offset 0
 881 004a 7047     		bx	lr
 882              	.LVL80:
 883              	.L85:
 884              	.LCFI13:
 885              		.cfi_restore_state
 507:Drivers/STM32F7xx_HAL_Driver/Src/stm32f7xx_ll_usb.c **** 
 886              		.loc 1 507 0
 887 004c D0F81C48 		ldr	r4, [r0, #2076]
 888 0050 03F00F06 		and	r6, r3, #15
 889 0054 B240     		lsls	r2, r2, r6
 890 0056 92B2     		uxth	r2, r2
 891 0058 2243     		orrs	r2, r2, r4
 892 005a C0F81C28 		str	r2, [r0, #2076]
 509:Drivers/STM32F7xx_HAL_Driver/Src/stm32f7xx_ll_usb.c ****     {
 893              		.loc 1 509 0
 894 005e 00EB4310 		add	r0, r0, r3, lsl #5
 895              	.LVL81:
 896 0062 D0F80029 		ldr	r2, [r0, #2304]
 897 0066 12F4004F 		tst	r2, #32768
 898 006a ECD1     		bne	.L83
 511:Drivers/STM32F7xx_HAL_Driver/Src/stm32f7xx_ll_usb.c ****                                     ((uint32_t)ep->type << 18) | (epnum << 22) |
 899              		.loc 1 511 0
 900 006c D0F80049 		ldr	r4, [r0, #2304]
 901 0070 8A68     		ldr	r2, [r1, #8]
 902 0072 C2F30A02 		ubfx	r2, r2, #0, #11
 512:Drivers/STM32F7xx_HAL_Driver/Src/stm32f7xx_ll_usb.c ****                                      USB_OTG_DIEPCTL_SD0PID_SEVNFRM |
 903              		.loc 1 512 0
 904 0076 C978     		ldrb	r1, [r1, #3]	@ zero_extendqisi2
 905              	.LVL82:
 511:Drivers/STM32F7xx_HAL_Driver/Src/stm32f7xx_ll_usb.c ****                                     ((uint32_t)ep->type << 18) | (epnum << 22) |
 906              		.loc 1 511 0
 907 0078 42EA8142 		orr	r2, r2, r1, lsl #18
 512:Drivers/STM32F7xx_HAL_Driver/Src/stm32f7xx_ll_usb.c ****                                      USB_OTG_DIEPCTL_SD0PID_SEVNFRM |
 908              		.loc 1 512 0
 909 007c 42EA8353 		orr	r3, r2, r3, lsl #22
 910              	.LVL83:
 511:Drivers/STM32F7xx_HAL_Driver/Src/stm32f7xx_ll_usb.c ****                                     ((uint32_t)ep->type << 18) | (epnum << 22) |
 911              		.loc 1 511 0
 912 0080 2343     		orrs	r3, r3, r4
 913 0082 024A     		ldr	r2, .L86
 914 0084 1A43     		orrs	r2, r2, r3
 915 0086 C0F80029 		str	r2, [r0, #2304]
 916 008a DCE7     		b	.L83
 917              	.L87:
 918              		.align	2
 919              	.L86:
 920 008c 00800010 		.word	268468224
 921              		.cfi_endproc
 922              	.LFE147:
 924              		.section	.text.USB_ActivateDedicatedEndpoint,"ax",%progbits
 925              		.align	1
 926              		.global	USB_ActivateDedicatedEndpoint
 927              		.syntax unified
 928              		.thumb
ARM GAS  C:\Users\Patryk\AppData\Local\Temp\cc5QRopf.s 			page 41


 929              		.thumb_func
 930              		.fpu fpv5-sp-d16
 932              	USB_ActivateDedicatedEndpoint:
 933              	.LFB148:
 539:Drivers/STM32F7xx_HAL_Driver/Src/stm32f7xx_ll_usb.c ****   uint32_t USBx_BASE = (uint32_t)USBx;
 934              		.loc 1 539 0
 935              		.cfi_startproc
 936              		@ args = 0, pretend = 0, frame = 0
 937              		@ frame_needed = 0, uses_anonymous_args = 0
 938              		@ link register save eliminated.
 939              	.LVL84:
 940 0000 70B4     		push	{r4, r5, r6}
 941              	.LCFI14:
 942              		.cfi_def_cfa_offset 12
 943              		.cfi_offset 4, -12
 944              		.cfi_offset 5, -8
 945              		.cfi_offset 6, -4
 946              	.LVL85:
 541:Drivers/STM32F7xx_HAL_Driver/Src/stm32f7xx_ll_usb.c **** 
 947              		.loc 1 541 0
 948 0002 0A78     		ldrb	r2, [r1]	@ zero_extendqisi2
 949              	.LVL86:
 544:Drivers/STM32F7xx_HAL_Driver/Src/stm32f7xx_ll_usb.c ****   {
 950              		.loc 1 544 0
 951 0004 4B78     		ldrb	r3, [r1, #1]	@ zero_extendqisi2
 952 0006 012B     		cmp	r3, #1
 953 0008 23D0     		beq	.L94
 558:Drivers/STM32F7xx_HAL_Driver/Src/stm32f7xx_ll_usb.c ****     {
 954              		.loc 1 558 0
 955 000a 00EB4214 		add	r4, r0, r2, lsl #5
 956 000e D4F8003B 		ldr	r3, [r4, #2816]
 957 0012 13F4004F 		tst	r3, #32768
 958 0016 0ED1     		bne	.L92
 560:Drivers/STM32F7xx_HAL_Driver/Src/stm32f7xx_ll_usb.c ****                                     ((uint32_t)ep->type << 18) | (epnum << 22) |
 959              		.loc 1 560 0
 960 0018 D4F8005B 		ldr	r5, [r4, #2816]
 961 001c 8B68     		ldr	r3, [r1, #8]
 962 001e C3F30A03 		ubfx	r3, r3, #0, #11
 561:Drivers/STM32F7xx_HAL_Driver/Src/stm32f7xx_ll_usb.c ****                                      USB_OTG_DOEPCTL_USBAEP;
 963              		.loc 1 561 0
 964 0022 CE78     		ldrb	r6, [r1, #3]	@ zero_extendqisi2
 560:Drivers/STM32F7xx_HAL_Driver/Src/stm32f7xx_ll_usb.c ****                                     ((uint32_t)ep->type << 18) | (epnum << 22) |
 965              		.loc 1 560 0
 966 0024 43EA8643 		orr	r3, r3, r6, lsl #18
 561:Drivers/STM32F7xx_HAL_Driver/Src/stm32f7xx_ll_usb.c ****                                      USB_OTG_DOEPCTL_USBAEP;
 967              		.loc 1 561 0
 968 0028 43EA8253 		orr	r3, r3, r2, lsl #22
 560:Drivers/STM32F7xx_HAL_Driver/Src/stm32f7xx_ll_usb.c ****                                     ((uint32_t)ep->type << 18) | (epnum << 22) |
 969              		.loc 1 560 0
 970 002c 2B43     		orrs	r3, r3, r5
 971 002e 43F40043 		orr	r3, r3, #32768
 972 0032 C4F8003B 		str	r3, [r4, #2816]
 973              	.L92:
 565:Drivers/STM32F7xx_HAL_Driver/Src/stm32f7xx_ll_usb.c ****   }
 974              		.loc 1 565 0
 975 0036 D0F83C38 		ldr	r3, [r0, #2108]
 976 003a 0A78     		ldrb	r2, [r1]	@ zero_extendqisi2
ARM GAS  C:\Users\Patryk\AppData\Local\Temp\cc5QRopf.s 			page 42


 977              	.LVL87:
 978 003c 02F00F01 		and	r1, r2, #15
 979              	.LVL88:
 980 0040 0122     		movs	r2, #1
 981 0042 8A40     		lsls	r2, r2, r1
 982 0044 43EA0243 		orr	r3, r3, r2, lsl #16
 983 0048 C0F83C38 		str	r3, [r0, #2108]
 984              	.L91:
 569:Drivers/STM32F7xx_HAL_Driver/Src/stm32f7xx_ll_usb.c **** 
 985              		.loc 1 569 0
 986 004c 0020     		movs	r0, #0
 987              	.LVL89:
 988 004e 70BC     		pop	{r4, r5, r6}
 989              	.LCFI15:
 990              		.cfi_remember_state
 991              		.cfi_restore 6
 992              		.cfi_restore 5
 993              		.cfi_restore 4
 994              		.cfi_def_cfa_offset 0
 995 0050 7047     		bx	lr
 996              	.LVL90:
 997              	.L94:
 998              	.LCFI16:
 999              		.cfi_restore_state
 546:Drivers/STM32F7xx_HAL_Driver/Src/stm32f7xx_ll_usb.c ****     {
 1000              		.loc 1 546 0
 1001 0052 00EB4215 		add	r5, r0, r2, lsl #5
 1002 0056 D5F80039 		ldr	r3, [r5, #2304]
 1003 005a 13F4004F 		tst	r3, #32768
 1004 005e 0ED1     		bne	.L90
 548:Drivers/STM32F7xx_HAL_Driver/Src/stm32f7xx_ll_usb.c ****                                    ((uint32_t)ep->type << 18) | (epnum << 22) |
 1005              		.loc 1 548 0
 1006 0060 D5F80069 		ldr	r6, [r5, #2304]
 1007 0064 8C68     		ldr	r4, [r1, #8]
 1008 0066 C4F30A03 		ubfx	r3, r4, #0, #11
 549:Drivers/STM32F7xx_HAL_Driver/Src/stm32f7xx_ll_usb.c ****                                     USB_OTG_DIEPCTL_SD0PID_SEVNFRM |
 1009              		.loc 1 549 0
 1010 006a CC78     		ldrb	r4, [r1, #3]	@ zero_extendqisi2
 548:Drivers/STM32F7xx_HAL_Driver/Src/stm32f7xx_ll_usb.c ****                                    ((uint32_t)ep->type << 18) | (epnum << 22) |
 1011              		.loc 1 548 0
 1012 006c 43EA8443 		orr	r3, r3, r4, lsl #18
 549:Drivers/STM32F7xx_HAL_Driver/Src/stm32f7xx_ll_usb.c ****                                     USB_OTG_DIEPCTL_SD0PID_SEVNFRM |
 1013              		.loc 1 549 0
 1014 0070 43EA8253 		orr	r3, r3, r2, lsl #22
 548:Drivers/STM32F7xx_HAL_Driver/Src/stm32f7xx_ll_usb.c ****                                    ((uint32_t)ep->type << 18) | (epnum << 22) |
 1015              		.loc 1 548 0
 1016 0074 3343     		orrs	r3, r3, r6
 1017 0076 084C     		ldr	r4, .L95
 1018 0078 1C43     		orrs	r4, r4, r3
 1019 007a C5F80049 		str	r4, [r5, #2304]
 1020              	.L90:
 554:Drivers/STM32F7xx_HAL_Driver/Src/stm32f7xx_ll_usb.c ****   }
 1021              		.loc 1 554 0
 1022 007e D0F83C28 		ldr	r2, [r0, #2108]
 1023              	.LVL91:
 1024 0082 0B78     		ldrb	r3, [r1]	@ zero_extendqisi2
 1025 0084 03F00F01 		and	r1, r3, #15
ARM GAS  C:\Users\Patryk\AppData\Local\Temp\cc5QRopf.s 			page 43


 1026              	.LVL92:
 1027 0088 0123     		movs	r3, #1
 1028 008a 8B40     		lsls	r3, r3, r1
 1029 008c 9BB2     		uxth	r3, r3
 1030 008e 1343     		orrs	r3, r3, r2
 1031 0090 C0F83C38 		str	r3, [r0, #2108]
 1032 0094 DAE7     		b	.L91
 1033              	.L96:
 1034 0096 00BF     		.align	2
 1035              	.L95:
 1036 0098 00800010 		.word	268468224
 1037              		.cfi_endproc
 1038              	.LFE148:
 1040              		.section	.text.USB_DeactivateEndpoint,"ax",%progbits
 1041              		.align	1
 1042              		.global	USB_DeactivateEndpoint
 1043              		.syntax unified
 1044              		.thumb
 1045              		.thumb_func
 1046              		.fpu fpv5-sp-d16
 1048              	USB_DeactivateEndpoint:
 1049              	.LFB149:
 578:Drivers/STM32F7xx_HAL_Driver/Src/stm32f7xx_ll_usb.c ****   uint32_t USBx_BASE = (uint32_t)USBx;
 1050              		.loc 1 578 0
 1051              		.cfi_startproc
 1052              		@ args = 0, pretend = 0, frame = 0
 1053              		@ frame_needed = 0, uses_anonymous_args = 0
 1054              		@ link register save eliminated.
 1055              	.LVL93:
 1056 0000 70B4     		push	{r4, r5, r6}
 1057              	.LCFI17:
 1058              		.cfi_def_cfa_offset 12
 1059              		.cfi_offset 4, -12
 1060              		.cfi_offset 5, -8
 1061              		.cfi_offset 6, -4
 1062              	.LVL94:
 580:Drivers/STM32F7xx_HAL_Driver/Src/stm32f7xx_ll_usb.c **** 
 1063              		.loc 1 580 0
 1064 0002 0B78     		ldrb	r3, [r1]	@ zero_extendqisi2
 1065              	.LVL95:
 583:Drivers/STM32F7xx_HAL_Driver/Src/stm32f7xx_ll_usb.c ****   {
 1066              		.loc 1 583 0
 1067 0004 4A78     		ldrb	r2, [r1, #1]	@ zero_extendqisi2
 1068 0006 012A     		cmp	r2, #1
 1069 0008 1FD0     		beq	.L101
 595:Drivers/STM32F7xx_HAL_Driver/Src/stm32f7xx_ll_usb.c ****     USBx_DEVICE->DAINTMSK &= ~(USB_OTG_DAINTMSK_OEPM & ((uint32_t)(1UL << (ep->num & 0xFU)) << 16))
 1070              		.loc 1 595 0
 1071 000a D0F83C58 		ldr	r5, [r0, #2108]
 1072 000e 03F00F06 		and	r6, r3, #15
 1073 0012 0124     		movs	r4, #1
 1074 0014 04FA06F6 		lsl	r6, r4, r6
 1075 0018 25EA0645 		bic	r5, r5, r6, lsl #16
 1076 001c C0F83C58 		str	r5, [r0, #2108]
 596:Drivers/STM32F7xx_HAL_Driver/Src/stm32f7xx_ll_usb.c ****     USBx_OUTEP(epnum)->DOEPCTL &= ~(USB_OTG_DOEPCTL_USBAEP |
 1077              		.loc 1 596 0
 1078 0020 D0F81C58 		ldr	r5, [r0, #2076]
 1079 0024 0978     		ldrb	r1, [r1]	@ zero_extendqisi2
ARM GAS  C:\Users\Patryk\AppData\Local\Temp\cc5QRopf.s 			page 44


 1080              	.LVL96:
 1081 0026 01F00F01 		and	r1, r1, #15
 1082 002a 8C40     		lsls	r4, r4, r1
 1083 002c 25EA0444 		bic	r4, r5, r4, lsl #16
 1084 0030 C0F81C48 		str	r4, [r0, #2076]
 597:Drivers/STM32F7xx_HAL_Driver/Src/stm32f7xx_ll_usb.c ****                                     USB_OTG_DOEPCTL_MPSIZ |
 1085              		.loc 1 597 0
 1086 0034 00EB4310 		add	r0, r0, r3, lsl #5
 1087              	.LVL97:
 1088 0038 D0F8002B 		ldr	r2, [r0, #2816]
 1089 003c 124B     		ldr	r3, .L102
 1090              	.LVL98:
 1091 003e 1340     		ands	r3, r3, r2
 1092 0040 C0F8003B 		str	r3, [r0, #2816]
 1093              	.L99:
 604:Drivers/STM32F7xx_HAL_Driver/Src/stm32f7xx_ll_usb.c **** 
 1094              		.loc 1 604 0
 1095 0044 0020     		movs	r0, #0
 1096 0046 70BC     		pop	{r4, r5, r6}
 1097              	.LCFI18:
 1098              		.cfi_remember_state
 1099              		.cfi_restore 6
 1100              		.cfi_restore 5
 1101              		.cfi_restore 4
 1102              		.cfi_def_cfa_offset 0
 1103 0048 7047     		bx	lr
 1104              	.LVL99:
 1105              	.L101:
 1106              	.LCFI19:
 1107              		.cfi_restore_state
 585:Drivers/STM32F7xx_HAL_Driver/Src/stm32f7xx_ll_usb.c ****     USBx_DEVICE->DAINTMSK &= ~(USB_OTG_DAINTMSK_IEPM & (uint32_t)(1UL << (ep->num & 0xFU)));
 1108              		.loc 1 585 0
 1109 004a D0F83C68 		ldr	r6, [r0, #2108]
 1110 004e 03F00F04 		and	r4, r3, #15
 1111 0052 02FA04F4 		lsl	r4, r2, r4
 1112 0056 A4B2     		uxth	r4, r4
 1113 0058 26EA0404 		bic	r4, r6, r4
 1114 005c C0F83C48 		str	r4, [r0, #2108]
 586:Drivers/STM32F7xx_HAL_Driver/Src/stm32f7xx_ll_usb.c ****     USBx_INEP(epnum)->DIEPCTL &= ~(USB_OTG_DIEPCTL_USBAEP |
 1115              		.loc 1 586 0
 1116 0060 D0F81C48 		ldr	r4, [r0, #2076]
 1117 0064 0978     		ldrb	r1, [r1]	@ zero_extendqisi2
 1118              	.LVL100:
 1119 0066 01F00F01 		and	r1, r1, #15
 1120 006a 8A40     		lsls	r2, r2, r1
 1121 006c 92B2     		uxth	r2, r2
 1122 006e 24EA0202 		bic	r2, r4, r2
 1123 0072 C0F81C28 		str	r2, [r0, #2076]
 587:Drivers/STM32F7xx_HAL_Driver/Src/stm32f7xx_ll_usb.c ****                                    USB_OTG_DIEPCTL_MPSIZ |
 1124              		.loc 1 587 0
 1125 0076 00EB4310 		add	r0, r0, r3, lsl #5
 1126              	.LVL101:
 1127 007a D0F80039 		ldr	r3, [r0, #2304]
 1128              	.LVL102:
 1129 007e 034A     		ldr	r2, .L102+4
 1130 0080 1A40     		ands	r2, r2, r3
 1131 0082 C0F80029 		str	r2, [r0, #2304]
ARM GAS  C:\Users\Patryk\AppData\Local\Temp\cc5QRopf.s 			page 45


 1132 0086 DDE7     		b	.L99
 1133              	.L103:
 1134              		.align	2
 1135              	.L102:
 1136 0088 0078F3EF 		.word	-269256704
 1137 008c 007833EC 		.word	-332171264
 1138              		.cfi_endproc
 1139              	.LFE149:
 1141              		.section	.text.USB_DeactivateDedicatedEndpoint,"ax",%progbits
 1142              		.align	1
 1143              		.global	USB_DeactivateDedicatedEndpoint
 1144              		.syntax unified
 1145              		.thumb
 1146              		.thumb_func
 1147              		.fpu fpv5-sp-d16
 1149              	USB_DeactivateDedicatedEndpoint:
 1150              	.LFB150:
 613:Drivers/STM32F7xx_HAL_Driver/Src/stm32f7xx_ll_usb.c ****   uint32_t USBx_BASE = (uint32_t)USBx;
 1151              		.loc 1 613 0
 1152              		.cfi_startproc
 1153              		@ args = 0, pretend = 0, frame = 0
 1154              		@ frame_needed = 0, uses_anonymous_args = 0
 1155              		@ link register save eliminated.
 1156              	.LVL103:
 615:Drivers/STM32F7xx_HAL_Driver/Src/stm32f7xx_ll_usb.c **** 
 1157              		.loc 1 615 0
 1158 0000 0B78     		ldrb	r3, [r1]	@ zero_extendqisi2
 1159              	.LVL104:
 618:Drivers/STM32F7xx_HAL_Driver/Src/stm32f7xx_ll_usb.c ****   {
 1160              		.loc 1 618 0
 1161 0002 4A78     		ldrb	r2, [r1, #1]	@ zero_extendqisi2
 1162 0004 012A     		cmp	r2, #1
 1163 0006 14D0     		beq	.L107
 625:Drivers/STM32F7xx_HAL_Driver/Src/stm32f7xx_ll_usb.c ****      USBx_DEVICE->DAINTMSK &= ~(USB_OTG_DAINTMSK_OEPM & ((uint32_t)(1UL << (ep->num & 0xFU)) << 16)
 1164              		.loc 1 625 0
 1165 0008 00EB4313 		add	r3, r0, r3, lsl #5
 1166              	.LVL105:
 1167 000c D3F8002B 		ldr	r2, [r3, #2816]
 1168 0010 22F40042 		bic	r2, r2, #32768
 1169 0014 C3F8002B 		str	r2, [r3, #2816]
 1170              	.LVL106:
 626:Drivers/STM32F7xx_HAL_Driver/Src/stm32f7xx_ll_usb.c ****   }
 1171              		.loc 1 626 0
 1172 0018 D0F81C38 		ldr	r3, [r0, #2076]
 1173 001c 0A78     		ldrb	r2, [r1]	@ zero_extendqisi2
 1174 001e 02F00F01 		and	r1, r2, #15
 1175              	.LVL107:
 1176 0022 0122     		movs	r2, #1
 1177 0024 8A40     		lsls	r2, r2, r1
 1178 0026 23EA0243 		bic	r3, r3, r2, lsl #16
 1179 002a C0F81C38 		str	r3, [r0, #2076]
 1180              	.L106:
 630:Drivers/STM32F7xx_HAL_Driver/Src/stm32f7xx_ll_usb.c **** 
 1181              		.loc 1 630 0
 1182 002e 0020     		movs	r0, #0
 1183              	.LVL108:
 1184 0030 7047     		bx	lr
ARM GAS  C:\Users\Patryk\AppData\Local\Temp\cc5QRopf.s 			page 46


 1185              	.LVL109:
 1186              	.L107:
 620:Drivers/STM32F7xx_HAL_Driver/Src/stm32f7xx_ll_usb.c ****    USBx_DEVICE->DAINTMSK &= ~(USB_OTG_DAINTMSK_IEPM & (uint32_t)(1UL << (ep->num & 0xFU)));
 1187              		.loc 1 620 0
 1188 0032 00EB4313 		add	r3, r0, r3, lsl #5
 1189              	.LVL110:
 1190 0036 D3F80029 		ldr	r2, [r3, #2304]
 1191 003a 22F40042 		bic	r2, r2, #32768
 1192 003e C3F80029 		str	r2, [r3, #2304]
 1193              	.LVL111:
 621:Drivers/STM32F7xx_HAL_Driver/Src/stm32f7xx_ll_usb.c ****   }
 1194              		.loc 1 621 0
 1195 0042 D0F81C28 		ldr	r2, [r0, #2076]
 1196 0046 0B78     		ldrb	r3, [r1]	@ zero_extendqisi2
 1197 0048 03F00F01 		and	r1, r3, #15
 1198              	.LVL112:
 1199 004c 0123     		movs	r3, #1
 1200 004e 8B40     		lsls	r3, r3, r1
 1201 0050 9BB2     		uxth	r3, r3
 1202 0052 22EA0303 		bic	r3, r2, r3
 1203 0056 C0F81C38 		str	r3, [r0, #2076]
 1204 005a E8E7     		b	.L106
 1205              		.cfi_endproc
 1206              	.LFE150:
 1208              		.section	.text.USB_EP0StartXfer,"ax",%progbits
 1209              		.align	1
 1210              		.global	USB_EP0StartXfer
 1211              		.syntax unified
 1212              		.thumb
 1213              		.thumb_func
 1214              		.fpu fpv5-sp-d16
 1216              	USB_EP0StartXfer:
 1217              	.LFB152:
 768:Drivers/STM32F7xx_HAL_Driver/Src/stm32f7xx_ll_usb.c ****   uint32_t USBx_BASE = (uint32_t)USBx;
 1218              		.loc 1 768 0
 1219              		.cfi_startproc
 1220              		@ args = 0, pretend = 0, frame = 0
 1221              		@ frame_needed = 0, uses_anonymous_args = 0
 1222              		@ link register save eliminated.
 1223              	.LVL113:
 1224 0000 70B4     		push	{r4, r5, r6}
 1225              	.LCFI20:
 1226              		.cfi_def_cfa_offset 12
 1227              		.cfi_offset 4, -12
 1228              		.cfi_offset 5, -8
 1229              		.cfi_offset 6, -4
 1230              	.LVL114:
 770:Drivers/STM32F7xx_HAL_Driver/Src/stm32f7xx_ll_usb.c **** 
 1231              		.loc 1 770 0
 1232 0002 0B78     		ldrb	r3, [r1]	@ zero_extendqisi2
 1233              	.LVL115:
 773:Drivers/STM32F7xx_HAL_Driver/Src/stm32f7xx_ll_usb.c ****   {
 1234              		.loc 1 773 0
 1235 0004 4C78     		ldrb	r4, [r1, #1]	@ zero_extendqisi2
 1236 0006 012C     		cmp	r4, #1
 1237 0008 24D0     		beq	.L119
 822:Drivers/STM32F7xx_HAL_Driver/Src/stm32f7xx_ll_usb.c ****     USBx_OUTEP(epnum)->DOEPTSIZ &= ~(USB_OTG_DOEPTSIZ_PKTCNT);
ARM GAS  C:\Users\Patryk\AppData\Local\Temp\cc5QRopf.s 			page 47


 1238              		.loc 1 822 0
 1239 000a 00EB4310 		add	r0, r0, r3, lsl #5
 1240              	.LVL116:
 1241 000e 00F53063 		add	r3, r0, #2816
 1242              	.LVL117:
 1243 0012 1D69     		ldr	r5, [r3, #16]
 1244 0014 384C     		ldr	r4, .L122
 1245 0016 2C40     		ands	r4, r4, r5
 1246 0018 1C61     		str	r4, [r3, #16]
 1247              	.LVL118:
 823:Drivers/STM32F7xx_HAL_Driver/Src/stm32f7xx_ll_usb.c **** 
 1248              		.loc 1 823 0
 1249 001a 1D69     		ldr	r5, [r3, #16]
 1250 001c 374C     		ldr	r4, .L122+4
 1251 001e 2C40     		ands	r4, r4, r5
 1252 0020 1C61     		str	r4, [r3, #16]
 825:Drivers/STM32F7xx_HAL_Driver/Src/stm32f7xx_ll_usb.c ****     {
 1253              		.loc 1 825 0
 1254 0022 4C69     		ldr	r4, [r1, #20]
 1255 0024 0CB1     		cbz	r4, .L116
 827:Drivers/STM32F7xx_HAL_Driver/Src/stm32f7xx_ll_usb.c ****     }
 1256              		.loc 1 827 0
 1257 0026 8C68     		ldr	r4, [r1, #8]
 1258 0028 4C61     		str	r4, [r1, #20]
 1259              	.L116:
 830:Drivers/STM32F7xx_HAL_Driver/Src/stm32f7xx_ll_usb.c ****     USBx_OUTEP(epnum)->DOEPTSIZ |= (USB_OTG_DOEPTSIZ_XFRSIZ & (ep->maxpacket));
 1260              		.loc 1 830 0
 1261 002a 1C69     		ldr	r4, [r3, #16]
 1262 002c 44F40024 		orr	r4, r4, #524288
 1263 0030 1C61     		str	r4, [r3, #16]
 831:Drivers/STM32F7xx_HAL_Driver/Src/stm32f7xx_ll_usb.c **** 
 1264              		.loc 1 831 0
 1265 0032 1C69     		ldr	r4, [r3, #16]
 1266 0034 8D68     		ldr	r5, [r1, #8]
 1267 0036 C5F31205 		ubfx	r5, r5, #0, #19
 1268 003a 2C43     		orrs	r4, r4, r5
 1269 003c 1C61     		str	r4, [r3, #16]
 833:Drivers/STM32F7xx_HAL_Driver/Src/stm32f7xx_ll_usb.c ****     {
 1270              		.loc 1 833 0
 1271 003e 012A     		cmp	r2, #1
 1272 0040 57D0     		beq	.L120
 1273              	.LVL119:
 1274              	.L117:
 839:Drivers/STM32F7xx_HAL_Driver/Src/stm32f7xx_ll_usb.c ****   }
 1275              		.loc 1 839 0
 1276 0042 D0F8003B 		ldr	r3, [r0, #2816]
 1277 0046 43F00443 		orr	r3, r3, #-2080374784
 1278 004a C0F8003B 		str	r3, [r0, #2816]
 1279              	.LVL120:
 1280              	.L115:
 843:Drivers/STM32F7xx_HAL_Driver/Src/stm32f7xx_ll_usb.c **** 
 1281              		.loc 1 843 0
 1282 004e 0020     		movs	r0, #0
 1283 0050 70BC     		pop	{r4, r5, r6}
 1284              	.LCFI21:
 1285              		.cfi_remember_state
 1286              		.cfi_restore 6
ARM GAS  C:\Users\Patryk\AppData\Local\Temp\cc5QRopf.s 			page 48


 1287              		.cfi_restore 5
 1288              		.cfi_restore 4
 1289              		.cfi_def_cfa_offset 0
 1290 0052 7047     		bx	lr
 1291              	.LVL121:
 1292              	.L119:
 1293              	.LCFI22:
 1294              		.cfi_restore_state
 776:Drivers/STM32F7xx_HAL_Driver/Src/stm32f7xx_ll_usb.c ****     {
 1295              		.loc 1 776 0
 1296 0054 4C69     		ldr	r4, [r1, #20]
 1297 0056 54BB     		cbnz	r4, .L110
 778:Drivers/STM32F7xx_HAL_Driver/Src/stm32f7xx_ll_usb.c ****       USBx_INEP(epnum)->DIEPTSIZ |= (USB_OTG_DIEPTSIZ_PKTCNT & (1U << 19));
 1298              		.loc 1 778 0
 1299 0058 00EB4314 		add	r4, r0, r3, lsl #5
 1300 005c D4F81069 		ldr	r6, [r4, #2320]
 1301 0060 264D     		ldr	r5, .L122+4
 1302 0062 3540     		ands	r5, r5, r6
 1303 0064 C4F81059 		str	r5, [r4, #2320]
 779:Drivers/STM32F7xx_HAL_Driver/Src/stm32f7xx_ll_usb.c ****       USBx_INEP(epnum)->DIEPTSIZ &= ~(USB_OTG_DIEPTSIZ_XFRSIZ);
 1304              		.loc 1 779 0
 1305 0068 D4F81059 		ldr	r5, [r4, #2320]
 1306 006c 45F40025 		orr	r5, r5, #524288
 1307 0070 C4F81059 		str	r5, [r4, #2320]
 780:Drivers/STM32F7xx_HAL_Driver/Src/stm32f7xx_ll_usb.c ****     }
 1308              		.loc 1 780 0
 1309 0074 D4F81069 		ldr	r6, [r4, #2320]
 1310 0078 1F4D     		ldr	r5, .L122
 1311 007a 3540     		ands	r5, r5, r6
 1312 007c C4F81059 		str	r5, [r4, #2320]
 1313              	.L111:
 800:Drivers/STM32F7xx_HAL_Driver/Src/stm32f7xx_ll_usb.c ****     {
 1314              		.loc 1 800 0
 1315 0080 012A     		cmp	r2, #1
 1316 0082 30D0     		beq	.L121
 807:Drivers/STM32F7xx_HAL_Driver/Src/stm32f7xx_ll_usb.c ****       {
 1317              		.loc 1 807 0
 1318 0084 4A69     		ldr	r2, [r1, #20]
 1319              	.LVL122:
 1320 0086 4AB1     		cbz	r2, .L114
 809:Drivers/STM32F7xx_HAL_Driver/Src/stm32f7xx_ll_usb.c ****       }
 1321              		.loc 1 809 0
 1322 0088 D0F83428 		ldr	r2, [r0, #2100]
 1323 008c 0978     		ldrb	r1, [r1]	@ zero_extendqisi2
 1324              	.LVL123:
 1325 008e 01F00F04 		and	r4, r1, #15
 1326 0092 0121     		movs	r1, #1
 1327 0094 A140     		lsls	r1, r1, r4
 1328 0096 0A43     		orrs	r2, r2, r1
 1329 0098 C0F83428 		str	r2, [r0, #2100]
 1330              	.L114:
 814:Drivers/STM32F7xx_HAL_Driver/Src/stm32f7xx_ll_usb.c ****   }
 1331              		.loc 1 814 0
 1332 009c 00EB4310 		add	r0, r0, r3, lsl #5
 1333              	.LVL124:
 1334 00a0 D0F80029 		ldr	r2, [r0, #2304]
 1335 00a4 42F00442 		orr	r2, r2, #-2080374784
ARM GAS  C:\Users\Patryk\AppData\Local\Temp\cc5QRopf.s 			page 49


 1336 00a8 C0F80029 		str	r2, [r0, #2304]
 1337 00ac CFE7     		b	.L115
 1338              	.LVL125:
 1339              	.L110:
 789:Drivers/STM32F7xx_HAL_Driver/Src/stm32f7xx_ll_usb.c ****       USBx_INEP(epnum)->DIEPTSIZ &= ~(USB_OTG_DIEPTSIZ_PKTCNT);
 1340              		.loc 1 789 0
 1341 00ae 00EB4314 		add	r4, r0, r3, lsl #5
 1342 00b2 04F51064 		add	r4, r4, #2304
 1343 00b6 2669     		ldr	r6, [r4, #16]
 1344 00b8 0F4D     		ldr	r5, .L122
 1345 00ba 3540     		ands	r5, r5, r6
 1346 00bc 2561     		str	r5, [r4, #16]
 790:Drivers/STM32F7xx_HAL_Driver/Src/stm32f7xx_ll_usb.c **** 
 1347              		.loc 1 790 0
 1348 00be 2669     		ldr	r6, [r4, #16]
 1349 00c0 0E4D     		ldr	r5, .L122+4
 1350 00c2 3540     		ands	r5, r5, r6
 1351 00c4 2561     		str	r5, [r4, #16]
 792:Drivers/STM32F7xx_HAL_Driver/Src/stm32f7xx_ll_usb.c ****       {
 1352              		.loc 1 792 0
 1353 00c6 4E69     		ldr	r6, [r1, #20]
 1354 00c8 8D68     		ldr	r5, [r1, #8]
 1355 00ca AE42     		cmp	r6, r5
 1356 00cc 00D9     		bls	.L112
 794:Drivers/STM32F7xx_HAL_Driver/Src/stm32f7xx_ll_usb.c ****       }
 1357              		.loc 1 794 0
 1358 00ce 4D61     		str	r5, [r1, #20]
 1359              	.L112:
 796:Drivers/STM32F7xx_HAL_Driver/Src/stm32f7xx_ll_usb.c ****       USBx_INEP(epnum)->DIEPTSIZ |= (USB_OTG_DIEPTSIZ_XFRSIZ & ep->xfer_len);
 1360              		.loc 1 796 0
 1361 00d0 2569     		ldr	r5, [r4, #16]
 1362 00d2 45F40025 		orr	r5, r5, #524288
 1363 00d6 2561     		str	r5, [r4, #16]
 797:Drivers/STM32F7xx_HAL_Driver/Src/stm32f7xx_ll_usb.c ****     }
 1364              		.loc 1 797 0
 1365 00d8 2569     		ldr	r5, [r4, #16]
 1366 00da 4E69     		ldr	r6, [r1, #20]
 1367 00dc C6F31206 		ubfx	r6, r6, #0, #19
 1368 00e0 3543     		orrs	r5, r5, r6
 1369 00e2 2561     		str	r5, [r4, #16]
 1370 00e4 CCE7     		b	.L111
 1371              	.L121:
 802:Drivers/STM32F7xx_HAL_Driver/Src/stm32f7xx_ll_usb.c ****     }
 1372              		.loc 1 802 0
 1373 00e6 00EB4312 		add	r2, r0, r3, lsl #5
 1374              	.LVL126:
 1375 00ea 0969     		ldr	r1, [r1, #16]
 1376              	.LVL127:
 1377 00ec C2F81419 		str	r1, [r2, #2324]
 1378 00f0 D4E7     		b	.L114
 1379              	.LVL128:
 1380              	.L120:
 835:Drivers/STM32F7xx_HAL_Driver/Src/stm32f7xx_ll_usb.c ****     }
 1381              		.loc 1 835 0
 1382 00f2 CA68     		ldr	r2, [r1, #12]
 1383              	.LVL129:
 1384 00f4 5A61     		str	r2, [r3, #20]
ARM GAS  C:\Users\Patryk\AppData\Local\Temp\cc5QRopf.s 			page 50


 1385 00f6 A4E7     		b	.L117
 1386              	.L123:
 1387              		.align	2
 1388              	.L122:
 1389 00f8 0000F8FF 		.word	-524288
 1390 00fc FFFF07E0 		.word	-536346625
 1391              		.cfi_endproc
 1392              	.LFE152:
 1394              		.section	.text.USB_WritePacket,"ax",%progbits
 1395              		.align	1
 1396              		.global	USB_WritePacket
 1397              		.syntax unified
 1398              		.thumb
 1399              		.thumb_func
 1400              		.fpu fpv5-sp-d16
 1402              	USB_WritePacket:
 1403              	.LFB153:
 859:Drivers/STM32F7xx_HAL_Driver/Src/stm32f7xx_ll_usb.c ****   uint32_t USBx_BASE = (uint32_t)USBx;
 1404              		.loc 1 859 0
 1405              		.cfi_startproc
 1406              		@ args = 4, pretend = 0, frame = 0
 1407              		@ frame_needed = 0, uses_anonymous_args = 0
 1408              		@ link register save eliminated.
 1409              	.LVL130:
 1410 0000 70B4     		push	{r4, r5, r6}
 1411              	.LCFI23:
 1412              		.cfi_def_cfa_offset 12
 1413              		.cfi_offset 4, -12
 1414              		.cfi_offset 5, -8
 1415              		.cfi_offset 6, -4
 1416 0002 9DF80C40 		ldrb	r4, [sp, #12]	@ zero_extendqisi2
 1417              	.LVL131:
 864:Drivers/STM32F7xx_HAL_Driver/Src/stm32f7xx_ll_usb.c ****   {
 1418              		.loc 1 864 0
 1419 0006 64B9     		cbnz	r4, .L125
 866:Drivers/STM32F7xx_HAL_Driver/Src/stm32f7xx_ll_usb.c ****     for (i = 0U; i < count32b; i++)
 1420              		.loc 1 866 0
 1421 0008 0333     		adds	r3, r3, #3
 1422              	.LVL132:
 1423 000a 9D08     		lsrs	r5, r3, #2
 1424              	.LVL133:
 867:Drivers/STM32F7xx_HAL_Driver/Src/stm32f7xx_ll_usb.c ****     {
 1425              		.loc 1 867 0
 1426 000c 07E0     		b	.L126
 1427              	.LVL134:
 1428              	.L127:
 869:Drivers/STM32F7xx_HAL_Driver/Src/stm32f7xx_ll_usb.c ****       pSrc++;
 1429              		.loc 1 869 0 discriminator 3
 1430 000e 00EB0233 		add	r3, r0, r2, lsl #12
 1431 0012 03F58053 		add	r3, r3, #4096
 1432 0016 51F8046B 		ldr	r6, [r1], #4
 1433              	.LVL135:
 1434 001a 1E60     		str	r6, [r3]
 1435              	.LVL136:
 867:Drivers/STM32F7xx_HAL_Driver/Src/stm32f7xx_ll_usb.c ****     {
 1436              		.loc 1 867 0 discriminator 3
 1437 001c 0134     		adds	r4, r4, #1
ARM GAS  C:\Users\Patryk\AppData\Local\Temp\cc5QRopf.s 			page 51


 1438              	.LVL137:
 1439              	.L126:
 867:Drivers/STM32F7xx_HAL_Driver/Src/stm32f7xx_ll_usb.c ****     {
 1440              		.loc 1 867 0 is_stmt 0 discriminator 1
 1441 001e AC42     		cmp	r4, r5
 1442 0020 F5D3     		bcc	.L127
 1443              	.LVL138:
 1444              	.L125:
 875:Drivers/STM32F7xx_HAL_Driver/Src/stm32f7xx_ll_usb.c **** 
 1445              		.loc 1 875 0 is_stmt 1
 1446 0022 0020     		movs	r0, #0
 1447              	.LVL139:
 1448 0024 70BC     		pop	{r4, r5, r6}
 1449              	.LCFI24:
 1450              		.cfi_restore 6
 1451              		.cfi_restore 5
 1452              		.cfi_restore 4
 1453              		.cfi_def_cfa_offset 0
 1454              	.LVL140:
 1455 0026 7047     		bx	lr
 1456              		.cfi_endproc
 1457              	.LFE153:
 1459              		.section	.text.USB_EPStartXfer,"ax",%progbits
 1460              		.align	1
 1461              		.global	USB_EPStartXfer
 1462              		.syntax unified
 1463              		.thumb
 1464              		.thumb_func
 1465              		.fpu fpv5-sp-d16
 1467              	USB_EPStartXfer:
 1468              	.LFB151:
 643:Drivers/STM32F7xx_HAL_Driver/Src/stm32f7xx_ll_usb.c ****   uint32_t USBx_BASE = (uint32_t)USBx;
 1469              		.loc 1 643 0
 1470              		.cfi_startproc
 1471              		@ args = 0, pretend = 0, frame = 0
 1472              		@ frame_needed = 0, uses_anonymous_args = 0
 1473              	.LVL141:
 1474 0000 F0B5     		push	{r4, r5, r6, r7, lr}
 1475              	.LCFI25:
 1476              		.cfi_def_cfa_offset 20
 1477              		.cfi_offset 4, -20
 1478              		.cfi_offset 5, -16
 1479              		.cfi_offset 6, -12
 1480              		.cfi_offset 7, -8
 1481              		.cfi_offset 14, -4
 1482 0002 83B0     		sub	sp, sp, #12
 1483              	.LCFI26:
 1484              		.cfi_def_cfa_offset 32
 1485              	.LVL142:
 645:Drivers/STM32F7xx_HAL_Driver/Src/stm32f7xx_ll_usb.c ****   uint16_t pktcnt;
 1486              		.loc 1 645 0
 1487 0004 0B78     		ldrb	r3, [r1]	@ zero_extendqisi2
 1488              	.LVL143:
 649:Drivers/STM32F7xx_HAL_Driver/Src/stm32f7xx_ll_usb.c ****   {
 1489              		.loc 1 649 0
 1490 0006 4C78     		ldrb	r4, [r1, #1]	@ zero_extendqisi2
 1491 0008 012C     		cmp	r4, #1
ARM GAS  C:\Users\Patryk\AppData\Local\Temp\cc5QRopf.s 			page 52


 1492 000a 29D0     		beq	.L144
 719:Drivers/STM32F7xx_HAL_Driver/Src/stm32f7xx_ll_usb.c ****     USBx_OUTEP(epnum)->DOEPTSIZ &= ~(USB_OTG_DOEPTSIZ_PKTCNT);
 1493              		.loc 1 719 0
 1494 000c 00EB4313 		add	r3, r0, r3, lsl #5
 1495              	.LVL144:
 1496 0010 03F53064 		add	r4, r3, #2816
 1497 0014 2669     		ldr	r6, [r4, #16]
 1498 0016 6F4D     		ldr	r5, .L149
 1499 0018 3540     		ands	r5, r5, r6
 1500 001a 2561     		str	r5, [r4, #16]
 1501              	.LVL145:
 720:Drivers/STM32F7xx_HAL_Driver/Src/stm32f7xx_ll_usb.c **** 
 1502              		.loc 1 720 0
 1503 001c 2669     		ldr	r6, [r4, #16]
 1504 001e 6E4D     		ldr	r5, .L149+4
 1505 0020 3540     		ands	r5, r5, r6
 1506 0022 2561     		str	r5, [r4, #16]
 722:Drivers/STM32F7xx_HAL_Driver/Src/stm32f7xx_ll_usb.c ****     {
 1507              		.loc 1 722 0
 1508 0024 4D69     		ldr	r5, [r1, #20]
 1509 0026 002D     		cmp	r5, #0
 1510 0028 40F0A880 		bne	.L138
 724:Drivers/STM32F7xx_HAL_Driver/Src/stm32f7xx_ll_usb.c ****       USBx_OUTEP(epnum)->DOEPTSIZ |= (USB_OTG_DOEPTSIZ_PKTCNT & (1U << 19));
 1511              		.loc 1 724 0
 1512 002c 2569     		ldr	r5, [r4, #16]
 1513 002e 8E68     		ldr	r6, [r1, #8]
 1514 0030 C6F31206 		ubfx	r6, r6, #0, #19
 1515 0034 3543     		orrs	r5, r5, r6
 1516 0036 2561     		str	r5, [r4, #16]
 725:Drivers/STM32F7xx_HAL_Driver/Src/stm32f7xx_ll_usb.c ****     }
 1517              		.loc 1 725 0
 1518 0038 2569     		ldr	r5, [r4, #16]
 1519 003a 45F40025 		orr	r5, r5, #524288
 1520 003e 2561     		str	r5, [r4, #16]
 1521              	.L139:
 734:Drivers/STM32F7xx_HAL_Driver/Src/stm32f7xx_ll_usb.c ****     {
 1522              		.loc 1 734 0
 1523 0040 012A     		cmp	r2, #1
 1524 0042 00F0B080 		beq	.L145
 1525              	.LVL146:
 1526              	.L140:
 739:Drivers/STM32F7xx_HAL_Driver/Src/stm32f7xx_ll_usb.c ****     {
 1527              		.loc 1 739 0
 1528 0046 CA78     		ldrb	r2, [r1, #3]	@ zero_extendqisi2
 1529 0048 012A     		cmp	r2, #1
 1530 004a 00F0AF80 		beq	.L146
 1531              	.L141:
 751:Drivers/STM32F7xx_HAL_Driver/Src/stm32f7xx_ll_usb.c ****   }
 1532              		.loc 1 751 0
 1533 004e D3F8002B 		ldr	r2, [r3, #2816]
 1534 0052 42F00442 		orr	r2, r2, #-2080374784
 1535 0056 C3F8002B 		str	r2, [r3, #2816]
 1536              	.LVL147:
 1537              	.L137:
 755:Drivers/STM32F7xx_HAL_Driver/Src/stm32f7xx_ll_usb.c **** 
 1538              		.loc 1 755 0
 1539 005a 0020     		movs	r0, #0
ARM GAS  C:\Users\Patryk\AppData\Local\Temp\cc5QRopf.s 			page 53


 1540 005c 03B0     		add	sp, sp, #12
 1541              	.LCFI27:
 1542              		.cfi_remember_state
 1543              		.cfi_def_cfa_offset 20
 1544              		@ sp needed
 1545 005e F0BD     		pop	{r4, r5, r6, r7, pc}
 1546              	.LVL148:
 1547              	.L144:
 1548              	.LCFI28:
 1549              		.cfi_restore_state
 652:Drivers/STM32F7xx_HAL_Driver/Src/stm32f7xx_ll_usb.c ****     {
 1550              		.loc 1 652 0
 1551 0060 4C69     		ldr	r4, [r1, #20]
 1552 0062 34BB     		cbnz	r4, .L131
 654:Drivers/STM32F7xx_HAL_Driver/Src/stm32f7xx_ll_usb.c ****       USBx_INEP(epnum)->DIEPTSIZ |= (USB_OTG_DIEPTSIZ_PKTCNT & (1U << 19));
 1553              		.loc 1 654 0
 1554 0064 00EB4314 		add	r4, r0, r3, lsl #5
 1555 0068 D4F81069 		ldr	r6, [r4, #2320]
 1556 006c 5A4D     		ldr	r5, .L149+4
 1557 006e 3540     		ands	r5, r5, r6
 1558 0070 C4F81059 		str	r5, [r4, #2320]
 655:Drivers/STM32F7xx_HAL_Driver/Src/stm32f7xx_ll_usb.c ****       USBx_INEP(epnum)->DIEPTSIZ &= ~(USB_OTG_DIEPTSIZ_XFRSIZ);
 1559              		.loc 1 655 0
 1560 0074 D4F81059 		ldr	r5, [r4, #2320]
 1561 0078 45F40025 		orr	r5, r5, #524288
 1562 007c C4F81059 		str	r5, [r4, #2320]
 656:Drivers/STM32F7xx_HAL_Driver/Src/stm32f7xx_ll_usb.c ****     }
 1563              		.loc 1 656 0
 1564 0080 D4F81069 		ldr	r6, [r4, #2320]
 1565 0084 534D     		ldr	r5, .L149
 1566 0086 3540     		ands	r5, r5, r6
 1567 0088 C4F81059 		str	r5, [r4, #2320]
 1568              	.L132:
 677:Drivers/STM32F7xx_HAL_Driver/Src/stm32f7xx_ll_usb.c ****     {
 1569              		.loc 1 677 0
 1570 008c 012A     		cmp	r2, #1
 1571 008e 42D0     		beq	.L147
 683:Drivers/STM32F7xx_HAL_Driver/Src/stm32f7xx_ll_usb.c ****       {
 1572              		.loc 1 683 0
 1573 0090 CC78     		ldrb	r4, [r1, #3]	@ zero_extendqisi2
 1574 0092 012C     		cmp	r4, #1
 1575 0094 44D0     		beq	.L134
 686:Drivers/STM32F7xx_HAL_Driver/Src/stm32f7xx_ll_usb.c ****         {
 1576              		.loc 1 686 0
 1577 0096 4C69     		ldr	r4, [r1, #20]
 1578 0098 002C     		cmp	r4, #0
 1579 009a 41D0     		beq	.L134
 688:Drivers/STM32F7xx_HAL_Driver/Src/stm32f7xx_ll_usb.c ****         }
 1580              		.loc 1 688 0
 1581 009c D0F83448 		ldr	r4, [r0, #2100]
 1582 00a0 0D78     		ldrb	r5, [r1]	@ zero_extendqisi2
 1583 00a2 05F00F06 		and	r6, r5, #15
 1584 00a6 0125     		movs	r5, #1
 1585 00a8 B540     		lsls	r5, r5, r6
 1586 00aa 2C43     		orrs	r4, r4, r5
 1587 00ac C0F83448 		str	r4, [r0, #2100]
 1588 00b0 36E0     		b	.L134
ARM GAS  C:\Users\Patryk\AppData\Local\Temp\cc5QRopf.s 			page 54


 1589              	.L131:
 665:Drivers/STM32F7xx_HAL_Driver/Src/stm32f7xx_ll_usb.c ****       USBx_INEP(epnum)->DIEPTSIZ &= ~(USB_OTG_DIEPTSIZ_PKTCNT);
 1590              		.loc 1 665 0
 1591 00b2 00EB4314 		add	r4, r0, r3, lsl #5
 1592 00b6 D4F81069 		ldr	r6, [r4, #2320]
 1593 00ba 464D     		ldr	r5, .L149
 1594 00bc 3540     		ands	r5, r5, r6
 1595 00be C4F81059 		str	r5, [r4, #2320]
 666:Drivers/STM32F7xx_HAL_Driver/Src/stm32f7xx_ll_usb.c ****       USBx_INEP(epnum)->DIEPTSIZ |= (USB_OTG_DIEPTSIZ_PKTCNT & (((ep->xfer_len + ep->maxpacket - 1U
 1596              		.loc 1 666 0
 1597 00c2 D4F81069 		ldr	r6, [r4, #2320]
 1598 00c6 444D     		ldr	r5, .L149+4
 1599 00c8 3540     		ands	r5, r5, r6
 1600 00ca C4F81059 		str	r5, [r4, #2320]
 667:Drivers/STM32F7xx_HAL_Driver/Src/stm32f7xx_ll_usb.c ****       USBx_INEP(epnum)->DIEPTSIZ |= (USB_OTG_DIEPTSIZ_XFRSIZ & ep->xfer_len);
 1601              		.loc 1 667 0
 1602 00ce D4F81069 		ldr	r6, [r4, #2320]
 1603 00d2 4D69     		ldr	r5, [r1, #20]
 1604 00d4 8F68     		ldr	r7, [r1, #8]
 1605 00d6 3D44     		add	r5, r5, r7
 1606 00d8 013D     		subs	r5, r5, #1
 1607 00da B5FBF7F5 		udiv	r5, r5, r7
 1608 00de 3F4F     		ldr	r7, .L149+8
 1609 00e0 07EAC545 		and	r5, r7, r5, lsl #19
 1610 00e4 3543     		orrs	r5, r5, r6
 1611 00e6 C4F81059 		str	r5, [r4, #2320]
 668:Drivers/STM32F7xx_HAL_Driver/Src/stm32f7xx_ll_usb.c **** 
 1612              		.loc 1 668 0
 1613 00ea D4F81059 		ldr	r5, [r4, #2320]
 1614 00ee 4E69     		ldr	r6, [r1, #20]
 1615 00f0 C6F31206 		ubfx	r6, r6, #0, #19
 1616 00f4 3543     		orrs	r5, r5, r6
 1617 00f6 C4F81059 		str	r5, [r4, #2320]
 665:Drivers/STM32F7xx_HAL_Driver/Src/stm32f7xx_ll_usb.c ****       USBx_INEP(epnum)->DIEPTSIZ &= ~(USB_OTG_DIEPTSIZ_PKTCNT);
 1618              		.loc 1 665 0
 1619 00fa 04F51064 		add	r4, r4, #2304
 670:Drivers/STM32F7xx_HAL_Driver/Src/stm32f7xx_ll_usb.c ****       {
 1620              		.loc 1 670 0
 1621 00fe CD78     		ldrb	r5, [r1, #3]	@ zero_extendqisi2
 1622 0100 012D     		cmp	r5, #1
 1623 0102 C3D1     		bne	.L132
 672:Drivers/STM32F7xx_HAL_Driver/Src/stm32f7xx_ll_usb.c ****         USBx_INEP(epnum)->DIEPTSIZ |= (USB_OTG_DIEPTSIZ_MULCNT & (1U << 29));
 1624              		.loc 1 672 0
 1625 0104 2569     		ldr	r5, [r4, #16]
 1626 0106 25F0C045 		bic	r5, r5, #1610612736
 1627 010a 2561     		str	r5, [r4, #16]
 673:Drivers/STM32F7xx_HAL_Driver/Src/stm32f7xx_ll_usb.c ****       }
 1628              		.loc 1 673 0
 1629 010c 2569     		ldr	r5, [r4, #16]
 1630 010e 45F00055 		orr	r5, r5, #536870912
 1631 0112 2561     		str	r5, [r4, #16]
 1632 0114 BAE7     		b	.L132
 1633              	.L147:
 679:Drivers/STM32F7xx_HAL_Driver/Src/stm32f7xx_ll_usb.c ****     }
 1634              		.loc 1 679 0
 1635 0116 00EB4314 		add	r4, r0, r3, lsl #5
 1636 011a 0D69     		ldr	r5, [r1, #16]
ARM GAS  C:\Users\Patryk\AppData\Local\Temp\cc5QRopf.s 			page 55


 1637 011c C4F81459 		str	r5, [r4, #2324]
 1638              	.L134:
 693:Drivers/STM32F7xx_HAL_Driver/Src/stm32f7xx_ll_usb.c ****     {
 1639              		.loc 1 693 0
 1640 0120 CC78     		ldrb	r4, [r1, #3]	@ zero_extendqisi2
 1641 0122 012C     		cmp	r4, #1
 1642 0124 13D0     		beq	.L148
 1643              	.L135:
 706:Drivers/STM32F7xx_HAL_Driver/Src/stm32f7xx_ll_usb.c **** 
 1644              		.loc 1 706 0
 1645 0126 00EB4313 		add	r3, r0, r3, lsl #5
 1646              	.LVL149:
 1647 012a D3F80049 		ldr	r4, [r3, #2304]
 1648 012e 44F00444 		orr	r4, r4, #-2080374784
 1649 0132 C3F80049 		str	r4, [r3, #2304]
 708:Drivers/STM32F7xx_HAL_Driver/Src/stm32f7xx_ll_usb.c ****     {
 1650              		.loc 1 708 0
 1651 0136 CB78     		ldrb	r3, [r1, #3]	@ zero_extendqisi2
 1652 0138 012B     		cmp	r3, #1
 1653 013a 8ED1     		bne	.L137
 1654 013c 1446     		mov	r4, r2
 1655 013e 0B46     		mov	r3, r1
 710:Drivers/STM32F7xx_HAL_Driver/Src/stm32f7xx_ll_usb.c ****     }
 1656              		.loc 1 710 0
 1657 0140 C968     		ldr	r1, [r1, #12]
 1658              	.LVL150:
 1659 0142 1A78     		ldrb	r2, [r3]	@ zero_extendqisi2
 1660              	.LVL151:
 1661 0144 9B8A     		ldrh	r3, [r3, #20]
 1662              	.LVL152:
 1663 0146 0094     		str	r4, [sp]
 1664 0148 FFF7FEFF 		bl	USB_WritePacket
 1665              	.LVL153:
 1666 014c 85E7     		b	.L137
 1667              	.LVL154:
 1668              	.L148:
 695:Drivers/STM32F7xx_HAL_Driver/Src/stm32f7xx_ll_usb.c ****       {
 1669              		.loc 1 695 0
 1670 014e D0F80848 		ldr	r4, [r0, #2056]
 1671 0152 14F4807F 		tst	r4, #256
 1672 0156 08D1     		bne	.L136
 697:Drivers/STM32F7xx_HAL_Driver/Src/stm32f7xx_ll_usb.c ****       }
 1673              		.loc 1 697 0
 1674 0158 00EB4315 		add	r5, r0, r3, lsl #5
 1675 015c D5F80049 		ldr	r4, [r5, #2304]
 1676 0160 44F00054 		orr	r4, r4, #536870912
 1677 0164 C5F80049 		str	r4, [r5, #2304]
 1678 0168 DDE7     		b	.L135
 1679              	.L136:
 701:Drivers/STM32F7xx_HAL_Driver/Src/stm32f7xx_ll_usb.c ****       }
 1680              		.loc 1 701 0
 1681 016a 00EB4315 		add	r5, r0, r3, lsl #5
 1682 016e D5F80049 		ldr	r4, [r5, #2304]
 1683 0172 44F08054 		orr	r4, r4, #268435456
 1684 0176 C5F80049 		str	r4, [r5, #2304]
 1685 017a D4E7     		b	.L135
 1686              	.LVL155:
ARM GAS  C:\Users\Patryk\AppData\Local\Temp\cc5QRopf.s 			page 56


 1687              	.L138:
 729:Drivers/STM32F7xx_HAL_Driver/Src/stm32f7xx_ll_usb.c ****       USBx_OUTEP(epnum)->DOEPTSIZ |= USB_OTG_DOEPTSIZ_PKTCNT & ((uint32_t)pktcnt << 19);
 1688              		.loc 1 729 0
 1689 017c 8E68     		ldr	r6, [r1, #8]
 1690 017e 3544     		add	r5, r5, r6
 1691 0180 013D     		subs	r5, r5, #1
 1692 0182 B5FBF6F5 		udiv	r5, r5, r6
 1693              	.LVL156:
 730:Drivers/STM32F7xx_HAL_Driver/Src/stm32f7xx_ll_usb.c ****       USBx_OUTEP(epnum)->DOEPTSIZ |= USB_OTG_DOEPTSIZ_XFRSIZ & (ep->maxpacket * pktcnt);
 1694              		.loc 1 730 0
 1695 0186 2669     		ldr	r6, [r4, #16]
 1696 0188 144F     		ldr	r7, .L149+8
 1697 018a 07EAC547 		and	r7, r7, r5, lsl #19
 1698 018e 3E43     		orrs	r6, r6, r7
 1699 0190 2661     		str	r6, [r4, #16]
 731:Drivers/STM32F7xx_HAL_Driver/Src/stm32f7xx_ll_usb.c ****     }
 1700              		.loc 1 731 0
 1701 0192 2769     		ldr	r7, [r4, #16]
 1702 0194 8E68     		ldr	r6, [r1, #8]
 1703 0196 ADB2     		uxth	r5, r5
 1704 0198 06FB05F5 		mul	r5, r6, r5
 1705              	.LVL157:
 1706 019c C5F31205 		ubfx	r5, r5, #0, #19
 1707 01a0 3D43     		orrs	r5, r5, r7
 1708 01a2 2561     		str	r5, [r4, #16]
 1709 01a4 4CE7     		b	.L139
 1710              	.L145:
 736:Drivers/STM32F7xx_HAL_Driver/Src/stm32f7xx_ll_usb.c ****     }
 1711              		.loc 1 736 0
 1712 01a6 CA68     		ldr	r2, [r1, #12]
 1713              	.LVL158:
 1714 01a8 6261     		str	r2, [r4, #20]
 1715 01aa 4CE7     		b	.L140
 1716              	.L146:
 741:Drivers/STM32F7xx_HAL_Driver/Src/stm32f7xx_ll_usb.c ****       {
 1717              		.loc 1 741 0
 1718 01ac D0F80828 		ldr	r2, [r0, #2056]
 1719 01b0 12F4807F 		tst	r2, #256
 1720 01b4 06D1     		bne	.L142
 743:Drivers/STM32F7xx_HAL_Driver/Src/stm32f7xx_ll_usb.c ****       }
 1721              		.loc 1 743 0
 1722 01b6 D3F8002B 		ldr	r2, [r3, #2816]
 1723 01ba 42F00052 		orr	r2, r2, #536870912
 1724 01be C3F8002B 		str	r2, [r3, #2816]
 1725 01c2 44E7     		b	.L141
 1726              	.L142:
 747:Drivers/STM32F7xx_HAL_Driver/Src/stm32f7xx_ll_usb.c ****       }
 1727              		.loc 1 747 0
 1728 01c4 D3F8002B 		ldr	r2, [r3, #2816]
 1729 01c8 42F08052 		orr	r2, r2, #268435456
 1730 01cc C3F8002B 		str	r2, [r3, #2816]
 1731 01d0 3DE7     		b	.L141
 1732              	.L150:
 1733 01d2 00BF     		.align	2
 1734              	.L149:
 1735 01d4 0000F8FF 		.word	-524288
 1736 01d8 FFFF07E0 		.word	-536346625
ARM GAS  C:\Users\Patryk\AppData\Local\Temp\cc5QRopf.s 			page 57


 1737 01dc 0000F81F 		.word	536346624
 1738              		.cfi_endproc
 1739              	.LFE151:
 1741              		.section	.text.USB_ReadPacket,"ax",%progbits
 1742              		.align	1
 1743              		.global	USB_ReadPacket
 1744              		.syntax unified
 1745              		.thumb
 1746              		.thumb_func
 1747              		.fpu fpv5-sp-d16
 1749              	USB_ReadPacket:
 1750              	.LFB154:
 890:Drivers/STM32F7xx_HAL_Driver/Src/stm32f7xx_ll_usb.c ****   uint32_t USBx_BASE = (uint32_t)USBx;
 1751              		.loc 1 890 0
 1752              		.cfi_startproc
 1753              		@ args = 0, pretend = 0, frame = 0
 1754              		@ frame_needed = 0, uses_anonymous_args = 0
 1755              		@ link register save eliminated.
 1756              	.LVL159:
 894:Drivers/STM32F7xx_HAL_Driver/Src/stm32f7xx_ll_usb.c **** 
 1757              		.loc 1 894 0
 1758 0000 0332     		adds	r2, r2, #3
 1759              	.LVL160:
 1760 0002 9208     		lsrs	r2, r2, #2
 1761              	.LVL161:
 896:Drivers/STM32F7xx_HAL_Driver/Src/stm32f7xx_ll_usb.c ****   {
 1762              		.loc 1 896 0
 1763 0004 0023     		movs	r3, #0
 1764              	.LVL162:
 1765 0006 9342     		cmp	r3, r2
 1766 0008 0CD2     		bcs	.L158
 890:Drivers/STM32F7xx_HAL_Driver/Src/stm32f7xx_ll_usb.c ****   uint32_t USBx_BASE = (uint32_t)USBx;
 1767              		.loc 1 890 0
 1768 000a 10B4     		push	{r4}
 1769              	.LCFI29:
 1770              		.cfi_def_cfa_offset 4
 1771              		.cfi_offset 4, -4
 1772              	.LVL163:
 1773              	.L153:
 898:Drivers/STM32F7xx_HAL_Driver/Src/stm32f7xx_ll_usb.c ****     pDest++;
 1774              		.loc 1 898 0 discriminator 3
 1775 000c 00F58054 		add	r4, r0, #4096
 1776 0010 2468     		ldr	r4, [r4]
 1777 0012 41F8044B 		str	r4, [r1], #4
 1778              	.LVL164:
 896:Drivers/STM32F7xx_HAL_Driver/Src/stm32f7xx_ll_usb.c ****   {
 1779              		.loc 1 896 0 discriminator 3
 1780 0016 0133     		adds	r3, r3, #1
 1781              	.LVL165:
 1782 0018 9342     		cmp	r3, r2
 1783 001a F7D3     		bcc	.L153
 903:Drivers/STM32F7xx_HAL_Driver/Src/stm32f7xx_ll_usb.c **** 
 1784              		.loc 1 903 0
 1785 001c 0846     		mov	r0, r1
 1786              	.LVL166:
 1787 001e 5DF8044B 		ldr	r4, [sp], #4
 1788              	.LCFI30:
ARM GAS  C:\Users\Patryk\AppData\Local\Temp\cc5QRopf.s 			page 58


 1789              		.cfi_restore 4
 1790              		.cfi_def_cfa_offset 0
 1791 0022 7047     		bx	lr
 1792              	.LVL167:
 1793              	.L158:
 1794 0024 0846     		mov	r0, r1
 1795              	.LVL168:
 1796 0026 7047     		bx	lr
 1797              		.cfi_endproc
 1798              	.LFE154:
 1800              		.section	.text.USB_EPSetStall,"ax",%progbits
 1801              		.align	1
 1802              		.global	USB_EPSetStall
 1803              		.syntax unified
 1804              		.thumb
 1805              		.thumb_func
 1806              		.fpu fpv5-sp-d16
 1808              	USB_EPSetStall:
 1809              	.LFB155:
 912:Drivers/STM32F7xx_HAL_Driver/Src/stm32f7xx_ll_usb.c ****   uint32_t USBx_BASE = (uint32_t)USBx;
 1810              		.loc 1 912 0
 1811              		.cfi_startproc
 1812              		@ args = 0, pretend = 0, frame = 0
 1813              		@ frame_needed = 0, uses_anonymous_args = 0
 1814              		@ link register save eliminated.
 1815              	.LVL169:
 914:Drivers/STM32F7xx_HAL_Driver/Src/stm32f7xx_ll_usb.c **** 
 1816              		.loc 1 914 0
 1817 0000 0B78     		ldrb	r3, [r1]	@ zero_extendqisi2
 1818              	.LVL170:
 916:Drivers/STM32F7xx_HAL_Driver/Src/stm32f7xx_ll_usb.c ****   {
 1819              		.loc 1 916 0
 1820 0002 4A78     		ldrb	r2, [r1, #1]	@ zero_extendqisi2
 1821 0004 012A     		cmp	r2, #1
 1822 0006 14D0     		beq	.L164
 926:Drivers/STM32F7xx_HAL_Driver/Src/stm32f7xx_ll_usb.c ****     {
 1823              		.loc 1 926 0
 1824 0008 00EB4310 		add	r0, r0, r3, lsl #5
 1825              	.LVL171:
 1826 000c D0F8002B 		ldr	r2, [r0, #2816]
 1827 0010 002A     		cmp	r2, #0
 1828 0012 06DB     		blt	.L163
 926:Drivers/STM32F7xx_HAL_Driver/Src/stm32f7xx_ll_usb.c ****     {
 1829              		.loc 1 926 0 is_stmt 0 discriminator 1
 1830 0014 2BB1     		cbz	r3, .L163
 928:Drivers/STM32F7xx_HAL_Driver/Src/stm32f7xx_ll_usb.c ****     }
 1831              		.loc 1 928 0 is_stmt 1
 1832 0016 D0F8003B 		ldr	r3, [r0, #2816]
 1833              	.LVL172:
 1834 001a 23F08043 		bic	r3, r3, #1073741824
 1835 001e C0F8003B 		str	r3, [r0, #2816]
 1836              	.LVL173:
 1837              	.L163:
 930:Drivers/STM32F7xx_HAL_Driver/Src/stm32f7xx_ll_usb.c ****   }
 1838              		.loc 1 930 0
 1839 0022 D0F8003B 		ldr	r3, [r0, #2816]
 1840 0026 43F40013 		orr	r3, r3, #2097152
ARM GAS  C:\Users\Patryk\AppData\Local\Temp\cc5QRopf.s 			page 59


 1841 002a C0F8003B 		str	r3, [r0, #2816]
 1842              	.L162:
 934:Drivers/STM32F7xx_HAL_Driver/Src/stm32f7xx_ll_usb.c **** 
 1843              		.loc 1 934 0
 1844 002e 0020     		movs	r0, #0
 1845 0030 7047     		bx	lr
 1846              	.LVL174:
 1847              	.L164:
 918:Drivers/STM32F7xx_HAL_Driver/Src/stm32f7xx_ll_usb.c ****     {
 1848              		.loc 1 918 0
 1849 0032 00EB4310 		add	r0, r0, r3, lsl #5
 1850              	.LVL175:
 1851 0036 D0F80029 		ldr	r2, [r0, #2304]
 1852 003a 002A     		cmp	r2, #0
 1853 003c 06DB     		blt	.L161
 918:Drivers/STM32F7xx_HAL_Driver/Src/stm32f7xx_ll_usb.c ****     {
 1854              		.loc 1 918 0 is_stmt 0 discriminator 1
 1855 003e 2BB1     		cbz	r3, .L161
 920:Drivers/STM32F7xx_HAL_Driver/Src/stm32f7xx_ll_usb.c ****     }
 1856              		.loc 1 920 0 is_stmt 1
 1857 0040 D0F80039 		ldr	r3, [r0, #2304]
 1858              	.LVL176:
 1859 0044 23F08043 		bic	r3, r3, #1073741824
 1860 0048 C0F80039 		str	r3, [r0, #2304]
 1861              	.LVL177:
 1862              	.L161:
 922:Drivers/STM32F7xx_HAL_Driver/Src/stm32f7xx_ll_usb.c ****   }
 1863              		.loc 1 922 0
 1864 004c D0F80039 		ldr	r3, [r0, #2304]
 1865 0050 43F40013 		orr	r3, r3, #2097152
 1866 0054 C0F80039 		str	r3, [r0, #2304]
 1867 0058 E9E7     		b	.L162
 1868              		.cfi_endproc
 1869              	.LFE155:
 1871              		.section	.text.USB_EPClearStall,"ax",%progbits
 1872              		.align	1
 1873              		.global	USB_EPClearStall
 1874              		.syntax unified
 1875              		.thumb
 1876              		.thumb_func
 1877              		.fpu fpv5-sp-d16
 1879              	USB_EPClearStall:
 1880              	.LFB156:
 943:Drivers/STM32F7xx_HAL_Driver/Src/stm32f7xx_ll_usb.c ****   uint32_t USBx_BASE = (uint32_t)USBx;
 1881              		.loc 1 943 0
 1882              		.cfi_startproc
 1883              		@ args = 0, pretend = 0, frame = 0
 1884              		@ frame_needed = 0, uses_anonymous_args = 0
 1885              		@ link register save eliminated.
 1886              	.LVL178:
 945:Drivers/STM32F7xx_HAL_Driver/Src/stm32f7xx_ll_usb.c **** 
 1887              		.loc 1 945 0
 1888 0000 0B78     		ldrb	r3, [r1]	@ zero_extendqisi2
 1889              	.LVL179:
 947:Drivers/STM32F7xx_HAL_Driver/Src/stm32f7xx_ll_usb.c ****   {
 1890              		.loc 1 947 0
 1891 0002 4A78     		ldrb	r2, [r1, #1]	@ zero_extendqisi2
ARM GAS  C:\Users\Patryk\AppData\Local\Temp\cc5QRopf.s 			page 60


 1892 0004 012A     		cmp	r2, #1
 1893 0006 0ED0     		beq	.L168
 957:Drivers/STM32F7xx_HAL_Driver/Src/stm32f7xx_ll_usb.c ****     if ((ep->type == EP_TYPE_INTR) || (ep->type == EP_TYPE_BULK))
 1894              		.loc 1 957 0
 1895 0008 00EB4310 		add	r0, r0, r3, lsl #5
 1896              	.LVL180:
 1897 000c D0F8003B 		ldr	r3, [r0, #2816]
 1898              	.LVL181:
 1899 0010 23F40013 		bic	r3, r3, #2097152
 1900 0014 C0F8003B 		str	r3, [r0, #2816]
 1901              	.LVL182:
 958:Drivers/STM32F7xx_HAL_Driver/Src/stm32f7xx_ll_usb.c ****     {
 1902              		.loc 1 958 0
 1903 0018 CB78     		ldrb	r3, [r1, #3]	@ zero_extendqisi2
 1904 001a 023B     		subs	r3, r3, #2
 1905 001c DBB2     		uxtb	r3, r3
 1906 001e 012B     		cmp	r3, #1
 1907 0020 15D9     		bls	.L169
 1908              	.L167:
 964:Drivers/STM32F7xx_HAL_Driver/Src/stm32f7xx_ll_usb.c **** 
 1909              		.loc 1 964 0
 1910 0022 0020     		movs	r0, #0
 1911 0024 7047     		bx	lr
 1912              	.LVL183:
 1913              	.L168:
 949:Drivers/STM32F7xx_HAL_Driver/Src/stm32f7xx_ll_usb.c ****     if ((ep->type == EP_TYPE_INTR) || (ep->type == EP_TYPE_BULK))
 1914              		.loc 1 949 0
 1915 0026 00EB4310 		add	r0, r0, r3, lsl #5
 1916              	.LVL184:
 1917 002a D0F80039 		ldr	r3, [r0, #2304]
 1918              	.LVL185:
 1919 002e 23F40013 		bic	r3, r3, #2097152
 1920 0032 C0F80039 		str	r3, [r0, #2304]
 1921              	.LVL186:
 950:Drivers/STM32F7xx_HAL_Driver/Src/stm32f7xx_ll_usb.c ****     {
 1922              		.loc 1 950 0
 1923 0036 CB78     		ldrb	r3, [r1, #3]	@ zero_extendqisi2
 1924 0038 023B     		subs	r3, r3, #2
 1925 003a DBB2     		uxtb	r3, r3
 1926 003c 012B     		cmp	r3, #1
 1927 003e F0D8     		bhi	.L167
 952:Drivers/STM32F7xx_HAL_Driver/Src/stm32f7xx_ll_usb.c ****     }
 1928              		.loc 1 952 0
 1929 0040 D0F80039 		ldr	r3, [r0, #2304]
 1930 0044 43F08053 		orr	r3, r3, #268435456
 1931 0048 C0F80039 		str	r3, [r0, #2304]
 1932 004c E9E7     		b	.L167
 1933              	.L169:
 960:Drivers/STM32F7xx_HAL_Driver/Src/stm32f7xx_ll_usb.c ****     }
 1934              		.loc 1 960 0
 1935 004e D0F8003B 		ldr	r3, [r0, #2816]
 1936 0052 43F08053 		orr	r3, r3, #268435456
 1937 0056 C0F8003B 		str	r3, [r0, #2816]
 1938 005a E2E7     		b	.L167
 1939              		.cfi_endproc
 1940              	.LFE156:
 1942              		.section	.text.USB_StopDevice,"ax",%progbits
ARM GAS  C:\Users\Patryk\AppData\Local\Temp\cc5QRopf.s 			page 61


 1943              		.align	1
 1944              		.global	USB_StopDevice
 1945              		.syntax unified
 1946              		.thumb
 1947              		.thumb_func
 1948              		.fpu fpv5-sp-d16
 1950              	USB_StopDevice:
 1951              	.LFB157:
 972:Drivers/STM32F7xx_HAL_Driver/Src/stm32f7xx_ll_usb.c ****   uint32_t USBx_BASE = (uint32_t)USBx;
 1952              		.loc 1 972 0
 1953              		.cfi_startproc
 1954              		@ args = 0, pretend = 0, frame = 0
 1955              		@ frame_needed = 0, uses_anonymous_args = 0
 1956              	.LVL187:
 1957 0000 38B5     		push	{r3, r4, r5, lr}
 1958              	.LCFI31:
 1959              		.cfi_def_cfa_offset 16
 1960              		.cfi_offset 3, -16
 1961              		.cfi_offset 4, -12
 1962              		.cfi_offset 5, -8
 1963              		.cfi_offset 14, -4
 1964 0002 0546     		mov	r5, r0
 973:Drivers/STM32F7xx_HAL_Driver/Src/stm32f7xx_ll_usb.c ****   uint32_t i;
 1965              		.loc 1 973 0
 1966 0004 0446     		mov	r4, r0
 1967              	.LVL188:
 977:Drivers/STM32F7xx_HAL_Driver/Src/stm32f7xx_ll_usb.c ****   {
 1968              		.loc 1 977 0
 1969 0006 0022     		movs	r2, #0
 1970 0008 08E0     		b	.L171
 1971              	.LVL189:
 1972              	.L172:
 979:Drivers/STM32F7xx_HAL_Driver/Src/stm32f7xx_ll_usb.c ****     USBx_OUTEP(i)->DOEPINT = 0xFB7FU;
 1973              		.loc 1 979 0 discriminator 3
 1974 000a 04EB4213 		add	r3, r4, r2, lsl #5
 1975 000e 4FF67F31 		movw	r1, #64383
 1976 0012 C3F80819 		str	r1, [r3, #2312]
 980:Drivers/STM32F7xx_HAL_Driver/Src/stm32f7xx_ll_usb.c ****   }
 1977              		.loc 1 980 0 discriminator 3
 1978 0016 C3F8081B 		str	r1, [r3, #2824]
 977:Drivers/STM32F7xx_HAL_Driver/Src/stm32f7xx_ll_usb.c ****   {
 1979              		.loc 1 977 0 discriminator 3
 1980 001a 0132     		adds	r2, r2, #1
 1981              	.LVL190:
 1982              	.L171:
 977:Drivers/STM32F7xx_HAL_Driver/Src/stm32f7xx_ll_usb.c ****   {
 1983              		.loc 1 977 0 is_stmt 0 discriminator 1
 1984 001c 0E2A     		cmp	r2, #14
 1985 001e F4D9     		bls	.L172
 984:Drivers/STM32F7xx_HAL_Driver/Src/stm32f7xx_ll_usb.c ****   USBx_DEVICE->DOEPMSK  = 0U;
 1986              		.loc 1 984 0 is_stmt 1
 1987 0020 0024     		movs	r4, #0
 1988 0022 C5F81048 		str	r4, [r5, #2064]
 985:Drivers/STM32F7xx_HAL_Driver/Src/stm32f7xx_ll_usb.c ****   USBx_DEVICE->DAINTMSK = 0U;
 1989              		.loc 1 985 0
 1990 0026 C5F81448 		str	r4, [r5, #2068]
 986:Drivers/STM32F7xx_HAL_Driver/Src/stm32f7xx_ll_usb.c **** 
ARM GAS  C:\Users\Patryk\AppData\Local\Temp\cc5QRopf.s 			page 62


 1991              		.loc 1 986 0
 1992 002a C5F81C48 		str	r4, [r5, #2076]
 989:Drivers/STM32F7xx_HAL_Driver/Src/stm32f7xx_ll_usb.c ****   (void)USB_FlushTxFifo(USBx ,  0x10U);
 1993              		.loc 1 989 0
 1994 002e 2846     		mov	r0, r5
 1995              	.LVL191:
 1996 0030 FFF7FEFF 		bl	USB_FlushRxFifo
 1997              	.LVL192:
 990:Drivers/STM32F7xx_HAL_Driver/Src/stm32f7xx_ll_usb.c **** 
 1998              		.loc 1 990 0
 1999 0034 1021     		movs	r1, #16
 2000 0036 2846     		mov	r0, r5
 2001 0038 FFF7FEFF 		bl	USB_FlushTxFifo
 2002              	.LVL193:
 993:Drivers/STM32F7xx_HAL_Driver/Src/stm32f7xx_ll_usb.c **** 
 2003              		.loc 1 993 0
 2004 003c 2046     		mov	r0, r4
 2005 003e 38BD     		pop	{r3, r4, r5, pc}
 2006              		.cfi_endproc
 2007              	.LFE157:
 2009              		.section	.text.USB_SetDevAddress,"ax",%progbits
 2010              		.align	1
 2011              		.global	USB_SetDevAddress
 2012              		.syntax unified
 2013              		.thumb
 2014              		.thumb_func
 2015              		.fpu fpv5-sp-d16
 2017              	USB_SetDevAddress:
 2018              	.LFB158:
1003:Drivers/STM32F7xx_HAL_Driver/Src/stm32f7xx_ll_usb.c ****   uint32_t USBx_BASE = (uint32_t)USBx;
 2019              		.loc 1 1003 0
 2020              		.cfi_startproc
 2021              		@ args = 0, pretend = 0, frame = 0
 2022              		@ frame_needed = 0, uses_anonymous_args = 0
 2023              		@ link register save eliminated.
 2024              	.LVL194:
1006:Drivers/STM32F7xx_HAL_Driver/Src/stm32f7xx_ll_usb.c ****   USBx_DEVICE->DCFG |= ((uint32_t)address << 4) & USB_OTG_DCFG_DAD;
 2025              		.loc 1 1006 0
 2026 0000 D0F80038 		ldr	r3, [r0, #2048]
 2027 0004 23F4FE63 		bic	r3, r3, #2032
 2028 0008 C0F80038 		str	r3, [r0, #2048]
1007:Drivers/STM32F7xx_HAL_Driver/Src/stm32f7xx_ll_usb.c **** 
 2029              		.loc 1 1007 0
 2030 000c D0F80038 		ldr	r3, [r0, #2048]
 2031 0010 0901     		lsls	r1, r1, #4
 2032              	.LVL195:
 2033 0012 01F4FE61 		and	r1, r1, #2032
 2034 0016 0B43     		orrs	r3, r3, r1
 2035 0018 C0F80038 		str	r3, [r0, #2048]
1010:Drivers/STM32F7xx_HAL_Driver/Src/stm32f7xx_ll_usb.c **** 
 2036              		.loc 1 1010 0
 2037 001c 0020     		movs	r0, #0
 2038              	.LVL196:
 2039 001e 7047     		bx	lr
 2040              		.cfi_endproc
 2041              	.LFE158:
 2043              		.section	.text.USB_DevConnect,"ax",%progbits
ARM GAS  C:\Users\Patryk\AppData\Local\Temp\cc5QRopf.s 			page 63


 2044              		.align	1
 2045              		.global	USB_DevConnect
 2046              		.syntax unified
 2047              		.thumb
 2048              		.thumb_func
 2049              		.fpu fpv5-sp-d16
 2051              	USB_DevConnect:
 2052              	.LFB159:
1018:Drivers/STM32F7xx_HAL_Driver/Src/stm32f7xx_ll_usb.c ****   uint32_t USBx_BASE = (uint32_t)USBx;
 2053              		.loc 1 1018 0
 2054              		.cfi_startproc
 2055              		@ args = 0, pretend = 0, frame = 0
 2056              		@ frame_needed = 0, uses_anonymous_args = 0
 2057              	.LVL197:
 2058 0000 08B5     		push	{r3, lr}
 2059              	.LCFI32:
 2060              		.cfi_def_cfa_offset 8
 2061              		.cfi_offset 3, -8
 2062              		.cfi_offset 14, -4
 2063              	.LVL198:
1021:Drivers/STM32F7xx_HAL_Driver/Src/stm32f7xx_ll_usb.c ****   HAL_Delay(3U);
 2064              		.loc 1 1021 0
 2065 0002 D0F80438 		ldr	r3, [r0, #2052]
 2066 0006 23F00203 		bic	r3, r3, #2
 2067 000a C0F80438 		str	r3, [r0, #2052]
1022:Drivers/STM32F7xx_HAL_Driver/Src/stm32f7xx_ll_usb.c **** 
 2068              		.loc 1 1022 0
 2069 000e 0320     		movs	r0, #3
 2070              	.LVL199:
 2071 0010 FFF7FEFF 		bl	HAL_Delay
 2072              	.LVL200:
1025:Drivers/STM32F7xx_HAL_Driver/Src/stm32f7xx_ll_usb.c **** 
 2073              		.loc 1 1025 0
 2074 0014 0020     		movs	r0, #0
 2075 0016 08BD     		pop	{r3, pc}
 2076              		.cfi_endproc
 2077              	.LFE159:
 2079              		.section	.text.USB_DevDisconnect,"ax",%progbits
 2080              		.align	1
 2081              		.global	USB_DevDisconnect
 2082              		.syntax unified
 2083              		.thumb
 2084              		.thumb_func
 2085              		.fpu fpv5-sp-d16
 2087              	USB_DevDisconnect:
 2088              	.LFB160:
1033:Drivers/STM32F7xx_HAL_Driver/Src/stm32f7xx_ll_usb.c ****   uint32_t USBx_BASE = (uint32_t)USBx;
 2089              		.loc 1 1033 0
 2090              		.cfi_startproc
 2091              		@ args = 0, pretend = 0, frame = 0
 2092              		@ frame_needed = 0, uses_anonymous_args = 0
 2093              	.LVL201:
 2094 0000 08B5     		push	{r3, lr}
 2095              	.LCFI33:
 2096              		.cfi_def_cfa_offset 8
 2097              		.cfi_offset 3, -8
 2098              		.cfi_offset 14, -4
ARM GAS  C:\Users\Patryk\AppData\Local\Temp\cc5QRopf.s 			page 64


 2099              	.LVL202:
1036:Drivers/STM32F7xx_HAL_Driver/Src/stm32f7xx_ll_usb.c ****   HAL_Delay(3U);
 2100              		.loc 1 1036 0
 2101 0002 D0F80438 		ldr	r3, [r0, #2052]
 2102 0006 43F00203 		orr	r3, r3, #2
 2103 000a C0F80438 		str	r3, [r0, #2052]
1037:Drivers/STM32F7xx_HAL_Driver/Src/stm32f7xx_ll_usb.c **** 
 2104              		.loc 1 1037 0
 2105 000e 0320     		movs	r0, #3
 2106              	.LVL203:
 2107 0010 FFF7FEFF 		bl	HAL_Delay
 2108              	.LVL204:
1040:Drivers/STM32F7xx_HAL_Driver/Src/stm32f7xx_ll_usb.c **** 
 2109              		.loc 1 1040 0
 2110 0014 0020     		movs	r0, #0
 2111 0016 08BD     		pop	{r3, pc}
 2112              		.cfi_endproc
 2113              	.LFE160:
 2115              		.section	.text.USB_ReadInterrupts,"ax",%progbits
 2116              		.align	1
 2117              		.global	USB_ReadInterrupts
 2118              		.syntax unified
 2119              		.thumb
 2120              		.thumb_func
 2121              		.fpu fpv5-sp-d16
 2123              	USB_ReadInterrupts:
 2124              	.LFB161:
1048:Drivers/STM32F7xx_HAL_Driver/Src/stm32f7xx_ll_usb.c ****   uint32_t tmpreg;
 2125              		.loc 1 1048 0
 2126              		.cfi_startproc
 2127              		@ args = 0, pretend = 0, frame = 0
 2128              		@ frame_needed = 0, uses_anonymous_args = 0
 2129              		@ link register save eliminated.
 2130              	.LVL205:
1051:Drivers/STM32F7xx_HAL_Driver/Src/stm32f7xx_ll_usb.c ****   tmpreg &= USBx->GINTMSK;
 2131              		.loc 1 1051 0
 2132 0000 4269     		ldr	r2, [r0, #20]
 2133              	.LVL206:
1052:Drivers/STM32F7xx_HAL_Driver/Src/stm32f7xx_ll_usb.c **** 
 2134              		.loc 1 1052 0
 2135 0002 8069     		ldr	r0, [r0, #24]
 2136              	.LVL207:
1055:Drivers/STM32F7xx_HAL_Driver/Src/stm32f7xx_ll_usb.c **** 
 2137              		.loc 1 1055 0
 2138 0004 1040     		ands	r0, r0, r2
 2139              	.LVL208:
 2140 0006 7047     		bx	lr
 2141              		.cfi_endproc
 2142              	.LFE161:
 2144              		.section	.text.USB_ReadDevAllOutEpInterrupt,"ax",%progbits
 2145              		.align	1
 2146              		.global	USB_ReadDevAllOutEpInterrupt
 2147              		.syntax unified
 2148              		.thumb
 2149              		.thumb_func
 2150              		.fpu fpv5-sp-d16
 2152              	USB_ReadDevAllOutEpInterrupt:
ARM GAS  C:\Users\Patryk\AppData\Local\Temp\cc5QRopf.s 			page 65


 2153              	.LFB162:
1063:Drivers/STM32F7xx_HAL_Driver/Src/stm32f7xx_ll_usb.c ****   uint32_t USBx_BASE = (uint32_t)USBx;
 2154              		.loc 1 1063 0
 2155              		.cfi_startproc
 2156              		@ args = 0, pretend = 0, frame = 0
 2157              		@ frame_needed = 0, uses_anonymous_args = 0
 2158              		@ link register save eliminated.
 2159              	.LVL209:
1067:Drivers/STM32F7xx_HAL_Driver/Src/stm32f7xx_ll_usb.c ****   tmpreg &= USBx_DEVICE->DAINTMSK;
 2160              		.loc 1 1067 0
 2161 0000 D0F81838 		ldr	r3, [r0, #2072]
 2162 0004 00F50060 		add	r0, r0, #2048
 2163              	.LVL210:
1068:Drivers/STM32F7xx_HAL_Driver/Src/stm32f7xx_ll_usb.c **** 
 2164              		.loc 1 1068 0
 2165 0008 C069     		ldr	r0, [r0, #28]
 2166              	.LVL211:
 2167 000a 1840     		ands	r0, r0, r3
 2168              	.LVL212:
1071:Drivers/STM32F7xx_HAL_Driver/Src/stm32f7xx_ll_usb.c **** 
 2169              		.loc 1 1071 0
 2170 000c 000C     		lsrs	r0, r0, #16
 2171              	.LVL213:
 2172 000e 7047     		bx	lr
 2173              		.cfi_endproc
 2174              	.LFE162:
 2176              		.section	.text.USB_ReadDevAllInEpInterrupt,"ax",%progbits
 2177              		.align	1
 2178              		.global	USB_ReadDevAllInEpInterrupt
 2179              		.syntax unified
 2180              		.thumb
 2181              		.thumb_func
 2182              		.fpu fpv5-sp-d16
 2184              	USB_ReadDevAllInEpInterrupt:
 2185              	.LFB163:
1079:Drivers/STM32F7xx_HAL_Driver/Src/stm32f7xx_ll_usb.c ****   uint32_t USBx_BASE = (uint32_t)USBx;
 2186              		.loc 1 1079 0
 2187              		.cfi_startproc
 2188              		@ args = 0, pretend = 0, frame = 0
 2189              		@ frame_needed = 0, uses_anonymous_args = 0
 2190              		@ link register save eliminated.
 2191              	.LVL214:
1083:Drivers/STM32F7xx_HAL_Driver/Src/stm32f7xx_ll_usb.c ****   tmpreg &= USBx_DEVICE->DAINTMSK;
 2192              		.loc 1 1083 0
 2193 0000 D0F81838 		ldr	r3, [r0, #2072]
 2194 0004 00F50060 		add	r0, r0, #2048
 2195              	.LVL215:
1084:Drivers/STM32F7xx_HAL_Driver/Src/stm32f7xx_ll_usb.c **** 
 2196              		.loc 1 1084 0
 2197 0008 C069     		ldr	r0, [r0, #28]
 2198              	.LVL216:
 2199 000a 1840     		ands	r0, r0, r3
 2200              	.LVL217:
1087:Drivers/STM32F7xx_HAL_Driver/Src/stm32f7xx_ll_usb.c **** 
 2201              		.loc 1 1087 0
 2202 000c 80B2     		uxth	r0, r0
 2203              	.LVL218:
ARM GAS  C:\Users\Patryk\AppData\Local\Temp\cc5QRopf.s 			page 66


 2204 000e 7047     		bx	lr
 2205              		.cfi_endproc
 2206              	.LFE163:
 2208              		.section	.text.USB_ReadDevOutEPInterrupt,"ax",%progbits
 2209              		.align	1
 2210              		.global	USB_ReadDevOutEPInterrupt
 2211              		.syntax unified
 2212              		.thumb
 2213              		.thumb_func
 2214              		.fpu fpv5-sp-d16
 2216              	USB_ReadDevOutEPInterrupt:
 2217              	.LFB164:
1097:Drivers/STM32F7xx_HAL_Driver/Src/stm32f7xx_ll_usb.c ****   uint32_t USBx_BASE = (uint32_t)USBx;
 2218              		.loc 1 1097 0
 2219              		.cfi_startproc
 2220              		@ args = 0, pretend = 0, frame = 0
 2221              		@ frame_needed = 0, uses_anonymous_args = 0
 2222              		@ link register save eliminated.
 2223              	.LVL219:
1101:Drivers/STM32F7xx_HAL_Driver/Src/stm32f7xx_ll_usb.c ****   tmpreg &= USBx_DEVICE->DOEPMSK;
 2224              		.loc 1 1101 0
 2225 0000 00EB4111 		add	r1, r0, r1, lsl #5
 2226              	.LVL220:
 2227 0004 D1F8082B 		ldr	r2, [r1, #2824]
 2228              	.LVL221:
1102:Drivers/STM32F7xx_HAL_Driver/Src/stm32f7xx_ll_usb.c **** 
 2229              		.loc 1 1102 0
 2230 0008 00F50060 		add	r0, r0, #2048
 2231              	.LVL222:
 2232 000c 4069     		ldr	r0, [r0, #20]
 2233              	.LVL223:
1105:Drivers/STM32F7xx_HAL_Driver/Src/stm32f7xx_ll_usb.c **** 
 2234              		.loc 1 1105 0
 2235 000e 1040     		ands	r0, r0, r2
 2236              	.LVL224:
 2237 0010 7047     		bx	lr
 2238              		.cfi_endproc
 2239              	.LFE164:
 2241              		.section	.text.USB_ReadDevInEPInterrupt,"ax",%progbits
 2242              		.align	1
 2243              		.global	USB_ReadDevInEPInterrupt
 2244              		.syntax unified
 2245              		.thumb
 2246              		.thumb_func
 2247              		.fpu fpv5-sp-d16
 2249              	USB_ReadDevInEPInterrupt:
 2250              	.LFB165:
1115:Drivers/STM32F7xx_HAL_Driver/Src/stm32f7xx_ll_usb.c ****   uint32_t USBx_BASE = (uint32_t)USBx;
 2251              		.loc 1 1115 0
 2252              		.cfi_startproc
 2253              		@ args = 0, pretend = 0, frame = 0
 2254              		@ frame_needed = 0, uses_anonymous_args = 0
 2255              		@ link register save eliminated.
 2256              	.LVL225:
 2257 0000 10B4     		push	{r4}
 2258              	.LCFI34:
 2259              		.cfi_def_cfa_offset 4
ARM GAS  C:\Users\Patryk\AppData\Local\Temp\cc5QRopf.s 			page 67


 2260              		.cfi_offset 4, -4
 2261              	.LVL226:
1119:Drivers/STM32F7xx_HAL_Driver/Src/stm32f7xx_ll_usb.c ****   emp = USBx_DEVICE->DIEPEMPMSK;
 2262              		.loc 1 1119 0
 2263 0002 D0F81048 		ldr	r4, [r0, #2064]
 2264              	.LVL227:
1120:Drivers/STM32F7xx_HAL_Driver/Src/stm32f7xx_ll_usb.c ****   msk |= ((emp >> (epnum & 0xFU)) & 0x1U) << 7;
 2265              		.loc 1 1120 0
 2266 0006 D0F83438 		ldr	r3, [r0, #2100]
 2267              	.LVL228:
1121:Drivers/STM32F7xx_HAL_Driver/Src/stm32f7xx_ll_usb.c ****   tmpreg = USBx_INEP((uint32_t)epnum)->DIEPINT & msk;
 2268              		.loc 1 1121 0
 2269 000a 01F00F02 		and	r2, r1, #15
 2270 000e D340     		lsrs	r3, r3, r2
 2271              	.LVL229:
 2272 0010 DB01     		lsls	r3, r3, #7
 2273 0012 DBB2     		uxtb	r3, r3
 2274 0014 2343     		orrs	r3, r3, r4
 2275              	.LVL230:
1122:Drivers/STM32F7xx_HAL_Driver/Src/stm32f7xx_ll_usb.c **** 
 2276              		.loc 1 1122 0
 2277 0016 00EB4110 		add	r0, r0, r1, lsl #5
 2278              	.LVL231:
 2279 001a 00F51060 		add	r0, r0, #2304
 2280 001e 8068     		ldr	r0, [r0, #8]
 2281              	.LVL232:
1125:Drivers/STM32F7xx_HAL_Driver/Src/stm32f7xx_ll_usb.c **** 
 2282              		.loc 1 1125 0
 2283 0020 1840     		ands	r0, r0, r3
 2284              	.LVL233:
 2285 0022 5DF8044B 		ldr	r4, [sp], #4
 2286              	.LCFI35:
 2287              		.cfi_restore 4
 2288              		.cfi_def_cfa_offset 0
 2289 0026 7047     		bx	lr
 2290              		.cfi_endproc
 2291              	.LFE165:
 2293              		.section	.text.USB_ClearInterrupts,"ax",%progbits
 2294              		.align	1
 2295              		.global	USB_ClearInterrupts
 2296              		.syntax unified
 2297              		.thumb
 2298              		.thumb_func
 2299              		.fpu fpv5-sp-d16
 2301              	USB_ClearInterrupts:
 2302              	.LFB166:
1134:Drivers/STM32F7xx_HAL_Driver/Src/stm32f7xx_ll_usb.c ****   USBx->GINTSTS |= interrupt;
 2303              		.loc 1 1134 0
 2304              		.cfi_startproc
 2305              		@ args = 0, pretend = 0, frame = 0
 2306              		@ frame_needed = 0, uses_anonymous_args = 0
 2307              		@ link register save eliminated.
 2308              	.LVL234:
1135:Drivers/STM32F7xx_HAL_Driver/Src/stm32f7xx_ll_usb.c **** }
 2309              		.loc 1 1135 0
 2310 0000 4369     		ldr	r3, [r0, #20]
 2311 0002 1943     		orrs	r1, r1, r3
ARM GAS  C:\Users\Patryk\AppData\Local\Temp\cc5QRopf.s 			page 68


 2312              	.LVL235:
 2313 0004 4161     		str	r1, [r0, #20]
1136:Drivers/STM32F7xx_HAL_Driver/Src/stm32f7xx_ll_usb.c **** 
 2314              		.loc 1 1136 0
 2315 0006 7047     		bx	lr
 2316              		.cfi_endproc
 2317              	.LFE166:
 2319              		.section	.text.USB_GetMode,"ax",%progbits
 2320              		.align	1
 2321              		.global	USB_GetMode
 2322              		.syntax unified
 2323              		.thumb
 2324              		.thumb_func
 2325              		.fpu fpv5-sp-d16
 2327              	USB_GetMode:
 2328              	.LFB167:
1147:Drivers/STM32F7xx_HAL_Driver/Src/stm32f7xx_ll_usb.c ****   return ((USBx->GINTSTS ) & 0x1U);
 2329              		.loc 1 1147 0
 2330              		.cfi_startproc
 2331              		@ args = 0, pretend = 0, frame = 0
 2332              		@ frame_needed = 0, uses_anonymous_args = 0
 2333              		@ link register save eliminated.
 2334              	.LVL236:
1148:Drivers/STM32F7xx_HAL_Driver/Src/stm32f7xx_ll_usb.c **** }
 2335              		.loc 1 1148 0
 2336 0000 4069     		ldr	r0, [r0, #20]
 2337              	.LVL237:
1149:Drivers/STM32F7xx_HAL_Driver/Src/stm32f7xx_ll_usb.c **** 
 2338              		.loc 1 1149 0
 2339 0002 00F00100 		and	r0, r0, #1
 2340 0006 7047     		bx	lr
 2341              		.cfi_endproc
 2342              	.LFE167:
 2344              		.section	.text.USB_ActivateSetup,"ax",%progbits
 2345              		.align	1
 2346              		.global	USB_ActivateSetup
 2347              		.syntax unified
 2348              		.thumb
 2349              		.thumb_func
 2350              		.fpu fpv5-sp-d16
 2352              	USB_ActivateSetup:
 2353              	.LFB168:
1157:Drivers/STM32F7xx_HAL_Driver/Src/stm32f7xx_ll_usb.c ****   uint32_t USBx_BASE = (uint32_t)USBx;
 2354              		.loc 1 1157 0
 2355              		.cfi_startproc
 2356              		@ args = 0, pretend = 0, frame = 0
 2357              		@ frame_needed = 0, uses_anonymous_args = 0
 2358              		@ link register save eliminated.
 2359              	.LVL238:
1161:Drivers/STM32F7xx_HAL_Driver/Src/stm32f7xx_ll_usb.c **** 
 2360              		.loc 1 1161 0
 2361 0000 D0F80029 		ldr	r2, [r0, #2304]
 2362 0004 0B4B     		ldr	r3, .L190
 2363 0006 1340     		ands	r3, r3, r2
 2364 0008 C0F80039 		str	r3, [r0, #2304]
1163:Drivers/STM32F7xx_HAL_Driver/Src/stm32f7xx_ll_usb.c ****   {
 2365              		.loc 1 1163 0
ARM GAS  C:\Users\Patryk\AppData\Local\Temp\cc5QRopf.s 			page 69


 2366 000c 00F50063 		add	r3, r0, #2048
 2367 0010 9A68     		ldr	r2, [r3, #8]
 2368 0012 02F00602 		and	r2, r2, #6
 2369 0016 042A     		cmp	r2, #4
 2370 0018 05D0     		beq	.L189
 2371              	.L188:
1167:Drivers/STM32F7xx_HAL_Driver/Src/stm32f7xx_ll_usb.c **** 
 2372              		.loc 1 1167 0
 2373 001a 5A68     		ldr	r2, [r3, #4]
 2374 001c 42F48072 		orr	r2, r2, #256
 2375 0020 5A60     		str	r2, [r3, #4]
1170:Drivers/STM32F7xx_HAL_Driver/Src/stm32f7xx_ll_usb.c **** 
 2376              		.loc 1 1170 0
 2377 0022 0020     		movs	r0, #0
 2378              	.LVL239:
 2379 0024 7047     		bx	lr
 2380              	.LVL240:
 2381              	.L189:
1165:Drivers/STM32F7xx_HAL_Driver/Src/stm32f7xx_ll_usb.c ****   }
 2382              		.loc 1 1165 0
 2383 0026 D0F80029 		ldr	r2, [r0, #2304]
 2384 002a 42F00302 		orr	r2, r2, #3
 2385 002e C0F80029 		str	r2, [r0, #2304]
 2386 0032 F2E7     		b	.L188
 2387              	.L191:
 2388              		.align	2
 2389              	.L190:
 2390 0034 00F8FFFF 		.word	-2048
 2391              		.cfi_endproc
 2392              	.LFE168:
 2394              		.section	.text.USB_EP0_OutStart,"ax",%progbits
 2395              		.align	1
 2396              		.global	USB_EP0_OutStart
 2397              		.syntax unified
 2398              		.thumb
 2399              		.thumb_func
 2400              		.fpu fpv5-sp-d16
 2402              	USB_EP0_OutStart:
 2403              	.LFB169:
1183:Drivers/STM32F7xx_HAL_Driver/Src/stm32f7xx_ll_usb.c ****   uint32_t USBx_BASE = (uint32_t)USBx;
 2404              		.loc 1 1183 0
 2405              		.cfi_startproc
 2406              		@ args = 0, pretend = 0, frame = 0
 2407              		@ frame_needed = 0, uses_anonymous_args = 0
 2408              		@ link register save eliminated.
 2409              	.LVL241:
 2410 0000 10B4     		push	{r4}
 2411              	.LCFI36:
 2412              		.cfi_def_cfa_offset 4
 2413              		.cfi_offset 4, -4
 2414              	.LVL242:
1186:Drivers/STM32F7xx_HAL_Driver/Src/stm32f7xx_ll_usb.c ****   USBx_OUTEP(0U)->DOEPTSIZ |= (USB_OTG_DOEPTSIZ_PKTCNT & (1U << 19));
 2415              		.loc 1 1186 0
 2416 0002 0024     		movs	r4, #0
 2417 0004 C0F8104B 		str	r4, [r0, #2832]
1187:Drivers/STM32F7xx_HAL_Driver/Src/stm32f7xx_ll_usb.c ****   USBx_OUTEP(0U)->DOEPTSIZ |= (3U * 8U);
 2418              		.loc 1 1187 0
ARM GAS  C:\Users\Patryk\AppData\Local\Temp\cc5QRopf.s 			page 70


 2419 0008 D0F8104B 		ldr	r4, [r0, #2832]
 2420 000c 44F40024 		orr	r4, r4, #524288
 2421 0010 C0F8104B 		str	r4, [r0, #2832]
1188:Drivers/STM32F7xx_HAL_Driver/Src/stm32f7xx_ll_usb.c ****   USBx_OUTEP(0U)->DOEPTSIZ |=  USB_OTG_DOEPTSIZ_STUPCNT;
 2422              		.loc 1 1188 0
 2423 0014 D0F8104B 		ldr	r4, [r0, #2832]
 2424 0018 44F01804 		orr	r4, r4, #24
 2425 001c C0F8104B 		str	r4, [r0, #2832]
1189:Drivers/STM32F7xx_HAL_Driver/Src/stm32f7xx_ll_usb.c **** 
 2426              		.loc 1 1189 0
 2427 0020 D0F8104B 		ldr	r4, [r0, #2832]
 2428 0024 44F0C044 		orr	r4, r4, #1610612736
 2429 0028 C0F8104B 		str	r4, [r0, #2832]
1191:Drivers/STM32F7xx_HAL_Driver/Src/stm32f7xx_ll_usb.c ****   {
 2430              		.loc 1 1191 0
 2431 002c 0129     		cmp	r1, #1
 2432 002e 03D0     		beq	.L195
 2433              	.L193:
1199:Drivers/STM32F7xx_HAL_Driver/Src/stm32f7xx_ll_usb.c **** 
 2434              		.loc 1 1199 0
 2435 0030 0020     		movs	r0, #0
 2436              	.LVL243:
 2437 0032 5DF8044B 		ldr	r4, [sp], #4
 2438              	.LCFI37:
 2439              		.cfi_remember_state
 2440              		.cfi_restore 4
 2441              		.cfi_def_cfa_offset 0
 2442 0036 7047     		bx	lr
 2443              	.LVL244:
 2444              	.L195:
 2445              	.LCFI38:
 2446              		.cfi_restore_state
1193:Drivers/STM32F7xx_HAL_Driver/Src/stm32f7xx_ll_usb.c ****     /* EP enable */
 2447              		.loc 1 1193 0
 2448 0038 C0F8142B 		str	r2, [r0, #2836]
1195:Drivers/STM32F7xx_HAL_Driver/Src/stm32f7xx_ll_usb.c ****   }
 2449              		.loc 1 1195 0
 2450 003c 4FF08023 		mov	r3, #-2147450880
 2451 0040 C0F8003B 		str	r3, [r0, #2816]
 2452 0044 F4E7     		b	.L193
 2453              		.cfi_endproc
 2454              	.LFE169:
 2456              		.section	.text.USB_InitFSLSPClkSel,"ax",%progbits
 2457              		.align	1
 2458              		.global	USB_InitFSLSPClkSel
 2459              		.syntax unified
 2460              		.thumb
 2461              		.thumb_func
 2462              		.fpu fpv5-sp-d16
 2464              	USB_InitFSLSPClkSel:
 2465              	.LFB172:
1235:Drivers/STM32F7xx_HAL_Driver/Src/stm32f7xx_ll_usb.c **** 
1236:Drivers/STM32F7xx_HAL_Driver/Src/stm32f7xx_ll_usb.c **** #ifdef USB_HS_PHYC
1237:Drivers/STM32F7xx_HAL_Driver/Src/stm32f7xx_ll_usb.c **** /**
1238:Drivers/STM32F7xx_HAL_Driver/Src/stm32f7xx_ll_usb.c ****   * @brief  Enables control of a High Speed USB PHYs
1239:Drivers/STM32F7xx_HAL_Driver/Src/stm32f7xx_ll_usb.c ****   *         Init the low level hardware : GPIO, CLOCK, NVIC...
1240:Drivers/STM32F7xx_HAL_Driver/Src/stm32f7xx_ll_usb.c ****   * @param  USBx  Selected device
ARM GAS  C:\Users\Patryk\AppData\Local\Temp\cc5QRopf.s 			page 71


1241:Drivers/STM32F7xx_HAL_Driver/Src/stm32f7xx_ll_usb.c ****   * @retval HAL status
1242:Drivers/STM32F7xx_HAL_Driver/Src/stm32f7xx_ll_usb.c ****   */
1243:Drivers/STM32F7xx_HAL_Driver/Src/stm32f7xx_ll_usb.c **** static HAL_StatusTypeDef USB_HS_PHYCInit(USB_OTG_GlobalTypeDef *USBx)
1244:Drivers/STM32F7xx_HAL_Driver/Src/stm32f7xx_ll_usb.c **** {
1245:Drivers/STM32F7xx_HAL_Driver/Src/stm32f7xx_ll_usb.c ****   uint32_t count = 0U;
1246:Drivers/STM32F7xx_HAL_Driver/Src/stm32f7xx_ll_usb.c **** 
1247:Drivers/STM32F7xx_HAL_Driver/Src/stm32f7xx_ll_usb.c ****   /* Enable LDO */
1248:Drivers/STM32F7xx_HAL_Driver/Src/stm32f7xx_ll_usb.c ****   USB_HS_PHYC->USB_HS_PHYC_LDO |= USB_HS_PHYC_LDO_ENABLE;
1249:Drivers/STM32F7xx_HAL_Driver/Src/stm32f7xx_ll_usb.c **** 
1250:Drivers/STM32F7xx_HAL_Driver/Src/stm32f7xx_ll_usb.c ****   /* wait for LDO Ready */
1251:Drivers/STM32F7xx_HAL_Driver/Src/stm32f7xx_ll_usb.c ****   while((USB_HS_PHYC->USB_HS_PHYC_LDO & USB_HS_PHYC_LDO_STATUS) == RESET)
1252:Drivers/STM32F7xx_HAL_Driver/Src/stm32f7xx_ll_usb.c ****   {
1253:Drivers/STM32F7xx_HAL_Driver/Src/stm32f7xx_ll_usb.c ****     if (++count > 200000U)
1254:Drivers/STM32F7xx_HAL_Driver/Src/stm32f7xx_ll_usb.c ****     {
1255:Drivers/STM32F7xx_HAL_Driver/Src/stm32f7xx_ll_usb.c ****       return HAL_TIMEOUT;
1256:Drivers/STM32F7xx_HAL_Driver/Src/stm32f7xx_ll_usb.c ****     }
1257:Drivers/STM32F7xx_HAL_Driver/Src/stm32f7xx_ll_usb.c ****   }
1258:Drivers/STM32F7xx_HAL_Driver/Src/stm32f7xx_ll_usb.c **** 
1259:Drivers/STM32F7xx_HAL_Driver/Src/stm32f7xx_ll_usb.c ****   /* Controls PHY frequency operation selection */
1260:Drivers/STM32F7xx_HAL_Driver/Src/stm32f7xx_ll_usb.c ****   if (HSE_VALUE == 12000000U) /* HSE = 12MHz */
1261:Drivers/STM32F7xx_HAL_Driver/Src/stm32f7xx_ll_usb.c ****   {
1262:Drivers/STM32F7xx_HAL_Driver/Src/stm32f7xx_ll_usb.c ****     USB_HS_PHYC->USB_HS_PHYC_PLL = (0x0U << 1);
1263:Drivers/STM32F7xx_HAL_Driver/Src/stm32f7xx_ll_usb.c ****   }
1264:Drivers/STM32F7xx_HAL_Driver/Src/stm32f7xx_ll_usb.c ****   else if (HSE_VALUE == 12500000U) /* HSE = 12.5MHz */
1265:Drivers/STM32F7xx_HAL_Driver/Src/stm32f7xx_ll_usb.c ****   {
1266:Drivers/STM32F7xx_HAL_Driver/Src/stm32f7xx_ll_usb.c ****     USB_HS_PHYC->USB_HS_PHYC_PLL = (0x2U << 1);
1267:Drivers/STM32F7xx_HAL_Driver/Src/stm32f7xx_ll_usb.c ****   }
1268:Drivers/STM32F7xx_HAL_Driver/Src/stm32f7xx_ll_usb.c ****   else if (HSE_VALUE == 16000000U) /* HSE = 16MHz */
1269:Drivers/STM32F7xx_HAL_Driver/Src/stm32f7xx_ll_usb.c ****   {
1270:Drivers/STM32F7xx_HAL_Driver/Src/stm32f7xx_ll_usb.c ****     USB_HS_PHYC->USB_HS_PHYC_PLL = (0x3U << 1);
1271:Drivers/STM32F7xx_HAL_Driver/Src/stm32f7xx_ll_usb.c ****   }
1272:Drivers/STM32F7xx_HAL_Driver/Src/stm32f7xx_ll_usb.c ****   else if (HSE_VALUE == 24000000U) /* HSE = 24MHz */
1273:Drivers/STM32F7xx_HAL_Driver/Src/stm32f7xx_ll_usb.c ****   {
1274:Drivers/STM32F7xx_HAL_Driver/Src/stm32f7xx_ll_usb.c ****     USB_HS_PHYC->USB_HS_PHYC_PLL = (0x4U << 1);
1275:Drivers/STM32F7xx_HAL_Driver/Src/stm32f7xx_ll_usb.c ****   }
1276:Drivers/STM32F7xx_HAL_Driver/Src/stm32f7xx_ll_usb.c ****   else if (HSE_VALUE == 25000000U) /* HSE = 25MHz */
1277:Drivers/STM32F7xx_HAL_Driver/Src/stm32f7xx_ll_usb.c ****   {
1278:Drivers/STM32F7xx_HAL_Driver/Src/stm32f7xx_ll_usb.c ****     USB_HS_PHYC->USB_HS_PHYC_PLL = (0x5U << 1);
1279:Drivers/STM32F7xx_HAL_Driver/Src/stm32f7xx_ll_usb.c ****   }
1280:Drivers/STM32F7xx_HAL_Driver/Src/stm32f7xx_ll_usb.c ****   else if (HSE_VALUE == 32000000U) /* HSE = 32MHz */
1281:Drivers/STM32F7xx_HAL_Driver/Src/stm32f7xx_ll_usb.c ****   {
1282:Drivers/STM32F7xx_HAL_Driver/Src/stm32f7xx_ll_usb.c ****     USB_HS_PHYC->USB_HS_PHYC_PLL = (0x7U << 1);
1283:Drivers/STM32F7xx_HAL_Driver/Src/stm32f7xx_ll_usb.c ****   }
1284:Drivers/STM32F7xx_HAL_Driver/Src/stm32f7xx_ll_usb.c **** 
1285:Drivers/STM32F7xx_HAL_Driver/Src/stm32f7xx_ll_usb.c ****   /* Control the tuning interface of the High Speed PHY */
1286:Drivers/STM32F7xx_HAL_Driver/Src/stm32f7xx_ll_usb.c ****   USB_HS_PHYC->USB_HS_PHYC_TUNE |= USB_HS_PHYC_TUNE_VALUE;
1287:Drivers/STM32F7xx_HAL_Driver/Src/stm32f7xx_ll_usb.c **** 
1288:Drivers/STM32F7xx_HAL_Driver/Src/stm32f7xx_ll_usb.c ****   /* Enable PLL internal PHY */
1289:Drivers/STM32F7xx_HAL_Driver/Src/stm32f7xx_ll_usb.c ****   USB_HS_PHYC->USB_HS_PHYC_PLL |= USB_HS_PHYC_PLL_PLLEN;
1290:Drivers/STM32F7xx_HAL_Driver/Src/stm32f7xx_ll_usb.c **** 
1291:Drivers/STM32F7xx_HAL_Driver/Src/stm32f7xx_ll_usb.c ****   /* 2ms Delay required to get internal phy clock stable */
1292:Drivers/STM32F7xx_HAL_Driver/Src/stm32f7xx_ll_usb.c ****   HAL_Delay(2);
1293:Drivers/STM32F7xx_HAL_Driver/Src/stm32f7xx_ll_usb.c **** 
1294:Drivers/STM32F7xx_HAL_Driver/Src/stm32f7xx_ll_usb.c ****   return HAL_OK;
1295:Drivers/STM32F7xx_HAL_Driver/Src/stm32f7xx_ll_usb.c **** }
1296:Drivers/STM32F7xx_HAL_Driver/Src/stm32f7xx_ll_usb.c **** 
1297:Drivers/STM32F7xx_HAL_Driver/Src/stm32f7xx_ll_usb.c **** #endif /* USB_HS_PHYC */
ARM GAS  C:\Users\Patryk\AppData\Local\Temp\cc5QRopf.s 			page 72


1298:Drivers/STM32F7xx_HAL_Driver/Src/stm32f7xx_ll_usb.c **** /**
1299:Drivers/STM32F7xx_HAL_Driver/Src/stm32f7xx_ll_usb.c ****   * @brief  USB_HostInit : Initializes the USB OTG controller registers
1300:Drivers/STM32F7xx_HAL_Driver/Src/stm32f7xx_ll_usb.c ****   *         for Host mode
1301:Drivers/STM32F7xx_HAL_Driver/Src/stm32f7xx_ll_usb.c ****   * @param  USBx  Selected device
1302:Drivers/STM32F7xx_HAL_Driver/Src/stm32f7xx_ll_usb.c ****   * @param  cfg   pointer to a USB_OTG_CfgTypeDef structure that contains
1303:Drivers/STM32F7xx_HAL_Driver/Src/stm32f7xx_ll_usb.c ****   *         the configuration information for the specified USBx peripheral.
1304:Drivers/STM32F7xx_HAL_Driver/Src/stm32f7xx_ll_usb.c ****   * @retval HAL status
1305:Drivers/STM32F7xx_HAL_Driver/Src/stm32f7xx_ll_usb.c ****   */
1306:Drivers/STM32F7xx_HAL_Driver/Src/stm32f7xx_ll_usb.c **** HAL_StatusTypeDef USB_HostInit (USB_OTG_GlobalTypeDef *USBx, USB_OTG_CfgTypeDef cfg)
1307:Drivers/STM32F7xx_HAL_Driver/Src/stm32f7xx_ll_usb.c **** {
1308:Drivers/STM32F7xx_HAL_Driver/Src/stm32f7xx_ll_usb.c ****   uint32_t USBx_BASE = (uint32_t)USBx;
1309:Drivers/STM32F7xx_HAL_Driver/Src/stm32f7xx_ll_usb.c ****   uint32_t i;
1310:Drivers/STM32F7xx_HAL_Driver/Src/stm32f7xx_ll_usb.c **** 
1311:Drivers/STM32F7xx_HAL_Driver/Src/stm32f7xx_ll_usb.c ****   /* Restart the Phy Clock */
1312:Drivers/STM32F7xx_HAL_Driver/Src/stm32f7xx_ll_usb.c ****   USBx_PCGCCTL = 0U;
1313:Drivers/STM32F7xx_HAL_Driver/Src/stm32f7xx_ll_usb.c **** 
1314:Drivers/STM32F7xx_HAL_Driver/Src/stm32f7xx_ll_usb.c ****   /* Disable VBUS sensing */
1315:Drivers/STM32F7xx_HAL_Driver/Src/stm32f7xx_ll_usb.c ****   USBx->GCCFG &= ~(USB_OTG_GCCFG_VBDEN);
1316:Drivers/STM32F7xx_HAL_Driver/Src/stm32f7xx_ll_usb.c **** 
1317:Drivers/STM32F7xx_HAL_Driver/Src/stm32f7xx_ll_usb.c ****   /* Disable the FS/LS support mode only */
1318:Drivers/STM32F7xx_HAL_Driver/Src/stm32f7xx_ll_usb.c ****   if ((cfg.speed == USB_OTG_SPEED_FULL) && (USBx != USB_OTG_FS))
1319:Drivers/STM32F7xx_HAL_Driver/Src/stm32f7xx_ll_usb.c ****   {
1320:Drivers/STM32F7xx_HAL_Driver/Src/stm32f7xx_ll_usb.c ****     USBx_HOST->HCFG |= USB_OTG_HCFG_FSLSS;
1321:Drivers/STM32F7xx_HAL_Driver/Src/stm32f7xx_ll_usb.c ****   }
1322:Drivers/STM32F7xx_HAL_Driver/Src/stm32f7xx_ll_usb.c ****   else
1323:Drivers/STM32F7xx_HAL_Driver/Src/stm32f7xx_ll_usb.c ****   {
1324:Drivers/STM32F7xx_HAL_Driver/Src/stm32f7xx_ll_usb.c ****     USBx_HOST->HCFG &= ~(USB_OTG_HCFG_FSLSS);
1325:Drivers/STM32F7xx_HAL_Driver/Src/stm32f7xx_ll_usb.c ****   }
1326:Drivers/STM32F7xx_HAL_Driver/Src/stm32f7xx_ll_usb.c **** 
1327:Drivers/STM32F7xx_HAL_Driver/Src/stm32f7xx_ll_usb.c ****   /* Make sure the FIFOs are flushed. */
1328:Drivers/STM32F7xx_HAL_Driver/Src/stm32f7xx_ll_usb.c ****   (void)USB_FlushTxFifo(USBx, 0x10U); /* all Tx FIFOs */
1329:Drivers/STM32F7xx_HAL_Driver/Src/stm32f7xx_ll_usb.c ****   (void)USB_FlushRxFifo(USBx);
1330:Drivers/STM32F7xx_HAL_Driver/Src/stm32f7xx_ll_usb.c **** 
1331:Drivers/STM32F7xx_HAL_Driver/Src/stm32f7xx_ll_usb.c ****   /* Clear all pending HC Interrupts */
1332:Drivers/STM32F7xx_HAL_Driver/Src/stm32f7xx_ll_usb.c ****   for (i = 0U; i < cfg.Host_channels; i++)
1333:Drivers/STM32F7xx_HAL_Driver/Src/stm32f7xx_ll_usb.c ****   {
1334:Drivers/STM32F7xx_HAL_Driver/Src/stm32f7xx_ll_usb.c ****     USBx_HC(i)->HCINT = 0xFFFFFFFFU;
1335:Drivers/STM32F7xx_HAL_Driver/Src/stm32f7xx_ll_usb.c ****     USBx_HC(i)->HCINTMSK = 0U;
1336:Drivers/STM32F7xx_HAL_Driver/Src/stm32f7xx_ll_usb.c ****   }
1337:Drivers/STM32F7xx_HAL_Driver/Src/stm32f7xx_ll_usb.c **** 
1338:Drivers/STM32F7xx_HAL_Driver/Src/stm32f7xx_ll_usb.c ****   /* Enable VBUS driving */
1339:Drivers/STM32F7xx_HAL_Driver/Src/stm32f7xx_ll_usb.c ****   (void)USB_DriveVbus(USBx, 1U);
1340:Drivers/STM32F7xx_HAL_Driver/Src/stm32f7xx_ll_usb.c **** 
1341:Drivers/STM32F7xx_HAL_Driver/Src/stm32f7xx_ll_usb.c ****   HAL_Delay(200U);
1342:Drivers/STM32F7xx_HAL_Driver/Src/stm32f7xx_ll_usb.c **** 
1343:Drivers/STM32F7xx_HAL_Driver/Src/stm32f7xx_ll_usb.c ****   /* Disable all interrupts. */
1344:Drivers/STM32F7xx_HAL_Driver/Src/stm32f7xx_ll_usb.c ****   USBx->GINTMSK = 0U;
1345:Drivers/STM32F7xx_HAL_Driver/Src/stm32f7xx_ll_usb.c **** 
1346:Drivers/STM32F7xx_HAL_Driver/Src/stm32f7xx_ll_usb.c ****   /* Clear any pending interrupts */
1347:Drivers/STM32F7xx_HAL_Driver/Src/stm32f7xx_ll_usb.c ****   USBx->GINTSTS = 0xFFFFFFFFU;
1348:Drivers/STM32F7xx_HAL_Driver/Src/stm32f7xx_ll_usb.c **** 
1349:Drivers/STM32F7xx_HAL_Driver/Src/stm32f7xx_ll_usb.c ****   if(USBx == USB_OTG_FS)
1350:Drivers/STM32F7xx_HAL_Driver/Src/stm32f7xx_ll_usb.c ****   {
1351:Drivers/STM32F7xx_HAL_Driver/Src/stm32f7xx_ll_usb.c ****     /* set Rx FIFO size */
1352:Drivers/STM32F7xx_HAL_Driver/Src/stm32f7xx_ll_usb.c ****     USBx->GRXFSIZ  = 0x80U;
1353:Drivers/STM32F7xx_HAL_Driver/Src/stm32f7xx_ll_usb.c ****     USBx->DIEPTXF0_HNPTXFSIZ = (uint32_t )(((0x60U << 16) & USB_OTG_NPTXFD) | 0x80U);
1354:Drivers/STM32F7xx_HAL_Driver/Src/stm32f7xx_ll_usb.c ****     USBx->HPTXFSIZ = (uint32_t )(((0x40U << 16)& USB_OTG_HPTXFSIZ_PTXFD) | 0xE0U);
ARM GAS  C:\Users\Patryk\AppData\Local\Temp\cc5QRopf.s 			page 73


1355:Drivers/STM32F7xx_HAL_Driver/Src/stm32f7xx_ll_usb.c ****   }
1356:Drivers/STM32F7xx_HAL_Driver/Src/stm32f7xx_ll_usb.c ****   else
1357:Drivers/STM32F7xx_HAL_Driver/Src/stm32f7xx_ll_usb.c ****   {
1358:Drivers/STM32F7xx_HAL_Driver/Src/stm32f7xx_ll_usb.c ****     /* set Rx FIFO size */
1359:Drivers/STM32F7xx_HAL_Driver/Src/stm32f7xx_ll_usb.c ****     USBx->GRXFSIZ  = 0x200U;
1360:Drivers/STM32F7xx_HAL_Driver/Src/stm32f7xx_ll_usb.c ****     USBx->DIEPTXF0_HNPTXFSIZ = (uint32_t )(((0x100U << 16) & USB_OTG_NPTXFD) | 0x200U);
1361:Drivers/STM32F7xx_HAL_Driver/Src/stm32f7xx_ll_usb.c ****     USBx->HPTXFSIZ = (uint32_t )(((0xE0U << 16) & USB_OTG_HPTXFSIZ_PTXFD) | 0x300U);
1362:Drivers/STM32F7xx_HAL_Driver/Src/stm32f7xx_ll_usb.c ****   }
1363:Drivers/STM32F7xx_HAL_Driver/Src/stm32f7xx_ll_usb.c **** 
1364:Drivers/STM32F7xx_HAL_Driver/Src/stm32f7xx_ll_usb.c ****   /* Enable the common interrupts */
1365:Drivers/STM32F7xx_HAL_Driver/Src/stm32f7xx_ll_usb.c ****   if (cfg.dma_enable == 0U)
1366:Drivers/STM32F7xx_HAL_Driver/Src/stm32f7xx_ll_usb.c ****   {
1367:Drivers/STM32F7xx_HAL_Driver/Src/stm32f7xx_ll_usb.c ****     USBx->GINTMSK |= USB_OTG_GINTMSK_RXFLVLM;
1368:Drivers/STM32F7xx_HAL_Driver/Src/stm32f7xx_ll_usb.c ****   }
1369:Drivers/STM32F7xx_HAL_Driver/Src/stm32f7xx_ll_usb.c **** 
1370:Drivers/STM32F7xx_HAL_Driver/Src/stm32f7xx_ll_usb.c ****   /* Enable interrupts matching to the Host mode ONLY */
1371:Drivers/STM32F7xx_HAL_Driver/Src/stm32f7xx_ll_usb.c ****   USBx->GINTMSK |= (USB_OTG_GINTMSK_PRTIM            | USB_OTG_GINTMSK_HCIM |\
1372:Drivers/STM32F7xx_HAL_Driver/Src/stm32f7xx_ll_usb.c ****                     USB_OTG_GINTMSK_SOFM             | USB_OTG_GINTSTS_DISCINT|\
1373:Drivers/STM32F7xx_HAL_Driver/Src/stm32f7xx_ll_usb.c ****                     USB_OTG_GINTMSK_PXFRM_IISOOXFRM  | USB_OTG_GINTMSK_WUIM);
1374:Drivers/STM32F7xx_HAL_Driver/Src/stm32f7xx_ll_usb.c **** 
1375:Drivers/STM32F7xx_HAL_Driver/Src/stm32f7xx_ll_usb.c ****   return HAL_OK;
1376:Drivers/STM32F7xx_HAL_Driver/Src/stm32f7xx_ll_usb.c **** }
1377:Drivers/STM32F7xx_HAL_Driver/Src/stm32f7xx_ll_usb.c **** 
1378:Drivers/STM32F7xx_HAL_Driver/Src/stm32f7xx_ll_usb.c **** /**
1379:Drivers/STM32F7xx_HAL_Driver/Src/stm32f7xx_ll_usb.c ****   * @brief  USB_InitFSLSPClkSel : Initializes the FSLSPClkSel field of the
1380:Drivers/STM32F7xx_HAL_Driver/Src/stm32f7xx_ll_usb.c ****   *         HCFG register on the PHY type and set the right frame interval
1381:Drivers/STM32F7xx_HAL_Driver/Src/stm32f7xx_ll_usb.c ****   * @param  USBx  Selected device
1382:Drivers/STM32F7xx_HAL_Driver/Src/stm32f7xx_ll_usb.c ****   * @param  freq  clock frequency
1383:Drivers/STM32F7xx_HAL_Driver/Src/stm32f7xx_ll_usb.c ****   *          This parameter can be one of these values:
1384:Drivers/STM32F7xx_HAL_Driver/Src/stm32f7xx_ll_usb.c ****   *           HCFG_48_MHZ : Full Speed 48 MHz Clock
1385:Drivers/STM32F7xx_HAL_Driver/Src/stm32f7xx_ll_usb.c ****   *           HCFG_6_MHZ : Low Speed 6 MHz Clock
1386:Drivers/STM32F7xx_HAL_Driver/Src/stm32f7xx_ll_usb.c ****   * @retval HAL status
1387:Drivers/STM32F7xx_HAL_Driver/Src/stm32f7xx_ll_usb.c ****   */
1388:Drivers/STM32F7xx_HAL_Driver/Src/stm32f7xx_ll_usb.c **** HAL_StatusTypeDef USB_InitFSLSPClkSel(USB_OTG_GlobalTypeDef *USBx , uint8_t freq)
1389:Drivers/STM32F7xx_HAL_Driver/Src/stm32f7xx_ll_usb.c **** {
 2466              		.loc 1 1389 0
 2467              		.cfi_startproc
 2468              		@ args = 0, pretend = 0, frame = 0
 2469              		@ frame_needed = 0, uses_anonymous_args = 0
 2470              		@ link register save eliminated.
 2471              	.LVL245:
 2472 0000 10B4     		push	{r4}
 2473              	.LCFI39:
 2474              		.cfi_def_cfa_offset 4
 2475              		.cfi_offset 4, -4
 2476              	.LVL246:
1390:Drivers/STM32F7xx_HAL_Driver/Src/stm32f7xx_ll_usb.c ****   uint32_t USBx_BASE = (uint32_t)USBx;
1391:Drivers/STM32F7xx_HAL_Driver/Src/stm32f7xx_ll_usb.c **** 
1392:Drivers/STM32F7xx_HAL_Driver/Src/stm32f7xx_ll_usb.c ****   USBx_HOST->HCFG &= ~(USB_OTG_HCFG_FSLSPCS);
 2477              		.loc 1 1392 0
 2478 0002 00F58064 		add	r4, r0, #1024
 2479 0006 D0F80034 		ldr	r3, [r0, #1024]
 2480 000a 23F00303 		bic	r3, r3, #3
 2481 000e C0F80034 		str	r3, [r0, #1024]
1393:Drivers/STM32F7xx_HAL_Driver/Src/stm32f7xx_ll_usb.c ****   USBx_HOST->HCFG |= (uint32_t)freq & USB_OTG_HCFG_FSLSPCS;
 2482              		.loc 1 1393 0
 2483 0012 D0F80034 		ldr	r3, [r0, #1024]
ARM GAS  C:\Users\Patryk\AppData\Local\Temp\cc5QRopf.s 			page 74


 2484 0016 01F00302 		and	r2, r1, #3
 2485 001a 1343     		orrs	r3, r3, r2
 2486 001c C0F80034 		str	r3, [r0, #1024]
1394:Drivers/STM32F7xx_HAL_Driver/Src/stm32f7xx_ll_usb.c **** 
1395:Drivers/STM32F7xx_HAL_Driver/Src/stm32f7xx_ll_usb.c ****   if (freq == HCFG_48_MHZ)
 2487              		.loc 1 1395 0
 2488 0020 0129     		cmp	r1, #1
 2489 0022 05D0     		beq	.L200
1396:Drivers/STM32F7xx_HAL_Driver/Src/stm32f7xx_ll_usb.c ****   {
1397:Drivers/STM32F7xx_HAL_Driver/Src/stm32f7xx_ll_usb.c ****     USBx_HOST->HFIR = 48000U;
1398:Drivers/STM32F7xx_HAL_Driver/Src/stm32f7xx_ll_usb.c ****   }
1399:Drivers/STM32F7xx_HAL_Driver/Src/stm32f7xx_ll_usb.c ****   else if (freq == HCFG_6_MHZ)
 2490              		.loc 1 1399 0
 2491 0024 0229     		cmp	r1, #2
 2492 0026 07D0     		beq	.L201
 2493              	.L198:
1400:Drivers/STM32F7xx_HAL_Driver/Src/stm32f7xx_ll_usb.c ****   {
1401:Drivers/STM32F7xx_HAL_Driver/Src/stm32f7xx_ll_usb.c ****     USBx_HOST->HFIR = 6000U;
1402:Drivers/STM32F7xx_HAL_Driver/Src/stm32f7xx_ll_usb.c ****   }
1403:Drivers/STM32F7xx_HAL_Driver/Src/stm32f7xx_ll_usb.c ****   else
1404:Drivers/STM32F7xx_HAL_Driver/Src/stm32f7xx_ll_usb.c ****   {
1405:Drivers/STM32F7xx_HAL_Driver/Src/stm32f7xx_ll_usb.c ****      /* ... */
1406:Drivers/STM32F7xx_HAL_Driver/Src/stm32f7xx_ll_usb.c ****   }
1407:Drivers/STM32F7xx_HAL_Driver/Src/stm32f7xx_ll_usb.c **** 
1408:Drivers/STM32F7xx_HAL_Driver/Src/stm32f7xx_ll_usb.c ****   return HAL_OK;
1409:Drivers/STM32F7xx_HAL_Driver/Src/stm32f7xx_ll_usb.c **** }
 2494              		.loc 1 1409 0
 2495 0028 0020     		movs	r0, #0
 2496              	.LVL247:
 2497 002a 5DF8044B 		ldr	r4, [sp], #4
 2498              	.LCFI40:
 2499              		.cfi_remember_state
 2500              		.cfi_restore 4
 2501              		.cfi_def_cfa_offset 0
 2502              	.LVL248:
 2503 002e 7047     		bx	lr
 2504              	.LVL249:
 2505              	.L200:
 2506              	.LCFI41:
 2507              		.cfi_restore_state
1397:Drivers/STM32F7xx_HAL_Driver/Src/stm32f7xx_ll_usb.c ****   }
 2508              		.loc 1 1397 0
 2509 0030 4BF68033 		movw	r3, #48000
 2510 0034 6360     		str	r3, [r4, #4]
 2511 0036 F7E7     		b	.L198
 2512              	.L201:
1401:Drivers/STM32F7xx_HAL_Driver/Src/stm32f7xx_ll_usb.c ****   }
 2513              		.loc 1 1401 0
 2514 0038 41F27073 		movw	r3, #6000
 2515 003c 6360     		str	r3, [r4, #4]
 2516 003e F3E7     		b	.L198
 2517              		.cfi_endproc
 2518              	.LFE172:
 2520              		.section	.text.USB_ResetPort,"ax",%progbits
 2521              		.align	1
 2522              		.global	USB_ResetPort
 2523              		.syntax unified
ARM GAS  C:\Users\Patryk\AppData\Local\Temp\cc5QRopf.s 			page 75


 2524              		.thumb
 2525              		.thumb_func
 2526              		.fpu fpv5-sp-d16
 2528              	USB_ResetPort:
 2529              	.LFB173:
1410:Drivers/STM32F7xx_HAL_Driver/Src/stm32f7xx_ll_usb.c **** 
1411:Drivers/STM32F7xx_HAL_Driver/Src/stm32f7xx_ll_usb.c **** /**
1412:Drivers/STM32F7xx_HAL_Driver/Src/stm32f7xx_ll_usb.c **** * @brief  USB_OTG_ResetPort : Reset Host Port
1413:Drivers/STM32F7xx_HAL_Driver/Src/stm32f7xx_ll_usb.c ****   * @param  USBx  Selected device
1414:Drivers/STM32F7xx_HAL_Driver/Src/stm32f7xx_ll_usb.c ****   * @retval HAL status
1415:Drivers/STM32F7xx_HAL_Driver/Src/stm32f7xx_ll_usb.c ****   * @note (1)The application must wait at least 10 ms
1416:Drivers/STM32F7xx_HAL_Driver/Src/stm32f7xx_ll_usb.c ****   *   before clearing the reset bit.
1417:Drivers/STM32F7xx_HAL_Driver/Src/stm32f7xx_ll_usb.c ****   */
1418:Drivers/STM32F7xx_HAL_Driver/Src/stm32f7xx_ll_usb.c **** HAL_StatusTypeDef USB_ResetPort(USB_OTG_GlobalTypeDef *USBx)
1419:Drivers/STM32F7xx_HAL_Driver/Src/stm32f7xx_ll_usb.c **** {
 2530              		.loc 1 1419 0
 2531              		.cfi_startproc
 2532              		@ args = 0, pretend = 0, frame = 8
 2533              		@ frame_needed = 0, uses_anonymous_args = 0
 2534              	.LVL250:
 2535 0000 30B5     		push	{r4, r5, lr}
 2536              	.LCFI42:
 2537              		.cfi_def_cfa_offset 12
 2538              		.cfi_offset 4, -12
 2539              		.cfi_offset 5, -8
 2540              		.cfi_offset 14, -4
 2541 0002 83B0     		sub	sp, sp, #12
 2542              	.LCFI43:
 2543              		.cfi_def_cfa_offset 24
 2544 0004 0446     		mov	r4, r0
 2545              	.LVL251:
1420:Drivers/STM32F7xx_HAL_Driver/Src/stm32f7xx_ll_usb.c ****   uint32_t USBx_BASE = (uint32_t)USBx;
1421:Drivers/STM32F7xx_HAL_Driver/Src/stm32f7xx_ll_usb.c **** 
1422:Drivers/STM32F7xx_HAL_Driver/Src/stm32f7xx_ll_usb.c ****   __IO uint32_t hprt0 = 0U;
 2546              		.loc 1 1422 0
 2547 0006 0025     		movs	r5, #0
 2548 0008 0195     		str	r5, [sp, #4]
1423:Drivers/STM32F7xx_HAL_Driver/Src/stm32f7xx_ll_usb.c **** 
1424:Drivers/STM32F7xx_HAL_Driver/Src/stm32f7xx_ll_usb.c ****   hprt0 = USBx_HPRT0;
 2549              		.loc 1 1424 0
 2550 000a D0F84034 		ldr	r3, [r0, #1088]
 2551 000e 0193     		str	r3, [sp, #4]
1425:Drivers/STM32F7xx_HAL_Driver/Src/stm32f7xx_ll_usb.c **** 
1426:Drivers/STM32F7xx_HAL_Driver/Src/stm32f7xx_ll_usb.c ****   hprt0 &= ~(USB_OTG_HPRT_PENA | USB_OTG_HPRT_PCDET |
 2552              		.loc 1 1426 0
 2553 0010 019B     		ldr	r3, [sp, #4]
 2554 0012 23F02E03 		bic	r3, r3, #46
 2555 0016 0193     		str	r3, [sp, #4]
1427:Drivers/STM32F7xx_HAL_Driver/Src/stm32f7xx_ll_usb.c ****              USB_OTG_HPRT_PENCHNG | USB_OTG_HPRT_POCCHNG);
1428:Drivers/STM32F7xx_HAL_Driver/Src/stm32f7xx_ll_usb.c **** 
1429:Drivers/STM32F7xx_HAL_Driver/Src/stm32f7xx_ll_usb.c ****   USBx_HPRT0 = (USB_OTG_HPRT_PRST | hprt0);
 2556              		.loc 1 1429 0
 2557 0018 019B     		ldr	r3, [sp, #4]
 2558 001a 43F48073 		orr	r3, r3, #256
 2559 001e C0F84034 		str	r3, [r0, #1088]
1430:Drivers/STM32F7xx_HAL_Driver/Src/stm32f7xx_ll_usb.c ****   HAL_Delay (100U);                                /* See Note #1 */
 2560              		.loc 1 1430 0
ARM GAS  C:\Users\Patryk\AppData\Local\Temp\cc5QRopf.s 			page 76


 2561 0022 6420     		movs	r0, #100
 2562              	.LVL252:
 2563 0024 FFF7FEFF 		bl	HAL_Delay
 2564              	.LVL253:
1431:Drivers/STM32F7xx_HAL_Driver/Src/stm32f7xx_ll_usb.c ****   USBx_HPRT0 = ((~USB_OTG_HPRT_PRST) & hprt0);
 2565              		.loc 1 1431 0
 2566 0028 019B     		ldr	r3, [sp, #4]
 2567 002a 23F48073 		bic	r3, r3, #256
 2568 002e C4F84034 		str	r3, [r4, #1088]
1432:Drivers/STM32F7xx_HAL_Driver/Src/stm32f7xx_ll_usb.c ****   HAL_Delay (10U);
 2569              		.loc 1 1432 0
 2570 0032 0A20     		movs	r0, #10
 2571 0034 FFF7FEFF 		bl	HAL_Delay
 2572              	.LVL254:
1433:Drivers/STM32F7xx_HAL_Driver/Src/stm32f7xx_ll_usb.c **** 
1434:Drivers/STM32F7xx_HAL_Driver/Src/stm32f7xx_ll_usb.c ****   return HAL_OK;
1435:Drivers/STM32F7xx_HAL_Driver/Src/stm32f7xx_ll_usb.c **** }
 2573              		.loc 1 1435 0
 2574 0038 2846     		mov	r0, r5
 2575 003a 03B0     		add	sp, sp, #12
 2576              	.LCFI44:
 2577              		.cfi_def_cfa_offset 12
 2578              		@ sp needed
 2579 003c 30BD     		pop	{r4, r5, pc}
 2580              		.cfi_endproc
 2581              	.LFE173:
 2583              		.section	.text.USB_DriveVbus,"ax",%progbits
 2584              		.align	1
 2585              		.global	USB_DriveVbus
 2586              		.syntax unified
 2587              		.thumb
 2588              		.thumb_func
 2589              		.fpu fpv5-sp-d16
 2591              	USB_DriveVbus:
 2592              	.LFB174:
1436:Drivers/STM32F7xx_HAL_Driver/Src/stm32f7xx_ll_usb.c **** 
1437:Drivers/STM32F7xx_HAL_Driver/Src/stm32f7xx_ll_usb.c **** /**
1438:Drivers/STM32F7xx_HAL_Driver/Src/stm32f7xx_ll_usb.c ****   * @brief  USB_DriveVbus : activate or de-activate vbus
1439:Drivers/STM32F7xx_HAL_Driver/Src/stm32f7xx_ll_usb.c ****   * @param  state  VBUS state
1440:Drivers/STM32F7xx_HAL_Driver/Src/stm32f7xx_ll_usb.c ****   *          This parameter can be one of these values:
1441:Drivers/STM32F7xx_HAL_Driver/Src/stm32f7xx_ll_usb.c ****   *           0 : VBUS Active
1442:Drivers/STM32F7xx_HAL_Driver/Src/stm32f7xx_ll_usb.c ****   *           1 : VBUS Inactive
1443:Drivers/STM32F7xx_HAL_Driver/Src/stm32f7xx_ll_usb.c ****   * @retval HAL status
1444:Drivers/STM32F7xx_HAL_Driver/Src/stm32f7xx_ll_usb.c **** */
1445:Drivers/STM32F7xx_HAL_Driver/Src/stm32f7xx_ll_usb.c **** HAL_StatusTypeDef USB_DriveVbus (USB_OTG_GlobalTypeDef *USBx, uint8_t state)
1446:Drivers/STM32F7xx_HAL_Driver/Src/stm32f7xx_ll_usb.c **** {
 2593              		.loc 1 1446 0
 2594              		.cfi_startproc
 2595              		@ args = 0, pretend = 0, frame = 8
 2596              		@ frame_needed = 0, uses_anonymous_args = 0
 2597              		@ link register save eliminated.
 2598              	.LVL255:
 2599 0000 82B0     		sub	sp, sp, #8
 2600              	.LCFI45:
 2601              		.cfi_def_cfa_offset 8
 2602              	.LVL256:
1447:Drivers/STM32F7xx_HAL_Driver/Src/stm32f7xx_ll_usb.c ****   uint32_t USBx_BASE = (uint32_t)USBx;
ARM GAS  C:\Users\Patryk\AppData\Local\Temp\cc5QRopf.s 			page 77


1448:Drivers/STM32F7xx_HAL_Driver/Src/stm32f7xx_ll_usb.c ****   __IO uint32_t hprt0 = 0U;
 2603              		.loc 1 1448 0
 2604 0002 0023     		movs	r3, #0
 2605 0004 0193     		str	r3, [sp, #4]
1449:Drivers/STM32F7xx_HAL_Driver/Src/stm32f7xx_ll_usb.c **** 
1450:Drivers/STM32F7xx_HAL_Driver/Src/stm32f7xx_ll_usb.c ****   hprt0 = USBx_HPRT0;
 2606              		.loc 1 1450 0
 2607 0006 D0F84034 		ldr	r3, [r0, #1088]
 2608 000a 0193     		str	r3, [sp, #4]
1451:Drivers/STM32F7xx_HAL_Driver/Src/stm32f7xx_ll_usb.c **** 
1452:Drivers/STM32F7xx_HAL_Driver/Src/stm32f7xx_ll_usb.c ****   hprt0 &= ~(USB_OTG_HPRT_PENA | USB_OTG_HPRT_PCDET |
 2609              		.loc 1 1452 0
 2610 000c 019B     		ldr	r3, [sp, #4]
 2611 000e 23F02E03 		bic	r3, r3, #46
 2612 0012 0193     		str	r3, [sp, #4]
1453:Drivers/STM32F7xx_HAL_Driver/Src/stm32f7xx_ll_usb.c ****              USB_OTG_HPRT_PENCHNG | USB_OTG_HPRT_POCCHNG);
1454:Drivers/STM32F7xx_HAL_Driver/Src/stm32f7xx_ll_usb.c **** 
1455:Drivers/STM32F7xx_HAL_Driver/Src/stm32f7xx_ll_usb.c ****   if (((hprt0 & USB_OTG_HPRT_PPWR) == 0U) && (state == 1U))
 2613              		.loc 1 1455 0
 2614 0014 019B     		ldr	r3, [sp, #4]
 2615 0016 13F4805F 		tst	r3, #4096
 2616 001a 01D1     		bne	.L205
 2617              		.loc 1 1455 0 is_stmt 0 discriminator 1
 2618 001c 0129     		cmp	r1, #1
 2619 001e 0CD0     		beq	.L208
 2620              	.L205:
1456:Drivers/STM32F7xx_HAL_Driver/Src/stm32f7xx_ll_usb.c ****   {
1457:Drivers/STM32F7xx_HAL_Driver/Src/stm32f7xx_ll_usb.c ****     USBx_HPRT0 = (USB_OTG_HPRT_PPWR | hprt0);
1458:Drivers/STM32F7xx_HAL_Driver/Src/stm32f7xx_ll_usb.c ****   }
1459:Drivers/STM32F7xx_HAL_Driver/Src/stm32f7xx_ll_usb.c ****   if (((hprt0 & USB_OTG_HPRT_PPWR) == USB_OTG_HPRT_PPWR) && (state == 0U))
 2621              		.loc 1 1459 0 is_stmt 1
 2622 0020 019B     		ldr	r3, [sp, #4]
 2623 0022 13F4805F 		tst	r3, #4096
 2624 0026 05D0     		beq	.L206
 2625              		.loc 1 1459 0 is_stmt 0 discriminator 1
 2626 0028 21B9     		cbnz	r1, .L206
1460:Drivers/STM32F7xx_HAL_Driver/Src/stm32f7xx_ll_usb.c ****   {
1461:Drivers/STM32F7xx_HAL_Driver/Src/stm32f7xx_ll_usb.c ****     USBx_HPRT0 = ((~USB_OTG_HPRT_PPWR) & hprt0);
 2627              		.loc 1 1461 0 is_stmt 1
 2628 002a 019B     		ldr	r3, [sp, #4]
 2629 002c 23F48053 		bic	r3, r3, #4096
 2630 0030 C0F84034 		str	r3, [r0, #1088]
 2631              	.L206:
1462:Drivers/STM32F7xx_HAL_Driver/Src/stm32f7xx_ll_usb.c ****   }
1463:Drivers/STM32F7xx_HAL_Driver/Src/stm32f7xx_ll_usb.c ****   return HAL_OK;
1464:Drivers/STM32F7xx_HAL_Driver/Src/stm32f7xx_ll_usb.c **** }
 2632              		.loc 1 1464 0
 2633 0034 0020     		movs	r0, #0
 2634              	.LVL257:
 2635 0036 02B0     		add	sp, sp, #8
 2636              	.LCFI46:
 2637              		.cfi_remember_state
 2638              		.cfi_def_cfa_offset 0
 2639              		@ sp needed
 2640 0038 7047     		bx	lr
 2641              	.LVL258:
 2642              	.L208:
ARM GAS  C:\Users\Patryk\AppData\Local\Temp\cc5QRopf.s 			page 78


 2643              	.LCFI47:
 2644              		.cfi_restore_state
1457:Drivers/STM32F7xx_HAL_Driver/Src/stm32f7xx_ll_usb.c ****   }
 2645              		.loc 1 1457 0
 2646 003a 019B     		ldr	r3, [sp, #4]
 2647 003c 43F48053 		orr	r3, r3, #4096
 2648 0040 C0F84034 		str	r3, [r0, #1088]
 2649 0044 ECE7     		b	.L205
 2650              		.cfi_endproc
 2651              	.LFE174:
 2653              		.section	.text.USB_HostInit,"ax",%progbits
 2654              		.align	1
 2655              		.global	USB_HostInit
 2656              		.syntax unified
 2657              		.thumb
 2658              		.thumb_func
 2659              		.fpu fpv5-sp-d16
 2661              	USB_HostInit:
 2662              	.LFB171:
1307:Drivers/STM32F7xx_HAL_Driver/Src/stm32f7xx_ll_usb.c ****   uint32_t USBx_BASE = (uint32_t)USBx;
 2663              		.loc 1 1307 0
 2664              		.cfi_startproc
 2665              		@ args = 56, pretend = 16, frame = 0
 2666              		@ frame_needed = 0, uses_anonymous_args = 0
 2667              	.LVL259:
 2668 0000 84B0     		sub	sp, sp, #16
 2669              	.LCFI48:
 2670              		.cfi_def_cfa_offset 16
 2671 0002 38B5     		push	{r3, r4, r5, lr}
 2672              	.LCFI49:
 2673              		.cfi_def_cfa_offset 32
 2674              		.cfi_offset 3, -32
 2675              		.cfi_offset 4, -28
 2676              		.cfi_offset 5, -24
 2677              		.cfi_offset 14, -20
 2678 0004 0446     		mov	r4, r0
 2679 0006 05A8     		add	r0, sp, #20
 2680              	.LVL260:
 2681 0008 80E80E00 		stm	r0, {r1, r2, r3}
1308:Drivers/STM32F7xx_HAL_Driver/Src/stm32f7xx_ll_usb.c ****   uint32_t i;
 2682              		.loc 1 1308 0
 2683 000c 2546     		mov	r5, r4
 2684              	.LVL261:
1312:Drivers/STM32F7xx_HAL_Driver/Src/stm32f7xx_ll_usb.c **** 
 2685              		.loc 1 1312 0
 2686 000e 0023     		movs	r3, #0
 2687 0010 C4F8003E 		str	r3, [r4, #3584]
1315:Drivers/STM32F7xx_HAL_Driver/Src/stm32f7xx_ll_usb.c **** 
 2688              		.loc 1 1315 0
 2689 0014 A36B     		ldr	r3, [r4, #56]
 2690 0016 23F40013 		bic	r3, r3, #2097152
 2691 001a A363     		str	r3, [r4, #56]
1318:Drivers/STM32F7xx_HAL_Driver/Src/stm32f7xx_ll_usb.c ****   {
 2692              		.loc 1 1318 0
 2693 001c 079B     		ldr	r3, [sp, #28]
 2694 001e 032B     		cmp	r3, #3
 2695 0020 0ED0     		beq	.L218
ARM GAS  C:\Users\Patryk\AppData\Local\Temp\cc5QRopf.s 			page 79


 2696              	.L210:
1324:Drivers/STM32F7xx_HAL_Driver/Src/stm32f7xx_ll_usb.c ****   }
 2697              		.loc 1 1324 0
 2698 0022 D4F80034 		ldr	r3, [r4, #1024]
 2699 0026 23F00403 		bic	r3, r3, #4
 2700 002a C4F80034 		str	r3, [r4, #1024]
 2701              	.L211:
1328:Drivers/STM32F7xx_HAL_Driver/Src/stm32f7xx_ll_usb.c ****   (void)USB_FlushRxFifo(USBx);
 2702              		.loc 1 1328 0
 2703 002e 1021     		movs	r1, #16
 2704 0030 2046     		mov	r0, r4
 2705 0032 FFF7FEFF 		bl	USB_FlushTxFifo
 2706              	.LVL262:
1329:Drivers/STM32F7xx_HAL_Driver/Src/stm32f7xx_ll_usb.c **** 
 2707              		.loc 1 1329 0
 2708 0036 2046     		mov	r0, r4
 2709 0038 FFF7FEFF 		bl	USB_FlushRxFifo
 2710              	.LVL263:
1332:Drivers/STM32F7xx_HAL_Driver/Src/stm32f7xx_ll_usb.c ****   {
 2711              		.loc 1 1332 0
 2712 003c 0022     		movs	r2, #0
 2713 003e 13E0     		b	.L212
 2714              	.LVL264:
 2715              	.L218:
1318:Drivers/STM32F7xx_HAL_Driver/Src/stm32f7xx_ll_usb.c ****   {
 2716              		.loc 1 1318 0 discriminator 1
 2717 0040 B4F1A04F 		cmp	r4, #1342177280
 2718 0044 EDD0     		beq	.L210
1320:Drivers/STM32F7xx_HAL_Driver/Src/stm32f7xx_ll_usb.c ****   }
 2719              		.loc 1 1320 0
 2720 0046 D4F80034 		ldr	r3, [r4, #1024]
 2721 004a 43F00403 		orr	r3, r3, #4
 2722 004e C4F80034 		str	r3, [r4, #1024]
 2723 0052 ECE7     		b	.L211
 2724              	.LVL265:
 2725              	.L213:
1334:Drivers/STM32F7xx_HAL_Driver/Src/stm32f7xx_ll_usb.c ****     USBx_HC(i)->HCINTMSK = 0U;
 2726              		.loc 1 1334 0 discriminator 3
 2727 0054 05EB4213 		add	r3, r5, r2, lsl #5
 2728 0058 4FF0FF31 		mov	r1, #-1
 2729 005c C3F80815 		str	r1, [r3, #1288]
1335:Drivers/STM32F7xx_HAL_Driver/Src/stm32f7xx_ll_usb.c ****   }
 2730              		.loc 1 1335 0 discriminator 3
 2731 0060 0021     		movs	r1, #0
 2732 0062 C3F80C15 		str	r1, [r3, #1292]
1332:Drivers/STM32F7xx_HAL_Driver/Src/stm32f7xx_ll_usb.c ****   {
 2733              		.loc 1 1332 0 discriminator 3
 2734 0066 0132     		adds	r2, r2, #1
 2735              	.LVL266:
 2736              	.L212:
1332:Drivers/STM32F7xx_HAL_Driver/Src/stm32f7xx_ll_usb.c ****   {
 2737              		.loc 1 1332 0 is_stmt 0 discriminator 1
 2738 0068 069B     		ldr	r3, [sp, #24]
 2739 006a 9342     		cmp	r3, r2
 2740 006c F2D8     		bhi	.L213
1339:Drivers/STM32F7xx_HAL_Driver/Src/stm32f7xx_ll_usb.c **** 
 2741              		.loc 1 1339 0 is_stmt 1
ARM GAS  C:\Users\Patryk\AppData\Local\Temp\cc5QRopf.s 			page 80


 2742 006e 0121     		movs	r1, #1
 2743 0070 2046     		mov	r0, r4
 2744 0072 FFF7FEFF 		bl	USB_DriveVbus
 2745              	.LVL267:
1341:Drivers/STM32F7xx_HAL_Driver/Src/stm32f7xx_ll_usb.c **** 
 2746              		.loc 1 1341 0
 2747 0076 C820     		movs	r0, #200
 2748 0078 FFF7FEFF 		bl	HAL_Delay
 2749              	.LVL268:
1344:Drivers/STM32F7xx_HAL_Driver/Src/stm32f7xx_ll_usb.c **** 
 2750              		.loc 1 1344 0
 2751 007c 0023     		movs	r3, #0
 2752 007e A361     		str	r3, [r4, #24]
1347:Drivers/STM32F7xx_HAL_Driver/Src/stm32f7xx_ll_usb.c **** 
 2753              		.loc 1 1347 0
 2754 0080 4FF0FF33 		mov	r3, #-1
 2755 0084 6361     		str	r3, [r4, #20]
1349:Drivers/STM32F7xx_HAL_Driver/Src/stm32f7xx_ll_usb.c ****   {
 2756              		.loc 1 1349 0
 2757 0086 B4F1A04F 		cmp	r4, #1342177280
 2758 008a 17D0     		beq	.L219
1359:Drivers/STM32F7xx_HAL_Driver/Src/stm32f7xx_ll_usb.c ****     USBx->DIEPTXF0_HNPTXFSIZ = (uint32_t )(((0x100U << 16) & USB_OTG_NPTXFD) | 0x200U);
 2759              		.loc 1 1359 0
 2760 008c 4FF40073 		mov	r3, #512
 2761 0090 6362     		str	r3, [r4, #36]
1360:Drivers/STM32F7xx_HAL_Driver/Src/stm32f7xx_ll_usb.c ****     USBx->HPTXFSIZ = (uint32_t )(((0xE0U << 16) & USB_OTG_HPTXFSIZ_PTXFD) | 0x300U);
 2762              		.loc 1 1360 0
 2763 0092 03F18073 		add	r3, r3, #16777216
 2764 0096 A362     		str	r3, [r4, #40]
1361:Drivers/STM32F7xx_HAL_Driver/Src/stm32f7xx_ll_usb.c ****   }
 2765              		.loc 1 1361 0
 2766 0098 0D4B     		ldr	r3, .L220
 2767 009a C4F80031 		str	r3, [r4, #256]
 2768              	.L215:
1365:Drivers/STM32F7xx_HAL_Driver/Src/stm32f7xx_ll_usb.c ****   {
 2769              		.loc 1 1365 0
 2770 009e 089B     		ldr	r3, [sp, #32]
 2771 00a0 1BB9     		cbnz	r3, .L216
1367:Drivers/STM32F7xx_HAL_Driver/Src/stm32f7xx_ll_usb.c ****   }
 2772              		.loc 1 1367 0
 2773 00a2 A369     		ldr	r3, [r4, #24]
 2774 00a4 43F01003 		orr	r3, r3, #16
 2775 00a8 A361     		str	r3, [r4, #24]
 2776              	.L216:
1371:Drivers/STM32F7xx_HAL_Driver/Src/stm32f7xx_ll_usb.c ****                     USB_OTG_GINTMSK_SOFM             | USB_OTG_GINTSTS_DISCINT|\
 2777              		.loc 1 1371 0
 2778 00aa A269     		ldr	r2, [r4, #24]
 2779 00ac 094B     		ldr	r3, .L220+4
 2780 00ae 1343     		orrs	r3, r3, r2
 2781 00b0 A361     		str	r3, [r4, #24]
1376:Drivers/STM32F7xx_HAL_Driver/Src/stm32f7xx_ll_usb.c **** 
 2782              		.loc 1 1376 0
 2783 00b2 0020     		movs	r0, #0
 2784 00b4 BDE83840 		pop	{r3, r4, r5, lr}
 2785              	.LCFI50:
 2786              		.cfi_remember_state
 2787              		.cfi_restore 14
ARM GAS  C:\Users\Patryk\AppData\Local\Temp\cc5QRopf.s 			page 81


 2788              		.cfi_restore 5
 2789              		.cfi_restore 4
 2790              		.cfi_restore 3
 2791              		.cfi_def_cfa_offset 16
 2792              	.LVL269:
 2793 00b8 04B0     		add	sp, sp, #16
 2794              	.LCFI51:
 2795              		.cfi_def_cfa_offset 0
 2796 00ba 7047     		bx	lr
 2797              	.LVL270:
 2798              	.L219:
 2799              	.LCFI52:
 2800              		.cfi_restore_state
1352:Drivers/STM32F7xx_HAL_Driver/Src/stm32f7xx_ll_usb.c ****     USBx->DIEPTXF0_HNPTXFSIZ = (uint32_t )(((0x60U << 16) & USB_OTG_NPTXFD) | 0x80U);
 2801              		.loc 1 1352 0
 2802 00bc 8023     		movs	r3, #128
 2803 00be 6362     		str	r3, [r4, #36]
1353:Drivers/STM32F7xx_HAL_Driver/Src/stm32f7xx_ll_usb.c ****     USBx->HPTXFSIZ = (uint32_t )(((0x40U << 16)& USB_OTG_HPTXFSIZ_PTXFD) | 0xE0U);
 2804              		.loc 1 1353 0
 2805 00c0 03F5C003 		add	r3, r3, #6291456
 2806 00c4 A362     		str	r3, [r4, #40]
1354:Drivers/STM32F7xx_HAL_Driver/Src/stm32f7xx_ll_usb.c ****   }
 2807              		.loc 1 1354 0
 2808 00c6 044B     		ldr	r3, .L220+8
 2809 00c8 C4F80031 		str	r3, [r4, #256]
 2810 00cc E7E7     		b	.L215
 2811              	.L221:
 2812 00ce 00BF     		.align	2
 2813              	.L220:
 2814 00d0 0003E000 		.word	14680832
 2815 00d4 080020A3 		.word	-1558183928
 2816 00d8 E0004000 		.word	4194528
 2817              		.cfi_endproc
 2818              	.LFE171:
 2820              		.section	.text.USB_GetHostSpeed,"ax",%progbits
 2821              		.align	1
 2822              		.global	USB_GetHostSpeed
 2823              		.syntax unified
 2824              		.thumb
 2825              		.thumb_func
 2826              		.fpu fpv5-sp-d16
 2828              	USB_GetHostSpeed:
 2829              	.LFB175:
1465:Drivers/STM32F7xx_HAL_Driver/Src/stm32f7xx_ll_usb.c **** 
1466:Drivers/STM32F7xx_HAL_Driver/Src/stm32f7xx_ll_usb.c **** /**
1467:Drivers/STM32F7xx_HAL_Driver/Src/stm32f7xx_ll_usb.c ****   * @brief  Return Host Core speed
1468:Drivers/STM32F7xx_HAL_Driver/Src/stm32f7xx_ll_usb.c ****   * @param  USBx  Selected device
1469:Drivers/STM32F7xx_HAL_Driver/Src/stm32f7xx_ll_usb.c ****   * @retval speed : Host speed
1470:Drivers/STM32F7xx_HAL_Driver/Src/stm32f7xx_ll_usb.c ****   *          This parameter can be one of these values:
1471:Drivers/STM32F7xx_HAL_Driver/Src/stm32f7xx_ll_usb.c ****   *            @arg USB_OTG_SPEED_HIGH: High speed mode
1472:Drivers/STM32F7xx_HAL_Driver/Src/stm32f7xx_ll_usb.c ****   *            @arg USB_OTG_SPEED_FULL: Full speed mode
1473:Drivers/STM32F7xx_HAL_Driver/Src/stm32f7xx_ll_usb.c ****   *            @arg USB_OTG_SPEED_LOW: Low speed mode
1474:Drivers/STM32F7xx_HAL_Driver/Src/stm32f7xx_ll_usb.c ****   */
1475:Drivers/STM32F7xx_HAL_Driver/Src/stm32f7xx_ll_usb.c **** uint32_t USB_GetHostSpeed (USB_OTG_GlobalTypeDef *USBx)
1476:Drivers/STM32F7xx_HAL_Driver/Src/stm32f7xx_ll_usb.c **** {
 2830              		.loc 1 1476 0
 2831              		.cfi_startproc
ARM GAS  C:\Users\Patryk\AppData\Local\Temp\cc5QRopf.s 			page 82


 2832              		@ args = 0, pretend = 0, frame = 8
 2833              		@ frame_needed = 0, uses_anonymous_args = 0
 2834              		@ link register save eliminated.
 2835              	.LVL271:
 2836 0000 82B0     		sub	sp, sp, #8
 2837              	.LCFI53:
 2838              		.cfi_def_cfa_offset 8
 2839              	.LVL272:
1477:Drivers/STM32F7xx_HAL_Driver/Src/stm32f7xx_ll_usb.c ****   uint32_t USBx_BASE = (uint32_t)USBx;
1478:Drivers/STM32F7xx_HAL_Driver/Src/stm32f7xx_ll_usb.c ****   __IO uint32_t hprt0 = 0U;
 2840              		.loc 1 1478 0
 2841 0002 0023     		movs	r3, #0
 2842 0004 0193     		str	r3, [sp, #4]
1479:Drivers/STM32F7xx_HAL_Driver/Src/stm32f7xx_ll_usb.c **** 
1480:Drivers/STM32F7xx_HAL_Driver/Src/stm32f7xx_ll_usb.c ****   hprt0 = USBx_HPRT0;
 2843              		.loc 1 1480 0
 2844 0006 D0F84034 		ldr	r3, [r0, #1088]
 2845 000a 0193     		str	r3, [sp, #4]
1481:Drivers/STM32F7xx_HAL_Driver/Src/stm32f7xx_ll_usb.c ****   return ((hprt0 & USB_OTG_HPRT_PSPD) >> 17);
 2846              		.loc 1 1481 0
 2847 000c 0198     		ldr	r0, [sp, #4]
 2848              	.LVL273:
1482:Drivers/STM32F7xx_HAL_Driver/Src/stm32f7xx_ll_usb.c **** }
 2849              		.loc 1 1482 0
 2850 000e C0F34140 		ubfx	r0, r0, #17, #2
 2851 0012 02B0     		add	sp, sp, #8
 2852              	.LCFI54:
 2853              		.cfi_def_cfa_offset 0
 2854              		@ sp needed
 2855 0014 7047     		bx	lr
 2856              		.cfi_endproc
 2857              	.LFE175:
 2859              		.section	.text.USB_GetCurrentFrame,"ax",%progbits
 2860              		.align	1
 2861              		.global	USB_GetCurrentFrame
 2862              		.syntax unified
 2863              		.thumb
 2864              		.thumb_func
 2865              		.fpu fpv5-sp-d16
 2867              	USB_GetCurrentFrame:
 2868              	.LFB176:
1483:Drivers/STM32F7xx_HAL_Driver/Src/stm32f7xx_ll_usb.c **** 
1484:Drivers/STM32F7xx_HAL_Driver/Src/stm32f7xx_ll_usb.c **** /**
1485:Drivers/STM32F7xx_HAL_Driver/Src/stm32f7xx_ll_usb.c ****   * @brief  Return Host Current Frame number
1486:Drivers/STM32F7xx_HAL_Driver/Src/stm32f7xx_ll_usb.c ****   * @param  USBx  Selected device
1487:Drivers/STM32F7xx_HAL_Driver/Src/stm32f7xx_ll_usb.c ****   * @retval current frame number
1488:Drivers/STM32F7xx_HAL_Driver/Src/stm32f7xx_ll_usb.c **** */
1489:Drivers/STM32F7xx_HAL_Driver/Src/stm32f7xx_ll_usb.c **** uint32_t USB_GetCurrentFrame (USB_OTG_GlobalTypeDef *USBx)
1490:Drivers/STM32F7xx_HAL_Driver/Src/stm32f7xx_ll_usb.c **** {
 2869              		.loc 1 1490 0
 2870              		.cfi_startproc
 2871              		@ args = 0, pretend = 0, frame = 0
 2872              		@ frame_needed = 0, uses_anonymous_args = 0
 2873              		@ link register save eliminated.
 2874              	.LVL274:
1491:Drivers/STM32F7xx_HAL_Driver/Src/stm32f7xx_ll_usb.c ****   uint32_t USBx_BASE = (uint32_t)USBx;
1492:Drivers/STM32F7xx_HAL_Driver/Src/stm32f7xx_ll_usb.c **** 
ARM GAS  C:\Users\Patryk\AppData\Local\Temp\cc5QRopf.s 			page 83


1493:Drivers/STM32F7xx_HAL_Driver/Src/stm32f7xx_ll_usb.c ****   return (USBx_HOST->HFNUM & USB_OTG_HFNUM_FRNUM);
 2875              		.loc 1 1493 0
 2876 0000 00F58060 		add	r0, r0, #1024
 2877              	.LVL275:
 2878 0004 8068     		ldr	r0, [r0, #8]
 2879              	.LVL276:
1494:Drivers/STM32F7xx_HAL_Driver/Src/stm32f7xx_ll_usb.c **** }
 2880              		.loc 1 1494 0
 2881 0006 80B2     		uxth	r0, r0
 2882 0008 7047     		bx	lr
 2883              		.cfi_endproc
 2884              	.LFE176:
 2886              		.section	.text.USB_HC_Init,"ax",%progbits
 2887              		.align	1
 2888              		.global	USB_HC_Init
 2889              		.syntax unified
 2890              		.thumb
 2891              		.thumb_func
 2892              		.fpu fpv5-sp-d16
 2894              	USB_HC_Init:
 2895              	.LFB177:
1495:Drivers/STM32F7xx_HAL_Driver/Src/stm32f7xx_ll_usb.c **** 
1496:Drivers/STM32F7xx_HAL_Driver/Src/stm32f7xx_ll_usb.c **** /**
1497:Drivers/STM32F7xx_HAL_Driver/Src/stm32f7xx_ll_usb.c ****   * @brief  Initialize a host channel
1498:Drivers/STM32F7xx_HAL_Driver/Src/stm32f7xx_ll_usb.c ****   * @param  USBx  Selected device
1499:Drivers/STM32F7xx_HAL_Driver/Src/stm32f7xx_ll_usb.c ****   * @param  ch_num  Channel number
1500:Drivers/STM32F7xx_HAL_Driver/Src/stm32f7xx_ll_usb.c ****   *         This parameter can be a value from 1 to 15
1501:Drivers/STM32F7xx_HAL_Driver/Src/stm32f7xx_ll_usb.c ****   * @param  epnum  Endpoint number
1502:Drivers/STM32F7xx_HAL_Driver/Src/stm32f7xx_ll_usb.c ****   *          This parameter can be a value from 1 to 15
1503:Drivers/STM32F7xx_HAL_Driver/Src/stm32f7xx_ll_usb.c ****   * @param  dev_address  Current device address
1504:Drivers/STM32F7xx_HAL_Driver/Src/stm32f7xx_ll_usb.c ****   *          This parameter can be a value from 0 to 255
1505:Drivers/STM32F7xx_HAL_Driver/Src/stm32f7xx_ll_usb.c ****   * @param  speed  Current device speed
1506:Drivers/STM32F7xx_HAL_Driver/Src/stm32f7xx_ll_usb.c ****   *          This parameter can be one of these values:
1507:Drivers/STM32F7xx_HAL_Driver/Src/stm32f7xx_ll_usb.c ****   *            @arg USB_OTG_SPEED_HIGH: High speed mode
1508:Drivers/STM32F7xx_HAL_Driver/Src/stm32f7xx_ll_usb.c ****   *            @arg USB_OTG_SPEED_FULL: Full speed mode
1509:Drivers/STM32F7xx_HAL_Driver/Src/stm32f7xx_ll_usb.c ****   *            @arg USB_OTG_SPEED_LOW: Low speed mode
1510:Drivers/STM32F7xx_HAL_Driver/Src/stm32f7xx_ll_usb.c ****   * @param  ep_type  Endpoint Type
1511:Drivers/STM32F7xx_HAL_Driver/Src/stm32f7xx_ll_usb.c ****   *          This parameter can be one of these values:
1512:Drivers/STM32F7xx_HAL_Driver/Src/stm32f7xx_ll_usb.c ****   *            @arg EP_TYPE_CTRL: Control type
1513:Drivers/STM32F7xx_HAL_Driver/Src/stm32f7xx_ll_usb.c ****   *            @arg EP_TYPE_ISOC: Isochronous type
1514:Drivers/STM32F7xx_HAL_Driver/Src/stm32f7xx_ll_usb.c ****   *            @arg EP_TYPE_BULK: Bulk type
1515:Drivers/STM32F7xx_HAL_Driver/Src/stm32f7xx_ll_usb.c ****   *            @arg EP_TYPE_INTR: Interrupt type
1516:Drivers/STM32F7xx_HAL_Driver/Src/stm32f7xx_ll_usb.c ****   * @param  mps  Max Packet Size
1517:Drivers/STM32F7xx_HAL_Driver/Src/stm32f7xx_ll_usb.c ****   *          This parameter can be a value from 0 to32K
1518:Drivers/STM32F7xx_HAL_Driver/Src/stm32f7xx_ll_usb.c ****   * @retval HAL state
1519:Drivers/STM32F7xx_HAL_Driver/Src/stm32f7xx_ll_usb.c ****   */
1520:Drivers/STM32F7xx_HAL_Driver/Src/stm32f7xx_ll_usb.c **** HAL_StatusTypeDef USB_HC_Init(USB_OTG_GlobalTypeDef *USBx,
1521:Drivers/STM32F7xx_HAL_Driver/Src/stm32f7xx_ll_usb.c ****                               uint8_t ch_num,
1522:Drivers/STM32F7xx_HAL_Driver/Src/stm32f7xx_ll_usb.c ****                               uint8_t epnum,
1523:Drivers/STM32F7xx_HAL_Driver/Src/stm32f7xx_ll_usb.c ****                               uint8_t dev_address,
1524:Drivers/STM32F7xx_HAL_Driver/Src/stm32f7xx_ll_usb.c ****                               uint8_t speed,
1525:Drivers/STM32F7xx_HAL_Driver/Src/stm32f7xx_ll_usb.c ****                               uint8_t ep_type,
1526:Drivers/STM32F7xx_HAL_Driver/Src/stm32f7xx_ll_usb.c ****                               uint16_t mps)
1527:Drivers/STM32F7xx_HAL_Driver/Src/stm32f7xx_ll_usb.c **** {
 2896              		.loc 1 1527 0
 2897              		.cfi_startproc
 2898              		@ args = 12, pretend = 0, frame = 0
ARM GAS  C:\Users\Patryk\AppData\Local\Temp\cc5QRopf.s 			page 84


 2899              		@ frame_needed = 0, uses_anonymous_args = 0
 2900              	.LVL277:
 2901 0000 F0B5     		push	{r4, r5, r6, r7, lr}
 2902              	.LCFI55:
 2903              		.cfi_def_cfa_offset 20
 2904              		.cfi_offset 4, -20
 2905              		.cfi_offset 5, -16
 2906              		.cfi_offset 6, -12
 2907              		.cfi_offset 7, -8
 2908              		.cfi_offset 14, -4
 2909 0002 0646     		mov	r6, r0
 2910 0004 9DF81840 		ldrb	r4, [sp, #24]	@ zero_extendqisi2
 2911              	.LVL278:
1528:Drivers/STM32F7xx_HAL_Driver/Src/stm32f7xx_ll_usb.c ****   HAL_StatusTypeDef ret = HAL_OK;
1529:Drivers/STM32F7xx_HAL_Driver/Src/stm32f7xx_ll_usb.c ****   uint32_t USBx_BASE = (uint32_t)USBx;
1530:Drivers/STM32F7xx_HAL_Driver/Src/stm32f7xx_ll_usb.c ****   uint32_t HCcharEpDir, HCcharLowSpeed;
1531:Drivers/STM32F7xx_HAL_Driver/Src/stm32f7xx_ll_usb.c **** 
1532:Drivers/STM32F7xx_HAL_Driver/Src/stm32f7xx_ll_usb.c ****   /* Clear old interrupt conditions for this host channel. */
1533:Drivers/STM32F7xx_HAL_Driver/Src/stm32f7xx_ll_usb.c ****   USBx_HC((uint32_t)ch_num)->HCINT = 0xFFFFFFFFU;
 2912              		.loc 1 1533 0
 2913 0008 00EB4115 		add	r5, r0, r1, lsl #5
 2914 000c 05F5A060 		add	r0, r5, #1280
 2915              	.LVL279:
 2916 0010 4FF0FF37 		mov	r7, #-1
 2917 0014 8760     		str	r7, [r0, #8]
1534:Drivers/STM32F7xx_HAL_Driver/Src/stm32f7xx_ll_usb.c **** 
1535:Drivers/STM32F7xx_HAL_Driver/Src/stm32f7xx_ll_usb.c ****   /* Enable channel interrupts required for this transfer. */
1536:Drivers/STM32F7xx_HAL_Driver/Src/stm32f7xx_ll_usb.c ****   switch (ep_type)
 2918              		.loc 1 1536 0
 2919 0016 032C     		cmp	r4, #3
 2920 0018 64D8     		bhi	.L235
 2921 001a DFE804F0 		tbb	[pc, r4]
 2922              	.L228:
 2923 001e 02       		.byte	(.L227-.L228)/2
 2924 001f 55       		.byte	(.L229-.L228)/2
 2925 0020 02       		.byte	(.L227-.L228)/2
 2926 0021 17       		.byte	(.L230-.L228)/2
 2927              		.p2align 1
 2928              	.L227:
1537:Drivers/STM32F7xx_HAL_Driver/Src/stm32f7xx_ll_usb.c ****   {
1538:Drivers/STM32F7xx_HAL_Driver/Src/stm32f7xx_ll_usb.c ****   case EP_TYPE_CTRL:
1539:Drivers/STM32F7xx_HAL_Driver/Src/stm32f7xx_ll_usb.c ****   case EP_TYPE_BULK:
1540:Drivers/STM32F7xx_HAL_Driver/Src/stm32f7xx_ll_usb.c ****     USBx_HC((uint32_t)ch_num)->HCINTMSK = USB_OTG_HCINTMSK_XFRCM  |
 2929              		.loc 1 1540 0
 2930 0022 40F29D47 		movw	r7, #1181
 2931 0026 C760     		str	r7, [r0, #12]
1541:Drivers/STM32F7xx_HAL_Driver/Src/stm32f7xx_ll_usb.c ****                                 USB_OTG_HCINTMSK_STALLM |
1542:Drivers/STM32F7xx_HAL_Driver/Src/stm32f7xx_ll_usb.c ****                                 USB_OTG_HCINTMSK_TXERRM |
1543:Drivers/STM32F7xx_HAL_Driver/Src/stm32f7xx_ll_usb.c ****                                 USB_OTG_HCINTMSK_DTERRM |
1544:Drivers/STM32F7xx_HAL_Driver/Src/stm32f7xx_ll_usb.c ****                                 USB_OTG_HCINTMSK_AHBERR |
1545:Drivers/STM32F7xx_HAL_Driver/Src/stm32f7xx_ll_usb.c ****                                 USB_OTG_HCINTMSK_NAKM;
1546:Drivers/STM32F7xx_HAL_Driver/Src/stm32f7xx_ll_usb.c **** 
1547:Drivers/STM32F7xx_HAL_Driver/Src/stm32f7xx_ll_usb.c ****     if ((epnum & 0x80U) == 0x80U)
 2932              		.loc 1 1547 0
 2933 0028 12F0800F 		tst	r2, #128
 2934 002c 08D1     		bne	.L242
1548:Drivers/STM32F7xx_HAL_Driver/Src/stm32f7xx_ll_usb.c ****     {
ARM GAS  C:\Users\Patryk\AppData\Local\Temp\cc5QRopf.s 			page 85


1549:Drivers/STM32F7xx_HAL_Driver/Src/stm32f7xx_ll_usb.c ****       USBx_HC((uint32_t)ch_num)->HCINTMSK |= USB_OTG_HCINTMSK_BBERRM;
1550:Drivers/STM32F7xx_HAL_Driver/Src/stm32f7xx_ll_usb.c ****     }
1551:Drivers/STM32F7xx_HAL_Driver/Src/stm32f7xx_ll_usb.c ****     else
1552:Drivers/STM32F7xx_HAL_Driver/Src/stm32f7xx_ll_usb.c ****     {
1553:Drivers/STM32F7xx_HAL_Driver/Src/stm32f7xx_ll_usb.c ****       if(USBx != USB_OTG_FS)
 2935              		.loc 1 1553 0
 2936 002e B6F1A04F 		cmp	r6, #1342177280
 2937 0032 59D0     		beq	.L236
1554:Drivers/STM32F7xx_HAL_Driver/Src/stm32f7xx_ll_usb.c ****       {
1555:Drivers/STM32F7xx_HAL_Driver/Src/stm32f7xx_ll_usb.c ****         USBx_HC((uint32_t)ch_num)->HCINTMSK |= (USB_OTG_HCINTMSK_NYET | USB_OTG_HCINTMSK_ACKM);
 2938              		.loc 1 1555 0
 2939 0034 C768     		ldr	r7, [r0, #12]
 2940 0036 47F06007 		orr	r7, r7, #96
 2941 003a C760     		str	r7, [r0, #12]
1528:Drivers/STM32F7xx_HAL_Driver/Src/stm32f7xx_ll_usb.c ****   uint32_t USBx_BASE = (uint32_t)USBx;
 2942              		.loc 1 1528 0
 2943 003c 0020     		movs	r0, #0
 2944 003e 0CE0     		b	.L226
 2945              	.L242:
1549:Drivers/STM32F7xx_HAL_Driver/Src/stm32f7xx_ll_usb.c ****     }
 2946              		.loc 1 1549 0
 2947 0040 C768     		ldr	r7, [r0, #12]
 2948 0042 47F48077 		orr	r7, r7, #256
 2949 0046 C760     		str	r7, [r0, #12]
1528:Drivers/STM32F7xx_HAL_Driver/Src/stm32f7xx_ll_usb.c ****   uint32_t USBx_BASE = (uint32_t)USBx;
 2950              		.loc 1 1528 0
 2951 0048 0020     		movs	r0, #0
 2952 004a 06E0     		b	.L226
 2953              	.L230:
1556:Drivers/STM32F7xx_HAL_Driver/Src/stm32f7xx_ll_usb.c ****       }
1557:Drivers/STM32F7xx_HAL_Driver/Src/stm32f7xx_ll_usb.c ****     }
1558:Drivers/STM32F7xx_HAL_Driver/Src/stm32f7xx_ll_usb.c ****     break;
1559:Drivers/STM32F7xx_HAL_Driver/Src/stm32f7xx_ll_usb.c **** 
1560:Drivers/STM32F7xx_HAL_Driver/Src/stm32f7xx_ll_usb.c ****   case EP_TYPE_INTR:
1561:Drivers/STM32F7xx_HAL_Driver/Src/stm32f7xx_ll_usb.c ****     USBx_HC((uint32_t)ch_num)->HCINTMSK = USB_OTG_HCINTMSK_XFRCM  |
 2954              		.loc 1 1561 0
 2955 004c 40F29D67 		movw	r7, #1693
 2956 0050 C760     		str	r7, [r0, #12]
1562:Drivers/STM32F7xx_HAL_Driver/Src/stm32f7xx_ll_usb.c ****                                 USB_OTG_HCINTMSK_STALLM |
1563:Drivers/STM32F7xx_HAL_Driver/Src/stm32f7xx_ll_usb.c ****                                 USB_OTG_HCINTMSK_TXERRM |
1564:Drivers/STM32F7xx_HAL_Driver/Src/stm32f7xx_ll_usb.c ****                                 USB_OTG_HCINTMSK_DTERRM |
1565:Drivers/STM32F7xx_HAL_Driver/Src/stm32f7xx_ll_usb.c ****                                 USB_OTG_HCINTMSK_NAKM   |
1566:Drivers/STM32F7xx_HAL_Driver/Src/stm32f7xx_ll_usb.c ****                                 USB_OTG_HCINTMSK_AHBERR |
1567:Drivers/STM32F7xx_HAL_Driver/Src/stm32f7xx_ll_usb.c ****                                 USB_OTG_HCINTMSK_FRMORM;
1568:Drivers/STM32F7xx_HAL_Driver/Src/stm32f7xx_ll_usb.c **** 
1569:Drivers/STM32F7xx_HAL_Driver/Src/stm32f7xx_ll_usb.c ****     if ((epnum & 0x80U) == 0x80U)
 2957              		.loc 1 1569 0
 2958 0052 12F0800F 		tst	r2, #128
 2959 0056 31D1     		bne	.L243
1528:Drivers/STM32F7xx_HAL_Driver/Src/stm32f7xx_ll_usb.c ****   uint32_t USBx_BASE = (uint32_t)USBx;
 2960              		.loc 1 1528 0
 2961 0058 0020     		movs	r0, #0
 2962              	.L226:
 2963              	.LVL280:
1570:Drivers/STM32F7xx_HAL_Driver/Src/stm32f7xx_ll_usb.c ****     {
1571:Drivers/STM32F7xx_HAL_Driver/Src/stm32f7xx_ll_usb.c ****       USBx_HC((uint32_t)ch_num)->HCINTMSK |= USB_OTG_HCINTMSK_BBERRM;
1572:Drivers/STM32F7xx_HAL_Driver/Src/stm32f7xx_ll_usb.c ****     }
ARM GAS  C:\Users\Patryk\AppData\Local\Temp\cc5QRopf.s 			page 86


1573:Drivers/STM32F7xx_HAL_Driver/Src/stm32f7xx_ll_usb.c **** 
1574:Drivers/STM32F7xx_HAL_Driver/Src/stm32f7xx_ll_usb.c ****     break;
1575:Drivers/STM32F7xx_HAL_Driver/Src/stm32f7xx_ll_usb.c **** 
1576:Drivers/STM32F7xx_HAL_Driver/Src/stm32f7xx_ll_usb.c ****   case EP_TYPE_ISOC:
1577:Drivers/STM32F7xx_HAL_Driver/Src/stm32f7xx_ll_usb.c ****     USBx_HC((uint32_t)ch_num)->HCINTMSK = USB_OTG_HCINTMSK_XFRCM  |
1578:Drivers/STM32F7xx_HAL_Driver/Src/stm32f7xx_ll_usb.c ****                                 USB_OTG_HCINTMSK_ACKM   |
1579:Drivers/STM32F7xx_HAL_Driver/Src/stm32f7xx_ll_usb.c ****                                 USB_OTG_HCINTMSK_AHBERR |
1580:Drivers/STM32F7xx_HAL_Driver/Src/stm32f7xx_ll_usb.c ****                                 USB_OTG_HCINTMSK_FRMORM;
1581:Drivers/STM32F7xx_HAL_Driver/Src/stm32f7xx_ll_usb.c **** 
1582:Drivers/STM32F7xx_HAL_Driver/Src/stm32f7xx_ll_usb.c ****     if ((epnum & 0x80U) == 0x80U)
1583:Drivers/STM32F7xx_HAL_Driver/Src/stm32f7xx_ll_usb.c ****     {
1584:Drivers/STM32F7xx_HAL_Driver/Src/stm32f7xx_ll_usb.c ****       USBx_HC((uint32_t)ch_num)->HCINTMSK |= (USB_OTG_HCINTMSK_TXERRM | USB_OTG_HCINTMSK_BBERRM);
1585:Drivers/STM32F7xx_HAL_Driver/Src/stm32f7xx_ll_usb.c ****     }
1586:Drivers/STM32F7xx_HAL_Driver/Src/stm32f7xx_ll_usb.c ****     break;
1587:Drivers/STM32F7xx_HAL_Driver/Src/stm32f7xx_ll_usb.c **** 
1588:Drivers/STM32F7xx_HAL_Driver/Src/stm32f7xx_ll_usb.c ****   default:
1589:Drivers/STM32F7xx_HAL_Driver/Src/stm32f7xx_ll_usb.c ****     ret = HAL_ERROR;
1590:Drivers/STM32F7xx_HAL_Driver/Src/stm32f7xx_ll_usb.c ****     break;
1591:Drivers/STM32F7xx_HAL_Driver/Src/stm32f7xx_ll_usb.c ****   }
1592:Drivers/STM32F7xx_HAL_Driver/Src/stm32f7xx_ll_usb.c **** 
1593:Drivers/STM32F7xx_HAL_Driver/Src/stm32f7xx_ll_usb.c ****   /* Enable the top level host channel interrupt. */
1594:Drivers/STM32F7xx_HAL_Driver/Src/stm32f7xx_ll_usb.c ****   USBx_HOST->HAINTMSK |= 1UL << (ch_num & 0xFU);
 2964              		.loc 1 1594 0
 2965 005a 06F5806E 		add	lr, r6, #1024
 2966 005e D6F81874 		ldr	r7, [r6, #1048]
 2967 0062 01F00F01 		and	r1, r1, #15
 2968              	.LVL281:
 2969 0066 4FF0010C 		mov	ip, #1
 2970 006a 0CFA01F1 		lsl	r1, ip, r1
 2971 006e 3943     		orrs	r1, r1, r7
 2972 0070 C6F81814 		str	r1, [r6, #1048]
1595:Drivers/STM32F7xx_HAL_Driver/Src/stm32f7xx_ll_usb.c **** 
1596:Drivers/STM32F7xx_HAL_Driver/Src/stm32f7xx_ll_usb.c ****   /* Make sure host channel interrupts are enabled. */
1597:Drivers/STM32F7xx_HAL_Driver/Src/stm32f7xx_ll_usb.c ****   USBx->GINTMSK |= USB_OTG_GINTMSK_HCIM;
 2973              		.loc 1 1597 0
 2974 0074 B169     		ldr	r1, [r6, #24]
 2975 0076 41F00071 		orr	r1, r1, #33554432
 2976 007a B161     		str	r1, [r6, #24]
1598:Drivers/STM32F7xx_HAL_Driver/Src/stm32f7xx_ll_usb.c **** 
1599:Drivers/STM32F7xx_HAL_Driver/Src/stm32f7xx_ll_usb.c ****   /* Program the HCCHAR register */
1600:Drivers/STM32F7xx_HAL_Driver/Src/stm32f7xx_ll_usb.c ****   if((epnum & 0x80U) == 0x80U)
 2977              		.loc 1 1600 0
 2978 007c 12F0800F 		tst	r2, #128
 2979 0080 34D1     		bne	.L244
1601:Drivers/STM32F7xx_HAL_Driver/Src/stm32f7xx_ll_usb.c ****   {
1602:Drivers/STM32F7xx_HAL_Driver/Src/stm32f7xx_ll_usb.c ****     HCcharEpDir = (0x1U << 15) & USB_OTG_HCCHAR_EPDIR;
1603:Drivers/STM32F7xx_HAL_Driver/Src/stm32f7xx_ll_usb.c ****   }
1604:Drivers/STM32F7xx_HAL_Driver/Src/stm32f7xx_ll_usb.c ****   else
1605:Drivers/STM32F7xx_HAL_Driver/Src/stm32f7xx_ll_usb.c ****   {
1606:Drivers/STM32F7xx_HAL_Driver/Src/stm32f7xx_ll_usb.c ****     HCcharEpDir = 0U;
 2980              		.loc 1 1606 0
 2981 0082 0026     		movs	r6, #0
 2982              	.LVL282:
 2983              	.L232:
1607:Drivers/STM32F7xx_HAL_Driver/Src/stm32f7xx_ll_usb.c ****   }
1608:Drivers/STM32F7xx_HAL_Driver/Src/stm32f7xx_ll_usb.c **** 
1609:Drivers/STM32F7xx_HAL_Driver/Src/stm32f7xx_ll_usb.c ****   if(speed == HPRT0_PRTSPD_LOW_SPEED)
ARM GAS  C:\Users\Patryk\AppData\Local\Temp\cc5QRopf.s 			page 87


 2984              		.loc 1 1609 0
 2985 0084 9DF81410 		ldrb	r1, [sp, #20]	@ zero_extendqisi2
 2986 0088 0229     		cmp	r1, #2
 2987 008a 32D0     		beq	.L245
1610:Drivers/STM32F7xx_HAL_Driver/Src/stm32f7xx_ll_usb.c ****   {
1611:Drivers/STM32F7xx_HAL_Driver/Src/stm32f7xx_ll_usb.c ****     HCcharLowSpeed = (0x1U << 17) & USB_OTG_HCCHAR_LSDEV;
1612:Drivers/STM32F7xx_HAL_Driver/Src/stm32f7xx_ll_usb.c ****   }
1613:Drivers/STM32F7xx_HAL_Driver/Src/stm32f7xx_ll_usb.c ****   else
1614:Drivers/STM32F7xx_HAL_Driver/Src/stm32f7xx_ll_usb.c ****   {
1615:Drivers/STM32F7xx_HAL_Driver/Src/stm32f7xx_ll_usb.c ****     HCcharLowSpeed = 0U;
 2988              		.loc 1 1615 0
 2989 008c 0021     		movs	r1, #0
 2990              	.L233:
 2991              	.LVL283:
1616:Drivers/STM32F7xx_HAL_Driver/Src/stm32f7xx_ll_usb.c ****   }
1617:Drivers/STM32F7xx_HAL_Driver/Src/stm32f7xx_ll_usb.c **** 
1618:Drivers/STM32F7xx_HAL_Driver/Src/stm32f7xx_ll_usb.c ****   USBx_HC((uint32_t)ch_num)->HCCHAR = (((uint32_t)dev_address << 22) & USB_OTG_HCCHAR_DAD) |
 2992              		.loc 1 1618 0
 2993 008e 9B05     		lsls	r3, r3, #22
 2994              	.LVL284:
 2995 0090 03F0FE53 		and	r3, r3, #532676608
1619:Drivers/STM32F7xx_HAL_Driver/Src/stm32f7xx_ll_usb.c ****                             ((((uint32_t)epnum & 0x7FU) << 11) & USB_OTG_HCCHAR_EPNUM) |
 2996              		.loc 1 1619 0
 2997 0094 D202     		lsls	r2, r2, #11
 2998              	.LVL285:
 2999 0096 02F4F042 		and	r2, r2, #30720
1618:Drivers/STM32F7xx_HAL_Driver/Src/stm32f7xx_ll_usb.c ****                             ((((uint32_t)epnum & 0x7FU) << 11) & USB_OTG_HCCHAR_EPNUM) |
 3000              		.loc 1 1618 0
 3001 009a 1343     		orrs	r3, r3, r2
1620:Drivers/STM32F7xx_HAL_Driver/Src/stm32f7xx_ll_usb.c ****                             (((uint32_t)ep_type << 18) & USB_OTG_HCCHAR_EPTYP) |
 3002              		.loc 1 1620 0
 3003 009c A204     		lsls	r2, r4, #18
 3004 009e 02F44022 		and	r2, r2, #786432
1619:Drivers/STM32F7xx_HAL_Driver/Src/stm32f7xx_ll_usb.c ****                             ((((uint32_t)epnum & 0x7FU) << 11) & USB_OTG_HCCHAR_EPNUM) |
 3005              		.loc 1 1619 0
 3006 00a2 1343     		orrs	r3, r3, r2
1621:Drivers/STM32F7xx_HAL_Driver/Src/stm32f7xx_ll_usb.c ****                             ((uint32_t)mps & USB_OTG_HCCHAR_MPSIZ) | HCcharEpDir | HCcharLowSpeed;
 3007              		.loc 1 1621 0
 3008 00a4 BDF81C20 		ldrh	r2, [sp, #28]
 3009 00a8 C2F30A02 		ubfx	r2, r2, #0, #11
1620:Drivers/STM32F7xx_HAL_Driver/Src/stm32f7xx_ll_usb.c ****                             (((uint32_t)ep_type << 18) & USB_OTG_HCCHAR_EPTYP) |
 3010              		.loc 1 1620 0
 3011 00ac 1343     		orrs	r3, r3, r2
 3012              		.loc 1 1621 0
 3013 00ae 3343     		orrs	r3, r3, r6
 3014 00b0 0B43     		orrs	r3, r3, r1
1618:Drivers/STM32F7xx_HAL_Driver/Src/stm32f7xx_ll_usb.c ****                             ((((uint32_t)epnum & 0x7FU) << 11) & USB_OTG_HCCHAR_EPNUM) |
 3015              		.loc 1 1618 0
 3016 00b2 C5F80035 		str	r3, [r5, #1280]
1622:Drivers/STM32F7xx_HAL_Driver/Src/stm32f7xx_ll_usb.c **** 
1623:Drivers/STM32F7xx_HAL_Driver/Src/stm32f7xx_ll_usb.c ****   if (ep_type == EP_TYPE_INTR)
 3017              		.loc 1 1623 0
 3018 00b6 032C     		cmp	r4, #3
 3019 00b8 1ED0     		beq	.L246
 3020              	.L234:
1624:Drivers/STM32F7xx_HAL_Driver/Src/stm32f7xx_ll_usb.c ****   {
1625:Drivers/STM32F7xx_HAL_Driver/Src/stm32f7xx_ll_usb.c ****     USBx_HC((uint32_t)ch_num)->HCCHAR |= USB_OTG_HCCHAR_ODDFRM ;
ARM GAS  C:\Users\Patryk\AppData\Local\Temp\cc5QRopf.s 			page 88


1626:Drivers/STM32F7xx_HAL_Driver/Src/stm32f7xx_ll_usb.c ****   }
1627:Drivers/STM32F7xx_HAL_Driver/Src/stm32f7xx_ll_usb.c **** 
1628:Drivers/STM32F7xx_HAL_Driver/Src/stm32f7xx_ll_usb.c ****   return ret;
1629:Drivers/STM32F7xx_HAL_Driver/Src/stm32f7xx_ll_usb.c **** }
 3021              		.loc 1 1629 0
 3022 00ba F0BD     		pop	{r4, r5, r6, r7, pc}
 3023              	.LVL286:
 3024              	.L243:
1571:Drivers/STM32F7xx_HAL_Driver/Src/stm32f7xx_ll_usb.c ****     }
 3025              		.loc 1 1571 0
 3026 00bc C768     		ldr	r7, [r0, #12]
 3027 00be 47F48077 		orr	r7, r7, #256
 3028 00c2 C760     		str	r7, [r0, #12]
1528:Drivers/STM32F7xx_HAL_Driver/Src/stm32f7xx_ll_usb.c ****   uint32_t USBx_BASE = (uint32_t)USBx;
 3029              		.loc 1 1528 0
 3030 00c4 0020     		movs	r0, #0
 3031 00c6 C8E7     		b	.L226
 3032              	.L229:
1577:Drivers/STM32F7xx_HAL_Driver/Src/stm32f7xx_ll_usb.c ****                                 USB_OTG_HCINTMSK_ACKM   |
 3033              		.loc 1 1577 0
 3034 00c8 40F22527 		movw	r7, #549
 3035 00cc C760     		str	r7, [r0, #12]
1582:Drivers/STM32F7xx_HAL_Driver/Src/stm32f7xx_ll_usb.c ****     {
 3036              		.loc 1 1582 0
 3037 00ce 12F0800F 		tst	r2, #128
 3038 00d2 01D1     		bne	.L247
1528:Drivers/STM32F7xx_HAL_Driver/Src/stm32f7xx_ll_usb.c ****   uint32_t USBx_BASE = (uint32_t)USBx;
 3039              		.loc 1 1528 0
 3040 00d4 0020     		movs	r0, #0
 3041 00d6 C0E7     		b	.L226
 3042              	.L247:
1584:Drivers/STM32F7xx_HAL_Driver/Src/stm32f7xx_ll_usb.c ****     }
 3043              		.loc 1 1584 0
 3044 00d8 C768     		ldr	r7, [r0, #12]
 3045 00da 47F4C077 		orr	r7, r7, #384
 3046 00de C760     		str	r7, [r0, #12]
1528:Drivers/STM32F7xx_HAL_Driver/Src/stm32f7xx_ll_usb.c ****   uint32_t USBx_BASE = (uint32_t)USBx;
 3047              		.loc 1 1528 0
 3048 00e0 0020     		movs	r0, #0
 3049 00e2 BAE7     		b	.L226
 3050              	.L235:
1589:Drivers/STM32F7xx_HAL_Driver/Src/stm32f7xx_ll_usb.c ****     break;
 3051              		.loc 1 1589 0
 3052 00e4 0120     		movs	r0, #1
 3053 00e6 B8E7     		b	.L226
 3054              	.L236:
1528:Drivers/STM32F7xx_HAL_Driver/Src/stm32f7xx_ll_usb.c ****   uint32_t USBx_BASE = (uint32_t)USBx;
 3055              		.loc 1 1528 0
 3056 00e8 0020     		movs	r0, #0
 3057 00ea B6E7     		b	.L226
 3058              	.LVL287:
 3059              	.L244:
1602:Drivers/STM32F7xx_HAL_Driver/Src/stm32f7xx_ll_usb.c ****   }
 3060              		.loc 1 1602 0
 3061 00ec 4FF40046 		mov	r6, #32768
 3062              	.LVL288:
 3063 00f0 C8E7     		b	.L232
ARM GAS  C:\Users\Patryk\AppData\Local\Temp\cc5QRopf.s 			page 89


 3064              	.LVL289:
 3065              	.L245:
1611:Drivers/STM32F7xx_HAL_Driver/Src/stm32f7xx_ll_usb.c ****   }
 3066              		.loc 1 1611 0
 3067 00f2 4FF40031 		mov	r1, #131072
 3068 00f6 CAE7     		b	.L233
 3069              	.LVL290:
 3070              	.L246:
1625:Drivers/STM32F7xx_HAL_Driver/Src/stm32f7xx_ll_usb.c ****   }
 3071              		.loc 1 1625 0
 3072 00f8 D5F80035 		ldr	r3, [r5, #1280]
 3073 00fc 43F00053 		orr	r3, r3, #536870912
 3074 0100 C5F80035 		str	r3, [r5, #1280]
 3075 0104 D9E7     		b	.L234
 3076              		.cfi_endproc
 3077              	.LFE177:
 3079              		.section	.text.USB_HC_ReadInterrupt,"ax",%progbits
 3080              		.align	1
 3081              		.global	USB_HC_ReadInterrupt
 3082              		.syntax unified
 3083              		.thumb
 3084              		.thumb_func
 3085              		.fpu fpv5-sp-d16
 3087              	USB_HC_ReadInterrupt:
 3088              	.LFB179:
1630:Drivers/STM32F7xx_HAL_Driver/Src/stm32f7xx_ll_usb.c **** 
1631:Drivers/STM32F7xx_HAL_Driver/Src/stm32f7xx_ll_usb.c **** /**
1632:Drivers/STM32F7xx_HAL_Driver/Src/stm32f7xx_ll_usb.c ****   * @brief  Start a transfer over a host channel
1633:Drivers/STM32F7xx_HAL_Driver/Src/stm32f7xx_ll_usb.c ****   * @param  USBx  Selected device
1634:Drivers/STM32F7xx_HAL_Driver/Src/stm32f7xx_ll_usb.c ****   * @param  hc  pointer to host channel structure
1635:Drivers/STM32F7xx_HAL_Driver/Src/stm32f7xx_ll_usb.c ****   * @param  dma USB dma enabled or disabled
1636:Drivers/STM32F7xx_HAL_Driver/Src/stm32f7xx_ll_usb.c ****   *          This parameter can be one of these values:
1637:Drivers/STM32F7xx_HAL_Driver/Src/stm32f7xx_ll_usb.c ****   *           0 : DMA feature not used
1638:Drivers/STM32F7xx_HAL_Driver/Src/stm32f7xx_ll_usb.c ****   *           1 : DMA feature used
1639:Drivers/STM32F7xx_HAL_Driver/Src/stm32f7xx_ll_usb.c ****   * @retval HAL state
1640:Drivers/STM32F7xx_HAL_Driver/Src/stm32f7xx_ll_usb.c ****   */
1641:Drivers/STM32F7xx_HAL_Driver/Src/stm32f7xx_ll_usb.c **** HAL_StatusTypeDef USB_HC_StartXfer(USB_OTG_GlobalTypeDef *USBx, USB_OTG_HCTypeDef *hc, uint8_t dma)
1642:Drivers/STM32F7xx_HAL_Driver/Src/stm32f7xx_ll_usb.c **** {
1643:Drivers/STM32F7xx_HAL_Driver/Src/stm32f7xx_ll_usb.c ****   uint32_t USBx_BASE = (uint32_t)USBx;
1644:Drivers/STM32F7xx_HAL_Driver/Src/stm32f7xx_ll_usb.c ****   uint32_t ch_num = (uint32_t)hc->ch_num;
1645:Drivers/STM32F7xx_HAL_Driver/Src/stm32f7xx_ll_usb.c ****   static __IO uint32_t tmpreg = 0U;
1646:Drivers/STM32F7xx_HAL_Driver/Src/stm32f7xx_ll_usb.c ****   uint8_t  is_oddframe;
1647:Drivers/STM32F7xx_HAL_Driver/Src/stm32f7xx_ll_usb.c ****   uint16_t len_words;
1648:Drivers/STM32F7xx_HAL_Driver/Src/stm32f7xx_ll_usb.c ****   uint16_t num_packets;
1649:Drivers/STM32F7xx_HAL_Driver/Src/stm32f7xx_ll_usb.c ****   uint16_t max_hc_pkt_count = 256U;
1650:Drivers/STM32F7xx_HAL_Driver/Src/stm32f7xx_ll_usb.c **** 
1651:Drivers/STM32F7xx_HAL_Driver/Src/stm32f7xx_ll_usb.c ****   if((USBx != USB_OTG_FS) && (hc->speed == USB_OTG_SPEED_HIGH))
1652:Drivers/STM32F7xx_HAL_Driver/Src/stm32f7xx_ll_usb.c ****   {
1653:Drivers/STM32F7xx_HAL_Driver/Src/stm32f7xx_ll_usb.c ****     if((dma == 0U) && (hc->do_ping == 1U))
1654:Drivers/STM32F7xx_HAL_Driver/Src/stm32f7xx_ll_usb.c ****     {
1655:Drivers/STM32F7xx_HAL_Driver/Src/stm32f7xx_ll_usb.c ****       (void)USB_DoPing(USBx, hc->ch_num);
1656:Drivers/STM32F7xx_HAL_Driver/Src/stm32f7xx_ll_usb.c ****       return HAL_OK;
1657:Drivers/STM32F7xx_HAL_Driver/Src/stm32f7xx_ll_usb.c ****     }
1658:Drivers/STM32F7xx_HAL_Driver/Src/stm32f7xx_ll_usb.c ****     else if(dma == 1U)
1659:Drivers/STM32F7xx_HAL_Driver/Src/stm32f7xx_ll_usb.c ****     {
1660:Drivers/STM32F7xx_HAL_Driver/Src/stm32f7xx_ll_usb.c ****       USBx_HC(ch_num)->HCINTMSK &= ~(USB_OTG_HCINTMSK_NYET | USB_OTG_HCINTMSK_ACKM);
1661:Drivers/STM32F7xx_HAL_Driver/Src/stm32f7xx_ll_usb.c ****       hc->do_ping = 0U;
ARM GAS  C:\Users\Patryk\AppData\Local\Temp\cc5QRopf.s 			page 90


1662:Drivers/STM32F7xx_HAL_Driver/Src/stm32f7xx_ll_usb.c ****     }
1663:Drivers/STM32F7xx_HAL_Driver/Src/stm32f7xx_ll_usb.c ****     else
1664:Drivers/STM32F7xx_HAL_Driver/Src/stm32f7xx_ll_usb.c ****     {
1665:Drivers/STM32F7xx_HAL_Driver/Src/stm32f7xx_ll_usb.c ****       /* ... */
1666:Drivers/STM32F7xx_HAL_Driver/Src/stm32f7xx_ll_usb.c ****     }
1667:Drivers/STM32F7xx_HAL_Driver/Src/stm32f7xx_ll_usb.c ****   }
1668:Drivers/STM32F7xx_HAL_Driver/Src/stm32f7xx_ll_usb.c **** 
1669:Drivers/STM32F7xx_HAL_Driver/Src/stm32f7xx_ll_usb.c ****   /* Compute the expected number of packets associated to the transfer */
1670:Drivers/STM32F7xx_HAL_Driver/Src/stm32f7xx_ll_usb.c ****   if (hc->xfer_len > 0U)
1671:Drivers/STM32F7xx_HAL_Driver/Src/stm32f7xx_ll_usb.c ****   {
1672:Drivers/STM32F7xx_HAL_Driver/Src/stm32f7xx_ll_usb.c ****     num_packets = (uint16_t)((hc->xfer_len + hc->max_packet - 1U) / hc->max_packet);
1673:Drivers/STM32F7xx_HAL_Driver/Src/stm32f7xx_ll_usb.c **** 
1674:Drivers/STM32F7xx_HAL_Driver/Src/stm32f7xx_ll_usb.c ****     if (num_packets > max_hc_pkt_count)
1675:Drivers/STM32F7xx_HAL_Driver/Src/stm32f7xx_ll_usb.c ****     {
1676:Drivers/STM32F7xx_HAL_Driver/Src/stm32f7xx_ll_usb.c ****       num_packets = max_hc_pkt_count;
1677:Drivers/STM32F7xx_HAL_Driver/Src/stm32f7xx_ll_usb.c ****       hc->xfer_len = (uint32_t)num_packets * hc->max_packet;
1678:Drivers/STM32F7xx_HAL_Driver/Src/stm32f7xx_ll_usb.c ****     }
1679:Drivers/STM32F7xx_HAL_Driver/Src/stm32f7xx_ll_usb.c ****   }
1680:Drivers/STM32F7xx_HAL_Driver/Src/stm32f7xx_ll_usb.c ****   else
1681:Drivers/STM32F7xx_HAL_Driver/Src/stm32f7xx_ll_usb.c ****   {
1682:Drivers/STM32F7xx_HAL_Driver/Src/stm32f7xx_ll_usb.c ****     num_packets = 1U;
1683:Drivers/STM32F7xx_HAL_Driver/Src/stm32f7xx_ll_usb.c ****   }
1684:Drivers/STM32F7xx_HAL_Driver/Src/stm32f7xx_ll_usb.c ****   if (hc->ep_is_in != 0U)
1685:Drivers/STM32F7xx_HAL_Driver/Src/stm32f7xx_ll_usb.c ****   {
1686:Drivers/STM32F7xx_HAL_Driver/Src/stm32f7xx_ll_usb.c ****     hc->xfer_len = (uint32_t)num_packets * hc->max_packet;
1687:Drivers/STM32F7xx_HAL_Driver/Src/stm32f7xx_ll_usb.c ****   }
1688:Drivers/STM32F7xx_HAL_Driver/Src/stm32f7xx_ll_usb.c **** 
1689:Drivers/STM32F7xx_HAL_Driver/Src/stm32f7xx_ll_usb.c ****   /* Initialize the HCTSIZn register */
1690:Drivers/STM32F7xx_HAL_Driver/Src/stm32f7xx_ll_usb.c ****   USBx_HC(ch_num)->HCTSIZ = (hc->xfer_len & USB_OTG_HCTSIZ_XFRSIZ) |
1691:Drivers/STM32F7xx_HAL_Driver/Src/stm32f7xx_ll_usb.c ****                                 (((uint32_t)num_packets << 19) & USB_OTG_HCTSIZ_PKTCNT) |
1692:Drivers/STM32F7xx_HAL_Driver/Src/stm32f7xx_ll_usb.c ****                                 (((uint32_t)hc->data_pid << 29) & USB_OTG_HCTSIZ_DPID);
1693:Drivers/STM32F7xx_HAL_Driver/Src/stm32f7xx_ll_usb.c **** 
1694:Drivers/STM32F7xx_HAL_Driver/Src/stm32f7xx_ll_usb.c ****   if (dma != 0U)
1695:Drivers/STM32F7xx_HAL_Driver/Src/stm32f7xx_ll_usb.c ****   {
1696:Drivers/STM32F7xx_HAL_Driver/Src/stm32f7xx_ll_usb.c ****     /* xfer_buff MUST be 32-bits aligned */
1697:Drivers/STM32F7xx_HAL_Driver/Src/stm32f7xx_ll_usb.c ****     USBx_HC(ch_num)->HCDMA = (uint32_t)hc->xfer_buff;
1698:Drivers/STM32F7xx_HAL_Driver/Src/stm32f7xx_ll_usb.c ****   }
1699:Drivers/STM32F7xx_HAL_Driver/Src/stm32f7xx_ll_usb.c **** 
1700:Drivers/STM32F7xx_HAL_Driver/Src/stm32f7xx_ll_usb.c ****   is_oddframe = (((uint32_t)USBx_HOST->HFNUM & 0x01U) != 0U) ? 0U : 1U;
1701:Drivers/STM32F7xx_HAL_Driver/Src/stm32f7xx_ll_usb.c ****   USBx_HC(ch_num)->HCCHAR &= ~USB_OTG_HCCHAR_ODDFRM;
1702:Drivers/STM32F7xx_HAL_Driver/Src/stm32f7xx_ll_usb.c ****   USBx_HC(ch_num)->HCCHAR |= (uint32_t)is_oddframe << 29;
1703:Drivers/STM32F7xx_HAL_Driver/Src/stm32f7xx_ll_usb.c **** 
1704:Drivers/STM32F7xx_HAL_Driver/Src/stm32f7xx_ll_usb.c ****   /* Set host channel enable */
1705:Drivers/STM32F7xx_HAL_Driver/Src/stm32f7xx_ll_usb.c ****   tmpreg = USBx_HC(ch_num)->HCCHAR;
1706:Drivers/STM32F7xx_HAL_Driver/Src/stm32f7xx_ll_usb.c ****   tmpreg &= ~USB_OTG_HCCHAR_CHDIS;
1707:Drivers/STM32F7xx_HAL_Driver/Src/stm32f7xx_ll_usb.c **** 
1708:Drivers/STM32F7xx_HAL_Driver/Src/stm32f7xx_ll_usb.c ****   /* make sure to set the correct ep direction */
1709:Drivers/STM32F7xx_HAL_Driver/Src/stm32f7xx_ll_usb.c ****   if (hc->ep_is_in != 0U)
1710:Drivers/STM32F7xx_HAL_Driver/Src/stm32f7xx_ll_usb.c ****   {
1711:Drivers/STM32F7xx_HAL_Driver/Src/stm32f7xx_ll_usb.c ****     tmpreg |= USB_OTG_HCCHAR_EPDIR;
1712:Drivers/STM32F7xx_HAL_Driver/Src/stm32f7xx_ll_usb.c ****   }
1713:Drivers/STM32F7xx_HAL_Driver/Src/stm32f7xx_ll_usb.c ****   else
1714:Drivers/STM32F7xx_HAL_Driver/Src/stm32f7xx_ll_usb.c ****   {
1715:Drivers/STM32F7xx_HAL_Driver/Src/stm32f7xx_ll_usb.c ****      tmpreg &= ~USB_OTG_HCCHAR_EPDIR;
1716:Drivers/STM32F7xx_HAL_Driver/Src/stm32f7xx_ll_usb.c ****   }
1717:Drivers/STM32F7xx_HAL_Driver/Src/stm32f7xx_ll_usb.c ****   tmpreg |= USB_OTG_HCCHAR_CHENA;
1718:Drivers/STM32F7xx_HAL_Driver/Src/stm32f7xx_ll_usb.c ****   USBx_HC(ch_num)->HCCHAR = tmpreg;
ARM GAS  C:\Users\Patryk\AppData\Local\Temp\cc5QRopf.s 			page 91


1719:Drivers/STM32F7xx_HAL_Driver/Src/stm32f7xx_ll_usb.c **** 
1720:Drivers/STM32F7xx_HAL_Driver/Src/stm32f7xx_ll_usb.c ****   if (dma == 0U) /* Slave mode */
1721:Drivers/STM32F7xx_HAL_Driver/Src/stm32f7xx_ll_usb.c ****   {
1722:Drivers/STM32F7xx_HAL_Driver/Src/stm32f7xx_ll_usb.c ****     if((hc->ep_is_in == 0U) && (hc->xfer_len > 0U))
1723:Drivers/STM32F7xx_HAL_Driver/Src/stm32f7xx_ll_usb.c ****     {
1724:Drivers/STM32F7xx_HAL_Driver/Src/stm32f7xx_ll_usb.c ****       switch(hc->ep_type)
1725:Drivers/STM32F7xx_HAL_Driver/Src/stm32f7xx_ll_usb.c ****       {
1726:Drivers/STM32F7xx_HAL_Driver/Src/stm32f7xx_ll_usb.c ****         /* Non periodic transfer */
1727:Drivers/STM32F7xx_HAL_Driver/Src/stm32f7xx_ll_usb.c ****       case EP_TYPE_CTRL:
1728:Drivers/STM32F7xx_HAL_Driver/Src/stm32f7xx_ll_usb.c ****       case EP_TYPE_BULK:
1729:Drivers/STM32F7xx_HAL_Driver/Src/stm32f7xx_ll_usb.c **** 
1730:Drivers/STM32F7xx_HAL_Driver/Src/stm32f7xx_ll_usb.c ****         len_words = (uint16_t)((hc->xfer_len + 3U) / 4U);
1731:Drivers/STM32F7xx_HAL_Driver/Src/stm32f7xx_ll_usb.c **** 
1732:Drivers/STM32F7xx_HAL_Driver/Src/stm32f7xx_ll_usb.c ****         /* check if there is enough space in FIFO space */
1733:Drivers/STM32F7xx_HAL_Driver/Src/stm32f7xx_ll_usb.c ****         if(len_words > (USBx->HNPTXSTS & 0xFFFFU))
1734:Drivers/STM32F7xx_HAL_Driver/Src/stm32f7xx_ll_usb.c ****         {
1735:Drivers/STM32F7xx_HAL_Driver/Src/stm32f7xx_ll_usb.c ****           /* need to process data in nptxfempty interrupt */
1736:Drivers/STM32F7xx_HAL_Driver/Src/stm32f7xx_ll_usb.c ****           USBx->GINTMSK |= USB_OTG_GINTMSK_NPTXFEM;
1737:Drivers/STM32F7xx_HAL_Driver/Src/stm32f7xx_ll_usb.c ****         }
1738:Drivers/STM32F7xx_HAL_Driver/Src/stm32f7xx_ll_usb.c ****         break;
1739:Drivers/STM32F7xx_HAL_Driver/Src/stm32f7xx_ll_usb.c **** 
1740:Drivers/STM32F7xx_HAL_Driver/Src/stm32f7xx_ll_usb.c ****         /* Periodic transfer */
1741:Drivers/STM32F7xx_HAL_Driver/Src/stm32f7xx_ll_usb.c ****       case EP_TYPE_INTR:
1742:Drivers/STM32F7xx_HAL_Driver/Src/stm32f7xx_ll_usb.c ****       case EP_TYPE_ISOC:
1743:Drivers/STM32F7xx_HAL_Driver/Src/stm32f7xx_ll_usb.c ****         len_words = (uint16_t)((hc->xfer_len + 3U) / 4U);
1744:Drivers/STM32F7xx_HAL_Driver/Src/stm32f7xx_ll_usb.c ****         /* check if there is enough space in FIFO space */
1745:Drivers/STM32F7xx_HAL_Driver/Src/stm32f7xx_ll_usb.c ****         if(len_words > (USBx_HOST->HPTXSTS & 0xFFFFU)) /* split the transfer */
1746:Drivers/STM32F7xx_HAL_Driver/Src/stm32f7xx_ll_usb.c ****         {
1747:Drivers/STM32F7xx_HAL_Driver/Src/stm32f7xx_ll_usb.c ****           /* need to process data in ptxfempty interrupt */
1748:Drivers/STM32F7xx_HAL_Driver/Src/stm32f7xx_ll_usb.c ****           USBx->GINTMSK |= USB_OTG_GINTMSK_PTXFEM;
1749:Drivers/STM32F7xx_HAL_Driver/Src/stm32f7xx_ll_usb.c ****         }
1750:Drivers/STM32F7xx_HAL_Driver/Src/stm32f7xx_ll_usb.c ****         break;
1751:Drivers/STM32F7xx_HAL_Driver/Src/stm32f7xx_ll_usb.c **** 
1752:Drivers/STM32F7xx_HAL_Driver/Src/stm32f7xx_ll_usb.c ****       default:
1753:Drivers/STM32F7xx_HAL_Driver/Src/stm32f7xx_ll_usb.c ****         break;
1754:Drivers/STM32F7xx_HAL_Driver/Src/stm32f7xx_ll_usb.c ****       }
1755:Drivers/STM32F7xx_HAL_Driver/Src/stm32f7xx_ll_usb.c **** 
1756:Drivers/STM32F7xx_HAL_Driver/Src/stm32f7xx_ll_usb.c ****       /* Write packet into the Tx FIFO. */
1757:Drivers/STM32F7xx_HAL_Driver/Src/stm32f7xx_ll_usb.c ****       (void)USB_WritePacket(USBx, hc->xfer_buff, hc->ch_num, (uint16_t)hc->xfer_len, 0);
1758:Drivers/STM32F7xx_HAL_Driver/Src/stm32f7xx_ll_usb.c ****     }
1759:Drivers/STM32F7xx_HAL_Driver/Src/stm32f7xx_ll_usb.c ****   }
1760:Drivers/STM32F7xx_HAL_Driver/Src/stm32f7xx_ll_usb.c **** 
1761:Drivers/STM32F7xx_HAL_Driver/Src/stm32f7xx_ll_usb.c ****   return HAL_OK;
1762:Drivers/STM32F7xx_HAL_Driver/Src/stm32f7xx_ll_usb.c **** }
1763:Drivers/STM32F7xx_HAL_Driver/Src/stm32f7xx_ll_usb.c **** 
1764:Drivers/STM32F7xx_HAL_Driver/Src/stm32f7xx_ll_usb.c **** /**
1765:Drivers/STM32F7xx_HAL_Driver/Src/stm32f7xx_ll_usb.c ****   * @brief Read all host channel interrupts status
1766:Drivers/STM32F7xx_HAL_Driver/Src/stm32f7xx_ll_usb.c ****   * @param  USBx  Selected device
1767:Drivers/STM32F7xx_HAL_Driver/Src/stm32f7xx_ll_usb.c ****   * @retval HAL state
1768:Drivers/STM32F7xx_HAL_Driver/Src/stm32f7xx_ll_usb.c ****   */
1769:Drivers/STM32F7xx_HAL_Driver/Src/stm32f7xx_ll_usb.c **** uint32_t USB_HC_ReadInterrupt (USB_OTG_GlobalTypeDef *USBx)
1770:Drivers/STM32F7xx_HAL_Driver/Src/stm32f7xx_ll_usb.c **** {
 3089              		.loc 1 1770 0
 3090              		.cfi_startproc
 3091              		@ args = 0, pretend = 0, frame = 0
 3092              		@ frame_needed = 0, uses_anonymous_args = 0
 3093              		@ link register save eliminated.
ARM GAS  C:\Users\Patryk\AppData\Local\Temp\cc5QRopf.s 			page 92


 3094              	.LVL291:
1771:Drivers/STM32F7xx_HAL_Driver/Src/stm32f7xx_ll_usb.c ****   uint32_t USBx_BASE = (uint32_t)USBx;
1772:Drivers/STM32F7xx_HAL_Driver/Src/stm32f7xx_ll_usb.c **** 
1773:Drivers/STM32F7xx_HAL_Driver/Src/stm32f7xx_ll_usb.c ****   return ((USBx_HOST->HAINT) & 0xFFFFU);
 3095              		.loc 1 1773 0
 3096 0000 00F58060 		add	r0, r0, #1024
 3097              	.LVL292:
 3098 0004 4069     		ldr	r0, [r0, #20]
 3099              	.LVL293:
1774:Drivers/STM32F7xx_HAL_Driver/Src/stm32f7xx_ll_usb.c **** }
 3100              		.loc 1 1774 0
 3101 0006 80B2     		uxth	r0, r0
 3102 0008 7047     		bx	lr
 3103              		.cfi_endproc
 3104              	.LFE179:
 3106              		.section	.text.USB_HC_Halt,"ax",%progbits
 3107              		.align	1
 3108              		.global	USB_HC_Halt
 3109              		.syntax unified
 3110              		.thumb
 3111              		.thumb_func
 3112              		.fpu fpv5-sp-d16
 3114              	USB_HC_Halt:
 3115              	.LFB180:
1775:Drivers/STM32F7xx_HAL_Driver/Src/stm32f7xx_ll_usb.c **** 
1776:Drivers/STM32F7xx_HAL_Driver/Src/stm32f7xx_ll_usb.c **** /**
1777:Drivers/STM32F7xx_HAL_Driver/Src/stm32f7xx_ll_usb.c ****   * @brief  Halt a host channel
1778:Drivers/STM32F7xx_HAL_Driver/Src/stm32f7xx_ll_usb.c ****   * @param  USBx  Selected device
1779:Drivers/STM32F7xx_HAL_Driver/Src/stm32f7xx_ll_usb.c ****   * @param  hc_num  Host Channel number
1780:Drivers/STM32F7xx_HAL_Driver/Src/stm32f7xx_ll_usb.c ****   *         This parameter can be a value from 1 to 15
1781:Drivers/STM32F7xx_HAL_Driver/Src/stm32f7xx_ll_usb.c ****   * @retval HAL state
1782:Drivers/STM32F7xx_HAL_Driver/Src/stm32f7xx_ll_usb.c ****   */
1783:Drivers/STM32F7xx_HAL_Driver/Src/stm32f7xx_ll_usb.c **** HAL_StatusTypeDef USB_HC_Halt(USB_OTG_GlobalTypeDef *USBx , uint8_t hc_num)
1784:Drivers/STM32F7xx_HAL_Driver/Src/stm32f7xx_ll_usb.c **** {
 3116              		.loc 1 1784 0
 3117              		.cfi_startproc
 3118              		@ args = 0, pretend = 0, frame = 0
 3119              		@ frame_needed = 0, uses_anonymous_args = 0
 3120              		@ link register save eliminated.
 3121              	.LVL294:
 3122 0000 10B4     		push	{r4}
 3123              	.LCFI56:
 3124              		.cfi_def_cfa_offset 4
 3125              		.cfi_offset 4, -4
 3126              	.LVL295:
1785:Drivers/STM32F7xx_HAL_Driver/Src/stm32f7xx_ll_usb.c ****   uint32_t USBx_BASE = (uint32_t)USBx;
1786:Drivers/STM32F7xx_HAL_Driver/Src/stm32f7xx_ll_usb.c ****   uint32_t hcnum = (uint32_t)hc_num;
1787:Drivers/STM32F7xx_HAL_Driver/Src/stm32f7xx_ll_usb.c ****   uint32_t count = 0U;
1788:Drivers/STM32F7xx_HAL_Driver/Src/stm32f7xx_ll_usb.c ****   uint32_t HcEpType = (USBx_HC(hcnum)->HCCHAR & USB_OTG_HCCHAR_EPTYP) >> 18;
 3127              		.loc 1 1788 0
 3128 0002 00EB4111 		add	r1, r0, r1, lsl #5
 3129              	.LVL296:
 3130 0006 01F5A062 		add	r2, r1, #1280
 3131 000a D1F80035 		ldr	r3, [r1, #1280]
 3132 000e C3F38143 		ubfx	r3, r3, #18, #2
 3133              	.LVL297:
1789:Drivers/STM32F7xx_HAL_Driver/Src/stm32f7xx_ll_usb.c **** 
ARM GAS  C:\Users\Patryk\AppData\Local\Temp\cc5QRopf.s 			page 93


1790:Drivers/STM32F7xx_HAL_Driver/Src/stm32f7xx_ll_usb.c ****   /* Check for space in the request queue to issue the halt. */
1791:Drivers/STM32F7xx_HAL_Driver/Src/stm32f7xx_ll_usb.c ****   if ((HcEpType == HCCHAR_CTRL) || (HcEpType == HCCHAR_BULK))
 3134              		.loc 1 1791 0
 3135 0012 022B     		cmp	r3, #2
 3136 0014 14BF     		ite	ne
 3137 0016 0024     		movne	r4, #0
 3138 0018 0124     		moveq	r4, #1
 3139 001a 002B     		cmp	r3, #0
 3140 001c 14BF     		ite	ne
 3141 001e 2346     		movne	r3, r4
 3142 0020 0123     		moveq	r3, #1
 3143              	.LVL298:
 3144 0022 5BB3     		cbz	r3, .L250
1792:Drivers/STM32F7xx_HAL_Driver/Src/stm32f7xx_ll_usb.c ****   {
1793:Drivers/STM32F7xx_HAL_Driver/Src/stm32f7xx_ll_usb.c ****     USBx_HC(hcnum)->HCCHAR |= USB_OTG_HCCHAR_CHDIS;
 3145              		.loc 1 1793 0
 3146 0024 D1F80035 		ldr	r3, [r1, #1280]
 3147 0028 43F08043 		orr	r3, r3, #1073741824
 3148 002c C1F80035 		str	r3, [r1, #1280]
1794:Drivers/STM32F7xx_HAL_Driver/Src/stm32f7xx_ll_usb.c **** 
1795:Drivers/STM32F7xx_HAL_Driver/Src/stm32f7xx_ll_usb.c ****     if ((USBx->HNPTXSTS & (0xFFU << 16)) == 0U)
 3149              		.loc 1 1795 0
 3150 0030 C36A     		ldr	r3, [r0, #44]
 3151 0032 13F47F0F 		tst	r3, #16711680
 3152 0036 1AD1     		bne	.L251
1796:Drivers/STM32F7xx_HAL_Driver/Src/stm32f7xx_ll_usb.c ****     {
1797:Drivers/STM32F7xx_HAL_Driver/Src/stm32f7xx_ll_usb.c ****       USBx_HC(hcnum)->HCCHAR &= ~USB_OTG_HCCHAR_CHENA;
 3153              		.loc 1 1797 0
 3154 0038 D1F80035 		ldr	r3, [r1, #1280]
 3155 003c 23F00043 		bic	r3, r3, #-2147483648
 3156 0040 C1F80035 		str	r3, [r1, #1280]
1798:Drivers/STM32F7xx_HAL_Driver/Src/stm32f7xx_ll_usb.c ****       USBx_HC(hcnum)->HCCHAR |= USB_OTG_HCCHAR_CHENA;
 3157              		.loc 1 1798 0
 3158 0044 D1F80035 		ldr	r3, [r1, #1280]
 3159 0048 43F00043 		orr	r3, r3, #-2147483648
 3160 004c C1F80035 		str	r3, [r1, #1280]
1799:Drivers/STM32F7xx_HAL_Driver/Src/stm32f7xx_ll_usb.c ****       USBx_HC(hcnum)->HCCHAR &= ~USB_OTG_HCCHAR_EPDIR;
 3161              		.loc 1 1799 0
 3162 0050 D1F80035 		ldr	r3, [r1, #1280]
 3163 0054 23F40043 		bic	r3, r3, #32768
 3164 0058 C1F80035 		str	r3, [r1, #1280]
1787:Drivers/STM32F7xx_HAL_Driver/Src/stm32f7xx_ll_usb.c ****   uint32_t HcEpType = (USBx_HC(hcnum)->HCCHAR & USB_OTG_HCCHAR_EPTYP) >> 18;
 3165              		.loc 1 1787 0
 3166 005c 0023     		movs	r3, #0
 3167              	.LVL299:
 3168              	.L253:
1800:Drivers/STM32F7xx_HAL_Driver/Src/stm32f7xx_ll_usb.c ****       do
1801:Drivers/STM32F7xx_HAL_Driver/Src/stm32f7xx_ll_usb.c ****       {
1802:Drivers/STM32F7xx_HAL_Driver/Src/stm32f7xx_ll_usb.c ****         if (++count > 1000U)
 3169              		.loc 1 1802 0
 3170 005e 0133     		adds	r3, r3, #1
 3171              	.LVL300:
 3172 0060 B3F57A7F 		cmp	r3, #1000
 3173 0064 36D8     		bhi	.L252
1803:Drivers/STM32F7xx_HAL_Driver/Src/stm32f7xx_ll_usb.c ****         {
1804:Drivers/STM32F7xx_HAL_Driver/Src/stm32f7xx_ll_usb.c ****           break;
1805:Drivers/STM32F7xx_HAL_Driver/Src/stm32f7xx_ll_usb.c ****         }
ARM GAS  C:\Users\Patryk\AppData\Local\Temp\cc5QRopf.s 			page 94


1806:Drivers/STM32F7xx_HAL_Driver/Src/stm32f7xx_ll_usb.c ****       }
1807:Drivers/STM32F7xx_HAL_Driver/Src/stm32f7xx_ll_usb.c ****       while ((USBx_HC(hcnum)->HCCHAR & USB_OTG_HCCHAR_CHENA) == USB_OTG_HCCHAR_CHENA);
 3174              		.loc 1 1807 0
 3175 0066 1168     		ldr	r1, [r2]
 3176 0068 0029     		cmp	r1, #0
 3177 006a F8DB     		blt	.L253
 3178 006c 32E0     		b	.L252
 3179              	.LVL301:
 3180              	.L251:
1808:Drivers/STM32F7xx_HAL_Driver/Src/stm32f7xx_ll_usb.c ****     }
1809:Drivers/STM32F7xx_HAL_Driver/Src/stm32f7xx_ll_usb.c ****     else
1810:Drivers/STM32F7xx_HAL_Driver/Src/stm32f7xx_ll_usb.c ****     {
1811:Drivers/STM32F7xx_HAL_Driver/Src/stm32f7xx_ll_usb.c ****       USBx_HC(hcnum)->HCCHAR |= USB_OTG_HCCHAR_CHENA;
 3181              		.loc 1 1811 0
 3182 006e D1F80035 		ldr	r3, [r1, #1280]
 3183 0072 43F00043 		orr	r3, r3, #-2147483648
 3184 0076 C1F80035 		str	r3, [r1, #1280]
 3185 007a 2BE0     		b	.L252
 3186              	.L250:
1812:Drivers/STM32F7xx_HAL_Driver/Src/stm32f7xx_ll_usb.c ****     }
1813:Drivers/STM32F7xx_HAL_Driver/Src/stm32f7xx_ll_usb.c ****   }
1814:Drivers/STM32F7xx_HAL_Driver/Src/stm32f7xx_ll_usb.c ****   else
1815:Drivers/STM32F7xx_HAL_Driver/Src/stm32f7xx_ll_usb.c ****   {
1816:Drivers/STM32F7xx_HAL_Driver/Src/stm32f7xx_ll_usb.c ****     USBx_HC(hcnum)->HCCHAR |= USB_OTG_HCCHAR_CHDIS;
 3187              		.loc 1 1816 0
 3188 007c D1F80035 		ldr	r3, [r1, #1280]
 3189 0080 43F08043 		orr	r3, r3, #1073741824
 3190 0084 C1F80035 		str	r3, [r1, #1280]
1817:Drivers/STM32F7xx_HAL_Driver/Src/stm32f7xx_ll_usb.c **** 
1818:Drivers/STM32F7xx_HAL_Driver/Src/stm32f7xx_ll_usb.c ****     if ((USBx_HOST->HPTXSTS & (0xFFU << 16)) == 0U)
 3191              		.loc 1 1818 0
 3192 0088 D0F81034 		ldr	r3, [r0, #1040]
 3193 008c 13F47F0F 		tst	r3, #16711680
 3194 0090 1AD1     		bne	.L254
1819:Drivers/STM32F7xx_HAL_Driver/Src/stm32f7xx_ll_usb.c ****     {
1820:Drivers/STM32F7xx_HAL_Driver/Src/stm32f7xx_ll_usb.c ****       USBx_HC(hcnum)->HCCHAR &= ~USB_OTG_HCCHAR_CHENA;
 3195              		.loc 1 1820 0
 3196 0092 D1F80035 		ldr	r3, [r1, #1280]
 3197 0096 23F00043 		bic	r3, r3, #-2147483648
 3198 009a C1F80035 		str	r3, [r1, #1280]
1821:Drivers/STM32F7xx_HAL_Driver/Src/stm32f7xx_ll_usb.c ****       USBx_HC(hcnum)->HCCHAR |= USB_OTG_HCCHAR_CHENA;
 3199              		.loc 1 1821 0
 3200 009e D1F80035 		ldr	r3, [r1, #1280]
 3201 00a2 43F00043 		orr	r3, r3, #-2147483648
 3202 00a6 C1F80035 		str	r3, [r1, #1280]
1822:Drivers/STM32F7xx_HAL_Driver/Src/stm32f7xx_ll_usb.c ****       USBx_HC(hcnum)->HCCHAR &= ~USB_OTG_HCCHAR_EPDIR;
 3203              		.loc 1 1822 0
 3204 00aa D1F80035 		ldr	r3, [r1, #1280]
 3205 00ae 23F40043 		bic	r3, r3, #32768
 3206 00b2 C1F80035 		str	r3, [r1, #1280]
1787:Drivers/STM32F7xx_HAL_Driver/Src/stm32f7xx_ll_usb.c ****   uint32_t HcEpType = (USBx_HC(hcnum)->HCCHAR & USB_OTG_HCCHAR_EPTYP) >> 18;
 3207              		.loc 1 1787 0
 3208 00b6 0023     		movs	r3, #0
 3209              	.LVL302:
 3210              	.L255:
1823:Drivers/STM32F7xx_HAL_Driver/Src/stm32f7xx_ll_usb.c ****       do
1824:Drivers/STM32F7xx_HAL_Driver/Src/stm32f7xx_ll_usb.c ****       {
ARM GAS  C:\Users\Patryk\AppData\Local\Temp\cc5QRopf.s 			page 95


1825:Drivers/STM32F7xx_HAL_Driver/Src/stm32f7xx_ll_usb.c ****         if (++count > 1000U)
 3211              		.loc 1 1825 0
 3212 00b8 0133     		adds	r3, r3, #1
 3213              	.LVL303:
 3214 00ba B3F57A7F 		cmp	r3, #1000
 3215 00be 09D8     		bhi	.L252
1826:Drivers/STM32F7xx_HAL_Driver/Src/stm32f7xx_ll_usb.c ****         {
1827:Drivers/STM32F7xx_HAL_Driver/Src/stm32f7xx_ll_usb.c ****           break;
1828:Drivers/STM32F7xx_HAL_Driver/Src/stm32f7xx_ll_usb.c ****         }
1829:Drivers/STM32F7xx_HAL_Driver/Src/stm32f7xx_ll_usb.c ****       }
1830:Drivers/STM32F7xx_HAL_Driver/Src/stm32f7xx_ll_usb.c ****       while ((USBx_HC(hcnum)->HCCHAR & USB_OTG_HCCHAR_CHENA) == USB_OTG_HCCHAR_CHENA);
 3216              		.loc 1 1830 0
 3217 00c0 1168     		ldr	r1, [r2]
 3218 00c2 0029     		cmp	r1, #0
 3219 00c4 F8DB     		blt	.L255
 3220 00c6 05E0     		b	.L252
 3221              	.LVL304:
 3222              	.L254:
1831:Drivers/STM32F7xx_HAL_Driver/Src/stm32f7xx_ll_usb.c ****     }
1832:Drivers/STM32F7xx_HAL_Driver/Src/stm32f7xx_ll_usb.c ****     else
1833:Drivers/STM32F7xx_HAL_Driver/Src/stm32f7xx_ll_usb.c ****     {
1834:Drivers/STM32F7xx_HAL_Driver/Src/stm32f7xx_ll_usb.c ****        USBx_HC(hcnum)->HCCHAR |= USB_OTG_HCCHAR_CHENA;
 3223              		.loc 1 1834 0
 3224 00c8 D1F80035 		ldr	r3, [r1, #1280]
 3225 00cc 43F00043 		orr	r3, r3, #-2147483648
 3226 00d0 C1F80035 		str	r3, [r1, #1280]
 3227              	.LVL305:
 3228              	.L252:
1835:Drivers/STM32F7xx_HAL_Driver/Src/stm32f7xx_ll_usb.c ****     }
1836:Drivers/STM32F7xx_HAL_Driver/Src/stm32f7xx_ll_usb.c ****   }
1837:Drivers/STM32F7xx_HAL_Driver/Src/stm32f7xx_ll_usb.c **** 
1838:Drivers/STM32F7xx_HAL_Driver/Src/stm32f7xx_ll_usb.c ****   return HAL_OK;
1839:Drivers/STM32F7xx_HAL_Driver/Src/stm32f7xx_ll_usb.c **** }
 3229              		.loc 1 1839 0
 3230 00d4 0020     		movs	r0, #0
 3231              	.LVL306:
 3232 00d6 5DF8044B 		ldr	r4, [sp], #4
 3233              	.LCFI57:
 3234              		.cfi_restore 4
 3235              		.cfi_def_cfa_offset 0
 3236 00da 7047     		bx	lr
 3237              		.cfi_endproc
 3238              	.LFE180:
 3240              		.section	.text.USB_DoPing,"ax",%progbits
 3241              		.align	1
 3242              		.global	USB_DoPing
 3243              		.syntax unified
 3244              		.thumb
 3245              		.thumb_func
 3246              		.fpu fpv5-sp-d16
 3248              	USB_DoPing:
 3249              	.LFB181:
1840:Drivers/STM32F7xx_HAL_Driver/Src/stm32f7xx_ll_usb.c **** 
1841:Drivers/STM32F7xx_HAL_Driver/Src/stm32f7xx_ll_usb.c **** /**
1842:Drivers/STM32F7xx_HAL_Driver/Src/stm32f7xx_ll_usb.c ****   * @brief  Initiate Do Ping protocol
1843:Drivers/STM32F7xx_HAL_Driver/Src/stm32f7xx_ll_usb.c ****   * @param  USBx  Selected device
1844:Drivers/STM32F7xx_HAL_Driver/Src/stm32f7xx_ll_usb.c ****   * @param  hc_num  Host Channel number
ARM GAS  C:\Users\Patryk\AppData\Local\Temp\cc5QRopf.s 			page 96


1845:Drivers/STM32F7xx_HAL_Driver/Src/stm32f7xx_ll_usb.c ****   *         This parameter can be a value from 1 to 15
1846:Drivers/STM32F7xx_HAL_Driver/Src/stm32f7xx_ll_usb.c ****   * @retval HAL state
1847:Drivers/STM32F7xx_HAL_Driver/Src/stm32f7xx_ll_usb.c ****   */
1848:Drivers/STM32F7xx_HAL_Driver/Src/stm32f7xx_ll_usb.c **** HAL_StatusTypeDef USB_DoPing(USB_OTG_GlobalTypeDef *USBx , uint8_t ch_num)
1849:Drivers/STM32F7xx_HAL_Driver/Src/stm32f7xx_ll_usb.c **** {
 3250              		.loc 1 1849 0
 3251              		.cfi_startproc
 3252              		@ args = 0, pretend = 0, frame = 0
 3253              		@ frame_needed = 0, uses_anonymous_args = 0
 3254              		@ link register save eliminated.
 3255              	.LVL307:
1850:Drivers/STM32F7xx_HAL_Driver/Src/stm32f7xx_ll_usb.c ****   uint32_t USBx_BASE = (uint32_t)USBx;
1851:Drivers/STM32F7xx_HAL_Driver/Src/stm32f7xx_ll_usb.c ****   uint32_t chnum = (uint32_t)ch_num;
1852:Drivers/STM32F7xx_HAL_Driver/Src/stm32f7xx_ll_usb.c ****   uint32_t num_packets = 1U;
1853:Drivers/STM32F7xx_HAL_Driver/Src/stm32f7xx_ll_usb.c ****   uint32_t tmpreg;
1854:Drivers/STM32F7xx_HAL_Driver/Src/stm32f7xx_ll_usb.c **** 
1855:Drivers/STM32F7xx_HAL_Driver/Src/stm32f7xx_ll_usb.c ****   USBx_HC(chnum)->HCTSIZ = ((num_packets << 19) & USB_OTG_HCTSIZ_PKTCNT) |
 3256              		.loc 1 1855 0
 3257 0000 00EB4111 		add	r1, r0, r1, lsl #5
 3258              	.LVL308:
 3259 0004 064A     		ldr	r2, .L258
 3260 0006 C1F81025 		str	r2, [r1, #1296]
1856:Drivers/STM32F7xx_HAL_Driver/Src/stm32f7xx_ll_usb.c ****                             USB_OTG_HCTSIZ_DOPING;
1857:Drivers/STM32F7xx_HAL_Driver/Src/stm32f7xx_ll_usb.c **** 
1858:Drivers/STM32F7xx_HAL_Driver/Src/stm32f7xx_ll_usb.c ****   /* Set host channel enable */
1859:Drivers/STM32F7xx_HAL_Driver/Src/stm32f7xx_ll_usb.c ****   tmpreg = USBx_HC(chnum)->HCCHAR;
 3261              		.loc 1 1859 0
 3262 000a D1F80035 		ldr	r3, [r1, #1280]
 3263              	.LVL309:
1860:Drivers/STM32F7xx_HAL_Driver/Src/stm32f7xx_ll_usb.c ****   tmpreg &= ~USB_OTG_HCCHAR_CHDIS;
 3264              		.loc 1 1860 0
 3265 000e 23F08043 		bic	r3, r3, #1073741824
 3266              	.LVL310:
1861:Drivers/STM32F7xx_HAL_Driver/Src/stm32f7xx_ll_usb.c ****   tmpreg |= USB_OTG_HCCHAR_CHENA;
 3267              		.loc 1 1861 0
 3268 0012 43F00043 		orr	r3, r3, #-2147483648
 3269              	.LVL311:
1862:Drivers/STM32F7xx_HAL_Driver/Src/stm32f7xx_ll_usb.c ****   USBx_HC(chnum)->HCCHAR = tmpreg;
 3270              		.loc 1 1862 0
 3271 0016 C1F80035 		str	r3, [r1, #1280]
1863:Drivers/STM32F7xx_HAL_Driver/Src/stm32f7xx_ll_usb.c **** 
1864:Drivers/STM32F7xx_HAL_Driver/Src/stm32f7xx_ll_usb.c ****   return HAL_OK;
1865:Drivers/STM32F7xx_HAL_Driver/Src/stm32f7xx_ll_usb.c **** }
 3272              		.loc 1 1865 0
 3273 001a 0020     		movs	r0, #0
 3274              	.LVL312:
 3275 001c 7047     		bx	lr
 3276              	.L259:
 3277 001e 00BF     		.align	2
 3278              	.L258:
 3279 0020 00000880 		.word	-2146959360
 3280              		.cfi_endproc
 3281              	.LFE181:
 3283              		.section	.text.USB_HC_StartXfer,"ax",%progbits
 3284              		.align	1
 3285              		.global	USB_HC_StartXfer
 3286              		.syntax unified
ARM GAS  C:\Users\Patryk\AppData\Local\Temp\cc5QRopf.s 			page 97


 3287              		.thumb
 3288              		.thumb_func
 3289              		.fpu fpv5-sp-d16
 3291              	USB_HC_StartXfer:
 3292              	.LFB178:
1642:Drivers/STM32F7xx_HAL_Driver/Src/stm32f7xx_ll_usb.c ****   uint32_t USBx_BASE = (uint32_t)USBx;
 3293              		.loc 1 1642 0
 3294              		.cfi_startproc
 3295              		@ args = 0, pretend = 0, frame = 0
 3296              		@ frame_needed = 0, uses_anonymous_args = 0
 3297              	.LVL313:
 3298 0000 70B5     		push	{r4, r5, r6, lr}
 3299              	.LCFI58:
 3300              		.cfi_def_cfa_offset 16
 3301              		.cfi_offset 4, -16
 3302              		.cfi_offset 5, -12
 3303              		.cfi_offset 6, -8
 3304              		.cfi_offset 14, -4
 3305 0002 82B0     		sub	sp, sp, #8
 3306              	.LCFI59:
 3307              		.cfi_def_cfa_offset 24
 3308              	.LVL314:
1644:Drivers/STM32F7xx_HAL_Driver/Src/stm32f7xx_ll_usb.c ****   static __IO uint32_t tmpreg = 0U;
 3309              		.loc 1 1644 0
 3310 0004 4C78     		ldrb	r4, [r1, #1]	@ zero_extendqisi2
 3311              	.LVL315:
1651:Drivers/STM32F7xx_HAL_Driver/Src/stm32f7xx_ll_usb.c ****   {
 3312              		.loc 1 1651 0
 3313 0006 B0F1A04F 		cmp	r0, #1342177280
 3314 000a 07D0     		beq	.L261
1651:Drivers/STM32F7xx_HAL_Driver/Src/stm32f7xx_ll_usb.c ****   {
 3315              		.loc 1 1651 0 is_stmt 0 discriminator 1
 3316 000c 0B79     		ldrb	r3, [r1, #4]	@ zero_extendqisi2
 3317 000e 2BB9     		cbnz	r3, .L261
1653:Drivers/STM32F7xx_HAL_Driver/Src/stm32f7xx_ll_usb.c ****     {
 3318              		.loc 1 1653 0 is_stmt 1
 3319 0010 12B9     		cbnz	r2, .L262
1653:Drivers/STM32F7xx_HAL_Driver/Src/stm32f7xx_ll_usb.c ****     {
 3320              		.loc 1 1653 0 is_stmt 0 discriminator 1
 3321 0012 4B79     		ldrb	r3, [r1, #5]	@ zero_extendqisi2
 3322 0014 012B     		cmp	r3, #1
 3323 0016 11D0     		beq	.L275
 3324              	.L262:
1658:Drivers/STM32F7xx_HAL_Driver/Src/stm32f7xx_ll_usb.c ****     {
 3325              		.loc 1 1658 0 is_stmt 1
 3326 0018 012A     		cmp	r2, #1
 3327 001a 13D0     		beq	.L276
 3328              	.L261:
1670:Drivers/STM32F7xx_HAL_Driver/Src/stm32f7xx_ll_usb.c ****   {
 3329              		.loc 1 1670 0
 3330 001c 0B69     		ldr	r3, [r1, #16]
 3331 001e E3B1     		cbz	r3, .L273
1672:Drivers/STM32F7xx_HAL_Driver/Src/stm32f7xx_ll_usb.c **** 
 3332              		.loc 1 1672 0
 3333 0020 0D89     		ldrh	r5, [r1, #8]
 3334 0022 2B44     		add	r3, r3, r5
 3335 0024 013B     		subs	r3, r3, #1
ARM GAS  C:\Users\Patryk\AppData\Local\Temp\cc5QRopf.s 			page 98


 3336 0026 B3FBF5F3 		udiv	r3, r3, r5
 3337 002a 9BB2     		uxth	r3, r3
 3338              	.LVL316:
1674:Drivers/STM32F7xx_HAL_Driver/Src/stm32f7xx_ll_usb.c ****     {
 3339              		.loc 1 1674 0
 3340 002c B3F5807F 		cmp	r3, #256
 3341 0030 14D9     		bls	.L264
 3342              	.LVL317:
1677:Drivers/STM32F7xx_HAL_Driver/Src/stm32f7xx_ll_usb.c ****     }
 3343              		.loc 1 1677 0
 3344 0032 2D02     		lsls	r5, r5, #8
 3345 0034 0D61     		str	r5, [r1, #16]
1676:Drivers/STM32F7xx_HAL_Driver/Src/stm32f7xx_ll_usb.c ****       hc->xfer_len = (uint32_t)num_packets * hc->max_packet;
 3346              		.loc 1 1676 0
 3347 0036 4FF48073 		mov	r3, #256
 3348 003a 0FE0     		b	.L264
 3349              	.LVL318:
 3350              	.L275:
1655:Drivers/STM32F7xx_HAL_Driver/Src/stm32f7xx_ll_usb.c ****       return HAL_OK;
 3351              		.loc 1 1655 0
 3352 003c 2146     		mov	r1, r4
 3353              	.LVL319:
 3354 003e FFF7FEFF 		bl	USB_DoPing
 3355              	.LVL320:
1656:Drivers/STM32F7xx_HAL_Driver/Src/stm32f7xx_ll_usb.c ****     }
 3356              		.loc 1 1656 0
 3357 0042 75E0     		b	.L263
 3358              	.LVL321:
 3359              	.L276:
1660:Drivers/STM32F7xx_HAL_Driver/Src/stm32f7xx_ll_usb.c ****       hc->do_ping = 0U;
 3360              		.loc 1 1660 0
 3361 0044 00EB4413 		add	r3, r0, r4, lsl #5
 3362 0048 D3F80C55 		ldr	r5, [r3, #1292]
 3363 004c 25F06005 		bic	r5, r5, #96
 3364 0050 C3F80C55 		str	r5, [r3, #1292]
1661:Drivers/STM32F7xx_HAL_Driver/Src/stm32f7xx_ll_usb.c ****     }
 3365              		.loc 1 1661 0
 3366 0054 0023     		movs	r3, #0
 3367 0056 4B71     		strb	r3, [r1, #5]
 3368 0058 E0E7     		b	.L261
 3369              	.L273:
1682:Drivers/STM32F7xx_HAL_Driver/Src/stm32f7xx_ll_usb.c ****   }
 3370              		.loc 1 1682 0
 3371 005a 0123     		movs	r3, #1
 3372              	.L264:
 3373              	.LVL322:
1684:Drivers/STM32F7xx_HAL_Driver/Src/stm32f7xx_ll_usb.c ****   {
 3374              		.loc 1 1684 0
 3375 005c CD78     		ldrb	r5, [r1, #3]	@ zero_extendqisi2
 3376 005e 1DB1     		cbz	r5, .L265
1686:Drivers/STM32F7xx_HAL_Driver/Src/stm32f7xx_ll_usb.c ****   }
 3377              		.loc 1 1686 0
 3378 0060 0D89     		ldrh	r5, [r1, #8]
 3379 0062 05FB03F5 		mul	r5, r5, r3
 3380 0066 0D61     		str	r5, [r1, #16]
 3381              	.L265:
1690:Drivers/STM32F7xx_HAL_Driver/Src/stm32f7xx_ll_usb.c ****                                 (((uint32_t)num_packets << 19) & USB_OTG_HCTSIZ_PKTCNT) |
ARM GAS  C:\Users\Patryk\AppData\Local\Temp\cc5QRopf.s 			page 99


 3382              		.loc 1 1690 0
 3383 0068 0D69     		ldr	r5, [r1, #16]
 3384 006a C5F31205 		ubfx	r5, r5, #0, #19
1691:Drivers/STM32F7xx_HAL_Driver/Src/stm32f7xx_ll_usb.c ****                                 (((uint32_t)hc->data_pid << 29) & USB_OTG_HCTSIZ_DPID);
 3385              		.loc 1 1691 0
 3386 006e 384E     		ldr	r6, .L277
 3387 0070 06EAC343 		and	r3, r6, r3, lsl #19
 3388              	.LVL323:
1690:Drivers/STM32F7xx_HAL_Driver/Src/stm32f7xx_ll_usb.c ****                                 (((uint32_t)num_packets << 19) & USB_OTG_HCTSIZ_PKTCNT) |
 3389              		.loc 1 1690 0
 3390 0074 2B43     		orrs	r3, r3, r5
1692:Drivers/STM32F7xx_HAL_Driver/Src/stm32f7xx_ll_usb.c **** 
 3391              		.loc 1 1692 0
 3392 0076 8D7A     		ldrb	r5, [r1, #10]	@ zero_extendqisi2
 3393 0078 6D07     		lsls	r5, r5, #29
 3394 007a 05F0C045 		and	r5, r5, #1610612736
1690:Drivers/STM32F7xx_HAL_Driver/Src/stm32f7xx_ll_usb.c ****                                 (((uint32_t)num_packets << 19) & USB_OTG_HCTSIZ_PKTCNT) |
 3395              		.loc 1 1690 0
 3396 007e 00EB4414 		add	r4, r0, r4, lsl #5
 3397              	.LVL324:
1691:Drivers/STM32F7xx_HAL_Driver/Src/stm32f7xx_ll_usb.c ****                                 (((uint32_t)hc->data_pid << 29) & USB_OTG_HCTSIZ_DPID);
 3398              		.loc 1 1691 0
 3399 0082 2B43     		orrs	r3, r3, r5
1690:Drivers/STM32F7xx_HAL_Driver/Src/stm32f7xx_ll_usb.c ****                                 (((uint32_t)num_packets << 19) & USB_OTG_HCTSIZ_PKTCNT) |
 3400              		.loc 1 1690 0
 3401 0084 C4F81035 		str	r3, [r4, #1296]
1694:Drivers/STM32F7xx_HAL_Driver/Src/stm32f7xx_ll_usb.c ****   {
 3402              		.loc 1 1694 0
 3403 0088 12B1     		cbz	r2, .L266
1697:Drivers/STM32F7xx_HAL_Driver/Src/stm32f7xx_ll_usb.c ****   }
 3404              		.loc 1 1697 0
 3405 008a CB68     		ldr	r3, [r1, #12]
 3406 008c C4F81435 		str	r3, [r4, #1300]
 3407              	.L266:
1700:Drivers/STM32F7xx_HAL_Driver/Src/stm32f7xx_ll_usb.c ****   USBx_HC(ch_num)->HCCHAR &= ~USB_OTG_HCCHAR_ODDFRM;
 3408              		.loc 1 1700 0
 3409 0090 00F58066 		add	r6, r0, #1024
 3410 0094 B368     		ldr	r3, [r6, #8]
 3411 0096 13F0010F 		tst	r3, #1
 3412              	.LVL325:
1701:Drivers/STM32F7xx_HAL_Driver/Src/stm32f7xx_ll_usb.c ****   USBx_HC(ch_num)->HCCHAR |= (uint32_t)is_oddframe << 29;
 3413              		.loc 1 1701 0
 3414 009a D4F80035 		ldr	r3, [r4, #1280]
 3415 009e 23F00053 		bic	r3, r3, #536870912
 3416 00a2 C4F80035 		str	r3, [r4, #1280]
1702:Drivers/STM32F7xx_HAL_Driver/Src/stm32f7xx_ll_usb.c **** 
 3417              		.loc 1 1702 0
 3418 00a6 D4F80035 		ldr	r3, [r4, #1280]
 3419 00aa 0CBF     		ite	eq
 3420 00ac 4FF00055 		moveq	r5, #536870912
 3421 00b0 0025     		movne	r5, #0
 3422 00b2 2B43     		orrs	r3, r3, r5
 3423 00b4 C4F80035 		str	r3, [r4, #1280]
1705:Drivers/STM32F7xx_HAL_Driver/Src/stm32f7xx_ll_usb.c ****   tmpreg &= ~USB_OTG_HCCHAR_CHDIS;
 3424              		.loc 1 1705 0
 3425 00b8 D4F80055 		ldr	r5, [r4, #1280]
 3426 00bc 254B     		ldr	r3, .L277+4
ARM GAS  C:\Users\Patryk\AppData\Local\Temp\cc5QRopf.s 			page 100


 3427 00be 1D60     		str	r5, [r3]
1706:Drivers/STM32F7xx_HAL_Driver/Src/stm32f7xx_ll_usb.c **** 
 3428              		.loc 1 1706 0
 3429 00c0 1D68     		ldr	r5, [r3]
 3430 00c2 25F08045 		bic	r5, r5, #1073741824
 3431 00c6 1D60     		str	r5, [r3]
1709:Drivers/STM32F7xx_HAL_Driver/Src/stm32f7xx_ll_usb.c ****   {
 3432              		.loc 1 1709 0
 3433 00c8 CB78     		ldrb	r3, [r1, #3]	@ zero_extendqisi2
 3434 00ca C3B1     		cbz	r3, .L267
 3435              	.LVL326:
1711:Drivers/STM32F7xx_HAL_Driver/Src/stm32f7xx_ll_usb.c ****   }
 3436              		.loc 1 1711 0
 3437 00cc 214D     		ldr	r5, .L277+4
 3438 00ce 2B68     		ldr	r3, [r5]
 3439 00d0 43F40043 		orr	r3, r3, #32768
 3440 00d4 2B60     		str	r3, [r5]
 3441              	.L268:
1717:Drivers/STM32F7xx_HAL_Driver/Src/stm32f7xx_ll_usb.c ****   USBx_HC(ch_num)->HCCHAR = tmpreg;
 3442              		.loc 1 1717 0
 3443 00d6 1F4B     		ldr	r3, .L277+4
 3444 00d8 1D68     		ldr	r5, [r3]
 3445 00da 45F00045 		orr	r5, r5, #-2147483648
 3446 00de 1D60     		str	r5, [r3]
1718:Drivers/STM32F7xx_HAL_Driver/Src/stm32f7xx_ll_usb.c **** 
 3447              		.loc 1 1718 0
 3448 00e0 1B68     		ldr	r3, [r3]
 3449 00e2 C4F80035 		str	r3, [r4, #1280]
1720:Drivers/STM32F7xx_HAL_Driver/Src/stm32f7xx_ll_usb.c ****   {
 3450              		.loc 1 1720 0
 3451 00e6 1ABB     		cbnz	r2, .L263
1722:Drivers/STM32F7xx_HAL_Driver/Src/stm32f7xx_ll_usb.c ****     {
 3452              		.loc 1 1722 0
 3453 00e8 CB78     		ldrb	r3, [r1, #3]	@ zero_extendqisi2
 3454 00ea 0BBB     		cbnz	r3, .L263
1722:Drivers/STM32F7xx_HAL_Driver/Src/stm32f7xx_ll_usb.c ****     {
 3455              		.loc 1 1722 0 is_stmt 0 discriminator 1
 3456 00ec 0B69     		ldr	r3, [r1, #16]
 3457 00ee FBB1     		cbz	r3, .L263
1724:Drivers/STM32F7xx_HAL_Driver/Src/stm32f7xx_ll_usb.c ****       {
 3458              		.loc 1 1724 0 is_stmt 1
 3459 00f0 CA79     		ldrb	r2, [r1, #7]	@ zero_extendqisi2
 3460              	.LVL327:
 3461 00f2 032A     		cmp	r2, #3
 3462 00f4 14D8     		bhi	.L269
 3463 00f6 DFE802F0 		tbb	[pc, r2]
 3464              	.L271:
 3465 00fa 08       		.byte	(.L270-.L271)/2
 3466 00fb 1E       		.byte	(.L272-.L271)/2
 3467 00fc 08       		.byte	(.L270-.L271)/2
 3468 00fd 1E       		.byte	(.L272-.L271)/2
 3469              	.LVL328:
 3470              		.p2align 1
 3471              	.L267:
1715:Drivers/STM32F7xx_HAL_Driver/Src/stm32f7xx_ll_usb.c ****   }
 3472              		.loc 1 1715 0
 3473 00fe 154D     		ldr	r5, .L277+4
ARM GAS  C:\Users\Patryk\AppData\Local\Temp\cc5QRopf.s 			page 101


 3474 0100 2B68     		ldr	r3, [r5]
 3475 0102 23F40043 		bic	r3, r3, #32768
 3476 0106 2B60     		str	r3, [r5]
 3477 0108 E5E7     		b	.L268
 3478              	.LVL329:
 3479              	.L270:
1730:Drivers/STM32F7xx_HAL_Driver/Src/stm32f7xx_ll_usb.c **** 
 3480              		.loc 1 1730 0
 3481 010a 0333     		adds	r3, r3, #3
 3482              	.LVL330:
1733:Drivers/STM32F7xx_HAL_Driver/Src/stm32f7xx_ll_usb.c ****         {
 3483              		.loc 1 1733 0
 3484 010c C26A     		ldr	r2, [r0, #44]
 3485 010e 92B2     		uxth	r2, r2
 3486 0110 C3F38F03 		ubfx	r3, r3, #2, #16
 3487              	.LVL331:
 3488 0114 9A42     		cmp	r2, r3
 3489 0116 03D2     		bcs	.L269
1736:Drivers/STM32F7xx_HAL_Driver/Src/stm32f7xx_ll_usb.c ****         }
 3490              		.loc 1 1736 0
 3491 0118 8369     		ldr	r3, [r0, #24]
 3492 011a 43F02003 		orr	r3, r3, #32
 3493 011e 8361     		str	r3, [r0, #24]
 3494              	.LVL332:
 3495              	.L269:
1757:Drivers/STM32F7xx_HAL_Driver/Src/stm32f7xx_ll_usb.c ****     }
 3496              		.loc 1 1757 0
 3497 0120 CC68     		ldr	r4, [r1, #12]
 3498 0122 4A78     		ldrb	r2, [r1, #1]	@ zero_extendqisi2
 3499 0124 0B8A     		ldrh	r3, [r1, #16]
 3500 0126 0021     		movs	r1, #0
 3501              	.LVL333:
 3502 0128 0091     		str	r1, [sp]
 3503 012a 2146     		mov	r1, r4
 3504 012c FFF7FEFF 		bl	USB_WritePacket
 3505              	.LVL334:
 3506              	.L263:
1762:Drivers/STM32F7xx_HAL_Driver/Src/stm32f7xx_ll_usb.c **** 
 3507              		.loc 1 1762 0
 3508 0130 0020     		movs	r0, #0
 3509 0132 02B0     		add	sp, sp, #8
 3510              	.LCFI60:
 3511              		.cfi_remember_state
 3512              		.cfi_def_cfa_offset 16
 3513              		@ sp needed
 3514 0134 70BD     		pop	{r4, r5, r6, pc}
 3515              	.LVL335:
 3516              	.L272:
 3517              	.LCFI61:
 3518              		.cfi_restore_state
1743:Drivers/STM32F7xx_HAL_Driver/Src/stm32f7xx_ll_usb.c ****         /* check if there is enough space in FIFO space */
 3519              		.loc 1 1743 0
 3520 0136 0333     		adds	r3, r3, #3
 3521              	.LVL336:
1745:Drivers/STM32F7xx_HAL_Driver/Src/stm32f7xx_ll_usb.c ****         {
 3522              		.loc 1 1745 0
 3523 0138 3269     		ldr	r2, [r6, #16]
ARM GAS  C:\Users\Patryk\AppData\Local\Temp\cc5QRopf.s 			page 102


 3524 013a 92B2     		uxth	r2, r2
 3525 013c C3F38F03 		ubfx	r3, r3, #2, #16
 3526              	.LVL337:
 3527 0140 9A42     		cmp	r2, r3
 3528 0142 EDD2     		bcs	.L269
1748:Drivers/STM32F7xx_HAL_Driver/Src/stm32f7xx_ll_usb.c ****         }
 3529              		.loc 1 1748 0
 3530 0144 8369     		ldr	r3, [r0, #24]
 3531 0146 43F08063 		orr	r3, r3, #67108864
 3532 014a 8361     		str	r3, [r0, #24]
 3533              	.LVL338:
 3534 014c E8E7     		b	.L269
 3535              	.L278:
 3536 014e 00BF     		.align	2
 3537              	.L277:
 3538 0150 0000F81F 		.word	536346624
 3539 0154 00000000 		.word	.LANCHOR0
 3540              		.cfi_endproc
 3541              	.LFE178:
 3543              		.section	.text.USB_StopHost,"ax",%progbits
 3544              		.align	1
 3545              		.global	USB_StopHost
 3546              		.syntax unified
 3547              		.thumb
 3548              		.thumb_func
 3549              		.fpu fpv5-sp-d16
 3551              	USB_StopHost:
 3552              	.LFB182:
1866:Drivers/STM32F7xx_HAL_Driver/Src/stm32f7xx_ll_usb.c **** 
1867:Drivers/STM32F7xx_HAL_Driver/Src/stm32f7xx_ll_usb.c **** /**
1868:Drivers/STM32F7xx_HAL_Driver/Src/stm32f7xx_ll_usb.c ****   * @brief  Stop Host Core
1869:Drivers/STM32F7xx_HAL_Driver/Src/stm32f7xx_ll_usb.c ****   * @param  USBx  Selected device
1870:Drivers/STM32F7xx_HAL_Driver/Src/stm32f7xx_ll_usb.c ****   * @retval HAL state
1871:Drivers/STM32F7xx_HAL_Driver/Src/stm32f7xx_ll_usb.c ****   */
1872:Drivers/STM32F7xx_HAL_Driver/Src/stm32f7xx_ll_usb.c **** HAL_StatusTypeDef USB_StopHost(USB_OTG_GlobalTypeDef *USBx)
1873:Drivers/STM32F7xx_HAL_Driver/Src/stm32f7xx_ll_usb.c **** {
 3553              		.loc 1 1873 0
 3554              		.cfi_startproc
 3555              		@ args = 0, pretend = 0, frame = 0
 3556              		@ frame_needed = 0, uses_anonymous_args = 0
 3557              	.LVL339:
 3558 0000 70B5     		push	{r4, r5, r6, lr}
 3559              	.LCFI62:
 3560              		.cfi_def_cfa_offset 16
 3561              		.cfi_offset 4, -16
 3562              		.cfi_offset 5, -12
 3563              		.cfi_offset 6, -8
 3564              		.cfi_offset 14, -4
 3565 0002 0546     		mov	r5, r0
1874:Drivers/STM32F7xx_HAL_Driver/Src/stm32f7xx_ll_usb.c ****   uint32_t USBx_BASE = (uint32_t)USBx;
 3566              		.loc 1 1874 0
 3567 0004 0446     		mov	r4, r0
 3568              	.LVL340:
1875:Drivers/STM32F7xx_HAL_Driver/Src/stm32f7xx_ll_usb.c ****   uint32_t count = 0U;
1876:Drivers/STM32F7xx_HAL_Driver/Src/stm32f7xx_ll_usb.c ****   uint32_t value;
1877:Drivers/STM32F7xx_HAL_Driver/Src/stm32f7xx_ll_usb.c ****   uint32_t i;
1878:Drivers/STM32F7xx_HAL_Driver/Src/stm32f7xx_ll_usb.c **** 
ARM GAS  C:\Users\Patryk\AppData\Local\Temp\cc5QRopf.s 			page 103


1879:Drivers/STM32F7xx_HAL_Driver/Src/stm32f7xx_ll_usb.c **** 
1880:Drivers/STM32F7xx_HAL_Driver/Src/stm32f7xx_ll_usb.c ****   (void)USB_DisableGlobalInt(USBx);
 3569              		.loc 1 1880 0
 3570 0006 FFF7FEFF 		bl	USB_DisableGlobalInt
 3571              	.LVL341:
1881:Drivers/STM32F7xx_HAL_Driver/Src/stm32f7xx_ll_usb.c **** 
1882:Drivers/STM32F7xx_HAL_Driver/Src/stm32f7xx_ll_usb.c ****     /* Flush FIFO */
1883:Drivers/STM32F7xx_HAL_Driver/Src/stm32f7xx_ll_usb.c ****   (void)USB_FlushTxFifo(USBx, 0x10U);
 3572              		.loc 1 1883 0
 3573 000a 1021     		movs	r1, #16
 3574 000c 2846     		mov	r0, r5
 3575 000e FFF7FEFF 		bl	USB_FlushTxFifo
 3576              	.LVL342:
1884:Drivers/STM32F7xx_HAL_Driver/Src/stm32f7xx_ll_usb.c ****   (void)USB_FlushRxFifo(USBx);
 3577              		.loc 1 1884 0
 3578 0012 2846     		mov	r0, r5
 3579 0014 FFF7FEFF 		bl	USB_FlushRxFifo
 3580              	.LVL343:
1885:Drivers/STM32F7xx_HAL_Driver/Src/stm32f7xx_ll_usb.c **** 
1886:Drivers/STM32F7xx_HAL_Driver/Src/stm32f7xx_ll_usb.c ****   /* Flush out any leftover queued requests. */
1887:Drivers/STM32F7xx_HAL_Driver/Src/stm32f7xx_ll_usb.c ****   for (i = 0U; i <= 15U; i++)
 3581              		.loc 1 1887 0
 3582 0018 0022     		movs	r2, #0
 3583 001a 0AE0     		b	.L280
 3584              	.LVL344:
 3585              	.L281:
1888:Drivers/STM32F7xx_HAL_Driver/Src/stm32f7xx_ll_usb.c ****   {
1889:Drivers/STM32F7xx_HAL_Driver/Src/stm32f7xx_ll_usb.c ****     value = USBx_HC(i)->HCCHAR;
 3586              		.loc 1 1889 0 discriminator 3
 3587 001c 04EB4211 		add	r1, r4, r2, lsl #5
 3588 0020 D1F80035 		ldr	r3, [r1, #1280]
 3589              	.LVL345:
 3590 0024 23F08023 		bic	r3, r3, #-2147450880
 3591              	.LVL346:
1890:Drivers/STM32F7xx_HAL_Driver/Src/stm32f7xx_ll_usb.c ****     value |=  USB_OTG_HCCHAR_CHDIS;
1891:Drivers/STM32F7xx_HAL_Driver/Src/stm32f7xx_ll_usb.c ****     value &= ~USB_OTG_HCCHAR_CHENA;
1892:Drivers/STM32F7xx_HAL_Driver/Src/stm32f7xx_ll_usb.c ****     value &= ~USB_OTG_HCCHAR_EPDIR;
 3592              		.loc 1 1892 0 discriminator 3
 3593 0028 43F08043 		orr	r3, r3, #1073741824
 3594              	.LVL347:
1893:Drivers/STM32F7xx_HAL_Driver/Src/stm32f7xx_ll_usb.c ****     USBx_HC(i)->HCCHAR = value;
 3595              		.loc 1 1893 0 discriminator 3
 3596 002c C1F80035 		str	r3, [r1, #1280]
1887:Drivers/STM32F7xx_HAL_Driver/Src/stm32f7xx_ll_usb.c ****   {
 3597              		.loc 1 1887 0 discriminator 3
 3598 0030 0132     		adds	r2, r2, #1
 3599              	.LVL348:
 3600              	.L280:
1887:Drivers/STM32F7xx_HAL_Driver/Src/stm32f7xx_ll_usb.c ****   {
 3601              		.loc 1 1887 0 is_stmt 0 discriminator 1
 3602 0032 0F2A     		cmp	r2, #15
 3603 0034 F2D9     		bls	.L281
1894:Drivers/STM32F7xx_HAL_Driver/Src/stm32f7xx_ll_usb.c ****   }
1895:Drivers/STM32F7xx_HAL_Driver/Src/stm32f7xx_ll_usb.c **** 
1896:Drivers/STM32F7xx_HAL_Driver/Src/stm32f7xx_ll_usb.c ****   /* Halt all channels to put them into a known state. */
1897:Drivers/STM32F7xx_HAL_Driver/Src/stm32f7xx_ll_usb.c ****   for (i = 0U; i <= 15U; i++)
 3604              		.loc 1 1897 0 is_stmt 1
ARM GAS  C:\Users\Patryk\AppData\Local\Temp\cc5QRopf.s 			page 104


 3605 0036 0020     		movs	r0, #0
1875:Drivers/STM32F7xx_HAL_Driver/Src/stm32f7xx_ll_usb.c ****   uint32_t value;
 3606              		.loc 1 1875 0
 3607 0038 0346     		mov	r3, r0
 3608 003a 00E0     		b	.L282
 3609              	.LVL349:
 3610              	.L283:
 3611              		.loc 1 1897 0 discriminator 2
 3612 003c 0130     		adds	r0, r0, #1
 3613              	.LVL350:
 3614              	.L282:
 3615              		.loc 1 1897 0 is_stmt 0 discriminator 1
 3616 003e 0F28     		cmp	r0, #15
 3617 0040 13D8     		bhi	.L287
1898:Drivers/STM32F7xx_HAL_Driver/Src/stm32f7xx_ll_usb.c ****   {
1899:Drivers/STM32F7xx_HAL_Driver/Src/stm32f7xx_ll_usb.c ****     value = USBx_HC(i)->HCCHAR;
 3618              		.loc 1 1899 0 is_stmt 1
 3619 0042 04EB4016 		add	r6, r4, r0, lsl #5
 3620 0046 06F5A061 		add	r1, r6, #1280
 3621 004a D6F80025 		ldr	r2, [r6, #1280]
 3622              	.LVL351:
 3623 004e 22F40042 		bic	r2, r2, #32768
 3624              	.LVL352:
1900:Drivers/STM32F7xx_HAL_Driver/Src/stm32f7xx_ll_usb.c ****     value |= USB_OTG_HCCHAR_CHDIS;
1901:Drivers/STM32F7xx_HAL_Driver/Src/stm32f7xx_ll_usb.c ****     value |= USB_OTG_HCCHAR_CHENA;
1902:Drivers/STM32F7xx_HAL_Driver/Src/stm32f7xx_ll_usb.c ****     value &= ~USB_OTG_HCCHAR_EPDIR;
 3625              		.loc 1 1902 0
 3626 0052 42F04042 		orr	r2, r2, #-1073741824
 3627              	.LVL353:
1903:Drivers/STM32F7xx_HAL_Driver/Src/stm32f7xx_ll_usb.c ****     USBx_HC(i)->HCCHAR = value;
 3628              		.loc 1 1903 0
 3629 0056 C6F80025 		str	r2, [r6, #1280]
 3630              	.LVL354:
 3631              	.L284:
1904:Drivers/STM32F7xx_HAL_Driver/Src/stm32f7xx_ll_usb.c **** 
1905:Drivers/STM32F7xx_HAL_Driver/Src/stm32f7xx_ll_usb.c ****     do
1906:Drivers/STM32F7xx_HAL_Driver/Src/stm32f7xx_ll_usb.c ****     {
1907:Drivers/STM32F7xx_HAL_Driver/Src/stm32f7xx_ll_usb.c ****       if (++count > 1000U)
 3632              		.loc 1 1907 0
 3633 005a 0133     		adds	r3, r3, #1
 3634              	.LVL355:
 3635 005c B3F57A7F 		cmp	r3, #1000
 3636 0060 ECD8     		bhi	.L283
1908:Drivers/STM32F7xx_HAL_Driver/Src/stm32f7xx_ll_usb.c ****       {
1909:Drivers/STM32F7xx_HAL_Driver/Src/stm32f7xx_ll_usb.c ****         break;
1910:Drivers/STM32F7xx_HAL_Driver/Src/stm32f7xx_ll_usb.c ****       }
1911:Drivers/STM32F7xx_HAL_Driver/Src/stm32f7xx_ll_usb.c ****     }
1912:Drivers/STM32F7xx_HAL_Driver/Src/stm32f7xx_ll_usb.c ****     while ((USBx_HC(i)->HCCHAR & USB_OTG_HCCHAR_CHENA) == USB_OTG_HCCHAR_CHENA);
 3637              		.loc 1 1912 0
 3638 0062 0A68     		ldr	r2, [r1]
 3639 0064 002A     		cmp	r2, #0
 3640 0066 F8DB     		blt	.L284
 3641 0068 E8E7     		b	.L283
 3642              	.LVL356:
 3643              	.L287:
1913:Drivers/STM32F7xx_HAL_Driver/Src/stm32f7xx_ll_usb.c ****   }
1914:Drivers/STM32F7xx_HAL_Driver/Src/stm32f7xx_ll_usb.c **** 
ARM GAS  C:\Users\Patryk\AppData\Local\Temp\cc5QRopf.s 			page 105


1915:Drivers/STM32F7xx_HAL_Driver/Src/stm32f7xx_ll_usb.c ****   /* Clear any pending Host interrupts */
1916:Drivers/STM32F7xx_HAL_Driver/Src/stm32f7xx_ll_usb.c ****   USBx_HOST->HAINT = 0xFFFFFFFFU;
 3644              		.loc 1 1916 0
 3645 006a 4FF0FF33 		mov	r3, #-1
 3646              	.LVL357:
 3647 006e C5F81434 		str	r3, [r5, #1044]
1917:Drivers/STM32F7xx_HAL_Driver/Src/stm32f7xx_ll_usb.c ****   USBx->GINTSTS = 0xFFFFFFFFU;
 3648              		.loc 1 1917 0
 3649 0072 6B61     		str	r3, [r5, #20]
1918:Drivers/STM32F7xx_HAL_Driver/Src/stm32f7xx_ll_usb.c ****   (void)USB_EnableGlobalInt(USBx);
 3650              		.loc 1 1918 0
 3651 0074 2846     		mov	r0, r5
 3652              	.LVL358:
 3653 0076 FFF7FEFF 		bl	USB_EnableGlobalInt
 3654              	.LVL359:
1919:Drivers/STM32F7xx_HAL_Driver/Src/stm32f7xx_ll_usb.c **** 
1920:Drivers/STM32F7xx_HAL_Driver/Src/stm32f7xx_ll_usb.c ****   return HAL_OK;
1921:Drivers/STM32F7xx_HAL_Driver/Src/stm32f7xx_ll_usb.c **** }
 3655              		.loc 1 1921 0
 3656 007a 0020     		movs	r0, #0
 3657 007c 70BD     		pop	{r4, r5, r6, pc}
 3658              		.cfi_endproc
 3659              	.LFE182:
 3661              		.section	.text.USB_ActivateRemoteWakeup,"ax",%progbits
 3662              		.align	1
 3663              		.global	USB_ActivateRemoteWakeup
 3664              		.syntax unified
 3665              		.thumb
 3666              		.thumb_func
 3667              		.fpu fpv5-sp-d16
 3669              	USB_ActivateRemoteWakeup:
 3670              	.LFB183:
1922:Drivers/STM32F7xx_HAL_Driver/Src/stm32f7xx_ll_usb.c **** 
1923:Drivers/STM32F7xx_HAL_Driver/Src/stm32f7xx_ll_usb.c **** /**
1924:Drivers/STM32F7xx_HAL_Driver/Src/stm32f7xx_ll_usb.c ****   * @brief  USB_ActivateRemoteWakeup active remote wakeup signalling
1925:Drivers/STM32F7xx_HAL_Driver/Src/stm32f7xx_ll_usb.c ****   * @param  USBx Selected device
1926:Drivers/STM32F7xx_HAL_Driver/Src/stm32f7xx_ll_usb.c ****   * @retval HAL status
1927:Drivers/STM32F7xx_HAL_Driver/Src/stm32f7xx_ll_usb.c ****   */
1928:Drivers/STM32F7xx_HAL_Driver/Src/stm32f7xx_ll_usb.c **** HAL_StatusTypeDef USB_ActivateRemoteWakeup(USB_OTG_GlobalTypeDef *USBx)
1929:Drivers/STM32F7xx_HAL_Driver/Src/stm32f7xx_ll_usb.c **** {
 3671              		.loc 1 1929 0
 3672              		.cfi_startproc
 3673              		@ args = 0, pretend = 0, frame = 0
 3674              		@ frame_needed = 0, uses_anonymous_args = 0
 3675              		@ link register save eliminated.
 3676              	.LVL360:
1930:Drivers/STM32F7xx_HAL_Driver/Src/stm32f7xx_ll_usb.c ****   uint32_t USBx_BASE = (uint32_t)USBx;
1931:Drivers/STM32F7xx_HAL_Driver/Src/stm32f7xx_ll_usb.c **** 
1932:Drivers/STM32F7xx_HAL_Driver/Src/stm32f7xx_ll_usb.c ****   if((USBx_DEVICE->DSTS & USB_OTG_DSTS_SUSPSTS) == USB_OTG_DSTS_SUSPSTS)
 3677              		.loc 1 1932 0
 3678 0000 D0F80838 		ldr	r3, [r0, #2056]
 3679 0004 00F50060 		add	r0, r0, #2048
 3680              	.LVL361:
 3681 0008 13F0010F 		tst	r3, #1
 3682 000c 03D0     		beq	.L289
1933:Drivers/STM32F7xx_HAL_Driver/Src/stm32f7xx_ll_usb.c ****   {
1934:Drivers/STM32F7xx_HAL_Driver/Src/stm32f7xx_ll_usb.c ****     /* active Remote wakeup signalling */
ARM GAS  C:\Users\Patryk\AppData\Local\Temp\cc5QRopf.s 			page 106


1935:Drivers/STM32F7xx_HAL_Driver/Src/stm32f7xx_ll_usb.c ****     USBx_DEVICE->DCTL |= USB_OTG_DCTL_RWUSIG;
 3683              		.loc 1 1935 0
 3684 000e 4368     		ldr	r3, [r0, #4]
 3685 0010 43F00103 		orr	r3, r3, #1
 3686 0014 4360     		str	r3, [r0, #4]
 3687              	.L289:
1936:Drivers/STM32F7xx_HAL_Driver/Src/stm32f7xx_ll_usb.c ****   }
1937:Drivers/STM32F7xx_HAL_Driver/Src/stm32f7xx_ll_usb.c **** 
1938:Drivers/STM32F7xx_HAL_Driver/Src/stm32f7xx_ll_usb.c ****   return HAL_OK;
1939:Drivers/STM32F7xx_HAL_Driver/Src/stm32f7xx_ll_usb.c **** }
 3688              		.loc 1 1939 0
 3689 0016 0020     		movs	r0, #0
 3690              	.LVL362:
 3691 0018 7047     		bx	lr
 3692              		.cfi_endproc
 3693              	.LFE183:
 3695              		.section	.text.USB_DeActivateRemoteWakeup,"ax",%progbits
 3696              		.align	1
 3697              		.global	USB_DeActivateRemoteWakeup
 3698              		.syntax unified
 3699              		.thumb
 3700              		.thumb_func
 3701              		.fpu fpv5-sp-d16
 3703              	USB_DeActivateRemoteWakeup:
 3704              	.LFB184:
1940:Drivers/STM32F7xx_HAL_Driver/Src/stm32f7xx_ll_usb.c **** 
1941:Drivers/STM32F7xx_HAL_Driver/Src/stm32f7xx_ll_usb.c **** /**
1942:Drivers/STM32F7xx_HAL_Driver/Src/stm32f7xx_ll_usb.c ****   * @brief  USB_DeActivateRemoteWakeup de-active remote wakeup signalling
1943:Drivers/STM32F7xx_HAL_Driver/Src/stm32f7xx_ll_usb.c ****   * @param  USBx Selected device
1944:Drivers/STM32F7xx_HAL_Driver/Src/stm32f7xx_ll_usb.c ****   * @retval HAL status
1945:Drivers/STM32F7xx_HAL_Driver/Src/stm32f7xx_ll_usb.c ****   */
1946:Drivers/STM32F7xx_HAL_Driver/Src/stm32f7xx_ll_usb.c **** HAL_StatusTypeDef USB_DeActivateRemoteWakeup(USB_OTG_GlobalTypeDef *USBx)
1947:Drivers/STM32F7xx_HAL_Driver/Src/stm32f7xx_ll_usb.c **** {
 3705              		.loc 1 1947 0
 3706              		.cfi_startproc
 3707              		@ args = 0, pretend = 0, frame = 0
 3708              		@ frame_needed = 0, uses_anonymous_args = 0
 3709              		@ link register save eliminated.
 3710              	.LVL363:
1948:Drivers/STM32F7xx_HAL_Driver/Src/stm32f7xx_ll_usb.c ****   uint32_t USBx_BASE = (uint32_t)USBx;
1949:Drivers/STM32F7xx_HAL_Driver/Src/stm32f7xx_ll_usb.c **** 
1950:Drivers/STM32F7xx_HAL_Driver/Src/stm32f7xx_ll_usb.c ****   /* active Remote wakeup signalling */
1951:Drivers/STM32F7xx_HAL_Driver/Src/stm32f7xx_ll_usb.c ****    USBx_DEVICE->DCTL &= ~(USB_OTG_DCTL_RWUSIG);
 3711              		.loc 1 1951 0
 3712 0000 D0F80438 		ldr	r3, [r0, #2052]
 3713 0004 23F00103 		bic	r3, r3, #1
 3714 0008 C0F80438 		str	r3, [r0, #2052]
1952:Drivers/STM32F7xx_HAL_Driver/Src/stm32f7xx_ll_usb.c **** 
1953:Drivers/STM32F7xx_HAL_Driver/Src/stm32f7xx_ll_usb.c ****   return HAL_OK;
1954:Drivers/STM32F7xx_HAL_Driver/Src/stm32f7xx_ll_usb.c **** }
 3715              		.loc 1 1954 0
 3716 000c 0020     		movs	r0, #0
 3717              	.LVL364:
 3718 000e 7047     		bx	lr
 3719              		.cfi_endproc
 3720              	.LFE184:
 3722              		.section	.bss.tmpreg.12080,"aw",%nobits
ARM GAS  C:\Users\Patryk\AppData\Local\Temp\cc5QRopf.s 			page 107


 3723              		.align	2
 3724              		.set	.LANCHOR0,. + 0
 3727              	tmpreg.12080:
 3728 0000 00000000 		.space	4
 3729              		.text
 3730              	.Letext0:
 3731              		.file 2 "c:\\program files (x86)\\gnu\\7_2018-q2-update\\arm-none-eabi\\include\\machine\\_default
 3732              		.file 3 "c:\\program files (x86)\\gnu\\7_2018-q2-update\\arm-none-eabi\\include\\sys\\_stdint.h"
 3733              		.file 4 "Drivers/CMSIS/Include/core_cm7.h"
 3734              		.file 5 "Drivers/CMSIS/Device/ST/STM32F7xx/Include/system_stm32f7xx.h"
 3735              		.file 6 "Drivers/CMSIS/Device/ST/STM32F7xx/Include/stm32f746xx.h"
 3736              		.file 7 "c:\\program files (x86)\\gnu\\7_2018-q2-update\\arm-none-eabi\\include\\sys\\lock.h"
 3737              		.file 8 "c:\\program files (x86)\\gnu\\7_2018-q2-update\\arm-none-eabi\\include\\sys\\_types.h"
 3738              		.file 9 "c:\\program files (x86)\\gnu\\7_2018-q2-update\\lib\\gcc\\arm-none-eabi\\7.3.1\\include\\
 3739              		.file 10 "c:\\program files (x86)\\gnu\\7_2018-q2-update\\arm-none-eabi\\include\\sys\\reent.h"
 3740              		.file 11 "Drivers/STM32F7xx_HAL_Driver/Inc/stm32f7xx_hal_def.h"
 3741              		.file 12 "Drivers/STM32F7xx_HAL_Driver/Inc/stm32f7xx_ll_usb.h"
 3742              		.file 13 "Drivers/STM32F7xx_HAL_Driver/Inc/stm32f7xx_hal.h"
ARM GAS  C:\Users\Patryk\AppData\Local\Temp\cc5QRopf.s 			page 108


DEFINED SYMBOLS
                            *ABS*:00000000 stm32f7xx_ll_usb.c
C:\Users\Patryk\AppData\Local\Temp\cc5QRopf.s:18     .text.USB_CoreReset:00000000 $t
C:\Users\Patryk\AppData\Local\Temp\cc5QRopf.s:24     .text.USB_CoreReset:00000000 USB_CoreReset
C:\Users\Patryk\AppData\Local\Temp\cc5QRopf.s:86     .text.USB_CoreReset:00000038 $d
C:\Users\Patryk\AppData\Local\Temp\cc5QRopf.s:91     .text.USB_CoreInit:00000000 $t
C:\Users\Patryk\AppData\Local\Temp\cc5QRopf.s:98     .text.USB_CoreInit:00000000 USB_CoreInit
C:\Users\Patryk\AppData\Local\Temp\cc5QRopf.s:197    .text.USB_CoreInit:00000078 $d
C:\Users\Patryk\AppData\Local\Temp\cc5QRopf.s:202    .text.USB_EnableGlobalInt:00000000 $t
C:\Users\Patryk\AppData\Local\Temp\cc5QRopf.s:209    .text.USB_EnableGlobalInt:00000000 USB_EnableGlobalInt
C:\Users\Patryk\AppData\Local\Temp\cc5QRopf.s:229    .text.USB_DisableGlobalInt:00000000 $t
C:\Users\Patryk\AppData\Local\Temp\cc5QRopf.s:236    .text.USB_DisableGlobalInt:00000000 USB_DisableGlobalInt
C:\Users\Patryk\AppData\Local\Temp\cc5QRopf.s:256    .text.USB_SetCurrentMode:00000000 $t
C:\Users\Patryk\AppData\Local\Temp\cc5QRopf.s:263    .text.USB_SetCurrentMode:00000000 USB_SetCurrentMode
C:\Users\Patryk\AppData\Local\Temp\cc5QRopf.s:315    .text.USB_FlushTxFifo:00000000 $t
C:\Users\Patryk\AppData\Local\Temp\cc5QRopf.s:322    .text.USB_FlushTxFifo:00000000 USB_FlushTxFifo
C:\Users\Patryk\AppData\Local\Temp\cc5QRopf.s:363    .text.USB_FlushTxFifo:00000024 $d
C:\Users\Patryk\AppData\Local\Temp\cc5QRopf.s:368    .text.USB_FlushRxFifo:00000000 $t
C:\Users\Patryk\AppData\Local\Temp\cc5QRopf.s:375    .text.USB_FlushRxFifo:00000000 USB_FlushRxFifo
C:\Users\Patryk\AppData\Local\Temp\cc5QRopf.s:414    .text.USB_FlushRxFifo:00000020 $d
C:\Users\Patryk\AppData\Local\Temp\cc5QRopf.s:419    .text.USB_SetDevSpeed:00000000 $t
C:\Users\Patryk\AppData\Local\Temp\cc5QRopf.s:426    .text.USB_SetDevSpeed:00000000 USB_SetDevSpeed
C:\Users\Patryk\AppData\Local\Temp\cc5QRopf.s:447    .text.USB_DevInit:00000000 $t
C:\Users\Patryk\AppData\Local\Temp\cc5QRopf.s:454    .text.USB_DevInit:00000000 USB_DevInit
C:\Users\Patryk\AppData\Local\Temp\cc5QRopf.s:750    .text.USB_DevInit:00000194 $d
C:\Users\Patryk\AppData\Local\Temp\cc5QRopf.s:758    .text.USB_GetDevSpeed:00000000 $t
C:\Users\Patryk\AppData\Local\Temp\cc5QRopf.s:765    .text.USB_GetDevSpeed:00000000 USB_GetDevSpeed
C:\Users\Patryk\AppData\Local\Temp\cc5QRopf.s:815    .text.USB_ActivateEndpoint:00000000 $t
C:\Users\Patryk\AppData\Local\Temp\cc5QRopf.s:822    .text.USB_ActivateEndpoint:00000000 USB_ActivateEndpoint
C:\Users\Patryk\AppData\Local\Temp\cc5QRopf.s:920    .text.USB_ActivateEndpoint:0000008c $d
C:\Users\Patryk\AppData\Local\Temp\cc5QRopf.s:925    .text.USB_ActivateDedicatedEndpoint:00000000 $t
C:\Users\Patryk\AppData\Local\Temp\cc5QRopf.s:932    .text.USB_ActivateDedicatedEndpoint:00000000 USB_ActivateDedicatedEndpoint
C:\Users\Patryk\AppData\Local\Temp\cc5QRopf.s:1036   .text.USB_ActivateDedicatedEndpoint:00000098 $d
C:\Users\Patryk\AppData\Local\Temp\cc5QRopf.s:1041   .text.USB_DeactivateEndpoint:00000000 $t
C:\Users\Patryk\AppData\Local\Temp\cc5QRopf.s:1048   .text.USB_DeactivateEndpoint:00000000 USB_DeactivateEndpoint
C:\Users\Patryk\AppData\Local\Temp\cc5QRopf.s:1136   .text.USB_DeactivateEndpoint:00000088 $d
C:\Users\Patryk\AppData\Local\Temp\cc5QRopf.s:1142   .text.USB_DeactivateDedicatedEndpoint:00000000 $t
C:\Users\Patryk\AppData\Local\Temp\cc5QRopf.s:1149   .text.USB_DeactivateDedicatedEndpoint:00000000 USB_DeactivateDedicatedEndpoint
C:\Users\Patryk\AppData\Local\Temp\cc5QRopf.s:1209   .text.USB_EP0StartXfer:00000000 $t
C:\Users\Patryk\AppData\Local\Temp\cc5QRopf.s:1216   .text.USB_EP0StartXfer:00000000 USB_EP0StartXfer
C:\Users\Patryk\AppData\Local\Temp\cc5QRopf.s:1389   .text.USB_EP0StartXfer:000000f8 $d
C:\Users\Patryk\AppData\Local\Temp\cc5QRopf.s:1395   .text.USB_WritePacket:00000000 $t
C:\Users\Patryk\AppData\Local\Temp\cc5QRopf.s:1402   .text.USB_WritePacket:00000000 USB_WritePacket
C:\Users\Patryk\AppData\Local\Temp\cc5QRopf.s:1460   .text.USB_EPStartXfer:00000000 $t
C:\Users\Patryk\AppData\Local\Temp\cc5QRopf.s:1467   .text.USB_EPStartXfer:00000000 USB_EPStartXfer
C:\Users\Patryk\AppData\Local\Temp\cc5QRopf.s:1735   .text.USB_EPStartXfer:000001d4 $d
C:\Users\Patryk\AppData\Local\Temp\cc5QRopf.s:1742   .text.USB_ReadPacket:00000000 $t
C:\Users\Patryk\AppData\Local\Temp\cc5QRopf.s:1749   .text.USB_ReadPacket:00000000 USB_ReadPacket
C:\Users\Patryk\AppData\Local\Temp\cc5QRopf.s:1801   .text.USB_EPSetStall:00000000 $t
C:\Users\Patryk\AppData\Local\Temp\cc5QRopf.s:1808   .text.USB_EPSetStall:00000000 USB_EPSetStall
C:\Users\Patryk\AppData\Local\Temp\cc5QRopf.s:1872   .text.USB_EPClearStall:00000000 $t
C:\Users\Patryk\AppData\Local\Temp\cc5QRopf.s:1879   .text.USB_EPClearStall:00000000 USB_EPClearStall
C:\Users\Patryk\AppData\Local\Temp\cc5QRopf.s:1943   .text.USB_StopDevice:00000000 $t
C:\Users\Patryk\AppData\Local\Temp\cc5QRopf.s:1950   .text.USB_StopDevice:00000000 USB_StopDevice
C:\Users\Patryk\AppData\Local\Temp\cc5QRopf.s:2010   .text.USB_SetDevAddress:00000000 $t
C:\Users\Patryk\AppData\Local\Temp\cc5QRopf.s:2017   .text.USB_SetDevAddress:00000000 USB_SetDevAddress
C:\Users\Patryk\AppData\Local\Temp\cc5QRopf.s:2044   .text.USB_DevConnect:00000000 $t
ARM GAS  C:\Users\Patryk\AppData\Local\Temp\cc5QRopf.s 			page 109


C:\Users\Patryk\AppData\Local\Temp\cc5QRopf.s:2051   .text.USB_DevConnect:00000000 USB_DevConnect
C:\Users\Patryk\AppData\Local\Temp\cc5QRopf.s:2080   .text.USB_DevDisconnect:00000000 $t
C:\Users\Patryk\AppData\Local\Temp\cc5QRopf.s:2087   .text.USB_DevDisconnect:00000000 USB_DevDisconnect
C:\Users\Patryk\AppData\Local\Temp\cc5QRopf.s:2116   .text.USB_ReadInterrupts:00000000 $t
C:\Users\Patryk\AppData\Local\Temp\cc5QRopf.s:2123   .text.USB_ReadInterrupts:00000000 USB_ReadInterrupts
C:\Users\Patryk\AppData\Local\Temp\cc5QRopf.s:2145   .text.USB_ReadDevAllOutEpInterrupt:00000000 $t
C:\Users\Patryk\AppData\Local\Temp\cc5QRopf.s:2152   .text.USB_ReadDevAllOutEpInterrupt:00000000 USB_ReadDevAllOutEpInterrupt
C:\Users\Patryk\AppData\Local\Temp\cc5QRopf.s:2177   .text.USB_ReadDevAllInEpInterrupt:00000000 $t
C:\Users\Patryk\AppData\Local\Temp\cc5QRopf.s:2184   .text.USB_ReadDevAllInEpInterrupt:00000000 USB_ReadDevAllInEpInterrupt
C:\Users\Patryk\AppData\Local\Temp\cc5QRopf.s:2209   .text.USB_ReadDevOutEPInterrupt:00000000 $t
C:\Users\Patryk\AppData\Local\Temp\cc5QRopf.s:2216   .text.USB_ReadDevOutEPInterrupt:00000000 USB_ReadDevOutEPInterrupt
C:\Users\Patryk\AppData\Local\Temp\cc5QRopf.s:2242   .text.USB_ReadDevInEPInterrupt:00000000 $t
C:\Users\Patryk\AppData\Local\Temp\cc5QRopf.s:2249   .text.USB_ReadDevInEPInterrupt:00000000 USB_ReadDevInEPInterrupt
C:\Users\Patryk\AppData\Local\Temp\cc5QRopf.s:2294   .text.USB_ClearInterrupts:00000000 $t
C:\Users\Patryk\AppData\Local\Temp\cc5QRopf.s:2301   .text.USB_ClearInterrupts:00000000 USB_ClearInterrupts
C:\Users\Patryk\AppData\Local\Temp\cc5QRopf.s:2320   .text.USB_GetMode:00000000 $t
C:\Users\Patryk\AppData\Local\Temp\cc5QRopf.s:2327   .text.USB_GetMode:00000000 USB_GetMode
C:\Users\Patryk\AppData\Local\Temp\cc5QRopf.s:2345   .text.USB_ActivateSetup:00000000 $t
C:\Users\Patryk\AppData\Local\Temp\cc5QRopf.s:2352   .text.USB_ActivateSetup:00000000 USB_ActivateSetup
C:\Users\Patryk\AppData\Local\Temp\cc5QRopf.s:2390   .text.USB_ActivateSetup:00000034 $d
C:\Users\Patryk\AppData\Local\Temp\cc5QRopf.s:2395   .text.USB_EP0_OutStart:00000000 $t
C:\Users\Patryk\AppData\Local\Temp\cc5QRopf.s:2402   .text.USB_EP0_OutStart:00000000 USB_EP0_OutStart
C:\Users\Patryk\AppData\Local\Temp\cc5QRopf.s:2457   .text.USB_InitFSLSPClkSel:00000000 $t
C:\Users\Patryk\AppData\Local\Temp\cc5QRopf.s:2464   .text.USB_InitFSLSPClkSel:00000000 USB_InitFSLSPClkSel
C:\Users\Patryk\AppData\Local\Temp\cc5QRopf.s:2521   .text.USB_ResetPort:00000000 $t
C:\Users\Patryk\AppData\Local\Temp\cc5QRopf.s:2528   .text.USB_ResetPort:00000000 USB_ResetPort
C:\Users\Patryk\AppData\Local\Temp\cc5QRopf.s:2584   .text.USB_DriveVbus:00000000 $t
C:\Users\Patryk\AppData\Local\Temp\cc5QRopf.s:2591   .text.USB_DriveVbus:00000000 USB_DriveVbus
C:\Users\Patryk\AppData\Local\Temp\cc5QRopf.s:2654   .text.USB_HostInit:00000000 $t
C:\Users\Patryk\AppData\Local\Temp\cc5QRopf.s:2661   .text.USB_HostInit:00000000 USB_HostInit
C:\Users\Patryk\AppData\Local\Temp\cc5QRopf.s:2814   .text.USB_HostInit:000000d0 $d
C:\Users\Patryk\AppData\Local\Temp\cc5QRopf.s:2821   .text.USB_GetHostSpeed:00000000 $t
C:\Users\Patryk\AppData\Local\Temp\cc5QRopf.s:2828   .text.USB_GetHostSpeed:00000000 USB_GetHostSpeed
C:\Users\Patryk\AppData\Local\Temp\cc5QRopf.s:2860   .text.USB_GetCurrentFrame:00000000 $t
C:\Users\Patryk\AppData\Local\Temp\cc5QRopf.s:2867   .text.USB_GetCurrentFrame:00000000 USB_GetCurrentFrame
C:\Users\Patryk\AppData\Local\Temp\cc5QRopf.s:2887   .text.USB_HC_Init:00000000 $t
C:\Users\Patryk\AppData\Local\Temp\cc5QRopf.s:2894   .text.USB_HC_Init:00000000 USB_HC_Init
C:\Users\Patryk\AppData\Local\Temp\cc5QRopf.s:2923   .text.USB_HC_Init:0000001e $d
C:\Users\Patryk\AppData\Local\Temp\cc5QRopf.s:2927   .text.USB_HC_Init:00000022 $t
C:\Users\Patryk\AppData\Local\Temp\cc5QRopf.s:3080   .text.USB_HC_ReadInterrupt:00000000 $t
C:\Users\Patryk\AppData\Local\Temp\cc5QRopf.s:3087   .text.USB_HC_ReadInterrupt:00000000 USB_HC_ReadInterrupt
C:\Users\Patryk\AppData\Local\Temp\cc5QRopf.s:3107   .text.USB_HC_Halt:00000000 $t
C:\Users\Patryk\AppData\Local\Temp\cc5QRopf.s:3114   .text.USB_HC_Halt:00000000 USB_HC_Halt
C:\Users\Patryk\AppData\Local\Temp\cc5QRopf.s:3241   .text.USB_DoPing:00000000 $t
C:\Users\Patryk\AppData\Local\Temp\cc5QRopf.s:3248   .text.USB_DoPing:00000000 USB_DoPing
C:\Users\Patryk\AppData\Local\Temp\cc5QRopf.s:3279   .text.USB_DoPing:00000020 $d
C:\Users\Patryk\AppData\Local\Temp\cc5QRopf.s:3284   .text.USB_HC_StartXfer:00000000 $t
C:\Users\Patryk\AppData\Local\Temp\cc5QRopf.s:3291   .text.USB_HC_StartXfer:00000000 USB_HC_StartXfer
C:\Users\Patryk\AppData\Local\Temp\cc5QRopf.s:3465   .text.USB_HC_StartXfer:000000fa $d
C:\Users\Patryk\AppData\Local\Temp\cc5QRopf.s:3470   .text.USB_HC_StartXfer:000000fe $t
C:\Users\Patryk\AppData\Local\Temp\cc5QRopf.s:3538   .text.USB_HC_StartXfer:00000150 $d
C:\Users\Patryk\AppData\Local\Temp\cc5QRopf.s:3544   .text.USB_StopHost:00000000 $t
C:\Users\Patryk\AppData\Local\Temp\cc5QRopf.s:3551   .text.USB_StopHost:00000000 USB_StopHost
C:\Users\Patryk\AppData\Local\Temp\cc5QRopf.s:3662   .text.USB_ActivateRemoteWakeup:00000000 $t
C:\Users\Patryk\AppData\Local\Temp\cc5QRopf.s:3669   .text.USB_ActivateRemoteWakeup:00000000 USB_ActivateRemoteWakeup
C:\Users\Patryk\AppData\Local\Temp\cc5QRopf.s:3696   .text.USB_DeActivateRemoteWakeup:00000000 $t
C:\Users\Patryk\AppData\Local\Temp\cc5QRopf.s:3703   .text.USB_DeActivateRemoteWakeup:00000000 USB_DeActivateRemoteWakeup
ARM GAS  C:\Users\Patryk\AppData\Local\Temp\cc5QRopf.s 			page 110


C:\Users\Patryk\AppData\Local\Temp\cc5QRopf.s:3723   .bss.tmpreg.12080:00000000 $d
C:\Users\Patryk\AppData\Local\Temp\cc5QRopf.s:3727   .bss.tmpreg.12080:00000000 tmpreg.12080

UNDEFINED SYMBOLS
HAL_Delay
