ARM GAS  C:\Users\Student\AppData\Local\Temp\cc4Wk4r8.s 			page 1


   1              		.cpu cortex-m7
   2              		.eabi_attribute 27, 1
   3              		.eabi_attribute 28, 1
   4              		.eabi_attribute 20, 1
   5              		.eabi_attribute 21, 1
   6              		.eabi_attribute 23, 3
   7              		.eabi_attribute 24, 1
   8              		.eabi_attribute 25, 1
   9              		.eabi_attribute 26, 1
  10              		.eabi_attribute 30, 1
  11              		.eabi_attribute 34, 1
  12              		.eabi_attribute 18, 4
  13              		.file	"stm32f7xx_hal_uart.c"
  14              		.text
  15              	.Ltext0:
  16              		.cfi_sections	.debug_frame
  17              		.section	.text.UART_Transmit_IT,"ax",%progbits
  18              		.align	1
  19              		.syntax unified
  20              		.thumb
  21              		.thumb_func
  22              		.fpu fpv5-sp-d16
  24              	UART_Transmit_IT:
  25              	.LFB166:
  26              		.file 1 "Drivers/STM32F7xx_HAL_Driver/Src/stm32f7xx_hal_uart.c"
   1:Drivers/STM32F7xx_HAL_Driver/Src/stm32f7xx_hal_uart.c **** /**
   2:Drivers/STM32F7xx_HAL_Driver/Src/stm32f7xx_hal_uart.c ****   ******************************************************************************
   3:Drivers/STM32F7xx_HAL_Driver/Src/stm32f7xx_hal_uart.c ****   * @file    stm32f7xx_hal_uart.c
   4:Drivers/STM32F7xx_HAL_Driver/Src/stm32f7xx_hal_uart.c ****   * @author  MCD Application Team
   5:Drivers/STM32F7xx_HAL_Driver/Src/stm32f7xx_hal_uart.c ****   * @brief   UART HAL module driver.
   6:Drivers/STM32F7xx_HAL_Driver/Src/stm32f7xx_hal_uart.c ****   *          This file provides firmware functions to manage the following
   7:Drivers/STM32F7xx_HAL_Driver/Src/stm32f7xx_hal_uart.c ****   *          functionalities of the Universal Asynchronous Receiver Transmitter (UART) peripheral:
   8:Drivers/STM32F7xx_HAL_Driver/Src/stm32f7xx_hal_uart.c ****   *           + Initialization and de-initialization functions
   9:Drivers/STM32F7xx_HAL_Driver/Src/stm32f7xx_hal_uart.c ****   *           + IO operation functions
  10:Drivers/STM32F7xx_HAL_Driver/Src/stm32f7xx_hal_uart.c ****   *           + Peripheral Control functions
  11:Drivers/STM32F7xx_HAL_Driver/Src/stm32f7xx_hal_uart.c ****   *           + Peripheral State and Errors functions
  12:Drivers/STM32F7xx_HAL_Driver/Src/stm32f7xx_hal_uart.c ****   *
  13:Drivers/STM32F7xx_HAL_Driver/Src/stm32f7xx_hal_uart.c ****   @verbatim
  14:Drivers/STM32F7xx_HAL_Driver/Src/stm32f7xx_hal_uart.c ****   ==============================================================================
  15:Drivers/STM32F7xx_HAL_Driver/Src/stm32f7xx_hal_uart.c ****                         ##### How to use this driver #####
  16:Drivers/STM32F7xx_HAL_Driver/Src/stm32f7xx_hal_uart.c ****   ==============================================================================
  17:Drivers/STM32F7xx_HAL_Driver/Src/stm32f7xx_hal_uart.c ****   [..]
  18:Drivers/STM32F7xx_HAL_Driver/Src/stm32f7xx_hal_uart.c ****     The UART HAL driver can be used as follows:
  19:Drivers/STM32F7xx_HAL_Driver/Src/stm32f7xx_hal_uart.c **** 
  20:Drivers/STM32F7xx_HAL_Driver/Src/stm32f7xx_hal_uart.c ****     (#) Declare a UART_HandleTypeDef handle structure.
  21:Drivers/STM32F7xx_HAL_Driver/Src/stm32f7xx_hal_uart.c **** 
  22:Drivers/STM32F7xx_HAL_Driver/Src/stm32f7xx_hal_uart.c ****     (#) Initialize the UART low level resources by implementing the HAL_UART_MspInit() API:
  23:Drivers/STM32F7xx_HAL_Driver/Src/stm32f7xx_hal_uart.c ****         (##) Enable the USARTx interface clock.
  24:Drivers/STM32F7xx_HAL_Driver/Src/stm32f7xx_hal_uart.c ****         (##) UART pins configuration:
  25:Drivers/STM32F7xx_HAL_Driver/Src/stm32f7xx_hal_uart.c ****             (+++) Enable the clock for the UART GPIOs.
  26:Drivers/STM32F7xx_HAL_Driver/Src/stm32f7xx_hal_uart.c ****             (+++) Configure these UART pins as alternate function pull-up.
  27:Drivers/STM32F7xx_HAL_Driver/Src/stm32f7xx_hal_uart.c ****         (##) NVIC configuration if you need to use interrupt process (HAL_UART_Transmit_IT()
  28:Drivers/STM32F7xx_HAL_Driver/Src/stm32f7xx_hal_uart.c ****              and HAL_UART_Receive_IT() APIs):
  29:Drivers/STM32F7xx_HAL_Driver/Src/stm32f7xx_hal_uart.c ****             (+++) Configure the USARTx interrupt priority.
  30:Drivers/STM32F7xx_HAL_Driver/Src/stm32f7xx_hal_uart.c ****             (+++) Enable the NVIC USART IRQ handle.
  31:Drivers/STM32F7xx_HAL_Driver/Src/stm32f7xx_hal_uart.c ****         (##) DMA Configuration if you need to use DMA process (HAL_UART_Transmit_DMA()
  32:Drivers/STM32F7xx_HAL_Driver/Src/stm32f7xx_hal_uart.c ****              and HAL_UART_Receive_DMA() APIs):
ARM GAS  C:\Users\Student\AppData\Local\Temp\cc4Wk4r8.s 			page 2


  33:Drivers/STM32F7xx_HAL_Driver/Src/stm32f7xx_hal_uart.c ****             (+++) Declare a DMA handle structure for the Tx/Rx stream.
  34:Drivers/STM32F7xx_HAL_Driver/Src/stm32f7xx_hal_uart.c ****             (+++) Enable the DMAx interface clock.
  35:Drivers/STM32F7xx_HAL_Driver/Src/stm32f7xx_hal_uart.c ****             (+++) Configure the declared DMA handle structure with the required
  36:Drivers/STM32F7xx_HAL_Driver/Src/stm32f7xx_hal_uart.c ****                   Tx/Rx parameters.
  37:Drivers/STM32F7xx_HAL_Driver/Src/stm32f7xx_hal_uart.c ****             (+++) Configure the DMA Tx/Rx Stream.
  38:Drivers/STM32F7xx_HAL_Driver/Src/stm32f7xx_hal_uart.c ****             (+++) Associate the initialized DMA handle to the UART DMA Tx/Rx handle.
  39:Drivers/STM32F7xx_HAL_Driver/Src/stm32f7xx_hal_uart.c ****             (+++) Configure the priority and enable the NVIC for the transfer complete
  40:Drivers/STM32F7xx_HAL_Driver/Src/stm32f7xx_hal_uart.c ****                   interrupt on the DMA Tx/Rx Stream.
  41:Drivers/STM32F7xx_HAL_Driver/Src/stm32f7xx_hal_uart.c **** 
  42:Drivers/STM32F7xx_HAL_Driver/Src/stm32f7xx_hal_uart.c ****     (#) Program the Baud Rate, Word Length, Stop Bit, Parity, Hardware
  43:Drivers/STM32F7xx_HAL_Driver/Src/stm32f7xx_hal_uart.c ****         flow control and Mode(Receiver/Transmitter) in the Init structure.
  44:Drivers/STM32F7xx_HAL_Driver/Src/stm32f7xx_hal_uart.c **** 
  45:Drivers/STM32F7xx_HAL_Driver/Src/stm32f7xx_hal_uart.c ****     (#) For the UART asynchronous mode, initialize the UART registers by calling
  46:Drivers/STM32F7xx_HAL_Driver/Src/stm32f7xx_hal_uart.c ****         the HAL_UART_Init() API.
  47:Drivers/STM32F7xx_HAL_Driver/Src/stm32f7xx_hal_uart.c **** 
  48:Drivers/STM32F7xx_HAL_Driver/Src/stm32f7xx_hal_uart.c ****     (#) For the UART Half duplex mode, initialize the UART registers by calling
  49:Drivers/STM32F7xx_HAL_Driver/Src/stm32f7xx_hal_uart.c ****         the HAL_HalfDuplex_Init() API.
  50:Drivers/STM32F7xx_HAL_Driver/Src/stm32f7xx_hal_uart.c **** 
  51:Drivers/STM32F7xx_HAL_Driver/Src/stm32f7xx_hal_uart.c ****     (#) For the LIN mode, initialize the UART registers by calling the HAL_LIN_Init() API.
  52:Drivers/STM32F7xx_HAL_Driver/Src/stm32f7xx_hal_uart.c **** 
  53:Drivers/STM32F7xx_HAL_Driver/Src/stm32f7xx_hal_uart.c ****     (#) For the Multi-Processor mode, initialize the UART registers by calling
  54:Drivers/STM32F7xx_HAL_Driver/Src/stm32f7xx_hal_uart.c ****         the HAL_MultiProcessor_Init() API.
  55:Drivers/STM32F7xx_HAL_Driver/Src/stm32f7xx_hal_uart.c **** 
  56:Drivers/STM32F7xx_HAL_Driver/Src/stm32f7xx_hal_uart.c ****      [..]
  57:Drivers/STM32F7xx_HAL_Driver/Src/stm32f7xx_hal_uart.c ****        (@) The specific UART interrupts (Transmission complete interrupt,
  58:Drivers/STM32F7xx_HAL_Driver/Src/stm32f7xx_hal_uart.c ****             RXNE interrupt and Error Interrupts) will be managed using the macros
  59:Drivers/STM32F7xx_HAL_Driver/Src/stm32f7xx_hal_uart.c ****             __HAL_UART_ENABLE_IT() and __HAL_UART_DISABLE_IT() inside the transmit
  60:Drivers/STM32F7xx_HAL_Driver/Src/stm32f7xx_hal_uart.c ****             and receive process.
  61:Drivers/STM32F7xx_HAL_Driver/Src/stm32f7xx_hal_uart.c **** 
  62:Drivers/STM32F7xx_HAL_Driver/Src/stm32f7xx_hal_uart.c ****      [..]
  63:Drivers/STM32F7xx_HAL_Driver/Src/stm32f7xx_hal_uart.c ****        (@) These APIs (HAL_UART_Init() and HAL_HalfDuplex_Init()) configure also the
  64:Drivers/STM32F7xx_HAL_Driver/Src/stm32f7xx_hal_uart.c ****             low level Hardware GPIO, CLOCK, CORTEX...etc) by calling the customized
  65:Drivers/STM32F7xx_HAL_Driver/Src/stm32f7xx_hal_uart.c ****             HAL_UART_MspInit() API.
  66:Drivers/STM32F7xx_HAL_Driver/Src/stm32f7xx_hal_uart.c **** 
  67:Drivers/STM32F7xx_HAL_Driver/Src/stm32f7xx_hal_uart.c ****      [..]
  68:Drivers/STM32F7xx_HAL_Driver/Src/stm32f7xx_hal_uart.c ****         Three operation modes are available within this driver :
  69:Drivers/STM32F7xx_HAL_Driver/Src/stm32f7xx_hal_uart.c **** 
  70:Drivers/STM32F7xx_HAL_Driver/Src/stm32f7xx_hal_uart.c ****      *** Polling mode IO operation ***
  71:Drivers/STM32F7xx_HAL_Driver/Src/stm32f7xx_hal_uart.c ****      =================================
  72:Drivers/STM32F7xx_HAL_Driver/Src/stm32f7xx_hal_uart.c ****      [..]
  73:Drivers/STM32F7xx_HAL_Driver/Src/stm32f7xx_hal_uart.c ****        (+) Send an amount of data in blocking mode using HAL_UART_Transmit()
  74:Drivers/STM32F7xx_HAL_Driver/Src/stm32f7xx_hal_uart.c ****        (+) Receive an amount of data in blocking mode using HAL_UART_Receive()
  75:Drivers/STM32F7xx_HAL_Driver/Src/stm32f7xx_hal_uart.c **** 
  76:Drivers/STM32F7xx_HAL_Driver/Src/stm32f7xx_hal_uart.c ****      *** Interrupt mode IO operation ***
  77:Drivers/STM32F7xx_HAL_Driver/Src/stm32f7xx_hal_uart.c ****      ===================================
  78:Drivers/STM32F7xx_HAL_Driver/Src/stm32f7xx_hal_uart.c ****      [..]
  79:Drivers/STM32F7xx_HAL_Driver/Src/stm32f7xx_hal_uart.c ****        (+) Send an amount of data in non blocking mode using HAL_UART_Transmit_IT()
  80:Drivers/STM32F7xx_HAL_Driver/Src/stm32f7xx_hal_uart.c ****        (+) At transmission end of transfer HAL_UART_TxCpltCallback is executed and user can
  81:Drivers/STM32F7xx_HAL_Driver/Src/stm32f7xx_hal_uart.c ****             add his own code by customization of function pointer HAL_UART_TxCpltCallback
  82:Drivers/STM32F7xx_HAL_Driver/Src/stm32f7xx_hal_uart.c ****        (+) Receive an amount of data in non blocking mode using HAL_UART_Receive_IT()
  83:Drivers/STM32F7xx_HAL_Driver/Src/stm32f7xx_hal_uart.c ****        (+) At reception end of transfer HAL_UART_RxCpltCallback is executed and user can
  84:Drivers/STM32F7xx_HAL_Driver/Src/stm32f7xx_hal_uart.c ****             add his own code by customization of function pointer HAL_UART_RxCpltCallback
  85:Drivers/STM32F7xx_HAL_Driver/Src/stm32f7xx_hal_uart.c ****        (+) In case of transfer Error, HAL_UART_ErrorCallback() function is executed and user can
  86:Drivers/STM32F7xx_HAL_Driver/Src/stm32f7xx_hal_uart.c ****             add his own code by customization of function pointer HAL_UART_ErrorCallback
  87:Drivers/STM32F7xx_HAL_Driver/Src/stm32f7xx_hal_uart.c **** 
  88:Drivers/STM32F7xx_HAL_Driver/Src/stm32f7xx_hal_uart.c ****      *** DMA mode IO operation ***
  89:Drivers/STM32F7xx_HAL_Driver/Src/stm32f7xx_hal_uart.c ****      ==============================
ARM GAS  C:\Users\Student\AppData\Local\Temp\cc4Wk4r8.s 			page 3


  90:Drivers/STM32F7xx_HAL_Driver/Src/stm32f7xx_hal_uart.c ****      [..]
  91:Drivers/STM32F7xx_HAL_Driver/Src/stm32f7xx_hal_uart.c ****        (+) Send an amount of data in non blocking mode (DMA) using HAL_UART_Transmit_DMA()
  92:Drivers/STM32F7xx_HAL_Driver/Src/stm32f7xx_hal_uart.c ****        (+) At transmission end of half transfer HAL_UART_TxHalfCpltCallback is executed and user ca
  93:Drivers/STM32F7xx_HAL_Driver/Src/stm32f7xx_hal_uart.c ****             add his own code by customization of function pointer HAL_UART_TxHalfCpltCallback
  94:Drivers/STM32F7xx_HAL_Driver/Src/stm32f7xx_hal_uart.c ****        (+) At transmission end of transfer HAL_UART_TxCpltCallback is executed and user can
  95:Drivers/STM32F7xx_HAL_Driver/Src/stm32f7xx_hal_uart.c ****             add his own code by customization of function pointer HAL_UART_TxCpltCallback
  96:Drivers/STM32F7xx_HAL_Driver/Src/stm32f7xx_hal_uart.c ****        (+) Receive an amount of data in non blocking mode (DMA) using HAL_UART_Receive_DMA()
  97:Drivers/STM32F7xx_HAL_Driver/Src/stm32f7xx_hal_uart.c ****        (+) At reception end of half transfer HAL_UART_RxHalfCpltCallback is executed and user can
  98:Drivers/STM32F7xx_HAL_Driver/Src/stm32f7xx_hal_uart.c ****             add his own code by customization of function pointer HAL_UART_RxHalfCpltCallback
  99:Drivers/STM32F7xx_HAL_Driver/Src/stm32f7xx_hal_uart.c ****        (+) At reception end of transfer HAL_UART_RxCpltCallback is executed and user can
 100:Drivers/STM32F7xx_HAL_Driver/Src/stm32f7xx_hal_uart.c ****             add his own code by customization of function pointer HAL_UART_RxCpltCallback
 101:Drivers/STM32F7xx_HAL_Driver/Src/stm32f7xx_hal_uart.c ****        (+) In case of transfer Error, HAL_UART_ErrorCallback() function is executed and user can
 102:Drivers/STM32F7xx_HAL_Driver/Src/stm32f7xx_hal_uart.c ****             add his own code by customization of function pointer HAL_UART_ErrorCallback
 103:Drivers/STM32F7xx_HAL_Driver/Src/stm32f7xx_hal_uart.c ****        (+) Pause the DMA Transfer using HAL_UART_DMAPause()
 104:Drivers/STM32F7xx_HAL_Driver/Src/stm32f7xx_hal_uart.c ****        (+) Resume the DMA Transfer using HAL_UART_DMAResume()
 105:Drivers/STM32F7xx_HAL_Driver/Src/stm32f7xx_hal_uart.c ****        (+) Stop the DMA Transfer using HAL_UART_DMAStop()
 106:Drivers/STM32F7xx_HAL_Driver/Src/stm32f7xx_hal_uart.c **** 
 107:Drivers/STM32F7xx_HAL_Driver/Src/stm32f7xx_hal_uart.c ****      *** UART HAL driver macros list ***
 108:Drivers/STM32F7xx_HAL_Driver/Src/stm32f7xx_hal_uart.c ****      =============================================
 109:Drivers/STM32F7xx_HAL_Driver/Src/stm32f7xx_hal_uart.c ****      [..]
 110:Drivers/STM32F7xx_HAL_Driver/Src/stm32f7xx_hal_uart.c ****        Below the list of most used macros in UART HAL driver.
 111:Drivers/STM32F7xx_HAL_Driver/Src/stm32f7xx_hal_uart.c **** 
 112:Drivers/STM32F7xx_HAL_Driver/Src/stm32f7xx_hal_uart.c ****       (+) __HAL_UART_ENABLE: Enable the UART peripheral
 113:Drivers/STM32F7xx_HAL_Driver/Src/stm32f7xx_hal_uart.c ****       (+) __HAL_UART_DISABLE: Disable the UART peripheral
 114:Drivers/STM32F7xx_HAL_Driver/Src/stm32f7xx_hal_uart.c ****       (+) __HAL_UART_GET_FLAG : Check whether the specified UART flag is set or not
 115:Drivers/STM32F7xx_HAL_Driver/Src/stm32f7xx_hal_uart.c ****       (+) __HAL_UART_CLEAR_IT : Clears the specified UART ISR flag
 116:Drivers/STM32F7xx_HAL_Driver/Src/stm32f7xx_hal_uart.c ****       (+) __HAL_UART_ENABLE_IT: Enable the specified UART interrupt
 117:Drivers/STM32F7xx_HAL_Driver/Src/stm32f7xx_hal_uart.c ****       (+) __HAL_UART_DISABLE_IT: Disable the specified UART interrupt
 118:Drivers/STM32F7xx_HAL_Driver/Src/stm32f7xx_hal_uart.c ****       (+) __HAL_UART_GET_IT_SOURCE: Check whether the specified UART interrupt has occurred or not
 119:Drivers/STM32F7xx_HAL_Driver/Src/stm32f7xx_hal_uart.c **** 
 120:Drivers/STM32F7xx_HAL_Driver/Src/stm32f7xx_hal_uart.c ****      [..]
 121:Drivers/STM32F7xx_HAL_Driver/Src/stm32f7xx_hal_uart.c ****        (@) You can refer to the UART HAL driver header file for more useful macros
 122:Drivers/STM32F7xx_HAL_Driver/Src/stm32f7xx_hal_uart.c **** 
 123:Drivers/STM32F7xx_HAL_Driver/Src/stm32f7xx_hal_uart.c ****   @endverbatim
 124:Drivers/STM32F7xx_HAL_Driver/Src/stm32f7xx_hal_uart.c ****   ******************************************************************************
 125:Drivers/STM32F7xx_HAL_Driver/Src/stm32f7xx_hal_uart.c ****   * @attention
 126:Drivers/STM32F7xx_HAL_Driver/Src/stm32f7xx_hal_uart.c ****   *
 127:Drivers/STM32F7xx_HAL_Driver/Src/stm32f7xx_hal_uart.c ****   * <h2><center>&copy; COPYRIGHT(c) 2017 STMicroelectronics</center></h2>
 128:Drivers/STM32F7xx_HAL_Driver/Src/stm32f7xx_hal_uart.c ****   *
 129:Drivers/STM32F7xx_HAL_Driver/Src/stm32f7xx_hal_uart.c ****   * Redistribution and use in source and binary forms, with or without modification,
 130:Drivers/STM32F7xx_HAL_Driver/Src/stm32f7xx_hal_uart.c ****   * are permitted provided that the following conditions are met:
 131:Drivers/STM32F7xx_HAL_Driver/Src/stm32f7xx_hal_uart.c ****   *   1. Redistributions of source code must retain the above copyright notice,
 132:Drivers/STM32F7xx_HAL_Driver/Src/stm32f7xx_hal_uart.c ****   *      this list of conditions and the following disclaimer.
 133:Drivers/STM32F7xx_HAL_Driver/Src/stm32f7xx_hal_uart.c ****   *   2. Redistributions in binary form must reproduce the above copyright notice,
 134:Drivers/STM32F7xx_HAL_Driver/Src/stm32f7xx_hal_uart.c ****   *      this list of conditions and the following disclaimer in the documentation
 135:Drivers/STM32F7xx_HAL_Driver/Src/stm32f7xx_hal_uart.c ****   *      and/or other materials provided with the distribution.
 136:Drivers/STM32F7xx_HAL_Driver/Src/stm32f7xx_hal_uart.c ****   *   3. Neither the name of STMicroelectronics nor the names of its contributors
 137:Drivers/STM32F7xx_HAL_Driver/Src/stm32f7xx_hal_uart.c ****   *      may be used to endorse or promote products derived from this software
 138:Drivers/STM32F7xx_HAL_Driver/Src/stm32f7xx_hal_uart.c ****   *      without specific prior written permission.
 139:Drivers/STM32F7xx_HAL_Driver/Src/stm32f7xx_hal_uart.c ****   *
 140:Drivers/STM32F7xx_HAL_Driver/Src/stm32f7xx_hal_uart.c ****   * THIS SOFTWARE IS PROVIDED BY THE COPYRIGHT HOLDERS AND CONTRIBUTORS "AS IS"
 141:Drivers/STM32F7xx_HAL_Driver/Src/stm32f7xx_hal_uart.c ****   * AND ANY EXPRESS OR IMPLIED WARRANTIES, INCLUDING, BUT NOT LIMITED TO, THE
 142:Drivers/STM32F7xx_HAL_Driver/Src/stm32f7xx_hal_uart.c ****   * IMPLIED WARRANTIES OF MERCHANTABILITY AND FITNESS FOR A PARTICULAR PURPOSE ARE
 143:Drivers/STM32F7xx_HAL_Driver/Src/stm32f7xx_hal_uart.c ****   * DISCLAIMED. IN NO EVENT SHALL THE COPYRIGHT HOLDER OR CONTRIBUTORS BE LIABLE
 144:Drivers/STM32F7xx_HAL_Driver/Src/stm32f7xx_hal_uart.c ****   * FOR ANY DIRECT, INDIRECT, INCIDENTAL, SPECIAL, EXEMPLARY, OR CONSEQUENTIAL
 145:Drivers/STM32F7xx_HAL_Driver/Src/stm32f7xx_hal_uart.c ****   * DAMAGES (INCLUDING, BUT NOT LIMITED TO, PROCUREMENT OF SUBSTITUTE GOODS OR
 146:Drivers/STM32F7xx_HAL_Driver/Src/stm32f7xx_hal_uart.c ****   * SERVICES; LOSS OF USE, DATA, OR PROFITS; OR BUSINESS INTERRUPTION) HOWEVER
ARM GAS  C:\Users\Student\AppData\Local\Temp\cc4Wk4r8.s 			page 4


 147:Drivers/STM32F7xx_HAL_Driver/Src/stm32f7xx_hal_uart.c ****   * CAUSED AND ON ANY THEORY OF LIABILITY, WHETHER IN CONTRACT, STRICT LIABILITY,
 148:Drivers/STM32F7xx_HAL_Driver/Src/stm32f7xx_hal_uart.c ****   * OR TORT (INCLUDING NEGLIGENCE OR OTHERWISE) ARISING IN ANY WAY OUT OF THE USE
 149:Drivers/STM32F7xx_HAL_Driver/Src/stm32f7xx_hal_uart.c ****   * OF THIS SOFTWARE, EVEN IF ADVISED OF THE POSSIBILITY OF SUCH DAMAGE.
 150:Drivers/STM32F7xx_HAL_Driver/Src/stm32f7xx_hal_uart.c ****   *
 151:Drivers/STM32F7xx_HAL_Driver/Src/stm32f7xx_hal_uart.c ****   ******************************************************************************
 152:Drivers/STM32F7xx_HAL_Driver/Src/stm32f7xx_hal_uart.c ****   */
 153:Drivers/STM32F7xx_HAL_Driver/Src/stm32f7xx_hal_uart.c **** 
 154:Drivers/STM32F7xx_HAL_Driver/Src/stm32f7xx_hal_uart.c **** /* Includes ------------------------------------------------------------------*/
 155:Drivers/STM32F7xx_HAL_Driver/Src/stm32f7xx_hal_uart.c **** #include "stm32f7xx_hal.h"
 156:Drivers/STM32F7xx_HAL_Driver/Src/stm32f7xx_hal_uart.c **** 
 157:Drivers/STM32F7xx_HAL_Driver/Src/stm32f7xx_hal_uart.c **** /** @addtogroup STM32F7xx_HAL_Driver
 158:Drivers/STM32F7xx_HAL_Driver/Src/stm32f7xx_hal_uart.c ****   * @{
 159:Drivers/STM32F7xx_HAL_Driver/Src/stm32f7xx_hal_uart.c ****   */
 160:Drivers/STM32F7xx_HAL_Driver/Src/stm32f7xx_hal_uart.c **** 
 161:Drivers/STM32F7xx_HAL_Driver/Src/stm32f7xx_hal_uart.c **** /** @defgroup UART UART
 162:Drivers/STM32F7xx_HAL_Driver/Src/stm32f7xx_hal_uart.c ****   * @brief HAL UART module driver
 163:Drivers/STM32F7xx_HAL_Driver/Src/stm32f7xx_hal_uart.c ****   * @{
 164:Drivers/STM32F7xx_HAL_Driver/Src/stm32f7xx_hal_uart.c ****   */
 165:Drivers/STM32F7xx_HAL_Driver/Src/stm32f7xx_hal_uart.c **** 
 166:Drivers/STM32F7xx_HAL_Driver/Src/stm32f7xx_hal_uart.c **** #ifdef HAL_UART_MODULE_ENABLED
 167:Drivers/STM32F7xx_HAL_Driver/Src/stm32f7xx_hal_uart.c **** 
 168:Drivers/STM32F7xx_HAL_Driver/Src/stm32f7xx_hal_uart.c **** /* Private typedef -----------------------------------------------------------*/
 169:Drivers/STM32F7xx_HAL_Driver/Src/stm32f7xx_hal_uart.c **** /* Private define ------------------------------------------------------------*/
 170:Drivers/STM32F7xx_HAL_Driver/Src/stm32f7xx_hal_uart.c **** /** @defgroup UART_Private_Constants UART Private Constants
 171:Drivers/STM32F7xx_HAL_Driver/Src/stm32f7xx_hal_uart.c ****   * @{
 172:Drivers/STM32F7xx_HAL_Driver/Src/stm32f7xx_hal_uart.c ****   */
 173:Drivers/STM32F7xx_HAL_Driver/Src/stm32f7xx_hal_uart.c **** #define UART_CR1_FIELDS  ((uint32_t)(USART_CR1_M | USART_CR1_PCE | USART_CR1_PS | \
 174:Drivers/STM32F7xx_HAL_Driver/Src/stm32f7xx_hal_uart.c ****                                      USART_CR1_TE | USART_CR1_RE | USART_CR1_OVER8))
 175:Drivers/STM32F7xx_HAL_Driver/Src/stm32f7xx_hal_uart.c **** /**
 176:Drivers/STM32F7xx_HAL_Driver/Src/stm32f7xx_hal_uart.c ****   * @}
 177:Drivers/STM32F7xx_HAL_Driver/Src/stm32f7xx_hal_uart.c ****   */
 178:Drivers/STM32F7xx_HAL_Driver/Src/stm32f7xx_hal_uart.c **** /* Private macro -------------------------------------------------------------*/
 179:Drivers/STM32F7xx_HAL_Driver/Src/stm32f7xx_hal_uart.c **** /* Private variables ---------------------------------------------------------*/
 180:Drivers/STM32F7xx_HAL_Driver/Src/stm32f7xx_hal_uart.c **** /* Private function prototypes -----------------------------------------------*/
 181:Drivers/STM32F7xx_HAL_Driver/Src/stm32f7xx_hal_uart.c **** /** @addtogroup UART_Private_Functions
 182:Drivers/STM32F7xx_HAL_Driver/Src/stm32f7xx_hal_uart.c ****   * @{
 183:Drivers/STM32F7xx_HAL_Driver/Src/stm32f7xx_hal_uart.c ****   */
 184:Drivers/STM32F7xx_HAL_Driver/Src/stm32f7xx_hal_uart.c **** static void UART_EndTxTransfer(UART_HandleTypeDef *huart);
 185:Drivers/STM32F7xx_HAL_Driver/Src/stm32f7xx_hal_uart.c **** static void UART_EndRxTransfer(UART_HandleTypeDef *huart);
 186:Drivers/STM32F7xx_HAL_Driver/Src/stm32f7xx_hal_uart.c **** static void UART_DMATransmitCplt(DMA_HandleTypeDef *hdma);
 187:Drivers/STM32F7xx_HAL_Driver/Src/stm32f7xx_hal_uart.c **** static void UART_DMAReceiveCplt(DMA_HandleTypeDef *hdma);
 188:Drivers/STM32F7xx_HAL_Driver/Src/stm32f7xx_hal_uart.c **** static void UART_DMARxHalfCplt(DMA_HandleTypeDef *hdma);
 189:Drivers/STM32F7xx_HAL_Driver/Src/stm32f7xx_hal_uart.c **** static void UART_DMATxHalfCplt(DMA_HandleTypeDef *hdma);
 190:Drivers/STM32F7xx_HAL_Driver/Src/stm32f7xx_hal_uart.c **** static void UART_DMAError(DMA_HandleTypeDef *hdma);
 191:Drivers/STM32F7xx_HAL_Driver/Src/stm32f7xx_hal_uart.c **** static void UART_DMAAbortOnError(DMA_HandleTypeDef *hdma);
 192:Drivers/STM32F7xx_HAL_Driver/Src/stm32f7xx_hal_uart.c **** static HAL_StatusTypeDef UART_Transmit_IT(UART_HandleTypeDef *huart);
 193:Drivers/STM32F7xx_HAL_Driver/Src/stm32f7xx_hal_uart.c **** static HAL_StatusTypeDef UART_EndTransmit_IT(UART_HandleTypeDef *huart);
 194:Drivers/STM32F7xx_HAL_Driver/Src/stm32f7xx_hal_uart.c **** static HAL_StatusTypeDef UART_Receive_IT(UART_HandleTypeDef *huart);
 195:Drivers/STM32F7xx_HAL_Driver/Src/stm32f7xx_hal_uart.c **** /**
 196:Drivers/STM32F7xx_HAL_Driver/Src/stm32f7xx_hal_uart.c ****   * @}
 197:Drivers/STM32F7xx_HAL_Driver/Src/stm32f7xx_hal_uart.c ****   */
 198:Drivers/STM32F7xx_HAL_Driver/Src/stm32f7xx_hal_uart.c **** 
 199:Drivers/STM32F7xx_HAL_Driver/Src/stm32f7xx_hal_uart.c **** /* Exported functions --------------------------------------------------------*/
 200:Drivers/STM32F7xx_HAL_Driver/Src/stm32f7xx_hal_uart.c **** 
 201:Drivers/STM32F7xx_HAL_Driver/Src/stm32f7xx_hal_uart.c **** /** @defgroup UART_Exported_Functions UART Exported Functions
 202:Drivers/STM32F7xx_HAL_Driver/Src/stm32f7xx_hal_uart.c ****   * @{
 203:Drivers/STM32F7xx_HAL_Driver/Src/stm32f7xx_hal_uart.c ****   */
ARM GAS  C:\Users\Student\AppData\Local\Temp\cc4Wk4r8.s 			page 5


 204:Drivers/STM32F7xx_HAL_Driver/Src/stm32f7xx_hal_uart.c **** 
 205:Drivers/STM32F7xx_HAL_Driver/Src/stm32f7xx_hal_uart.c **** /** @defgroup UART_Exported_Functions_Group1 Initialization and de-initialization functions
 206:Drivers/STM32F7xx_HAL_Driver/Src/stm32f7xx_hal_uart.c ****   *  @brief    Initialization and Configuration functions
 207:Drivers/STM32F7xx_HAL_Driver/Src/stm32f7xx_hal_uart.c ****   *
 208:Drivers/STM32F7xx_HAL_Driver/Src/stm32f7xx_hal_uart.c **** @verbatim
 209:Drivers/STM32F7xx_HAL_Driver/Src/stm32f7xx_hal_uart.c **** ===============================================================================
 210:Drivers/STM32F7xx_HAL_Driver/Src/stm32f7xx_hal_uart.c ****             ##### Initialization and Configuration functions #####
 211:Drivers/STM32F7xx_HAL_Driver/Src/stm32f7xx_hal_uart.c ****  ===============================================================================
 212:Drivers/STM32F7xx_HAL_Driver/Src/stm32f7xx_hal_uart.c ****     [..]
 213:Drivers/STM32F7xx_HAL_Driver/Src/stm32f7xx_hal_uart.c ****     This subsection provides a set of functions allowing to initialize the USARTx or the UARTy
 214:Drivers/STM32F7xx_HAL_Driver/Src/stm32f7xx_hal_uart.c ****     in asynchronous mode.
 215:Drivers/STM32F7xx_HAL_Driver/Src/stm32f7xx_hal_uart.c ****       (+) For the asynchronous mode only these parameters can be configured:
 216:Drivers/STM32F7xx_HAL_Driver/Src/stm32f7xx_hal_uart.c ****         (++) Baud Rate
 217:Drivers/STM32F7xx_HAL_Driver/Src/stm32f7xx_hal_uart.c ****         (++) Word Length
 218:Drivers/STM32F7xx_HAL_Driver/Src/stm32f7xx_hal_uart.c ****         (++) Stop Bit
 219:Drivers/STM32F7xx_HAL_Driver/Src/stm32f7xx_hal_uart.c ****         (++) Parity: If the parity is enabled, then the MSB bit of the data written
 220:Drivers/STM32F7xx_HAL_Driver/Src/stm32f7xx_hal_uart.c ****              in the data register is transmitted but is changed by the parity bit.
 221:Drivers/STM32F7xx_HAL_Driver/Src/stm32f7xx_hal_uart.c ****              Depending on the frame length defined by the M bit (8-bits or 9-bits),
 222:Drivers/STM32F7xx_HAL_Driver/Src/stm32f7xx_hal_uart.c ****              please refer to Reference manual for possible UART frame formats.
 223:Drivers/STM32F7xx_HAL_Driver/Src/stm32f7xx_hal_uart.c ****         (++) Hardware flow control
 224:Drivers/STM32F7xx_HAL_Driver/Src/stm32f7xx_hal_uart.c ****         (++) Receiver/transmitter modes
 225:Drivers/STM32F7xx_HAL_Driver/Src/stm32f7xx_hal_uart.c ****         (++) Over Sampling Method
 226:Drivers/STM32F7xx_HAL_Driver/Src/stm32f7xx_hal_uart.c ****     [..]
 227:Drivers/STM32F7xx_HAL_Driver/Src/stm32f7xx_hal_uart.c ****     The HAL_UART_Init(), HAL_HalfDuplex_Init(), HAL_LIN_Init() and HAL_MultiProcessor_Init() APIs
 228:Drivers/STM32F7xx_HAL_Driver/Src/stm32f7xx_hal_uart.c ****     follow respectively the UART asynchronous, UART Half duplex, LIN and Multi-Processor
 229:Drivers/STM32F7xx_HAL_Driver/Src/stm32f7xx_hal_uart.c ****     configuration procedures (details for the procedures are available in reference manual (RM0329)
 230:Drivers/STM32F7xx_HAL_Driver/Src/stm32f7xx_hal_uart.c **** 
 231:Drivers/STM32F7xx_HAL_Driver/Src/stm32f7xx_hal_uart.c **** @endverbatim
 232:Drivers/STM32F7xx_HAL_Driver/Src/stm32f7xx_hal_uart.c ****   * @{
 233:Drivers/STM32F7xx_HAL_Driver/Src/stm32f7xx_hal_uart.c ****   */
 234:Drivers/STM32F7xx_HAL_Driver/Src/stm32f7xx_hal_uart.c **** 
 235:Drivers/STM32F7xx_HAL_Driver/Src/stm32f7xx_hal_uart.c **** /**
 236:Drivers/STM32F7xx_HAL_Driver/Src/stm32f7xx_hal_uart.c ****   * @brief Initializes the UART mode according to the specified
 237:Drivers/STM32F7xx_HAL_Driver/Src/stm32f7xx_hal_uart.c ****   *         parameters in the UART_InitTypeDef and creates the associated handle .
 238:Drivers/STM32F7xx_HAL_Driver/Src/stm32f7xx_hal_uart.c ****   * @param huart uart handle
 239:Drivers/STM32F7xx_HAL_Driver/Src/stm32f7xx_hal_uart.c ****   * @retval HAL status
 240:Drivers/STM32F7xx_HAL_Driver/Src/stm32f7xx_hal_uart.c ****   */
 241:Drivers/STM32F7xx_HAL_Driver/Src/stm32f7xx_hal_uart.c **** HAL_StatusTypeDef HAL_UART_Init(UART_HandleTypeDef *huart)
 242:Drivers/STM32F7xx_HAL_Driver/Src/stm32f7xx_hal_uart.c **** {
 243:Drivers/STM32F7xx_HAL_Driver/Src/stm32f7xx_hal_uart.c ****   /* Check the UART handle allocation */
 244:Drivers/STM32F7xx_HAL_Driver/Src/stm32f7xx_hal_uart.c ****   if(huart == NULL)
 245:Drivers/STM32F7xx_HAL_Driver/Src/stm32f7xx_hal_uart.c ****   {
 246:Drivers/STM32F7xx_HAL_Driver/Src/stm32f7xx_hal_uart.c ****     return HAL_ERROR;
 247:Drivers/STM32F7xx_HAL_Driver/Src/stm32f7xx_hal_uart.c ****   }
 248:Drivers/STM32F7xx_HAL_Driver/Src/stm32f7xx_hal_uart.c **** 
 249:Drivers/STM32F7xx_HAL_Driver/Src/stm32f7xx_hal_uart.c ****   if(huart->Init.HwFlowCtl != UART_HWCONTROL_NONE)
 250:Drivers/STM32F7xx_HAL_Driver/Src/stm32f7xx_hal_uart.c ****   {
 251:Drivers/STM32F7xx_HAL_Driver/Src/stm32f7xx_hal_uart.c ****     /* Check the parameters */
 252:Drivers/STM32F7xx_HAL_Driver/Src/stm32f7xx_hal_uart.c ****     assert_param(IS_UART_HWFLOW_INSTANCE(huart->Instance));
 253:Drivers/STM32F7xx_HAL_Driver/Src/stm32f7xx_hal_uart.c ****   }
 254:Drivers/STM32F7xx_HAL_Driver/Src/stm32f7xx_hal_uart.c ****   else
 255:Drivers/STM32F7xx_HAL_Driver/Src/stm32f7xx_hal_uart.c ****   {
 256:Drivers/STM32F7xx_HAL_Driver/Src/stm32f7xx_hal_uart.c ****     /* Check the parameters */
 257:Drivers/STM32F7xx_HAL_Driver/Src/stm32f7xx_hal_uart.c ****     assert_param(IS_UART_INSTANCE(huart->Instance));
 258:Drivers/STM32F7xx_HAL_Driver/Src/stm32f7xx_hal_uart.c ****   }
 259:Drivers/STM32F7xx_HAL_Driver/Src/stm32f7xx_hal_uart.c **** 
 260:Drivers/STM32F7xx_HAL_Driver/Src/stm32f7xx_hal_uart.c ****   if(huart->gState == HAL_UART_STATE_RESET)
ARM GAS  C:\Users\Student\AppData\Local\Temp\cc4Wk4r8.s 			page 6


 261:Drivers/STM32F7xx_HAL_Driver/Src/stm32f7xx_hal_uart.c ****   {
 262:Drivers/STM32F7xx_HAL_Driver/Src/stm32f7xx_hal_uart.c ****     /* Allocate lock resource and initialize it */
 263:Drivers/STM32F7xx_HAL_Driver/Src/stm32f7xx_hal_uart.c ****     huart->Lock = HAL_UNLOCKED;
 264:Drivers/STM32F7xx_HAL_Driver/Src/stm32f7xx_hal_uart.c **** 
 265:Drivers/STM32F7xx_HAL_Driver/Src/stm32f7xx_hal_uart.c ****     /* Init the low level hardware : GPIO, CLOCK */
 266:Drivers/STM32F7xx_HAL_Driver/Src/stm32f7xx_hal_uart.c ****     HAL_UART_MspInit(huart);
 267:Drivers/STM32F7xx_HAL_Driver/Src/stm32f7xx_hal_uart.c ****   }
 268:Drivers/STM32F7xx_HAL_Driver/Src/stm32f7xx_hal_uart.c **** 
 269:Drivers/STM32F7xx_HAL_Driver/Src/stm32f7xx_hal_uart.c ****   huart->gState = HAL_UART_STATE_BUSY;
 270:Drivers/STM32F7xx_HAL_Driver/Src/stm32f7xx_hal_uart.c **** 
 271:Drivers/STM32F7xx_HAL_Driver/Src/stm32f7xx_hal_uart.c ****   /* Disable the Peripheral */
 272:Drivers/STM32F7xx_HAL_Driver/Src/stm32f7xx_hal_uart.c ****   __HAL_UART_DISABLE(huart);
 273:Drivers/STM32F7xx_HAL_Driver/Src/stm32f7xx_hal_uart.c **** 
 274:Drivers/STM32F7xx_HAL_Driver/Src/stm32f7xx_hal_uart.c ****   /* Set the UART Communication parameters */
 275:Drivers/STM32F7xx_HAL_Driver/Src/stm32f7xx_hal_uart.c ****   if (UART_SetConfig(huart) == HAL_ERROR)
 276:Drivers/STM32F7xx_HAL_Driver/Src/stm32f7xx_hal_uart.c ****   {
 277:Drivers/STM32F7xx_HAL_Driver/Src/stm32f7xx_hal_uart.c ****     return HAL_ERROR;
 278:Drivers/STM32F7xx_HAL_Driver/Src/stm32f7xx_hal_uart.c ****   }
 279:Drivers/STM32F7xx_HAL_Driver/Src/stm32f7xx_hal_uart.c **** 
 280:Drivers/STM32F7xx_HAL_Driver/Src/stm32f7xx_hal_uart.c ****   if (huart->AdvancedInit.AdvFeatureInit != UART_ADVFEATURE_NO_INIT)
 281:Drivers/STM32F7xx_HAL_Driver/Src/stm32f7xx_hal_uart.c ****   {
 282:Drivers/STM32F7xx_HAL_Driver/Src/stm32f7xx_hal_uart.c ****     UART_AdvFeatureConfig(huart);
 283:Drivers/STM32F7xx_HAL_Driver/Src/stm32f7xx_hal_uart.c ****   }
 284:Drivers/STM32F7xx_HAL_Driver/Src/stm32f7xx_hal_uart.c **** 
 285:Drivers/STM32F7xx_HAL_Driver/Src/stm32f7xx_hal_uart.c ****   /* In asynchronous mode, the following bits must be kept cleared:
 286:Drivers/STM32F7xx_HAL_Driver/Src/stm32f7xx_hal_uart.c ****   - LINEN and CLKEN bits in the USART_CR2 register,
 287:Drivers/STM32F7xx_HAL_Driver/Src/stm32f7xx_hal_uart.c ****   - SCEN, HDSEL and IREN  bits in the USART_CR3 register.*/
 288:Drivers/STM32F7xx_HAL_Driver/Src/stm32f7xx_hal_uart.c ****   CLEAR_BIT(huart->Instance->CR2, (USART_CR2_LINEN | USART_CR2_CLKEN));
 289:Drivers/STM32F7xx_HAL_Driver/Src/stm32f7xx_hal_uart.c ****   CLEAR_BIT(huart->Instance->CR3, (USART_CR3_SCEN | USART_CR3_HDSEL | USART_CR3_IREN));
 290:Drivers/STM32F7xx_HAL_Driver/Src/stm32f7xx_hal_uart.c **** 
 291:Drivers/STM32F7xx_HAL_Driver/Src/stm32f7xx_hal_uart.c ****   /* Enable the Peripheral */
 292:Drivers/STM32F7xx_HAL_Driver/Src/stm32f7xx_hal_uart.c ****   __HAL_UART_ENABLE(huart);
 293:Drivers/STM32F7xx_HAL_Driver/Src/stm32f7xx_hal_uart.c **** 
 294:Drivers/STM32F7xx_HAL_Driver/Src/stm32f7xx_hal_uart.c ****   /* TEACK and/or REACK to check before moving huart->gState and huart->RxState to Ready */
 295:Drivers/STM32F7xx_HAL_Driver/Src/stm32f7xx_hal_uart.c ****   return (UART_CheckIdleState(huart));
 296:Drivers/STM32F7xx_HAL_Driver/Src/stm32f7xx_hal_uart.c **** }
 297:Drivers/STM32F7xx_HAL_Driver/Src/stm32f7xx_hal_uart.c **** 
 298:Drivers/STM32F7xx_HAL_Driver/Src/stm32f7xx_hal_uart.c **** /**
 299:Drivers/STM32F7xx_HAL_Driver/Src/stm32f7xx_hal_uart.c ****   * @brief Initializes the half-duplex mode according to the specified
 300:Drivers/STM32F7xx_HAL_Driver/Src/stm32f7xx_hal_uart.c ****   *         parameters in the UART_InitTypeDef and creates the associated handle .
 301:Drivers/STM32F7xx_HAL_Driver/Src/stm32f7xx_hal_uart.c ****   * @param huart UART handle
 302:Drivers/STM32F7xx_HAL_Driver/Src/stm32f7xx_hal_uart.c ****   * @retval HAL status
 303:Drivers/STM32F7xx_HAL_Driver/Src/stm32f7xx_hal_uart.c ****   */
 304:Drivers/STM32F7xx_HAL_Driver/Src/stm32f7xx_hal_uart.c **** HAL_StatusTypeDef HAL_HalfDuplex_Init(UART_HandleTypeDef *huart)
 305:Drivers/STM32F7xx_HAL_Driver/Src/stm32f7xx_hal_uart.c **** {
 306:Drivers/STM32F7xx_HAL_Driver/Src/stm32f7xx_hal_uart.c ****   /* Check the UART handle allocation */
 307:Drivers/STM32F7xx_HAL_Driver/Src/stm32f7xx_hal_uart.c ****   if(huart == NULL)
 308:Drivers/STM32F7xx_HAL_Driver/Src/stm32f7xx_hal_uart.c ****   {
 309:Drivers/STM32F7xx_HAL_Driver/Src/stm32f7xx_hal_uart.c ****     return HAL_ERROR;
 310:Drivers/STM32F7xx_HAL_Driver/Src/stm32f7xx_hal_uart.c ****   }
 311:Drivers/STM32F7xx_HAL_Driver/Src/stm32f7xx_hal_uart.c **** 
 312:Drivers/STM32F7xx_HAL_Driver/Src/stm32f7xx_hal_uart.c ****   if(huart->gState == HAL_UART_STATE_RESET)
 313:Drivers/STM32F7xx_HAL_Driver/Src/stm32f7xx_hal_uart.c ****   {
 314:Drivers/STM32F7xx_HAL_Driver/Src/stm32f7xx_hal_uart.c ****     /* Allocate lock resource and initialize it */
 315:Drivers/STM32F7xx_HAL_Driver/Src/stm32f7xx_hal_uart.c ****     huart->Lock = HAL_UNLOCKED;
 316:Drivers/STM32F7xx_HAL_Driver/Src/stm32f7xx_hal_uart.c **** 
 317:Drivers/STM32F7xx_HAL_Driver/Src/stm32f7xx_hal_uart.c ****     /* Init the low level hardware : GPIO, CLOCK */
ARM GAS  C:\Users\Student\AppData\Local\Temp\cc4Wk4r8.s 			page 7


 318:Drivers/STM32F7xx_HAL_Driver/Src/stm32f7xx_hal_uart.c ****     HAL_UART_MspInit(huart);
 319:Drivers/STM32F7xx_HAL_Driver/Src/stm32f7xx_hal_uart.c ****   }
 320:Drivers/STM32F7xx_HAL_Driver/Src/stm32f7xx_hal_uart.c **** 
 321:Drivers/STM32F7xx_HAL_Driver/Src/stm32f7xx_hal_uart.c ****   huart->gState = HAL_UART_STATE_BUSY;
 322:Drivers/STM32F7xx_HAL_Driver/Src/stm32f7xx_hal_uart.c **** 
 323:Drivers/STM32F7xx_HAL_Driver/Src/stm32f7xx_hal_uart.c ****   /* Disable the Peripheral */
 324:Drivers/STM32F7xx_HAL_Driver/Src/stm32f7xx_hal_uart.c ****   __HAL_UART_DISABLE(huart);
 325:Drivers/STM32F7xx_HAL_Driver/Src/stm32f7xx_hal_uart.c **** 
 326:Drivers/STM32F7xx_HAL_Driver/Src/stm32f7xx_hal_uart.c ****   /* Set the UART Communication parameters */
 327:Drivers/STM32F7xx_HAL_Driver/Src/stm32f7xx_hal_uart.c ****   if (UART_SetConfig(huart) == HAL_ERROR)
 328:Drivers/STM32F7xx_HAL_Driver/Src/stm32f7xx_hal_uart.c ****   {
 329:Drivers/STM32F7xx_HAL_Driver/Src/stm32f7xx_hal_uart.c ****     return HAL_ERROR;
 330:Drivers/STM32F7xx_HAL_Driver/Src/stm32f7xx_hal_uart.c ****   }
 331:Drivers/STM32F7xx_HAL_Driver/Src/stm32f7xx_hal_uart.c **** 
 332:Drivers/STM32F7xx_HAL_Driver/Src/stm32f7xx_hal_uart.c ****   if (huart->AdvancedInit.AdvFeatureInit != UART_ADVFEATURE_NO_INIT)
 333:Drivers/STM32F7xx_HAL_Driver/Src/stm32f7xx_hal_uart.c ****   {
 334:Drivers/STM32F7xx_HAL_Driver/Src/stm32f7xx_hal_uart.c ****     UART_AdvFeatureConfig(huart);
 335:Drivers/STM32F7xx_HAL_Driver/Src/stm32f7xx_hal_uart.c ****   }
 336:Drivers/STM32F7xx_HAL_Driver/Src/stm32f7xx_hal_uart.c **** 
 337:Drivers/STM32F7xx_HAL_Driver/Src/stm32f7xx_hal_uart.c ****   /* In half-duplex mode, the following bits must be kept cleared:
 338:Drivers/STM32F7xx_HAL_Driver/Src/stm32f7xx_hal_uart.c ****   - LINEN and CLKEN bits in the USART_CR2 register,
 339:Drivers/STM32F7xx_HAL_Driver/Src/stm32f7xx_hal_uart.c ****   - SCEN and IREN bits in the USART_CR3 register.*/
 340:Drivers/STM32F7xx_HAL_Driver/Src/stm32f7xx_hal_uart.c ****   CLEAR_BIT(huart->Instance->CR2, (USART_CR2_LINEN | USART_CR2_CLKEN));
 341:Drivers/STM32F7xx_HAL_Driver/Src/stm32f7xx_hal_uart.c ****   CLEAR_BIT(huart->Instance->CR3, (USART_CR3_IREN | USART_CR3_SCEN));
 342:Drivers/STM32F7xx_HAL_Driver/Src/stm32f7xx_hal_uart.c **** 
 343:Drivers/STM32F7xx_HAL_Driver/Src/stm32f7xx_hal_uart.c ****   /* Enable the Half-Duplex mode by setting the HDSEL bit in the CR3 register */
 344:Drivers/STM32F7xx_HAL_Driver/Src/stm32f7xx_hal_uart.c ****   SET_BIT(huart->Instance->CR3, USART_CR3_HDSEL);
 345:Drivers/STM32F7xx_HAL_Driver/Src/stm32f7xx_hal_uart.c **** 
 346:Drivers/STM32F7xx_HAL_Driver/Src/stm32f7xx_hal_uart.c ****   /* Enable the Peripheral */
 347:Drivers/STM32F7xx_HAL_Driver/Src/stm32f7xx_hal_uart.c ****   __HAL_UART_ENABLE(huart);
 348:Drivers/STM32F7xx_HAL_Driver/Src/stm32f7xx_hal_uart.c **** 
 349:Drivers/STM32F7xx_HAL_Driver/Src/stm32f7xx_hal_uart.c ****   /* TEACK and/or REACK to check before moving huart->gState and huart->RxState to Ready */
 350:Drivers/STM32F7xx_HAL_Driver/Src/stm32f7xx_hal_uart.c ****   return (UART_CheckIdleState(huart));
 351:Drivers/STM32F7xx_HAL_Driver/Src/stm32f7xx_hal_uart.c **** }
 352:Drivers/STM32F7xx_HAL_Driver/Src/stm32f7xx_hal_uart.c **** 
 353:Drivers/STM32F7xx_HAL_Driver/Src/stm32f7xx_hal_uart.c **** 
 354:Drivers/STM32F7xx_HAL_Driver/Src/stm32f7xx_hal_uart.c **** /**
 355:Drivers/STM32F7xx_HAL_Driver/Src/stm32f7xx_hal_uart.c ****   * @brief Initialize the LIN mode according to the specified
 356:Drivers/STM32F7xx_HAL_Driver/Src/stm32f7xx_hal_uart.c ****   *        parameters in the UART_InitTypeDef and creates the associated handle .
 357:Drivers/STM32F7xx_HAL_Driver/Src/stm32f7xx_hal_uart.c ****   * @param huart UART handle.
 358:Drivers/STM32F7xx_HAL_Driver/Src/stm32f7xx_hal_uart.c ****   * @param BreakDetectLength specifies the LIN break detection length.
 359:Drivers/STM32F7xx_HAL_Driver/Src/stm32f7xx_hal_uart.c ****   *        This parameter can be one of the following values:
 360:Drivers/STM32F7xx_HAL_Driver/Src/stm32f7xx_hal_uart.c ****   *          @arg @ref UART_LINBREAKDETECTLENGTH_10B 10-bit break detection
 361:Drivers/STM32F7xx_HAL_Driver/Src/stm32f7xx_hal_uart.c ****   *          @arg @ref UART_LINBREAKDETECTLENGTH_11B 11-bit break detection
 362:Drivers/STM32F7xx_HAL_Driver/Src/stm32f7xx_hal_uart.c ****   * @retval HAL status
 363:Drivers/STM32F7xx_HAL_Driver/Src/stm32f7xx_hal_uart.c ****   */
 364:Drivers/STM32F7xx_HAL_Driver/Src/stm32f7xx_hal_uart.c **** HAL_StatusTypeDef HAL_LIN_Init(UART_HandleTypeDef *huart, uint32_t BreakDetectLength)
 365:Drivers/STM32F7xx_HAL_Driver/Src/stm32f7xx_hal_uart.c **** {
 366:Drivers/STM32F7xx_HAL_Driver/Src/stm32f7xx_hal_uart.c ****   /* Check the UART handle allocation */
 367:Drivers/STM32F7xx_HAL_Driver/Src/stm32f7xx_hal_uart.c ****   if(huart == NULL)
 368:Drivers/STM32F7xx_HAL_Driver/Src/stm32f7xx_hal_uart.c ****   {
 369:Drivers/STM32F7xx_HAL_Driver/Src/stm32f7xx_hal_uart.c ****     return HAL_ERROR;
 370:Drivers/STM32F7xx_HAL_Driver/Src/stm32f7xx_hal_uart.c ****   }
 371:Drivers/STM32F7xx_HAL_Driver/Src/stm32f7xx_hal_uart.c **** 
 372:Drivers/STM32F7xx_HAL_Driver/Src/stm32f7xx_hal_uart.c ****   /* Check the parameters */
 373:Drivers/STM32F7xx_HAL_Driver/Src/stm32f7xx_hal_uart.c ****   assert_param(IS_UART_INSTANCE(huart->Instance));
 374:Drivers/STM32F7xx_HAL_Driver/Src/stm32f7xx_hal_uart.c ****   assert_param(IS_UART_LIN_BREAK_DETECT_LENGTH(BreakDetectLength));
ARM GAS  C:\Users\Student\AppData\Local\Temp\cc4Wk4r8.s 			page 8


 375:Drivers/STM32F7xx_HAL_Driver/Src/stm32f7xx_hal_uart.c ****   assert_param(IS_LIN_WORD_LENGTH(huart->Init.WordLength));
 376:Drivers/STM32F7xx_HAL_Driver/Src/stm32f7xx_hal_uart.c **** 
 377:Drivers/STM32F7xx_HAL_Driver/Src/stm32f7xx_hal_uart.c ****   if(huart->gState == HAL_UART_STATE_RESET)
 378:Drivers/STM32F7xx_HAL_Driver/Src/stm32f7xx_hal_uart.c ****   {
 379:Drivers/STM32F7xx_HAL_Driver/Src/stm32f7xx_hal_uart.c ****     /* Allocate lock resource and initialize it */
 380:Drivers/STM32F7xx_HAL_Driver/Src/stm32f7xx_hal_uart.c ****     huart->Lock = HAL_UNLOCKED;
 381:Drivers/STM32F7xx_HAL_Driver/Src/stm32f7xx_hal_uart.c **** 
 382:Drivers/STM32F7xx_HAL_Driver/Src/stm32f7xx_hal_uart.c ****     /* Init the low level hardware : GPIO, CLOCK */
 383:Drivers/STM32F7xx_HAL_Driver/Src/stm32f7xx_hal_uart.c ****     HAL_UART_MspInit(huart);
 384:Drivers/STM32F7xx_HAL_Driver/Src/stm32f7xx_hal_uart.c ****   }
 385:Drivers/STM32F7xx_HAL_Driver/Src/stm32f7xx_hal_uart.c **** 
 386:Drivers/STM32F7xx_HAL_Driver/Src/stm32f7xx_hal_uart.c ****   huart->gState = HAL_UART_STATE_BUSY;
 387:Drivers/STM32F7xx_HAL_Driver/Src/stm32f7xx_hal_uart.c **** 
 388:Drivers/STM32F7xx_HAL_Driver/Src/stm32f7xx_hal_uart.c ****   /* Disable the Peripheral */
 389:Drivers/STM32F7xx_HAL_Driver/Src/stm32f7xx_hal_uart.c ****   __HAL_UART_DISABLE(huart);
 390:Drivers/STM32F7xx_HAL_Driver/Src/stm32f7xx_hal_uart.c **** 
 391:Drivers/STM32F7xx_HAL_Driver/Src/stm32f7xx_hal_uart.c ****   /* Set the UART Communication parameters */
 392:Drivers/STM32F7xx_HAL_Driver/Src/stm32f7xx_hal_uart.c ****   if (UART_SetConfig(huart) == HAL_ERROR)
 393:Drivers/STM32F7xx_HAL_Driver/Src/stm32f7xx_hal_uart.c ****   {
 394:Drivers/STM32F7xx_HAL_Driver/Src/stm32f7xx_hal_uart.c ****     return HAL_ERROR;
 395:Drivers/STM32F7xx_HAL_Driver/Src/stm32f7xx_hal_uart.c ****   }
 396:Drivers/STM32F7xx_HAL_Driver/Src/stm32f7xx_hal_uart.c **** 
 397:Drivers/STM32F7xx_HAL_Driver/Src/stm32f7xx_hal_uart.c ****   if (huart->AdvancedInit.AdvFeatureInit != UART_ADVFEATURE_NO_INIT)
 398:Drivers/STM32F7xx_HAL_Driver/Src/stm32f7xx_hal_uart.c ****   {
 399:Drivers/STM32F7xx_HAL_Driver/Src/stm32f7xx_hal_uart.c ****     UART_AdvFeatureConfig(huart);
 400:Drivers/STM32F7xx_HAL_Driver/Src/stm32f7xx_hal_uart.c ****   }
 401:Drivers/STM32F7xx_HAL_Driver/Src/stm32f7xx_hal_uart.c **** 
 402:Drivers/STM32F7xx_HAL_Driver/Src/stm32f7xx_hal_uart.c ****   /* In LIN mode, the following bits must be kept cleared:
 403:Drivers/STM32F7xx_HAL_Driver/Src/stm32f7xx_hal_uart.c ****   - LINEN and CLKEN bits in the USART_CR2 register,
 404:Drivers/STM32F7xx_HAL_Driver/Src/stm32f7xx_hal_uart.c ****   - SCEN and IREN bits in the USART_CR3 register.*/
 405:Drivers/STM32F7xx_HAL_Driver/Src/stm32f7xx_hal_uart.c ****   CLEAR_BIT(huart->Instance->CR2, USART_CR2_CLKEN);
 406:Drivers/STM32F7xx_HAL_Driver/Src/stm32f7xx_hal_uart.c ****   CLEAR_BIT(huart->Instance->CR3, (USART_CR3_HDSEL | USART_CR3_IREN | USART_CR3_SCEN));
 407:Drivers/STM32F7xx_HAL_Driver/Src/stm32f7xx_hal_uart.c **** 
 408:Drivers/STM32F7xx_HAL_Driver/Src/stm32f7xx_hal_uart.c ****   /* Enable the LIN mode by setting the LINEN bit in the CR2 register */
 409:Drivers/STM32F7xx_HAL_Driver/Src/stm32f7xx_hal_uart.c ****   SET_BIT(huart->Instance->CR2, USART_CR2_LINEN);
 410:Drivers/STM32F7xx_HAL_Driver/Src/stm32f7xx_hal_uart.c **** 
 411:Drivers/STM32F7xx_HAL_Driver/Src/stm32f7xx_hal_uart.c ****   /* Set the USART LIN Break detection length. */
 412:Drivers/STM32F7xx_HAL_Driver/Src/stm32f7xx_hal_uart.c ****   MODIFY_REG(huart->Instance->CR2, USART_CR2_LBDL, BreakDetectLength);
 413:Drivers/STM32F7xx_HAL_Driver/Src/stm32f7xx_hal_uart.c **** 
 414:Drivers/STM32F7xx_HAL_Driver/Src/stm32f7xx_hal_uart.c ****   /* Enable the Peripheral */
 415:Drivers/STM32F7xx_HAL_Driver/Src/stm32f7xx_hal_uart.c ****   __HAL_UART_ENABLE(huart);
 416:Drivers/STM32F7xx_HAL_Driver/Src/stm32f7xx_hal_uart.c **** 
 417:Drivers/STM32F7xx_HAL_Driver/Src/stm32f7xx_hal_uart.c ****   /* TEACK and/or REACK to check before moving huart->gState and huart->RxState to Ready */
 418:Drivers/STM32F7xx_HAL_Driver/Src/stm32f7xx_hal_uart.c ****   return (UART_CheckIdleState(huart));
 419:Drivers/STM32F7xx_HAL_Driver/Src/stm32f7xx_hal_uart.c **** }
 420:Drivers/STM32F7xx_HAL_Driver/Src/stm32f7xx_hal_uart.c **** 
 421:Drivers/STM32F7xx_HAL_Driver/Src/stm32f7xx_hal_uart.c **** 
 422:Drivers/STM32F7xx_HAL_Driver/Src/stm32f7xx_hal_uart.c **** /**
 423:Drivers/STM32F7xx_HAL_Driver/Src/stm32f7xx_hal_uart.c ****   * @brief Initialize the multiprocessor mode according to the specified
 424:Drivers/STM32F7xx_HAL_Driver/Src/stm32f7xx_hal_uart.c ****   *        parameters in the UART_InitTypeDef and initialize the associated handle.
 425:Drivers/STM32F7xx_HAL_Driver/Src/stm32f7xx_hal_uart.c ****   * @param huart UART handle.
 426:Drivers/STM32F7xx_HAL_Driver/Src/stm32f7xx_hal_uart.c ****   * @param Address UART node address (4-, 6-, 7- or 8-bit long).
 427:Drivers/STM32F7xx_HAL_Driver/Src/stm32f7xx_hal_uart.c ****   * @param WakeUpMethod specifies the UART wakeup method.
 428:Drivers/STM32F7xx_HAL_Driver/Src/stm32f7xx_hal_uart.c ****   *        This parameter can be one of the following values:
 429:Drivers/STM32F7xx_HAL_Driver/Src/stm32f7xx_hal_uart.c ****   *          @arg @ref UART_WAKEUPMETHOD_IDLELINE WakeUp by an idle line detection
 430:Drivers/STM32F7xx_HAL_Driver/Src/stm32f7xx_hal_uart.c ****   *          @arg @ref UART_WAKEUPMETHOD_ADDRESSMARK WakeUp by an address mark
 431:Drivers/STM32F7xx_HAL_Driver/Src/stm32f7xx_hal_uart.c ****   * @note  If the user resorts to idle line detection wake up, the Address parameter
ARM GAS  C:\Users\Student\AppData\Local\Temp\cc4Wk4r8.s 			page 9


 432:Drivers/STM32F7xx_HAL_Driver/Src/stm32f7xx_hal_uart.c ****   *        is useless and ignored by the initialization function.
 433:Drivers/STM32F7xx_HAL_Driver/Src/stm32f7xx_hal_uart.c ****   * @note  If the user resorts to address mark wake up, the address length detection
 434:Drivers/STM32F7xx_HAL_Driver/Src/stm32f7xx_hal_uart.c ****   *        is configured by default to 4 bits only. For the UART to be able to
 435:Drivers/STM32F7xx_HAL_Driver/Src/stm32f7xx_hal_uart.c ****   *        manage 6-, 7- or 8-bit long addresses detection
 436:Drivers/STM32F7xx_HAL_Driver/Src/stm32f7xx_hal_uart.c ****   * @retval HAL status
 437:Drivers/STM32F7xx_HAL_Driver/Src/stm32f7xx_hal_uart.c ****   */
 438:Drivers/STM32F7xx_HAL_Driver/Src/stm32f7xx_hal_uart.c **** HAL_StatusTypeDef HAL_MultiProcessor_Init(UART_HandleTypeDef *huart, uint8_t Address, uint32_t Wake
 439:Drivers/STM32F7xx_HAL_Driver/Src/stm32f7xx_hal_uart.c **** {
 440:Drivers/STM32F7xx_HAL_Driver/Src/stm32f7xx_hal_uart.c ****   /* Check the UART handle allocation */
 441:Drivers/STM32F7xx_HAL_Driver/Src/stm32f7xx_hal_uart.c ****   if(huart == NULL)
 442:Drivers/STM32F7xx_HAL_Driver/Src/stm32f7xx_hal_uart.c ****   {
 443:Drivers/STM32F7xx_HAL_Driver/Src/stm32f7xx_hal_uart.c ****     return HAL_ERROR;
 444:Drivers/STM32F7xx_HAL_Driver/Src/stm32f7xx_hal_uart.c ****   }
 445:Drivers/STM32F7xx_HAL_Driver/Src/stm32f7xx_hal_uart.c **** 
 446:Drivers/STM32F7xx_HAL_Driver/Src/stm32f7xx_hal_uart.c ****   /* Check the wake up method parameter */
 447:Drivers/STM32F7xx_HAL_Driver/Src/stm32f7xx_hal_uart.c ****   assert_param(IS_UART_WAKEUPMETHOD(WakeUpMethod));
 448:Drivers/STM32F7xx_HAL_Driver/Src/stm32f7xx_hal_uart.c **** 
 449:Drivers/STM32F7xx_HAL_Driver/Src/stm32f7xx_hal_uart.c ****   if(huart->gState == HAL_UART_STATE_RESET)
 450:Drivers/STM32F7xx_HAL_Driver/Src/stm32f7xx_hal_uart.c ****   {
 451:Drivers/STM32F7xx_HAL_Driver/Src/stm32f7xx_hal_uart.c ****     /* Allocate lock resource and initialize it */
 452:Drivers/STM32F7xx_HAL_Driver/Src/stm32f7xx_hal_uart.c ****     huart->Lock = HAL_UNLOCKED;
 453:Drivers/STM32F7xx_HAL_Driver/Src/stm32f7xx_hal_uart.c **** 
 454:Drivers/STM32F7xx_HAL_Driver/Src/stm32f7xx_hal_uart.c ****     /* Init the low level hardware : GPIO, CLOCK */
 455:Drivers/STM32F7xx_HAL_Driver/Src/stm32f7xx_hal_uart.c ****     HAL_UART_MspInit(huart);
 456:Drivers/STM32F7xx_HAL_Driver/Src/stm32f7xx_hal_uart.c ****   }
 457:Drivers/STM32F7xx_HAL_Driver/Src/stm32f7xx_hal_uart.c **** 
 458:Drivers/STM32F7xx_HAL_Driver/Src/stm32f7xx_hal_uart.c ****   huart->gState = HAL_UART_STATE_BUSY;
 459:Drivers/STM32F7xx_HAL_Driver/Src/stm32f7xx_hal_uart.c **** 
 460:Drivers/STM32F7xx_HAL_Driver/Src/stm32f7xx_hal_uart.c ****   /* Disable the Peripheral */
 461:Drivers/STM32F7xx_HAL_Driver/Src/stm32f7xx_hal_uart.c ****   __HAL_UART_DISABLE(huart);
 462:Drivers/STM32F7xx_HAL_Driver/Src/stm32f7xx_hal_uart.c **** 
 463:Drivers/STM32F7xx_HAL_Driver/Src/stm32f7xx_hal_uart.c ****   /* Set the UART Communication parameters */
 464:Drivers/STM32F7xx_HAL_Driver/Src/stm32f7xx_hal_uart.c ****   if (UART_SetConfig(huart) == HAL_ERROR)
 465:Drivers/STM32F7xx_HAL_Driver/Src/stm32f7xx_hal_uart.c ****   {
 466:Drivers/STM32F7xx_HAL_Driver/Src/stm32f7xx_hal_uart.c ****     return HAL_ERROR;
 467:Drivers/STM32F7xx_HAL_Driver/Src/stm32f7xx_hal_uart.c ****   }
 468:Drivers/STM32F7xx_HAL_Driver/Src/stm32f7xx_hal_uart.c **** 
 469:Drivers/STM32F7xx_HAL_Driver/Src/stm32f7xx_hal_uart.c ****   if (huart->AdvancedInit.AdvFeatureInit != UART_ADVFEATURE_NO_INIT)
 470:Drivers/STM32F7xx_HAL_Driver/Src/stm32f7xx_hal_uart.c ****   {
 471:Drivers/STM32F7xx_HAL_Driver/Src/stm32f7xx_hal_uart.c ****     UART_AdvFeatureConfig(huart);
 472:Drivers/STM32F7xx_HAL_Driver/Src/stm32f7xx_hal_uart.c ****   }
 473:Drivers/STM32F7xx_HAL_Driver/Src/stm32f7xx_hal_uart.c **** 
 474:Drivers/STM32F7xx_HAL_Driver/Src/stm32f7xx_hal_uart.c ****   /* In multiprocessor mode, the following bits must be kept cleared:
 475:Drivers/STM32F7xx_HAL_Driver/Src/stm32f7xx_hal_uart.c ****   - LINEN and CLKEN bits in the USART_CR2 register,
 476:Drivers/STM32F7xx_HAL_Driver/Src/stm32f7xx_hal_uart.c ****   - SCEN, HDSEL and IREN  bits in the USART_CR3 register. */
 477:Drivers/STM32F7xx_HAL_Driver/Src/stm32f7xx_hal_uart.c ****   CLEAR_BIT(huart->Instance->CR2, (USART_CR2_LINEN | USART_CR2_CLKEN));
 478:Drivers/STM32F7xx_HAL_Driver/Src/stm32f7xx_hal_uart.c ****   CLEAR_BIT(huart->Instance->CR3, (USART_CR3_SCEN | USART_CR3_HDSEL | USART_CR3_IREN));
 479:Drivers/STM32F7xx_HAL_Driver/Src/stm32f7xx_hal_uart.c **** 
 480:Drivers/STM32F7xx_HAL_Driver/Src/stm32f7xx_hal_uart.c ****   if (WakeUpMethod == UART_WAKEUPMETHOD_ADDRESSMARK)
 481:Drivers/STM32F7xx_HAL_Driver/Src/stm32f7xx_hal_uart.c ****   {
 482:Drivers/STM32F7xx_HAL_Driver/Src/stm32f7xx_hal_uart.c ****     /* If address mark wake up method is chosen, set the USART address node */
 483:Drivers/STM32F7xx_HAL_Driver/Src/stm32f7xx_hal_uart.c ****     MODIFY_REG(huart->Instance->CR2, USART_CR2_ADD, ((uint32_t)Address << UART_CR2_ADDRESS_LSB_POS)
 484:Drivers/STM32F7xx_HAL_Driver/Src/stm32f7xx_hal_uart.c ****   }
 485:Drivers/STM32F7xx_HAL_Driver/Src/stm32f7xx_hal_uart.c **** 
 486:Drivers/STM32F7xx_HAL_Driver/Src/stm32f7xx_hal_uart.c ****   /* Set the wake up method by setting the WAKE bit in the CR1 register */
 487:Drivers/STM32F7xx_HAL_Driver/Src/stm32f7xx_hal_uart.c ****   MODIFY_REG(huart->Instance->CR1, USART_CR1_WAKE, WakeUpMethod);
 488:Drivers/STM32F7xx_HAL_Driver/Src/stm32f7xx_hal_uart.c **** 
ARM GAS  C:\Users\Student\AppData\Local\Temp\cc4Wk4r8.s 			page 10


 489:Drivers/STM32F7xx_HAL_Driver/Src/stm32f7xx_hal_uart.c ****   /* Enable the Peripheral */
 490:Drivers/STM32F7xx_HAL_Driver/Src/stm32f7xx_hal_uart.c ****   __HAL_UART_ENABLE(huart);
 491:Drivers/STM32F7xx_HAL_Driver/Src/stm32f7xx_hal_uart.c **** 
 492:Drivers/STM32F7xx_HAL_Driver/Src/stm32f7xx_hal_uart.c ****   /* TEACK and/or REACK to check before moving huart->gState and huart->RxState to Ready */
 493:Drivers/STM32F7xx_HAL_Driver/Src/stm32f7xx_hal_uart.c ****   return (UART_CheckIdleState(huart));
 494:Drivers/STM32F7xx_HAL_Driver/Src/stm32f7xx_hal_uart.c **** }
 495:Drivers/STM32F7xx_HAL_Driver/Src/stm32f7xx_hal_uart.c **** 
 496:Drivers/STM32F7xx_HAL_Driver/Src/stm32f7xx_hal_uart.c **** 
 497:Drivers/STM32F7xx_HAL_Driver/Src/stm32f7xx_hal_uart.c **** /**
 498:Drivers/STM32F7xx_HAL_Driver/Src/stm32f7xx_hal_uart.c ****   * @brief Initialize the RS485 Driver enable feature according to the specified
 499:Drivers/STM32F7xx_HAL_Driver/Src/stm32f7xx_hal_uart.c ****   *         parameters in the UART_InitTypeDef and creates the associated handle.
 500:Drivers/STM32F7xx_HAL_Driver/Src/stm32f7xx_hal_uart.c ****   * @param huart UART handle.
 501:Drivers/STM32F7xx_HAL_Driver/Src/stm32f7xx_hal_uart.c ****   * @param Polarity select the driver enable polarity.
 502:Drivers/STM32F7xx_HAL_Driver/Src/stm32f7xx_hal_uart.c ****   *        This parameter can be one of the following values:
 503:Drivers/STM32F7xx_HAL_Driver/Src/stm32f7xx_hal_uart.c ****   *          @arg @ref UART_DE_POLARITY_HIGH DE signal is active high
 504:Drivers/STM32F7xx_HAL_Driver/Src/stm32f7xx_hal_uart.c ****   *          @arg @ref UART_DE_POLARITY_LOW  DE signal is active low
 505:Drivers/STM32F7xx_HAL_Driver/Src/stm32f7xx_hal_uart.c ****   * @param AssertionTime Driver Enable assertion time:
 506:Drivers/STM32F7xx_HAL_Driver/Src/stm32f7xx_hal_uart.c ****   *                         5-bit value defining the time between the activation of the DE (Driver 
 507:Drivers/STM32F7xx_HAL_Driver/Src/stm32f7xx_hal_uart.c ****   *                         signal and the beginning of the start bit. It is expressed in sample ti
 508:Drivers/STM32F7xx_HAL_Driver/Src/stm32f7xx_hal_uart.c ****   *                         units (1/8 or 1/16 bit time, depending on the oversampling rate)
 509:Drivers/STM32F7xx_HAL_Driver/Src/stm32f7xx_hal_uart.c ****   * @param DeassertionTime Driver Enable deassertion time:
 510:Drivers/STM32F7xx_HAL_Driver/Src/stm32f7xx_hal_uart.c ****   *                         5-bit value defining the time between the end of the last stop bit, in 
 511:Drivers/STM32F7xx_HAL_Driver/Src/stm32f7xx_hal_uart.c ****   *                         transmitted message, and the de-activation of the DE (Driver Enable) si
 512:Drivers/STM32F7xx_HAL_Driver/Src/stm32f7xx_hal_uart.c ****   *                         It is expressed in sample time units (1/8 or 1/16 bit time, depending o
 513:Drivers/STM32F7xx_HAL_Driver/Src/stm32f7xx_hal_uart.c ****   *                         oversampling rate).
 514:Drivers/STM32F7xx_HAL_Driver/Src/stm32f7xx_hal_uart.c ****   * @retval HAL status
 515:Drivers/STM32F7xx_HAL_Driver/Src/stm32f7xx_hal_uart.c ****   */
 516:Drivers/STM32F7xx_HAL_Driver/Src/stm32f7xx_hal_uart.c **** HAL_StatusTypeDef HAL_RS485Ex_Init(UART_HandleTypeDef *huart, uint32_t Polarity, uint32_t Assertion
 517:Drivers/STM32F7xx_HAL_Driver/Src/stm32f7xx_hal_uart.c **** {
 518:Drivers/STM32F7xx_HAL_Driver/Src/stm32f7xx_hal_uart.c ****   uint32_t temp = 0x0;
 519:Drivers/STM32F7xx_HAL_Driver/Src/stm32f7xx_hal_uart.c **** 
 520:Drivers/STM32F7xx_HAL_Driver/Src/stm32f7xx_hal_uart.c ****   /* Check the UART handle allocation */
 521:Drivers/STM32F7xx_HAL_Driver/Src/stm32f7xx_hal_uart.c ****   if(huart == NULL)
 522:Drivers/STM32F7xx_HAL_Driver/Src/stm32f7xx_hal_uart.c ****   {
 523:Drivers/STM32F7xx_HAL_Driver/Src/stm32f7xx_hal_uart.c ****     return HAL_ERROR;
 524:Drivers/STM32F7xx_HAL_Driver/Src/stm32f7xx_hal_uart.c ****   }
 525:Drivers/STM32F7xx_HAL_Driver/Src/stm32f7xx_hal_uart.c ****   /* Check the Driver Enable UART instance */
 526:Drivers/STM32F7xx_HAL_Driver/Src/stm32f7xx_hal_uart.c ****   assert_param(IS_UART_DRIVER_ENABLE_INSTANCE(huart->Instance));
 527:Drivers/STM32F7xx_HAL_Driver/Src/stm32f7xx_hal_uart.c **** 
 528:Drivers/STM32F7xx_HAL_Driver/Src/stm32f7xx_hal_uart.c ****   /* Check the Driver Enable polarity */
 529:Drivers/STM32F7xx_HAL_Driver/Src/stm32f7xx_hal_uart.c ****   assert_param(IS_UART_DE_POLARITY(Polarity));
 530:Drivers/STM32F7xx_HAL_Driver/Src/stm32f7xx_hal_uart.c **** 
 531:Drivers/STM32F7xx_HAL_Driver/Src/stm32f7xx_hal_uart.c ****   /* Check the Driver Enable assertion time */
 532:Drivers/STM32F7xx_HAL_Driver/Src/stm32f7xx_hal_uart.c ****   assert_param(IS_UART_ASSERTIONTIME(AssertionTime));
 533:Drivers/STM32F7xx_HAL_Driver/Src/stm32f7xx_hal_uart.c **** 
 534:Drivers/STM32F7xx_HAL_Driver/Src/stm32f7xx_hal_uart.c ****   /* Check the Driver Enable deassertion time */
 535:Drivers/STM32F7xx_HAL_Driver/Src/stm32f7xx_hal_uart.c ****   assert_param(IS_UART_DEASSERTIONTIME(DeassertionTime));
 536:Drivers/STM32F7xx_HAL_Driver/Src/stm32f7xx_hal_uart.c **** 
 537:Drivers/STM32F7xx_HAL_Driver/Src/stm32f7xx_hal_uart.c ****   if(huart->gState == HAL_UART_STATE_RESET)
 538:Drivers/STM32F7xx_HAL_Driver/Src/stm32f7xx_hal_uart.c ****   {
 539:Drivers/STM32F7xx_HAL_Driver/Src/stm32f7xx_hal_uart.c ****     /* Allocate lock resource and initialize it */
 540:Drivers/STM32F7xx_HAL_Driver/Src/stm32f7xx_hal_uart.c ****     huart->Lock = HAL_UNLOCKED;
 541:Drivers/STM32F7xx_HAL_Driver/Src/stm32f7xx_hal_uart.c **** 
 542:Drivers/STM32F7xx_HAL_Driver/Src/stm32f7xx_hal_uart.c ****     /* Init the low level hardware : GPIO, CLOCK, CORTEX */
 543:Drivers/STM32F7xx_HAL_Driver/Src/stm32f7xx_hal_uart.c ****     HAL_UART_MspInit(huart);
 544:Drivers/STM32F7xx_HAL_Driver/Src/stm32f7xx_hal_uart.c ****   }
 545:Drivers/STM32F7xx_HAL_Driver/Src/stm32f7xx_hal_uart.c **** 
ARM GAS  C:\Users\Student\AppData\Local\Temp\cc4Wk4r8.s 			page 11


 546:Drivers/STM32F7xx_HAL_Driver/Src/stm32f7xx_hal_uart.c ****   huart->gState = HAL_UART_STATE_BUSY;
 547:Drivers/STM32F7xx_HAL_Driver/Src/stm32f7xx_hal_uart.c **** 
 548:Drivers/STM32F7xx_HAL_Driver/Src/stm32f7xx_hal_uart.c ****   /* Disable the Peripheral */
 549:Drivers/STM32F7xx_HAL_Driver/Src/stm32f7xx_hal_uart.c ****   __HAL_UART_DISABLE(huart);
 550:Drivers/STM32F7xx_HAL_Driver/Src/stm32f7xx_hal_uart.c **** 
 551:Drivers/STM32F7xx_HAL_Driver/Src/stm32f7xx_hal_uart.c ****   /* Set the UART Communication parameters */
 552:Drivers/STM32F7xx_HAL_Driver/Src/stm32f7xx_hal_uart.c ****   if (UART_SetConfig(huart) == HAL_ERROR)
 553:Drivers/STM32F7xx_HAL_Driver/Src/stm32f7xx_hal_uart.c ****   {
 554:Drivers/STM32F7xx_HAL_Driver/Src/stm32f7xx_hal_uart.c ****     return HAL_ERROR;
 555:Drivers/STM32F7xx_HAL_Driver/Src/stm32f7xx_hal_uart.c ****   }
 556:Drivers/STM32F7xx_HAL_Driver/Src/stm32f7xx_hal_uart.c **** 
 557:Drivers/STM32F7xx_HAL_Driver/Src/stm32f7xx_hal_uart.c ****   if(huart->AdvancedInit.AdvFeatureInit != UART_ADVFEATURE_NO_INIT)
 558:Drivers/STM32F7xx_HAL_Driver/Src/stm32f7xx_hal_uart.c ****   {
 559:Drivers/STM32F7xx_HAL_Driver/Src/stm32f7xx_hal_uart.c ****     UART_AdvFeatureConfig(huart);
 560:Drivers/STM32F7xx_HAL_Driver/Src/stm32f7xx_hal_uart.c ****   }
 561:Drivers/STM32F7xx_HAL_Driver/Src/stm32f7xx_hal_uart.c **** 
 562:Drivers/STM32F7xx_HAL_Driver/Src/stm32f7xx_hal_uart.c ****   /* Enable the Driver Enable mode by setting the DEM bit in the CR3 register */
 563:Drivers/STM32F7xx_HAL_Driver/Src/stm32f7xx_hal_uart.c ****   SET_BIT(huart->Instance->CR3, USART_CR3_DEM);
 564:Drivers/STM32F7xx_HAL_Driver/Src/stm32f7xx_hal_uart.c **** 
 565:Drivers/STM32F7xx_HAL_Driver/Src/stm32f7xx_hal_uart.c ****   /* Set the Driver Enable polarity */
 566:Drivers/STM32F7xx_HAL_Driver/Src/stm32f7xx_hal_uart.c ****   MODIFY_REG(huart->Instance->CR3, USART_CR3_DEP, Polarity);
 567:Drivers/STM32F7xx_HAL_Driver/Src/stm32f7xx_hal_uart.c **** 
 568:Drivers/STM32F7xx_HAL_Driver/Src/stm32f7xx_hal_uart.c ****   /* Set the Driver Enable assertion and deassertion times */
 569:Drivers/STM32F7xx_HAL_Driver/Src/stm32f7xx_hal_uart.c ****   temp = (AssertionTime << UART_CR1_DEAT_ADDRESS_LSB_POS);
 570:Drivers/STM32F7xx_HAL_Driver/Src/stm32f7xx_hal_uart.c ****   temp |= (DeassertionTime << UART_CR1_DEDT_ADDRESS_LSB_POS);
 571:Drivers/STM32F7xx_HAL_Driver/Src/stm32f7xx_hal_uart.c ****   MODIFY_REG(huart->Instance->CR1, (USART_CR1_DEDT|USART_CR1_DEAT), temp);
 572:Drivers/STM32F7xx_HAL_Driver/Src/stm32f7xx_hal_uart.c **** 
 573:Drivers/STM32F7xx_HAL_Driver/Src/stm32f7xx_hal_uart.c ****   /* Enable the Peripheral */
 574:Drivers/STM32F7xx_HAL_Driver/Src/stm32f7xx_hal_uart.c ****   __HAL_UART_ENABLE(huart);
 575:Drivers/STM32F7xx_HAL_Driver/Src/stm32f7xx_hal_uart.c **** 
 576:Drivers/STM32F7xx_HAL_Driver/Src/stm32f7xx_hal_uart.c ****   /* TEACK and/or REACK to check before moving huart->gState and huart->RxState to Ready */
 577:Drivers/STM32F7xx_HAL_Driver/Src/stm32f7xx_hal_uart.c ****   return (UART_CheckIdleState(huart));
 578:Drivers/STM32F7xx_HAL_Driver/Src/stm32f7xx_hal_uart.c **** }
 579:Drivers/STM32F7xx_HAL_Driver/Src/stm32f7xx_hal_uart.c **** 
 580:Drivers/STM32F7xx_HAL_Driver/Src/stm32f7xx_hal_uart.c **** /**
 581:Drivers/STM32F7xx_HAL_Driver/Src/stm32f7xx_hal_uart.c ****   * @brief DeInitializes the UART peripheral
 582:Drivers/STM32F7xx_HAL_Driver/Src/stm32f7xx_hal_uart.c ****   * @param huart uart handle
 583:Drivers/STM32F7xx_HAL_Driver/Src/stm32f7xx_hal_uart.c ****   * @retval HAL status
 584:Drivers/STM32F7xx_HAL_Driver/Src/stm32f7xx_hal_uart.c ****   */
 585:Drivers/STM32F7xx_HAL_Driver/Src/stm32f7xx_hal_uart.c **** HAL_StatusTypeDef HAL_UART_DeInit(UART_HandleTypeDef *huart)
 586:Drivers/STM32F7xx_HAL_Driver/Src/stm32f7xx_hal_uart.c **** {
 587:Drivers/STM32F7xx_HAL_Driver/Src/stm32f7xx_hal_uart.c ****   /* Check the UART handle allocation */
 588:Drivers/STM32F7xx_HAL_Driver/Src/stm32f7xx_hal_uart.c ****   if(huart == NULL)
 589:Drivers/STM32F7xx_HAL_Driver/Src/stm32f7xx_hal_uart.c ****   {
 590:Drivers/STM32F7xx_HAL_Driver/Src/stm32f7xx_hal_uart.c ****     return HAL_ERROR;
 591:Drivers/STM32F7xx_HAL_Driver/Src/stm32f7xx_hal_uart.c ****   }
 592:Drivers/STM32F7xx_HAL_Driver/Src/stm32f7xx_hal_uart.c **** 
 593:Drivers/STM32F7xx_HAL_Driver/Src/stm32f7xx_hal_uart.c ****   /* Check the parameters */
 594:Drivers/STM32F7xx_HAL_Driver/Src/stm32f7xx_hal_uart.c ****   assert_param(IS_UART_INSTANCE(huart->Instance));
 595:Drivers/STM32F7xx_HAL_Driver/Src/stm32f7xx_hal_uart.c **** 
 596:Drivers/STM32F7xx_HAL_Driver/Src/stm32f7xx_hal_uart.c ****   huart->gState = HAL_UART_STATE_BUSY;
 597:Drivers/STM32F7xx_HAL_Driver/Src/stm32f7xx_hal_uart.c **** 
 598:Drivers/STM32F7xx_HAL_Driver/Src/stm32f7xx_hal_uart.c ****   /* Disable the Peripheral */
 599:Drivers/STM32F7xx_HAL_Driver/Src/stm32f7xx_hal_uart.c ****   __HAL_UART_DISABLE(huart);
 600:Drivers/STM32F7xx_HAL_Driver/Src/stm32f7xx_hal_uart.c **** 
 601:Drivers/STM32F7xx_HAL_Driver/Src/stm32f7xx_hal_uart.c ****   huart->Instance->CR1 = 0x0U;
 602:Drivers/STM32F7xx_HAL_Driver/Src/stm32f7xx_hal_uart.c ****   huart->Instance->CR2 = 0x0U;
ARM GAS  C:\Users\Student\AppData\Local\Temp\cc4Wk4r8.s 			page 12


 603:Drivers/STM32F7xx_HAL_Driver/Src/stm32f7xx_hal_uart.c ****   huart->Instance->CR3 = 0x0U;
 604:Drivers/STM32F7xx_HAL_Driver/Src/stm32f7xx_hal_uart.c **** 
 605:Drivers/STM32F7xx_HAL_Driver/Src/stm32f7xx_hal_uart.c ****   /* DeInit the low level hardware */
 606:Drivers/STM32F7xx_HAL_Driver/Src/stm32f7xx_hal_uart.c ****   HAL_UART_MspDeInit(huart);
 607:Drivers/STM32F7xx_HAL_Driver/Src/stm32f7xx_hal_uart.c **** 
 608:Drivers/STM32F7xx_HAL_Driver/Src/stm32f7xx_hal_uart.c ****   huart->ErrorCode = HAL_UART_ERROR_NONE;
 609:Drivers/STM32F7xx_HAL_Driver/Src/stm32f7xx_hal_uart.c ****   huart->gState    = HAL_UART_STATE_RESET;
 610:Drivers/STM32F7xx_HAL_Driver/Src/stm32f7xx_hal_uart.c ****   huart->RxState   = HAL_UART_STATE_RESET;
 611:Drivers/STM32F7xx_HAL_Driver/Src/stm32f7xx_hal_uart.c **** 
 612:Drivers/STM32F7xx_HAL_Driver/Src/stm32f7xx_hal_uart.c ****   /* Process Unlock */
 613:Drivers/STM32F7xx_HAL_Driver/Src/stm32f7xx_hal_uart.c ****   __HAL_UNLOCK(huart);
 614:Drivers/STM32F7xx_HAL_Driver/Src/stm32f7xx_hal_uart.c **** 
 615:Drivers/STM32F7xx_HAL_Driver/Src/stm32f7xx_hal_uart.c ****   return HAL_OK;
 616:Drivers/STM32F7xx_HAL_Driver/Src/stm32f7xx_hal_uart.c **** }
 617:Drivers/STM32F7xx_HAL_Driver/Src/stm32f7xx_hal_uart.c **** 
 618:Drivers/STM32F7xx_HAL_Driver/Src/stm32f7xx_hal_uart.c **** /**
 619:Drivers/STM32F7xx_HAL_Driver/Src/stm32f7xx_hal_uart.c ****   * @brief UART MSP Init
 620:Drivers/STM32F7xx_HAL_Driver/Src/stm32f7xx_hal_uart.c ****   * @param huart uart handle
 621:Drivers/STM32F7xx_HAL_Driver/Src/stm32f7xx_hal_uart.c ****   * @retval None
 622:Drivers/STM32F7xx_HAL_Driver/Src/stm32f7xx_hal_uart.c ****   */
 623:Drivers/STM32F7xx_HAL_Driver/Src/stm32f7xx_hal_uart.c **** __weak void HAL_UART_MspInit(UART_HandleTypeDef *huart)
 624:Drivers/STM32F7xx_HAL_Driver/Src/stm32f7xx_hal_uart.c **** {
 625:Drivers/STM32F7xx_HAL_Driver/Src/stm32f7xx_hal_uart.c ****   /* Prevent unused argument(s) compilation warning */
 626:Drivers/STM32F7xx_HAL_Driver/Src/stm32f7xx_hal_uart.c ****   UNUSED(huart);
 627:Drivers/STM32F7xx_HAL_Driver/Src/stm32f7xx_hal_uart.c **** 
 628:Drivers/STM32F7xx_HAL_Driver/Src/stm32f7xx_hal_uart.c ****   /* NOTE : This function should not be modified, when the callback is needed,
 629:Drivers/STM32F7xx_HAL_Driver/Src/stm32f7xx_hal_uart.c ****             the HAL_UART_MspInit can be implemented in the user file
 630:Drivers/STM32F7xx_HAL_Driver/Src/stm32f7xx_hal_uart.c ****    */
 631:Drivers/STM32F7xx_HAL_Driver/Src/stm32f7xx_hal_uart.c **** }
 632:Drivers/STM32F7xx_HAL_Driver/Src/stm32f7xx_hal_uart.c **** 
 633:Drivers/STM32F7xx_HAL_Driver/Src/stm32f7xx_hal_uart.c **** /**
 634:Drivers/STM32F7xx_HAL_Driver/Src/stm32f7xx_hal_uart.c ****   * @brief UART MSP DeInit
 635:Drivers/STM32F7xx_HAL_Driver/Src/stm32f7xx_hal_uart.c ****   * @param huart uart handle
 636:Drivers/STM32F7xx_HAL_Driver/Src/stm32f7xx_hal_uart.c ****   * @retval None
 637:Drivers/STM32F7xx_HAL_Driver/Src/stm32f7xx_hal_uart.c ****   */
 638:Drivers/STM32F7xx_HAL_Driver/Src/stm32f7xx_hal_uart.c **** __weak void HAL_UART_MspDeInit(UART_HandleTypeDef *huart)
 639:Drivers/STM32F7xx_HAL_Driver/Src/stm32f7xx_hal_uart.c **** {
 640:Drivers/STM32F7xx_HAL_Driver/Src/stm32f7xx_hal_uart.c ****   /* Prevent unused argument(s) compilation warning */
 641:Drivers/STM32F7xx_HAL_Driver/Src/stm32f7xx_hal_uart.c ****   UNUSED(huart);
 642:Drivers/STM32F7xx_HAL_Driver/Src/stm32f7xx_hal_uart.c **** 
 643:Drivers/STM32F7xx_HAL_Driver/Src/stm32f7xx_hal_uart.c ****   /* NOTE : This function should not be modified, when the callback is needed,
 644:Drivers/STM32F7xx_HAL_Driver/Src/stm32f7xx_hal_uart.c ****             the HAL_UART_MspDeInit can be implemented in the user file
 645:Drivers/STM32F7xx_HAL_Driver/Src/stm32f7xx_hal_uart.c ****    */
 646:Drivers/STM32F7xx_HAL_Driver/Src/stm32f7xx_hal_uart.c **** }
 647:Drivers/STM32F7xx_HAL_Driver/Src/stm32f7xx_hal_uart.c **** 
 648:Drivers/STM32F7xx_HAL_Driver/Src/stm32f7xx_hal_uart.c **** /**
 649:Drivers/STM32F7xx_HAL_Driver/Src/stm32f7xx_hal_uart.c ****   * @}
 650:Drivers/STM32F7xx_HAL_Driver/Src/stm32f7xx_hal_uart.c ****   */
 651:Drivers/STM32F7xx_HAL_Driver/Src/stm32f7xx_hal_uart.c **** 
 652:Drivers/STM32F7xx_HAL_Driver/Src/stm32f7xx_hal_uart.c **** /** @defgroup UART_Exported_Functions_Group2 IO operation functions
 653:Drivers/STM32F7xx_HAL_Driver/Src/stm32f7xx_hal_uart.c ****   * @brief UART Transmit/Receive functions
 654:Drivers/STM32F7xx_HAL_Driver/Src/stm32f7xx_hal_uart.c ****   *
 655:Drivers/STM32F7xx_HAL_Driver/Src/stm32f7xx_hal_uart.c **** @verbatim
 656:Drivers/STM32F7xx_HAL_Driver/Src/stm32f7xx_hal_uart.c ****  ===============================================================================
 657:Drivers/STM32F7xx_HAL_Driver/Src/stm32f7xx_hal_uart.c ****                       ##### IO operation functions #####
 658:Drivers/STM32F7xx_HAL_Driver/Src/stm32f7xx_hal_uart.c ****  ===============================================================================
 659:Drivers/STM32F7xx_HAL_Driver/Src/stm32f7xx_hal_uart.c ****     This subsection provides a set of functions allowing to manage the UART asynchronous
ARM GAS  C:\Users\Student\AppData\Local\Temp\cc4Wk4r8.s 			page 13


 660:Drivers/STM32F7xx_HAL_Driver/Src/stm32f7xx_hal_uart.c ****     and Half duplex data transfers.
 661:Drivers/STM32F7xx_HAL_Driver/Src/stm32f7xx_hal_uart.c **** 
 662:Drivers/STM32F7xx_HAL_Driver/Src/stm32f7xx_hal_uart.c ****     (#) There are two mode of transfer:
 663:Drivers/STM32F7xx_HAL_Driver/Src/stm32f7xx_hal_uart.c ****        (+) Blocking mode: The communication is performed in polling mode.
 664:Drivers/STM32F7xx_HAL_Driver/Src/stm32f7xx_hal_uart.c ****            The HAL status of all data processing is returned by the same function
 665:Drivers/STM32F7xx_HAL_Driver/Src/stm32f7xx_hal_uart.c ****            after finishing transfer.
 666:Drivers/STM32F7xx_HAL_Driver/Src/stm32f7xx_hal_uart.c ****        (+) Non-Blocking mode: The communication is performed using Interrupts
 667:Drivers/STM32F7xx_HAL_Driver/Src/stm32f7xx_hal_uart.c ****            or DMA, These API's return the HAL status.
 668:Drivers/STM32F7xx_HAL_Driver/Src/stm32f7xx_hal_uart.c ****            The end of the data processing will be indicated through the
 669:Drivers/STM32F7xx_HAL_Driver/Src/stm32f7xx_hal_uart.c ****            dedicated UART IRQ when using Interrupt mode or the DMA IRQ when
 670:Drivers/STM32F7xx_HAL_Driver/Src/stm32f7xx_hal_uart.c ****            using DMA mode.
 671:Drivers/STM32F7xx_HAL_Driver/Src/stm32f7xx_hal_uart.c ****            The HAL_UART_TxCpltCallback(), HAL_UART_RxCpltCallback() user callbacks
 672:Drivers/STM32F7xx_HAL_Driver/Src/stm32f7xx_hal_uart.c ****            will be executed respectively at the end of the transmit or Receive process
 673:Drivers/STM32F7xx_HAL_Driver/Src/stm32f7xx_hal_uart.c ****            The HAL_UART_ErrorCallback()user callback will be executed when a communication error is
 674:Drivers/STM32F7xx_HAL_Driver/Src/stm32f7xx_hal_uart.c **** 
 675:Drivers/STM32F7xx_HAL_Driver/Src/stm32f7xx_hal_uart.c ****     (#) Blocking mode API's are :
 676:Drivers/STM32F7xx_HAL_Driver/Src/stm32f7xx_hal_uart.c ****         (+) HAL_UART_Transmit()
 677:Drivers/STM32F7xx_HAL_Driver/Src/stm32f7xx_hal_uart.c ****         (+) HAL_UART_Receive()
 678:Drivers/STM32F7xx_HAL_Driver/Src/stm32f7xx_hal_uart.c **** 
 679:Drivers/STM32F7xx_HAL_Driver/Src/stm32f7xx_hal_uart.c ****     (#) Non-Blocking mode API's with Interrupt are :
 680:Drivers/STM32F7xx_HAL_Driver/Src/stm32f7xx_hal_uart.c ****         (+) HAL_UART_Transmit_IT()
 681:Drivers/STM32F7xx_HAL_Driver/Src/stm32f7xx_hal_uart.c ****         (+) HAL_UART_Receive_IT()
 682:Drivers/STM32F7xx_HAL_Driver/Src/stm32f7xx_hal_uart.c ****         (+) HAL_UART_IRQHandler()
 683:Drivers/STM32F7xx_HAL_Driver/Src/stm32f7xx_hal_uart.c ****         (+) UART_Transmit_IT()
 684:Drivers/STM32F7xx_HAL_Driver/Src/stm32f7xx_hal_uart.c ****         (+) UART_Receive_IT()
 685:Drivers/STM32F7xx_HAL_Driver/Src/stm32f7xx_hal_uart.c **** 
 686:Drivers/STM32F7xx_HAL_Driver/Src/stm32f7xx_hal_uart.c ****     (#) Non-Blocking mode API's with DMA are :
 687:Drivers/STM32F7xx_HAL_Driver/Src/stm32f7xx_hal_uart.c ****         (+) HAL_UART_Transmit_DMA()
 688:Drivers/STM32F7xx_HAL_Driver/Src/stm32f7xx_hal_uart.c ****         (+) HAL_UART_Receive_DMA()
 689:Drivers/STM32F7xx_HAL_Driver/Src/stm32f7xx_hal_uart.c ****         (+) HAL_UART_DMAPause()
 690:Drivers/STM32F7xx_HAL_Driver/Src/stm32f7xx_hal_uart.c ****         (+) HAL_UART_DMAResume()
 691:Drivers/STM32F7xx_HAL_Driver/Src/stm32f7xx_hal_uart.c ****         (+) HAL_UART_DMAStop()
 692:Drivers/STM32F7xx_HAL_Driver/Src/stm32f7xx_hal_uart.c **** 
 693:Drivers/STM32F7xx_HAL_Driver/Src/stm32f7xx_hal_uart.c ****     (#) A set of Transfer Complete Callbacks are provided in Non_Blocking mode:
 694:Drivers/STM32F7xx_HAL_Driver/Src/stm32f7xx_hal_uart.c ****         (+) HAL_UART_TxHalfCpltCallback()
 695:Drivers/STM32F7xx_HAL_Driver/Src/stm32f7xx_hal_uart.c ****         (+) HAL_UART_TxCpltCallback()
 696:Drivers/STM32F7xx_HAL_Driver/Src/stm32f7xx_hal_uart.c ****         (+) HAL_UART_RxHalfCpltCallback()
 697:Drivers/STM32F7xx_HAL_Driver/Src/stm32f7xx_hal_uart.c ****         (+) HAL_UART_RxCpltCallback()
 698:Drivers/STM32F7xx_HAL_Driver/Src/stm32f7xx_hal_uart.c ****         (+) HAL_UART_ErrorCallback()
 699:Drivers/STM32F7xx_HAL_Driver/Src/stm32f7xx_hal_uart.c **** 
 700:Drivers/STM32F7xx_HAL_Driver/Src/stm32f7xx_hal_uart.c **** 
 701:Drivers/STM32F7xx_HAL_Driver/Src/stm32f7xx_hal_uart.c ****     -@- In the Half duplex communication, it is forbidden to run the transmit
 702:Drivers/STM32F7xx_HAL_Driver/Src/stm32f7xx_hal_uart.c ****         and receive process in parallel, the UART state HAL_UART_STATE_BUSY_TX_RX can't be useful.
 703:Drivers/STM32F7xx_HAL_Driver/Src/stm32f7xx_hal_uart.c **** 
 704:Drivers/STM32F7xx_HAL_Driver/Src/stm32f7xx_hal_uart.c **** @endverbatim
 705:Drivers/STM32F7xx_HAL_Driver/Src/stm32f7xx_hal_uart.c ****   * @{
 706:Drivers/STM32F7xx_HAL_Driver/Src/stm32f7xx_hal_uart.c ****   */
 707:Drivers/STM32F7xx_HAL_Driver/Src/stm32f7xx_hal_uart.c **** 
 708:Drivers/STM32F7xx_HAL_Driver/Src/stm32f7xx_hal_uart.c **** /**
 709:Drivers/STM32F7xx_HAL_Driver/Src/stm32f7xx_hal_uart.c ****   * @brief Send an amount of data in blocking mode.
 710:Drivers/STM32F7xx_HAL_Driver/Src/stm32f7xx_hal_uart.c ****   * @param huart UART handle.
 711:Drivers/STM32F7xx_HAL_Driver/Src/stm32f7xx_hal_uart.c ****   * @param pData Pointer to data buffer.
 712:Drivers/STM32F7xx_HAL_Driver/Src/stm32f7xx_hal_uart.c ****   * @param Size Amount of data to be sent.
 713:Drivers/STM32F7xx_HAL_Driver/Src/stm32f7xx_hal_uart.c ****   * @param Timeout Timeout duration.
 714:Drivers/STM32F7xx_HAL_Driver/Src/stm32f7xx_hal_uart.c ****   * @retval HAL status
 715:Drivers/STM32F7xx_HAL_Driver/Src/stm32f7xx_hal_uart.c ****   */
 716:Drivers/STM32F7xx_HAL_Driver/Src/stm32f7xx_hal_uart.c **** HAL_StatusTypeDef HAL_UART_Transmit(UART_HandleTypeDef *huart, uint8_t *pData, uint16_t Size, uint3
ARM GAS  C:\Users\Student\AppData\Local\Temp\cc4Wk4r8.s 			page 14


 717:Drivers/STM32F7xx_HAL_Driver/Src/stm32f7xx_hal_uart.c **** {
 718:Drivers/STM32F7xx_HAL_Driver/Src/stm32f7xx_hal_uart.c ****   uint16_t* tmp;
 719:Drivers/STM32F7xx_HAL_Driver/Src/stm32f7xx_hal_uart.c ****   uint32_t tickstart = 0U;
 720:Drivers/STM32F7xx_HAL_Driver/Src/stm32f7xx_hal_uart.c **** 
 721:Drivers/STM32F7xx_HAL_Driver/Src/stm32f7xx_hal_uart.c ****   /* Check that a Tx process is not already ongoing */
 722:Drivers/STM32F7xx_HAL_Driver/Src/stm32f7xx_hal_uart.c ****   if(huart->gState == HAL_UART_STATE_READY)
 723:Drivers/STM32F7xx_HAL_Driver/Src/stm32f7xx_hal_uart.c ****   {
 724:Drivers/STM32F7xx_HAL_Driver/Src/stm32f7xx_hal_uart.c ****     if((pData == NULL ) || (Size == 0U))
 725:Drivers/STM32F7xx_HAL_Driver/Src/stm32f7xx_hal_uart.c ****     {
 726:Drivers/STM32F7xx_HAL_Driver/Src/stm32f7xx_hal_uart.c ****       return  HAL_ERROR;
 727:Drivers/STM32F7xx_HAL_Driver/Src/stm32f7xx_hal_uart.c ****     }
 728:Drivers/STM32F7xx_HAL_Driver/Src/stm32f7xx_hal_uart.c **** 
 729:Drivers/STM32F7xx_HAL_Driver/Src/stm32f7xx_hal_uart.c ****     /* Process Locked */
 730:Drivers/STM32F7xx_HAL_Driver/Src/stm32f7xx_hal_uart.c ****     __HAL_LOCK(huart);
 731:Drivers/STM32F7xx_HAL_Driver/Src/stm32f7xx_hal_uart.c **** 
 732:Drivers/STM32F7xx_HAL_Driver/Src/stm32f7xx_hal_uart.c ****     huart->ErrorCode = HAL_UART_ERROR_NONE;
 733:Drivers/STM32F7xx_HAL_Driver/Src/stm32f7xx_hal_uart.c ****     huart->gState = HAL_UART_STATE_BUSY_TX;
 734:Drivers/STM32F7xx_HAL_Driver/Src/stm32f7xx_hal_uart.c **** 
 735:Drivers/STM32F7xx_HAL_Driver/Src/stm32f7xx_hal_uart.c ****     /* Init tickstart for timeout managment*/
 736:Drivers/STM32F7xx_HAL_Driver/Src/stm32f7xx_hal_uart.c ****     tickstart = HAL_GetTick();
 737:Drivers/STM32F7xx_HAL_Driver/Src/stm32f7xx_hal_uart.c **** 
 738:Drivers/STM32F7xx_HAL_Driver/Src/stm32f7xx_hal_uart.c ****     huart->TxXferSize = Size;
 739:Drivers/STM32F7xx_HAL_Driver/Src/stm32f7xx_hal_uart.c ****     huart->TxXferCount = Size;
 740:Drivers/STM32F7xx_HAL_Driver/Src/stm32f7xx_hal_uart.c ****     while(huart->TxXferCount > 0U)
 741:Drivers/STM32F7xx_HAL_Driver/Src/stm32f7xx_hal_uart.c ****     {
 742:Drivers/STM32F7xx_HAL_Driver/Src/stm32f7xx_hal_uart.c ****       huart->TxXferCount--;
 743:Drivers/STM32F7xx_HAL_Driver/Src/stm32f7xx_hal_uart.c ****       if(UART_WaitOnFlagUntilTimeout(huart, UART_FLAG_TXE, RESET, tickstart, Timeout) != HAL_OK)
 744:Drivers/STM32F7xx_HAL_Driver/Src/stm32f7xx_hal_uart.c ****       {
 745:Drivers/STM32F7xx_HAL_Driver/Src/stm32f7xx_hal_uart.c ****         return HAL_TIMEOUT;
 746:Drivers/STM32F7xx_HAL_Driver/Src/stm32f7xx_hal_uart.c ****       }
 747:Drivers/STM32F7xx_HAL_Driver/Src/stm32f7xx_hal_uart.c ****       if ((huart->Init.WordLength == UART_WORDLENGTH_9B) && (huart->Init.Parity == UART_PARITY_NONE
 748:Drivers/STM32F7xx_HAL_Driver/Src/stm32f7xx_hal_uart.c ****       {
 749:Drivers/STM32F7xx_HAL_Driver/Src/stm32f7xx_hal_uart.c ****         tmp = (uint16_t*) pData;
 750:Drivers/STM32F7xx_HAL_Driver/Src/stm32f7xx_hal_uart.c ****         huart->Instance->TDR = (*tmp & (uint16_t)0x01FFU);
 751:Drivers/STM32F7xx_HAL_Driver/Src/stm32f7xx_hal_uart.c ****         pData += 2;
 752:Drivers/STM32F7xx_HAL_Driver/Src/stm32f7xx_hal_uart.c ****       }
 753:Drivers/STM32F7xx_HAL_Driver/Src/stm32f7xx_hal_uart.c ****       else
 754:Drivers/STM32F7xx_HAL_Driver/Src/stm32f7xx_hal_uart.c ****       {
 755:Drivers/STM32F7xx_HAL_Driver/Src/stm32f7xx_hal_uart.c ****         huart->Instance->TDR = (*pData++ & (uint8_t)0xFFU);
 756:Drivers/STM32F7xx_HAL_Driver/Src/stm32f7xx_hal_uart.c ****       }
 757:Drivers/STM32F7xx_HAL_Driver/Src/stm32f7xx_hal_uart.c ****     }
 758:Drivers/STM32F7xx_HAL_Driver/Src/stm32f7xx_hal_uart.c ****     if(UART_WaitOnFlagUntilTimeout(huart, UART_FLAG_TC, RESET, tickstart, Timeout) != HAL_OK)
 759:Drivers/STM32F7xx_HAL_Driver/Src/stm32f7xx_hal_uart.c ****     {
 760:Drivers/STM32F7xx_HAL_Driver/Src/stm32f7xx_hal_uart.c ****       return HAL_TIMEOUT;
 761:Drivers/STM32F7xx_HAL_Driver/Src/stm32f7xx_hal_uart.c ****     }
 762:Drivers/STM32F7xx_HAL_Driver/Src/stm32f7xx_hal_uart.c **** 
 763:Drivers/STM32F7xx_HAL_Driver/Src/stm32f7xx_hal_uart.c ****     /* At end of Tx process, restore huart->gState to Ready */
 764:Drivers/STM32F7xx_HAL_Driver/Src/stm32f7xx_hal_uart.c ****     huart->gState = HAL_UART_STATE_READY;
 765:Drivers/STM32F7xx_HAL_Driver/Src/stm32f7xx_hal_uart.c **** 
 766:Drivers/STM32F7xx_HAL_Driver/Src/stm32f7xx_hal_uart.c ****     /* Process Unlocked */
 767:Drivers/STM32F7xx_HAL_Driver/Src/stm32f7xx_hal_uart.c ****     __HAL_UNLOCK(huart);
 768:Drivers/STM32F7xx_HAL_Driver/Src/stm32f7xx_hal_uart.c **** 
 769:Drivers/STM32F7xx_HAL_Driver/Src/stm32f7xx_hal_uart.c ****     return HAL_OK;
 770:Drivers/STM32F7xx_HAL_Driver/Src/stm32f7xx_hal_uart.c ****   }
 771:Drivers/STM32F7xx_HAL_Driver/Src/stm32f7xx_hal_uart.c ****   else
 772:Drivers/STM32F7xx_HAL_Driver/Src/stm32f7xx_hal_uart.c ****   {
 773:Drivers/STM32F7xx_HAL_Driver/Src/stm32f7xx_hal_uart.c ****     return HAL_BUSY;
ARM GAS  C:\Users\Student\AppData\Local\Temp\cc4Wk4r8.s 			page 15


 774:Drivers/STM32F7xx_HAL_Driver/Src/stm32f7xx_hal_uart.c ****   }
 775:Drivers/STM32F7xx_HAL_Driver/Src/stm32f7xx_hal_uart.c **** }
 776:Drivers/STM32F7xx_HAL_Driver/Src/stm32f7xx_hal_uart.c **** 
 777:Drivers/STM32F7xx_HAL_Driver/Src/stm32f7xx_hal_uart.c **** /**
 778:Drivers/STM32F7xx_HAL_Driver/Src/stm32f7xx_hal_uart.c ****   * @brief Receive an amount of data in blocking mode.
 779:Drivers/STM32F7xx_HAL_Driver/Src/stm32f7xx_hal_uart.c ****   * @param huart UART handle.
 780:Drivers/STM32F7xx_HAL_Driver/Src/stm32f7xx_hal_uart.c ****   * @param pData pointer to data buffer.
 781:Drivers/STM32F7xx_HAL_Driver/Src/stm32f7xx_hal_uart.c ****   * @param Size amount of data to be received.
 782:Drivers/STM32F7xx_HAL_Driver/Src/stm32f7xx_hal_uart.c ****   * @param Timeout Timeout duration.
 783:Drivers/STM32F7xx_HAL_Driver/Src/stm32f7xx_hal_uart.c ****   * @retval HAL status
 784:Drivers/STM32F7xx_HAL_Driver/Src/stm32f7xx_hal_uart.c ****   */
 785:Drivers/STM32F7xx_HAL_Driver/Src/stm32f7xx_hal_uart.c **** HAL_StatusTypeDef HAL_UART_Receive(UART_HandleTypeDef *huart, uint8_t *pData, uint16_t Size, uint32
 786:Drivers/STM32F7xx_HAL_Driver/Src/stm32f7xx_hal_uart.c **** {
 787:Drivers/STM32F7xx_HAL_Driver/Src/stm32f7xx_hal_uart.c ****   uint16_t* tmp;
 788:Drivers/STM32F7xx_HAL_Driver/Src/stm32f7xx_hal_uart.c ****   uint16_t uhMask;
 789:Drivers/STM32F7xx_HAL_Driver/Src/stm32f7xx_hal_uart.c ****   uint32_t tickstart = 0U;
 790:Drivers/STM32F7xx_HAL_Driver/Src/stm32f7xx_hal_uart.c **** 
 791:Drivers/STM32F7xx_HAL_Driver/Src/stm32f7xx_hal_uart.c ****   /* Check that a Rx process is not already ongoing */
 792:Drivers/STM32F7xx_HAL_Driver/Src/stm32f7xx_hal_uart.c ****   if(huart->RxState == HAL_UART_STATE_READY)
 793:Drivers/STM32F7xx_HAL_Driver/Src/stm32f7xx_hal_uart.c ****   {
 794:Drivers/STM32F7xx_HAL_Driver/Src/stm32f7xx_hal_uart.c ****     if((pData == NULL ) || (Size == 0U))
 795:Drivers/STM32F7xx_HAL_Driver/Src/stm32f7xx_hal_uart.c ****     {
 796:Drivers/STM32F7xx_HAL_Driver/Src/stm32f7xx_hal_uart.c ****       return  HAL_ERROR;
 797:Drivers/STM32F7xx_HAL_Driver/Src/stm32f7xx_hal_uart.c ****     }
 798:Drivers/STM32F7xx_HAL_Driver/Src/stm32f7xx_hal_uart.c **** 
 799:Drivers/STM32F7xx_HAL_Driver/Src/stm32f7xx_hal_uart.c ****     /* Process Locked */
 800:Drivers/STM32F7xx_HAL_Driver/Src/stm32f7xx_hal_uart.c ****     __HAL_LOCK(huart);
 801:Drivers/STM32F7xx_HAL_Driver/Src/stm32f7xx_hal_uart.c **** 
 802:Drivers/STM32F7xx_HAL_Driver/Src/stm32f7xx_hal_uart.c ****     huart->ErrorCode = HAL_UART_ERROR_NONE;
 803:Drivers/STM32F7xx_HAL_Driver/Src/stm32f7xx_hal_uart.c ****     huart->RxState = HAL_UART_STATE_BUSY_RX;
 804:Drivers/STM32F7xx_HAL_Driver/Src/stm32f7xx_hal_uart.c **** 
 805:Drivers/STM32F7xx_HAL_Driver/Src/stm32f7xx_hal_uart.c ****     /* Init tickstart for timeout managment*/
 806:Drivers/STM32F7xx_HAL_Driver/Src/stm32f7xx_hal_uart.c ****     tickstart = HAL_GetTick();
 807:Drivers/STM32F7xx_HAL_Driver/Src/stm32f7xx_hal_uart.c **** 
 808:Drivers/STM32F7xx_HAL_Driver/Src/stm32f7xx_hal_uart.c ****     huart->RxXferSize = Size;
 809:Drivers/STM32F7xx_HAL_Driver/Src/stm32f7xx_hal_uart.c ****     huart->RxXferCount = Size;
 810:Drivers/STM32F7xx_HAL_Driver/Src/stm32f7xx_hal_uart.c **** 
 811:Drivers/STM32F7xx_HAL_Driver/Src/stm32f7xx_hal_uart.c ****     /* Computation of UART mask to apply to RDR register */
 812:Drivers/STM32F7xx_HAL_Driver/Src/stm32f7xx_hal_uart.c ****     UART_MASK_COMPUTATION(huart);
 813:Drivers/STM32F7xx_HAL_Driver/Src/stm32f7xx_hal_uart.c ****     uhMask = huart->Mask;
 814:Drivers/STM32F7xx_HAL_Driver/Src/stm32f7xx_hal_uart.c **** 
 815:Drivers/STM32F7xx_HAL_Driver/Src/stm32f7xx_hal_uart.c ****     /* as long as data have to be received */
 816:Drivers/STM32F7xx_HAL_Driver/Src/stm32f7xx_hal_uart.c ****     while(huart->RxXferCount > 0U)
 817:Drivers/STM32F7xx_HAL_Driver/Src/stm32f7xx_hal_uart.c ****     {
 818:Drivers/STM32F7xx_HAL_Driver/Src/stm32f7xx_hal_uart.c ****       huart->RxXferCount--;
 819:Drivers/STM32F7xx_HAL_Driver/Src/stm32f7xx_hal_uart.c ****       if(UART_WaitOnFlagUntilTimeout(huart, UART_FLAG_RXNE, RESET, tickstart, Timeout) != HAL_OK)
 820:Drivers/STM32F7xx_HAL_Driver/Src/stm32f7xx_hal_uart.c ****       {
 821:Drivers/STM32F7xx_HAL_Driver/Src/stm32f7xx_hal_uart.c ****         return HAL_TIMEOUT;
 822:Drivers/STM32F7xx_HAL_Driver/Src/stm32f7xx_hal_uart.c ****       }
 823:Drivers/STM32F7xx_HAL_Driver/Src/stm32f7xx_hal_uart.c ****       if ((huart->Init.WordLength == UART_WORDLENGTH_9B) && (huart->Init.Parity == UART_PARITY_NONE
 824:Drivers/STM32F7xx_HAL_Driver/Src/stm32f7xx_hal_uart.c ****       {
 825:Drivers/STM32F7xx_HAL_Driver/Src/stm32f7xx_hal_uart.c ****         tmp = (uint16_t*) pData ;
 826:Drivers/STM32F7xx_HAL_Driver/Src/stm32f7xx_hal_uart.c ****         *tmp = (uint16_t)(huart->Instance->RDR & uhMask);
 827:Drivers/STM32F7xx_HAL_Driver/Src/stm32f7xx_hal_uart.c ****         pData +=2U;
 828:Drivers/STM32F7xx_HAL_Driver/Src/stm32f7xx_hal_uart.c ****       }
 829:Drivers/STM32F7xx_HAL_Driver/Src/stm32f7xx_hal_uart.c ****       else
 830:Drivers/STM32F7xx_HAL_Driver/Src/stm32f7xx_hal_uart.c ****       {
ARM GAS  C:\Users\Student\AppData\Local\Temp\cc4Wk4r8.s 			page 16


 831:Drivers/STM32F7xx_HAL_Driver/Src/stm32f7xx_hal_uart.c ****         *pData++ = (uint8_t)(huart->Instance->RDR & (uint8_t)uhMask);
 832:Drivers/STM32F7xx_HAL_Driver/Src/stm32f7xx_hal_uart.c ****       }
 833:Drivers/STM32F7xx_HAL_Driver/Src/stm32f7xx_hal_uart.c ****     }
 834:Drivers/STM32F7xx_HAL_Driver/Src/stm32f7xx_hal_uart.c **** 
 835:Drivers/STM32F7xx_HAL_Driver/Src/stm32f7xx_hal_uart.c ****     /* At end of Rx process, restore huart->RxState to Ready */
 836:Drivers/STM32F7xx_HAL_Driver/Src/stm32f7xx_hal_uart.c ****     huart->RxState = HAL_UART_STATE_READY;
 837:Drivers/STM32F7xx_HAL_Driver/Src/stm32f7xx_hal_uart.c **** 
 838:Drivers/STM32F7xx_HAL_Driver/Src/stm32f7xx_hal_uart.c ****     /* Process Unlocked */
 839:Drivers/STM32F7xx_HAL_Driver/Src/stm32f7xx_hal_uart.c ****     __HAL_UNLOCK(huart);
 840:Drivers/STM32F7xx_HAL_Driver/Src/stm32f7xx_hal_uart.c **** 
 841:Drivers/STM32F7xx_HAL_Driver/Src/stm32f7xx_hal_uart.c ****     return HAL_OK;
 842:Drivers/STM32F7xx_HAL_Driver/Src/stm32f7xx_hal_uart.c ****   }
 843:Drivers/STM32F7xx_HAL_Driver/Src/stm32f7xx_hal_uart.c ****   else
 844:Drivers/STM32F7xx_HAL_Driver/Src/stm32f7xx_hal_uart.c ****   {
 845:Drivers/STM32F7xx_HAL_Driver/Src/stm32f7xx_hal_uart.c ****     return HAL_BUSY;
 846:Drivers/STM32F7xx_HAL_Driver/Src/stm32f7xx_hal_uart.c ****   }
 847:Drivers/STM32F7xx_HAL_Driver/Src/stm32f7xx_hal_uart.c **** }
 848:Drivers/STM32F7xx_HAL_Driver/Src/stm32f7xx_hal_uart.c **** 
 849:Drivers/STM32F7xx_HAL_Driver/Src/stm32f7xx_hal_uart.c **** /**
 850:Drivers/STM32F7xx_HAL_Driver/Src/stm32f7xx_hal_uart.c ****   * @brief Send an amount of data in interrupt mode.
 851:Drivers/STM32F7xx_HAL_Driver/Src/stm32f7xx_hal_uart.c ****   * @param huart UART handle.
 852:Drivers/STM32F7xx_HAL_Driver/Src/stm32f7xx_hal_uart.c ****   * @param pData pointer to data buffer.
 853:Drivers/STM32F7xx_HAL_Driver/Src/stm32f7xx_hal_uart.c ****   * @param Size amount of data to be sent.
 854:Drivers/STM32F7xx_HAL_Driver/Src/stm32f7xx_hal_uart.c ****   * @retval HAL status
 855:Drivers/STM32F7xx_HAL_Driver/Src/stm32f7xx_hal_uart.c ****   */
 856:Drivers/STM32F7xx_HAL_Driver/Src/stm32f7xx_hal_uart.c **** HAL_StatusTypeDef HAL_UART_Transmit_IT(UART_HandleTypeDef *huart, uint8_t *pData, uint16_t Size)
 857:Drivers/STM32F7xx_HAL_Driver/Src/stm32f7xx_hal_uart.c **** {
 858:Drivers/STM32F7xx_HAL_Driver/Src/stm32f7xx_hal_uart.c ****   /* Check that a Tx process is not already ongoing */
 859:Drivers/STM32F7xx_HAL_Driver/Src/stm32f7xx_hal_uart.c ****   if(huart->gState == HAL_UART_STATE_READY)
 860:Drivers/STM32F7xx_HAL_Driver/Src/stm32f7xx_hal_uart.c ****   {
 861:Drivers/STM32F7xx_HAL_Driver/Src/stm32f7xx_hal_uart.c ****     if((pData == NULL ) || (Size == 0U))
 862:Drivers/STM32F7xx_HAL_Driver/Src/stm32f7xx_hal_uart.c ****     {
 863:Drivers/STM32F7xx_HAL_Driver/Src/stm32f7xx_hal_uart.c ****       return HAL_ERROR;
 864:Drivers/STM32F7xx_HAL_Driver/Src/stm32f7xx_hal_uart.c ****     }
 865:Drivers/STM32F7xx_HAL_Driver/Src/stm32f7xx_hal_uart.c **** 
 866:Drivers/STM32F7xx_HAL_Driver/Src/stm32f7xx_hal_uart.c ****     /* Process Locked */
 867:Drivers/STM32F7xx_HAL_Driver/Src/stm32f7xx_hal_uart.c ****     __HAL_LOCK(huart);
 868:Drivers/STM32F7xx_HAL_Driver/Src/stm32f7xx_hal_uart.c **** 
 869:Drivers/STM32F7xx_HAL_Driver/Src/stm32f7xx_hal_uart.c ****     huart->pTxBuffPtr = pData;
 870:Drivers/STM32F7xx_HAL_Driver/Src/stm32f7xx_hal_uart.c ****     huart->TxXferSize = Size;
 871:Drivers/STM32F7xx_HAL_Driver/Src/stm32f7xx_hal_uart.c ****     huart->TxXferCount = Size;
 872:Drivers/STM32F7xx_HAL_Driver/Src/stm32f7xx_hal_uart.c **** 
 873:Drivers/STM32F7xx_HAL_Driver/Src/stm32f7xx_hal_uart.c ****     huart->ErrorCode = HAL_UART_ERROR_NONE;
 874:Drivers/STM32F7xx_HAL_Driver/Src/stm32f7xx_hal_uart.c ****     huart->gState = HAL_UART_STATE_BUSY_TX;
 875:Drivers/STM32F7xx_HAL_Driver/Src/stm32f7xx_hal_uart.c **** 
 876:Drivers/STM32F7xx_HAL_Driver/Src/stm32f7xx_hal_uart.c ****     /* Process Unlocked */
 877:Drivers/STM32F7xx_HAL_Driver/Src/stm32f7xx_hal_uart.c ****     __HAL_UNLOCK(huart);
 878:Drivers/STM32F7xx_HAL_Driver/Src/stm32f7xx_hal_uart.c **** 
 879:Drivers/STM32F7xx_HAL_Driver/Src/stm32f7xx_hal_uart.c ****     /* Enable the UART Transmit Data Register Empty Interrupt */
 880:Drivers/STM32F7xx_HAL_Driver/Src/stm32f7xx_hal_uart.c ****     SET_BIT(huart->Instance->CR1, USART_CR1_TXEIE);
 881:Drivers/STM32F7xx_HAL_Driver/Src/stm32f7xx_hal_uart.c **** 
 882:Drivers/STM32F7xx_HAL_Driver/Src/stm32f7xx_hal_uart.c ****     return HAL_OK;
 883:Drivers/STM32F7xx_HAL_Driver/Src/stm32f7xx_hal_uart.c ****   }
 884:Drivers/STM32F7xx_HAL_Driver/Src/stm32f7xx_hal_uart.c ****   else
 885:Drivers/STM32F7xx_HAL_Driver/Src/stm32f7xx_hal_uart.c ****   {
 886:Drivers/STM32F7xx_HAL_Driver/Src/stm32f7xx_hal_uart.c ****     return HAL_BUSY;
 887:Drivers/STM32F7xx_HAL_Driver/Src/stm32f7xx_hal_uart.c ****   }
ARM GAS  C:\Users\Student\AppData\Local\Temp\cc4Wk4r8.s 			page 17


 888:Drivers/STM32F7xx_HAL_Driver/Src/stm32f7xx_hal_uart.c **** }
 889:Drivers/STM32F7xx_HAL_Driver/Src/stm32f7xx_hal_uart.c **** 
 890:Drivers/STM32F7xx_HAL_Driver/Src/stm32f7xx_hal_uart.c **** /**
 891:Drivers/STM32F7xx_HAL_Driver/Src/stm32f7xx_hal_uart.c ****   * @brief Receive an amount of data in interrupt mode.
 892:Drivers/STM32F7xx_HAL_Driver/Src/stm32f7xx_hal_uart.c ****   * @param huart UART handle.
 893:Drivers/STM32F7xx_HAL_Driver/Src/stm32f7xx_hal_uart.c ****   * @param pData pointer to data buffer.
 894:Drivers/STM32F7xx_HAL_Driver/Src/stm32f7xx_hal_uart.c ****   * @param Size amount of data to be received.
 895:Drivers/STM32F7xx_HAL_Driver/Src/stm32f7xx_hal_uart.c ****   * @retval HAL status
 896:Drivers/STM32F7xx_HAL_Driver/Src/stm32f7xx_hal_uart.c ****   */
 897:Drivers/STM32F7xx_HAL_Driver/Src/stm32f7xx_hal_uart.c **** HAL_StatusTypeDef HAL_UART_Receive_IT(UART_HandleTypeDef *huart, uint8_t *pData, uint16_t Size)
 898:Drivers/STM32F7xx_HAL_Driver/Src/stm32f7xx_hal_uart.c **** {
 899:Drivers/STM32F7xx_HAL_Driver/Src/stm32f7xx_hal_uart.c ****   /* Check that a Rx process is not already ongoing */
 900:Drivers/STM32F7xx_HAL_Driver/Src/stm32f7xx_hal_uart.c ****   if(huart->RxState == HAL_UART_STATE_READY)
 901:Drivers/STM32F7xx_HAL_Driver/Src/stm32f7xx_hal_uart.c ****   {
 902:Drivers/STM32F7xx_HAL_Driver/Src/stm32f7xx_hal_uart.c ****     if((pData == NULL ) || (Size == 0U))
 903:Drivers/STM32F7xx_HAL_Driver/Src/stm32f7xx_hal_uart.c ****     {
 904:Drivers/STM32F7xx_HAL_Driver/Src/stm32f7xx_hal_uart.c ****       return HAL_ERROR;
 905:Drivers/STM32F7xx_HAL_Driver/Src/stm32f7xx_hal_uart.c ****     }
 906:Drivers/STM32F7xx_HAL_Driver/Src/stm32f7xx_hal_uart.c **** 
 907:Drivers/STM32F7xx_HAL_Driver/Src/stm32f7xx_hal_uart.c ****     /* Process Locked */
 908:Drivers/STM32F7xx_HAL_Driver/Src/stm32f7xx_hal_uart.c ****     __HAL_LOCK(huart);
 909:Drivers/STM32F7xx_HAL_Driver/Src/stm32f7xx_hal_uart.c **** 
 910:Drivers/STM32F7xx_HAL_Driver/Src/stm32f7xx_hal_uart.c ****     huart->pRxBuffPtr = pData;
 911:Drivers/STM32F7xx_HAL_Driver/Src/stm32f7xx_hal_uart.c ****     huart->RxXferSize = Size;
 912:Drivers/STM32F7xx_HAL_Driver/Src/stm32f7xx_hal_uart.c ****     huart->RxXferCount = Size;
 913:Drivers/STM32F7xx_HAL_Driver/Src/stm32f7xx_hal_uart.c **** 
 914:Drivers/STM32F7xx_HAL_Driver/Src/stm32f7xx_hal_uart.c ****     /* Computation of UART mask to apply to RDR register */
 915:Drivers/STM32F7xx_HAL_Driver/Src/stm32f7xx_hal_uart.c ****     UART_MASK_COMPUTATION(huart);
 916:Drivers/STM32F7xx_HAL_Driver/Src/stm32f7xx_hal_uart.c **** 
 917:Drivers/STM32F7xx_HAL_Driver/Src/stm32f7xx_hal_uart.c ****     huart->ErrorCode = HAL_UART_ERROR_NONE;
 918:Drivers/STM32F7xx_HAL_Driver/Src/stm32f7xx_hal_uart.c ****     huart->RxState = HAL_UART_STATE_BUSY_RX;
 919:Drivers/STM32F7xx_HAL_Driver/Src/stm32f7xx_hal_uart.c **** 
 920:Drivers/STM32F7xx_HAL_Driver/Src/stm32f7xx_hal_uart.c ****     /* Process Unlocked */
 921:Drivers/STM32F7xx_HAL_Driver/Src/stm32f7xx_hal_uart.c ****     __HAL_UNLOCK(huart);
 922:Drivers/STM32F7xx_HAL_Driver/Src/stm32f7xx_hal_uart.c **** 
 923:Drivers/STM32F7xx_HAL_Driver/Src/stm32f7xx_hal_uart.c ****     /* Enable the UART Error Interrupt: (Frame error, noise error, overrun error) */
 924:Drivers/STM32F7xx_HAL_Driver/Src/stm32f7xx_hal_uart.c ****     SET_BIT(huart->Instance->CR3, USART_CR3_EIE);
 925:Drivers/STM32F7xx_HAL_Driver/Src/stm32f7xx_hal_uart.c **** 
 926:Drivers/STM32F7xx_HAL_Driver/Src/stm32f7xx_hal_uart.c ****     /* Enable the UART Parity Error and Data Register not empty Interrupts */
 927:Drivers/STM32F7xx_HAL_Driver/Src/stm32f7xx_hal_uart.c ****     SET_BIT(huart->Instance->CR1, USART_CR1_PEIE | USART_CR1_RXNEIE);
 928:Drivers/STM32F7xx_HAL_Driver/Src/stm32f7xx_hal_uart.c **** 
 929:Drivers/STM32F7xx_HAL_Driver/Src/stm32f7xx_hal_uart.c ****     return HAL_OK;
 930:Drivers/STM32F7xx_HAL_Driver/Src/stm32f7xx_hal_uart.c ****   }
 931:Drivers/STM32F7xx_HAL_Driver/Src/stm32f7xx_hal_uart.c ****   else
 932:Drivers/STM32F7xx_HAL_Driver/Src/stm32f7xx_hal_uart.c ****   {
 933:Drivers/STM32F7xx_HAL_Driver/Src/stm32f7xx_hal_uart.c ****     return HAL_BUSY;
 934:Drivers/STM32F7xx_HAL_Driver/Src/stm32f7xx_hal_uart.c ****   }
 935:Drivers/STM32F7xx_HAL_Driver/Src/stm32f7xx_hal_uart.c **** }
 936:Drivers/STM32F7xx_HAL_Driver/Src/stm32f7xx_hal_uart.c **** 
 937:Drivers/STM32F7xx_HAL_Driver/Src/stm32f7xx_hal_uart.c **** /**
 938:Drivers/STM32F7xx_HAL_Driver/Src/stm32f7xx_hal_uart.c ****   * @brief Send an amount of data in DMA mode.
 939:Drivers/STM32F7xx_HAL_Driver/Src/stm32f7xx_hal_uart.c ****   * @param huart UART handle.
 940:Drivers/STM32F7xx_HAL_Driver/Src/stm32f7xx_hal_uart.c ****   * @param pData pointer to data buffer.
 941:Drivers/STM32F7xx_HAL_Driver/Src/stm32f7xx_hal_uart.c ****   * @param Size amount of data to be sent.
 942:Drivers/STM32F7xx_HAL_Driver/Src/stm32f7xx_hal_uart.c ****   * @retval HAL status
 943:Drivers/STM32F7xx_HAL_Driver/Src/stm32f7xx_hal_uart.c ****   */
 944:Drivers/STM32F7xx_HAL_Driver/Src/stm32f7xx_hal_uart.c **** HAL_StatusTypeDef HAL_UART_Transmit_DMA(UART_HandleTypeDef *huart, uint8_t *pData, uint16_t Size)
ARM GAS  C:\Users\Student\AppData\Local\Temp\cc4Wk4r8.s 			page 18


 945:Drivers/STM32F7xx_HAL_Driver/Src/stm32f7xx_hal_uart.c **** {
 946:Drivers/STM32F7xx_HAL_Driver/Src/stm32f7xx_hal_uart.c ****   uint32_t *tmp;
 947:Drivers/STM32F7xx_HAL_Driver/Src/stm32f7xx_hal_uart.c **** 
 948:Drivers/STM32F7xx_HAL_Driver/Src/stm32f7xx_hal_uart.c ****   /* Check that a Tx process is not already ongoing */
 949:Drivers/STM32F7xx_HAL_Driver/Src/stm32f7xx_hal_uart.c ****   if(huart->gState == HAL_UART_STATE_READY)
 950:Drivers/STM32F7xx_HAL_Driver/Src/stm32f7xx_hal_uart.c ****   {
 951:Drivers/STM32F7xx_HAL_Driver/Src/stm32f7xx_hal_uart.c ****     if((pData == NULL ) || (Size == 0U))
 952:Drivers/STM32F7xx_HAL_Driver/Src/stm32f7xx_hal_uart.c ****     {
 953:Drivers/STM32F7xx_HAL_Driver/Src/stm32f7xx_hal_uart.c ****       return HAL_ERROR;
 954:Drivers/STM32F7xx_HAL_Driver/Src/stm32f7xx_hal_uart.c ****     }
 955:Drivers/STM32F7xx_HAL_Driver/Src/stm32f7xx_hal_uart.c **** 
 956:Drivers/STM32F7xx_HAL_Driver/Src/stm32f7xx_hal_uart.c ****     /* Process Locked */
 957:Drivers/STM32F7xx_HAL_Driver/Src/stm32f7xx_hal_uart.c ****     __HAL_LOCK(huart);
 958:Drivers/STM32F7xx_HAL_Driver/Src/stm32f7xx_hal_uart.c **** 
 959:Drivers/STM32F7xx_HAL_Driver/Src/stm32f7xx_hal_uart.c ****     huart->pTxBuffPtr = pData;
 960:Drivers/STM32F7xx_HAL_Driver/Src/stm32f7xx_hal_uart.c ****     huart->TxXferSize = Size;
 961:Drivers/STM32F7xx_HAL_Driver/Src/stm32f7xx_hal_uart.c ****     huart->TxXferCount = Size;
 962:Drivers/STM32F7xx_HAL_Driver/Src/stm32f7xx_hal_uart.c **** 
 963:Drivers/STM32F7xx_HAL_Driver/Src/stm32f7xx_hal_uart.c ****     huart->ErrorCode = HAL_UART_ERROR_NONE;
 964:Drivers/STM32F7xx_HAL_Driver/Src/stm32f7xx_hal_uart.c ****     huart->gState = HAL_UART_STATE_BUSY_TX;
 965:Drivers/STM32F7xx_HAL_Driver/Src/stm32f7xx_hal_uart.c **** 
 966:Drivers/STM32F7xx_HAL_Driver/Src/stm32f7xx_hal_uart.c ****     /* Set the UART DMA transfer complete callback */
 967:Drivers/STM32F7xx_HAL_Driver/Src/stm32f7xx_hal_uart.c ****     huart->hdmatx->XferCpltCallback = UART_DMATransmitCplt;
 968:Drivers/STM32F7xx_HAL_Driver/Src/stm32f7xx_hal_uart.c **** 
 969:Drivers/STM32F7xx_HAL_Driver/Src/stm32f7xx_hal_uart.c ****     /* Set the UART DMA Half transfer complete callback */
 970:Drivers/STM32F7xx_HAL_Driver/Src/stm32f7xx_hal_uart.c ****     huart->hdmatx->XferHalfCpltCallback = UART_DMATxHalfCplt;
 971:Drivers/STM32F7xx_HAL_Driver/Src/stm32f7xx_hal_uart.c **** 
 972:Drivers/STM32F7xx_HAL_Driver/Src/stm32f7xx_hal_uart.c ****     /* Set the DMA error callback */
 973:Drivers/STM32F7xx_HAL_Driver/Src/stm32f7xx_hal_uart.c ****     huart->hdmatx->XferErrorCallback = UART_DMAError;
 974:Drivers/STM32F7xx_HAL_Driver/Src/stm32f7xx_hal_uart.c **** 
 975:Drivers/STM32F7xx_HAL_Driver/Src/stm32f7xx_hal_uart.c ****     /* Set the DMA abort callback */
 976:Drivers/STM32F7xx_HAL_Driver/Src/stm32f7xx_hal_uart.c ****     huart->hdmatx->XferAbortCallback = NULL;
 977:Drivers/STM32F7xx_HAL_Driver/Src/stm32f7xx_hal_uart.c **** 
 978:Drivers/STM32F7xx_HAL_Driver/Src/stm32f7xx_hal_uart.c ****     /* Enable the UART transmit DMA channel */
 979:Drivers/STM32F7xx_HAL_Driver/Src/stm32f7xx_hal_uart.c ****     tmp = (uint32_t*)&pData;
 980:Drivers/STM32F7xx_HAL_Driver/Src/stm32f7xx_hal_uart.c ****     HAL_DMA_Start_IT(huart->hdmatx, *(uint32_t*)tmp, (uint32_t)&huart->Instance->TDR, Size);
 981:Drivers/STM32F7xx_HAL_Driver/Src/stm32f7xx_hal_uart.c **** 
 982:Drivers/STM32F7xx_HAL_Driver/Src/stm32f7xx_hal_uart.c ****     /* Clear the TC flag in the SR register by writing 0 to it */
 983:Drivers/STM32F7xx_HAL_Driver/Src/stm32f7xx_hal_uart.c ****     __HAL_UART_CLEAR_IT(huart, UART_FLAG_TC);
 984:Drivers/STM32F7xx_HAL_Driver/Src/stm32f7xx_hal_uart.c **** 
 985:Drivers/STM32F7xx_HAL_Driver/Src/stm32f7xx_hal_uart.c ****     /* Process Unlocked */
 986:Drivers/STM32F7xx_HAL_Driver/Src/stm32f7xx_hal_uart.c ****     __HAL_UNLOCK(huart);
 987:Drivers/STM32F7xx_HAL_Driver/Src/stm32f7xx_hal_uart.c **** 
 988:Drivers/STM32F7xx_HAL_Driver/Src/stm32f7xx_hal_uart.c ****     /* Enable the DMA transfer for transmit request by setting the DMAT bit
 989:Drivers/STM32F7xx_HAL_Driver/Src/stm32f7xx_hal_uart.c ****        in the UART CR3 register */
 990:Drivers/STM32F7xx_HAL_Driver/Src/stm32f7xx_hal_uart.c ****     SET_BIT(huart->Instance->CR3, USART_CR3_DMAT);
 991:Drivers/STM32F7xx_HAL_Driver/Src/stm32f7xx_hal_uart.c **** 
 992:Drivers/STM32F7xx_HAL_Driver/Src/stm32f7xx_hal_uart.c ****     return HAL_OK;
 993:Drivers/STM32F7xx_HAL_Driver/Src/stm32f7xx_hal_uart.c ****   }
 994:Drivers/STM32F7xx_HAL_Driver/Src/stm32f7xx_hal_uart.c ****   else
 995:Drivers/STM32F7xx_HAL_Driver/Src/stm32f7xx_hal_uart.c ****   {
 996:Drivers/STM32F7xx_HAL_Driver/Src/stm32f7xx_hal_uart.c ****     return HAL_BUSY;
 997:Drivers/STM32F7xx_HAL_Driver/Src/stm32f7xx_hal_uart.c ****   }
 998:Drivers/STM32F7xx_HAL_Driver/Src/stm32f7xx_hal_uart.c **** }
 999:Drivers/STM32F7xx_HAL_Driver/Src/stm32f7xx_hal_uart.c **** 
1000:Drivers/STM32F7xx_HAL_Driver/Src/stm32f7xx_hal_uart.c **** /**
1001:Drivers/STM32F7xx_HAL_Driver/Src/stm32f7xx_hal_uart.c ****   * @brief Receive an amount of data in DMA mode.
ARM GAS  C:\Users\Student\AppData\Local\Temp\cc4Wk4r8.s 			page 19


1002:Drivers/STM32F7xx_HAL_Driver/Src/stm32f7xx_hal_uart.c ****   * @param huart UART handle.
1003:Drivers/STM32F7xx_HAL_Driver/Src/stm32f7xx_hal_uart.c ****   * @param pData pointer to data buffer.
1004:Drivers/STM32F7xx_HAL_Driver/Src/stm32f7xx_hal_uart.c ****   * @param Size amount of data to be received.
1005:Drivers/STM32F7xx_HAL_Driver/Src/stm32f7xx_hal_uart.c ****   * @note   When the UART parity is enabled (PCE = 1), the received data contain
1006:Drivers/STM32F7xx_HAL_Driver/Src/stm32f7xx_hal_uart.c ****   *         the parity bit (MSB position).
1007:Drivers/STM32F7xx_HAL_Driver/Src/stm32f7xx_hal_uart.c ****   * @retval HAL status
1008:Drivers/STM32F7xx_HAL_Driver/Src/stm32f7xx_hal_uart.c ****   */
1009:Drivers/STM32F7xx_HAL_Driver/Src/stm32f7xx_hal_uart.c **** HAL_StatusTypeDef HAL_UART_Receive_DMA(UART_HandleTypeDef *huart, uint8_t *pData, uint16_t Size)
1010:Drivers/STM32F7xx_HAL_Driver/Src/stm32f7xx_hal_uart.c **** {
1011:Drivers/STM32F7xx_HAL_Driver/Src/stm32f7xx_hal_uart.c ****   uint32_t *tmp;
1012:Drivers/STM32F7xx_HAL_Driver/Src/stm32f7xx_hal_uart.c **** 
1013:Drivers/STM32F7xx_HAL_Driver/Src/stm32f7xx_hal_uart.c ****   /* Check that a Rx process is not already ongoing */
1014:Drivers/STM32F7xx_HAL_Driver/Src/stm32f7xx_hal_uart.c ****   if(huart->RxState == HAL_UART_STATE_READY)
1015:Drivers/STM32F7xx_HAL_Driver/Src/stm32f7xx_hal_uart.c ****   {
1016:Drivers/STM32F7xx_HAL_Driver/Src/stm32f7xx_hal_uart.c ****     if((pData == NULL ) || (Size == 0U))
1017:Drivers/STM32F7xx_HAL_Driver/Src/stm32f7xx_hal_uart.c ****     {
1018:Drivers/STM32F7xx_HAL_Driver/Src/stm32f7xx_hal_uart.c ****       return HAL_ERROR;
1019:Drivers/STM32F7xx_HAL_Driver/Src/stm32f7xx_hal_uart.c ****     }
1020:Drivers/STM32F7xx_HAL_Driver/Src/stm32f7xx_hal_uart.c **** 
1021:Drivers/STM32F7xx_HAL_Driver/Src/stm32f7xx_hal_uart.c ****     /* Process Locked */
1022:Drivers/STM32F7xx_HAL_Driver/Src/stm32f7xx_hal_uart.c ****     __HAL_LOCK(huart);
1023:Drivers/STM32F7xx_HAL_Driver/Src/stm32f7xx_hal_uart.c **** 
1024:Drivers/STM32F7xx_HAL_Driver/Src/stm32f7xx_hal_uart.c ****     huart->pRxBuffPtr = pData;
1025:Drivers/STM32F7xx_HAL_Driver/Src/stm32f7xx_hal_uart.c ****     huart->RxXferSize = Size;
1026:Drivers/STM32F7xx_HAL_Driver/Src/stm32f7xx_hal_uart.c **** 
1027:Drivers/STM32F7xx_HAL_Driver/Src/stm32f7xx_hal_uart.c ****     huart->ErrorCode = HAL_UART_ERROR_NONE;
1028:Drivers/STM32F7xx_HAL_Driver/Src/stm32f7xx_hal_uart.c ****     huart->RxState = HAL_UART_STATE_BUSY_RX;
1029:Drivers/STM32F7xx_HAL_Driver/Src/stm32f7xx_hal_uart.c **** 
1030:Drivers/STM32F7xx_HAL_Driver/Src/stm32f7xx_hal_uart.c ****     /* Set the UART DMA transfer complete callback */
1031:Drivers/STM32F7xx_HAL_Driver/Src/stm32f7xx_hal_uart.c ****     huart->hdmarx->XferCpltCallback = UART_DMAReceiveCplt;
1032:Drivers/STM32F7xx_HAL_Driver/Src/stm32f7xx_hal_uart.c **** 
1033:Drivers/STM32F7xx_HAL_Driver/Src/stm32f7xx_hal_uart.c ****     /* Set the UART DMA Half transfer complete callback */
1034:Drivers/STM32F7xx_HAL_Driver/Src/stm32f7xx_hal_uart.c ****     huart->hdmarx->XferHalfCpltCallback = UART_DMARxHalfCplt;
1035:Drivers/STM32F7xx_HAL_Driver/Src/stm32f7xx_hal_uart.c **** 
1036:Drivers/STM32F7xx_HAL_Driver/Src/stm32f7xx_hal_uart.c ****     /* Set the DMA error callback */
1037:Drivers/STM32F7xx_HAL_Driver/Src/stm32f7xx_hal_uart.c ****     huart->hdmarx->XferErrorCallback = UART_DMAError;
1038:Drivers/STM32F7xx_HAL_Driver/Src/stm32f7xx_hal_uart.c **** 
1039:Drivers/STM32F7xx_HAL_Driver/Src/stm32f7xx_hal_uart.c ****     /* Set the DMA abort callback */
1040:Drivers/STM32F7xx_HAL_Driver/Src/stm32f7xx_hal_uart.c ****     huart->hdmarx->XferAbortCallback = NULL;
1041:Drivers/STM32F7xx_HAL_Driver/Src/stm32f7xx_hal_uart.c **** 
1042:Drivers/STM32F7xx_HAL_Driver/Src/stm32f7xx_hal_uart.c ****     /* Enable the DMA channel */
1043:Drivers/STM32F7xx_HAL_Driver/Src/stm32f7xx_hal_uart.c ****     tmp = (uint32_t*)&pData;
1044:Drivers/STM32F7xx_HAL_Driver/Src/stm32f7xx_hal_uart.c ****     HAL_DMA_Start_IT(huart->hdmarx, (uint32_t)&huart->Instance->RDR, *(uint32_t*)tmp, Size);
1045:Drivers/STM32F7xx_HAL_Driver/Src/stm32f7xx_hal_uart.c **** 
1046:Drivers/STM32F7xx_HAL_Driver/Src/stm32f7xx_hal_uart.c ****     /* Process Unlocked */
1047:Drivers/STM32F7xx_HAL_Driver/Src/stm32f7xx_hal_uart.c ****     __HAL_UNLOCK(huart);
1048:Drivers/STM32F7xx_HAL_Driver/Src/stm32f7xx_hal_uart.c **** 
1049:Drivers/STM32F7xx_HAL_Driver/Src/stm32f7xx_hal_uart.c ****     /* Enable the UART Parity Error Interrupt */
1050:Drivers/STM32F7xx_HAL_Driver/Src/stm32f7xx_hal_uart.c ****     SET_BIT(huart->Instance->CR1, USART_CR1_PEIE);
1051:Drivers/STM32F7xx_HAL_Driver/Src/stm32f7xx_hal_uart.c **** 
1052:Drivers/STM32F7xx_HAL_Driver/Src/stm32f7xx_hal_uart.c ****     /* Enable the UART Error Interrupt: (Frame error, noise error, overrun error) */
1053:Drivers/STM32F7xx_HAL_Driver/Src/stm32f7xx_hal_uart.c ****     SET_BIT(huart->Instance->CR3, USART_CR3_EIE);
1054:Drivers/STM32F7xx_HAL_Driver/Src/stm32f7xx_hal_uart.c **** 
1055:Drivers/STM32F7xx_HAL_Driver/Src/stm32f7xx_hal_uart.c ****     /* Enable the DMA transfer for the receiver request by setting the DMAR bit
1056:Drivers/STM32F7xx_HAL_Driver/Src/stm32f7xx_hal_uart.c ****     in the UART CR3 register */
1057:Drivers/STM32F7xx_HAL_Driver/Src/stm32f7xx_hal_uart.c ****     SET_BIT(huart->Instance->CR3, USART_CR3_DMAR);
1058:Drivers/STM32F7xx_HAL_Driver/Src/stm32f7xx_hal_uart.c **** 
ARM GAS  C:\Users\Student\AppData\Local\Temp\cc4Wk4r8.s 			page 20


1059:Drivers/STM32F7xx_HAL_Driver/Src/stm32f7xx_hal_uart.c ****     return HAL_OK;
1060:Drivers/STM32F7xx_HAL_Driver/Src/stm32f7xx_hal_uart.c ****   }
1061:Drivers/STM32F7xx_HAL_Driver/Src/stm32f7xx_hal_uart.c ****   else
1062:Drivers/STM32F7xx_HAL_Driver/Src/stm32f7xx_hal_uart.c ****   {
1063:Drivers/STM32F7xx_HAL_Driver/Src/stm32f7xx_hal_uart.c ****     return HAL_BUSY;
1064:Drivers/STM32F7xx_HAL_Driver/Src/stm32f7xx_hal_uart.c ****   }
1065:Drivers/STM32F7xx_HAL_Driver/Src/stm32f7xx_hal_uart.c **** }
1066:Drivers/STM32F7xx_HAL_Driver/Src/stm32f7xx_hal_uart.c **** 
1067:Drivers/STM32F7xx_HAL_Driver/Src/stm32f7xx_hal_uart.c **** /**
1068:Drivers/STM32F7xx_HAL_Driver/Src/stm32f7xx_hal_uart.c ****   * @brief Pause the DMA Transfer.
1069:Drivers/STM32F7xx_HAL_Driver/Src/stm32f7xx_hal_uart.c ****   * @param huart UART handle.
1070:Drivers/STM32F7xx_HAL_Driver/Src/stm32f7xx_hal_uart.c ****   * @retval HAL status
1071:Drivers/STM32F7xx_HAL_Driver/Src/stm32f7xx_hal_uart.c ****   */
1072:Drivers/STM32F7xx_HAL_Driver/Src/stm32f7xx_hal_uart.c **** HAL_StatusTypeDef HAL_UART_DMAPause(UART_HandleTypeDef *huart)
1073:Drivers/STM32F7xx_HAL_Driver/Src/stm32f7xx_hal_uart.c **** {
1074:Drivers/STM32F7xx_HAL_Driver/Src/stm32f7xx_hal_uart.c ****   /* Process Locked */
1075:Drivers/STM32F7xx_HAL_Driver/Src/stm32f7xx_hal_uart.c ****   __HAL_LOCK(huart);
1076:Drivers/STM32F7xx_HAL_Driver/Src/stm32f7xx_hal_uart.c **** 
1077:Drivers/STM32F7xx_HAL_Driver/Src/stm32f7xx_hal_uart.c ****   if ((huart->gState == HAL_UART_STATE_BUSY_TX) &&
1078:Drivers/STM32F7xx_HAL_Driver/Src/stm32f7xx_hal_uart.c ****       (HAL_IS_BIT_SET(huart->Instance->CR3, USART_CR3_DMAT)))
1079:Drivers/STM32F7xx_HAL_Driver/Src/stm32f7xx_hal_uart.c ****   {
1080:Drivers/STM32F7xx_HAL_Driver/Src/stm32f7xx_hal_uart.c ****     /* Disable the UART DMA Tx request */
1081:Drivers/STM32F7xx_HAL_Driver/Src/stm32f7xx_hal_uart.c ****     CLEAR_BIT(huart->Instance->CR3, USART_CR3_DMAT);
1082:Drivers/STM32F7xx_HAL_Driver/Src/stm32f7xx_hal_uart.c ****   }
1083:Drivers/STM32F7xx_HAL_Driver/Src/stm32f7xx_hal_uart.c ****   if ((huart->RxState == HAL_UART_STATE_BUSY_RX) &&
1084:Drivers/STM32F7xx_HAL_Driver/Src/stm32f7xx_hal_uart.c ****       (HAL_IS_BIT_SET(huart->Instance->CR3, USART_CR3_DMAR)))
1085:Drivers/STM32F7xx_HAL_Driver/Src/stm32f7xx_hal_uart.c ****   {
1086:Drivers/STM32F7xx_HAL_Driver/Src/stm32f7xx_hal_uart.c ****     /* Disable PE and ERR (Frame error, noise error, overrun error) interrupts */
1087:Drivers/STM32F7xx_HAL_Driver/Src/stm32f7xx_hal_uart.c ****     CLEAR_BIT(huart->Instance->CR1, USART_CR1_PEIE);
1088:Drivers/STM32F7xx_HAL_Driver/Src/stm32f7xx_hal_uart.c ****     CLEAR_BIT(huart->Instance->CR3, USART_CR3_EIE);
1089:Drivers/STM32F7xx_HAL_Driver/Src/stm32f7xx_hal_uart.c **** 
1090:Drivers/STM32F7xx_HAL_Driver/Src/stm32f7xx_hal_uart.c ****     /* Disable the UART DMA Rx request */
1091:Drivers/STM32F7xx_HAL_Driver/Src/stm32f7xx_hal_uart.c ****     CLEAR_BIT(huart->Instance->CR3, USART_CR3_DMAR);
1092:Drivers/STM32F7xx_HAL_Driver/Src/stm32f7xx_hal_uart.c ****   }
1093:Drivers/STM32F7xx_HAL_Driver/Src/stm32f7xx_hal_uart.c **** 
1094:Drivers/STM32F7xx_HAL_Driver/Src/stm32f7xx_hal_uart.c ****   /* Process Unlocked */
1095:Drivers/STM32F7xx_HAL_Driver/Src/stm32f7xx_hal_uart.c ****   __HAL_UNLOCK(huart);
1096:Drivers/STM32F7xx_HAL_Driver/Src/stm32f7xx_hal_uart.c **** 
1097:Drivers/STM32F7xx_HAL_Driver/Src/stm32f7xx_hal_uart.c ****   return HAL_OK;
1098:Drivers/STM32F7xx_HAL_Driver/Src/stm32f7xx_hal_uart.c **** }
1099:Drivers/STM32F7xx_HAL_Driver/Src/stm32f7xx_hal_uart.c **** 
1100:Drivers/STM32F7xx_HAL_Driver/Src/stm32f7xx_hal_uart.c **** /**
1101:Drivers/STM32F7xx_HAL_Driver/Src/stm32f7xx_hal_uart.c ****   * @brief Resume the DMA Transfer.
1102:Drivers/STM32F7xx_HAL_Driver/Src/stm32f7xx_hal_uart.c ****   * @param huart UART handle.
1103:Drivers/STM32F7xx_HAL_Driver/Src/stm32f7xx_hal_uart.c ****   * @retval HAL status
1104:Drivers/STM32F7xx_HAL_Driver/Src/stm32f7xx_hal_uart.c ****   */
1105:Drivers/STM32F7xx_HAL_Driver/Src/stm32f7xx_hal_uart.c **** HAL_StatusTypeDef HAL_UART_DMAResume(UART_HandleTypeDef *huart)
1106:Drivers/STM32F7xx_HAL_Driver/Src/stm32f7xx_hal_uart.c **** {
1107:Drivers/STM32F7xx_HAL_Driver/Src/stm32f7xx_hal_uart.c ****   /* Process Locked */
1108:Drivers/STM32F7xx_HAL_Driver/Src/stm32f7xx_hal_uart.c ****   __HAL_LOCK(huart);
1109:Drivers/STM32F7xx_HAL_Driver/Src/stm32f7xx_hal_uart.c **** 
1110:Drivers/STM32F7xx_HAL_Driver/Src/stm32f7xx_hal_uart.c ****   if(huart->gState == HAL_UART_STATE_BUSY_TX)
1111:Drivers/STM32F7xx_HAL_Driver/Src/stm32f7xx_hal_uart.c ****   {
1112:Drivers/STM32F7xx_HAL_Driver/Src/stm32f7xx_hal_uart.c ****     /* Enable the UART DMA Tx request */
1113:Drivers/STM32F7xx_HAL_Driver/Src/stm32f7xx_hal_uart.c ****     SET_BIT(huart->Instance->CR3, USART_CR3_DMAT);
1114:Drivers/STM32F7xx_HAL_Driver/Src/stm32f7xx_hal_uart.c ****   }
1115:Drivers/STM32F7xx_HAL_Driver/Src/stm32f7xx_hal_uart.c ****   if(huart->RxState == HAL_UART_STATE_BUSY_RX)
ARM GAS  C:\Users\Student\AppData\Local\Temp\cc4Wk4r8.s 			page 21


1116:Drivers/STM32F7xx_HAL_Driver/Src/stm32f7xx_hal_uart.c ****   {
1117:Drivers/STM32F7xx_HAL_Driver/Src/stm32f7xx_hal_uart.c ****     /* Clear the Overrun flag before resuming the Rx transfer*/
1118:Drivers/STM32F7xx_HAL_Driver/Src/stm32f7xx_hal_uart.c ****     __HAL_UART_CLEAR_IT(huart, UART_CLEAR_OREF);
1119:Drivers/STM32F7xx_HAL_Driver/Src/stm32f7xx_hal_uart.c **** 
1120:Drivers/STM32F7xx_HAL_Driver/Src/stm32f7xx_hal_uart.c ****     /* Reenable PE and ERR (Frame error, noise error, overrun error) interrupts */
1121:Drivers/STM32F7xx_HAL_Driver/Src/stm32f7xx_hal_uart.c ****     SET_BIT(huart->Instance->CR1, USART_CR1_PEIE);
1122:Drivers/STM32F7xx_HAL_Driver/Src/stm32f7xx_hal_uart.c ****     SET_BIT(huart->Instance->CR3, USART_CR3_EIE);
1123:Drivers/STM32F7xx_HAL_Driver/Src/stm32f7xx_hal_uart.c **** 
1124:Drivers/STM32F7xx_HAL_Driver/Src/stm32f7xx_hal_uart.c ****     /* Enable the UART DMA Rx request */
1125:Drivers/STM32F7xx_HAL_Driver/Src/stm32f7xx_hal_uart.c ****     SET_BIT(huart->Instance->CR3, USART_CR3_DMAR);
1126:Drivers/STM32F7xx_HAL_Driver/Src/stm32f7xx_hal_uart.c ****   }
1127:Drivers/STM32F7xx_HAL_Driver/Src/stm32f7xx_hal_uart.c **** 
1128:Drivers/STM32F7xx_HAL_Driver/Src/stm32f7xx_hal_uart.c ****   /* If the UART peripheral is still not enabled, enable it */
1129:Drivers/STM32F7xx_HAL_Driver/Src/stm32f7xx_hal_uart.c ****   if ((huart->Instance->CR1 & USART_CR1_UE) == 0U)
1130:Drivers/STM32F7xx_HAL_Driver/Src/stm32f7xx_hal_uart.c ****   {
1131:Drivers/STM32F7xx_HAL_Driver/Src/stm32f7xx_hal_uart.c ****     /* Enable UART peripheral */
1132:Drivers/STM32F7xx_HAL_Driver/Src/stm32f7xx_hal_uart.c ****     __HAL_UART_ENABLE(huart);
1133:Drivers/STM32F7xx_HAL_Driver/Src/stm32f7xx_hal_uart.c ****   }
1134:Drivers/STM32F7xx_HAL_Driver/Src/stm32f7xx_hal_uart.c **** 
1135:Drivers/STM32F7xx_HAL_Driver/Src/stm32f7xx_hal_uart.c ****   return HAL_OK;
1136:Drivers/STM32F7xx_HAL_Driver/Src/stm32f7xx_hal_uart.c **** }
1137:Drivers/STM32F7xx_HAL_Driver/Src/stm32f7xx_hal_uart.c **** 
1138:Drivers/STM32F7xx_HAL_Driver/Src/stm32f7xx_hal_uart.c **** /**
1139:Drivers/STM32F7xx_HAL_Driver/Src/stm32f7xx_hal_uart.c ****   * @brief Stop the DMA Transfer.
1140:Drivers/STM32F7xx_HAL_Driver/Src/stm32f7xx_hal_uart.c ****   * @param huart UART handle.
1141:Drivers/STM32F7xx_HAL_Driver/Src/stm32f7xx_hal_uart.c ****   * @retval HAL status
1142:Drivers/STM32F7xx_HAL_Driver/Src/stm32f7xx_hal_uart.c ****   */
1143:Drivers/STM32F7xx_HAL_Driver/Src/stm32f7xx_hal_uart.c **** HAL_StatusTypeDef HAL_UART_DMAStop(UART_HandleTypeDef *huart)
1144:Drivers/STM32F7xx_HAL_Driver/Src/stm32f7xx_hal_uart.c **** {
1145:Drivers/STM32F7xx_HAL_Driver/Src/stm32f7xx_hal_uart.c ****   /* The Lock is not implemented on this API to allow the user application
1146:Drivers/STM32F7xx_HAL_Driver/Src/stm32f7xx_hal_uart.c ****      to call the HAL UART API under callbacks HAL_UART_TxCpltCallback() / HAL_UART_RxCpltCallback()
1147:Drivers/STM32F7xx_HAL_Driver/Src/stm32f7xx_hal_uart.c ****      HAL_UART_TxHalfCpltCallback / HAL_UART_RxHalfCpltCallback:
1148:Drivers/STM32F7xx_HAL_Driver/Src/stm32f7xx_hal_uart.c ****      indeed, when HAL_DMA_Abort() API is called, the DMA TX/RX Transfer or Half Transfer complete
1149:Drivers/STM32F7xx_HAL_Driver/Src/stm32f7xx_hal_uart.c ****      interrupt is generated if the DMA transfer interruption occurs at the middle or at the end of
1150:Drivers/STM32F7xx_HAL_Driver/Src/stm32f7xx_hal_uart.c ****      the stream and the corresponding call back is executed. */
1151:Drivers/STM32F7xx_HAL_Driver/Src/stm32f7xx_hal_uart.c **** 
1152:Drivers/STM32F7xx_HAL_Driver/Src/stm32f7xx_hal_uart.c ****   /* Stop UART DMA Tx request if ongoing */
1153:Drivers/STM32F7xx_HAL_Driver/Src/stm32f7xx_hal_uart.c ****   if ((huart->gState == HAL_UART_STATE_BUSY_TX) &&
1154:Drivers/STM32F7xx_HAL_Driver/Src/stm32f7xx_hal_uart.c ****       (HAL_IS_BIT_SET(huart->Instance->CR3, USART_CR3_DMAT)))
1155:Drivers/STM32F7xx_HAL_Driver/Src/stm32f7xx_hal_uart.c ****   {
1156:Drivers/STM32F7xx_HAL_Driver/Src/stm32f7xx_hal_uart.c ****     CLEAR_BIT(huart->Instance->CR3, USART_CR3_DMAT);
1157:Drivers/STM32F7xx_HAL_Driver/Src/stm32f7xx_hal_uart.c **** 
1158:Drivers/STM32F7xx_HAL_Driver/Src/stm32f7xx_hal_uart.c ****     /* Abort the UART DMA Tx channel */
1159:Drivers/STM32F7xx_HAL_Driver/Src/stm32f7xx_hal_uart.c ****     if(huart->hdmatx != NULL)
1160:Drivers/STM32F7xx_HAL_Driver/Src/stm32f7xx_hal_uart.c ****     {
1161:Drivers/STM32F7xx_HAL_Driver/Src/stm32f7xx_hal_uart.c ****       HAL_DMA_Abort(huart->hdmatx);
1162:Drivers/STM32F7xx_HAL_Driver/Src/stm32f7xx_hal_uart.c ****     }
1163:Drivers/STM32F7xx_HAL_Driver/Src/stm32f7xx_hal_uart.c **** 
1164:Drivers/STM32F7xx_HAL_Driver/Src/stm32f7xx_hal_uart.c ****     UART_EndTxTransfer(huart);
1165:Drivers/STM32F7xx_HAL_Driver/Src/stm32f7xx_hal_uart.c ****   }
1166:Drivers/STM32F7xx_HAL_Driver/Src/stm32f7xx_hal_uart.c **** 
1167:Drivers/STM32F7xx_HAL_Driver/Src/stm32f7xx_hal_uart.c ****   /* Stop UART DMA Rx request if ongoing */
1168:Drivers/STM32F7xx_HAL_Driver/Src/stm32f7xx_hal_uart.c ****   if ((huart->RxState == HAL_UART_STATE_BUSY_RX) &&
1169:Drivers/STM32F7xx_HAL_Driver/Src/stm32f7xx_hal_uart.c ****       (HAL_IS_BIT_SET(huart->Instance->CR3, USART_CR3_DMAR)))
1170:Drivers/STM32F7xx_HAL_Driver/Src/stm32f7xx_hal_uart.c ****   {
1171:Drivers/STM32F7xx_HAL_Driver/Src/stm32f7xx_hal_uart.c ****     CLEAR_BIT(huart->Instance->CR3, USART_CR3_DMAR);
1172:Drivers/STM32F7xx_HAL_Driver/Src/stm32f7xx_hal_uart.c **** 
ARM GAS  C:\Users\Student\AppData\Local\Temp\cc4Wk4r8.s 			page 22


1173:Drivers/STM32F7xx_HAL_Driver/Src/stm32f7xx_hal_uart.c ****     /* Abort the UART DMA Rx channel */
1174:Drivers/STM32F7xx_HAL_Driver/Src/stm32f7xx_hal_uart.c ****     if(huart->hdmarx != NULL)
1175:Drivers/STM32F7xx_HAL_Driver/Src/stm32f7xx_hal_uart.c ****     {
1176:Drivers/STM32F7xx_HAL_Driver/Src/stm32f7xx_hal_uart.c ****       HAL_DMA_Abort(huart->hdmarx);
1177:Drivers/STM32F7xx_HAL_Driver/Src/stm32f7xx_hal_uart.c ****     }
1178:Drivers/STM32F7xx_HAL_Driver/Src/stm32f7xx_hal_uart.c **** 
1179:Drivers/STM32F7xx_HAL_Driver/Src/stm32f7xx_hal_uart.c ****     UART_EndRxTransfer(huart);
1180:Drivers/STM32F7xx_HAL_Driver/Src/stm32f7xx_hal_uart.c ****   }
1181:Drivers/STM32F7xx_HAL_Driver/Src/stm32f7xx_hal_uart.c **** 
1182:Drivers/STM32F7xx_HAL_Driver/Src/stm32f7xx_hal_uart.c ****   return HAL_OK;
1183:Drivers/STM32F7xx_HAL_Driver/Src/stm32f7xx_hal_uart.c **** }
1184:Drivers/STM32F7xx_HAL_Driver/Src/stm32f7xx_hal_uart.c **** 
1185:Drivers/STM32F7xx_HAL_Driver/Src/stm32f7xx_hal_uart.c **** /**
1186:Drivers/STM32F7xx_HAL_Driver/Src/stm32f7xx_hal_uart.c ****   * @brief This function handles UART interrupt request.
1187:Drivers/STM32F7xx_HAL_Driver/Src/stm32f7xx_hal_uart.c ****   * @param huart uart handle
1188:Drivers/STM32F7xx_HAL_Driver/Src/stm32f7xx_hal_uart.c ****   * @retval None
1189:Drivers/STM32F7xx_HAL_Driver/Src/stm32f7xx_hal_uart.c ****   */
1190:Drivers/STM32F7xx_HAL_Driver/Src/stm32f7xx_hal_uart.c **** void HAL_UART_IRQHandler(UART_HandleTypeDef *huart)
1191:Drivers/STM32F7xx_HAL_Driver/Src/stm32f7xx_hal_uart.c **** {
1192:Drivers/STM32F7xx_HAL_Driver/Src/stm32f7xx_hal_uart.c ****   uint32_t isrflags   = READ_REG(huart->Instance->ISR);
1193:Drivers/STM32F7xx_HAL_Driver/Src/stm32f7xx_hal_uart.c ****   uint32_t cr1its     = READ_REG(huart->Instance->CR1);
1194:Drivers/STM32F7xx_HAL_Driver/Src/stm32f7xx_hal_uart.c ****   uint32_t cr3its     = READ_REG(huart->Instance->CR3);
1195:Drivers/STM32F7xx_HAL_Driver/Src/stm32f7xx_hal_uart.c ****   uint32_t errorflags;
1196:Drivers/STM32F7xx_HAL_Driver/Src/stm32f7xx_hal_uart.c **** 
1197:Drivers/STM32F7xx_HAL_Driver/Src/stm32f7xx_hal_uart.c ****   /* If no error occurs */
1198:Drivers/STM32F7xx_HAL_Driver/Src/stm32f7xx_hal_uart.c ****   errorflags = (isrflags & (uint32_t)(USART_ISR_PE | USART_ISR_FE | USART_ISR_ORE | USART_ISR_NE));
1199:Drivers/STM32F7xx_HAL_Driver/Src/stm32f7xx_hal_uart.c ****   if (errorflags == RESET)
1200:Drivers/STM32F7xx_HAL_Driver/Src/stm32f7xx_hal_uart.c ****   {
1201:Drivers/STM32F7xx_HAL_Driver/Src/stm32f7xx_hal_uart.c ****     /* UART in mode Receiver ---------------------------------------------------*/
1202:Drivers/STM32F7xx_HAL_Driver/Src/stm32f7xx_hal_uart.c ****     if(((isrflags & USART_ISR_RXNE) != RESET) && ((cr1its & USART_CR1_RXNEIE) != RESET))
1203:Drivers/STM32F7xx_HAL_Driver/Src/stm32f7xx_hal_uart.c ****     {
1204:Drivers/STM32F7xx_HAL_Driver/Src/stm32f7xx_hal_uart.c ****       UART_Receive_IT(huart);
1205:Drivers/STM32F7xx_HAL_Driver/Src/stm32f7xx_hal_uart.c ****       return;
1206:Drivers/STM32F7xx_HAL_Driver/Src/stm32f7xx_hal_uart.c ****     }
1207:Drivers/STM32F7xx_HAL_Driver/Src/stm32f7xx_hal_uart.c ****   }
1208:Drivers/STM32F7xx_HAL_Driver/Src/stm32f7xx_hal_uart.c **** 
1209:Drivers/STM32F7xx_HAL_Driver/Src/stm32f7xx_hal_uart.c ****   /* If some errors occur */
1210:Drivers/STM32F7xx_HAL_Driver/Src/stm32f7xx_hal_uart.c ****   if(   (errorflags != RESET)
1211:Drivers/STM32F7xx_HAL_Driver/Src/stm32f7xx_hal_uart.c ****      && (   ((cr3its & USART_CR3_EIE) != RESET)
1212:Drivers/STM32F7xx_HAL_Driver/Src/stm32f7xx_hal_uart.c ****          || ((cr1its & (USART_CR1_RXNEIE | USART_CR1_PEIE)) != RESET)) )
1213:Drivers/STM32F7xx_HAL_Driver/Src/stm32f7xx_hal_uart.c ****   {
1214:Drivers/STM32F7xx_HAL_Driver/Src/stm32f7xx_hal_uart.c **** 
1215:Drivers/STM32F7xx_HAL_Driver/Src/stm32f7xx_hal_uart.c ****     /* UART parity error interrupt occurred -------------------------------------*/
1216:Drivers/STM32F7xx_HAL_Driver/Src/stm32f7xx_hal_uart.c ****     if(((isrflags & USART_ISR_PE) != RESET) && ((cr1its & USART_CR1_PEIE) != RESET))
1217:Drivers/STM32F7xx_HAL_Driver/Src/stm32f7xx_hal_uart.c ****     {
1218:Drivers/STM32F7xx_HAL_Driver/Src/stm32f7xx_hal_uart.c ****       __HAL_UART_CLEAR_IT(huart, UART_CLEAR_PEF);
1219:Drivers/STM32F7xx_HAL_Driver/Src/stm32f7xx_hal_uart.c **** 
1220:Drivers/STM32F7xx_HAL_Driver/Src/stm32f7xx_hal_uart.c ****       huart->ErrorCode |= HAL_UART_ERROR_PE;
1221:Drivers/STM32F7xx_HAL_Driver/Src/stm32f7xx_hal_uart.c ****     }
1222:Drivers/STM32F7xx_HAL_Driver/Src/stm32f7xx_hal_uart.c **** 
1223:Drivers/STM32F7xx_HAL_Driver/Src/stm32f7xx_hal_uart.c ****     /* UART frame error interrupt occurred --------------------------------------*/
1224:Drivers/STM32F7xx_HAL_Driver/Src/stm32f7xx_hal_uart.c ****     if(((isrflags & USART_ISR_FE) != RESET) && ((cr3its & USART_CR3_EIE) != RESET))
1225:Drivers/STM32F7xx_HAL_Driver/Src/stm32f7xx_hal_uart.c ****     {
1226:Drivers/STM32F7xx_HAL_Driver/Src/stm32f7xx_hal_uart.c ****       __HAL_UART_CLEAR_IT(huart, UART_CLEAR_FEF);
1227:Drivers/STM32F7xx_HAL_Driver/Src/stm32f7xx_hal_uart.c **** 
1228:Drivers/STM32F7xx_HAL_Driver/Src/stm32f7xx_hal_uart.c ****       huart->ErrorCode |= HAL_UART_ERROR_FE;
1229:Drivers/STM32F7xx_HAL_Driver/Src/stm32f7xx_hal_uart.c ****     }
ARM GAS  C:\Users\Student\AppData\Local\Temp\cc4Wk4r8.s 			page 23


1230:Drivers/STM32F7xx_HAL_Driver/Src/stm32f7xx_hal_uart.c **** 
1231:Drivers/STM32F7xx_HAL_Driver/Src/stm32f7xx_hal_uart.c ****     /* UART noise error interrupt occurred --------------------------------------*/
1232:Drivers/STM32F7xx_HAL_Driver/Src/stm32f7xx_hal_uart.c ****     if(((isrflags & USART_ISR_NE) != RESET) && ((cr3its & USART_CR3_EIE) != RESET))
1233:Drivers/STM32F7xx_HAL_Driver/Src/stm32f7xx_hal_uart.c ****     {
1234:Drivers/STM32F7xx_HAL_Driver/Src/stm32f7xx_hal_uart.c ****       __HAL_UART_CLEAR_IT(huart, UART_CLEAR_NEF);
1235:Drivers/STM32F7xx_HAL_Driver/Src/stm32f7xx_hal_uart.c **** 
1236:Drivers/STM32F7xx_HAL_Driver/Src/stm32f7xx_hal_uart.c ****       huart->ErrorCode |= HAL_UART_ERROR_NE;
1237:Drivers/STM32F7xx_HAL_Driver/Src/stm32f7xx_hal_uart.c ****     }
1238:Drivers/STM32F7xx_HAL_Driver/Src/stm32f7xx_hal_uart.c ****     
1239:Drivers/STM32F7xx_HAL_Driver/Src/stm32f7xx_hal_uart.c ****     /* UART Over-Run interrupt occurred -----------------------------------------*/
1240:Drivers/STM32F7xx_HAL_Driver/Src/stm32f7xx_hal_uart.c ****     if(((isrflags & USART_ISR_ORE) != RESET) &&
1241:Drivers/STM32F7xx_HAL_Driver/Src/stm32f7xx_hal_uart.c ****        (((cr1its & USART_CR1_RXNEIE) != RESET) || ((cr3its & USART_CR3_EIE) != RESET)))
1242:Drivers/STM32F7xx_HAL_Driver/Src/stm32f7xx_hal_uart.c ****     {
1243:Drivers/STM32F7xx_HAL_Driver/Src/stm32f7xx_hal_uart.c ****       __HAL_UART_CLEAR_IT(huart, UART_CLEAR_OREF);
1244:Drivers/STM32F7xx_HAL_Driver/Src/stm32f7xx_hal_uart.c **** 
1245:Drivers/STM32F7xx_HAL_Driver/Src/stm32f7xx_hal_uart.c ****       huart->ErrorCode |= HAL_UART_ERROR_ORE;
1246:Drivers/STM32F7xx_HAL_Driver/Src/stm32f7xx_hal_uart.c ****     }
1247:Drivers/STM32F7xx_HAL_Driver/Src/stm32f7xx_hal_uart.c **** 
1248:Drivers/STM32F7xx_HAL_Driver/Src/stm32f7xx_hal_uart.c ****     /* Call UART Error Call back function if need be --------------------------*/
1249:Drivers/STM32F7xx_HAL_Driver/Src/stm32f7xx_hal_uart.c ****     if(huart->ErrorCode != HAL_UART_ERROR_NONE)
1250:Drivers/STM32F7xx_HAL_Driver/Src/stm32f7xx_hal_uart.c ****     {
1251:Drivers/STM32F7xx_HAL_Driver/Src/stm32f7xx_hal_uart.c ****       /* UART in mode Receiver ---------------------------------------------------*/
1252:Drivers/STM32F7xx_HAL_Driver/Src/stm32f7xx_hal_uart.c ****       if(((isrflags & USART_ISR_RXNE) != RESET) && ((cr1its & USART_CR1_RXNEIE) != RESET))
1253:Drivers/STM32F7xx_HAL_Driver/Src/stm32f7xx_hal_uart.c ****       {
1254:Drivers/STM32F7xx_HAL_Driver/Src/stm32f7xx_hal_uart.c ****         UART_Receive_IT(huart);
1255:Drivers/STM32F7xx_HAL_Driver/Src/stm32f7xx_hal_uart.c ****       }
1256:Drivers/STM32F7xx_HAL_Driver/Src/stm32f7xx_hal_uart.c **** 
1257:Drivers/STM32F7xx_HAL_Driver/Src/stm32f7xx_hal_uart.c ****       /* If Overrun error occurs, or if any error occurs in DMA mode reception,
1258:Drivers/STM32F7xx_HAL_Driver/Src/stm32f7xx_hal_uart.c ****          consider error as blocking */
1259:Drivers/STM32F7xx_HAL_Driver/Src/stm32f7xx_hal_uart.c ****       if (((huart->ErrorCode & HAL_UART_ERROR_ORE) != RESET) ||
1260:Drivers/STM32F7xx_HAL_Driver/Src/stm32f7xx_hal_uart.c ****           (HAL_IS_BIT_SET(huart->Instance->CR3, USART_CR3_DMAR)))
1261:Drivers/STM32F7xx_HAL_Driver/Src/stm32f7xx_hal_uart.c ****       {
1262:Drivers/STM32F7xx_HAL_Driver/Src/stm32f7xx_hal_uart.c ****         /* Blocking error : transfer is aborted
1263:Drivers/STM32F7xx_HAL_Driver/Src/stm32f7xx_hal_uart.c ****            Set the UART state ready to be able to start again the process,
1264:Drivers/STM32F7xx_HAL_Driver/Src/stm32f7xx_hal_uart.c ****            Disable Rx Interrupts, and disable Rx DMA request, if ongoing */
1265:Drivers/STM32F7xx_HAL_Driver/Src/stm32f7xx_hal_uart.c ****         UART_EndRxTransfer(huart);
1266:Drivers/STM32F7xx_HAL_Driver/Src/stm32f7xx_hal_uart.c **** 
1267:Drivers/STM32F7xx_HAL_Driver/Src/stm32f7xx_hal_uart.c ****         /* Disable the UART DMA Rx request if enabled */
1268:Drivers/STM32F7xx_HAL_Driver/Src/stm32f7xx_hal_uart.c ****         if (HAL_IS_BIT_SET(huart->Instance->CR3, USART_CR3_DMAR))
1269:Drivers/STM32F7xx_HAL_Driver/Src/stm32f7xx_hal_uart.c ****         {
1270:Drivers/STM32F7xx_HAL_Driver/Src/stm32f7xx_hal_uart.c ****           CLEAR_BIT(huart->Instance->CR3, USART_CR3_DMAR);
1271:Drivers/STM32F7xx_HAL_Driver/Src/stm32f7xx_hal_uart.c **** 
1272:Drivers/STM32F7xx_HAL_Driver/Src/stm32f7xx_hal_uart.c ****           /* Abort the UART DMA Rx channel */
1273:Drivers/STM32F7xx_HAL_Driver/Src/stm32f7xx_hal_uart.c ****           if(huart->hdmarx != NULL)
1274:Drivers/STM32F7xx_HAL_Driver/Src/stm32f7xx_hal_uart.c ****           {
1275:Drivers/STM32F7xx_HAL_Driver/Src/stm32f7xx_hal_uart.c ****             /* Set the UART DMA Abort callback :
1276:Drivers/STM32F7xx_HAL_Driver/Src/stm32f7xx_hal_uart.c ****             will lead to call HAL_UART_ErrorCallback() at end of DMA abort procedure */
1277:Drivers/STM32F7xx_HAL_Driver/Src/stm32f7xx_hal_uart.c ****             huart->hdmarx->XferAbortCallback = UART_DMAAbortOnError;
1278:Drivers/STM32F7xx_HAL_Driver/Src/stm32f7xx_hal_uart.c **** 
1279:Drivers/STM32F7xx_HAL_Driver/Src/stm32f7xx_hal_uart.c ****             /* Abort DMA RX */
1280:Drivers/STM32F7xx_HAL_Driver/Src/stm32f7xx_hal_uart.c ****             if(HAL_DMA_Abort_IT(huart->hdmarx) != HAL_OK)
1281:Drivers/STM32F7xx_HAL_Driver/Src/stm32f7xx_hal_uart.c ****             {
1282:Drivers/STM32F7xx_HAL_Driver/Src/stm32f7xx_hal_uart.c ****               /* Call Directly huart->hdmarx->XferAbortCallback function in case of error */
1283:Drivers/STM32F7xx_HAL_Driver/Src/stm32f7xx_hal_uart.c ****               huart->hdmarx->XferAbortCallback(huart->hdmarx);
1284:Drivers/STM32F7xx_HAL_Driver/Src/stm32f7xx_hal_uart.c ****             }
1285:Drivers/STM32F7xx_HAL_Driver/Src/stm32f7xx_hal_uart.c ****           }
1286:Drivers/STM32F7xx_HAL_Driver/Src/stm32f7xx_hal_uart.c ****           else
ARM GAS  C:\Users\Student\AppData\Local\Temp\cc4Wk4r8.s 			page 24


1287:Drivers/STM32F7xx_HAL_Driver/Src/stm32f7xx_hal_uart.c ****           {
1288:Drivers/STM32F7xx_HAL_Driver/Src/stm32f7xx_hal_uart.c ****             /* Call user error callback */
1289:Drivers/STM32F7xx_HAL_Driver/Src/stm32f7xx_hal_uart.c ****             HAL_UART_ErrorCallback(huart);
1290:Drivers/STM32F7xx_HAL_Driver/Src/stm32f7xx_hal_uart.c ****           }
1291:Drivers/STM32F7xx_HAL_Driver/Src/stm32f7xx_hal_uart.c ****         }
1292:Drivers/STM32F7xx_HAL_Driver/Src/stm32f7xx_hal_uart.c ****         else
1293:Drivers/STM32F7xx_HAL_Driver/Src/stm32f7xx_hal_uart.c ****         {
1294:Drivers/STM32F7xx_HAL_Driver/Src/stm32f7xx_hal_uart.c ****           /* Call user error callback */
1295:Drivers/STM32F7xx_HAL_Driver/Src/stm32f7xx_hal_uart.c ****           HAL_UART_ErrorCallback(huart);
1296:Drivers/STM32F7xx_HAL_Driver/Src/stm32f7xx_hal_uart.c ****         }
1297:Drivers/STM32F7xx_HAL_Driver/Src/stm32f7xx_hal_uart.c ****       }
1298:Drivers/STM32F7xx_HAL_Driver/Src/stm32f7xx_hal_uart.c ****       else
1299:Drivers/STM32F7xx_HAL_Driver/Src/stm32f7xx_hal_uart.c ****       {
1300:Drivers/STM32F7xx_HAL_Driver/Src/stm32f7xx_hal_uart.c ****         /* Non Blocking error : transfer could go on.
1301:Drivers/STM32F7xx_HAL_Driver/Src/stm32f7xx_hal_uart.c ****            Error is notified to user through user error callback */
1302:Drivers/STM32F7xx_HAL_Driver/Src/stm32f7xx_hal_uart.c ****         HAL_UART_ErrorCallback(huart);
1303:Drivers/STM32F7xx_HAL_Driver/Src/stm32f7xx_hal_uart.c ****         huart->ErrorCode = HAL_UART_ERROR_NONE;
1304:Drivers/STM32F7xx_HAL_Driver/Src/stm32f7xx_hal_uart.c ****       }
1305:Drivers/STM32F7xx_HAL_Driver/Src/stm32f7xx_hal_uart.c ****     }
1306:Drivers/STM32F7xx_HAL_Driver/Src/stm32f7xx_hal_uart.c ****     return;
1307:Drivers/STM32F7xx_HAL_Driver/Src/stm32f7xx_hal_uart.c **** 
1308:Drivers/STM32F7xx_HAL_Driver/Src/stm32f7xx_hal_uart.c ****   } /* End if some error occurs */
1309:Drivers/STM32F7xx_HAL_Driver/Src/stm32f7xx_hal_uart.c **** 
1310:Drivers/STM32F7xx_HAL_Driver/Src/stm32f7xx_hal_uart.c ****   /* UART in mode Transmitter ------------------------------------------------*/
1311:Drivers/STM32F7xx_HAL_Driver/Src/stm32f7xx_hal_uart.c ****   if(((isrflags & USART_ISR_TXE) != RESET) && ((cr1its & USART_CR1_TXEIE) != RESET))
1312:Drivers/STM32F7xx_HAL_Driver/Src/stm32f7xx_hal_uart.c ****   {
1313:Drivers/STM32F7xx_HAL_Driver/Src/stm32f7xx_hal_uart.c ****     UART_Transmit_IT(huart);
1314:Drivers/STM32F7xx_HAL_Driver/Src/stm32f7xx_hal_uart.c ****     return;
1315:Drivers/STM32F7xx_HAL_Driver/Src/stm32f7xx_hal_uart.c ****   }
1316:Drivers/STM32F7xx_HAL_Driver/Src/stm32f7xx_hal_uart.c **** 
1317:Drivers/STM32F7xx_HAL_Driver/Src/stm32f7xx_hal_uart.c ****   /* UART in mode Transmitter (transmission end) -----------------------------*/
1318:Drivers/STM32F7xx_HAL_Driver/Src/stm32f7xx_hal_uart.c ****   if(((isrflags & USART_ISR_TC) != RESET) && ((cr1its & USART_CR1_TCIE) != RESET))
1319:Drivers/STM32F7xx_HAL_Driver/Src/stm32f7xx_hal_uart.c ****   {
1320:Drivers/STM32F7xx_HAL_Driver/Src/stm32f7xx_hal_uart.c ****     UART_EndTransmit_IT(huart);
1321:Drivers/STM32F7xx_HAL_Driver/Src/stm32f7xx_hal_uart.c ****     return;
1322:Drivers/STM32F7xx_HAL_Driver/Src/stm32f7xx_hal_uart.c ****   }
1323:Drivers/STM32F7xx_HAL_Driver/Src/stm32f7xx_hal_uart.c **** 
1324:Drivers/STM32F7xx_HAL_Driver/Src/stm32f7xx_hal_uart.c **** }
1325:Drivers/STM32F7xx_HAL_Driver/Src/stm32f7xx_hal_uart.c **** 
1326:Drivers/STM32F7xx_HAL_Driver/Src/stm32f7xx_hal_uart.c **** /**
1327:Drivers/STM32F7xx_HAL_Driver/Src/stm32f7xx_hal_uart.c ****   * @brief  This function handles UART Communication Timeout.
1328:Drivers/STM32F7xx_HAL_Driver/Src/stm32f7xx_hal_uart.c ****   * @param  huart UART handle
1329:Drivers/STM32F7xx_HAL_Driver/Src/stm32f7xx_hal_uart.c ****   * @param  Flag specifies the UART flag to check.
1330:Drivers/STM32F7xx_HAL_Driver/Src/stm32f7xx_hal_uart.c ****   * @param  Status The new Flag status (SET or RESET).
1331:Drivers/STM32F7xx_HAL_Driver/Src/stm32f7xx_hal_uart.c ****   * @param  Tickstart Tick start value
1332:Drivers/STM32F7xx_HAL_Driver/Src/stm32f7xx_hal_uart.c ****   * @param  Timeout Timeout duration
1333:Drivers/STM32F7xx_HAL_Driver/Src/stm32f7xx_hal_uart.c ****   * @retval HAL status
1334:Drivers/STM32F7xx_HAL_Driver/Src/stm32f7xx_hal_uart.c ****   */
1335:Drivers/STM32F7xx_HAL_Driver/Src/stm32f7xx_hal_uart.c **** HAL_StatusTypeDef UART_WaitOnFlagUntilTimeout(UART_HandleTypeDef *huart, uint32_t Flag, FlagStatus 
1336:Drivers/STM32F7xx_HAL_Driver/Src/stm32f7xx_hal_uart.c **** {
1337:Drivers/STM32F7xx_HAL_Driver/Src/stm32f7xx_hal_uart.c ****   /* Wait until flag is set */
1338:Drivers/STM32F7xx_HAL_Driver/Src/stm32f7xx_hal_uart.c ****   while((__HAL_UART_GET_FLAG(huart, Flag) ? SET : RESET) == Status)
1339:Drivers/STM32F7xx_HAL_Driver/Src/stm32f7xx_hal_uart.c ****   {
1340:Drivers/STM32F7xx_HAL_Driver/Src/stm32f7xx_hal_uart.c ****     /* Check for the Timeout */
1341:Drivers/STM32F7xx_HAL_Driver/Src/stm32f7xx_hal_uart.c ****     if(Timeout != HAL_MAX_DELAY)
1342:Drivers/STM32F7xx_HAL_Driver/Src/stm32f7xx_hal_uart.c ****     {
1343:Drivers/STM32F7xx_HAL_Driver/Src/stm32f7xx_hal_uart.c ****       if((Timeout == 0U)||((HAL_GetTick()-Tickstart) >=  Timeout))
ARM GAS  C:\Users\Student\AppData\Local\Temp\cc4Wk4r8.s 			page 25


1344:Drivers/STM32F7xx_HAL_Driver/Src/stm32f7xx_hal_uart.c ****       {
1345:Drivers/STM32F7xx_HAL_Driver/Src/stm32f7xx_hal_uart.c ****         /* Disable TXE, RXNE, PE and ERR (Frame error, noise error, overrun error) interrupts for t
1346:Drivers/STM32F7xx_HAL_Driver/Src/stm32f7xx_hal_uart.c ****         CLEAR_BIT(huart->Instance->CR1, (USART_CR1_RXNEIE | USART_CR1_PEIE | USART_CR1_TXEIE));
1347:Drivers/STM32F7xx_HAL_Driver/Src/stm32f7xx_hal_uart.c ****         CLEAR_BIT(huart->Instance->CR3, USART_CR3_EIE);
1348:Drivers/STM32F7xx_HAL_Driver/Src/stm32f7xx_hal_uart.c **** 
1349:Drivers/STM32F7xx_HAL_Driver/Src/stm32f7xx_hal_uart.c ****         huart->gState = HAL_UART_STATE_READY;
1350:Drivers/STM32F7xx_HAL_Driver/Src/stm32f7xx_hal_uart.c ****         huart->RxState = HAL_UART_STATE_READY;
1351:Drivers/STM32F7xx_HAL_Driver/Src/stm32f7xx_hal_uart.c **** 
1352:Drivers/STM32F7xx_HAL_Driver/Src/stm32f7xx_hal_uart.c ****         /* Process Unlocked */
1353:Drivers/STM32F7xx_HAL_Driver/Src/stm32f7xx_hal_uart.c ****         __HAL_UNLOCK(huart);
1354:Drivers/STM32F7xx_HAL_Driver/Src/stm32f7xx_hal_uart.c ****         return HAL_TIMEOUT;
1355:Drivers/STM32F7xx_HAL_Driver/Src/stm32f7xx_hal_uart.c ****       }
1356:Drivers/STM32F7xx_HAL_Driver/Src/stm32f7xx_hal_uart.c ****     }
1357:Drivers/STM32F7xx_HAL_Driver/Src/stm32f7xx_hal_uart.c ****   }
1358:Drivers/STM32F7xx_HAL_Driver/Src/stm32f7xx_hal_uart.c ****   return HAL_OK;
1359:Drivers/STM32F7xx_HAL_Driver/Src/stm32f7xx_hal_uart.c **** }
1360:Drivers/STM32F7xx_HAL_Driver/Src/stm32f7xx_hal_uart.c **** 
1361:Drivers/STM32F7xx_HAL_Driver/Src/stm32f7xx_hal_uart.c **** /**
1362:Drivers/STM32F7xx_HAL_Driver/Src/stm32f7xx_hal_uart.c ****   * @brief DMA UART transmit process complete callback
1363:Drivers/STM32F7xx_HAL_Driver/Src/stm32f7xx_hal_uart.c ****   * @param hdma DMA handle
1364:Drivers/STM32F7xx_HAL_Driver/Src/stm32f7xx_hal_uart.c ****   * @retval None
1365:Drivers/STM32F7xx_HAL_Driver/Src/stm32f7xx_hal_uart.c ****   */
1366:Drivers/STM32F7xx_HAL_Driver/Src/stm32f7xx_hal_uart.c **** static void UART_DMATransmitCplt(DMA_HandleTypeDef *hdma)
1367:Drivers/STM32F7xx_HAL_Driver/Src/stm32f7xx_hal_uart.c **** {
1368:Drivers/STM32F7xx_HAL_Driver/Src/stm32f7xx_hal_uart.c ****   UART_HandleTypeDef* huart = ( UART_HandleTypeDef* )((DMA_HandleTypeDef* )hdma)->Parent;
1369:Drivers/STM32F7xx_HAL_Driver/Src/stm32f7xx_hal_uart.c **** 
1370:Drivers/STM32F7xx_HAL_Driver/Src/stm32f7xx_hal_uart.c ****   /* DMA Normal mode*/
1371:Drivers/STM32F7xx_HAL_Driver/Src/stm32f7xx_hal_uart.c ****   if((hdma->Instance->CR & DMA_SxCR_CIRC) == 0U)
1372:Drivers/STM32F7xx_HAL_Driver/Src/stm32f7xx_hal_uart.c ****   {
1373:Drivers/STM32F7xx_HAL_Driver/Src/stm32f7xx_hal_uart.c ****     huart->TxXferCount = 0U;
1374:Drivers/STM32F7xx_HAL_Driver/Src/stm32f7xx_hal_uart.c **** 
1375:Drivers/STM32F7xx_HAL_Driver/Src/stm32f7xx_hal_uart.c ****     /* Disable the DMA transfer for transmit request by setting the DMAT bit
1376:Drivers/STM32F7xx_HAL_Driver/Src/stm32f7xx_hal_uart.c ****        in the UART CR3 register */
1377:Drivers/STM32F7xx_HAL_Driver/Src/stm32f7xx_hal_uart.c ****     CLEAR_BIT(huart->Instance->CR3, USART_CR3_DMAT);
1378:Drivers/STM32F7xx_HAL_Driver/Src/stm32f7xx_hal_uart.c **** 
1379:Drivers/STM32F7xx_HAL_Driver/Src/stm32f7xx_hal_uart.c ****     /* Enable the UART Transmit Complete Interrupt */
1380:Drivers/STM32F7xx_HAL_Driver/Src/stm32f7xx_hal_uart.c ****     SET_BIT(huart->Instance->CR1, USART_CR1_TCIE);
1381:Drivers/STM32F7xx_HAL_Driver/Src/stm32f7xx_hal_uart.c ****   }
1382:Drivers/STM32F7xx_HAL_Driver/Src/stm32f7xx_hal_uart.c ****   /* DMA Circular mode */
1383:Drivers/STM32F7xx_HAL_Driver/Src/stm32f7xx_hal_uart.c ****   else
1384:Drivers/STM32F7xx_HAL_Driver/Src/stm32f7xx_hal_uart.c ****   {
1385:Drivers/STM32F7xx_HAL_Driver/Src/stm32f7xx_hal_uart.c ****     HAL_UART_TxCpltCallback(huart);
1386:Drivers/STM32F7xx_HAL_Driver/Src/stm32f7xx_hal_uart.c ****   }
1387:Drivers/STM32F7xx_HAL_Driver/Src/stm32f7xx_hal_uart.c **** }
1388:Drivers/STM32F7xx_HAL_Driver/Src/stm32f7xx_hal_uart.c **** 
1389:Drivers/STM32F7xx_HAL_Driver/Src/stm32f7xx_hal_uart.c **** /**
1390:Drivers/STM32F7xx_HAL_Driver/Src/stm32f7xx_hal_uart.c ****   * @brief DMA UART transmit process half complete callback
1391:Drivers/STM32F7xx_HAL_Driver/Src/stm32f7xx_hal_uart.c ****   * @param hdma  DMA handle
1392:Drivers/STM32F7xx_HAL_Driver/Src/stm32f7xx_hal_uart.c ****   * @retval None
1393:Drivers/STM32F7xx_HAL_Driver/Src/stm32f7xx_hal_uart.c ****   */
1394:Drivers/STM32F7xx_HAL_Driver/Src/stm32f7xx_hal_uart.c **** static void UART_DMATxHalfCplt(DMA_HandleTypeDef *hdma)
1395:Drivers/STM32F7xx_HAL_Driver/Src/stm32f7xx_hal_uart.c **** {
1396:Drivers/STM32F7xx_HAL_Driver/Src/stm32f7xx_hal_uart.c ****   UART_HandleTypeDef* huart = (UART_HandleTypeDef*)((DMA_HandleTypeDef*)hdma)->Parent;
1397:Drivers/STM32F7xx_HAL_Driver/Src/stm32f7xx_hal_uart.c **** 
1398:Drivers/STM32F7xx_HAL_Driver/Src/stm32f7xx_hal_uart.c ****   HAL_UART_TxHalfCpltCallback(huart);
1399:Drivers/STM32F7xx_HAL_Driver/Src/stm32f7xx_hal_uart.c **** }
1400:Drivers/STM32F7xx_HAL_Driver/Src/stm32f7xx_hal_uart.c **** 
ARM GAS  C:\Users\Student\AppData\Local\Temp\cc4Wk4r8.s 			page 26


1401:Drivers/STM32F7xx_HAL_Driver/Src/stm32f7xx_hal_uart.c **** /**
1402:Drivers/STM32F7xx_HAL_Driver/Src/stm32f7xx_hal_uart.c ****   * @brief DMA UART receive process complete callback
1403:Drivers/STM32F7xx_HAL_Driver/Src/stm32f7xx_hal_uart.c ****   * @param hdma DMA handle
1404:Drivers/STM32F7xx_HAL_Driver/Src/stm32f7xx_hal_uart.c ****   * @retval None
1405:Drivers/STM32F7xx_HAL_Driver/Src/stm32f7xx_hal_uart.c ****   */
1406:Drivers/STM32F7xx_HAL_Driver/Src/stm32f7xx_hal_uart.c **** static void UART_DMAReceiveCplt(DMA_HandleTypeDef *hdma)
1407:Drivers/STM32F7xx_HAL_Driver/Src/stm32f7xx_hal_uart.c **** {
1408:Drivers/STM32F7xx_HAL_Driver/Src/stm32f7xx_hal_uart.c ****   UART_HandleTypeDef* huart = ( UART_HandleTypeDef* )((DMA_HandleTypeDef* )hdma)->Parent;
1409:Drivers/STM32F7xx_HAL_Driver/Src/stm32f7xx_hal_uart.c **** 
1410:Drivers/STM32F7xx_HAL_Driver/Src/stm32f7xx_hal_uart.c ****   /* DMA Normal mode */
1411:Drivers/STM32F7xx_HAL_Driver/Src/stm32f7xx_hal_uart.c ****   if((hdma->Instance->CR & DMA_SxCR_CIRC) == 0U)
1412:Drivers/STM32F7xx_HAL_Driver/Src/stm32f7xx_hal_uart.c ****   {
1413:Drivers/STM32F7xx_HAL_Driver/Src/stm32f7xx_hal_uart.c ****     huart->RxXferCount = 0U;
1414:Drivers/STM32F7xx_HAL_Driver/Src/stm32f7xx_hal_uart.c **** 
1415:Drivers/STM32F7xx_HAL_Driver/Src/stm32f7xx_hal_uart.c ****     /* Disable PE and ERR (Frame error, noise error, overrun error) interrupts */
1416:Drivers/STM32F7xx_HAL_Driver/Src/stm32f7xx_hal_uart.c ****     CLEAR_BIT(huart->Instance->CR1, USART_CR1_PEIE);
1417:Drivers/STM32F7xx_HAL_Driver/Src/stm32f7xx_hal_uart.c ****     CLEAR_BIT(huart->Instance->CR3, USART_CR3_EIE);
1418:Drivers/STM32F7xx_HAL_Driver/Src/stm32f7xx_hal_uart.c **** 
1419:Drivers/STM32F7xx_HAL_Driver/Src/stm32f7xx_hal_uart.c ****     /* Disable the DMA transfer for the receiver request by setting the DMAR bit
1420:Drivers/STM32F7xx_HAL_Driver/Src/stm32f7xx_hal_uart.c ****     in the UART CR3 register */
1421:Drivers/STM32F7xx_HAL_Driver/Src/stm32f7xx_hal_uart.c ****     CLEAR_BIT(huart->Instance->CR3, USART_CR3_DMAR);
1422:Drivers/STM32F7xx_HAL_Driver/Src/stm32f7xx_hal_uart.c **** 
1423:Drivers/STM32F7xx_HAL_Driver/Src/stm32f7xx_hal_uart.c **** 	/* At end of Rx process, restore huart->RxState to Ready */
1424:Drivers/STM32F7xx_HAL_Driver/Src/stm32f7xx_hal_uart.c ****     huart->RxState = HAL_UART_STATE_READY;
1425:Drivers/STM32F7xx_HAL_Driver/Src/stm32f7xx_hal_uart.c ****   }
1426:Drivers/STM32F7xx_HAL_Driver/Src/stm32f7xx_hal_uart.c ****   HAL_UART_RxCpltCallback(huart);
1427:Drivers/STM32F7xx_HAL_Driver/Src/stm32f7xx_hal_uart.c **** }
1428:Drivers/STM32F7xx_HAL_Driver/Src/stm32f7xx_hal_uart.c **** 
1429:Drivers/STM32F7xx_HAL_Driver/Src/stm32f7xx_hal_uart.c **** /**
1430:Drivers/STM32F7xx_HAL_Driver/Src/stm32f7xx_hal_uart.c ****   * @brief DMA UART receive process half complete callback
1431:Drivers/STM32F7xx_HAL_Driver/Src/stm32f7xx_hal_uart.c ****   * @param hdma  DMA handle
1432:Drivers/STM32F7xx_HAL_Driver/Src/stm32f7xx_hal_uart.c ****   * @retval None
1433:Drivers/STM32F7xx_HAL_Driver/Src/stm32f7xx_hal_uart.c ****   */
1434:Drivers/STM32F7xx_HAL_Driver/Src/stm32f7xx_hal_uart.c **** static void UART_DMARxHalfCplt(DMA_HandleTypeDef *hdma)
1435:Drivers/STM32F7xx_HAL_Driver/Src/stm32f7xx_hal_uart.c **** {
1436:Drivers/STM32F7xx_HAL_Driver/Src/stm32f7xx_hal_uart.c ****   UART_HandleTypeDef* huart = (UART_HandleTypeDef*)((DMA_HandleTypeDef*)hdma)->Parent;
1437:Drivers/STM32F7xx_HAL_Driver/Src/stm32f7xx_hal_uart.c **** 
1438:Drivers/STM32F7xx_HAL_Driver/Src/stm32f7xx_hal_uart.c ****   HAL_UART_RxHalfCpltCallback(huart);
1439:Drivers/STM32F7xx_HAL_Driver/Src/stm32f7xx_hal_uart.c **** }
1440:Drivers/STM32F7xx_HAL_Driver/Src/stm32f7xx_hal_uart.c **** 
1441:Drivers/STM32F7xx_HAL_Driver/Src/stm32f7xx_hal_uart.c **** /**
1442:Drivers/STM32F7xx_HAL_Driver/Src/stm32f7xx_hal_uart.c ****   * @brief DMA UART communication error callback
1443:Drivers/STM32F7xx_HAL_Driver/Src/stm32f7xx_hal_uart.c ****   * @param hdma DMA handle
1444:Drivers/STM32F7xx_HAL_Driver/Src/stm32f7xx_hal_uart.c ****   * @retval None
1445:Drivers/STM32F7xx_HAL_Driver/Src/stm32f7xx_hal_uart.c ****   */
1446:Drivers/STM32F7xx_HAL_Driver/Src/stm32f7xx_hal_uart.c **** static void UART_DMAError(DMA_HandleTypeDef *hdma)
1447:Drivers/STM32F7xx_HAL_Driver/Src/stm32f7xx_hal_uart.c **** {
1448:Drivers/STM32F7xx_HAL_Driver/Src/stm32f7xx_hal_uart.c ****   UART_HandleTypeDef* huart = ( UART_HandleTypeDef* )((DMA_HandleTypeDef* )hdma)->Parent;
1449:Drivers/STM32F7xx_HAL_Driver/Src/stm32f7xx_hal_uart.c ****   huart->RxXferCount = 0U;
1450:Drivers/STM32F7xx_HAL_Driver/Src/stm32f7xx_hal_uart.c ****   huart->TxXferCount = 0U;
1451:Drivers/STM32F7xx_HAL_Driver/Src/stm32f7xx_hal_uart.c ****   /* Stop UART DMA Tx request if ongoing */
1452:Drivers/STM32F7xx_HAL_Driver/Src/stm32f7xx_hal_uart.c ****   if (  (huart->gState == HAL_UART_STATE_BUSY_TX)
1453:Drivers/STM32F7xx_HAL_Driver/Src/stm32f7xx_hal_uart.c ****       &&(HAL_IS_BIT_SET(huart->Instance->CR3, USART_CR3_DMAT)) )
1454:Drivers/STM32F7xx_HAL_Driver/Src/stm32f7xx_hal_uart.c ****   {
1455:Drivers/STM32F7xx_HAL_Driver/Src/stm32f7xx_hal_uart.c ****     UART_EndTxTransfer(huart);
1456:Drivers/STM32F7xx_HAL_Driver/Src/stm32f7xx_hal_uart.c ****   }
1457:Drivers/STM32F7xx_HAL_Driver/Src/stm32f7xx_hal_uart.c **** 
ARM GAS  C:\Users\Student\AppData\Local\Temp\cc4Wk4r8.s 			page 27


1458:Drivers/STM32F7xx_HAL_Driver/Src/stm32f7xx_hal_uart.c ****   /* Stop UART DMA Rx request if ongoing */
1459:Drivers/STM32F7xx_HAL_Driver/Src/stm32f7xx_hal_uart.c ****   if (  (huart->RxState == HAL_UART_STATE_BUSY_RX)
1460:Drivers/STM32F7xx_HAL_Driver/Src/stm32f7xx_hal_uart.c ****       &&(HAL_IS_BIT_SET(huart->Instance->CR3, USART_CR3_DMAR)) )
1461:Drivers/STM32F7xx_HAL_Driver/Src/stm32f7xx_hal_uart.c ****   {
1462:Drivers/STM32F7xx_HAL_Driver/Src/stm32f7xx_hal_uart.c ****     UART_EndRxTransfer(huart);
1463:Drivers/STM32F7xx_HAL_Driver/Src/stm32f7xx_hal_uart.c ****   }
1464:Drivers/STM32F7xx_HAL_Driver/Src/stm32f7xx_hal_uart.c ****   SET_BIT(huart->ErrorCode, HAL_UART_ERROR_DMA);
1465:Drivers/STM32F7xx_HAL_Driver/Src/stm32f7xx_hal_uart.c ****   HAL_UART_ErrorCallback(huart);
1466:Drivers/STM32F7xx_HAL_Driver/Src/stm32f7xx_hal_uart.c **** }
1467:Drivers/STM32F7xx_HAL_Driver/Src/stm32f7xx_hal_uart.c **** 
1468:Drivers/STM32F7xx_HAL_Driver/Src/stm32f7xx_hal_uart.c **** /**
1469:Drivers/STM32F7xx_HAL_Driver/Src/stm32f7xx_hal_uart.c ****   * @brief DMA UART communication abort callback, when call by HAL services on Error
1470:Drivers/STM32F7xx_HAL_Driver/Src/stm32f7xx_hal_uart.c ****   *        (To be called at end of DMA Abort procedure following error occurrence).
1471:Drivers/STM32F7xx_HAL_Driver/Src/stm32f7xx_hal_uart.c ****   * @param hdma DMA handle.
1472:Drivers/STM32F7xx_HAL_Driver/Src/stm32f7xx_hal_uart.c ****   * @retval None
1473:Drivers/STM32F7xx_HAL_Driver/Src/stm32f7xx_hal_uart.c ****   */
1474:Drivers/STM32F7xx_HAL_Driver/Src/stm32f7xx_hal_uart.c **** static void UART_DMAAbortOnError(DMA_HandleTypeDef *hdma)
1475:Drivers/STM32F7xx_HAL_Driver/Src/stm32f7xx_hal_uart.c **** {
1476:Drivers/STM32F7xx_HAL_Driver/Src/stm32f7xx_hal_uart.c ****   UART_HandleTypeDef* huart = (UART_HandleTypeDef*)(hdma->Parent);
1477:Drivers/STM32F7xx_HAL_Driver/Src/stm32f7xx_hal_uart.c ****   huart->RxXferCount = 0U;
1478:Drivers/STM32F7xx_HAL_Driver/Src/stm32f7xx_hal_uart.c ****   huart->TxXferCount = 0U;
1479:Drivers/STM32F7xx_HAL_Driver/Src/stm32f7xx_hal_uart.c **** 
1480:Drivers/STM32F7xx_HAL_Driver/Src/stm32f7xx_hal_uart.c ****   HAL_UART_ErrorCallback(huart);
1481:Drivers/STM32F7xx_HAL_Driver/Src/stm32f7xx_hal_uart.c **** }
1482:Drivers/STM32F7xx_HAL_Driver/Src/stm32f7xx_hal_uart.c **** 
1483:Drivers/STM32F7xx_HAL_Driver/Src/stm32f7xx_hal_uart.c **** /**
1484:Drivers/STM32F7xx_HAL_Driver/Src/stm32f7xx_hal_uart.c ****   * @brief Tx Transfer completed callbacks
1485:Drivers/STM32F7xx_HAL_Driver/Src/stm32f7xx_hal_uart.c ****   * @param huart uart handle
1486:Drivers/STM32F7xx_HAL_Driver/Src/stm32f7xx_hal_uart.c ****   * @retval None
1487:Drivers/STM32F7xx_HAL_Driver/Src/stm32f7xx_hal_uart.c ****   */
1488:Drivers/STM32F7xx_HAL_Driver/Src/stm32f7xx_hal_uart.c ****  __weak void HAL_UART_TxCpltCallback(UART_HandleTypeDef *huart)
1489:Drivers/STM32F7xx_HAL_Driver/Src/stm32f7xx_hal_uart.c **** {
1490:Drivers/STM32F7xx_HAL_Driver/Src/stm32f7xx_hal_uart.c ****   /* Prevent unused argument(s) compilation warning */
1491:Drivers/STM32F7xx_HAL_Driver/Src/stm32f7xx_hal_uart.c ****   UNUSED(huart);
1492:Drivers/STM32F7xx_HAL_Driver/Src/stm32f7xx_hal_uart.c **** 
1493:Drivers/STM32F7xx_HAL_Driver/Src/stm32f7xx_hal_uart.c ****   /* NOTE : This function should not be modified, when the callback is needed,
1494:Drivers/STM32F7xx_HAL_Driver/Src/stm32f7xx_hal_uart.c ****             the HAL_UART_TxCpltCallback can be implemented in the user file
1495:Drivers/STM32F7xx_HAL_Driver/Src/stm32f7xx_hal_uart.c ****    */
1496:Drivers/STM32F7xx_HAL_Driver/Src/stm32f7xx_hal_uart.c **** }
1497:Drivers/STM32F7xx_HAL_Driver/Src/stm32f7xx_hal_uart.c **** 
1498:Drivers/STM32F7xx_HAL_Driver/Src/stm32f7xx_hal_uart.c **** /**
1499:Drivers/STM32F7xx_HAL_Driver/Src/stm32f7xx_hal_uart.c ****   * @brief  Tx Half Transfer completed callbacks.
1500:Drivers/STM32F7xx_HAL_Driver/Src/stm32f7xx_hal_uart.c ****   * @param  huart UART handle
1501:Drivers/STM32F7xx_HAL_Driver/Src/stm32f7xx_hal_uart.c ****   * @retval None
1502:Drivers/STM32F7xx_HAL_Driver/Src/stm32f7xx_hal_uart.c ****   */
1503:Drivers/STM32F7xx_HAL_Driver/Src/stm32f7xx_hal_uart.c ****  __weak void HAL_UART_TxHalfCpltCallback(UART_HandleTypeDef *huart)
1504:Drivers/STM32F7xx_HAL_Driver/Src/stm32f7xx_hal_uart.c **** {
1505:Drivers/STM32F7xx_HAL_Driver/Src/stm32f7xx_hal_uart.c ****   /* Prevent unused argument(s) compilation warning */
1506:Drivers/STM32F7xx_HAL_Driver/Src/stm32f7xx_hal_uart.c ****   UNUSED(huart);
1507:Drivers/STM32F7xx_HAL_Driver/Src/stm32f7xx_hal_uart.c **** 
1508:Drivers/STM32F7xx_HAL_Driver/Src/stm32f7xx_hal_uart.c ****   /* NOTE: This function should not be modified, when the callback is needed,
1509:Drivers/STM32F7xx_HAL_Driver/Src/stm32f7xx_hal_uart.c ****            the HAL_UART_TxHalfCpltCallback can be implemented in the user file
1510:Drivers/STM32F7xx_HAL_Driver/Src/stm32f7xx_hal_uart.c ****    */
1511:Drivers/STM32F7xx_HAL_Driver/Src/stm32f7xx_hal_uart.c **** }
1512:Drivers/STM32F7xx_HAL_Driver/Src/stm32f7xx_hal_uart.c **** 
1513:Drivers/STM32F7xx_HAL_Driver/Src/stm32f7xx_hal_uart.c **** /**
1514:Drivers/STM32F7xx_HAL_Driver/Src/stm32f7xx_hal_uart.c ****   * @brief Rx Transfer completed callbacks
ARM GAS  C:\Users\Student\AppData\Local\Temp\cc4Wk4r8.s 			page 28


1515:Drivers/STM32F7xx_HAL_Driver/Src/stm32f7xx_hal_uart.c ****   * @param huart uart handle
1516:Drivers/STM32F7xx_HAL_Driver/Src/stm32f7xx_hal_uart.c ****   * @retval None
1517:Drivers/STM32F7xx_HAL_Driver/Src/stm32f7xx_hal_uart.c ****   */
1518:Drivers/STM32F7xx_HAL_Driver/Src/stm32f7xx_hal_uart.c **** __weak void HAL_UART_RxCpltCallback(UART_HandleTypeDef *huart)
1519:Drivers/STM32F7xx_HAL_Driver/Src/stm32f7xx_hal_uart.c **** {
1520:Drivers/STM32F7xx_HAL_Driver/Src/stm32f7xx_hal_uart.c ****   /* Prevent unused argument(s) compilation warning */
1521:Drivers/STM32F7xx_HAL_Driver/Src/stm32f7xx_hal_uart.c ****   UNUSED(huart);
1522:Drivers/STM32F7xx_HAL_Driver/Src/stm32f7xx_hal_uart.c **** 
1523:Drivers/STM32F7xx_HAL_Driver/Src/stm32f7xx_hal_uart.c ****   /* NOTE : This function should not be modified, when the callback is needed,
1524:Drivers/STM32F7xx_HAL_Driver/Src/stm32f7xx_hal_uart.c ****             the HAL_UART_RxCpltCallback can be implemented in the user file
1525:Drivers/STM32F7xx_HAL_Driver/Src/stm32f7xx_hal_uart.c ****    */
1526:Drivers/STM32F7xx_HAL_Driver/Src/stm32f7xx_hal_uart.c **** }
1527:Drivers/STM32F7xx_HAL_Driver/Src/stm32f7xx_hal_uart.c **** 
1528:Drivers/STM32F7xx_HAL_Driver/Src/stm32f7xx_hal_uart.c **** /**
1529:Drivers/STM32F7xx_HAL_Driver/Src/stm32f7xx_hal_uart.c ****   * @brief  Rx Half Transfer completed callbacks.
1530:Drivers/STM32F7xx_HAL_Driver/Src/stm32f7xx_hal_uart.c ****   * @param  huart UART handle
1531:Drivers/STM32F7xx_HAL_Driver/Src/stm32f7xx_hal_uart.c ****   * @retval None
1532:Drivers/STM32F7xx_HAL_Driver/Src/stm32f7xx_hal_uart.c ****   */
1533:Drivers/STM32F7xx_HAL_Driver/Src/stm32f7xx_hal_uart.c **** __weak void HAL_UART_RxHalfCpltCallback(UART_HandleTypeDef *huart)
1534:Drivers/STM32F7xx_HAL_Driver/Src/stm32f7xx_hal_uart.c **** {
1535:Drivers/STM32F7xx_HAL_Driver/Src/stm32f7xx_hal_uart.c ****   /* Prevent unused argument(s) compilation warning */
1536:Drivers/STM32F7xx_HAL_Driver/Src/stm32f7xx_hal_uart.c ****   UNUSED(huart);
1537:Drivers/STM32F7xx_HAL_Driver/Src/stm32f7xx_hal_uart.c **** 
1538:Drivers/STM32F7xx_HAL_Driver/Src/stm32f7xx_hal_uart.c ****   /* NOTE: This function should not be modified, when the callback is needed,
1539:Drivers/STM32F7xx_HAL_Driver/Src/stm32f7xx_hal_uart.c ****            the HAL_UART_RxHalfCpltCallback can be implemented in the user file
1540:Drivers/STM32F7xx_HAL_Driver/Src/stm32f7xx_hal_uart.c ****    */
1541:Drivers/STM32F7xx_HAL_Driver/Src/stm32f7xx_hal_uart.c **** }
1542:Drivers/STM32F7xx_HAL_Driver/Src/stm32f7xx_hal_uart.c **** 
1543:Drivers/STM32F7xx_HAL_Driver/Src/stm32f7xx_hal_uart.c **** /**
1544:Drivers/STM32F7xx_HAL_Driver/Src/stm32f7xx_hal_uart.c ****   * @brief UART error callbacks
1545:Drivers/STM32F7xx_HAL_Driver/Src/stm32f7xx_hal_uart.c ****   * @param huart uart handle
1546:Drivers/STM32F7xx_HAL_Driver/Src/stm32f7xx_hal_uart.c ****   * @retval None
1547:Drivers/STM32F7xx_HAL_Driver/Src/stm32f7xx_hal_uart.c ****   */
1548:Drivers/STM32F7xx_HAL_Driver/Src/stm32f7xx_hal_uart.c ****  __weak void HAL_UART_ErrorCallback(UART_HandleTypeDef *huart)
1549:Drivers/STM32F7xx_HAL_Driver/Src/stm32f7xx_hal_uart.c **** {
1550:Drivers/STM32F7xx_HAL_Driver/Src/stm32f7xx_hal_uart.c ****   /* Prevent unused argument(s) compilation warning */
1551:Drivers/STM32F7xx_HAL_Driver/Src/stm32f7xx_hal_uart.c ****   UNUSED(huart);
1552:Drivers/STM32F7xx_HAL_Driver/Src/stm32f7xx_hal_uart.c **** 
1553:Drivers/STM32F7xx_HAL_Driver/Src/stm32f7xx_hal_uart.c ****   /* NOTE : This function should not be modified, when the callback is needed,
1554:Drivers/STM32F7xx_HAL_Driver/Src/stm32f7xx_hal_uart.c ****             the HAL_UART_ErrorCallback can be implemented in the user file
1555:Drivers/STM32F7xx_HAL_Driver/Src/stm32f7xx_hal_uart.c ****    */
1556:Drivers/STM32F7xx_HAL_Driver/Src/stm32f7xx_hal_uart.c **** }
1557:Drivers/STM32F7xx_HAL_Driver/Src/stm32f7xx_hal_uart.c **** 
1558:Drivers/STM32F7xx_HAL_Driver/Src/stm32f7xx_hal_uart.c **** /**
1559:Drivers/STM32F7xx_HAL_Driver/Src/stm32f7xx_hal_uart.c ****   * @brief Send an amount of data in interrupt mode
1560:Drivers/STM32F7xx_HAL_Driver/Src/stm32f7xx_hal_uart.c ****   *         Function called under interruption only, once
1561:Drivers/STM32F7xx_HAL_Driver/Src/stm32f7xx_hal_uart.c ****   *         interruptions have been enabled by HAL_UART_Transmit_IT()
1562:Drivers/STM32F7xx_HAL_Driver/Src/stm32f7xx_hal_uart.c ****   * @param  huart UART handle
1563:Drivers/STM32F7xx_HAL_Driver/Src/stm32f7xx_hal_uart.c ****   * @retval HAL status
1564:Drivers/STM32F7xx_HAL_Driver/Src/stm32f7xx_hal_uart.c ****   */
1565:Drivers/STM32F7xx_HAL_Driver/Src/stm32f7xx_hal_uart.c **** static HAL_StatusTypeDef UART_Transmit_IT(UART_HandleTypeDef *huart)
1566:Drivers/STM32F7xx_HAL_Driver/Src/stm32f7xx_hal_uart.c **** {
  27              		.loc 1 1566 0
  28              		.cfi_startproc
  29              		@ args = 0, pretend = 0, frame = 0
  30              		@ frame_needed = 0, uses_anonymous_args = 0
  31              		@ link register save eliminated.
ARM GAS  C:\Users\Student\AppData\Local\Temp\cc4Wk4r8.s 			page 29


  32              	.LVL0:
1567:Drivers/STM32F7xx_HAL_Driver/Src/stm32f7xx_hal_uart.c ****   uint16_t* tmp;
1568:Drivers/STM32F7xx_HAL_Driver/Src/stm32f7xx_hal_uart.c **** 
1569:Drivers/STM32F7xx_HAL_Driver/Src/stm32f7xx_hal_uart.c ****   /* Check that a Tx process is ongoing */
1570:Drivers/STM32F7xx_HAL_Driver/Src/stm32f7xx_hal_uart.c ****   if (huart->gState == HAL_UART_STATE_BUSY_TX)
  33              		.loc 1 1570 0
  34 0000 90F86930 		ldrb	r3, [r0, #105]	@ zero_extendqisi2
  35 0004 DBB2     		uxtb	r3, r3
  36 0006 212B     		cmp	r3, #33
  37 0008 01D0     		beq	.L7
1571:Drivers/STM32F7xx_HAL_Driver/Src/stm32f7xx_hal_uart.c ****   {
1572:Drivers/STM32F7xx_HAL_Driver/Src/stm32f7xx_hal_uart.c **** 
1573:Drivers/STM32F7xx_HAL_Driver/Src/stm32f7xx_hal_uart.c ****     if(huart->TxXferCount == 0U)
1574:Drivers/STM32F7xx_HAL_Driver/Src/stm32f7xx_hal_uart.c ****     {
1575:Drivers/STM32F7xx_HAL_Driver/Src/stm32f7xx_hal_uart.c ****       /* Disable the UART Transmit Data Register Empty Interrupt */
1576:Drivers/STM32F7xx_HAL_Driver/Src/stm32f7xx_hal_uart.c ****       CLEAR_BIT(huart->Instance->CR1, USART_CR1_TXEIE);
1577:Drivers/STM32F7xx_HAL_Driver/Src/stm32f7xx_hal_uart.c **** 
1578:Drivers/STM32F7xx_HAL_Driver/Src/stm32f7xx_hal_uart.c ****       /* Enable the UART Transmit Complete Interrupt */
1579:Drivers/STM32F7xx_HAL_Driver/Src/stm32f7xx_hal_uart.c ****       SET_BIT(huart->Instance->CR1, USART_CR1_TCIE);
1580:Drivers/STM32F7xx_HAL_Driver/Src/stm32f7xx_hal_uart.c **** 
1581:Drivers/STM32F7xx_HAL_Driver/Src/stm32f7xx_hal_uart.c ****       return HAL_OK;
1582:Drivers/STM32F7xx_HAL_Driver/Src/stm32f7xx_hal_uart.c ****     }
1583:Drivers/STM32F7xx_HAL_Driver/Src/stm32f7xx_hal_uart.c ****     else
1584:Drivers/STM32F7xx_HAL_Driver/Src/stm32f7xx_hal_uart.c ****     {
1585:Drivers/STM32F7xx_HAL_Driver/Src/stm32f7xx_hal_uart.c ****       if ((huart->Init.WordLength == UART_WORDLENGTH_9B) && (huart->Init.Parity == UART_PARITY_NONE
1586:Drivers/STM32F7xx_HAL_Driver/Src/stm32f7xx_hal_uart.c ****       {
1587:Drivers/STM32F7xx_HAL_Driver/Src/stm32f7xx_hal_uart.c ****         tmp = (uint16_t*) huart->pTxBuffPtr;
1588:Drivers/STM32F7xx_HAL_Driver/Src/stm32f7xx_hal_uart.c ****         huart->Instance->TDR = (*tmp & (uint16_t)0x01FFU);
1589:Drivers/STM32F7xx_HAL_Driver/Src/stm32f7xx_hal_uart.c ****         huart->pTxBuffPtr += 2U;
1590:Drivers/STM32F7xx_HAL_Driver/Src/stm32f7xx_hal_uart.c ****       }
1591:Drivers/STM32F7xx_HAL_Driver/Src/stm32f7xx_hal_uart.c ****       else
1592:Drivers/STM32F7xx_HAL_Driver/Src/stm32f7xx_hal_uart.c ****       {
1593:Drivers/STM32F7xx_HAL_Driver/Src/stm32f7xx_hal_uart.c ****         huart->Instance->TDR = (uint8_t)(*huart->pTxBuffPtr++ & (uint8_t)0xFFU);
1594:Drivers/STM32F7xx_HAL_Driver/Src/stm32f7xx_hal_uart.c ****       }
1595:Drivers/STM32F7xx_HAL_Driver/Src/stm32f7xx_hal_uart.c **** 
1596:Drivers/STM32F7xx_HAL_Driver/Src/stm32f7xx_hal_uart.c ****       huart->TxXferCount--;
1597:Drivers/STM32F7xx_HAL_Driver/Src/stm32f7xx_hal_uart.c **** 
1598:Drivers/STM32F7xx_HAL_Driver/Src/stm32f7xx_hal_uart.c ****       return HAL_OK;
1599:Drivers/STM32F7xx_HAL_Driver/Src/stm32f7xx_hal_uart.c ****     }
1600:Drivers/STM32F7xx_HAL_Driver/Src/stm32f7xx_hal_uart.c ****   }
1601:Drivers/STM32F7xx_HAL_Driver/Src/stm32f7xx_hal_uart.c ****   else
1602:Drivers/STM32F7xx_HAL_Driver/Src/stm32f7xx_hal_uart.c ****   {
1603:Drivers/STM32F7xx_HAL_Driver/Src/stm32f7xx_hal_uart.c ****     return HAL_BUSY;
  38              		.loc 1 1603 0
  39 000a 0220     		movs	r0, #2
  40              	.LVL1:
1604:Drivers/STM32F7xx_HAL_Driver/Src/stm32f7xx_hal_uart.c ****   }
1605:Drivers/STM32F7xx_HAL_Driver/Src/stm32f7xx_hal_uart.c **** }
  41              		.loc 1 1605 0
  42 000c 7047     		bx	lr
  43              	.LVL2:
  44              	.L7:
1573:Drivers/STM32F7xx_HAL_Driver/Src/stm32f7xx_hal_uart.c ****     {
  45              		.loc 1 1573 0
  46 000e B0F85230 		ldrh	r3, [r0, #82]
  47 0012 9BB2     		uxth	r3, r3
  48 0014 93B1     		cbz	r3, .L8
ARM GAS  C:\Users\Student\AppData\Local\Temp\cc4Wk4r8.s 			page 30


1585:Drivers/STM32F7xx_HAL_Driver/Src/stm32f7xx_hal_uart.c ****       {
  49              		.loc 1 1585 0
  50 0016 8368     		ldr	r3, [r0, #8]
  51 0018 B3F5805F 		cmp	r3, #4096
  52 001c 1AD0     		beq	.L9
  53              	.L4:
1593:Drivers/STM32F7xx_HAL_Driver/Src/stm32f7xx_hal_uart.c ****       }
  54              		.loc 1 1593 0
  55 001e 0268     		ldr	r2, [r0]
  56 0020 C36C     		ldr	r3, [r0, #76]
  57 0022 591C     		adds	r1, r3, #1
  58 0024 C164     		str	r1, [r0, #76]
  59 0026 1B78     		ldrb	r3, [r3]	@ zero_extendqisi2
  60 0028 9362     		str	r3, [r2, #40]
  61              	.L5:
1596:Drivers/STM32F7xx_HAL_Driver/Src/stm32f7xx_hal_uart.c **** 
  62              		.loc 1 1596 0
  63 002a B0F85230 		ldrh	r3, [r0, #82]
  64 002e 9BB2     		uxth	r3, r3
  65 0030 013B     		subs	r3, r3, #1
  66 0032 9BB2     		uxth	r3, r3
  67 0034 A0F85230 		strh	r3, [r0, #82]	@ movhi
1598:Drivers/STM32F7xx_HAL_Driver/Src/stm32f7xx_hal_uart.c ****     }
  68              		.loc 1 1598 0
  69 0038 0020     		movs	r0, #0
  70              	.LVL3:
  71 003a 7047     		bx	lr
  72              	.LVL4:
  73              	.L8:
1576:Drivers/STM32F7xx_HAL_Driver/Src/stm32f7xx_hal_uart.c **** 
  74              		.loc 1 1576 0
  75 003c 0268     		ldr	r2, [r0]
  76 003e 1368     		ldr	r3, [r2]
  77 0040 23F08003 		bic	r3, r3, #128
  78 0044 1360     		str	r3, [r2]
1579:Drivers/STM32F7xx_HAL_Driver/Src/stm32f7xx_hal_uart.c **** 
  79              		.loc 1 1579 0
  80 0046 0268     		ldr	r2, [r0]
  81 0048 1368     		ldr	r3, [r2]
  82 004a 43F04003 		orr	r3, r3, #64
  83 004e 1360     		str	r3, [r2]
1581:Drivers/STM32F7xx_HAL_Driver/Src/stm32f7xx_hal_uart.c ****     }
  84              		.loc 1 1581 0
  85 0050 0020     		movs	r0, #0
  86              	.LVL5:
  87 0052 7047     		bx	lr
  88              	.LVL6:
  89              	.L9:
1585:Drivers/STM32F7xx_HAL_Driver/Src/stm32f7xx_hal_uart.c ****       {
  90              		.loc 1 1585 0 discriminator 1
  91 0054 0369     		ldr	r3, [r0, #16]
  92 0056 002B     		cmp	r3, #0
  93 0058 E1D1     		bne	.L4
1587:Drivers/STM32F7xx_HAL_Driver/Src/stm32f7xx_hal_uart.c ****         huart->Instance->TDR = (*tmp & (uint16_t)0x01FFU);
  94              		.loc 1 1587 0
  95 005a C36C     		ldr	r3, [r0, #76]
  96              	.LVL7:
ARM GAS  C:\Users\Student\AppData\Local\Temp\cc4Wk4r8.s 			page 31


1588:Drivers/STM32F7xx_HAL_Driver/Src/stm32f7xx_hal_uart.c ****         huart->pTxBuffPtr += 2U;
  97              		.loc 1 1588 0
  98 005c 0268     		ldr	r2, [r0]
  99 005e 1B88     		ldrh	r3, [r3]
 100              	.LVL8:
 101 0060 C3F30803 		ubfx	r3, r3, #0, #9
 102 0064 9362     		str	r3, [r2, #40]
 103              	.LVL9:
1589:Drivers/STM32F7xx_HAL_Driver/Src/stm32f7xx_hal_uart.c ****       }
 104              		.loc 1 1589 0
 105 0066 C36C     		ldr	r3, [r0, #76]
 106 0068 0233     		adds	r3, r3, #2
 107 006a C364     		str	r3, [r0, #76]
 108 006c DDE7     		b	.L5
 109              		.cfi_endproc
 110              	.LFE166:
 112              		.section	.text.UART_EndTxTransfer,"ax",%progbits
 113              		.align	1
 114              		.syntax unified
 115              		.thumb
 116              		.thumb_func
 117              		.fpu fpv5-sp-d16
 119              	UART_EndTxTransfer:
 120              	.LFB169:
1606:Drivers/STM32F7xx_HAL_Driver/Src/stm32f7xx_hal_uart.c **** 
1607:Drivers/STM32F7xx_HAL_Driver/Src/stm32f7xx_hal_uart.c **** /**
1608:Drivers/STM32F7xx_HAL_Driver/Src/stm32f7xx_hal_uart.c ****   * @brief  Wrap up transmission in non-blocking mode.
1609:Drivers/STM32F7xx_HAL_Driver/Src/stm32f7xx_hal_uart.c ****   * @param  huart pointer to a UART_HandleTypeDef structure that contains
1610:Drivers/STM32F7xx_HAL_Driver/Src/stm32f7xx_hal_uart.c ****   *                the configuration information for the specified UART module.
1611:Drivers/STM32F7xx_HAL_Driver/Src/stm32f7xx_hal_uart.c ****   * @retval HAL status
1612:Drivers/STM32F7xx_HAL_Driver/Src/stm32f7xx_hal_uart.c ****   */
1613:Drivers/STM32F7xx_HAL_Driver/Src/stm32f7xx_hal_uart.c **** static HAL_StatusTypeDef UART_EndTransmit_IT(UART_HandleTypeDef *huart)
1614:Drivers/STM32F7xx_HAL_Driver/Src/stm32f7xx_hal_uart.c **** {
1615:Drivers/STM32F7xx_HAL_Driver/Src/stm32f7xx_hal_uart.c ****   /* Disable the UART Transmit Complete Interrupt */
1616:Drivers/STM32F7xx_HAL_Driver/Src/stm32f7xx_hal_uart.c ****   CLEAR_BIT(huart->Instance->CR1, USART_CR1_TCIE);
1617:Drivers/STM32F7xx_HAL_Driver/Src/stm32f7xx_hal_uart.c **** 
1618:Drivers/STM32F7xx_HAL_Driver/Src/stm32f7xx_hal_uart.c ****   /* Tx process is ended, restore huart->gState to Ready */
1619:Drivers/STM32F7xx_HAL_Driver/Src/stm32f7xx_hal_uart.c ****   huart->gState = HAL_UART_STATE_READY;
1620:Drivers/STM32F7xx_HAL_Driver/Src/stm32f7xx_hal_uart.c **** 
1621:Drivers/STM32F7xx_HAL_Driver/Src/stm32f7xx_hal_uart.c ****   HAL_UART_TxCpltCallback(huart);
1622:Drivers/STM32F7xx_HAL_Driver/Src/stm32f7xx_hal_uart.c **** 
1623:Drivers/STM32F7xx_HAL_Driver/Src/stm32f7xx_hal_uart.c ****   return HAL_OK;
1624:Drivers/STM32F7xx_HAL_Driver/Src/stm32f7xx_hal_uart.c **** }
1625:Drivers/STM32F7xx_HAL_Driver/Src/stm32f7xx_hal_uart.c **** 
1626:Drivers/STM32F7xx_HAL_Driver/Src/stm32f7xx_hal_uart.c **** /**
1627:Drivers/STM32F7xx_HAL_Driver/Src/stm32f7xx_hal_uart.c ****   * @brief Receive an amount of data in interrupt mode
1628:Drivers/STM32F7xx_HAL_Driver/Src/stm32f7xx_hal_uart.c ****   *         Function called under interruption only, once
1629:Drivers/STM32F7xx_HAL_Driver/Src/stm32f7xx_hal_uart.c ****   *         interruptions have been enabled by HAL_UART_Receive_IT()
1630:Drivers/STM32F7xx_HAL_Driver/Src/stm32f7xx_hal_uart.c ****   * @param  huart UART handle
1631:Drivers/STM32F7xx_HAL_Driver/Src/stm32f7xx_hal_uart.c ****   * @retval HAL status
1632:Drivers/STM32F7xx_HAL_Driver/Src/stm32f7xx_hal_uart.c ****   */
1633:Drivers/STM32F7xx_HAL_Driver/Src/stm32f7xx_hal_uart.c **** static HAL_StatusTypeDef UART_Receive_IT(UART_HandleTypeDef *huart)
1634:Drivers/STM32F7xx_HAL_Driver/Src/stm32f7xx_hal_uart.c **** {
1635:Drivers/STM32F7xx_HAL_Driver/Src/stm32f7xx_hal_uart.c ****   uint16_t* tmp;
1636:Drivers/STM32F7xx_HAL_Driver/Src/stm32f7xx_hal_uart.c ****   uint16_t uhMask = huart->Mask;
1637:Drivers/STM32F7xx_HAL_Driver/Src/stm32f7xx_hal_uart.c **** 
1638:Drivers/STM32F7xx_HAL_Driver/Src/stm32f7xx_hal_uart.c ****   /* Check that a Rx process is ongoing */
ARM GAS  C:\Users\Student\AppData\Local\Temp\cc4Wk4r8.s 			page 32


1639:Drivers/STM32F7xx_HAL_Driver/Src/stm32f7xx_hal_uart.c ****   if(huart->RxState == HAL_UART_STATE_BUSY_RX)
1640:Drivers/STM32F7xx_HAL_Driver/Src/stm32f7xx_hal_uart.c ****   {
1641:Drivers/STM32F7xx_HAL_Driver/Src/stm32f7xx_hal_uart.c **** 
1642:Drivers/STM32F7xx_HAL_Driver/Src/stm32f7xx_hal_uart.c ****     if ((huart->Init.WordLength == UART_WORDLENGTH_9B) && (huart->Init.Parity == UART_PARITY_NONE))
1643:Drivers/STM32F7xx_HAL_Driver/Src/stm32f7xx_hal_uart.c ****     {
1644:Drivers/STM32F7xx_HAL_Driver/Src/stm32f7xx_hal_uart.c ****       tmp = (uint16_t*) huart->pRxBuffPtr ;
1645:Drivers/STM32F7xx_HAL_Driver/Src/stm32f7xx_hal_uart.c ****       *tmp = (uint16_t)(huart->Instance->RDR & uhMask);
1646:Drivers/STM32F7xx_HAL_Driver/Src/stm32f7xx_hal_uart.c ****       huart->pRxBuffPtr +=2;
1647:Drivers/STM32F7xx_HAL_Driver/Src/stm32f7xx_hal_uart.c ****     }
1648:Drivers/STM32F7xx_HAL_Driver/Src/stm32f7xx_hal_uart.c ****     else
1649:Drivers/STM32F7xx_HAL_Driver/Src/stm32f7xx_hal_uart.c ****     {
1650:Drivers/STM32F7xx_HAL_Driver/Src/stm32f7xx_hal_uart.c ****       *huart->pRxBuffPtr++ = (uint8_t)(huart->Instance->RDR & (uint8_t)uhMask);
1651:Drivers/STM32F7xx_HAL_Driver/Src/stm32f7xx_hal_uart.c ****     }
1652:Drivers/STM32F7xx_HAL_Driver/Src/stm32f7xx_hal_uart.c **** 
1653:Drivers/STM32F7xx_HAL_Driver/Src/stm32f7xx_hal_uart.c ****     if(--huart->RxXferCount == 0)
1654:Drivers/STM32F7xx_HAL_Driver/Src/stm32f7xx_hal_uart.c ****     {
1655:Drivers/STM32F7xx_HAL_Driver/Src/stm32f7xx_hal_uart.c ****       /* Disable the UART Parity Error Interrupt and RXNE interrupt*/
1656:Drivers/STM32F7xx_HAL_Driver/Src/stm32f7xx_hal_uart.c ****       CLEAR_BIT(huart->Instance->CR1, (USART_CR1_RXNEIE | USART_CR1_PEIE));
1657:Drivers/STM32F7xx_HAL_Driver/Src/stm32f7xx_hal_uart.c **** 
1658:Drivers/STM32F7xx_HAL_Driver/Src/stm32f7xx_hal_uart.c ****       /* Disable the UART Error Interrupt: (Frame error, noise error, overrun error) */
1659:Drivers/STM32F7xx_HAL_Driver/Src/stm32f7xx_hal_uart.c ****       CLEAR_BIT(huart->Instance->CR3, USART_CR3_EIE);
1660:Drivers/STM32F7xx_HAL_Driver/Src/stm32f7xx_hal_uart.c **** 
1661:Drivers/STM32F7xx_HAL_Driver/Src/stm32f7xx_hal_uart.c ****       /* Rx process is completed, restore huart->RxState to Ready */
1662:Drivers/STM32F7xx_HAL_Driver/Src/stm32f7xx_hal_uart.c ****       huart->RxState = HAL_UART_STATE_READY;
1663:Drivers/STM32F7xx_HAL_Driver/Src/stm32f7xx_hal_uart.c **** 
1664:Drivers/STM32F7xx_HAL_Driver/Src/stm32f7xx_hal_uart.c ****       HAL_UART_RxCpltCallback(huart);
1665:Drivers/STM32F7xx_HAL_Driver/Src/stm32f7xx_hal_uart.c **** 
1666:Drivers/STM32F7xx_HAL_Driver/Src/stm32f7xx_hal_uart.c ****       return HAL_OK;
1667:Drivers/STM32F7xx_HAL_Driver/Src/stm32f7xx_hal_uart.c ****     }
1668:Drivers/STM32F7xx_HAL_Driver/Src/stm32f7xx_hal_uart.c **** 
1669:Drivers/STM32F7xx_HAL_Driver/Src/stm32f7xx_hal_uart.c ****     return HAL_OK;
1670:Drivers/STM32F7xx_HAL_Driver/Src/stm32f7xx_hal_uart.c ****   }
1671:Drivers/STM32F7xx_HAL_Driver/Src/stm32f7xx_hal_uart.c ****   else
1672:Drivers/STM32F7xx_HAL_Driver/Src/stm32f7xx_hal_uart.c ****   {
1673:Drivers/STM32F7xx_HAL_Driver/Src/stm32f7xx_hal_uart.c ****     /* Clear RXNE interrupt flag */
1674:Drivers/STM32F7xx_HAL_Driver/Src/stm32f7xx_hal_uart.c ****     __HAL_UART_SEND_REQ(huart, UART_RXDATA_FLUSH_REQUEST);
1675:Drivers/STM32F7xx_HAL_Driver/Src/stm32f7xx_hal_uart.c **** 
1676:Drivers/STM32F7xx_HAL_Driver/Src/stm32f7xx_hal_uart.c ****     return HAL_BUSY;
1677:Drivers/STM32F7xx_HAL_Driver/Src/stm32f7xx_hal_uart.c ****   }
1678:Drivers/STM32F7xx_HAL_Driver/Src/stm32f7xx_hal_uart.c **** }
1679:Drivers/STM32F7xx_HAL_Driver/Src/stm32f7xx_hal_uart.c **** 
1680:Drivers/STM32F7xx_HAL_Driver/Src/stm32f7xx_hal_uart.c **** /**
1681:Drivers/STM32F7xx_HAL_Driver/Src/stm32f7xx_hal_uart.c ****   * @brief  End ongoing Tx transfer on UART peripheral (following error detection or Transmit compl
1682:Drivers/STM32F7xx_HAL_Driver/Src/stm32f7xx_hal_uart.c ****   * @param  huart UART handle.
1683:Drivers/STM32F7xx_HAL_Driver/Src/stm32f7xx_hal_uart.c ****   * @retval None
1684:Drivers/STM32F7xx_HAL_Driver/Src/stm32f7xx_hal_uart.c ****   */
1685:Drivers/STM32F7xx_HAL_Driver/Src/stm32f7xx_hal_uart.c **** static void UART_EndTxTransfer(UART_HandleTypeDef *huart)
1686:Drivers/STM32F7xx_HAL_Driver/Src/stm32f7xx_hal_uart.c **** {
 121              		.loc 1 1686 0
 122              		.cfi_startproc
 123              		@ args = 0, pretend = 0, frame = 0
 124              		@ frame_needed = 0, uses_anonymous_args = 0
 125              		@ link register save eliminated.
 126              	.LVL10:
1687:Drivers/STM32F7xx_HAL_Driver/Src/stm32f7xx_hal_uart.c ****   /* Disable TXEIE and TCIE interrupts */
1688:Drivers/STM32F7xx_HAL_Driver/Src/stm32f7xx_hal_uart.c ****   CLEAR_BIT(huart->Instance->CR1, (USART_CR1_TXEIE | USART_CR1_TCIE));
 127              		.loc 1 1688 0
ARM GAS  C:\Users\Student\AppData\Local\Temp\cc4Wk4r8.s 			page 33


 128 0000 0268     		ldr	r2, [r0]
 129 0002 1368     		ldr	r3, [r2]
 130 0004 23F0C003 		bic	r3, r3, #192
 131 0008 1360     		str	r3, [r2]
1689:Drivers/STM32F7xx_HAL_Driver/Src/stm32f7xx_hal_uart.c **** 
1690:Drivers/STM32F7xx_HAL_Driver/Src/stm32f7xx_hal_uart.c ****   /* At end of Tx process, restore huart->gState to Ready */
1691:Drivers/STM32F7xx_HAL_Driver/Src/stm32f7xx_hal_uart.c ****   huart->gState = HAL_UART_STATE_READY;
 132              		.loc 1 1691 0
 133 000a 2023     		movs	r3, #32
 134 000c 80F86930 		strb	r3, [r0, #105]
 135 0010 7047     		bx	lr
 136              		.cfi_endproc
 137              	.LFE169:
 139              		.section	.text.UART_EndRxTransfer,"ax",%progbits
 140              		.align	1
 141              		.syntax unified
 142              		.thumb
 143              		.thumb_func
 144              		.fpu fpv5-sp-d16
 146              	UART_EndRxTransfer:
 147              	.LFB170:
1692:Drivers/STM32F7xx_HAL_Driver/Src/stm32f7xx_hal_uart.c **** }
1693:Drivers/STM32F7xx_HAL_Driver/Src/stm32f7xx_hal_uart.c **** 
1694:Drivers/STM32F7xx_HAL_Driver/Src/stm32f7xx_hal_uart.c **** 
1695:Drivers/STM32F7xx_HAL_Driver/Src/stm32f7xx_hal_uart.c **** /**
1696:Drivers/STM32F7xx_HAL_Driver/Src/stm32f7xx_hal_uart.c ****   * @brief  End ongoing Rx transfer on UART peripheral (following error detection or Reception comp
1697:Drivers/STM32F7xx_HAL_Driver/Src/stm32f7xx_hal_uart.c ****   * @param  huart UART handle.
1698:Drivers/STM32F7xx_HAL_Driver/Src/stm32f7xx_hal_uart.c ****   * @retval None
1699:Drivers/STM32F7xx_HAL_Driver/Src/stm32f7xx_hal_uart.c ****   */
1700:Drivers/STM32F7xx_HAL_Driver/Src/stm32f7xx_hal_uart.c **** static void UART_EndRxTransfer(UART_HandleTypeDef *huart)
1701:Drivers/STM32F7xx_HAL_Driver/Src/stm32f7xx_hal_uart.c **** {
 148              		.loc 1 1701 0
 149              		.cfi_startproc
 150              		@ args = 0, pretend = 0, frame = 0
 151              		@ frame_needed = 0, uses_anonymous_args = 0
 152              		@ link register save eliminated.
 153              	.LVL11:
1702:Drivers/STM32F7xx_HAL_Driver/Src/stm32f7xx_hal_uart.c ****   /* Disable RXNE, PE and ERR (Frame error, noise error, overrun error) interrupts */
1703:Drivers/STM32F7xx_HAL_Driver/Src/stm32f7xx_hal_uart.c ****   CLEAR_BIT(huart->Instance->CR1, (USART_CR1_RXNEIE | USART_CR1_PEIE));
 154              		.loc 1 1703 0
 155 0000 0268     		ldr	r2, [r0]
 156 0002 1368     		ldr	r3, [r2]
 157 0004 23F49073 		bic	r3, r3, #288
 158 0008 1360     		str	r3, [r2]
1704:Drivers/STM32F7xx_HAL_Driver/Src/stm32f7xx_hal_uart.c ****   CLEAR_BIT(huart->Instance->CR3, USART_CR3_EIE);
 159              		.loc 1 1704 0
 160 000a 0268     		ldr	r2, [r0]
 161 000c 9368     		ldr	r3, [r2, #8]
 162 000e 23F00103 		bic	r3, r3, #1
 163 0012 9360     		str	r3, [r2, #8]
1705:Drivers/STM32F7xx_HAL_Driver/Src/stm32f7xx_hal_uart.c **** 
1706:Drivers/STM32F7xx_HAL_Driver/Src/stm32f7xx_hal_uart.c ****   /* At end of Rx process, restore huart->RxState to Ready */
1707:Drivers/STM32F7xx_HAL_Driver/Src/stm32f7xx_hal_uart.c ****   huart->RxState = HAL_UART_STATE_READY;
 164              		.loc 1 1707 0
 165 0014 2023     		movs	r3, #32
 166 0016 80F86A30 		strb	r3, [r0, #106]
 167 001a 7047     		bx	lr
ARM GAS  C:\Users\Student\AppData\Local\Temp\cc4Wk4r8.s 			page 34


 168              		.cfi_endproc
 169              	.LFE170:
 171              		.section	.text.HAL_UART_MspInit,"ax",%progbits
 172              		.align	1
 173              		.weak	HAL_UART_MspInit
 174              		.syntax unified
 175              		.thumb
 176              		.thumb_func
 177              		.fpu fpv5-sp-d16
 179              	HAL_UART_MspInit:
 180              	.LFB142:
 624:Drivers/STM32F7xx_HAL_Driver/Src/stm32f7xx_hal_uart.c ****   /* Prevent unused argument(s) compilation warning */
 181              		.loc 1 624 0
 182              		.cfi_startproc
 183              		@ args = 0, pretend = 0, frame = 0
 184              		@ frame_needed = 0, uses_anonymous_args = 0
 185              		@ link register save eliminated.
 186              	.LVL12:
 187 0000 7047     		bx	lr
 188              		.cfi_endproc
 189              	.LFE142:
 191              		.section	.text.HAL_UART_MspDeInit,"ax",%progbits
 192              		.align	1
 193              		.weak	HAL_UART_MspDeInit
 194              		.syntax unified
 195              		.thumb
 196              		.thumb_func
 197              		.fpu fpv5-sp-d16
 199              	HAL_UART_MspDeInit:
 200              	.LFB143:
 639:Drivers/STM32F7xx_HAL_Driver/Src/stm32f7xx_hal_uart.c ****   /* Prevent unused argument(s) compilation warning */
 201              		.loc 1 639 0
 202              		.cfi_startproc
 203              		@ args = 0, pretend = 0, frame = 0
 204              		@ frame_needed = 0, uses_anonymous_args = 0
 205              		@ link register save eliminated.
 206              	.LVL13:
 207 0000 7047     		bx	lr
 208              		.cfi_endproc
 209              	.LFE143:
 211              		.section	.text.HAL_UART_DeInit,"ax",%progbits
 212              		.align	1
 213              		.global	HAL_UART_DeInit
 214              		.syntax unified
 215              		.thumb
 216              		.thumb_func
 217              		.fpu fpv5-sp-d16
 219              	HAL_UART_DeInit:
 220              	.LFB141:
 586:Drivers/STM32F7xx_HAL_Driver/Src/stm32f7xx_hal_uart.c ****   /* Check the UART handle allocation */
 221              		.loc 1 586 0
 222              		.cfi_startproc
 223              		@ args = 0, pretend = 0, frame = 0
 224              		@ frame_needed = 0, uses_anonymous_args = 0
 225              	.LVL14:
 588:Drivers/STM32F7xx_HAL_Driver/Src/stm32f7xx_hal_uart.c ****   {
 226              		.loc 1 588 0
ARM GAS  C:\Users\Student\AppData\Local\Temp\cc4Wk4r8.s 			page 35


 227 0000 D8B1     		cbz	r0, .L16
 586:Drivers/STM32F7xx_HAL_Driver/Src/stm32f7xx_hal_uart.c ****   /* Check the UART handle allocation */
 228              		.loc 1 586 0
 229 0002 38B5     		push	{r3, r4, r5, lr}
 230              	.LCFI0:
 231              		.cfi_def_cfa_offset 16
 232              		.cfi_offset 3, -16
 233              		.cfi_offset 4, -12
 234              		.cfi_offset 5, -8
 235              		.cfi_offset 14, -4
 236 0004 0446     		mov	r4, r0
 596:Drivers/STM32F7xx_HAL_Driver/Src/stm32f7xx_hal_uart.c **** 
 237              		.loc 1 596 0
 238 0006 2423     		movs	r3, #36
 239 0008 80F86930 		strb	r3, [r0, #105]
 599:Drivers/STM32F7xx_HAL_Driver/Src/stm32f7xx_hal_uart.c **** 
 240              		.loc 1 599 0
 241 000c 0268     		ldr	r2, [r0]
 242 000e 1368     		ldr	r3, [r2]
 243 0010 23F00103 		bic	r3, r3, #1
 244 0014 1360     		str	r3, [r2]
 601:Drivers/STM32F7xx_HAL_Driver/Src/stm32f7xx_hal_uart.c ****   huart->Instance->CR2 = 0x0U;
 245              		.loc 1 601 0
 246 0016 0368     		ldr	r3, [r0]
 247 0018 0025     		movs	r5, #0
 248 001a 1D60     		str	r5, [r3]
 602:Drivers/STM32F7xx_HAL_Driver/Src/stm32f7xx_hal_uart.c ****   huart->Instance->CR3 = 0x0U;
 249              		.loc 1 602 0
 250 001c 0368     		ldr	r3, [r0]
 251 001e 5D60     		str	r5, [r3, #4]
 603:Drivers/STM32F7xx_HAL_Driver/Src/stm32f7xx_hal_uart.c **** 
 252              		.loc 1 603 0
 253 0020 0368     		ldr	r3, [r0]
 254 0022 9D60     		str	r5, [r3, #8]
 606:Drivers/STM32F7xx_HAL_Driver/Src/stm32f7xx_hal_uart.c **** 
 255              		.loc 1 606 0
 256 0024 FFF7FEFF 		bl	HAL_UART_MspDeInit
 257              	.LVL15:
 608:Drivers/STM32F7xx_HAL_Driver/Src/stm32f7xx_hal_uart.c ****   huart->gState    = HAL_UART_STATE_RESET;
 258              		.loc 1 608 0
 259 0028 E566     		str	r5, [r4, #108]
 609:Drivers/STM32F7xx_HAL_Driver/Src/stm32f7xx_hal_uart.c ****   huart->RxState   = HAL_UART_STATE_RESET;
 260              		.loc 1 609 0
 261 002a 84F86950 		strb	r5, [r4, #105]
 610:Drivers/STM32F7xx_HAL_Driver/Src/stm32f7xx_hal_uart.c **** 
 262              		.loc 1 610 0
 263 002e 84F86A50 		strb	r5, [r4, #106]
 613:Drivers/STM32F7xx_HAL_Driver/Src/stm32f7xx_hal_uart.c **** 
 264              		.loc 1 613 0
 265 0032 84F86850 		strb	r5, [r4, #104]
 615:Drivers/STM32F7xx_HAL_Driver/Src/stm32f7xx_hal_uart.c **** }
 266              		.loc 1 615 0
 267 0036 2846     		mov	r0, r5
 268 0038 38BD     		pop	{r3, r4, r5, pc}
 269              	.LVL16:
 270              	.L16:
 271              	.LCFI1:
ARM GAS  C:\Users\Student\AppData\Local\Temp\cc4Wk4r8.s 			page 36


 272              		.cfi_def_cfa_offset 0
 273              		.cfi_restore 3
 274              		.cfi_restore 4
 275              		.cfi_restore 5
 276              		.cfi_restore 14
 590:Drivers/STM32F7xx_HAL_Driver/Src/stm32f7xx_hal_uart.c ****   }
 277              		.loc 1 590 0
 278 003a 0120     		movs	r0, #1
 279              	.LVL17:
 280 003c 7047     		bx	lr
 281              		.cfi_endproc
 282              	.LFE141:
 284              		.section	.text.HAL_UART_Transmit_IT,"ax",%progbits
 285              		.align	1
 286              		.global	HAL_UART_Transmit_IT
 287              		.syntax unified
 288              		.thumb
 289              		.thumb_func
 290              		.fpu fpv5-sp-d16
 292              	HAL_UART_Transmit_IT:
 293              	.LFB146:
 857:Drivers/STM32F7xx_HAL_Driver/Src/stm32f7xx_hal_uart.c ****   /* Check that a Tx process is not already ongoing */
 294              		.loc 1 857 0
 295              		.cfi_startproc
 296              		@ args = 0, pretend = 0, frame = 0
 297              		@ frame_needed = 0, uses_anonymous_args = 0
 298              		@ link register save eliminated.
 299              	.LVL18:
 859:Drivers/STM32F7xx_HAL_Driver/Src/stm32f7xx_hal_uart.c ****   {
 300              		.loc 1 859 0
 301 0000 90F86930 		ldrb	r3, [r0, #105]	@ zero_extendqisi2
 302 0004 DBB2     		uxtb	r3, r3
 303 0006 202B     		cmp	r3, #32
 304 0008 01D0     		beq	.L26
 886:Drivers/STM32F7xx_HAL_Driver/Src/stm32f7xx_hal_uart.c ****   }
 305              		.loc 1 886 0
 306 000a 0220     		movs	r0, #2
 307              	.LVL19:
 308 000c 7047     		bx	lr
 309              	.LVL20:
 310              	.L26:
 861:Drivers/STM32F7xx_HAL_Driver/Src/stm32f7xx_hal_uart.c ****     {
 311              		.loc 1 861 0
 312 000e 002A     		cmp	r2, #0
 313 0010 18BF     		it	ne
 314 0012 0029     		cmpne	r1, #0
 315 0014 16D0     		beq	.L24
 867:Drivers/STM32F7xx_HAL_Driver/Src/stm32f7xx_hal_uart.c **** 
 316              		.loc 1 867 0
 317 0016 90F86830 		ldrb	r3, [r0, #104]	@ zero_extendqisi2
 318 001a 012B     		cmp	r3, #1
 319 001c 14D0     		beq	.L25
 869:Drivers/STM32F7xx_HAL_Driver/Src/stm32f7xx_hal_uart.c ****     huart->TxXferSize = Size;
 320              		.loc 1 869 0 discriminator 2
 321 001e C164     		str	r1, [r0, #76]
 870:Drivers/STM32F7xx_HAL_Driver/Src/stm32f7xx_hal_uart.c ****     huart->TxXferCount = Size;
 322              		.loc 1 870 0 discriminator 2
ARM GAS  C:\Users\Student\AppData\Local\Temp\cc4Wk4r8.s 			page 37


 323 0020 A0F85020 		strh	r2, [r0, #80]	@ movhi
 871:Drivers/STM32F7xx_HAL_Driver/Src/stm32f7xx_hal_uart.c **** 
 324              		.loc 1 871 0 discriminator 2
 325 0024 A0F85220 		strh	r2, [r0, #82]	@ movhi
 873:Drivers/STM32F7xx_HAL_Driver/Src/stm32f7xx_hal_uart.c ****     huart->gState = HAL_UART_STATE_BUSY_TX;
 326              		.loc 1 873 0 discriminator 2
 327 0028 0023     		movs	r3, #0
 328 002a C366     		str	r3, [r0, #108]
 874:Drivers/STM32F7xx_HAL_Driver/Src/stm32f7xx_hal_uart.c **** 
 329              		.loc 1 874 0 discriminator 2
 330 002c 2122     		movs	r2, #33
 331              	.LVL21:
 332 002e 80F86920 		strb	r2, [r0, #105]
 877:Drivers/STM32F7xx_HAL_Driver/Src/stm32f7xx_hal_uart.c **** 
 333              		.loc 1 877 0 discriminator 2
 334 0032 80F86830 		strb	r3, [r0, #104]
 880:Drivers/STM32F7xx_HAL_Driver/Src/stm32f7xx_hal_uart.c **** 
 335              		.loc 1 880 0 discriminator 2
 336 0036 0168     		ldr	r1, [r0]
 337              	.LVL22:
 338 0038 0A68     		ldr	r2, [r1]
 339 003a 42F08002 		orr	r2, r2, #128
 340 003e 0A60     		str	r2, [r1]
 341              	.LVL23:
 882:Drivers/STM32F7xx_HAL_Driver/Src/stm32f7xx_hal_uart.c ****   }
 342              		.loc 1 882 0 discriminator 2
 343 0040 1846     		mov	r0, r3
 344              	.LVL24:
 345 0042 7047     		bx	lr
 346              	.LVL25:
 347              	.L24:
 863:Drivers/STM32F7xx_HAL_Driver/Src/stm32f7xx_hal_uart.c ****     }
 348              		.loc 1 863 0
 349 0044 0120     		movs	r0, #1
 350              	.LVL26:
 351 0046 7047     		bx	lr
 352              	.LVL27:
 353              	.L25:
 867:Drivers/STM32F7xx_HAL_Driver/Src/stm32f7xx_hal_uart.c **** 
 354              		.loc 1 867 0
 355 0048 0220     		movs	r0, #2
 356              	.LVL28:
 888:Drivers/STM32F7xx_HAL_Driver/Src/stm32f7xx_hal_uart.c **** 
 357              		.loc 1 888 0
 358 004a 7047     		bx	lr
 359              		.cfi_endproc
 360              	.LFE146:
 362              		.section	.text.HAL_UART_Receive_IT,"ax",%progbits
 363              		.align	1
 364              		.global	HAL_UART_Receive_IT
 365              		.syntax unified
 366              		.thumb
 367              		.thumb_func
 368              		.fpu fpv5-sp-d16
 370              	HAL_UART_Receive_IT:
 371              	.LFB147:
 898:Drivers/STM32F7xx_HAL_Driver/Src/stm32f7xx_hal_uart.c ****   /* Check that a Rx process is not already ongoing */
ARM GAS  C:\Users\Student\AppData\Local\Temp\cc4Wk4r8.s 			page 38


 372              		.loc 1 898 0
 373              		.cfi_startproc
 374              		@ args = 0, pretend = 0, frame = 0
 375              		@ frame_needed = 0, uses_anonymous_args = 0
 376              		@ link register save eliminated.
 377              	.LVL29:
 900:Drivers/STM32F7xx_HAL_Driver/Src/stm32f7xx_hal_uart.c ****   {
 378              		.loc 1 900 0
 379 0000 90F86A30 		ldrb	r3, [r0, #106]	@ zero_extendqisi2
 380 0004 DBB2     		uxtb	r3, r3
 381 0006 202B     		cmp	r3, #32
 382 0008 01D0     		beq	.L38
 933:Drivers/STM32F7xx_HAL_Driver/Src/stm32f7xx_hal_uart.c ****   }
 383              		.loc 1 933 0
 384 000a 0220     		movs	r0, #2
 385              	.LVL30:
 386 000c 7047     		bx	lr
 387              	.LVL31:
 388              	.L38:
 902:Drivers/STM32F7xx_HAL_Driver/Src/stm32f7xx_hal_uart.c ****     {
 389              		.loc 1 902 0
 390 000e 002A     		cmp	r2, #0
 391 0010 18BF     		it	ne
 392 0012 0029     		cmpne	r1, #0
 393 0014 45D0     		beq	.L36
 908:Drivers/STM32F7xx_HAL_Driver/Src/stm32f7xx_hal_uart.c **** 
 394              		.loc 1 908 0
 395 0016 90F86830 		ldrb	r3, [r0, #104]	@ zero_extendqisi2
 396 001a 012B     		cmp	r3, #1
 397 001c 43D0     		beq	.L37
 908:Drivers/STM32F7xx_HAL_Driver/Src/stm32f7xx_hal_uart.c **** 
 398              		.loc 1 908 0 is_stmt 0 discriminator 2
 399 001e 0123     		movs	r3, #1
 400 0020 80F86830 		strb	r3, [r0, #104]
 910:Drivers/STM32F7xx_HAL_Driver/Src/stm32f7xx_hal_uart.c ****     huart->RxXferSize = Size;
 401              		.loc 1 910 0 is_stmt 1 discriminator 2
 402 0024 4165     		str	r1, [r0, #84]
 911:Drivers/STM32F7xx_HAL_Driver/Src/stm32f7xx_hal_uart.c ****     huart->RxXferCount = Size;
 403              		.loc 1 911 0 discriminator 2
 404 0026 A0F85820 		strh	r2, [r0, #88]	@ movhi
 912:Drivers/STM32F7xx_HAL_Driver/Src/stm32f7xx_hal_uart.c **** 
 405              		.loc 1 912 0 discriminator 2
 406 002a A0F85A20 		strh	r2, [r0, #90]	@ movhi
 915:Drivers/STM32F7xx_HAL_Driver/Src/stm32f7xx_hal_uart.c **** 
 407              		.loc 1 915 0 discriminator 2
 408 002e 8368     		ldr	r3, [r0, #8]
 409 0030 B3F5805F 		cmp	r3, #4096
 410 0034 06D0     		beq	.L39
 411 0036 A3B9     		cbnz	r3, .L32
 915:Drivers/STM32F7xx_HAL_Driver/Src/stm32f7xx_hal_uart.c **** 
 412              		.loc 1 915 0 is_stmt 0 discriminator 5
 413 0038 0369     		ldr	r3, [r0, #16]
 414 003a 73B9     		cbnz	r3, .L33
 915:Drivers/STM32F7xx_HAL_Driver/Src/stm32f7xx_hal_uart.c **** 
 415              		.loc 1 915 0 discriminator 7
 416 003c FF23     		movs	r3, #255
 417 003e A0F85C30 		strh	r3, [r0, #92]	@ movhi
ARM GAS  C:\Users\Student\AppData\Local\Temp\cc4Wk4r8.s 			page 39


 418 0042 11E0     		b	.L31
 419              	.L39:
 915:Drivers/STM32F7xx_HAL_Driver/Src/stm32f7xx_hal_uart.c **** 
 420              		.loc 1 915 0 discriminator 1
 421 0044 0369     		ldr	r3, [r0, #16]
 422 0046 23B9     		cbnz	r3, .L30
 915:Drivers/STM32F7xx_HAL_Driver/Src/stm32f7xx_hal_uart.c **** 
 423              		.loc 1 915 0 discriminator 3
 424 0048 40F2FF13 		movw	r3, #511
 425 004c A0F85C30 		strh	r3, [r0, #92]	@ movhi
 426 0050 0AE0     		b	.L31
 427              	.L30:
 915:Drivers/STM32F7xx_HAL_Driver/Src/stm32f7xx_hal_uart.c **** 
 428              		.loc 1 915 0 discriminator 4
 429 0052 FF23     		movs	r3, #255
 430 0054 A0F85C30 		strh	r3, [r0, #92]	@ movhi
 431 0058 06E0     		b	.L31
 432              	.L33:
 915:Drivers/STM32F7xx_HAL_Driver/Src/stm32f7xx_hal_uart.c **** 
 433              		.loc 1 915 0 discriminator 8
 434 005a 7F23     		movs	r3, #127
 435 005c A0F85C30 		strh	r3, [r0, #92]	@ movhi
 436 0060 02E0     		b	.L31
 437              	.L32:
 915:Drivers/STM32F7xx_HAL_Driver/Src/stm32f7xx_hal_uart.c **** 
 438              		.loc 1 915 0 discriminator 6
 439 0062 B3F1805F 		cmp	r3, #268435456
 440 0066 12D0     		beq	.L40
 441              	.L31:
 917:Drivers/STM32F7xx_HAL_Driver/Src/stm32f7xx_hal_uart.c ****     huart->RxState = HAL_UART_STATE_BUSY_RX;
 442              		.loc 1 917 0 is_stmt 1
 443 0068 0023     		movs	r3, #0
 444 006a C366     		str	r3, [r0, #108]
 918:Drivers/STM32F7xx_HAL_Driver/Src/stm32f7xx_hal_uart.c **** 
 445              		.loc 1 918 0
 446 006c 2222     		movs	r2, #34
 447              	.LVL32:
 448 006e 80F86A20 		strb	r2, [r0, #106]
 921:Drivers/STM32F7xx_HAL_Driver/Src/stm32f7xx_hal_uart.c **** 
 449              		.loc 1 921 0
 450 0072 80F86830 		strb	r3, [r0, #104]
 924:Drivers/STM32F7xx_HAL_Driver/Src/stm32f7xx_hal_uart.c **** 
 451              		.loc 1 924 0
 452 0076 0168     		ldr	r1, [r0]
 453              	.LVL33:
 454 0078 8A68     		ldr	r2, [r1, #8]
 455 007a 42F00102 		orr	r2, r2, #1
 456 007e 8A60     		str	r2, [r1, #8]
 457              	.LVL34:
 927:Drivers/STM32F7xx_HAL_Driver/Src/stm32f7xx_hal_uart.c **** 
 458              		.loc 1 927 0
 459 0080 0168     		ldr	r1, [r0]
 460 0082 0A68     		ldr	r2, [r1]
 461 0084 42F49072 		orr	r2, r2, #288
 462 0088 0A60     		str	r2, [r1]
 929:Drivers/STM32F7xx_HAL_Driver/Src/stm32f7xx_hal_uart.c ****   }
 463              		.loc 1 929 0
ARM GAS  C:\Users\Student\AppData\Local\Temp\cc4Wk4r8.s 			page 40


 464 008a 1846     		mov	r0, r3
 465              	.LVL35:
 466 008c 7047     		bx	lr
 467              	.LVL36:
 468              	.L40:
 915:Drivers/STM32F7xx_HAL_Driver/Src/stm32f7xx_hal_uart.c **** 
 469              		.loc 1 915 0 discriminator 9
 470 008e 0369     		ldr	r3, [r0, #16]
 471 0090 1BB9     		cbnz	r3, .L34
 915:Drivers/STM32F7xx_HAL_Driver/Src/stm32f7xx_hal_uart.c **** 
 472              		.loc 1 915 0 is_stmt 0 discriminator 10
 473 0092 7F23     		movs	r3, #127
 474 0094 A0F85C30 		strh	r3, [r0, #92]	@ movhi
 475 0098 E6E7     		b	.L31
 476              	.L34:
 915:Drivers/STM32F7xx_HAL_Driver/Src/stm32f7xx_hal_uart.c **** 
 477              		.loc 1 915 0 discriminator 11
 478 009a 3F23     		movs	r3, #63
 479 009c A0F85C30 		strh	r3, [r0, #92]	@ movhi
 480 00a0 E2E7     		b	.L31
 481              	.L36:
 904:Drivers/STM32F7xx_HAL_Driver/Src/stm32f7xx_hal_uart.c ****     }
 482              		.loc 1 904 0 is_stmt 1
 483 00a2 0120     		movs	r0, #1
 484              	.LVL37:
 485 00a4 7047     		bx	lr
 486              	.LVL38:
 487              	.L37:
 908:Drivers/STM32F7xx_HAL_Driver/Src/stm32f7xx_hal_uart.c **** 
 488              		.loc 1 908 0
 489 00a6 0220     		movs	r0, #2
 490              	.LVL39:
 935:Drivers/STM32F7xx_HAL_Driver/Src/stm32f7xx_hal_uart.c **** 
 491              		.loc 1 935 0
 492 00a8 7047     		bx	lr
 493              		.cfi_endproc
 494              	.LFE147:
 496              		.section	.text.HAL_UART_Transmit_DMA,"ax",%progbits
 497              		.align	1
 498              		.global	HAL_UART_Transmit_DMA
 499              		.syntax unified
 500              		.thumb
 501              		.thumb_func
 502              		.fpu fpv5-sp-d16
 504              	HAL_UART_Transmit_DMA:
 505              	.LFB148:
 945:Drivers/STM32F7xx_HAL_Driver/Src/stm32f7xx_hal_uart.c ****   uint32_t *tmp;
 506              		.loc 1 945 0
 507              		.cfi_startproc
 508              		@ args = 0, pretend = 0, frame = 0
 509              		@ frame_needed = 0, uses_anonymous_args = 0
 510              	.LVL40:
 511 0000 38B5     		push	{r3, r4, r5, lr}
 512              	.LCFI2:
 513              		.cfi_def_cfa_offset 16
 514              		.cfi_offset 3, -16
 515              		.cfi_offset 4, -12
ARM GAS  C:\Users\Student\AppData\Local\Temp\cc4Wk4r8.s 			page 41


 516              		.cfi_offset 5, -8
 517              		.cfi_offset 14, -4
 949:Drivers/STM32F7xx_HAL_Driver/Src/stm32f7xx_hal_uart.c ****   {
 518              		.loc 1 949 0
 519 0002 90F86940 		ldrb	r4, [r0, #105]	@ zero_extendqisi2
 520 0006 E4B2     		uxtb	r4, r4
 521 0008 202C     		cmp	r4, #32
 522 000a 01D0     		beq	.L47
 996:Drivers/STM32F7xx_HAL_Driver/Src/stm32f7xx_hal_uart.c ****   }
 523              		.loc 1 996 0
 524 000c 0220     		movs	r0, #2
 525              	.LVL41:
 526 000e 38BD     		pop	{r3, r4, r5, pc}
 527              	.LVL42:
 528              	.L47:
 951:Drivers/STM32F7xx_HAL_Driver/Src/stm32f7xx_hal_uart.c ****     {
 529              		.loc 1 951 0
 530 0010 002A     		cmp	r2, #0
 531 0012 18BF     		it	ne
 532 0014 0029     		cmpne	r1, #0
 533 0016 30D0     		beq	.L44
 957:Drivers/STM32F7xx_HAL_Driver/Src/stm32f7xx_hal_uart.c **** 
 534              		.loc 1 957 0
 535 0018 90F86830 		ldrb	r3, [r0, #104]	@ zero_extendqisi2
 536 001c 012B     		cmp	r3, #1
 537 001e 01D1     		bne	.L48
 538 0020 0220     		movs	r0, #2
 539              	.LVL43:
 998:Drivers/STM32F7xx_HAL_Driver/Src/stm32f7xx_hal_uart.c **** 
 540              		.loc 1 998 0
 541 0022 38BD     		pop	{r3, r4, r5, pc}
 542              	.LVL44:
 543              	.L48:
 544 0024 1346     		mov	r3, r2
 545 0026 0446     		mov	r4, r0
 957:Drivers/STM32F7xx_HAL_Driver/Src/stm32f7xx_hal_uart.c **** 
 546              		.loc 1 957 0 discriminator 2
 547 0028 0122     		movs	r2, #1
 548              	.LVL45:
 549 002a 80F86820 		strb	r2, [r0, #104]
 959:Drivers/STM32F7xx_HAL_Driver/Src/stm32f7xx_hal_uart.c ****     huart->TxXferSize = Size;
 550              		.loc 1 959 0 discriminator 2
 551 002e C164     		str	r1, [r0, #76]
 960:Drivers/STM32F7xx_HAL_Driver/Src/stm32f7xx_hal_uart.c ****     huart->TxXferCount = Size;
 552              		.loc 1 960 0 discriminator 2
 553 0030 A0F85030 		strh	r3, [r0, #80]	@ movhi
 961:Drivers/STM32F7xx_HAL_Driver/Src/stm32f7xx_hal_uart.c **** 
 554              		.loc 1 961 0 discriminator 2
 555 0034 A0F85230 		strh	r3, [r0, #82]	@ movhi
 963:Drivers/STM32F7xx_HAL_Driver/Src/stm32f7xx_hal_uart.c ****     huart->gState = HAL_UART_STATE_BUSY_TX;
 556              		.loc 1 963 0 discriminator 2
 557 0038 0025     		movs	r5, #0
 558 003a C566     		str	r5, [r0, #108]
 964:Drivers/STM32F7xx_HAL_Driver/Src/stm32f7xx_hal_uart.c **** 
 559              		.loc 1 964 0 discriminator 2
 560 003c 2122     		movs	r2, #33
 561 003e 80F86920 		strb	r2, [r0, #105]
ARM GAS  C:\Users\Student\AppData\Local\Temp\cc4Wk4r8.s 			page 42


 967:Drivers/STM32F7xx_HAL_Driver/Src/stm32f7xx_hal_uart.c **** 
 562              		.loc 1 967 0 discriminator 2
 563 0042 026E     		ldr	r2, [r0, #96]
 564 0044 0E48     		ldr	r0, .L49
 565              	.LVL46:
 566 0046 D063     		str	r0, [r2, #60]
 970:Drivers/STM32F7xx_HAL_Driver/Src/stm32f7xx_hal_uart.c **** 
 567              		.loc 1 970 0 discriminator 2
 568 0048 226E     		ldr	r2, [r4, #96]
 569 004a 0E48     		ldr	r0, .L49+4
 570 004c 1064     		str	r0, [r2, #64]
 973:Drivers/STM32F7xx_HAL_Driver/Src/stm32f7xx_hal_uart.c **** 
 571              		.loc 1 973 0 discriminator 2
 572 004e 226E     		ldr	r2, [r4, #96]
 573 0050 0D48     		ldr	r0, .L49+8
 574 0052 D064     		str	r0, [r2, #76]
 976:Drivers/STM32F7xx_HAL_Driver/Src/stm32f7xx_hal_uart.c **** 
 575              		.loc 1 976 0 discriminator 2
 576 0054 226E     		ldr	r2, [r4, #96]
 577 0056 1565     		str	r5, [r2, #80]
 578              	.LVL47:
 980:Drivers/STM32F7xx_HAL_Driver/Src/stm32f7xx_hal_uart.c **** 
 579              		.loc 1 980 0 discriminator 2
 580 0058 2268     		ldr	r2, [r4]
 581 005a 2832     		adds	r2, r2, #40
 582 005c 206E     		ldr	r0, [r4, #96]
 583 005e FFF7FEFF 		bl	HAL_DMA_Start_IT
 584              	.LVL48:
 983:Drivers/STM32F7xx_HAL_Driver/Src/stm32f7xx_hal_uart.c **** 
 585              		.loc 1 983 0 discriminator 2
 586 0062 2368     		ldr	r3, [r4]
 587 0064 4022     		movs	r2, #64
 588 0066 1A62     		str	r2, [r3, #32]
 986:Drivers/STM32F7xx_HAL_Driver/Src/stm32f7xx_hal_uart.c **** 
 589              		.loc 1 986 0 discriminator 2
 590 0068 84F86850 		strb	r5, [r4, #104]
 990:Drivers/STM32F7xx_HAL_Driver/Src/stm32f7xx_hal_uart.c **** 
 591              		.loc 1 990 0 discriminator 2
 592 006c 2268     		ldr	r2, [r4]
 593 006e 9368     		ldr	r3, [r2, #8]
 594 0070 43F08003 		orr	r3, r3, #128
 595 0074 9360     		str	r3, [r2, #8]
 992:Drivers/STM32F7xx_HAL_Driver/Src/stm32f7xx_hal_uart.c ****   }
 596              		.loc 1 992 0 discriminator 2
 597 0076 2846     		mov	r0, r5
 598 0078 38BD     		pop	{r3, r4, r5, pc}
 599              	.LVL49:
 600              	.L44:
 953:Drivers/STM32F7xx_HAL_Driver/Src/stm32f7xx_hal_uart.c ****     }
 601              		.loc 1 953 0
 602 007a 0120     		movs	r0, #1
 603              	.LVL50:
 604 007c 38BD     		pop	{r3, r4, r5, pc}
 605              	.L50:
 606 007e 00BF     		.align	2
 607              	.L49:
 608 0080 00000000 		.word	UART_DMATransmitCplt
ARM GAS  C:\Users\Student\AppData\Local\Temp\cc4Wk4r8.s 			page 43


 609 0084 00000000 		.word	UART_DMATxHalfCplt
 610 0088 00000000 		.word	UART_DMAError
 611              		.cfi_endproc
 612              	.LFE148:
 614              		.section	.text.HAL_UART_Receive_DMA,"ax",%progbits
 615              		.align	1
 616              		.global	HAL_UART_Receive_DMA
 617              		.syntax unified
 618              		.thumb
 619              		.thumb_func
 620              		.fpu fpv5-sp-d16
 622              	HAL_UART_Receive_DMA:
 623              	.LFB149:
1010:Drivers/STM32F7xx_HAL_Driver/Src/stm32f7xx_hal_uart.c ****   uint32_t *tmp;
 624              		.loc 1 1010 0
 625              		.cfi_startproc
 626              		@ args = 0, pretend = 0, frame = 0
 627              		@ frame_needed = 0, uses_anonymous_args = 0
 628              	.LVL51:
 629 0000 38B5     		push	{r3, r4, r5, lr}
 630              	.LCFI3:
 631              		.cfi_def_cfa_offset 16
 632              		.cfi_offset 3, -16
 633              		.cfi_offset 4, -12
 634              		.cfi_offset 5, -8
 635              		.cfi_offset 14, -4
1014:Drivers/STM32F7xx_HAL_Driver/Src/stm32f7xx_hal_uart.c ****   {
 636              		.loc 1 1014 0
 637 0002 90F86A40 		ldrb	r4, [r0, #106]	@ zero_extendqisi2
 638 0006 E4B2     		uxtb	r4, r4
 639 0008 202C     		cmp	r4, #32
 640 000a 01D0     		beq	.L57
1063:Drivers/STM32F7xx_HAL_Driver/Src/stm32f7xx_hal_uart.c ****   }
 641              		.loc 1 1063 0
 642 000c 0220     		movs	r0, #2
 643              	.LVL52:
 644 000e 38BD     		pop	{r3, r4, r5, pc}
 645              	.LVL53:
 646              	.L57:
1016:Drivers/STM32F7xx_HAL_Driver/Src/stm32f7xx_hal_uart.c ****     {
 647              		.loc 1 1016 0
 648 0010 002A     		cmp	r2, #0
 649 0012 18BF     		it	ne
 650 0014 0029     		cmpne	r1, #0
 651 0016 36D0     		beq	.L54
1022:Drivers/STM32F7xx_HAL_Driver/Src/stm32f7xx_hal_uart.c **** 
 652              		.loc 1 1022 0
 653 0018 90F86830 		ldrb	r3, [r0, #104]	@ zero_extendqisi2
 654 001c 012B     		cmp	r3, #1
 655 001e 01D1     		bne	.L58
 656 0020 0220     		movs	r0, #2
 657              	.LVL54:
1065:Drivers/STM32F7xx_HAL_Driver/Src/stm32f7xx_hal_uart.c **** 
 658              		.loc 1 1065 0
 659 0022 38BD     		pop	{r3, r4, r5, pc}
 660              	.LVL55:
 661              	.L58:
ARM GAS  C:\Users\Student\AppData\Local\Temp\cc4Wk4r8.s 			page 44


 662 0024 1346     		mov	r3, r2
 663 0026 0A46     		mov	r2, r1
 664              	.LVL56:
 665 0028 0446     		mov	r4, r0
1022:Drivers/STM32F7xx_HAL_Driver/Src/stm32f7xx_hal_uart.c **** 
 666              		.loc 1 1022 0 discriminator 2
 667 002a 0121     		movs	r1, #1
 668              	.LVL57:
 669 002c 80F86810 		strb	r1, [r0, #104]
1024:Drivers/STM32F7xx_HAL_Driver/Src/stm32f7xx_hal_uart.c ****     huart->RxXferSize = Size;
 670              		.loc 1 1024 0 discriminator 2
 671 0030 4265     		str	r2, [r0, #84]
1025:Drivers/STM32F7xx_HAL_Driver/Src/stm32f7xx_hal_uart.c **** 
 672              		.loc 1 1025 0 discriminator 2
 673 0032 A0F85830 		strh	r3, [r0, #88]	@ movhi
1027:Drivers/STM32F7xx_HAL_Driver/Src/stm32f7xx_hal_uart.c ****     huart->RxState = HAL_UART_STATE_BUSY_RX;
 674              		.loc 1 1027 0 discriminator 2
 675 0036 0025     		movs	r5, #0
 676 0038 C566     		str	r5, [r0, #108]
1028:Drivers/STM32F7xx_HAL_Driver/Src/stm32f7xx_hal_uart.c **** 
 677              		.loc 1 1028 0 discriminator 2
 678 003a 2221     		movs	r1, #34
 679 003c 80F86A10 		strb	r1, [r0, #106]
1031:Drivers/STM32F7xx_HAL_Driver/Src/stm32f7xx_hal_uart.c **** 
 680              		.loc 1 1031 0 discriminator 2
 681 0040 416E     		ldr	r1, [r0, #100]
 682 0042 1248     		ldr	r0, .L59
 683              	.LVL58:
 684 0044 C863     		str	r0, [r1, #60]
1034:Drivers/STM32F7xx_HAL_Driver/Src/stm32f7xx_hal_uart.c **** 
 685              		.loc 1 1034 0 discriminator 2
 686 0046 616E     		ldr	r1, [r4, #100]
 687 0048 1148     		ldr	r0, .L59+4
 688 004a 0864     		str	r0, [r1, #64]
1037:Drivers/STM32F7xx_HAL_Driver/Src/stm32f7xx_hal_uart.c **** 
 689              		.loc 1 1037 0 discriminator 2
 690 004c 616E     		ldr	r1, [r4, #100]
 691 004e 1148     		ldr	r0, .L59+8
 692 0050 C864     		str	r0, [r1, #76]
1040:Drivers/STM32F7xx_HAL_Driver/Src/stm32f7xx_hal_uart.c **** 
 693              		.loc 1 1040 0 discriminator 2
 694 0052 616E     		ldr	r1, [r4, #100]
 695 0054 0D65     		str	r5, [r1, #80]
 696              	.LVL59:
1044:Drivers/STM32F7xx_HAL_Driver/Src/stm32f7xx_hal_uart.c **** 
 697              		.loc 1 1044 0 discriminator 2
 698 0056 2168     		ldr	r1, [r4]
 699 0058 2431     		adds	r1, r1, #36
 700 005a 606E     		ldr	r0, [r4, #100]
 701 005c FFF7FEFF 		bl	HAL_DMA_Start_IT
 702              	.LVL60:
1047:Drivers/STM32F7xx_HAL_Driver/Src/stm32f7xx_hal_uart.c **** 
 703              		.loc 1 1047 0 discriminator 2
 704 0060 84F86850 		strb	r5, [r4, #104]
1050:Drivers/STM32F7xx_HAL_Driver/Src/stm32f7xx_hal_uart.c **** 
 705              		.loc 1 1050 0 discriminator 2
 706 0064 2268     		ldr	r2, [r4]
ARM GAS  C:\Users\Student\AppData\Local\Temp\cc4Wk4r8.s 			page 45


 707 0066 1368     		ldr	r3, [r2]
 708 0068 43F48073 		orr	r3, r3, #256
 709 006c 1360     		str	r3, [r2]
1053:Drivers/STM32F7xx_HAL_Driver/Src/stm32f7xx_hal_uart.c **** 
 710              		.loc 1 1053 0 discriminator 2
 711 006e 2268     		ldr	r2, [r4]
 712 0070 9368     		ldr	r3, [r2, #8]
 713 0072 43F00103 		orr	r3, r3, #1
 714 0076 9360     		str	r3, [r2, #8]
1057:Drivers/STM32F7xx_HAL_Driver/Src/stm32f7xx_hal_uart.c **** 
 715              		.loc 1 1057 0 discriminator 2
 716 0078 2268     		ldr	r2, [r4]
 717 007a 9368     		ldr	r3, [r2, #8]
 718 007c 43F04003 		orr	r3, r3, #64
 719 0080 9360     		str	r3, [r2, #8]
1059:Drivers/STM32F7xx_HAL_Driver/Src/stm32f7xx_hal_uart.c ****   }
 720              		.loc 1 1059 0 discriminator 2
 721 0082 2846     		mov	r0, r5
 722 0084 38BD     		pop	{r3, r4, r5, pc}
 723              	.LVL61:
 724              	.L54:
1018:Drivers/STM32F7xx_HAL_Driver/Src/stm32f7xx_hal_uart.c ****     }
 725              		.loc 1 1018 0
 726 0086 0120     		movs	r0, #1
 727              	.LVL62:
 728 0088 38BD     		pop	{r3, r4, r5, pc}
 729              	.L60:
 730 008a 00BF     		.align	2
 731              	.L59:
 732 008c 00000000 		.word	UART_DMAReceiveCplt
 733 0090 00000000 		.word	UART_DMARxHalfCplt
 734 0094 00000000 		.word	UART_DMAError
 735              		.cfi_endproc
 736              	.LFE149:
 738              		.section	.text.HAL_UART_DMAPause,"ax",%progbits
 739              		.align	1
 740              		.global	HAL_UART_DMAPause
 741              		.syntax unified
 742              		.thumb
 743              		.thumb_func
 744              		.fpu fpv5-sp-d16
 746              	HAL_UART_DMAPause:
 747              	.LFB150:
1073:Drivers/STM32F7xx_HAL_Driver/Src/stm32f7xx_hal_uart.c ****   /* Process Locked */
 748              		.loc 1 1073 0
 749              		.cfi_startproc
 750              		@ args = 0, pretend = 0, frame = 0
 751              		@ frame_needed = 0, uses_anonymous_args = 0
 752              		@ link register save eliminated.
 753              	.LVL63:
1075:Drivers/STM32F7xx_HAL_Driver/Src/stm32f7xx_hal_uart.c **** 
 754              		.loc 1 1075 0
 755 0000 90F86830 		ldrb	r3, [r0, #104]	@ zero_extendqisi2
 756 0004 012B     		cmp	r3, #1
 757 0006 2FD0     		beq	.L65
1075:Drivers/STM32F7xx_HAL_Driver/Src/stm32f7xx_hal_uart.c **** 
 758              		.loc 1 1075 0 is_stmt 0 discriminator 2
ARM GAS  C:\Users\Student\AppData\Local\Temp\cc4Wk4r8.s 			page 46


 759 0008 0123     		movs	r3, #1
 760 000a 80F86830 		strb	r3, [r0, #104]
1077:Drivers/STM32F7xx_HAL_Driver/Src/stm32f7xx_hal_uart.c ****       (HAL_IS_BIT_SET(huart->Instance->CR3, USART_CR3_DMAT)))
 761              		.loc 1 1077 0 is_stmt 1 discriminator 2
 762 000e 90F86930 		ldrb	r3, [r0, #105]	@ zero_extendqisi2
 763 0012 DBB2     		uxtb	r3, r3
 764 0014 212B     		cmp	r3, #33
 765 0016 09D0     		beq	.L66
 766              	.L63:
1083:Drivers/STM32F7xx_HAL_Driver/Src/stm32f7xx_hal_uart.c ****       (HAL_IS_BIT_SET(huart->Instance->CR3, USART_CR3_DMAR)))
 767              		.loc 1 1083 0
 768 0018 90F86A30 		ldrb	r3, [r0, #106]	@ zero_extendqisi2
 769 001c DBB2     		uxtb	r3, r3
 770 001e 222B     		cmp	r3, #34
 771 0020 0ED0     		beq	.L67
 772              	.L64:
1095:Drivers/STM32F7xx_HAL_Driver/Src/stm32f7xx_hal_uart.c **** 
 773              		.loc 1 1095 0
 774 0022 0023     		movs	r3, #0
 775 0024 80F86830 		strb	r3, [r0, #104]
1097:Drivers/STM32F7xx_HAL_Driver/Src/stm32f7xx_hal_uart.c **** }
 776              		.loc 1 1097 0
 777 0028 1846     		mov	r0, r3
 778              	.LVL64:
 779 002a 7047     		bx	lr
 780              	.LVL65:
 781              	.L66:
1078:Drivers/STM32F7xx_HAL_Driver/Src/stm32f7xx_hal_uart.c ****   {
 782              		.loc 1 1078 0 discriminator 1
 783 002c 0368     		ldr	r3, [r0]
 784 002e 9A68     		ldr	r2, [r3, #8]
1077:Drivers/STM32F7xx_HAL_Driver/Src/stm32f7xx_hal_uart.c ****       (HAL_IS_BIT_SET(huart->Instance->CR3, USART_CR3_DMAT)))
 785              		.loc 1 1077 0 discriminator 1
 786 0030 12F0800F 		tst	r2, #128
 787 0034 F0D0     		beq	.L63
1081:Drivers/STM32F7xx_HAL_Driver/Src/stm32f7xx_hal_uart.c ****   }
 788              		.loc 1 1081 0
 789 0036 9A68     		ldr	r2, [r3, #8]
 790 0038 22F08002 		bic	r2, r2, #128
 791 003c 9A60     		str	r2, [r3, #8]
 792 003e EBE7     		b	.L63
 793              	.L67:
1084:Drivers/STM32F7xx_HAL_Driver/Src/stm32f7xx_hal_uart.c ****   {
 794              		.loc 1 1084 0 discriminator 1
 795 0040 0368     		ldr	r3, [r0]
 796 0042 9A68     		ldr	r2, [r3, #8]
1083:Drivers/STM32F7xx_HAL_Driver/Src/stm32f7xx_hal_uart.c ****       (HAL_IS_BIT_SET(huart->Instance->CR3, USART_CR3_DMAR)))
 797              		.loc 1 1083 0 discriminator 1
 798 0044 12F0400F 		tst	r2, #64
 799 0048 EBD0     		beq	.L64
1087:Drivers/STM32F7xx_HAL_Driver/Src/stm32f7xx_hal_uart.c ****     CLEAR_BIT(huart->Instance->CR3, USART_CR3_EIE);
 800              		.loc 1 1087 0
 801 004a 1A68     		ldr	r2, [r3]
 802 004c 22F48072 		bic	r2, r2, #256
 803 0050 1A60     		str	r2, [r3]
1088:Drivers/STM32F7xx_HAL_Driver/Src/stm32f7xx_hal_uart.c **** 
 804              		.loc 1 1088 0
ARM GAS  C:\Users\Student\AppData\Local\Temp\cc4Wk4r8.s 			page 47


 805 0052 0268     		ldr	r2, [r0]
 806 0054 9368     		ldr	r3, [r2, #8]
 807 0056 23F00103 		bic	r3, r3, #1
 808 005a 9360     		str	r3, [r2, #8]
1091:Drivers/STM32F7xx_HAL_Driver/Src/stm32f7xx_hal_uart.c ****   }
 809              		.loc 1 1091 0
 810 005c 0268     		ldr	r2, [r0]
 811 005e 9368     		ldr	r3, [r2, #8]
 812 0060 23F04003 		bic	r3, r3, #64
 813 0064 9360     		str	r3, [r2, #8]
 814 0066 DCE7     		b	.L64
 815              	.L65:
1075:Drivers/STM32F7xx_HAL_Driver/Src/stm32f7xx_hal_uart.c **** 
 816              		.loc 1 1075 0
 817 0068 0220     		movs	r0, #2
 818              	.LVL66:
1098:Drivers/STM32F7xx_HAL_Driver/Src/stm32f7xx_hal_uart.c **** 
 819              		.loc 1 1098 0
 820 006a 7047     		bx	lr
 821              		.cfi_endproc
 822              	.LFE150:
 824              		.section	.text.HAL_UART_DMAResume,"ax",%progbits
 825              		.align	1
 826              		.global	HAL_UART_DMAResume
 827              		.syntax unified
 828              		.thumb
 829              		.thumb_func
 830              		.fpu fpv5-sp-d16
 832              	HAL_UART_DMAResume:
 833              	.LFB151:
1106:Drivers/STM32F7xx_HAL_Driver/Src/stm32f7xx_hal_uart.c ****   /* Process Locked */
 834              		.loc 1 1106 0
 835              		.cfi_startproc
 836              		@ args = 0, pretend = 0, frame = 0
 837              		@ frame_needed = 0, uses_anonymous_args = 0
 838              		@ link register save eliminated.
 839              	.LVL67:
1108:Drivers/STM32F7xx_HAL_Driver/Src/stm32f7xx_hal_uart.c **** 
 840              		.loc 1 1108 0
 841 0000 90F86830 		ldrb	r3, [r0, #104]	@ zero_extendqisi2
 842 0004 012B     		cmp	r3, #1
 843 0006 30D0     		beq	.L72
1108:Drivers/STM32F7xx_HAL_Driver/Src/stm32f7xx_hal_uart.c **** 
 844              		.loc 1 1108 0 is_stmt 0 discriminator 2
 845 0008 0123     		movs	r3, #1
 846 000a 80F86830 		strb	r3, [r0, #104]
1110:Drivers/STM32F7xx_HAL_Driver/Src/stm32f7xx_hal_uart.c ****   {
 847              		.loc 1 1110 0 is_stmt 1 discriminator 2
 848 000e 90F86930 		ldrb	r3, [r0, #105]	@ zero_extendqisi2
 849 0012 DBB2     		uxtb	r3, r3
 850 0014 212B     		cmp	r3, #33
 851 0016 0FD0     		beq	.L74
 852              	.L70:
1115:Drivers/STM32F7xx_HAL_Driver/Src/stm32f7xx_hal_uart.c ****   {
 853              		.loc 1 1115 0
 854 0018 90F86A30 		ldrb	r3, [r0, #106]	@ zero_extendqisi2
 855 001c DBB2     		uxtb	r3, r3
ARM GAS  C:\Users\Student\AppData\Local\Temp\cc4Wk4r8.s 			page 48


 856 001e 222B     		cmp	r3, #34
 857 0020 10D0     		beq	.L75
 858              	.L71:
1129:Drivers/STM32F7xx_HAL_Driver/Src/stm32f7xx_hal_uart.c ****   {
 859              		.loc 1 1129 0
 860 0022 0368     		ldr	r3, [r0]
 861 0024 1A68     		ldr	r2, [r3]
 862 0026 12F0010F 		tst	r2, #1
 863 002a 20D1     		bne	.L73
1132:Drivers/STM32F7xx_HAL_Driver/Src/stm32f7xx_hal_uart.c ****   }
 864              		.loc 1 1132 0
 865 002c 1A68     		ldr	r2, [r3]
 866 002e 42F00102 		orr	r2, r2, #1
 867 0032 1A60     		str	r2, [r3]
1135:Drivers/STM32F7xx_HAL_Driver/Src/stm32f7xx_hal_uart.c **** }
 868              		.loc 1 1135 0
 869 0034 0020     		movs	r0, #0
 870              	.LVL68:
 871 0036 7047     		bx	lr
 872              	.LVL69:
 873              	.L74:
1113:Drivers/STM32F7xx_HAL_Driver/Src/stm32f7xx_hal_uart.c ****   }
 874              		.loc 1 1113 0
 875 0038 0268     		ldr	r2, [r0]
 876 003a 9368     		ldr	r3, [r2, #8]
 877 003c 43F08003 		orr	r3, r3, #128
 878 0040 9360     		str	r3, [r2, #8]
 879 0042 E9E7     		b	.L70
 880              	.L75:
1118:Drivers/STM32F7xx_HAL_Driver/Src/stm32f7xx_hal_uart.c **** 
 881              		.loc 1 1118 0
 882 0044 0368     		ldr	r3, [r0]
 883 0046 0822     		movs	r2, #8
 884 0048 1A62     		str	r2, [r3, #32]
1121:Drivers/STM32F7xx_HAL_Driver/Src/stm32f7xx_hal_uart.c ****     SET_BIT(huart->Instance->CR3, USART_CR3_EIE);
 885              		.loc 1 1121 0
 886 004a 0268     		ldr	r2, [r0]
 887 004c 1368     		ldr	r3, [r2]
 888 004e 43F48073 		orr	r3, r3, #256
 889 0052 1360     		str	r3, [r2]
1122:Drivers/STM32F7xx_HAL_Driver/Src/stm32f7xx_hal_uart.c **** 
 890              		.loc 1 1122 0
 891 0054 0268     		ldr	r2, [r0]
 892 0056 9368     		ldr	r3, [r2, #8]
 893 0058 43F00103 		orr	r3, r3, #1
 894 005c 9360     		str	r3, [r2, #8]
1125:Drivers/STM32F7xx_HAL_Driver/Src/stm32f7xx_hal_uart.c ****   }
 895              		.loc 1 1125 0
 896 005e 0268     		ldr	r2, [r0]
 897 0060 9368     		ldr	r3, [r2, #8]
 898 0062 43F04003 		orr	r3, r3, #64
 899 0066 9360     		str	r3, [r2, #8]
 900 0068 DBE7     		b	.L71
 901              	.L72:
1108:Drivers/STM32F7xx_HAL_Driver/Src/stm32f7xx_hal_uart.c **** 
 902              		.loc 1 1108 0
 903 006a 0220     		movs	r0, #2
ARM GAS  C:\Users\Student\AppData\Local\Temp\cc4Wk4r8.s 			page 49


 904              	.LVL70:
 905 006c 7047     		bx	lr
 906              	.LVL71:
 907              	.L73:
1135:Drivers/STM32F7xx_HAL_Driver/Src/stm32f7xx_hal_uart.c **** }
 908              		.loc 1 1135 0
 909 006e 0020     		movs	r0, #0
 910              	.LVL72:
1136:Drivers/STM32F7xx_HAL_Driver/Src/stm32f7xx_hal_uart.c **** 
 911              		.loc 1 1136 0
 912 0070 7047     		bx	lr
 913              		.cfi_endproc
 914              	.LFE151:
 916              		.section	.text.HAL_UART_DMAStop,"ax",%progbits
 917              		.align	1
 918              		.global	HAL_UART_DMAStop
 919              		.syntax unified
 920              		.thumb
 921              		.thumb_func
 922              		.fpu fpv5-sp-d16
 924              	HAL_UART_DMAStop:
 925              	.LFB152:
1144:Drivers/STM32F7xx_HAL_Driver/Src/stm32f7xx_hal_uart.c ****   /* The Lock is not implemented on this API to allow the user application
 926              		.loc 1 1144 0
 927              		.cfi_startproc
 928              		@ args = 0, pretend = 0, frame = 0
 929              		@ frame_needed = 0, uses_anonymous_args = 0
 930              	.LVL73:
 931 0000 10B5     		push	{r4, lr}
 932              	.LCFI4:
 933              		.cfi_def_cfa_offset 8
 934              		.cfi_offset 4, -8
 935              		.cfi_offset 14, -4
 936 0002 0446     		mov	r4, r0
1153:Drivers/STM32F7xx_HAL_Driver/Src/stm32f7xx_hal_uart.c ****       (HAL_IS_BIT_SET(huart->Instance->CR3, USART_CR3_DMAT)))
 937              		.loc 1 1153 0
 938 0004 90F86930 		ldrb	r3, [r0, #105]	@ zero_extendqisi2
 939 0008 DBB2     		uxtb	r3, r3
 940 000a 212B     		cmp	r3, #33
 941 000c 06D0     		beq	.L82
 942              	.LVL74:
 943              	.L77:
1168:Drivers/STM32F7xx_HAL_Driver/Src/stm32f7xx_hal_uart.c ****       (HAL_IS_BIT_SET(huart->Instance->CR3, USART_CR3_DMAR)))
 944              		.loc 1 1168 0
 945 000e 94F86A30 		ldrb	r3, [r4, #106]	@ zero_extendqisi2
 946 0012 DBB2     		uxtb	r3, r3
 947 0014 222B     		cmp	r3, #34
 948 0016 12D0     		beq	.L83
 949              	.L79:
1183:Drivers/STM32F7xx_HAL_Driver/Src/stm32f7xx_hal_uart.c **** 
 950              		.loc 1 1183 0
 951 0018 0020     		movs	r0, #0
 952 001a 10BD     		pop	{r4, pc}
 953              	.LVL75:
 954              	.L82:
1154:Drivers/STM32F7xx_HAL_Driver/Src/stm32f7xx_hal_uart.c ****   {
 955              		.loc 1 1154 0 discriminator 1
ARM GAS  C:\Users\Student\AppData\Local\Temp\cc4Wk4r8.s 			page 50


 956 001c 0368     		ldr	r3, [r0]
 957 001e 9A68     		ldr	r2, [r3, #8]
1153:Drivers/STM32F7xx_HAL_Driver/Src/stm32f7xx_hal_uart.c ****       (HAL_IS_BIT_SET(huart->Instance->CR3, USART_CR3_DMAT)))
 958              		.loc 1 1153 0 discriminator 1
 959 0020 12F0800F 		tst	r2, #128
 960 0024 F3D0     		beq	.L77
1156:Drivers/STM32F7xx_HAL_Driver/Src/stm32f7xx_hal_uart.c **** 
 961              		.loc 1 1156 0
 962 0026 9A68     		ldr	r2, [r3, #8]
 963 0028 22F08002 		bic	r2, r2, #128
 964 002c 9A60     		str	r2, [r3, #8]
1159:Drivers/STM32F7xx_HAL_Driver/Src/stm32f7xx_hal_uart.c ****     {
 965              		.loc 1 1159 0
 966 002e 006E     		ldr	r0, [r0, #96]
 967              	.LVL76:
 968 0030 08B1     		cbz	r0, .L78
1161:Drivers/STM32F7xx_HAL_Driver/Src/stm32f7xx_hal_uart.c ****     }
 969              		.loc 1 1161 0
 970 0032 FFF7FEFF 		bl	HAL_DMA_Abort
 971              	.LVL77:
 972              	.L78:
1164:Drivers/STM32F7xx_HAL_Driver/Src/stm32f7xx_hal_uart.c ****   }
 973              		.loc 1 1164 0
 974 0036 2046     		mov	r0, r4
 975 0038 FFF7FEFF 		bl	UART_EndTxTransfer
 976              	.LVL78:
 977 003c E7E7     		b	.L77
 978              	.L83:
1169:Drivers/STM32F7xx_HAL_Driver/Src/stm32f7xx_hal_uart.c ****   {
 979              		.loc 1 1169 0 discriminator 1
 980 003e 2368     		ldr	r3, [r4]
 981 0040 9A68     		ldr	r2, [r3, #8]
1168:Drivers/STM32F7xx_HAL_Driver/Src/stm32f7xx_hal_uart.c ****       (HAL_IS_BIT_SET(huart->Instance->CR3, USART_CR3_DMAR)))
 982              		.loc 1 1168 0 discriminator 1
 983 0042 12F0400F 		tst	r2, #64
 984 0046 E7D0     		beq	.L79
1171:Drivers/STM32F7xx_HAL_Driver/Src/stm32f7xx_hal_uart.c **** 
 985              		.loc 1 1171 0
 986 0048 9A68     		ldr	r2, [r3, #8]
 987 004a 22F04002 		bic	r2, r2, #64
 988 004e 9A60     		str	r2, [r3, #8]
1174:Drivers/STM32F7xx_HAL_Driver/Src/stm32f7xx_hal_uart.c ****     {
 989              		.loc 1 1174 0
 990 0050 606E     		ldr	r0, [r4, #100]
 991 0052 08B1     		cbz	r0, .L80
1176:Drivers/STM32F7xx_HAL_Driver/Src/stm32f7xx_hal_uart.c ****     }
 992              		.loc 1 1176 0
 993 0054 FFF7FEFF 		bl	HAL_DMA_Abort
 994              	.LVL79:
 995              	.L80:
1179:Drivers/STM32F7xx_HAL_Driver/Src/stm32f7xx_hal_uart.c ****   }
 996              		.loc 1 1179 0
 997 0058 2046     		mov	r0, r4
 998 005a FFF7FEFF 		bl	UART_EndRxTransfer
 999              	.LVL80:
 1000 005e DBE7     		b	.L79
 1001              		.cfi_endproc
ARM GAS  C:\Users\Student\AppData\Local\Temp\cc4Wk4r8.s 			page 51


 1002              	.LFE152:
 1004              		.section	.text.UART_WaitOnFlagUntilTimeout,"ax",%progbits
 1005              		.align	1
 1006              		.global	UART_WaitOnFlagUntilTimeout
 1007              		.syntax unified
 1008              		.thumb
 1009              		.thumb_func
 1010              		.fpu fpv5-sp-d16
 1012              	UART_WaitOnFlagUntilTimeout:
 1013              	.LFB154:
1336:Drivers/STM32F7xx_HAL_Driver/Src/stm32f7xx_hal_uart.c ****   /* Wait until flag is set */
 1014              		.loc 1 1336 0
 1015              		.cfi_startproc
 1016              		@ args = 4, pretend = 0, frame = 0
 1017              		@ frame_needed = 0, uses_anonymous_args = 0
 1018              	.LVL81:
 1019 0000 2DE9F041 		push	{r4, r5, r6, r7, r8, lr}
 1020              	.LCFI5:
 1021              		.cfi_def_cfa_offset 24
 1022              		.cfi_offset 4, -24
 1023              		.cfi_offset 5, -20
 1024              		.cfi_offset 6, -16
 1025              		.cfi_offset 7, -12
 1026              		.cfi_offset 8, -8
 1027              		.cfi_offset 14, -4
 1028 0004 0546     		mov	r5, r0
 1029 0006 0F46     		mov	r7, r1
 1030 0008 1646     		mov	r6, r2
 1031 000a 9846     		mov	r8, r3
 1032 000c 069C     		ldr	r4, [sp, #24]
 1033              	.LVL82:
 1034              	.L86:
1338:Drivers/STM32F7xx_HAL_Driver/Src/stm32f7xx_hal_uart.c ****   {
 1035              		.loc 1 1338 0
 1036 000e 2B68     		ldr	r3, [r5]
 1037 0010 DB69     		ldr	r3, [r3, #28]
 1038 0012 37EA0303 		bics	r3, r7, r3
 1039 0016 0CBF     		ite	eq
 1040 0018 0123     		moveq	r3, #1
 1041 001a 0023     		movne	r3, #0
 1042 001c B342     		cmp	r3, r6
 1043 001e 1ED1     		bne	.L91
1341:Drivers/STM32F7xx_HAL_Driver/Src/stm32f7xx_hal_uart.c ****     {
 1044              		.loc 1 1341 0
 1045 0020 B4F1FF3F 		cmp	r4, #-1
 1046 0024 F3D0     		beq	.L86
1343:Drivers/STM32F7xx_HAL_Driver/Src/stm32f7xx_hal_uart.c ****       {
 1047              		.loc 1 1343 0
 1048 0026 2CB1     		cbz	r4, .L87
1343:Drivers/STM32F7xx_HAL_Driver/Src/stm32f7xx_hal_uart.c ****       {
 1049              		.loc 1 1343 0 is_stmt 0 discriminator 1
 1050 0028 FFF7FEFF 		bl	HAL_GetTick
 1051              	.LVL83:
 1052 002c A0EB0800 		sub	r0, r0, r8
 1053 0030 8442     		cmp	r4, r0
 1054 0032 ECD8     		bhi	.L86
 1055              	.L87:
ARM GAS  C:\Users\Student\AppData\Local\Temp\cc4Wk4r8.s 			page 52


1346:Drivers/STM32F7xx_HAL_Driver/Src/stm32f7xx_hal_uart.c ****         CLEAR_BIT(huart->Instance->CR3, USART_CR3_EIE);
 1056              		.loc 1 1346 0 is_stmt 1
 1057 0034 2A68     		ldr	r2, [r5]
 1058 0036 1368     		ldr	r3, [r2]
 1059 0038 23F4D073 		bic	r3, r3, #416
 1060 003c 1360     		str	r3, [r2]
1347:Drivers/STM32F7xx_HAL_Driver/Src/stm32f7xx_hal_uart.c **** 
 1061              		.loc 1 1347 0
 1062 003e 2A68     		ldr	r2, [r5]
 1063 0040 9368     		ldr	r3, [r2, #8]
 1064 0042 23F00103 		bic	r3, r3, #1
 1065 0046 9360     		str	r3, [r2, #8]
1349:Drivers/STM32F7xx_HAL_Driver/Src/stm32f7xx_hal_uart.c ****         huart->RxState = HAL_UART_STATE_READY;
 1066              		.loc 1 1349 0
 1067 0048 2023     		movs	r3, #32
 1068 004a 85F86930 		strb	r3, [r5, #105]
1350:Drivers/STM32F7xx_HAL_Driver/Src/stm32f7xx_hal_uart.c **** 
 1069              		.loc 1 1350 0
 1070 004e 85F86A30 		strb	r3, [r5, #106]
1353:Drivers/STM32F7xx_HAL_Driver/Src/stm32f7xx_hal_uart.c ****         return HAL_TIMEOUT;
 1071              		.loc 1 1353 0
 1072 0052 0023     		movs	r3, #0
 1073 0054 85F86830 		strb	r3, [r5, #104]
1354:Drivers/STM32F7xx_HAL_Driver/Src/stm32f7xx_hal_uart.c ****       }
 1074              		.loc 1 1354 0
 1075 0058 0320     		movs	r0, #3
 1076 005a BDE8F081 		pop	{r4, r5, r6, r7, r8, pc}
 1077              	.LVL84:
 1078              	.L91:
1358:Drivers/STM32F7xx_HAL_Driver/Src/stm32f7xx_hal_uart.c **** }
 1079              		.loc 1 1358 0
 1080 005e 0020     		movs	r0, #0
1359:Drivers/STM32F7xx_HAL_Driver/Src/stm32f7xx_hal_uart.c **** 
 1081              		.loc 1 1359 0
 1082 0060 BDE8F081 		pop	{r4, r5, r6, r7, r8, pc}
 1083              		.cfi_endproc
 1084              	.LFE154:
 1086              		.section	.text.HAL_UART_Transmit,"ax",%progbits
 1087              		.align	1
 1088              		.global	HAL_UART_Transmit
 1089              		.syntax unified
 1090              		.thumb
 1091              		.thumb_func
 1092              		.fpu fpv5-sp-d16
 1094              	HAL_UART_Transmit:
 1095              	.LFB144:
 717:Drivers/STM32F7xx_HAL_Driver/Src/stm32f7xx_hal_uart.c ****   uint16_t* tmp;
 1096              		.loc 1 717 0
 1097              		.cfi_startproc
 1098              		@ args = 0, pretend = 0, frame = 0
 1099              		@ frame_needed = 0, uses_anonymous_args = 0
 1100              	.LVL85:
 1101 0000 2DE9F041 		push	{r4, r5, r6, r7, r8, lr}
 1102              	.LCFI6:
 1103              		.cfi_def_cfa_offset 24
 1104              		.cfi_offset 4, -24
 1105              		.cfi_offset 5, -20
ARM GAS  C:\Users\Student\AppData\Local\Temp\cc4Wk4r8.s 			page 53


 1106              		.cfi_offset 6, -16
 1107              		.cfi_offset 7, -12
 1108              		.cfi_offset 8, -8
 1109              		.cfi_offset 14, -4
 1110 0004 82B0     		sub	sp, sp, #8
 1111              	.LCFI7:
 1112              		.cfi_def_cfa_offset 32
 1113 0006 1E46     		mov	r6, r3
 1114              	.LVL86:
 722:Drivers/STM32F7xx_HAL_Driver/Src/stm32f7xx_hal_uart.c ****   {
 1115              		.loc 1 722 0
 1116 0008 90F86930 		ldrb	r3, [r0, #105]	@ zero_extendqisi2
 1117              	.LVL87:
 1118 000c DBB2     		uxtb	r3, r3
 1119 000e 202B     		cmp	r3, #32
 1120 0010 04D0     		beq	.L104
 773:Drivers/STM32F7xx_HAL_Driver/Src/stm32f7xx_hal_uart.c ****   }
 1121              		.loc 1 773 0
 1122 0012 0223     		movs	r3, #2
 1123              	.LVL88:
 1124              	.L93:
 775:Drivers/STM32F7xx_HAL_Driver/Src/stm32f7xx_hal_uart.c **** 
 1125              		.loc 1 775 0
 1126 0014 1846     		mov	r0, r3
 1127 0016 02B0     		add	sp, sp, #8
 1128              	.LCFI8:
 1129              		.cfi_remember_state
 1130              		.cfi_def_cfa_offset 24
 1131              		@ sp needed
 1132 0018 BDE8F081 		pop	{r4, r5, r6, r7, r8, pc}
 1133              	.LVL89:
 1134              	.L104:
 1135              	.LCFI9:
 1136              		.cfi_restore_state
 1137 001c 0446     		mov	r4, r0
 1138 001e 0D46     		mov	r5, r1
 1139 0020 9046     		mov	r8, r2
 724:Drivers/STM32F7xx_HAL_Driver/Src/stm32f7xx_hal_uart.c ****     {
 1140              		.loc 1 724 0
 1141 0022 002A     		cmp	r2, #0
 1142 0024 18BF     		it	ne
 1143 0026 0029     		cmpne	r1, #0
 1144 0028 4CD0     		beq	.L99
 730:Drivers/STM32F7xx_HAL_Driver/Src/stm32f7xx_hal_uart.c **** 
 1145              		.loc 1 730 0
 1146 002a 90F86830 		ldrb	r3, [r0, #104]	@ zero_extendqisi2
 1147 002e 012B     		cmp	r3, #1
 1148 0030 01D1     		bne	.L105
 1149 0032 0223     		movs	r3, #2
 1150 0034 EEE7     		b	.L93
 1151              	.L105:
 730:Drivers/STM32F7xx_HAL_Driver/Src/stm32f7xx_hal_uart.c **** 
 1152              		.loc 1 730 0 is_stmt 0 discriminator 2
 1153 0036 0123     		movs	r3, #1
 1154 0038 80F86830 		strb	r3, [r0, #104]
 732:Drivers/STM32F7xx_HAL_Driver/Src/stm32f7xx_hal_uart.c ****     huart->gState = HAL_UART_STATE_BUSY_TX;
 1155              		.loc 1 732 0 is_stmt 1 discriminator 2
ARM GAS  C:\Users\Student\AppData\Local\Temp\cc4Wk4r8.s 			page 54


 1156 003c 0023     		movs	r3, #0
 1157 003e C366     		str	r3, [r0, #108]
 733:Drivers/STM32F7xx_HAL_Driver/Src/stm32f7xx_hal_uart.c **** 
 1158              		.loc 1 733 0 discriminator 2
 1159 0040 2123     		movs	r3, #33
 1160 0042 80F86930 		strb	r3, [r0, #105]
 736:Drivers/STM32F7xx_HAL_Driver/Src/stm32f7xx_hal_uart.c **** 
 1161              		.loc 1 736 0 discriminator 2
 1162 0046 FFF7FEFF 		bl	HAL_GetTick
 1163              	.LVL90:
 1164 004a 0746     		mov	r7, r0
 1165              	.LVL91:
 738:Drivers/STM32F7xx_HAL_Driver/Src/stm32f7xx_hal_uart.c ****     huart->TxXferCount = Size;
 1166              		.loc 1 738 0 discriminator 2
 1167 004c A4F85080 		strh	r8, [r4, #80]	@ movhi
 739:Drivers/STM32F7xx_HAL_Driver/Src/stm32f7xx_hal_uart.c ****     while(huart->TxXferCount > 0U)
 1168              		.loc 1 739 0 discriminator 2
 1169 0050 A4F85280 		strh	r8, [r4, #82]	@ movhi
 740:Drivers/STM32F7xx_HAL_Driver/Src/stm32f7xx_hal_uart.c ****     {
 1170              		.loc 1 740 0 discriminator 2
 1171 0054 03E0     		b	.L94
 1172              	.LVL92:
 1173              	.L95:
 755:Drivers/STM32F7xx_HAL_Driver/Src/stm32f7xx_hal_uart.c ****       }
 1174              		.loc 1 755 0
 1175 0056 2368     		ldr	r3, [r4]
 1176              	.LVL93:
 1177 0058 2A78     		ldrb	r2, [r5]	@ zero_extendqisi2
 1178 005a 9A62     		str	r2, [r3, #40]
 1179 005c 0135     		adds	r5, r5, #1
 1180              	.LVL94:
 1181              	.L94:
 740:Drivers/STM32F7xx_HAL_Driver/Src/stm32f7xx_hal_uart.c ****     {
 1182              		.loc 1 740 0
 1183 005e B4F85230 		ldrh	r3, [r4, #82]
 1184 0062 9BB2     		uxth	r3, r3
 1185 0064 E3B1     		cbz	r3, .L106
 742:Drivers/STM32F7xx_HAL_Driver/Src/stm32f7xx_hal_uart.c ****       if(UART_WaitOnFlagUntilTimeout(huart, UART_FLAG_TXE, RESET, tickstart, Timeout) != HAL_OK)
 1186              		.loc 1 742 0
 1187 0066 B4F85230 		ldrh	r3, [r4, #82]
 1188 006a 9BB2     		uxth	r3, r3
 1189 006c 013B     		subs	r3, r3, #1
 1190 006e 9BB2     		uxth	r3, r3
 1191 0070 A4F85230 		strh	r3, [r4, #82]	@ movhi
 743:Drivers/STM32F7xx_HAL_Driver/Src/stm32f7xx_hal_uart.c ****       {
 1192              		.loc 1 743 0
 1193 0074 0096     		str	r6, [sp]
 1194 0076 3B46     		mov	r3, r7
 1195 0078 0022     		movs	r2, #0
 1196 007a 8021     		movs	r1, #128
 1197 007c 2046     		mov	r0, r4
 1198 007e FFF7FEFF 		bl	UART_WaitOnFlagUntilTimeout
 1199              	.LVL95:
 1200 0082 08BB     		cbnz	r0, .L101
 747:Drivers/STM32F7xx_HAL_Driver/Src/stm32f7xx_hal_uart.c ****       {
 1201              		.loc 1 747 0
 1202 0084 A368     		ldr	r3, [r4, #8]
ARM GAS  C:\Users\Student\AppData\Local\Temp\cc4Wk4r8.s 			page 55


 1203 0086 B3F5805F 		cmp	r3, #4096
 1204 008a E4D1     		bne	.L95
 747:Drivers/STM32F7xx_HAL_Driver/Src/stm32f7xx_hal_uart.c ****       {
 1205              		.loc 1 747 0 is_stmt 0 discriminator 1
 1206 008c 2369     		ldr	r3, [r4, #16]
 1207 008e 002B     		cmp	r3, #0
 1208 0090 E1D1     		bne	.L95
 1209              	.LVL96:
 750:Drivers/STM32F7xx_HAL_Driver/Src/stm32f7xx_hal_uart.c ****         pData += 2;
 1210              		.loc 1 750 0 is_stmt 1
 1211 0092 2268     		ldr	r2, [r4]
 1212 0094 35F8023B 		ldrh	r3, [r5], #2
 1213              	.LVL97:
 1214 0098 C3F30803 		ubfx	r3, r3, #0, #9
 1215 009c 9362     		str	r3, [r2, #40]
 1216              	.LVL98:
 751:Drivers/STM32F7xx_HAL_Driver/Src/stm32f7xx_hal_uart.c ****       }
 1217              		.loc 1 751 0
 1218 009e DEE7     		b	.L94
 1219              	.LVL99:
 1220              	.L106:
 758:Drivers/STM32F7xx_HAL_Driver/Src/stm32f7xx_hal_uart.c ****     {
 1221              		.loc 1 758 0
 1222 00a0 0096     		str	r6, [sp]
 1223 00a2 3B46     		mov	r3, r7
 1224 00a4 0022     		movs	r2, #0
 1225 00a6 4021     		movs	r1, #64
 1226 00a8 2046     		mov	r0, r4
 1227 00aa FFF7FEFF 		bl	UART_WaitOnFlagUntilTimeout
 1228              	.LVL100:
 1229 00ae 0346     		mov	r3, r0
 1230 00b0 08B1     		cbz	r0, .L107
 760:Drivers/STM32F7xx_HAL_Driver/Src/stm32f7xx_hal_uart.c ****     }
 1231              		.loc 1 760 0
 1232 00b2 0323     		movs	r3, #3
 1233 00b4 AEE7     		b	.L93
 1234              	.L107:
 764:Drivers/STM32F7xx_HAL_Driver/Src/stm32f7xx_hal_uart.c **** 
 1235              		.loc 1 764 0
 1236 00b6 2022     		movs	r2, #32
 1237 00b8 84F86920 		strb	r2, [r4, #105]
 767:Drivers/STM32F7xx_HAL_Driver/Src/stm32f7xx_hal_uart.c **** 
 1238              		.loc 1 767 0
 1239 00bc 0022     		movs	r2, #0
 1240 00be 84F86820 		strb	r2, [r4, #104]
 769:Drivers/STM32F7xx_HAL_Driver/Src/stm32f7xx_hal_uart.c ****   }
 1241              		.loc 1 769 0
 1242 00c2 A7E7     		b	.L93
 1243              	.LVL101:
 1244              	.L99:
 726:Drivers/STM32F7xx_HAL_Driver/Src/stm32f7xx_hal_uart.c ****     }
 1245              		.loc 1 726 0
 1246 00c4 0123     		movs	r3, #1
 1247 00c6 A5E7     		b	.L93
 1248              	.LVL102:
 1249              	.L101:
 745:Drivers/STM32F7xx_HAL_Driver/Src/stm32f7xx_hal_uart.c ****       }
ARM GAS  C:\Users\Student\AppData\Local\Temp\cc4Wk4r8.s 			page 56


 1250              		.loc 1 745 0
 1251 00c8 0323     		movs	r3, #3
 1252 00ca A3E7     		b	.L93
 1253              		.cfi_endproc
 1254              	.LFE144:
 1256              		.section	.text.HAL_UART_Receive,"ax",%progbits
 1257              		.align	1
 1258              		.global	HAL_UART_Receive
 1259              		.syntax unified
 1260              		.thumb
 1261              		.thumb_func
 1262              		.fpu fpv5-sp-d16
 1264              	HAL_UART_Receive:
 1265              	.LFB145:
 786:Drivers/STM32F7xx_HAL_Driver/Src/stm32f7xx_hal_uart.c ****   uint16_t* tmp;
 1266              		.loc 1 786 0
 1267              		.cfi_startproc
 1268              		@ args = 0, pretend = 0, frame = 0
 1269              		@ frame_needed = 0, uses_anonymous_args = 0
 1270              	.LVL103:
 1271 0000 2DE9F041 		push	{r4, r5, r6, r7, r8, lr}
 1272              	.LCFI10:
 1273              		.cfi_def_cfa_offset 24
 1274              		.cfi_offset 4, -24
 1275              		.cfi_offset 5, -20
 1276              		.cfi_offset 6, -16
 1277              		.cfi_offset 7, -12
 1278              		.cfi_offset 8, -8
 1279              		.cfi_offset 14, -4
 1280 0004 82B0     		sub	sp, sp, #8
 1281              	.LCFI11:
 1282              		.cfi_def_cfa_offset 32
 1283 0006 1E46     		mov	r6, r3
 1284              	.LVL104:
 792:Drivers/STM32F7xx_HAL_Driver/Src/stm32f7xx_hal_uart.c ****   {
 1285              		.loc 1 792 0
 1286 0008 90F86A30 		ldrb	r3, [r0, #106]	@ zero_extendqisi2
 1287              	.LVL105:
 1288 000c DBB2     		uxtb	r3, r3
 1289 000e 202B     		cmp	r3, #32
 1290 0010 03D0     		beq	.L125
 845:Drivers/STM32F7xx_HAL_Driver/Src/stm32f7xx_hal_uart.c ****   }
 1291              		.loc 1 845 0
 1292 0012 0220     		movs	r0, #2
 1293              	.LVL106:
 1294              	.L109:
 847:Drivers/STM32F7xx_HAL_Driver/Src/stm32f7xx_hal_uart.c **** 
 1295              		.loc 1 847 0
 1296 0014 02B0     		add	sp, sp, #8
 1297              	.LCFI12:
 1298              		.cfi_remember_state
 1299              		.cfi_def_cfa_offset 24
 1300              		@ sp needed
 1301 0016 BDE8F081 		pop	{r4, r5, r6, r7, r8, pc}
 1302              	.LVL107:
 1303              	.L125:
 1304              	.LCFI13:
ARM GAS  C:\Users\Student\AppData\Local\Temp\cc4Wk4r8.s 			page 57


 1305              		.cfi_restore_state
 1306 001a 0446     		mov	r4, r0
 1307 001c 0D46     		mov	r5, r1
 1308 001e 9046     		mov	r8, r2
 794:Drivers/STM32F7xx_HAL_Driver/Src/stm32f7xx_hal_uart.c ****     {
 1309              		.loc 1 794 0
 1310 0020 002A     		cmp	r2, #0
 1311 0022 18BF     		it	ne
 1312 0024 0029     		cmpne	r1, #0
 1313 0026 6DD0     		beq	.L121
 800:Drivers/STM32F7xx_HAL_Driver/Src/stm32f7xx_hal_uart.c **** 
 1314              		.loc 1 800 0
 1315 0028 90F86830 		ldrb	r3, [r0, #104]	@ zero_extendqisi2
 1316 002c 012B     		cmp	r3, #1
 1317 002e 01D1     		bne	.L126
 1318 0030 0220     		movs	r0, #2
 1319              	.LVL108:
 1320 0032 EFE7     		b	.L109
 1321              	.LVL109:
 1322              	.L126:
 800:Drivers/STM32F7xx_HAL_Driver/Src/stm32f7xx_hal_uart.c **** 
 1323              		.loc 1 800 0 is_stmt 0 discriminator 2
 1324 0034 0123     		movs	r3, #1
 1325 0036 80F86830 		strb	r3, [r0, #104]
 802:Drivers/STM32F7xx_HAL_Driver/Src/stm32f7xx_hal_uart.c ****     huart->RxState = HAL_UART_STATE_BUSY_RX;
 1326              		.loc 1 802 0 is_stmt 1 discriminator 2
 1327 003a 0023     		movs	r3, #0
 1328 003c C366     		str	r3, [r0, #108]
 803:Drivers/STM32F7xx_HAL_Driver/Src/stm32f7xx_hal_uart.c **** 
 1329              		.loc 1 803 0 discriminator 2
 1330 003e 2223     		movs	r3, #34
 1331 0040 80F86A30 		strb	r3, [r0, #106]
 806:Drivers/STM32F7xx_HAL_Driver/Src/stm32f7xx_hal_uart.c **** 
 1332              		.loc 1 806 0 discriminator 2
 1333 0044 FFF7FEFF 		bl	HAL_GetTick
 1334              	.LVL110:
 1335 0048 0746     		mov	r7, r0
 1336              	.LVL111:
 808:Drivers/STM32F7xx_HAL_Driver/Src/stm32f7xx_hal_uart.c ****     huart->RxXferCount = Size;
 1337              		.loc 1 808 0 discriminator 2
 1338 004a A4F85880 		strh	r8, [r4, #88]	@ movhi
 809:Drivers/STM32F7xx_HAL_Driver/Src/stm32f7xx_hal_uart.c **** 
 1339              		.loc 1 809 0 discriminator 2
 1340 004e A4F85A80 		strh	r8, [r4, #90]	@ movhi
 812:Drivers/STM32F7xx_HAL_Driver/Src/stm32f7xx_hal_uart.c ****     uhMask = huart->Mask;
 1341              		.loc 1 812 0 discriminator 2
 1342 0052 A368     		ldr	r3, [r4, #8]
 1343 0054 B3F5805F 		cmp	r3, #4096
 1344 0058 06D0     		beq	.L127
 1345 005a A3B9     		cbnz	r3, .L113
 812:Drivers/STM32F7xx_HAL_Driver/Src/stm32f7xx_hal_uart.c ****     uhMask = huart->Mask;
 1346              		.loc 1 812 0 is_stmt 0 discriminator 5
 1347 005c 2369     		ldr	r3, [r4, #16]
 1348 005e 73B9     		cbnz	r3, .L114
 812:Drivers/STM32F7xx_HAL_Driver/Src/stm32f7xx_hal_uart.c ****     uhMask = huart->Mask;
 1349              		.loc 1 812 0 discriminator 7
 1350 0060 FF23     		movs	r3, #255
ARM GAS  C:\Users\Student\AppData\Local\Temp\cc4Wk4r8.s 			page 58


 1351 0062 A4F85C30 		strh	r3, [r4, #92]	@ movhi
 1352 0066 11E0     		b	.L112
 1353              	.L127:
 812:Drivers/STM32F7xx_HAL_Driver/Src/stm32f7xx_hal_uart.c ****     uhMask = huart->Mask;
 1354              		.loc 1 812 0 discriminator 1
 1355 0068 2369     		ldr	r3, [r4, #16]
 1356 006a 23B9     		cbnz	r3, .L111
 812:Drivers/STM32F7xx_HAL_Driver/Src/stm32f7xx_hal_uart.c ****     uhMask = huart->Mask;
 1357              		.loc 1 812 0 discriminator 3
 1358 006c 40F2FF13 		movw	r3, #511
 1359 0070 A4F85C30 		strh	r3, [r4, #92]	@ movhi
 1360 0074 0AE0     		b	.L112
 1361              	.L111:
 812:Drivers/STM32F7xx_HAL_Driver/Src/stm32f7xx_hal_uart.c ****     uhMask = huart->Mask;
 1362              		.loc 1 812 0 discriminator 4
 1363 0076 FF23     		movs	r3, #255
 1364 0078 A4F85C30 		strh	r3, [r4, #92]	@ movhi
 1365 007c 06E0     		b	.L112
 1366              	.L114:
 812:Drivers/STM32F7xx_HAL_Driver/Src/stm32f7xx_hal_uart.c ****     uhMask = huart->Mask;
 1367              		.loc 1 812 0 discriminator 8
 1368 007e 7F23     		movs	r3, #127
 1369 0080 A4F85C30 		strh	r3, [r4, #92]	@ movhi
 1370 0084 02E0     		b	.L112
 1371              	.L113:
 812:Drivers/STM32F7xx_HAL_Driver/Src/stm32f7xx_hal_uart.c ****     uhMask = huart->Mask;
 1372              		.loc 1 812 0 discriminator 6
 1373 0086 B3F1805F 		cmp	r3, #268435456
 1374 008a 02D0     		beq	.L128
 1375              	.L112:
 813:Drivers/STM32F7xx_HAL_Driver/Src/stm32f7xx_hal_uart.c **** 
 1376              		.loc 1 813 0 is_stmt 1
 1377 008c B4F85C80 		ldrh	r8, [r4, #92]
 1378              	.LVL112:
 816:Drivers/STM32F7xx_HAL_Driver/Src/stm32f7xx_hal_uart.c ****     {
 1379              		.loc 1 816 0
 1380 0090 10E0     		b	.L116
 1381              	.LVL113:
 1382              	.L128:
 812:Drivers/STM32F7xx_HAL_Driver/Src/stm32f7xx_hal_uart.c ****     uhMask = huart->Mask;
 1383              		.loc 1 812 0 discriminator 9
 1384 0092 2369     		ldr	r3, [r4, #16]
 1385 0094 1BB9     		cbnz	r3, .L115
 812:Drivers/STM32F7xx_HAL_Driver/Src/stm32f7xx_hal_uart.c ****     uhMask = huart->Mask;
 1386              		.loc 1 812 0 is_stmt 0 discriminator 10
 1387 0096 7F23     		movs	r3, #127
 1388 0098 A4F85C30 		strh	r3, [r4, #92]	@ movhi
 1389 009c F6E7     		b	.L112
 1390              	.L115:
 812:Drivers/STM32F7xx_HAL_Driver/Src/stm32f7xx_hal_uart.c ****     uhMask = huart->Mask;
 1391              		.loc 1 812 0 discriminator 11
 1392 009e 3F23     		movs	r3, #63
 1393 00a0 A4F85C30 		strh	r3, [r4, #92]	@ movhi
 1394 00a4 F2E7     		b	.L112
 1395              	.LVL114:
 1396              	.L117:
 831:Drivers/STM32F7xx_HAL_Driver/Src/stm32f7xx_hal_uart.c ****       }
ARM GAS  C:\Users\Student\AppData\Local\Temp\cc4Wk4r8.s 			page 59


 1397              		.loc 1 831 0 is_stmt 1
 1398 00a6 2368     		ldr	r3, [r4]
 1399 00a8 5A6A     		ldr	r2, [r3, #36]
 1400 00aa 5FFA88F3 		uxtb	r3, r8
 1401 00ae 1340     		ands	r3, r3, r2
 1402 00b0 2B70     		strb	r3, [r5]
 1403 00b2 0135     		adds	r5, r5, #1
 1404              	.LVL115:
 1405              	.L116:
 816:Drivers/STM32F7xx_HAL_Driver/Src/stm32f7xx_hal_uart.c ****     {
 1406              		.loc 1 816 0
 1407 00b4 B4F85A30 		ldrh	r3, [r4, #90]
 1408 00b8 9BB2     		uxth	r3, r3
 1409 00ba E3B1     		cbz	r3, .L129
 818:Drivers/STM32F7xx_HAL_Driver/Src/stm32f7xx_hal_uart.c ****       if(UART_WaitOnFlagUntilTimeout(huart, UART_FLAG_RXNE, RESET, tickstart, Timeout) != HAL_OK)
 1410              		.loc 1 818 0
 1411 00bc B4F85A30 		ldrh	r3, [r4, #90]
 1412 00c0 9BB2     		uxth	r3, r3
 1413 00c2 013B     		subs	r3, r3, #1
 1414 00c4 9BB2     		uxth	r3, r3
 1415 00c6 A4F85A30 		strh	r3, [r4, #90]	@ movhi
 819:Drivers/STM32F7xx_HAL_Driver/Src/stm32f7xx_hal_uart.c ****       {
 1416              		.loc 1 819 0
 1417 00ca 0096     		str	r6, [sp]
 1418 00cc 3B46     		mov	r3, r7
 1419 00ce 0022     		movs	r2, #0
 1420 00d0 2021     		movs	r1, #32
 1421 00d2 2046     		mov	r0, r4
 1422 00d4 FFF7FEFF 		bl	UART_WaitOnFlagUntilTimeout
 1423              	.LVL116:
 1424 00d8 B0B9     		cbnz	r0, .L123
 823:Drivers/STM32F7xx_HAL_Driver/Src/stm32f7xx_hal_uart.c ****       {
 1425              		.loc 1 823 0
 1426 00da A368     		ldr	r3, [r4, #8]
 1427 00dc B3F5805F 		cmp	r3, #4096
 1428 00e0 E1D1     		bne	.L117
 823:Drivers/STM32F7xx_HAL_Driver/Src/stm32f7xx_hal_uart.c ****       {
 1429              		.loc 1 823 0 is_stmt 0 discriminator 1
 1430 00e2 2369     		ldr	r3, [r4, #16]
 1431 00e4 002B     		cmp	r3, #0
 1432 00e6 DED1     		bne	.L117
 1433              	.LVL117:
 826:Drivers/STM32F7xx_HAL_Driver/Src/stm32f7xx_hal_uart.c ****         pData +=2U;
 1434              		.loc 1 826 0 is_stmt 1
 1435 00e8 2368     		ldr	r3, [r4]
 1436 00ea 5B6A     		ldr	r3, [r3, #36]
 1437 00ec 08EA0303 		and	r3, r8, r3
 1438 00f0 25F8023B 		strh	r3, [r5], #2	@ movhi
 1439              	.LVL118:
 827:Drivers/STM32F7xx_HAL_Driver/Src/stm32f7xx_hal_uart.c ****       }
 1440              		.loc 1 827 0
 1441 00f4 DEE7     		b	.L116
 1442              	.LVL119:
 1443              	.L129:
 836:Drivers/STM32F7xx_HAL_Driver/Src/stm32f7xx_hal_uart.c **** 
 1444              		.loc 1 836 0
 1445 00f6 2023     		movs	r3, #32
ARM GAS  C:\Users\Student\AppData\Local\Temp\cc4Wk4r8.s 			page 60


 1446 00f8 84F86A30 		strb	r3, [r4, #106]
 839:Drivers/STM32F7xx_HAL_Driver/Src/stm32f7xx_hal_uart.c **** 
 1447              		.loc 1 839 0
 1448 00fc 0020     		movs	r0, #0
 1449 00fe 84F86800 		strb	r0, [r4, #104]
 841:Drivers/STM32F7xx_HAL_Driver/Src/stm32f7xx_hal_uart.c ****   }
 1450              		.loc 1 841 0
 1451 0102 87E7     		b	.L109
 1452              	.LVL120:
 1453              	.L121:
 796:Drivers/STM32F7xx_HAL_Driver/Src/stm32f7xx_hal_uart.c ****     }
 1454              		.loc 1 796 0
 1455 0104 0120     		movs	r0, #1
 1456              	.LVL121:
 1457 0106 85E7     		b	.L109
 1458              	.LVL122:
 1459              	.L123:
 821:Drivers/STM32F7xx_HAL_Driver/Src/stm32f7xx_hal_uart.c ****       }
 1460              		.loc 1 821 0
 1461 0108 0320     		movs	r0, #3
 1462 010a 83E7     		b	.L109
 1463              		.cfi_endproc
 1464              	.LFE145:
 1466              		.section	.text.HAL_UART_TxCpltCallback,"ax",%progbits
 1467              		.align	1
 1468              		.weak	HAL_UART_TxCpltCallback
 1469              		.syntax unified
 1470              		.thumb
 1471              		.thumb_func
 1472              		.fpu fpv5-sp-d16
 1474              	HAL_UART_TxCpltCallback:
 1475              	.LFB161:
1489:Drivers/STM32F7xx_HAL_Driver/Src/stm32f7xx_hal_uart.c ****   /* Prevent unused argument(s) compilation warning */
 1476              		.loc 1 1489 0
 1477              		.cfi_startproc
 1478              		@ args = 0, pretend = 0, frame = 0
 1479              		@ frame_needed = 0, uses_anonymous_args = 0
 1480              		@ link register save eliminated.
 1481              	.LVL123:
 1482 0000 7047     		bx	lr
 1483              		.cfi_endproc
 1484              	.LFE161:
 1486              		.section	.text.UART_DMATransmitCplt,"ax",%progbits
 1487              		.align	1
 1488              		.syntax unified
 1489              		.thumb
 1490              		.thumb_func
 1491              		.fpu fpv5-sp-d16
 1493              	UART_DMATransmitCplt:
 1494              	.LFB155:
1367:Drivers/STM32F7xx_HAL_Driver/Src/stm32f7xx_hal_uart.c ****   UART_HandleTypeDef* huart = ( UART_HandleTypeDef* )((DMA_HandleTypeDef* )hdma)->Parent;
 1495              		.loc 1 1367 0
 1496              		.cfi_startproc
 1497              		@ args = 0, pretend = 0, frame = 0
 1498              		@ frame_needed = 0, uses_anonymous_args = 0
 1499              	.LVL124:
1367:Drivers/STM32F7xx_HAL_Driver/Src/stm32f7xx_hal_uart.c ****   UART_HandleTypeDef* huart = ( UART_HandleTypeDef* )((DMA_HandleTypeDef* )hdma)->Parent;
ARM GAS  C:\Users\Student\AppData\Local\Temp\cc4Wk4r8.s 			page 61


 1500              		.loc 1 1367 0
 1501 0000 08B5     		push	{r3, lr}
 1502              	.LCFI14:
 1503              		.cfi_def_cfa_offset 8
 1504              		.cfi_offset 3, -8
 1505              		.cfi_offset 14, -4
1368:Drivers/STM32F7xx_HAL_Driver/Src/stm32f7xx_hal_uart.c **** 
 1506              		.loc 1 1368 0
 1507 0002 836B     		ldr	r3, [r0, #56]
 1508              	.LVL125:
1371:Drivers/STM32F7xx_HAL_Driver/Src/stm32f7xx_hal_uart.c ****   {
 1509              		.loc 1 1371 0
 1510 0004 0268     		ldr	r2, [r0]
 1511 0006 1268     		ldr	r2, [r2]
 1512 0008 12F4807F 		tst	r2, #256
 1513 000c 0DD1     		bne	.L132
1373:Drivers/STM32F7xx_HAL_Driver/Src/stm32f7xx_hal_uart.c **** 
 1514              		.loc 1 1373 0
 1515 000e 0022     		movs	r2, #0
 1516 0010 A3F85220 		strh	r2, [r3, #82]	@ movhi
1377:Drivers/STM32F7xx_HAL_Driver/Src/stm32f7xx_hal_uart.c **** 
 1517              		.loc 1 1377 0
 1518 0014 1968     		ldr	r1, [r3]
 1519 0016 8A68     		ldr	r2, [r1, #8]
 1520 0018 22F08002 		bic	r2, r2, #128
 1521 001c 8A60     		str	r2, [r1, #8]
1380:Drivers/STM32F7xx_HAL_Driver/Src/stm32f7xx_hal_uart.c ****   }
 1522              		.loc 1 1380 0
 1523 001e 1A68     		ldr	r2, [r3]
 1524 0020 1368     		ldr	r3, [r2]
 1525              	.LVL126:
 1526 0022 43F04003 		orr	r3, r3, #64
 1527 0026 1360     		str	r3, [r2]
 1528 0028 08BD     		pop	{r3, pc}
 1529              	.LVL127:
 1530              	.L132:
1385:Drivers/STM32F7xx_HAL_Driver/Src/stm32f7xx_hal_uart.c ****   }
 1531              		.loc 1 1385 0
 1532 002a 1846     		mov	r0, r3
 1533              	.LVL128:
 1534 002c FFF7FEFF 		bl	HAL_UART_TxCpltCallback
 1535              	.LVL129:
 1536 0030 08BD     		pop	{r3, pc}
 1537              		.cfi_endproc
 1538              	.LFE155:
 1540              		.section	.text.UART_EndTransmit_IT,"ax",%progbits
 1541              		.align	1
 1542              		.syntax unified
 1543              		.thumb
 1544              		.thumb_func
 1545              		.fpu fpv5-sp-d16
 1547              	UART_EndTransmit_IT:
 1548              	.LFB167:
1614:Drivers/STM32F7xx_HAL_Driver/Src/stm32f7xx_hal_uart.c ****   /* Disable the UART Transmit Complete Interrupt */
 1549              		.loc 1 1614 0
 1550              		.cfi_startproc
 1551              		@ args = 0, pretend = 0, frame = 0
ARM GAS  C:\Users\Student\AppData\Local\Temp\cc4Wk4r8.s 			page 62


 1552              		@ frame_needed = 0, uses_anonymous_args = 0
 1553              	.LVL130:
 1554 0000 08B5     		push	{r3, lr}
 1555              	.LCFI15:
 1556              		.cfi_def_cfa_offset 8
 1557              		.cfi_offset 3, -8
 1558              		.cfi_offset 14, -4
1616:Drivers/STM32F7xx_HAL_Driver/Src/stm32f7xx_hal_uart.c **** 
 1559              		.loc 1 1616 0
 1560 0002 0168     		ldr	r1, [r0]
 1561 0004 0B68     		ldr	r3, [r1]
 1562 0006 23F04003 		bic	r3, r3, #64
 1563 000a 0B60     		str	r3, [r1]
1619:Drivers/STM32F7xx_HAL_Driver/Src/stm32f7xx_hal_uart.c **** 
 1564              		.loc 1 1619 0
 1565 000c 2023     		movs	r3, #32
 1566 000e 80F86930 		strb	r3, [r0, #105]
1621:Drivers/STM32F7xx_HAL_Driver/Src/stm32f7xx_hal_uart.c **** 
 1567              		.loc 1 1621 0
 1568 0012 FFF7FEFF 		bl	HAL_UART_TxCpltCallback
 1569              	.LVL131:
1624:Drivers/STM32F7xx_HAL_Driver/Src/stm32f7xx_hal_uart.c **** 
 1570              		.loc 1 1624 0
 1571 0016 0020     		movs	r0, #0
 1572 0018 08BD     		pop	{r3, pc}
 1573              		.cfi_endproc
 1574              	.LFE167:
 1576              		.section	.text.HAL_UART_TxHalfCpltCallback,"ax",%progbits
 1577              		.align	1
 1578              		.weak	HAL_UART_TxHalfCpltCallback
 1579              		.syntax unified
 1580              		.thumb
 1581              		.thumb_func
 1582              		.fpu fpv5-sp-d16
 1584              	HAL_UART_TxHalfCpltCallback:
 1585              	.LFB162:
1504:Drivers/STM32F7xx_HAL_Driver/Src/stm32f7xx_hal_uart.c ****   /* Prevent unused argument(s) compilation warning */
 1586              		.loc 1 1504 0
 1587              		.cfi_startproc
 1588              		@ args = 0, pretend = 0, frame = 0
 1589              		@ frame_needed = 0, uses_anonymous_args = 0
 1590              		@ link register save eliminated.
 1591              	.LVL132:
 1592 0000 7047     		bx	lr
 1593              		.cfi_endproc
 1594              	.LFE162:
 1596              		.section	.text.UART_DMATxHalfCplt,"ax",%progbits
 1597              		.align	1
 1598              		.syntax unified
 1599              		.thumb
 1600              		.thumb_func
 1601              		.fpu fpv5-sp-d16
 1603              	UART_DMATxHalfCplt:
 1604              	.LFB156:
1395:Drivers/STM32F7xx_HAL_Driver/Src/stm32f7xx_hal_uart.c ****   UART_HandleTypeDef* huart = (UART_HandleTypeDef*)((DMA_HandleTypeDef*)hdma)->Parent;
 1605              		.loc 1 1395 0
 1606              		.cfi_startproc
ARM GAS  C:\Users\Student\AppData\Local\Temp\cc4Wk4r8.s 			page 63


 1607              		@ args = 0, pretend = 0, frame = 0
 1608              		@ frame_needed = 0, uses_anonymous_args = 0
 1609              	.LVL133:
1395:Drivers/STM32F7xx_HAL_Driver/Src/stm32f7xx_hal_uart.c ****   UART_HandleTypeDef* huart = (UART_HandleTypeDef*)((DMA_HandleTypeDef*)hdma)->Parent;
 1610              		.loc 1 1395 0
 1611 0000 08B5     		push	{r3, lr}
 1612              	.LCFI16:
 1613              		.cfi_def_cfa_offset 8
 1614              		.cfi_offset 3, -8
 1615              		.cfi_offset 14, -4
 1616              	.LVL134:
1398:Drivers/STM32F7xx_HAL_Driver/Src/stm32f7xx_hal_uart.c **** }
 1617              		.loc 1 1398 0
 1618 0002 806B     		ldr	r0, [r0, #56]
 1619              	.LVL135:
 1620 0004 FFF7FEFF 		bl	HAL_UART_TxHalfCpltCallback
 1621              	.LVL136:
 1622 0008 08BD     		pop	{r3, pc}
 1623              		.cfi_endproc
 1624              	.LFE156:
 1626              		.section	.text.HAL_UART_RxCpltCallback,"ax",%progbits
 1627              		.align	1
 1628              		.weak	HAL_UART_RxCpltCallback
 1629              		.syntax unified
 1630              		.thumb
 1631              		.thumb_func
 1632              		.fpu fpv5-sp-d16
 1634              	HAL_UART_RxCpltCallback:
 1635              	.LFB163:
1519:Drivers/STM32F7xx_HAL_Driver/Src/stm32f7xx_hal_uart.c ****   /* Prevent unused argument(s) compilation warning */
 1636              		.loc 1 1519 0
 1637              		.cfi_startproc
 1638              		@ args = 0, pretend = 0, frame = 0
 1639              		@ frame_needed = 0, uses_anonymous_args = 0
 1640              		@ link register save eliminated.
 1641              	.LVL137:
 1642 0000 7047     		bx	lr
 1643              		.cfi_endproc
 1644              	.LFE163:
 1646              		.section	.text.UART_DMAReceiveCplt,"ax",%progbits
 1647              		.align	1
 1648              		.syntax unified
 1649              		.thumb
 1650              		.thumb_func
 1651              		.fpu fpv5-sp-d16
 1653              	UART_DMAReceiveCplt:
 1654              	.LFB157:
1407:Drivers/STM32F7xx_HAL_Driver/Src/stm32f7xx_hal_uart.c ****   UART_HandleTypeDef* huart = ( UART_HandleTypeDef* )((DMA_HandleTypeDef* )hdma)->Parent;
 1655              		.loc 1 1407 0
 1656              		.cfi_startproc
 1657              		@ args = 0, pretend = 0, frame = 0
 1658              		@ frame_needed = 0, uses_anonymous_args = 0
 1659              	.LVL138:
1407:Drivers/STM32F7xx_HAL_Driver/Src/stm32f7xx_hal_uart.c ****   UART_HandleTypeDef* huart = ( UART_HandleTypeDef* )((DMA_HandleTypeDef* )hdma)->Parent;
 1660              		.loc 1 1407 0
 1661 0000 08B5     		push	{r3, lr}
 1662              	.LCFI17:
ARM GAS  C:\Users\Student\AppData\Local\Temp\cc4Wk4r8.s 			page 64


 1663              		.cfi_def_cfa_offset 8
 1664              		.cfi_offset 3, -8
 1665              		.cfi_offset 14, -4
1408:Drivers/STM32F7xx_HAL_Driver/Src/stm32f7xx_hal_uart.c **** 
 1666              		.loc 1 1408 0
 1667 0002 836B     		ldr	r3, [r0, #56]
 1668              	.LVL139:
1411:Drivers/STM32F7xx_HAL_Driver/Src/stm32f7xx_hal_uart.c ****   {
 1669              		.loc 1 1411 0
 1670 0004 0268     		ldr	r2, [r0]
 1671 0006 1268     		ldr	r2, [r2]
 1672 0008 12F4807F 		tst	r2, #256
 1673 000c 14D1     		bne	.L142
1413:Drivers/STM32F7xx_HAL_Driver/Src/stm32f7xx_hal_uart.c **** 
 1674              		.loc 1 1413 0
 1675 000e 0022     		movs	r2, #0
 1676 0010 A3F85A20 		strh	r2, [r3, #90]	@ movhi
1416:Drivers/STM32F7xx_HAL_Driver/Src/stm32f7xx_hal_uart.c ****     CLEAR_BIT(huart->Instance->CR3, USART_CR3_EIE);
 1677              		.loc 1 1416 0
 1678 0014 1968     		ldr	r1, [r3]
 1679 0016 0A68     		ldr	r2, [r1]
 1680 0018 22F48072 		bic	r2, r2, #256
 1681 001c 0A60     		str	r2, [r1]
1417:Drivers/STM32F7xx_HAL_Driver/Src/stm32f7xx_hal_uart.c **** 
 1682              		.loc 1 1417 0
 1683 001e 1968     		ldr	r1, [r3]
 1684 0020 8A68     		ldr	r2, [r1, #8]
 1685 0022 22F00102 		bic	r2, r2, #1
 1686 0026 8A60     		str	r2, [r1, #8]
1421:Drivers/STM32F7xx_HAL_Driver/Src/stm32f7xx_hal_uart.c **** 
 1687              		.loc 1 1421 0
 1688 0028 1968     		ldr	r1, [r3]
 1689 002a 8A68     		ldr	r2, [r1, #8]
 1690 002c 22F04002 		bic	r2, r2, #64
 1691 0030 8A60     		str	r2, [r1, #8]
1424:Drivers/STM32F7xx_HAL_Driver/Src/stm32f7xx_hal_uart.c ****   }
 1692              		.loc 1 1424 0
 1693 0032 2022     		movs	r2, #32
 1694 0034 83F86A20 		strb	r2, [r3, #106]
 1695              	.L142:
1426:Drivers/STM32F7xx_HAL_Driver/Src/stm32f7xx_hal_uart.c **** }
 1696              		.loc 1 1426 0
 1697 0038 1846     		mov	r0, r3
 1698              	.LVL140:
 1699 003a FFF7FEFF 		bl	HAL_UART_RxCpltCallback
 1700              	.LVL141:
 1701 003e 08BD     		pop	{r3, pc}
 1702              		.cfi_endproc
 1703              	.LFE157:
 1705              		.section	.text.UART_Receive_IT,"ax",%progbits
 1706              		.align	1
 1707              		.syntax unified
 1708              		.thumb
 1709              		.thumb_func
 1710              		.fpu fpv5-sp-d16
 1712              	UART_Receive_IT:
 1713              	.LFB168:
ARM GAS  C:\Users\Student\AppData\Local\Temp\cc4Wk4r8.s 			page 65


1634:Drivers/STM32F7xx_HAL_Driver/Src/stm32f7xx_hal_uart.c ****   uint16_t* tmp;
 1714              		.loc 1 1634 0
 1715              		.cfi_startproc
 1716              		@ args = 0, pretend = 0, frame = 0
 1717              		@ frame_needed = 0, uses_anonymous_args = 0
 1718              	.LVL142:
 1719 0000 08B5     		push	{r3, lr}
 1720              	.LCFI18:
 1721              		.cfi_def_cfa_offset 8
 1722              		.cfi_offset 3, -8
 1723              		.cfi_offset 14, -4
1636:Drivers/STM32F7xx_HAL_Driver/Src/stm32f7xx_hal_uart.c **** 
 1724              		.loc 1 1636 0
 1725 0002 B0F85C20 		ldrh	r2, [r0, #92]
 1726              	.LVL143:
1639:Drivers/STM32F7xx_HAL_Driver/Src/stm32f7xx_hal_uart.c ****   {
 1727              		.loc 1 1639 0
 1728 0006 90F86A30 		ldrb	r3, [r0, #106]	@ zero_extendqisi2
 1729 000a DBB2     		uxtb	r3, r3
 1730 000c 222B     		cmp	r3, #34
 1731 000e 06D0     		beq	.L151
1674:Drivers/STM32F7xx_HAL_Driver/Src/stm32f7xx_hal_uart.c **** 
 1732              		.loc 1 1674 0
 1733 0010 0268     		ldr	r2, [r0]
 1734              	.LVL144:
 1735 0012 9369     		ldr	r3, [r2, #24]
 1736 0014 43F00803 		orr	r3, r3, #8
 1737 0018 9361     		str	r3, [r2, #24]
 1738              	.LVL145:
1676:Drivers/STM32F7xx_HAL_Driver/Src/stm32f7xx_hal_uart.c ****   }
 1739              		.loc 1 1676 0
 1740 001a 0220     		movs	r0, #2
 1741              	.LVL146:
 1742 001c 08BD     		pop	{r3, pc}
 1743              	.LVL147:
 1744              	.L151:
1642:Drivers/STM32F7xx_HAL_Driver/Src/stm32f7xx_hal_uart.c ****     {
 1745              		.loc 1 1642 0
 1746 001e 8368     		ldr	r3, [r0, #8]
 1747 0020 B3F5805F 		cmp	r3, #4096
 1748 0024 11D0     		beq	.L152
 1749              	.L146:
1650:Drivers/STM32F7xx_HAL_Driver/Src/stm32f7xx_hal_uart.c ****     }
 1750              		.loc 1 1650 0
 1751 0026 436D     		ldr	r3, [r0, #84]
 1752 0028 591C     		adds	r1, r3, #1
 1753 002a 4165     		str	r1, [r0, #84]
 1754 002c 0168     		ldr	r1, [r0]
 1755 002e 496A     		ldr	r1, [r1, #36]
 1756 0030 D2B2     		uxtb	r2, r2
 1757              	.LVL148:
 1758 0032 0A40     		ands	r2, r2, r1
 1759 0034 1A70     		strb	r2, [r3]
 1760              	.LVL149:
 1761              	.L147:
1653:Drivers/STM32F7xx_HAL_Driver/Src/stm32f7xx_hal_uart.c ****     {
 1762              		.loc 1 1653 0
ARM GAS  C:\Users\Student\AppData\Local\Temp\cc4Wk4r8.s 			page 66


 1763 0036 B0F85A30 		ldrh	r3, [r0, #90]
 1764 003a 9BB2     		uxth	r3, r3
 1765 003c 013B     		subs	r3, r3, #1
 1766 003e 9BB2     		uxth	r3, r3
 1767 0040 A0F85A30 		strh	r3, [r0, #90]	@ movhi
 1768 0044 6BB1     		cbz	r3, .L153
1669:Drivers/STM32F7xx_HAL_Driver/Src/stm32f7xx_hal_uart.c ****   }
 1769              		.loc 1 1669 0
 1770 0046 0020     		movs	r0, #0
 1771              	.LVL150:
1678:Drivers/STM32F7xx_HAL_Driver/Src/stm32f7xx_hal_uart.c **** 
 1772              		.loc 1 1678 0
 1773 0048 08BD     		pop	{r3, pc}
 1774              	.LVL151:
 1775              	.L152:
1642:Drivers/STM32F7xx_HAL_Driver/Src/stm32f7xx_hal_uart.c ****     {
 1776              		.loc 1 1642 0 discriminator 1
 1777 004a 0369     		ldr	r3, [r0, #16]
 1778 004c 002B     		cmp	r3, #0
 1779 004e EAD1     		bne	.L146
1644:Drivers/STM32F7xx_HAL_Driver/Src/stm32f7xx_hal_uart.c ****       *tmp = (uint16_t)(huart->Instance->RDR & uhMask);
 1780              		.loc 1 1644 0
 1781 0050 436D     		ldr	r3, [r0, #84]
 1782              	.LVL152:
1645:Drivers/STM32F7xx_HAL_Driver/Src/stm32f7xx_hal_uart.c ****       huart->pRxBuffPtr +=2;
 1783              		.loc 1 1645 0
 1784 0052 0168     		ldr	r1, [r0]
 1785 0054 496A     		ldr	r1, [r1, #36]
 1786 0056 0A40     		ands	r2, r2, r1
 1787              	.LVL153:
 1788 0058 1A80     		strh	r2, [r3]	@ movhi
 1789              	.LVL154:
1646:Drivers/STM32F7xx_HAL_Driver/Src/stm32f7xx_hal_uart.c ****     }
 1790              		.loc 1 1646 0
 1791 005a 436D     		ldr	r3, [r0, #84]
 1792              	.LVL155:
 1793 005c 0233     		adds	r3, r3, #2
 1794 005e 4365     		str	r3, [r0, #84]
 1795 0060 E9E7     		b	.L147
 1796              	.L153:
1656:Drivers/STM32F7xx_HAL_Driver/Src/stm32f7xx_hal_uart.c **** 
 1797              		.loc 1 1656 0
 1798 0062 0268     		ldr	r2, [r0]
 1799 0064 1368     		ldr	r3, [r2]
 1800 0066 23F49073 		bic	r3, r3, #288
 1801 006a 1360     		str	r3, [r2]
1659:Drivers/STM32F7xx_HAL_Driver/Src/stm32f7xx_hal_uart.c **** 
 1802              		.loc 1 1659 0
 1803 006c 0268     		ldr	r2, [r0]
 1804 006e 9368     		ldr	r3, [r2, #8]
 1805 0070 23F00103 		bic	r3, r3, #1
 1806 0074 9360     		str	r3, [r2, #8]
1662:Drivers/STM32F7xx_HAL_Driver/Src/stm32f7xx_hal_uart.c **** 
 1807              		.loc 1 1662 0
 1808 0076 2023     		movs	r3, #32
 1809 0078 80F86A30 		strb	r3, [r0, #106]
1664:Drivers/STM32F7xx_HAL_Driver/Src/stm32f7xx_hal_uart.c **** 
ARM GAS  C:\Users\Student\AppData\Local\Temp\cc4Wk4r8.s 			page 67


 1810              		.loc 1 1664 0
 1811 007c FFF7FEFF 		bl	HAL_UART_RxCpltCallback
 1812              	.LVL156:
1666:Drivers/STM32F7xx_HAL_Driver/Src/stm32f7xx_hal_uart.c ****     }
 1813              		.loc 1 1666 0
 1814 0080 0020     		movs	r0, #0
 1815 0082 08BD     		pop	{r3, pc}
 1816              		.cfi_endproc
 1817              	.LFE168:
 1819              		.section	.text.HAL_UART_RxHalfCpltCallback,"ax",%progbits
 1820              		.align	1
 1821              		.weak	HAL_UART_RxHalfCpltCallback
 1822              		.syntax unified
 1823              		.thumb
 1824              		.thumb_func
 1825              		.fpu fpv5-sp-d16
 1827              	HAL_UART_RxHalfCpltCallback:
 1828              	.LFB164:
1534:Drivers/STM32F7xx_HAL_Driver/Src/stm32f7xx_hal_uart.c ****   /* Prevent unused argument(s) compilation warning */
 1829              		.loc 1 1534 0
 1830              		.cfi_startproc
 1831              		@ args = 0, pretend = 0, frame = 0
 1832              		@ frame_needed = 0, uses_anonymous_args = 0
 1833              		@ link register save eliminated.
 1834              	.LVL157:
 1835 0000 7047     		bx	lr
 1836              		.cfi_endproc
 1837              	.LFE164:
 1839              		.section	.text.UART_DMARxHalfCplt,"ax",%progbits
 1840              		.align	1
 1841              		.syntax unified
 1842              		.thumb
 1843              		.thumb_func
 1844              		.fpu fpv5-sp-d16
 1846              	UART_DMARxHalfCplt:
 1847              	.LFB158:
1435:Drivers/STM32F7xx_HAL_Driver/Src/stm32f7xx_hal_uart.c ****   UART_HandleTypeDef* huart = (UART_HandleTypeDef*)((DMA_HandleTypeDef*)hdma)->Parent;
 1848              		.loc 1 1435 0
 1849              		.cfi_startproc
 1850              		@ args = 0, pretend = 0, frame = 0
 1851              		@ frame_needed = 0, uses_anonymous_args = 0
 1852              	.LVL158:
1435:Drivers/STM32F7xx_HAL_Driver/Src/stm32f7xx_hal_uart.c ****   UART_HandleTypeDef* huart = (UART_HandleTypeDef*)((DMA_HandleTypeDef*)hdma)->Parent;
 1853              		.loc 1 1435 0
 1854 0000 08B5     		push	{r3, lr}
 1855              	.LCFI19:
 1856              		.cfi_def_cfa_offset 8
 1857              		.cfi_offset 3, -8
 1858              		.cfi_offset 14, -4
 1859              	.LVL159:
1438:Drivers/STM32F7xx_HAL_Driver/Src/stm32f7xx_hal_uart.c **** }
 1860              		.loc 1 1438 0
 1861 0002 806B     		ldr	r0, [r0, #56]
 1862              	.LVL160:
 1863 0004 FFF7FEFF 		bl	HAL_UART_RxHalfCpltCallback
 1864              	.LVL161:
 1865 0008 08BD     		pop	{r3, pc}
ARM GAS  C:\Users\Student\AppData\Local\Temp\cc4Wk4r8.s 			page 68


 1866              		.cfi_endproc
 1867              	.LFE158:
 1869              		.section	.text.HAL_UART_ErrorCallback,"ax",%progbits
 1870              		.align	1
 1871              		.weak	HAL_UART_ErrorCallback
 1872              		.syntax unified
 1873              		.thumb
 1874              		.thumb_func
 1875              		.fpu fpv5-sp-d16
 1877              	HAL_UART_ErrorCallback:
 1878              	.LFB165:
1549:Drivers/STM32F7xx_HAL_Driver/Src/stm32f7xx_hal_uart.c ****   /* Prevent unused argument(s) compilation warning */
 1879              		.loc 1 1549 0
 1880              		.cfi_startproc
 1881              		@ args = 0, pretend = 0, frame = 0
 1882              		@ frame_needed = 0, uses_anonymous_args = 0
 1883              		@ link register save eliminated.
 1884              	.LVL162:
 1885 0000 7047     		bx	lr
 1886              		.cfi_endproc
 1887              	.LFE165:
 1889              		.section	.text.UART_DMAError,"ax",%progbits
 1890              		.align	1
 1891              		.syntax unified
 1892              		.thumb
 1893              		.thumb_func
 1894              		.fpu fpv5-sp-d16
 1896              	UART_DMAError:
 1897              	.LFB159:
1447:Drivers/STM32F7xx_HAL_Driver/Src/stm32f7xx_hal_uart.c ****   UART_HandleTypeDef* huart = ( UART_HandleTypeDef* )((DMA_HandleTypeDef* )hdma)->Parent;
 1898              		.loc 1 1447 0
 1899              		.cfi_startproc
 1900              		@ args = 0, pretend = 0, frame = 0
 1901              		@ frame_needed = 0, uses_anonymous_args = 0
 1902              	.LVL163:
1447:Drivers/STM32F7xx_HAL_Driver/Src/stm32f7xx_hal_uart.c ****   UART_HandleTypeDef* huart = ( UART_HandleTypeDef* )((DMA_HandleTypeDef* )hdma)->Parent;
 1903              		.loc 1 1447 0
 1904 0000 10B5     		push	{r4, lr}
 1905              	.LCFI20:
 1906              		.cfi_def_cfa_offset 8
 1907              		.cfi_offset 4, -8
 1908              		.cfi_offset 14, -4
1448:Drivers/STM32F7xx_HAL_Driver/Src/stm32f7xx_hal_uart.c ****   huart->RxXferCount = 0U;
 1909              		.loc 1 1448 0
 1910 0002 846B     		ldr	r4, [r0, #56]
 1911              	.LVL164:
1449:Drivers/STM32F7xx_HAL_Driver/Src/stm32f7xx_hal_uart.c ****   huart->TxXferCount = 0U;
 1912              		.loc 1 1449 0
 1913 0004 0023     		movs	r3, #0
 1914 0006 A4F85A30 		strh	r3, [r4, #90]	@ movhi
1450:Drivers/STM32F7xx_HAL_Driver/Src/stm32f7xx_hal_uart.c ****   /* Stop UART DMA Tx request if ongoing */
 1915              		.loc 1 1450 0
 1916 000a A4F85230 		strh	r3, [r4, #82]	@ movhi
1452:Drivers/STM32F7xx_HAL_Driver/Src/stm32f7xx_hal_uart.c ****       &&(HAL_IS_BIT_SET(huart->Instance->CR3, USART_CR3_DMAT)) )
 1917              		.loc 1 1452 0
 1918 000e 94F86930 		ldrb	r3, [r4, #105]	@ zero_extendqisi2
 1919 0012 DBB2     		uxtb	r3, r3
ARM GAS  C:\Users\Student\AppData\Local\Temp\cc4Wk4r8.s 			page 69


 1920 0014 212B     		cmp	r3, #33
 1921 0016 0CD0     		beq	.L162
 1922              	.LVL165:
 1923              	.L159:
1459:Drivers/STM32F7xx_HAL_Driver/Src/stm32f7xx_hal_uart.c ****       &&(HAL_IS_BIT_SET(huart->Instance->CR3, USART_CR3_DMAR)) )
 1924              		.loc 1 1459 0
 1925 0018 94F86A30 		ldrb	r3, [r4, #106]	@ zero_extendqisi2
 1926 001c DBB2     		uxtb	r3, r3
 1927 001e 222B     		cmp	r3, #34
 1928 0020 10D0     		beq	.L163
 1929              	.L160:
1464:Drivers/STM32F7xx_HAL_Driver/Src/stm32f7xx_hal_uart.c ****   HAL_UART_ErrorCallback(huart);
 1930              		.loc 1 1464 0
 1931 0022 E36E     		ldr	r3, [r4, #108]
 1932 0024 43F01003 		orr	r3, r3, #16
 1933 0028 E366     		str	r3, [r4, #108]
1465:Drivers/STM32F7xx_HAL_Driver/Src/stm32f7xx_hal_uart.c **** }
 1934              		.loc 1 1465 0
 1935 002a 2046     		mov	r0, r4
 1936 002c FFF7FEFF 		bl	HAL_UART_ErrorCallback
 1937              	.LVL166:
 1938 0030 10BD     		pop	{r4, pc}
 1939              	.LVL167:
 1940              	.L162:
1453:Drivers/STM32F7xx_HAL_Driver/Src/stm32f7xx_hal_uart.c ****   {
 1941              		.loc 1 1453 0
 1942 0032 2368     		ldr	r3, [r4]
 1943 0034 9B68     		ldr	r3, [r3, #8]
 1944 0036 13F0800F 		tst	r3, #128
 1945 003a EDD0     		beq	.L159
1455:Drivers/STM32F7xx_HAL_Driver/Src/stm32f7xx_hal_uart.c ****   }
 1946              		.loc 1 1455 0
 1947 003c 2046     		mov	r0, r4
 1948              	.LVL168:
 1949 003e FFF7FEFF 		bl	UART_EndTxTransfer
 1950              	.LVL169:
 1951 0042 E9E7     		b	.L159
 1952              	.L163:
1460:Drivers/STM32F7xx_HAL_Driver/Src/stm32f7xx_hal_uart.c ****   {
 1953              		.loc 1 1460 0
 1954 0044 2368     		ldr	r3, [r4]
 1955 0046 9B68     		ldr	r3, [r3, #8]
 1956 0048 13F0400F 		tst	r3, #64
 1957 004c E9D0     		beq	.L160
1462:Drivers/STM32F7xx_HAL_Driver/Src/stm32f7xx_hal_uart.c ****   }
 1958              		.loc 1 1462 0
 1959 004e 2046     		mov	r0, r4
 1960 0050 FFF7FEFF 		bl	UART_EndRxTransfer
 1961              	.LVL170:
 1962 0054 E5E7     		b	.L160
 1963              		.cfi_endproc
 1964              	.LFE159:
 1966              		.section	.text.HAL_UART_IRQHandler,"ax",%progbits
 1967              		.align	1
 1968              		.global	HAL_UART_IRQHandler
 1969              		.syntax unified
 1970              		.thumb
ARM GAS  C:\Users\Student\AppData\Local\Temp\cc4Wk4r8.s 			page 70


 1971              		.thumb_func
 1972              		.fpu fpv5-sp-d16
 1974              	HAL_UART_IRQHandler:
 1975              	.LFB153:
1191:Drivers/STM32F7xx_HAL_Driver/Src/stm32f7xx_hal_uart.c ****   uint32_t isrflags   = READ_REG(huart->Instance->ISR);
 1976              		.loc 1 1191 0
 1977              		.cfi_startproc
 1978              		@ args = 0, pretend = 0, frame = 0
 1979              		@ frame_needed = 0, uses_anonymous_args = 0
 1980              	.LVL171:
 1981 0000 38B5     		push	{r3, r4, r5, lr}
 1982              	.LCFI21:
 1983              		.cfi_def_cfa_offset 16
 1984              		.cfi_offset 3, -16
 1985              		.cfi_offset 4, -12
 1986              		.cfi_offset 5, -8
 1987              		.cfi_offset 14, -4
 1988 0002 0446     		mov	r4, r0
1192:Drivers/STM32F7xx_HAL_Driver/Src/stm32f7xx_hal_uart.c ****   uint32_t cr1its     = READ_REG(huart->Instance->CR1);
 1989              		.loc 1 1192 0
 1990 0004 0268     		ldr	r2, [r0]
 1991 0006 D369     		ldr	r3, [r2, #28]
 1992              	.LVL172:
1193:Drivers/STM32F7xx_HAL_Driver/Src/stm32f7xx_hal_uart.c ****   uint32_t cr3its     = READ_REG(huart->Instance->CR3);
 1993              		.loc 1 1193 0
 1994 0008 1068     		ldr	r0, [r2]
 1995              	.LVL173:
1194:Drivers/STM32F7xx_HAL_Driver/Src/stm32f7xx_hal_uart.c ****   uint32_t errorflags;
 1996              		.loc 1 1194 0
 1997 000a 9168     		ldr	r1, [r2, #8]
 1998              	.LVL174:
1199:Drivers/STM32F7xx_HAL_Driver/Src/stm32f7xx_hal_uart.c ****   {
 1999              		.loc 1 1199 0
 2000 000c 13F00F05 		ands	r5, r3, #15
 2001              	.LVL175:
 2002 0010 05D1     		bne	.L165
1202:Drivers/STM32F7xx_HAL_Driver/Src/stm32f7xx_hal_uart.c ****     {
 2003              		.loc 1 1202 0
 2004 0012 13F0200F 		tst	r3, #32
 2005 0016 02D0     		beq	.L165
1202:Drivers/STM32F7xx_HAL_Driver/Src/stm32f7xx_hal_uart.c ****     {
 2006              		.loc 1 1202 0 is_stmt 0 discriminator 1
 2007 0018 10F0200F 		tst	r0, #32
 2008 001c 5FD1     		bne	.L181
 2009              	.L165:
1210:Drivers/STM32F7xx_HAL_Driver/Src/stm32f7xx_hal_uart.c ****      && (   ((cr3its & USART_CR3_EIE) != RESET)
 2010              		.loc 1 1210 0 is_stmt 1
 2011 001e 002D     		cmp	r5, #0
 2012 0020 73D0     		beq	.L167
1211:Drivers/STM32F7xx_HAL_Driver/Src/stm32f7xx_hal_uart.c ****          || ((cr1its & (USART_CR1_RXNEIE | USART_CR1_PEIE)) != RESET)) )
 2013              		.loc 1 1211 0
 2014 0022 11F00101 		ands	r1, r1, #1
 2015              	.LVL176:
 2016 0026 02D1     		bne	.L168
1212:Drivers/STM32F7xx_HAL_Driver/Src/stm32f7xx_hal_uart.c ****   {
 2017              		.loc 1 1212 0
 2018 0028 10F4907F 		tst	r0, #288
ARM GAS  C:\Users\Student\AppData\Local\Temp\cc4Wk4r8.s 			page 71


 2019 002c 6DD0     		beq	.L167
 2020              	.L168:
1216:Drivers/STM32F7xx_HAL_Driver/Src/stm32f7xx_hal_uart.c ****     {
 2021              		.loc 1 1216 0
 2022 002e 13F0010F 		tst	r3, #1
 2023 0032 07D0     		beq	.L169
1216:Drivers/STM32F7xx_HAL_Driver/Src/stm32f7xx_hal_uart.c ****     {
 2024              		.loc 1 1216 0 is_stmt 0 discriminator 1
 2025 0034 10F4807F 		tst	r0, #256
 2026 0038 04D0     		beq	.L169
1218:Drivers/STM32F7xx_HAL_Driver/Src/stm32f7xx_hal_uart.c **** 
 2027              		.loc 1 1218 0 is_stmt 1
 2028 003a 0125     		movs	r5, #1
 2029              	.LVL177:
 2030 003c 1562     		str	r5, [r2, #32]
1220:Drivers/STM32F7xx_HAL_Driver/Src/stm32f7xx_hal_uart.c ****     }
 2031              		.loc 1 1220 0
 2032 003e E26E     		ldr	r2, [r4, #108]
 2033 0040 2A43     		orrs	r2, r2, r5
 2034 0042 E266     		str	r2, [r4, #108]
 2035              	.L169:
1224:Drivers/STM32F7xx_HAL_Driver/Src/stm32f7xx_hal_uart.c ****     {
 2036              		.loc 1 1224 0
 2037 0044 13F0020F 		tst	r3, #2
 2038 0048 07D0     		beq	.L170
1224:Drivers/STM32F7xx_HAL_Driver/Src/stm32f7xx_hal_uart.c ****     {
 2039              		.loc 1 1224 0 is_stmt 0 discriminator 1
 2040 004a 31B1     		cbz	r1, .L170
1226:Drivers/STM32F7xx_HAL_Driver/Src/stm32f7xx_hal_uart.c **** 
 2041              		.loc 1 1226 0 is_stmt 1
 2042 004c 2268     		ldr	r2, [r4]
 2043 004e 0225     		movs	r5, #2
 2044 0050 1562     		str	r5, [r2, #32]
1228:Drivers/STM32F7xx_HAL_Driver/Src/stm32f7xx_hal_uart.c ****     }
 2045              		.loc 1 1228 0
 2046 0052 E26E     		ldr	r2, [r4, #108]
 2047 0054 42F00402 		orr	r2, r2, #4
 2048 0058 E266     		str	r2, [r4, #108]
 2049              	.L170:
1232:Drivers/STM32F7xx_HAL_Driver/Src/stm32f7xx_hal_uart.c ****     {
 2050              		.loc 1 1232 0
 2051 005a 13F0040F 		tst	r3, #4
 2052 005e 07D0     		beq	.L171
1232:Drivers/STM32F7xx_HAL_Driver/Src/stm32f7xx_hal_uart.c ****     {
 2053              		.loc 1 1232 0 is_stmt 0 discriminator 1
 2054 0060 31B1     		cbz	r1, .L171
1234:Drivers/STM32F7xx_HAL_Driver/Src/stm32f7xx_hal_uart.c **** 
 2055              		.loc 1 1234 0 is_stmt 1
 2056 0062 2268     		ldr	r2, [r4]
 2057 0064 0425     		movs	r5, #4
 2058 0066 1562     		str	r5, [r2, #32]
1236:Drivers/STM32F7xx_HAL_Driver/Src/stm32f7xx_hal_uart.c ****     }
 2059              		.loc 1 1236 0
 2060 0068 E26E     		ldr	r2, [r4, #108]
 2061 006a 42F00202 		orr	r2, r2, #2
 2062 006e E266     		str	r2, [r4, #108]
 2063              	.L171:
ARM GAS  C:\Users\Student\AppData\Local\Temp\cc4Wk4r8.s 			page 72


1240:Drivers/STM32F7xx_HAL_Driver/Src/stm32f7xx_hal_uart.c ****        (((cr1its & USART_CR1_RXNEIE) != RESET) || ((cr3its & USART_CR3_EIE) != RESET)))
 2064              		.loc 1 1240 0
 2065 0070 13F0080F 		tst	r3, #8
 2066 0074 09D0     		beq	.L172
1240:Drivers/STM32F7xx_HAL_Driver/Src/stm32f7xx_hal_uart.c ****        (((cr1its & USART_CR1_RXNEIE) != RESET) || ((cr3its & USART_CR3_EIE) != RESET)))
 2067              		.loc 1 1240 0 is_stmt 0 discriminator 1
 2068 0076 10F0200F 		tst	r0, #32
 2069 007a 00D1     		bne	.L173
1241:Drivers/STM32F7xx_HAL_Driver/Src/stm32f7xx_hal_uart.c ****     {
 2070              		.loc 1 1241 0 is_stmt 1
 2071 007c 29B1     		cbz	r1, .L172
 2072              	.L173:
1243:Drivers/STM32F7xx_HAL_Driver/Src/stm32f7xx_hal_uart.c **** 
 2073              		.loc 1 1243 0
 2074 007e 2268     		ldr	r2, [r4]
 2075 0080 0821     		movs	r1, #8
 2076 0082 1162     		str	r1, [r2, #32]
1245:Drivers/STM32F7xx_HAL_Driver/Src/stm32f7xx_hal_uart.c ****     }
 2077              		.loc 1 1245 0
 2078 0084 E26E     		ldr	r2, [r4, #108]
 2079 0086 0A43     		orrs	r2, r2, r1
 2080 0088 E266     		str	r2, [r4, #108]
 2081              	.L172:
1249:Drivers/STM32F7xx_HAL_Driver/Src/stm32f7xx_hal_uart.c ****     {
 2082              		.loc 1 1249 0
 2083 008a E26E     		ldr	r2, [r4, #108]
 2084 008c 002A     		cmp	r2, #0
 2085 008e 48D0     		beq	.L164
1252:Drivers/STM32F7xx_HAL_Driver/Src/stm32f7xx_hal_uart.c ****       {
 2086              		.loc 1 1252 0
 2087 0090 13F0200F 		tst	r3, #32
 2088 0094 02D0     		beq	.L174
1252:Drivers/STM32F7xx_HAL_Driver/Src/stm32f7xx_hal_uart.c ****       {
 2089              		.loc 1 1252 0 is_stmt 0 discriminator 1
 2090 0096 10F0200F 		tst	r0, #32
 2091 009a 24D1     		bne	.L182
 2092              	.LVL178:
 2093              	.L174:
1259:Drivers/STM32F7xx_HAL_Driver/Src/stm32f7xx_hal_uart.c ****           (HAL_IS_BIT_SET(huart->Instance->CR3, USART_CR3_DMAR)))
 2094              		.loc 1 1259 0 is_stmt 1
 2095 009c E36E     		ldr	r3, [r4, #108]
 2096 009e 13F0080F 		tst	r3, #8
 2097 00a2 04D1     		bne	.L175
1260:Drivers/STM32F7xx_HAL_Driver/Src/stm32f7xx_hal_uart.c ****       {
 2098              		.loc 1 1260 0 discriminator 1
 2099 00a4 2368     		ldr	r3, [r4]
 2100 00a6 9B68     		ldr	r3, [r3, #8]
1259:Drivers/STM32F7xx_HAL_Driver/Src/stm32f7xx_hal_uart.c ****           (HAL_IS_BIT_SET(huart->Instance->CR3, USART_CR3_DMAR)))
 2101              		.loc 1 1259 0 discriminator 1
 2102 00a8 13F0400F 		tst	r3, #64
 2103 00ac 27D0     		beq	.L176
 2104              	.L175:
1265:Drivers/STM32F7xx_HAL_Driver/Src/stm32f7xx_hal_uart.c **** 
 2105              		.loc 1 1265 0
 2106 00ae 2046     		mov	r0, r4
 2107 00b0 FFF7FEFF 		bl	UART_EndRxTransfer
 2108              	.LVL179:
ARM GAS  C:\Users\Student\AppData\Local\Temp\cc4Wk4r8.s 			page 73


1268:Drivers/STM32F7xx_HAL_Driver/Src/stm32f7xx_hal_uart.c ****         {
 2109              		.loc 1 1268 0
 2110 00b4 2368     		ldr	r3, [r4]
 2111 00b6 9A68     		ldr	r2, [r3, #8]
 2112 00b8 12F0400F 		tst	r2, #64
 2113 00bc 1BD0     		beq	.L177
1270:Drivers/STM32F7xx_HAL_Driver/Src/stm32f7xx_hal_uart.c **** 
 2114              		.loc 1 1270 0
 2115 00be 9A68     		ldr	r2, [r3, #8]
 2116 00c0 22F04002 		bic	r2, r2, #64
 2117 00c4 9A60     		str	r2, [r3, #8]
1273:Drivers/STM32F7xx_HAL_Driver/Src/stm32f7xx_hal_uart.c ****           {
 2118              		.loc 1 1273 0
 2119 00c6 636E     		ldr	r3, [r4, #100]
 2120 00c8 8BB1     		cbz	r3, .L178
1277:Drivers/STM32F7xx_HAL_Driver/Src/stm32f7xx_hal_uart.c **** 
 2121              		.loc 1 1277 0
 2122 00ca 1A4A     		ldr	r2, .L185
 2123 00cc 1A65     		str	r2, [r3, #80]
1280:Drivers/STM32F7xx_HAL_Driver/Src/stm32f7xx_hal_uart.c ****             {
 2124              		.loc 1 1280 0
 2125 00ce 606E     		ldr	r0, [r4, #100]
 2126 00d0 FFF7FEFF 		bl	HAL_DMA_Abort_IT
 2127              	.LVL180:
 2128 00d4 28B3     		cbz	r0, .L164
1283:Drivers/STM32F7xx_HAL_Driver/Src/stm32f7xx_hal_uart.c ****             }
 2129              		.loc 1 1283 0
 2130 00d6 606E     		ldr	r0, [r4, #100]
 2131 00d8 036D     		ldr	r3, [r0, #80]
 2132 00da 9847     		blx	r3
 2133              	.LVL181:
 2134 00dc 38BD     		pop	{r3, r4, r5, pc}
 2135              	.LVL182:
 2136              	.L181:
1204:Drivers/STM32F7xx_HAL_Driver/Src/stm32f7xx_hal_uart.c ****       return;
 2137              		.loc 1 1204 0
 2138 00de 2046     		mov	r0, r4
 2139              	.LVL183:
 2140 00e0 FFF7FEFF 		bl	UART_Receive_IT
 2141              	.LVL184:
1205:Drivers/STM32F7xx_HAL_Driver/Src/stm32f7xx_hal_uart.c ****     }
 2142              		.loc 1 1205 0
 2143 00e4 38BD     		pop	{r3, r4, r5, pc}
 2144              	.LVL185:
 2145              	.L182:
1254:Drivers/STM32F7xx_HAL_Driver/Src/stm32f7xx_hal_uart.c ****       }
 2146              		.loc 1 1254 0
 2147 00e6 2046     		mov	r0, r4
 2148              	.LVL186:
 2149 00e8 FFF7FEFF 		bl	UART_Receive_IT
 2150              	.LVL187:
 2151 00ec D6E7     		b	.L174
 2152              	.L178:
1289:Drivers/STM32F7xx_HAL_Driver/Src/stm32f7xx_hal_uart.c ****           }
 2153              		.loc 1 1289 0
 2154 00ee 2046     		mov	r0, r4
 2155 00f0 FFF7FEFF 		bl	HAL_UART_ErrorCallback
ARM GAS  C:\Users\Student\AppData\Local\Temp\cc4Wk4r8.s 			page 74


 2156              	.LVL188:
 2157 00f4 38BD     		pop	{r3, r4, r5, pc}
 2158              	.LVL189:
 2159              	.L177:
1295:Drivers/STM32F7xx_HAL_Driver/Src/stm32f7xx_hal_uart.c ****         }
 2160              		.loc 1 1295 0
 2161 00f6 2046     		mov	r0, r4
 2162 00f8 FFF7FEFF 		bl	HAL_UART_ErrorCallback
 2163              	.LVL190:
 2164 00fc 38BD     		pop	{r3, r4, r5, pc}
 2165              	.LVL191:
 2166              	.L176:
1302:Drivers/STM32F7xx_HAL_Driver/Src/stm32f7xx_hal_uart.c ****         huart->ErrorCode = HAL_UART_ERROR_NONE;
 2167              		.loc 1 1302 0
 2168 00fe 2046     		mov	r0, r4
 2169 0100 FFF7FEFF 		bl	HAL_UART_ErrorCallback
 2170              	.LVL192:
1303:Drivers/STM32F7xx_HAL_Driver/Src/stm32f7xx_hal_uart.c ****       }
 2171              		.loc 1 1303 0
 2172 0104 0023     		movs	r3, #0
 2173 0106 E366     		str	r3, [r4, #108]
 2174 0108 38BD     		pop	{r3, r4, r5, pc}
 2175              	.LVL193:
 2176              	.L167:
1311:Drivers/STM32F7xx_HAL_Driver/Src/stm32f7xx_hal_uart.c ****   {
 2177              		.loc 1 1311 0
 2178 010a 13F0800F 		tst	r3, #128
 2179 010e 02D0     		beq	.L179
1311:Drivers/STM32F7xx_HAL_Driver/Src/stm32f7xx_hal_uart.c ****   {
 2180              		.loc 1 1311 0 is_stmt 0 discriminator 1
 2181 0110 10F0800F 		tst	r0, #128
 2182 0114 06D1     		bne	.L183
 2183              	.L179:
1318:Drivers/STM32F7xx_HAL_Driver/Src/stm32f7xx_hal_uart.c ****   {
 2184              		.loc 1 1318 0 is_stmt 1
 2185 0116 13F0400F 		tst	r3, #64
 2186 011a 02D0     		beq	.L164
1318:Drivers/STM32F7xx_HAL_Driver/Src/stm32f7xx_hal_uart.c ****   {
 2187              		.loc 1 1318 0 is_stmt 0 discriminator 1
 2188 011c 10F0400F 		tst	r0, #64
 2189 0120 04D1     		bne	.L184
 2190              	.LVL194:
 2191              	.L164:
 2192 0122 38BD     		pop	{r3, r4, r5, pc}
 2193              	.LVL195:
 2194              	.L183:
1313:Drivers/STM32F7xx_HAL_Driver/Src/stm32f7xx_hal_uart.c ****     return;
 2195              		.loc 1 1313 0 is_stmt 1
 2196 0124 2046     		mov	r0, r4
 2197              	.LVL196:
 2198 0126 FFF7FEFF 		bl	UART_Transmit_IT
 2199              	.LVL197:
1314:Drivers/STM32F7xx_HAL_Driver/Src/stm32f7xx_hal_uart.c ****   }
 2200              		.loc 1 1314 0
 2201 012a 38BD     		pop	{r3, r4, r5, pc}
 2202              	.LVL198:
 2203              	.L184:
ARM GAS  C:\Users\Student\AppData\Local\Temp\cc4Wk4r8.s 			page 75


1320:Drivers/STM32F7xx_HAL_Driver/Src/stm32f7xx_hal_uart.c ****     return;
 2204              		.loc 1 1320 0
 2205 012c 2046     		mov	r0, r4
 2206              	.LVL199:
 2207 012e FFF7FEFF 		bl	UART_EndTransmit_IT
 2208              	.LVL200:
1321:Drivers/STM32F7xx_HAL_Driver/Src/stm32f7xx_hal_uart.c ****   }
 2209              		.loc 1 1321 0
 2210 0132 F6E7     		b	.L164
 2211              	.L186:
 2212              		.align	2
 2213              	.L185:
 2214 0134 00000000 		.word	UART_DMAAbortOnError
 2215              		.cfi_endproc
 2216              	.LFE153:
 2218              		.section	.text.UART_DMAAbortOnError,"ax",%progbits
 2219              		.align	1
 2220              		.syntax unified
 2221              		.thumb
 2222              		.thumb_func
 2223              		.fpu fpv5-sp-d16
 2225              	UART_DMAAbortOnError:
 2226              	.LFB160:
1475:Drivers/STM32F7xx_HAL_Driver/Src/stm32f7xx_hal_uart.c ****   UART_HandleTypeDef* huart = (UART_HandleTypeDef*)(hdma->Parent);
 2227              		.loc 1 1475 0
 2228              		.cfi_startproc
 2229              		@ args = 0, pretend = 0, frame = 0
 2230              		@ frame_needed = 0, uses_anonymous_args = 0
 2231              	.LVL201:
 2232 0000 08B5     		push	{r3, lr}
 2233              	.LCFI22:
 2234              		.cfi_def_cfa_offset 8
 2235              		.cfi_offset 3, -8
 2236              		.cfi_offset 14, -4
1476:Drivers/STM32F7xx_HAL_Driver/Src/stm32f7xx_hal_uart.c ****   huart->RxXferCount = 0U;
 2237              		.loc 1 1476 0
 2238 0002 806B     		ldr	r0, [r0, #56]
 2239              	.LVL202:
1477:Drivers/STM32F7xx_HAL_Driver/Src/stm32f7xx_hal_uart.c ****   huart->TxXferCount = 0U;
 2240              		.loc 1 1477 0
 2241 0004 0023     		movs	r3, #0
 2242 0006 A0F85A30 		strh	r3, [r0, #90]	@ movhi
1478:Drivers/STM32F7xx_HAL_Driver/Src/stm32f7xx_hal_uart.c **** 
 2243              		.loc 1 1478 0
 2244 000a A0F85230 		strh	r3, [r0, #82]	@ movhi
1480:Drivers/STM32F7xx_HAL_Driver/Src/stm32f7xx_hal_uart.c **** }
 2245              		.loc 1 1480 0
 2246 000e FFF7FEFF 		bl	HAL_UART_ErrorCallback
 2247              	.LVL203:
 2248 0012 08BD     		pop	{r3, pc}
 2249              		.cfi_endproc
 2250              	.LFE160:
 2252              		.section	.text.HAL_MultiProcessor_EnterMuteMode,"ax",%progbits
 2253              		.align	1
 2254              		.global	HAL_MultiProcessor_EnterMuteMode
 2255              		.syntax unified
 2256              		.thumb
ARM GAS  C:\Users\Student\AppData\Local\Temp\cc4Wk4r8.s 			page 76


 2257              		.thumb_func
 2258              		.fpu fpv5-sp-d16
 2260              	HAL_MultiProcessor_EnterMuteMode:
 2261              	.LFB173:
1708:Drivers/STM32F7xx_HAL_Driver/Src/stm32f7xx_hal_uart.c **** }
1709:Drivers/STM32F7xx_HAL_Driver/Src/stm32f7xx_hal_uart.c **** 
1710:Drivers/STM32F7xx_HAL_Driver/Src/stm32f7xx_hal_uart.c **** /**
1711:Drivers/STM32F7xx_HAL_Driver/Src/stm32f7xx_hal_uart.c ****   * @}
1712:Drivers/STM32F7xx_HAL_Driver/Src/stm32f7xx_hal_uart.c ****   */
1713:Drivers/STM32F7xx_HAL_Driver/Src/stm32f7xx_hal_uart.c **** 
1714:Drivers/STM32F7xx_HAL_Driver/Src/stm32f7xx_hal_uart.c **** /** @defgroup UART_Exported_Functions_Group3 Peripheral Control functions
1715:Drivers/STM32F7xx_HAL_Driver/Src/stm32f7xx_hal_uart.c ****   *  @brief   UART control functions
1716:Drivers/STM32F7xx_HAL_Driver/Src/stm32f7xx_hal_uart.c ****   *
1717:Drivers/STM32F7xx_HAL_Driver/Src/stm32f7xx_hal_uart.c **** @verbatim
1718:Drivers/STM32F7xx_HAL_Driver/Src/stm32f7xx_hal_uart.c ****  ===============================================================================
1719:Drivers/STM32F7xx_HAL_Driver/Src/stm32f7xx_hal_uart.c ****                       ##### Peripheral Control functions #####
1720:Drivers/STM32F7xx_HAL_Driver/Src/stm32f7xx_hal_uart.c ****  ===============================================================================
1721:Drivers/STM32F7xx_HAL_Driver/Src/stm32f7xx_hal_uart.c ****     [..]
1722:Drivers/STM32F7xx_HAL_Driver/Src/stm32f7xx_hal_uart.c ****     This subsection provides a set of functions allowing to control the UART.
1723:Drivers/STM32F7xx_HAL_Driver/Src/stm32f7xx_hal_uart.c ****      (+) HAL_UART_GetState() API is helpful to check in run-time the state of the UART peripheral.
1724:Drivers/STM32F7xx_HAL_Driver/Src/stm32f7xx_hal_uart.c ****      (+) HAL_MultiProcessor_EnableMuteMode() API enables mute mode
1725:Drivers/STM32F7xx_HAL_Driver/Src/stm32f7xx_hal_uart.c ****      (+) HAL_MultiProcessor_DisableMuteMode() API disables mute mode
1726:Drivers/STM32F7xx_HAL_Driver/Src/stm32f7xx_hal_uart.c ****      (+) HAL_MultiProcessor_EnterMuteMode() API enters mute mode
1727:Drivers/STM32F7xx_HAL_Driver/Src/stm32f7xx_hal_uart.c ****      (+) HAL_MultiProcessor_EnableMuteMode() API enables mute mode
1728:Drivers/STM32F7xx_HAL_Driver/Src/stm32f7xx_hal_uart.c ****      (+) UART_SetConfig() API configures the UART peripheral
1729:Drivers/STM32F7xx_HAL_Driver/Src/stm32f7xx_hal_uart.c ****      (+) UART_AdvFeatureConfig() API optionally configures the UART advanced features
1730:Drivers/STM32F7xx_HAL_Driver/Src/stm32f7xx_hal_uart.c ****      (+) UART_CheckIdleState() API ensures that TEACK and/or REACK are set after initialization
1731:Drivers/STM32F7xx_HAL_Driver/Src/stm32f7xx_hal_uart.c ****      (+) HAL_HalfDuplex_EnableTransmitter() API disables receiver and enables transmitter
1732:Drivers/STM32F7xx_HAL_Driver/Src/stm32f7xx_hal_uart.c ****      (+) HAL_HalfDuplex_EnableReceiver() API disables transmitter and enables receiver
1733:Drivers/STM32F7xx_HAL_Driver/Src/stm32f7xx_hal_uart.c ****      (+) HAL_LIN_SendBreak() API transmits the break characters
1734:Drivers/STM32F7xx_HAL_Driver/Src/stm32f7xx_hal_uart.c **** 	 (+) HAL_MultiProcessorEx_AddressLength_Set() API optionally sets the UART node address
1735:Drivers/STM32F7xx_HAL_Driver/Src/stm32f7xx_hal_uart.c ****          detection length to more than 4 bits for multiprocessor address mark wake up.
1736:Drivers/STM32F7xx_HAL_Driver/Src/stm32f7xx_hal_uart.c **** @endverbatim
1737:Drivers/STM32F7xx_HAL_Driver/Src/stm32f7xx_hal_uart.c ****   * @{
1738:Drivers/STM32F7xx_HAL_Driver/Src/stm32f7xx_hal_uart.c ****   */
1739:Drivers/STM32F7xx_HAL_Driver/Src/stm32f7xx_hal_uart.c **** 
1740:Drivers/STM32F7xx_HAL_Driver/Src/stm32f7xx_hal_uart.c **** /**
1741:Drivers/STM32F7xx_HAL_Driver/Src/stm32f7xx_hal_uart.c ****   * @brief Enable UART in mute mode (doesn't mean UART enters mute mode;
1742:Drivers/STM32F7xx_HAL_Driver/Src/stm32f7xx_hal_uart.c ****   * to enter mute mode, HAL_MultiProcessor_EnterMuteMode() API must be called)
1743:Drivers/STM32F7xx_HAL_Driver/Src/stm32f7xx_hal_uart.c ****   * @param huart UART handle
1744:Drivers/STM32F7xx_HAL_Driver/Src/stm32f7xx_hal_uart.c ****   * @retval HAL status
1745:Drivers/STM32F7xx_HAL_Driver/Src/stm32f7xx_hal_uart.c ****   */
1746:Drivers/STM32F7xx_HAL_Driver/Src/stm32f7xx_hal_uart.c **** HAL_StatusTypeDef HAL_MultiProcessor_EnableMuteMode(UART_HandleTypeDef *huart)
1747:Drivers/STM32F7xx_HAL_Driver/Src/stm32f7xx_hal_uart.c **** {
1748:Drivers/STM32F7xx_HAL_Driver/Src/stm32f7xx_hal_uart.c ****   /* Process Locked */
1749:Drivers/STM32F7xx_HAL_Driver/Src/stm32f7xx_hal_uart.c ****   __HAL_LOCK(huart);
1750:Drivers/STM32F7xx_HAL_Driver/Src/stm32f7xx_hal_uart.c **** 
1751:Drivers/STM32F7xx_HAL_Driver/Src/stm32f7xx_hal_uart.c ****   huart->gState = HAL_UART_STATE_BUSY;
1752:Drivers/STM32F7xx_HAL_Driver/Src/stm32f7xx_hal_uart.c **** 
1753:Drivers/STM32F7xx_HAL_Driver/Src/stm32f7xx_hal_uart.c ****   /* Enable USART mute mode by setting the MME bit in the CR1 register */
1754:Drivers/STM32F7xx_HAL_Driver/Src/stm32f7xx_hal_uart.c ****   SET_BIT(huart->Instance->CR1, USART_CR1_MME);
1755:Drivers/STM32F7xx_HAL_Driver/Src/stm32f7xx_hal_uart.c **** 
1756:Drivers/STM32F7xx_HAL_Driver/Src/stm32f7xx_hal_uart.c ****   huart->gState = HAL_UART_STATE_READY;
1757:Drivers/STM32F7xx_HAL_Driver/Src/stm32f7xx_hal_uart.c **** 
1758:Drivers/STM32F7xx_HAL_Driver/Src/stm32f7xx_hal_uart.c ****   return (UART_CheckIdleState(huart));
1759:Drivers/STM32F7xx_HAL_Driver/Src/stm32f7xx_hal_uart.c **** }
1760:Drivers/STM32F7xx_HAL_Driver/Src/stm32f7xx_hal_uart.c **** 
ARM GAS  C:\Users\Student\AppData\Local\Temp\cc4Wk4r8.s 			page 77


1761:Drivers/STM32F7xx_HAL_Driver/Src/stm32f7xx_hal_uart.c **** /**
1762:Drivers/STM32F7xx_HAL_Driver/Src/stm32f7xx_hal_uart.c ****   * @brief Disable UART mute mode (doesn't mean it actually wakes up the software,
1763:Drivers/STM32F7xx_HAL_Driver/Src/stm32f7xx_hal_uart.c ****   * as it may not have been in mute mode at this very moment).
1764:Drivers/STM32F7xx_HAL_Driver/Src/stm32f7xx_hal_uart.c ****   * @param huart uart handle
1765:Drivers/STM32F7xx_HAL_Driver/Src/stm32f7xx_hal_uart.c ****   * @retval HAL status
1766:Drivers/STM32F7xx_HAL_Driver/Src/stm32f7xx_hal_uart.c ****   */
1767:Drivers/STM32F7xx_HAL_Driver/Src/stm32f7xx_hal_uart.c **** HAL_StatusTypeDef HAL_MultiProcessor_DisableMuteMode(UART_HandleTypeDef *huart)
1768:Drivers/STM32F7xx_HAL_Driver/Src/stm32f7xx_hal_uart.c **** {
1769:Drivers/STM32F7xx_HAL_Driver/Src/stm32f7xx_hal_uart.c ****   /* Process Locked */
1770:Drivers/STM32F7xx_HAL_Driver/Src/stm32f7xx_hal_uart.c ****   __HAL_LOCK(huart);
1771:Drivers/STM32F7xx_HAL_Driver/Src/stm32f7xx_hal_uart.c **** 
1772:Drivers/STM32F7xx_HAL_Driver/Src/stm32f7xx_hal_uart.c ****   huart->gState = HAL_UART_STATE_BUSY;
1773:Drivers/STM32F7xx_HAL_Driver/Src/stm32f7xx_hal_uart.c **** 
1774:Drivers/STM32F7xx_HAL_Driver/Src/stm32f7xx_hal_uart.c ****    /* Disable USART mute mode by clearing the MME bit in the CR1 register */
1775:Drivers/STM32F7xx_HAL_Driver/Src/stm32f7xx_hal_uart.c ****   CLEAR_BIT(huart->Instance->CR1, USART_CR1_MME);
1776:Drivers/STM32F7xx_HAL_Driver/Src/stm32f7xx_hal_uart.c **** 
1777:Drivers/STM32F7xx_HAL_Driver/Src/stm32f7xx_hal_uart.c ****   huart->gState = HAL_UART_STATE_READY;
1778:Drivers/STM32F7xx_HAL_Driver/Src/stm32f7xx_hal_uart.c **** 
1779:Drivers/STM32F7xx_HAL_Driver/Src/stm32f7xx_hal_uart.c ****   return (UART_CheckIdleState(huart));
1780:Drivers/STM32F7xx_HAL_Driver/Src/stm32f7xx_hal_uart.c **** }
1781:Drivers/STM32F7xx_HAL_Driver/Src/stm32f7xx_hal_uart.c **** 
1782:Drivers/STM32F7xx_HAL_Driver/Src/stm32f7xx_hal_uart.c **** /**
1783:Drivers/STM32F7xx_HAL_Driver/Src/stm32f7xx_hal_uart.c ****   * @brief Enter UART mute mode (means UART actually enters mute mode).
1784:Drivers/STM32F7xx_HAL_Driver/Src/stm32f7xx_hal_uart.c ****   * To exit from mute mode, HAL_MultiProcessor_DisableMuteMode() API must be called.
1785:Drivers/STM32F7xx_HAL_Driver/Src/stm32f7xx_hal_uart.c ****   * @param huart uart handle
1786:Drivers/STM32F7xx_HAL_Driver/Src/stm32f7xx_hal_uart.c ****   * @retval HAL status
1787:Drivers/STM32F7xx_HAL_Driver/Src/stm32f7xx_hal_uart.c ****   */
1788:Drivers/STM32F7xx_HAL_Driver/Src/stm32f7xx_hal_uart.c **** void HAL_MultiProcessor_EnterMuteMode(UART_HandleTypeDef *huart)
1789:Drivers/STM32F7xx_HAL_Driver/Src/stm32f7xx_hal_uart.c **** {
 2262              		.loc 1 1789 0
 2263              		.cfi_startproc
 2264              		@ args = 0, pretend = 0, frame = 0
 2265              		@ frame_needed = 0, uses_anonymous_args = 0
 2266              		@ link register save eliminated.
 2267              	.LVL204:
1790:Drivers/STM32F7xx_HAL_Driver/Src/stm32f7xx_hal_uart.c ****   __HAL_UART_SEND_REQ(huart, UART_MUTE_MODE_REQUEST);
 2268              		.loc 1 1790 0
 2269 0000 0268     		ldr	r2, [r0]
 2270 0002 9369     		ldr	r3, [r2, #24]
 2271 0004 43F00403 		orr	r3, r3, #4
 2272 0008 9361     		str	r3, [r2, #24]
 2273 000a 7047     		bx	lr
 2274              		.cfi_endproc
 2275              	.LFE173:
 2277              		.section	.text.HAL_UART_GetState,"ax",%progbits
 2278              		.align	1
 2279              		.global	HAL_UART_GetState
 2280              		.syntax unified
 2281              		.thumb
 2282              		.thumb_func
 2283              		.fpu fpv5-sp-d16
 2285              	HAL_UART_GetState:
 2286              	.LFB174:
1791:Drivers/STM32F7xx_HAL_Driver/Src/stm32f7xx_hal_uart.c **** }
1792:Drivers/STM32F7xx_HAL_Driver/Src/stm32f7xx_hal_uart.c **** 
1793:Drivers/STM32F7xx_HAL_Driver/Src/stm32f7xx_hal_uart.c **** 
1794:Drivers/STM32F7xx_HAL_Driver/Src/stm32f7xx_hal_uart.c **** 
ARM GAS  C:\Users\Student\AppData\Local\Temp\cc4Wk4r8.s 			page 78


1795:Drivers/STM32F7xx_HAL_Driver/Src/stm32f7xx_hal_uart.c **** /**
1796:Drivers/STM32F7xx_HAL_Driver/Src/stm32f7xx_hal_uart.c ****   * @brief return the UART state
1797:Drivers/STM32F7xx_HAL_Driver/Src/stm32f7xx_hal_uart.c ****   * @param huart uart handle
1798:Drivers/STM32F7xx_HAL_Driver/Src/stm32f7xx_hal_uart.c ****   * @retval HAL state
1799:Drivers/STM32F7xx_HAL_Driver/Src/stm32f7xx_hal_uart.c ****   */
1800:Drivers/STM32F7xx_HAL_Driver/Src/stm32f7xx_hal_uart.c **** HAL_UART_StateTypeDef HAL_UART_GetState(UART_HandleTypeDef *huart)
1801:Drivers/STM32F7xx_HAL_Driver/Src/stm32f7xx_hal_uart.c **** {
 2287              		.loc 1 1801 0
 2288              		.cfi_startproc
 2289              		@ args = 0, pretend = 0, frame = 0
 2290              		@ frame_needed = 0, uses_anonymous_args = 0
 2291              		@ link register save eliminated.
 2292              	.LVL205:
1802:Drivers/STM32F7xx_HAL_Driver/Src/stm32f7xx_hal_uart.c ****   uint32_t temp1= 0x00U, temp2 = 0x00U;
1803:Drivers/STM32F7xx_HAL_Driver/Src/stm32f7xx_hal_uart.c ****   temp1 = huart->gState;
 2293              		.loc 1 1803 0
 2294 0000 90F86930 		ldrb	r3, [r0, #105]	@ zero_extendqisi2
 2295              	.LVL206:
1804:Drivers/STM32F7xx_HAL_Driver/Src/stm32f7xx_hal_uart.c ****   temp2 = huart->RxState;
 2296              		.loc 1 1804 0
 2297 0004 90F86A00 		ldrb	r0, [r0, #106]	@ zero_extendqisi2
 2298              	.LVL207:
1805:Drivers/STM32F7xx_HAL_Driver/Src/stm32f7xx_hal_uart.c **** 
1806:Drivers/STM32F7xx_HAL_Driver/Src/stm32f7xx_hal_uart.c ****   return (HAL_UART_StateTypeDef)(temp1 | temp2);
1807:Drivers/STM32F7xx_HAL_Driver/Src/stm32f7xx_hal_uart.c **** }
 2299              		.loc 1 1807 0
 2300 0008 1843     		orrs	r0, r0, r3
 2301              	.LVL208:
 2302 000a 7047     		bx	lr
 2303              		.cfi_endproc
 2304              	.LFE174:
 2306              		.section	.text.HAL_UART_GetError,"ax",%progbits
 2307              		.align	1
 2308              		.global	HAL_UART_GetError
 2309              		.syntax unified
 2310              		.thumb
 2311              		.thumb_func
 2312              		.fpu fpv5-sp-d16
 2314              	HAL_UART_GetError:
 2315              	.LFB175:
1808:Drivers/STM32F7xx_HAL_Driver/Src/stm32f7xx_hal_uart.c **** 
1809:Drivers/STM32F7xx_HAL_Driver/Src/stm32f7xx_hal_uart.c **** /**
1810:Drivers/STM32F7xx_HAL_Driver/Src/stm32f7xx_hal_uart.c **** * @brief  Return the UART error code
1811:Drivers/STM32F7xx_HAL_Driver/Src/stm32f7xx_hal_uart.c **** * @param  huart  pointer to a UART_HandleTypeDef structure that contains
1812:Drivers/STM32F7xx_HAL_Driver/Src/stm32f7xx_hal_uart.c ****   *              the configuration information for the specified UART.
1813:Drivers/STM32F7xx_HAL_Driver/Src/stm32f7xx_hal_uart.c **** * @retval UART Error Code
1814:Drivers/STM32F7xx_HAL_Driver/Src/stm32f7xx_hal_uart.c **** */
1815:Drivers/STM32F7xx_HAL_Driver/Src/stm32f7xx_hal_uart.c **** uint32_t HAL_UART_GetError(UART_HandleTypeDef *huart)
1816:Drivers/STM32F7xx_HAL_Driver/Src/stm32f7xx_hal_uart.c **** {
 2316              		.loc 1 1816 0
 2317              		.cfi_startproc
 2318              		@ args = 0, pretend = 0, frame = 0
 2319              		@ frame_needed = 0, uses_anonymous_args = 0
 2320              		@ link register save eliminated.
 2321              	.LVL209:
1817:Drivers/STM32F7xx_HAL_Driver/Src/stm32f7xx_hal_uart.c ****   return huart->ErrorCode;
 2322              		.loc 1 1817 0
ARM GAS  C:\Users\Student\AppData\Local\Temp\cc4Wk4r8.s 			page 79


 2323 0000 C06E     		ldr	r0, [r0, #108]
 2324              	.LVL210:
1818:Drivers/STM32F7xx_HAL_Driver/Src/stm32f7xx_hal_uart.c **** }
 2325              		.loc 1 1818 0
 2326 0002 7047     		bx	lr
 2327              		.cfi_endproc
 2328              	.LFE175:
 2330              		.section	.text.UART_SetConfig,"ax",%progbits
 2331              		.align	1
 2332              		.global	UART_SetConfig
 2333              		.syntax unified
 2334              		.thumb
 2335              		.thumb_func
 2336              		.fpu fpv5-sp-d16
 2338              	UART_SetConfig:
 2339              	.LFB176:
1819:Drivers/STM32F7xx_HAL_Driver/Src/stm32f7xx_hal_uart.c **** 
1820:Drivers/STM32F7xx_HAL_Driver/Src/stm32f7xx_hal_uart.c **** /**
1821:Drivers/STM32F7xx_HAL_Driver/Src/stm32f7xx_hal_uart.c ****   * @brief Configure the UART peripheral
1822:Drivers/STM32F7xx_HAL_Driver/Src/stm32f7xx_hal_uart.c ****   * @param huart uart handle
1823:Drivers/STM32F7xx_HAL_Driver/Src/stm32f7xx_hal_uart.c ****   * @retval None
1824:Drivers/STM32F7xx_HAL_Driver/Src/stm32f7xx_hal_uart.c ****   */
1825:Drivers/STM32F7xx_HAL_Driver/Src/stm32f7xx_hal_uart.c **** HAL_StatusTypeDef UART_SetConfig(UART_HandleTypeDef *huart)
1826:Drivers/STM32F7xx_HAL_Driver/Src/stm32f7xx_hal_uart.c **** {
 2340              		.loc 1 1826 0
 2341              		.cfi_startproc
 2342              		@ args = 0, pretend = 0, frame = 0
 2343              		@ frame_needed = 0, uses_anonymous_args = 0
 2344              	.LVL211:
 2345 0000 38B5     		push	{r3, r4, r5, lr}
 2346              	.LCFI23:
 2347              		.cfi_def_cfa_offset 16
 2348              		.cfi_offset 3, -16
 2349              		.cfi_offset 4, -12
 2350              		.cfi_offset 5, -8
 2351              		.cfi_offset 14, -4
 2352 0002 0446     		mov	r4, r0
 2353              	.LVL212:
1827:Drivers/STM32F7xx_HAL_Driver/Src/stm32f7xx_hal_uart.c ****   uint32_t tmpreg                     = 0x00000000U;
1828:Drivers/STM32F7xx_HAL_Driver/Src/stm32f7xx_hal_uart.c ****   UART_ClockSourceTypeDef clocksource = UART_CLOCKSOURCE_UNDEFINED;
1829:Drivers/STM32F7xx_HAL_Driver/Src/stm32f7xx_hal_uart.c ****   uint16_t brrtemp                    = 0x0000U;
1830:Drivers/STM32F7xx_HAL_Driver/Src/stm32f7xx_hal_uart.c ****   uint16_t usartdiv                   = 0x0000U;
1831:Drivers/STM32F7xx_HAL_Driver/Src/stm32f7xx_hal_uart.c ****   HAL_StatusTypeDef ret               = HAL_OK;
1832:Drivers/STM32F7xx_HAL_Driver/Src/stm32f7xx_hal_uart.c **** 
1833:Drivers/STM32F7xx_HAL_Driver/Src/stm32f7xx_hal_uart.c ****   /* Check the parameters */
1834:Drivers/STM32F7xx_HAL_Driver/Src/stm32f7xx_hal_uart.c ****   assert_param(IS_UART_BAUDRATE(huart->Init.BaudRate));
1835:Drivers/STM32F7xx_HAL_Driver/Src/stm32f7xx_hal_uart.c ****   assert_param(IS_UART_WORD_LENGTH(huart->Init.WordLength));
1836:Drivers/STM32F7xx_HAL_Driver/Src/stm32f7xx_hal_uart.c ****   assert_param(IS_UART_STOPBITS(huart->Init.StopBits));
1837:Drivers/STM32F7xx_HAL_Driver/Src/stm32f7xx_hal_uart.c ****   assert_param(IS_UART_PARITY(huart->Init.Parity));
1838:Drivers/STM32F7xx_HAL_Driver/Src/stm32f7xx_hal_uart.c ****   assert_param(IS_UART_MODE(huart->Init.Mode));
1839:Drivers/STM32F7xx_HAL_Driver/Src/stm32f7xx_hal_uart.c ****   assert_param(IS_UART_HARDWARE_FLOW_CONTROL(huart->Init.HwFlowCtl));
1840:Drivers/STM32F7xx_HAL_Driver/Src/stm32f7xx_hal_uart.c ****   assert_param(IS_UART_ONE_BIT_SAMPLE(huart->Init.OneBitSampling));
1841:Drivers/STM32F7xx_HAL_Driver/Src/stm32f7xx_hal_uart.c **** 
1842:Drivers/STM32F7xx_HAL_Driver/Src/stm32f7xx_hal_uart.c **** 
1843:Drivers/STM32F7xx_HAL_Driver/Src/stm32f7xx_hal_uart.c ****   /*-------------------------- USART CR1 Configuration -----------------------*/
1844:Drivers/STM32F7xx_HAL_Driver/Src/stm32f7xx_hal_uart.c ****   /* Clear M, PCE, PS, TE, RE and OVER8 bits and configure
1845:Drivers/STM32F7xx_HAL_Driver/Src/stm32f7xx_hal_uart.c ****    *  the UART Word Length, Parity, Mode and oversampling:
ARM GAS  C:\Users\Student\AppData\Local\Temp\cc4Wk4r8.s 			page 80


1846:Drivers/STM32F7xx_HAL_Driver/Src/stm32f7xx_hal_uart.c ****    *  set the M bits according to huart->Init.WordLength value
1847:Drivers/STM32F7xx_HAL_Driver/Src/stm32f7xx_hal_uart.c ****    *  set PCE and PS bits according to huart->Init.Parity value
1848:Drivers/STM32F7xx_HAL_Driver/Src/stm32f7xx_hal_uart.c ****    *  set TE and RE bits according to huart->Init.Mode value
1849:Drivers/STM32F7xx_HAL_Driver/Src/stm32f7xx_hal_uart.c ****    *  set OVER8 bit according to huart->Init.OverSampling value */
1850:Drivers/STM32F7xx_HAL_Driver/Src/stm32f7xx_hal_uart.c ****   tmpreg = (uint32_t)huart->Init.WordLength | huart->Init.Parity | huart->Init.Mode | huart->Init.O
 2354              		.loc 1 1850 0
 2355 0004 8368     		ldr	r3, [r0, #8]
 2356 0006 0269     		ldr	r2, [r0, #16]
 2357 0008 1343     		orrs	r3, r3, r2
 2358 000a 4269     		ldr	r2, [r0, #20]
 2359 000c 1343     		orrs	r3, r3, r2
 2360 000e C269     		ldr	r2, [r0, #28]
 2361 0010 1343     		orrs	r3, r3, r2
 2362              	.LVL213:
1851:Drivers/STM32F7xx_HAL_Driver/Src/stm32f7xx_hal_uart.c ****   MODIFY_REG(huart->Instance->CR1, UART_CR1_FIELDS, tmpreg);
 2363              		.loc 1 1851 0
 2364 0012 0168     		ldr	r1, [r0]
 2365 0014 0868     		ldr	r0, [r1]
 2366              	.LVL214:
 2367 0016 A04A     		ldr	r2, .L283
 2368 0018 0240     		ands	r2, r2, r0
 2369 001a 1343     		orrs	r3, r3, r2
 2370              	.LVL215:
 2371 001c 0B60     		str	r3, [r1]
 2372              	.LVL216:
1852:Drivers/STM32F7xx_HAL_Driver/Src/stm32f7xx_hal_uart.c **** 
1853:Drivers/STM32F7xx_HAL_Driver/Src/stm32f7xx_hal_uart.c ****   /*-------------------------- USART CR2 Configuration -----------------------*/
1854:Drivers/STM32F7xx_HAL_Driver/Src/stm32f7xx_hal_uart.c ****   /* Configure the UART Stop Bits: Set STOP[13:12] bits according
1855:Drivers/STM32F7xx_HAL_Driver/Src/stm32f7xx_hal_uart.c ****    * to huart->Init.StopBits value */
1856:Drivers/STM32F7xx_HAL_Driver/Src/stm32f7xx_hal_uart.c ****   MODIFY_REG(huart->Instance->CR2, USART_CR2_STOP, huart->Init.StopBits);
 2373              		.loc 1 1856 0
 2374 001e 2268     		ldr	r2, [r4]
 2375 0020 5368     		ldr	r3, [r2, #4]
 2376 0022 23F44053 		bic	r3, r3, #12288
 2377 0026 E168     		ldr	r1, [r4, #12]
 2378 0028 0B43     		orrs	r3, r3, r1
 2379 002a 5360     		str	r3, [r2, #4]
1857:Drivers/STM32F7xx_HAL_Driver/Src/stm32f7xx_hal_uart.c **** 
1858:Drivers/STM32F7xx_HAL_Driver/Src/stm32f7xx_hal_uart.c ****   /*-------------------------- USART CR3 Configuration -----------------------*/
1859:Drivers/STM32F7xx_HAL_Driver/Src/stm32f7xx_hal_uart.c ****   /* Configure
1860:Drivers/STM32F7xx_HAL_Driver/Src/stm32f7xx_hal_uart.c ****    * - UART HardWare Flow Control: set CTSE and RTSE bits according
1861:Drivers/STM32F7xx_HAL_Driver/Src/stm32f7xx_hal_uart.c ****    *   to huart->Init.HwFlowCtl value
1862:Drivers/STM32F7xx_HAL_Driver/Src/stm32f7xx_hal_uart.c ****    * - one-bit sampling method versus three samples' majority rule according
1863:Drivers/STM32F7xx_HAL_Driver/Src/stm32f7xx_hal_uart.c ****    *   to huart->Init.OneBitSampling */
1864:Drivers/STM32F7xx_HAL_Driver/Src/stm32f7xx_hal_uart.c ****   tmpreg = (uint32_t)huart->Init.HwFlowCtl | huart->Init.OneBitSampling ;
 2380              		.loc 1 1864 0
 2381 002c A369     		ldr	r3, [r4, #24]
 2382 002e 226A     		ldr	r2, [r4, #32]
 2383 0030 1343     		orrs	r3, r3, r2
 2384              	.LVL217:
1865:Drivers/STM32F7xx_HAL_Driver/Src/stm32f7xx_hal_uart.c ****   MODIFY_REG(huart->Instance->CR3, (USART_CR3_RTSE | USART_CR3_CTSE | USART_CR3_ONEBIT), tmpreg);
 2385              		.loc 1 1865 0
 2386 0032 2168     		ldr	r1, [r4]
 2387 0034 8A68     		ldr	r2, [r1, #8]
 2388 0036 22F43062 		bic	r2, r2, #2816
 2389 003a 1343     		orrs	r3, r3, r2
 2390              	.LVL218:
ARM GAS  C:\Users\Student\AppData\Local\Temp\cc4Wk4r8.s 			page 81


 2391 003c 8B60     		str	r3, [r1, #8]
 2392              	.LVL219:
1866:Drivers/STM32F7xx_HAL_Driver/Src/stm32f7xx_hal_uart.c **** 
1867:Drivers/STM32F7xx_HAL_Driver/Src/stm32f7xx_hal_uart.c ****   /*-------------------------- USART BRR Configuration -----------------------*/
1868:Drivers/STM32F7xx_HAL_Driver/Src/stm32f7xx_hal_uart.c ****   UART_GETCLOCKSOURCE(huart, clocksource);
 2393              		.loc 1 1868 0
 2394 003e 2568     		ldr	r5, [r4]
 2395 0040 964B     		ldr	r3, .L283+4
 2396 0042 9D42     		cmp	r5, r3
 2397 0044 2BD0     		beq	.L268
 2398              		.loc 1 1868 0 is_stmt 0 discriminator 2
 2399 0046 964B     		ldr	r3, .L283+8
 2400 0048 9D42     		cmp	r5, r3
 2401 004a 3CD0     		beq	.L269
 2402              		.loc 1 1868 0 discriminator 8
 2403 004c 954B     		ldr	r3, .L283+12
 2404 004e 9D42     		cmp	r5, r3
 2405 0050 52D0     		beq	.L270
 2406              		.loc 1 1868 0 discriminator 14
 2407 0052 954B     		ldr	r3, .L283+16
 2408 0054 9D42     		cmp	r5, r3
 2409 0056 67D0     		beq	.L271
 2410              		.loc 1 1868 0 discriminator 20
 2411 0058 944B     		ldr	r3, .L283+20
 2412 005a 9D42     		cmp	r5, r3
 2413 005c 7CD0     		beq	.L272
 2414              		.loc 1 1868 0 discriminator 26
 2415 005e 944B     		ldr	r3, .L283+24
 2416 0060 9D42     		cmp	r5, r3
 2417 0062 00F09480 		beq	.L273
 2418              		.loc 1 1868 0 discriminator 32
 2419 0066 934B     		ldr	r3, .L283+28
 2420 0068 9D42     		cmp	r5, r3
 2421 006a 00F0AB80 		beq	.L274
 2422              		.loc 1 1868 0 discriminator 38
 2423 006e 924B     		ldr	r3, .L283+32
 2424 0070 9D42     		cmp	r5, r3
 2425 0072 00F0C280 		beq	.L275
1828:Drivers/STM32F7xx_HAL_Driver/Src/stm32f7xx_hal_uart.c ****   uint16_t brrtemp                    = 0x0000U;
 2426              		.loc 1 1828 0 is_stmt 1
 2427 0076 1023     		movs	r3, #16
 2428              	.LVL220:
 2429              	.L195:
1869:Drivers/STM32F7xx_HAL_Driver/Src/stm32f7xx_hal_uart.c **** 
1870:Drivers/STM32F7xx_HAL_Driver/Src/stm32f7xx_hal_uart.c ****   /* Check UART Over Sampling to set Baud Rate Register */
1871:Drivers/STM32F7xx_HAL_Driver/Src/stm32f7xx_hal_uart.c ****   if (huart->Init.OverSampling == UART_OVERSAMPLING_8)
 2430              		.loc 1 1871 0
 2431 0078 E269     		ldr	r2, [r4, #28]
 2432 007a B2F5004F 		cmp	r2, #32768
 2433 007e 00F0DB80 		beq	.L276
1872:Drivers/STM32F7xx_HAL_Driver/Src/stm32f7xx_hal_uart.c ****   {
1873:Drivers/STM32F7xx_HAL_Driver/Src/stm32f7xx_hal_uart.c ****     switch (clocksource)
1874:Drivers/STM32F7xx_HAL_Driver/Src/stm32f7xx_hal_uart.c ****     {
1875:Drivers/STM32F7xx_HAL_Driver/Src/stm32f7xx_hal_uart.c ****     case UART_CLOCKSOURCE_PCLK1:
1876:Drivers/STM32F7xx_HAL_Driver/Src/stm32f7xx_hal_uart.c ****         usartdiv = (uint16_t)(UART_DIV_SAMPLING8(HAL_RCC_GetPCLK1Freq(), huart->Init.BaudRate));
1877:Drivers/STM32F7xx_HAL_Driver/Src/stm32f7xx_hal_uart.c ****       break;
1878:Drivers/STM32F7xx_HAL_Driver/Src/stm32f7xx_hal_uart.c ****     case UART_CLOCKSOURCE_PCLK2:
ARM GAS  C:\Users\Student\AppData\Local\Temp\cc4Wk4r8.s 			page 82


1879:Drivers/STM32F7xx_HAL_Driver/Src/stm32f7xx_hal_uart.c ****         usartdiv = (uint16_t)(UART_DIV_SAMPLING8(HAL_RCC_GetPCLK2Freq(), huart->Init.BaudRate));
1880:Drivers/STM32F7xx_HAL_Driver/Src/stm32f7xx_hal_uart.c ****       break;
1881:Drivers/STM32F7xx_HAL_Driver/Src/stm32f7xx_hal_uart.c ****     case UART_CLOCKSOURCE_HSI:
1882:Drivers/STM32F7xx_HAL_Driver/Src/stm32f7xx_hal_uart.c ****         usartdiv = (uint16_t)(UART_DIV_SAMPLING8(HSI_VALUE, huart->Init.BaudRate));
1883:Drivers/STM32F7xx_HAL_Driver/Src/stm32f7xx_hal_uart.c ****       break;
1884:Drivers/STM32F7xx_HAL_Driver/Src/stm32f7xx_hal_uart.c ****     case UART_CLOCKSOURCE_SYSCLK:
1885:Drivers/STM32F7xx_HAL_Driver/Src/stm32f7xx_hal_uart.c ****         usartdiv = (uint16_t)(UART_DIV_SAMPLING8(HAL_RCC_GetSysClockFreq(), huart->Init.BaudRate));
1886:Drivers/STM32F7xx_HAL_Driver/Src/stm32f7xx_hal_uart.c ****       break;
1887:Drivers/STM32F7xx_HAL_Driver/Src/stm32f7xx_hal_uart.c ****     case UART_CLOCKSOURCE_LSE:
1888:Drivers/STM32F7xx_HAL_Driver/Src/stm32f7xx_hal_uart.c ****         usartdiv = (uint16_t)(UART_DIV_SAMPLING8(LSE_VALUE, huart->Init.BaudRate));
1889:Drivers/STM32F7xx_HAL_Driver/Src/stm32f7xx_hal_uart.c ****       break;
1890:Drivers/STM32F7xx_HAL_Driver/Src/stm32f7xx_hal_uart.c ****       case UART_CLOCKSOURCE_UNDEFINED:
1891:Drivers/STM32F7xx_HAL_Driver/Src/stm32f7xx_hal_uart.c ****     default:
1892:Drivers/STM32F7xx_HAL_Driver/Src/stm32f7xx_hal_uart.c ****         ret = HAL_ERROR;
1893:Drivers/STM32F7xx_HAL_Driver/Src/stm32f7xx_hal_uart.c ****       break;
1894:Drivers/STM32F7xx_HAL_Driver/Src/stm32f7xx_hal_uart.c ****     }
1895:Drivers/STM32F7xx_HAL_Driver/Src/stm32f7xx_hal_uart.c **** 
1896:Drivers/STM32F7xx_HAL_Driver/Src/stm32f7xx_hal_uart.c ****     brrtemp = usartdiv & 0xFFF0U;
1897:Drivers/STM32F7xx_HAL_Driver/Src/stm32f7xx_hal_uart.c ****     brrtemp |= (uint16_t)((usartdiv & (uint16_t)0x000FU) >> 1U);
1898:Drivers/STM32F7xx_HAL_Driver/Src/stm32f7xx_hal_uart.c ****     huart->Instance->BRR = brrtemp;
1899:Drivers/STM32F7xx_HAL_Driver/Src/stm32f7xx_hal_uart.c ****   }
1900:Drivers/STM32F7xx_HAL_Driver/Src/stm32f7xx_hal_uart.c ****   else
1901:Drivers/STM32F7xx_HAL_Driver/Src/stm32f7xx_hal_uart.c ****   {
1902:Drivers/STM32F7xx_HAL_Driver/Src/stm32f7xx_hal_uart.c ****     switch (clocksource)
 2434              		.loc 1 1902 0
 2435 0082 082B     		cmp	r3, #8
 2436 0084 00F26881 		bhi	.L266
 2437 0088 DFE813F0 		tbh	[pc, r3, lsl #1]
 2438              	.L251:
 2439 008c 3101     		.2byte	(.L250-.L251)/2
 2440 008e 3C01     		.2byte	(.L252-.L251)/2
 2441 0090 4701     		.2byte	(.L253-.L251)/2
 2442 0092 6601     		.2byte	(.L266-.L251)/2
 2443 0094 5101     		.2byte	(.L254-.L251)/2
 2444 0096 6601     		.2byte	(.L266-.L251)/2
 2445 0098 6601     		.2byte	(.L266-.L251)/2
 2446 009a 6601     		.2byte	(.L266-.L251)/2
 2447 009c 5C01     		.2byte	(.L255-.L251)/2
 2448              	.LVL221:
 2449              		.p2align 1
 2450              	.L268:
1868:Drivers/STM32F7xx_HAL_Driver/Src/stm32f7xx_hal_uart.c **** 
 2451              		.loc 1 1868 0 discriminator 1
 2452 009e 03F59433 		add	r3, r3, #75776
 2453 00a2 D3F89030 		ldr	r3, [r3, #144]
 2454 00a6 03F00303 		and	r3, r3, #3
 2455 00aa 032B     		cmp	r3, #3
 2456 00ac 03D8     		bhi	.L194
 2457 00ae DFE803F0 		tbb	[pc, r3]
 2458              	.L196:
 2459 00b2 BF       		.byte	(.L256-.L196)/2
 2460 00b3 06       		.byte	(.L197-.L196)/2
 2461 00b4 04       		.byte	(.L198-.L196)/2
 2462 00b5 08       		.byte	(.L199-.L196)/2
 2463              		.p2align 1
 2464              	.L194:
1828:Drivers/STM32F7xx_HAL_Driver/Src/stm32f7xx_hal_uart.c ****   uint16_t brrtemp                    = 0x0000U;
ARM GAS  C:\Users\Student\AppData\Local\Temp\cc4Wk4r8.s 			page 83


 2465              		.loc 1 1828 0
 2466 00b6 1023     		movs	r3, #16
 2467 00b8 DEE7     		b	.L195
 2468              	.L198:
 2469              	.LVL222:
1868:Drivers/STM32F7xx_HAL_Driver/Src/stm32f7xx_hal_uart.c **** 
 2470              		.loc 1 1868 0 discriminator 5
 2471 00ba 0223     		movs	r3, #2
 2472 00bc DCE7     		b	.L195
 2473              	.LVL223:
 2474              	.L197:
1868:Drivers/STM32F7xx_HAL_Driver/Src/stm32f7xx_hal_uart.c **** 
 2475              		.loc 1 1868 0 is_stmt 0 discriminator 4
 2476 00be 0423     		movs	r3, #4
 2477 00c0 DAE7     		b	.L195
 2478              	.LVL224:
 2479              	.L199:
1868:Drivers/STM32F7xx_HAL_Driver/Src/stm32f7xx_hal_uart.c **** 
 2480              		.loc 1 1868 0 discriminator 6
 2481 00c2 0823     		movs	r3, #8
 2482 00c4 D8E7     		b	.L195
 2483              	.LVL225:
 2484              	.L269:
1868:Drivers/STM32F7xx_HAL_Driver/Src/stm32f7xx_hal_uart.c **** 
 2485              		.loc 1 1868 0 discriminator 7
 2486 00c6 03F5FA33 		add	r3, r3, #128000
 2487 00ca D3F89030 		ldr	r3, [r3, #144]
 2488 00ce 03F00C03 		and	r3, r3, #12
 2489 00d2 0C2B     		cmp	r3, #12
 2490 00d4 08D8     		bhi	.L201
 2491 00d6 DFE803F0 		tbb	[pc, r3]
 2492              	.L202:
 2493 00da AD       		.byte	(.L257-.L202)/2
 2494 00db 07       		.byte	(.L201-.L202)/2
 2495 00dc 07       		.byte	(.L201-.L202)/2
 2496 00dd 07       		.byte	(.L201-.L202)/2
 2497 00de 0B       		.byte	(.L203-.L202)/2
 2498 00df 07       		.byte	(.L201-.L202)/2
 2499 00e0 07       		.byte	(.L201-.L202)/2
 2500 00e1 07       		.byte	(.L201-.L202)/2
 2501 00e2 09       		.byte	(.L204-.L202)/2
 2502 00e3 07       		.byte	(.L201-.L202)/2
 2503 00e4 07       		.byte	(.L201-.L202)/2
 2504 00e5 07       		.byte	(.L201-.L202)/2
 2505 00e6 0D       		.byte	(.L205-.L202)/2
 2506 00e7 00       		.p2align 1
 2507              	.L201:
1828:Drivers/STM32F7xx_HAL_Driver/Src/stm32f7xx_hal_uart.c ****   uint16_t brrtemp                    = 0x0000U;
 2508              		.loc 1 1828 0 is_stmt 1
 2509 00e8 1023     		movs	r3, #16
 2510 00ea C5E7     		b	.L195
 2511              	.L204:
 2512              	.LVL226:
1868:Drivers/STM32F7xx_HAL_Driver/Src/stm32f7xx_hal_uart.c **** 
 2513              		.loc 1 1868 0 discriminator 11
 2514 00ec 0223     		movs	r3, #2
 2515 00ee C3E7     		b	.L195
ARM GAS  C:\Users\Student\AppData\Local\Temp\cc4Wk4r8.s 			page 84


 2516              	.LVL227:
 2517              	.L203:
1868:Drivers/STM32F7xx_HAL_Driver/Src/stm32f7xx_hal_uart.c **** 
 2518              		.loc 1 1868 0 is_stmt 0 discriminator 10
 2519 00f0 0423     		movs	r3, #4
 2520 00f2 C1E7     		b	.L195
 2521              	.LVL228:
 2522              	.L205:
1868:Drivers/STM32F7xx_HAL_Driver/Src/stm32f7xx_hal_uart.c **** 
 2523              		.loc 1 1868 0 discriminator 12
 2524 00f4 0823     		movs	r3, #8
 2525 00f6 BFE7     		b	.L195
 2526              	.LVL229:
 2527              	.L270:
1868:Drivers/STM32F7xx_HAL_Driver/Src/stm32f7xx_hal_uart.c **** 
 2528              		.loc 1 1868 0 discriminator 13
 2529 00f8 03F5F833 		add	r3, r3, #126976
 2530 00fc D3F89030 		ldr	r3, [r3, #144]
 2531 0100 03F03003 		and	r3, r3, #48
 2532 0104 102B     		cmp	r3, #16
 2533 0106 0DD0     		beq	.L208
 2534 0108 05D9     		bls	.L277
 2535 010a 202B     		cmp	r3, #32
 2536 010c 08D0     		beq	.L210
 2537 010e 302B     		cmp	r3, #48
 2538 0110 04D1     		bne	.L207
 2539              	.LVL230:
1868:Drivers/STM32F7xx_HAL_Driver/Src/stm32f7xx_hal_uart.c **** 
 2540              		.loc 1 1868 0 discriminator 18
 2541 0112 0823     		movs	r3, #8
 2542 0114 B0E7     		b	.L195
 2543              	.LVL231:
 2544              	.L277:
1868:Drivers/STM32F7xx_HAL_Driver/Src/stm32f7xx_hal_uart.c **** 
 2545              		.loc 1 1868 0 discriminator 13
 2546 0116 0BB9     		cbnz	r3, .L207
1868:Drivers/STM32F7xx_HAL_Driver/Src/stm32f7xx_hal_uart.c **** 
 2547              		.loc 1 1868 0
 2548 0118 0023     		movs	r3, #0
 2549 011a ADE7     		b	.L195
 2550              	.L207:
1828:Drivers/STM32F7xx_HAL_Driver/Src/stm32f7xx_hal_uart.c ****   uint16_t brrtemp                    = 0x0000U;
 2551              		.loc 1 1828 0 is_stmt 1
 2552 011c 1023     		movs	r3, #16
 2553 011e ABE7     		b	.L195
 2554              	.L210:
 2555              	.LVL232:
1868:Drivers/STM32F7xx_HAL_Driver/Src/stm32f7xx_hal_uart.c **** 
 2556              		.loc 1 1868 0 discriminator 17
 2557 0120 0223     		movs	r3, #2
 2558 0122 A9E7     		b	.L195
 2559              	.LVL233:
 2560              	.L208:
1868:Drivers/STM32F7xx_HAL_Driver/Src/stm32f7xx_hal_uart.c **** 
 2561              		.loc 1 1868 0 is_stmt 0 discriminator 16
 2562 0124 0423     		movs	r3, #4
 2563 0126 A7E7     		b	.L195
ARM GAS  C:\Users\Student\AppData\Local\Temp\cc4Wk4r8.s 			page 85


 2564              	.LVL234:
 2565              	.L271:
1868:Drivers/STM32F7xx_HAL_Driver/Src/stm32f7xx_hal_uart.c **** 
 2566              		.loc 1 1868 0 discriminator 19
 2567 0128 03F5F633 		add	r3, r3, #125952
 2568 012c D3F89030 		ldr	r3, [r3, #144]
 2569 0130 03F0C003 		and	r3, r3, #192
 2570 0134 402B     		cmp	r3, #64
 2571 0136 0DD0     		beq	.L214
 2572 0138 05D9     		bls	.L278
 2573 013a 802B     		cmp	r3, #128
 2574 013c 08D0     		beq	.L216
 2575 013e C02B     		cmp	r3, #192
 2576 0140 04D1     		bne	.L213
 2577              	.LVL235:
1868:Drivers/STM32F7xx_HAL_Driver/Src/stm32f7xx_hal_uart.c **** 
 2578              		.loc 1 1868 0 discriminator 24
 2579 0142 0823     		movs	r3, #8
 2580 0144 98E7     		b	.L195
 2581              	.LVL236:
 2582              	.L278:
1868:Drivers/STM32F7xx_HAL_Driver/Src/stm32f7xx_hal_uart.c **** 
 2583              		.loc 1 1868 0 discriminator 19
 2584 0146 0BB9     		cbnz	r3, .L213
1868:Drivers/STM32F7xx_HAL_Driver/Src/stm32f7xx_hal_uart.c **** 
 2585              		.loc 1 1868 0
 2586 0148 0023     		movs	r3, #0
 2587 014a 95E7     		b	.L195
 2588              	.L213:
1828:Drivers/STM32F7xx_HAL_Driver/Src/stm32f7xx_hal_uart.c ****   uint16_t brrtemp                    = 0x0000U;
 2589              		.loc 1 1828 0 is_stmt 1
 2590 014c 1023     		movs	r3, #16
 2591 014e 93E7     		b	.L195
 2592              	.L216:
 2593              	.LVL237:
1868:Drivers/STM32F7xx_HAL_Driver/Src/stm32f7xx_hal_uart.c **** 
 2594              		.loc 1 1868 0 discriminator 23
 2595 0150 0223     		movs	r3, #2
 2596 0152 91E7     		b	.L195
 2597              	.LVL238:
 2598              	.L214:
1868:Drivers/STM32F7xx_HAL_Driver/Src/stm32f7xx_hal_uart.c **** 
 2599              		.loc 1 1868 0 is_stmt 0 discriminator 22
 2600 0154 0423     		movs	r3, #4
 2601 0156 8FE7     		b	.L195
 2602              	.LVL239:
 2603              	.L272:
1868:Drivers/STM32F7xx_HAL_Driver/Src/stm32f7xx_hal_uart.c **** 
 2604              		.loc 1 1868 0 discriminator 25
 2605 0158 03F5F433 		add	r3, r3, #124928
 2606 015c D3F89030 		ldr	r3, [r3, #144]
 2607 0160 03F44073 		and	r3, r3, #768
 2608 0164 B3F5807F 		cmp	r3, #256
 2609 0168 0FD0     		beq	.L220
 2610 016a 07D9     		bls	.L279
 2611 016c B3F5007F 		cmp	r3, #512
 2612 0170 09D0     		beq	.L222
ARM GAS  C:\Users\Student\AppData\Local\Temp\cc4Wk4r8.s 			page 86


 2613 0172 B3F5407F 		cmp	r3, #768
 2614 0176 04D1     		bne	.L219
 2615              	.LVL240:
1868:Drivers/STM32F7xx_HAL_Driver/Src/stm32f7xx_hal_uart.c **** 
 2616              		.loc 1 1868 0 discriminator 30
 2617 0178 0823     		movs	r3, #8
 2618 017a 7DE7     		b	.L195
 2619              	.LVL241:
 2620              	.L279:
1868:Drivers/STM32F7xx_HAL_Driver/Src/stm32f7xx_hal_uart.c **** 
 2621              		.loc 1 1868 0 discriminator 25
 2622 017c 0BB9     		cbnz	r3, .L219
1868:Drivers/STM32F7xx_HAL_Driver/Src/stm32f7xx_hal_uart.c **** 
 2623              		.loc 1 1868 0
 2624 017e 0023     		movs	r3, #0
 2625 0180 7AE7     		b	.L195
 2626              	.L219:
1828:Drivers/STM32F7xx_HAL_Driver/Src/stm32f7xx_hal_uart.c ****   uint16_t brrtemp                    = 0x0000U;
 2627              		.loc 1 1828 0 is_stmt 1
 2628 0182 1023     		movs	r3, #16
 2629 0184 78E7     		b	.L195
 2630              	.L222:
 2631              	.LVL242:
1868:Drivers/STM32F7xx_HAL_Driver/Src/stm32f7xx_hal_uart.c **** 
 2632              		.loc 1 1868 0 discriminator 29
 2633 0186 0223     		movs	r3, #2
 2634 0188 76E7     		b	.L195
 2635              	.LVL243:
 2636              	.L220:
1868:Drivers/STM32F7xx_HAL_Driver/Src/stm32f7xx_hal_uart.c **** 
 2637              		.loc 1 1868 0 is_stmt 0 discriminator 28
 2638 018a 0423     		movs	r3, #4
 2639 018c 74E7     		b	.L195
 2640              	.LVL244:
 2641              	.L273:
1868:Drivers/STM32F7xx_HAL_Driver/Src/stm32f7xx_hal_uart.c **** 
 2642              		.loc 1 1868 0 discriminator 31
 2643 018e 03F59233 		add	r3, r3, #74752
 2644 0192 D3F89030 		ldr	r3, [r3, #144]
 2645 0196 03F44063 		and	r3, r3, #3072
 2646 019a B3F5806F 		cmp	r3, #1024
 2647 019e 0FD0     		beq	.L226
 2648 01a0 07D9     		bls	.L280
 2649 01a2 B3F5006F 		cmp	r3, #2048
 2650 01a6 09D0     		beq	.L228
 2651 01a8 B3F5406F 		cmp	r3, #3072
 2652 01ac 04D1     		bne	.L225
 2653              	.LVL245:
1868:Drivers/STM32F7xx_HAL_Driver/Src/stm32f7xx_hal_uart.c **** 
 2654              		.loc 1 1868 0 discriminator 36
 2655 01ae 0823     		movs	r3, #8
 2656 01b0 62E7     		b	.L195
 2657              	.LVL246:
 2658              	.L280:
1868:Drivers/STM32F7xx_HAL_Driver/Src/stm32f7xx_hal_uart.c **** 
 2659              		.loc 1 1868 0 discriminator 31
 2660 01b2 0BB9     		cbnz	r3, .L225
ARM GAS  C:\Users\Student\AppData\Local\Temp\cc4Wk4r8.s 			page 87


1868:Drivers/STM32F7xx_HAL_Driver/Src/stm32f7xx_hal_uart.c **** 
 2661              		.loc 1 1868 0
 2662 01b4 0123     		movs	r3, #1
 2663 01b6 5FE7     		b	.L195
 2664              	.L225:
1828:Drivers/STM32F7xx_HAL_Driver/Src/stm32f7xx_hal_uart.c ****   uint16_t brrtemp                    = 0x0000U;
 2665              		.loc 1 1828 0 is_stmt 1
 2666 01b8 1023     		movs	r3, #16
 2667 01ba 5DE7     		b	.L195
 2668              	.L228:
 2669              	.LVL247:
1868:Drivers/STM32F7xx_HAL_Driver/Src/stm32f7xx_hal_uart.c **** 
 2670              		.loc 1 1868 0 discriminator 35
 2671 01bc 0223     		movs	r3, #2
 2672 01be 5BE7     		b	.L195
 2673              	.LVL248:
 2674              	.L226:
1868:Drivers/STM32F7xx_HAL_Driver/Src/stm32f7xx_hal_uart.c **** 
 2675              		.loc 1 1868 0 is_stmt 0 discriminator 34
 2676 01c0 0423     		movs	r3, #4
 2677 01c2 59E7     		b	.L195
 2678              	.LVL249:
 2679              	.L274:
1868:Drivers/STM32F7xx_HAL_Driver/Src/stm32f7xx_hal_uart.c **** 
 2680              		.loc 1 1868 0 discriminator 37
 2681 01c4 03F5E033 		add	r3, r3, #114688
 2682 01c8 D3F89030 		ldr	r3, [r3, #144]
 2683 01cc 03F44053 		and	r3, r3, #12288
 2684 01d0 B3F5805F 		cmp	r3, #4096
 2685 01d4 0FD0     		beq	.L232
 2686 01d6 07D9     		bls	.L281
 2687 01d8 B3F5005F 		cmp	r3, #8192
 2688 01dc 09D0     		beq	.L234
 2689 01de B3F5405F 		cmp	r3, #12288
 2690 01e2 04D1     		bne	.L231
 2691              	.LVL250:
1868:Drivers/STM32F7xx_HAL_Driver/Src/stm32f7xx_hal_uart.c **** 
 2692              		.loc 1 1868 0 discriminator 42
 2693 01e4 0823     		movs	r3, #8
 2694 01e6 47E7     		b	.L195
 2695              	.LVL251:
 2696              	.L281:
1868:Drivers/STM32F7xx_HAL_Driver/Src/stm32f7xx_hal_uart.c **** 
 2697              		.loc 1 1868 0 discriminator 37
 2698 01e8 0BB9     		cbnz	r3, .L231
1868:Drivers/STM32F7xx_HAL_Driver/Src/stm32f7xx_hal_uart.c **** 
 2699              		.loc 1 1868 0
 2700 01ea 0023     		movs	r3, #0
 2701 01ec 44E7     		b	.L195
 2702              	.L231:
1828:Drivers/STM32F7xx_HAL_Driver/Src/stm32f7xx_hal_uart.c ****   uint16_t brrtemp                    = 0x0000U;
 2703              		.loc 1 1828 0 is_stmt 1
 2704 01ee 1023     		movs	r3, #16
 2705 01f0 42E7     		b	.L195
 2706              	.L234:
 2707              	.LVL252:
1868:Drivers/STM32F7xx_HAL_Driver/Src/stm32f7xx_hal_uart.c **** 
ARM GAS  C:\Users\Student\AppData\Local\Temp\cc4Wk4r8.s 			page 88


 2708              		.loc 1 1868 0 discriminator 41
 2709 01f2 0223     		movs	r3, #2
 2710 01f4 40E7     		b	.L195
 2711              	.LVL253:
 2712              	.L232:
1868:Drivers/STM32F7xx_HAL_Driver/Src/stm32f7xx_hal_uart.c **** 
 2713              		.loc 1 1868 0 is_stmt 0 discriminator 40
 2714 01f6 0423     		movs	r3, #4
 2715 01f8 3EE7     		b	.L195
 2716              	.LVL254:
 2717              	.L275:
1868:Drivers/STM32F7xx_HAL_Driver/Src/stm32f7xx_hal_uart.c **** 
 2718              		.loc 1 1868 0 discriminator 43
 2719 01fa 03F5DE33 		add	r3, r3, #113664
 2720 01fe D3F89030 		ldr	r3, [r3, #144]
 2721 0202 03F44043 		and	r3, r3, #49152
 2722 0206 B3F5804F 		cmp	r3, #16384
 2723 020a 0FD0     		beq	.L237
 2724 020c 07D9     		bls	.L282
 2725 020e B3F5004F 		cmp	r3, #32768
 2726 0212 09D0     		beq	.L239
 2727 0214 B3F5404F 		cmp	r3, #49152
 2728 0218 04D1     		bne	.L236
 2729              	.LVL255:
1868:Drivers/STM32F7xx_HAL_Driver/Src/stm32f7xx_hal_uart.c **** 
 2730              		.loc 1 1868 0 discriminator 47
 2731 021a 0823     		movs	r3, #8
 2732 021c 2CE7     		b	.L195
 2733              	.LVL256:
 2734              	.L282:
1868:Drivers/STM32F7xx_HAL_Driver/Src/stm32f7xx_hal_uart.c **** 
 2735              		.loc 1 1868 0 discriminator 43
 2736 021e 0BB9     		cbnz	r3, .L236
1868:Drivers/STM32F7xx_HAL_Driver/Src/stm32f7xx_hal_uart.c **** 
 2737              		.loc 1 1868 0
 2738 0220 0023     		movs	r3, #0
 2739 0222 29E7     		b	.L195
 2740              	.L236:
1828:Drivers/STM32F7xx_HAL_Driver/Src/stm32f7xx_hal_uart.c ****   uint16_t brrtemp                    = 0x0000U;
 2741              		.loc 1 1828 0 is_stmt 1
 2742 0224 1023     		movs	r3, #16
 2743 0226 27E7     		b	.L195
 2744              	.L239:
 2745              	.LVL257:
1868:Drivers/STM32F7xx_HAL_Driver/Src/stm32f7xx_hal_uart.c **** 
 2746              		.loc 1 1868 0 discriminator 46
 2747 0228 0223     		movs	r3, #2
 2748 022a 25E7     		b	.L195
 2749              	.LVL258:
 2750              	.L237:
1868:Drivers/STM32F7xx_HAL_Driver/Src/stm32f7xx_hal_uart.c **** 
 2751              		.loc 1 1868 0 is_stmt 0 discriminator 45
 2752 022c 0423     		movs	r3, #4
 2753 022e 23E7     		b	.L195
 2754              	.LVL259:
 2755              	.L256:
1868:Drivers/STM32F7xx_HAL_Driver/Src/stm32f7xx_hal_uart.c **** 
ARM GAS  C:\Users\Student\AppData\Local\Temp\cc4Wk4r8.s 			page 89


 2756              		.loc 1 1868 0
 2757 0230 0123     		movs	r3, #1
 2758 0232 21E7     		b	.L195
 2759              	.L257:
 2760 0234 0023     		movs	r3, #0
 2761 0236 1FE7     		b	.L195
 2762              	.LVL260:
 2763              	.L276:
1873:Drivers/STM32F7xx_HAL_Driver/Src/stm32f7xx_hal_uart.c ****     {
 2764              		.loc 1 1873 0 is_stmt 1
 2765 0238 082B     		cmp	r3, #8
 2766 023a 55D8     		bhi	.L265
 2767 023c DFE803F0 		tbb	[pc, r3]
 2768              	.L244:
 2769 0240 05       		.byte	(.L243-.L244)/2
 2770 0241 17       		.byte	(.L245-.L244)/2
 2771 0242 22       		.byte	(.L246-.L244)/2
 2772 0243 54       		.byte	(.L265-.L244)/2
 2773 0244 40       		.byte	(.L247-.L244)/2
 2774 0245 54       		.byte	(.L265-.L244)/2
 2775 0246 54       		.byte	(.L265-.L244)/2
 2776 0247 54       		.byte	(.L265-.L244)/2
 2777 0248 4B       		.byte	(.L248-.L244)/2
 2778 0249 00       		.p2align 1
 2779              	.L243:
1876:Drivers/STM32F7xx_HAL_Driver/Src/stm32f7xx_hal_uart.c ****       break;
 2780              		.loc 1 1876 0
 2781 024a FFF7FEFF 		bl	HAL_RCC_GetPCLK1Freq
 2782              	.LVL261:
 2783 024e 6268     		ldr	r2, [r4, #4]
 2784 0250 5308     		lsrs	r3, r2, #1
 2785 0252 03EB4003 		add	r3, r3, r0, lsl #1
 2786 0256 B3FBF2F3 		udiv	r3, r3, r2
 2787 025a 9BB2     		uxth	r3, r3
 2788              	.LVL262:
1831:Drivers/STM32F7xx_HAL_Driver/Src/stm32f7xx_hal_uart.c **** 
 2789              		.loc 1 1831 0
 2790 025c 0020     		movs	r0, #0
 2791              	.LVL263:
 2792              	.L242:
1896:Drivers/STM32F7xx_HAL_Driver/Src/stm32f7xx_hal_uart.c ****     brrtemp |= (uint16_t)((usartdiv & (uint16_t)0x000FU) >> 1U);
 2793              		.loc 1 1896 0
 2794 025e 23F00F02 		bic	r2, r3, #15
 2795              	.LVL264:
1897:Drivers/STM32F7xx_HAL_Driver/Src/stm32f7xx_hal_uart.c ****     huart->Instance->BRR = brrtemp;
 2796              		.loc 1 1897 0
 2797 0262 C3F34203 		ubfx	r3, r3, #1, #3
 2798              	.LVL265:
 2799 0266 1343     		orrs	r3, r3, r2
 2800              	.LVL266:
1898:Drivers/STM32F7xx_HAL_Driver/Src/stm32f7xx_hal_uart.c ****   }
 2801              		.loc 1 1898 0
 2802 0268 2268     		ldr	r2, [r4]
 2803 026a D360     		str	r3, [r2, #12]
 2804 026c 38BD     		pop	{r3, r4, r5, pc}
 2805              	.LVL267:
 2806              	.L245:
ARM GAS  C:\Users\Student\AppData\Local\Temp\cc4Wk4r8.s 			page 90


1879:Drivers/STM32F7xx_HAL_Driver/Src/stm32f7xx_hal_uart.c ****       break;
 2807              		.loc 1 1879 0
 2808 026e FFF7FEFF 		bl	HAL_RCC_GetPCLK2Freq
 2809              	.LVL268:
 2810 0272 6268     		ldr	r2, [r4, #4]
 2811 0274 5308     		lsrs	r3, r2, #1
 2812 0276 03EB4003 		add	r3, r3, r0, lsl #1
 2813 027a B3FBF2F3 		udiv	r3, r3, r2
 2814 027e 9BB2     		uxth	r3, r3
 2815              	.LVL269:
1831:Drivers/STM32F7xx_HAL_Driver/Src/stm32f7xx_hal_uart.c **** 
 2816              		.loc 1 1831 0
 2817 0280 0020     		movs	r0, #0
1880:Drivers/STM32F7xx_HAL_Driver/Src/stm32f7xx_hal_uart.c ****     case UART_CLOCKSOURCE_HSI:
 2818              		.loc 1 1880 0
 2819 0282 ECE7     		b	.L242
 2820              	.LVL270:
 2821              	.L246:
1882:Drivers/STM32F7xx_HAL_Driver/Src/stm32f7xx_hal_uart.c ****       break;
 2822              		.loc 1 1882 0
 2823 0284 6268     		ldr	r2, [r4, #4]
 2824 0286 0D4B     		ldr	r3, .L283+36
 2825              	.LVL271:
 2826 0288 03EB5203 		add	r3, r3, r2, lsr #1
 2827 028c B3FBF2F3 		udiv	r3, r3, r2
 2828 0290 9BB2     		uxth	r3, r3
 2829              	.LVL272:
1831:Drivers/STM32F7xx_HAL_Driver/Src/stm32f7xx_hal_uart.c **** 
 2830              		.loc 1 1831 0
 2831 0292 0020     		movs	r0, #0
1883:Drivers/STM32F7xx_HAL_Driver/Src/stm32f7xx_hal_uart.c ****     case UART_CLOCKSOURCE_SYSCLK:
 2832              		.loc 1 1883 0
 2833 0294 E3E7     		b	.L242
 2834              	.L284:
 2835 0296 00BF     		.align	2
 2836              	.L283:
 2837 0298 F369FFEF 		.word	-268473869
 2838 029c 00100140 		.word	1073811456
 2839 02a0 00440040 		.word	1073759232
 2840 02a4 00480040 		.word	1073760256
 2841 02a8 004C0040 		.word	1073761280
 2842 02ac 00500040 		.word	1073762304
 2843 02b0 00140140 		.word	1073812480
 2844 02b4 00780040 		.word	1073772544
 2845 02b8 007C0040 		.word	1073773568
 2846 02bc 0048E801 		.word	32000000
 2847              	.LVL273:
 2848              	.L247:
1885:Drivers/STM32F7xx_HAL_Driver/Src/stm32f7xx_hal_uart.c ****       break;
 2849              		.loc 1 1885 0
 2850 02c0 FFF7FEFF 		bl	HAL_RCC_GetSysClockFreq
 2851              	.LVL274:
 2852 02c4 6268     		ldr	r2, [r4, #4]
 2853 02c6 5308     		lsrs	r3, r2, #1
 2854 02c8 03EB4003 		add	r3, r3, r0, lsl #1
 2855 02cc B3FBF2F3 		udiv	r3, r3, r2
 2856 02d0 9BB2     		uxth	r3, r3
ARM GAS  C:\Users\Student\AppData\Local\Temp\cc4Wk4r8.s 			page 91


 2857              	.LVL275:
1831:Drivers/STM32F7xx_HAL_Driver/Src/stm32f7xx_hal_uart.c **** 
 2858              		.loc 1 1831 0
 2859 02d2 0020     		movs	r0, #0
1886:Drivers/STM32F7xx_HAL_Driver/Src/stm32f7xx_hal_uart.c ****     case UART_CLOCKSOURCE_LSE:
 2860              		.loc 1 1886 0
 2861 02d4 C3E7     		b	.L242
 2862              	.LVL276:
 2863              	.L248:
1888:Drivers/STM32F7xx_HAL_Driver/Src/stm32f7xx_hal_uart.c ****       break;
 2864              		.loc 1 1888 0
 2865 02d6 6268     		ldr	r2, [r4, #4]
 2866 02d8 5308     		lsrs	r3, r2, #1
 2867              	.LVL277:
 2868 02da 03F58033 		add	r3, r3, #65536
 2869 02de B3FBF2F3 		udiv	r3, r3, r2
 2870 02e2 9BB2     		uxth	r3, r3
 2871              	.LVL278:
1831:Drivers/STM32F7xx_HAL_Driver/Src/stm32f7xx_hal_uart.c **** 
 2872              		.loc 1 1831 0
 2873 02e4 0020     		movs	r0, #0
1889:Drivers/STM32F7xx_HAL_Driver/Src/stm32f7xx_hal_uart.c ****       case UART_CLOCKSOURCE_UNDEFINED:
 2874              		.loc 1 1889 0
 2875 02e6 BAE7     		b	.L242
 2876              	.LVL279:
 2877              	.L265:
1892:Drivers/STM32F7xx_HAL_Driver/Src/stm32f7xx_hal_uart.c ****       break;
 2878              		.loc 1 1892 0
 2879 02e8 0120     		movs	r0, #1
1830:Drivers/STM32F7xx_HAL_Driver/Src/stm32f7xx_hal_uart.c ****   HAL_StatusTypeDef ret               = HAL_OK;
 2880              		.loc 1 1830 0
 2881 02ea 0023     		movs	r3, #0
 2882              	.LVL280:
 2883 02ec B7E7     		b	.L242
 2884              	.LVL281:
 2885              	.L250:
1903:Drivers/STM32F7xx_HAL_Driver/Src/stm32f7xx_hal_uart.c ****     {
1904:Drivers/STM32F7xx_HAL_Driver/Src/stm32f7xx_hal_uart.c ****     case UART_CLOCKSOURCE_PCLK1:
1905:Drivers/STM32F7xx_HAL_Driver/Src/stm32f7xx_hal_uart.c ****         huart->Instance->BRR = (uint16_t)(UART_DIV_SAMPLING16(HAL_RCC_GetPCLK1Freq(), huart->Init.B
 2886              		.loc 1 1905 0
 2887 02ee FFF7FEFF 		bl	HAL_RCC_GetPCLK1Freq
 2888              	.LVL282:
 2889 02f2 6368     		ldr	r3, [r4, #4]
 2890 02f4 00EB5300 		add	r0, r0, r3, lsr #1
 2891 02f8 B0FBF3F0 		udiv	r0, r0, r3
 2892 02fc 80B2     		uxth	r0, r0
 2893 02fe E860     		str	r0, [r5, #12]
1831:Drivers/STM32F7xx_HAL_Driver/Src/stm32f7xx_hal_uart.c **** 
 2894              		.loc 1 1831 0
 2895 0300 0020     		movs	r0, #0
1906:Drivers/STM32F7xx_HAL_Driver/Src/stm32f7xx_hal_uart.c ****       break;
 2896              		.loc 1 1906 0
 2897 0302 38BD     		pop	{r3, r4, r5, pc}
 2898              	.LVL283:
 2899              	.L252:
1907:Drivers/STM32F7xx_HAL_Driver/Src/stm32f7xx_hal_uart.c ****     case UART_CLOCKSOURCE_PCLK2:
1908:Drivers/STM32F7xx_HAL_Driver/Src/stm32f7xx_hal_uart.c ****         huart->Instance->BRR = (uint16_t)(UART_DIV_SAMPLING16(HAL_RCC_GetPCLK2Freq(), huart->Init.B
ARM GAS  C:\Users\Student\AppData\Local\Temp\cc4Wk4r8.s 			page 92


 2900              		.loc 1 1908 0
 2901 0304 FFF7FEFF 		bl	HAL_RCC_GetPCLK2Freq
 2902              	.LVL284:
 2903 0308 6368     		ldr	r3, [r4, #4]
 2904 030a 00EB5300 		add	r0, r0, r3, lsr #1
 2905 030e B0FBF3F0 		udiv	r0, r0, r3
 2906 0312 80B2     		uxth	r0, r0
 2907 0314 E860     		str	r0, [r5, #12]
1831:Drivers/STM32F7xx_HAL_Driver/Src/stm32f7xx_hal_uart.c **** 
 2908              		.loc 1 1831 0
 2909 0316 0020     		movs	r0, #0
1909:Drivers/STM32F7xx_HAL_Driver/Src/stm32f7xx_hal_uart.c ****       break;
 2910              		.loc 1 1909 0
 2911 0318 38BD     		pop	{r3, r4, r5, pc}
 2912              	.LVL285:
 2913              	.L253:
1910:Drivers/STM32F7xx_HAL_Driver/Src/stm32f7xx_hal_uart.c ****     case UART_CLOCKSOURCE_HSI:
1911:Drivers/STM32F7xx_HAL_Driver/Src/stm32f7xx_hal_uart.c ****         huart->Instance->BRR = (uint16_t)(UART_DIV_SAMPLING16(HSI_VALUE, huart->Init.BaudRate));
 2914              		.loc 1 1911 0
 2915 031a 6268     		ldr	r2, [r4, #4]
 2916 031c 0F4B     		ldr	r3, .L285
 2917              	.LVL286:
 2918 031e 03EB5203 		add	r3, r3, r2, lsr #1
 2919 0322 B3FBF2F3 		udiv	r3, r3, r2
 2920 0326 9BB2     		uxth	r3, r3
 2921 0328 EB60     		str	r3, [r5, #12]
1831:Drivers/STM32F7xx_HAL_Driver/Src/stm32f7xx_hal_uart.c **** 
 2922              		.loc 1 1831 0
 2923 032a 0020     		movs	r0, #0
1912:Drivers/STM32F7xx_HAL_Driver/Src/stm32f7xx_hal_uart.c ****       break;
 2924              		.loc 1 1912 0
 2925 032c 38BD     		pop	{r3, r4, r5, pc}
 2926              	.LVL287:
 2927              	.L254:
1913:Drivers/STM32F7xx_HAL_Driver/Src/stm32f7xx_hal_uart.c ****     case UART_CLOCKSOURCE_SYSCLK:
1914:Drivers/STM32F7xx_HAL_Driver/Src/stm32f7xx_hal_uart.c ****         huart->Instance->BRR = (uint16_t)(UART_DIV_SAMPLING16(HAL_RCC_GetSysClockFreq(), huart->Ini
 2928              		.loc 1 1914 0
 2929 032e FFF7FEFF 		bl	HAL_RCC_GetSysClockFreq
 2930              	.LVL288:
 2931 0332 6368     		ldr	r3, [r4, #4]
 2932 0334 00EB5300 		add	r0, r0, r3, lsr #1
 2933 0338 B0FBF3F0 		udiv	r0, r0, r3
 2934 033c 80B2     		uxth	r0, r0
 2935 033e E860     		str	r0, [r5, #12]
1831:Drivers/STM32F7xx_HAL_Driver/Src/stm32f7xx_hal_uart.c **** 
 2936              		.loc 1 1831 0
 2937 0340 0020     		movs	r0, #0
1915:Drivers/STM32F7xx_HAL_Driver/Src/stm32f7xx_hal_uart.c ****       break;
 2938              		.loc 1 1915 0
 2939 0342 38BD     		pop	{r3, r4, r5, pc}
 2940              	.LVL289:
 2941              	.L255:
1916:Drivers/STM32F7xx_HAL_Driver/Src/stm32f7xx_hal_uart.c ****     case UART_CLOCKSOURCE_LSE:
1917:Drivers/STM32F7xx_HAL_Driver/Src/stm32f7xx_hal_uart.c ****         huart->Instance->BRR = (uint16_t)(UART_DIV_SAMPLING16(LSE_VALUE, huart->Init.BaudRate));
 2942              		.loc 1 1917 0
 2943 0344 6268     		ldr	r2, [r4, #4]
 2944 0346 5308     		lsrs	r3, r2, #1
ARM GAS  C:\Users\Student\AppData\Local\Temp\cc4Wk4r8.s 			page 93


 2945              	.LVL290:
 2946 0348 03F50043 		add	r3, r3, #32768
 2947 034c B3FBF2F3 		udiv	r3, r3, r2
 2948 0350 9BB2     		uxth	r3, r3
 2949 0352 EB60     		str	r3, [r5, #12]
1831:Drivers/STM32F7xx_HAL_Driver/Src/stm32f7xx_hal_uart.c **** 
 2950              		.loc 1 1831 0
 2951 0354 0020     		movs	r0, #0
1918:Drivers/STM32F7xx_HAL_Driver/Src/stm32f7xx_hal_uart.c ****       break;
 2952              		.loc 1 1918 0
 2953 0356 38BD     		pop	{r3, r4, r5, pc}
 2954              	.LVL291:
 2955              	.L266:
1919:Drivers/STM32F7xx_HAL_Driver/Src/stm32f7xx_hal_uart.c ****       case UART_CLOCKSOURCE_UNDEFINED:
1920:Drivers/STM32F7xx_HAL_Driver/Src/stm32f7xx_hal_uart.c ****     default:
1921:Drivers/STM32F7xx_HAL_Driver/Src/stm32f7xx_hal_uart.c ****         ret = HAL_ERROR;
 2956              		.loc 1 1921 0
 2957 0358 0120     		movs	r0, #1
 2958              	.LVL292:
1922:Drivers/STM32F7xx_HAL_Driver/Src/stm32f7xx_hal_uart.c ****       break;
1923:Drivers/STM32F7xx_HAL_Driver/Src/stm32f7xx_hal_uart.c ****     }
1924:Drivers/STM32F7xx_HAL_Driver/Src/stm32f7xx_hal_uart.c ****   }
1925:Drivers/STM32F7xx_HAL_Driver/Src/stm32f7xx_hal_uart.c **** 
1926:Drivers/STM32F7xx_HAL_Driver/Src/stm32f7xx_hal_uart.c ****   return ret;
1927:Drivers/STM32F7xx_HAL_Driver/Src/stm32f7xx_hal_uart.c **** 
1928:Drivers/STM32F7xx_HAL_Driver/Src/stm32f7xx_hal_uart.c **** }
 2959              		.loc 1 1928 0
 2960 035a 38BD     		pop	{r3, r4, r5, pc}
 2961              	.LVL293:
 2962              	.L286:
 2963              		.align	2
 2964              	.L285:
 2965 035c 0024F400 		.word	16000000
 2966              		.cfi_endproc
 2967              	.LFE176:
 2969              		.section	.text.UART_AdvFeatureConfig,"ax",%progbits
 2970              		.align	1
 2971              		.global	UART_AdvFeatureConfig
 2972              		.syntax unified
 2973              		.thumb
 2974              		.thumb_func
 2975              		.fpu fpv5-sp-d16
 2977              	UART_AdvFeatureConfig:
 2978              	.LFB177:
1929:Drivers/STM32F7xx_HAL_Driver/Src/stm32f7xx_hal_uart.c **** 
1930:Drivers/STM32F7xx_HAL_Driver/Src/stm32f7xx_hal_uart.c **** 
1931:Drivers/STM32F7xx_HAL_Driver/Src/stm32f7xx_hal_uart.c **** /**
1932:Drivers/STM32F7xx_HAL_Driver/Src/stm32f7xx_hal_uart.c ****   * @brief Configure the UART peripheral advanced features
1933:Drivers/STM32F7xx_HAL_Driver/Src/stm32f7xx_hal_uart.c ****   * @param huart uart handle
1934:Drivers/STM32F7xx_HAL_Driver/Src/stm32f7xx_hal_uart.c ****   * @retval None
1935:Drivers/STM32F7xx_HAL_Driver/Src/stm32f7xx_hal_uart.c ****   */
1936:Drivers/STM32F7xx_HAL_Driver/Src/stm32f7xx_hal_uart.c **** void UART_AdvFeatureConfig(UART_HandleTypeDef *huart)
1937:Drivers/STM32F7xx_HAL_Driver/Src/stm32f7xx_hal_uart.c **** {
 2979              		.loc 1 1937 0
 2980              		.cfi_startproc
 2981              		@ args = 0, pretend = 0, frame = 0
 2982              		@ frame_needed = 0, uses_anonymous_args = 0
ARM GAS  C:\Users\Student\AppData\Local\Temp\cc4Wk4r8.s 			page 94


 2983              		@ link register save eliminated.
 2984              	.LVL294:
1938:Drivers/STM32F7xx_HAL_Driver/Src/stm32f7xx_hal_uart.c ****   /* Check whether the set of advanced features to configure is properly set */
1939:Drivers/STM32F7xx_HAL_Driver/Src/stm32f7xx_hal_uart.c ****   assert_param(IS_UART_ADVFEATURE_INIT(huart->AdvancedInit.AdvFeatureInit));
1940:Drivers/STM32F7xx_HAL_Driver/Src/stm32f7xx_hal_uart.c **** 
1941:Drivers/STM32F7xx_HAL_Driver/Src/stm32f7xx_hal_uart.c ****   /* if required, configure TX pin active level inversion */
1942:Drivers/STM32F7xx_HAL_Driver/Src/stm32f7xx_hal_uart.c ****   if(HAL_IS_BIT_SET(huart->AdvancedInit.AdvFeatureInit, UART_ADVFEATURE_TXINVERT_INIT))
 2985              		.loc 1 1942 0
 2986 0000 436A     		ldr	r3, [r0, #36]
 2987 0002 13F0010F 		tst	r3, #1
 2988 0006 06D0     		beq	.L288
1943:Drivers/STM32F7xx_HAL_Driver/Src/stm32f7xx_hal_uart.c ****   {
1944:Drivers/STM32F7xx_HAL_Driver/Src/stm32f7xx_hal_uart.c ****     assert_param(IS_UART_ADVFEATURE_TXINV(huart->AdvancedInit.TxPinLevelInvert));
1945:Drivers/STM32F7xx_HAL_Driver/Src/stm32f7xx_hal_uart.c ****     MODIFY_REG(huart->Instance->CR2, USART_CR2_TXINV, huart->AdvancedInit.TxPinLevelInvert);
 2989              		.loc 1 1945 0
 2990 0008 0268     		ldr	r2, [r0]
 2991 000a 5368     		ldr	r3, [r2, #4]
 2992 000c 23F40033 		bic	r3, r3, #131072
 2993 0010 816A     		ldr	r1, [r0, #40]
 2994 0012 0B43     		orrs	r3, r3, r1
 2995 0014 5360     		str	r3, [r2, #4]
 2996              	.L288:
1946:Drivers/STM32F7xx_HAL_Driver/Src/stm32f7xx_hal_uart.c ****   }
1947:Drivers/STM32F7xx_HAL_Driver/Src/stm32f7xx_hal_uart.c **** 
1948:Drivers/STM32F7xx_HAL_Driver/Src/stm32f7xx_hal_uart.c ****   /* if required, configure RX pin active level inversion */
1949:Drivers/STM32F7xx_HAL_Driver/Src/stm32f7xx_hal_uart.c ****   if(HAL_IS_BIT_SET(huart->AdvancedInit.AdvFeatureInit, UART_ADVFEATURE_RXINVERT_INIT))
 2997              		.loc 1 1949 0
 2998 0016 436A     		ldr	r3, [r0, #36]
 2999 0018 13F0020F 		tst	r3, #2
 3000 001c 06D0     		beq	.L289
1950:Drivers/STM32F7xx_HAL_Driver/Src/stm32f7xx_hal_uart.c ****   {
1951:Drivers/STM32F7xx_HAL_Driver/Src/stm32f7xx_hal_uart.c ****     assert_param(IS_UART_ADVFEATURE_RXINV(huart->AdvancedInit.RxPinLevelInvert));
1952:Drivers/STM32F7xx_HAL_Driver/Src/stm32f7xx_hal_uart.c ****     MODIFY_REG(huart->Instance->CR2, USART_CR2_RXINV, huart->AdvancedInit.RxPinLevelInvert);
 3001              		.loc 1 1952 0
 3002 001e 0268     		ldr	r2, [r0]
 3003 0020 5368     		ldr	r3, [r2, #4]
 3004 0022 23F48033 		bic	r3, r3, #65536
 3005 0026 C16A     		ldr	r1, [r0, #44]
 3006 0028 0B43     		orrs	r3, r3, r1
 3007 002a 5360     		str	r3, [r2, #4]
 3008              	.L289:
1953:Drivers/STM32F7xx_HAL_Driver/Src/stm32f7xx_hal_uart.c ****   }
1954:Drivers/STM32F7xx_HAL_Driver/Src/stm32f7xx_hal_uart.c **** 
1955:Drivers/STM32F7xx_HAL_Driver/Src/stm32f7xx_hal_uart.c ****   /* if required, configure data inversion */
1956:Drivers/STM32F7xx_HAL_Driver/Src/stm32f7xx_hal_uart.c ****   if(HAL_IS_BIT_SET(huart->AdvancedInit.AdvFeatureInit, UART_ADVFEATURE_DATAINVERT_INIT))
 3009              		.loc 1 1956 0
 3010 002c 436A     		ldr	r3, [r0, #36]
 3011 002e 13F0040F 		tst	r3, #4
 3012 0032 06D0     		beq	.L290
1957:Drivers/STM32F7xx_HAL_Driver/Src/stm32f7xx_hal_uart.c ****   {
1958:Drivers/STM32F7xx_HAL_Driver/Src/stm32f7xx_hal_uart.c ****     assert_param(IS_UART_ADVFEATURE_DATAINV(huart->AdvancedInit.DataInvert));
1959:Drivers/STM32F7xx_HAL_Driver/Src/stm32f7xx_hal_uart.c ****     MODIFY_REG(huart->Instance->CR2, USART_CR2_DATAINV, huart->AdvancedInit.DataInvert);
 3013              		.loc 1 1959 0
 3014 0034 0268     		ldr	r2, [r0]
 3015 0036 5368     		ldr	r3, [r2, #4]
 3016 0038 23F48023 		bic	r3, r3, #262144
 3017 003c 016B     		ldr	r1, [r0, #48]
ARM GAS  C:\Users\Student\AppData\Local\Temp\cc4Wk4r8.s 			page 95


 3018 003e 0B43     		orrs	r3, r3, r1
 3019 0040 5360     		str	r3, [r2, #4]
 3020              	.L290:
1960:Drivers/STM32F7xx_HAL_Driver/Src/stm32f7xx_hal_uart.c ****   }
1961:Drivers/STM32F7xx_HAL_Driver/Src/stm32f7xx_hal_uart.c **** 
1962:Drivers/STM32F7xx_HAL_Driver/Src/stm32f7xx_hal_uart.c ****   /* if required, configure RX/TX pins swap */
1963:Drivers/STM32F7xx_HAL_Driver/Src/stm32f7xx_hal_uart.c ****   if(HAL_IS_BIT_SET(huart->AdvancedInit.AdvFeatureInit, UART_ADVFEATURE_SWAP_INIT))
 3021              		.loc 1 1963 0
 3022 0042 436A     		ldr	r3, [r0, #36]
 3023 0044 13F0080F 		tst	r3, #8
 3024 0048 06D0     		beq	.L291
1964:Drivers/STM32F7xx_HAL_Driver/Src/stm32f7xx_hal_uart.c ****   {
1965:Drivers/STM32F7xx_HAL_Driver/Src/stm32f7xx_hal_uart.c ****     assert_param(IS_UART_ADVFEATURE_SWAP(huart->AdvancedInit.Swap));
1966:Drivers/STM32F7xx_HAL_Driver/Src/stm32f7xx_hal_uart.c ****     MODIFY_REG(huart->Instance->CR2, USART_CR2_SWAP, huart->AdvancedInit.Swap);
 3025              		.loc 1 1966 0
 3026 004a 0268     		ldr	r2, [r0]
 3027 004c 5368     		ldr	r3, [r2, #4]
 3028 004e 23F40043 		bic	r3, r3, #32768
 3029 0052 416B     		ldr	r1, [r0, #52]
 3030 0054 0B43     		orrs	r3, r3, r1
 3031 0056 5360     		str	r3, [r2, #4]
 3032              	.L291:
1967:Drivers/STM32F7xx_HAL_Driver/Src/stm32f7xx_hal_uart.c ****   }
1968:Drivers/STM32F7xx_HAL_Driver/Src/stm32f7xx_hal_uart.c **** 
1969:Drivers/STM32F7xx_HAL_Driver/Src/stm32f7xx_hal_uart.c ****   /* if required, configure RX overrun detection disabling */
1970:Drivers/STM32F7xx_HAL_Driver/Src/stm32f7xx_hal_uart.c ****   if(HAL_IS_BIT_SET(huart->AdvancedInit.AdvFeatureInit, UART_ADVFEATURE_RXOVERRUNDISABLE_INIT))
 3033              		.loc 1 1970 0
 3034 0058 436A     		ldr	r3, [r0, #36]
 3035 005a 13F0100F 		tst	r3, #16
 3036 005e 06D0     		beq	.L292
1971:Drivers/STM32F7xx_HAL_Driver/Src/stm32f7xx_hal_uart.c ****   {
1972:Drivers/STM32F7xx_HAL_Driver/Src/stm32f7xx_hal_uart.c ****     assert_param(IS_UART_OVERRUN(huart->AdvancedInit.OverrunDisable));
1973:Drivers/STM32F7xx_HAL_Driver/Src/stm32f7xx_hal_uart.c ****     MODIFY_REG(huart->Instance->CR3, USART_CR3_OVRDIS, huart->AdvancedInit.OverrunDisable);
 3037              		.loc 1 1973 0
 3038 0060 0268     		ldr	r2, [r0]
 3039 0062 9368     		ldr	r3, [r2, #8]
 3040 0064 23F48053 		bic	r3, r3, #4096
 3041 0068 816B     		ldr	r1, [r0, #56]
 3042 006a 0B43     		orrs	r3, r3, r1
 3043 006c 9360     		str	r3, [r2, #8]
 3044              	.L292:
1974:Drivers/STM32F7xx_HAL_Driver/Src/stm32f7xx_hal_uart.c ****   }
1975:Drivers/STM32F7xx_HAL_Driver/Src/stm32f7xx_hal_uart.c **** 
1976:Drivers/STM32F7xx_HAL_Driver/Src/stm32f7xx_hal_uart.c ****   /* if required, configure DMA disabling on reception error */
1977:Drivers/STM32F7xx_HAL_Driver/Src/stm32f7xx_hal_uart.c ****   if(HAL_IS_BIT_SET(huart->AdvancedInit.AdvFeatureInit, UART_ADVFEATURE_DMADISABLEONERROR_INIT))
 3045              		.loc 1 1977 0
 3046 006e 436A     		ldr	r3, [r0, #36]
 3047 0070 13F0200F 		tst	r3, #32
 3048 0074 06D0     		beq	.L293
1978:Drivers/STM32F7xx_HAL_Driver/Src/stm32f7xx_hal_uart.c ****   {
1979:Drivers/STM32F7xx_HAL_Driver/Src/stm32f7xx_hal_uart.c ****     assert_param(IS_UART_ADVFEATURE_DMAONRXERROR(huart->AdvancedInit.DMADisableonRxError));
1980:Drivers/STM32F7xx_HAL_Driver/Src/stm32f7xx_hal_uart.c ****     MODIFY_REG(huart->Instance->CR3, USART_CR3_DDRE, huart->AdvancedInit.DMADisableonRxError);
 3049              		.loc 1 1980 0
 3050 0076 0268     		ldr	r2, [r0]
 3051 0078 9368     		ldr	r3, [r2, #8]
 3052 007a 23F40053 		bic	r3, r3, #8192
 3053 007e C16B     		ldr	r1, [r0, #60]
ARM GAS  C:\Users\Student\AppData\Local\Temp\cc4Wk4r8.s 			page 96


 3054 0080 0B43     		orrs	r3, r3, r1
 3055 0082 9360     		str	r3, [r2, #8]
 3056              	.L293:
1981:Drivers/STM32F7xx_HAL_Driver/Src/stm32f7xx_hal_uart.c ****   }
1982:Drivers/STM32F7xx_HAL_Driver/Src/stm32f7xx_hal_uart.c **** 
1983:Drivers/STM32F7xx_HAL_Driver/Src/stm32f7xx_hal_uart.c ****   /* if required, configure auto Baud rate detection scheme */
1984:Drivers/STM32F7xx_HAL_Driver/Src/stm32f7xx_hal_uart.c ****   if(HAL_IS_BIT_SET(huart->AdvancedInit.AdvFeatureInit, UART_ADVFEATURE_AUTOBAUDRATE_INIT))
 3057              		.loc 1 1984 0
 3058 0084 436A     		ldr	r3, [r0, #36]
 3059 0086 13F0400F 		tst	r3, #64
 3060 008a 0AD0     		beq	.L294
1985:Drivers/STM32F7xx_HAL_Driver/Src/stm32f7xx_hal_uart.c ****   {
1986:Drivers/STM32F7xx_HAL_Driver/Src/stm32f7xx_hal_uart.c ****     assert_param(IS_UART_ADVFEATURE_AUTOBAUDRATE(huart->AdvancedInit.AutoBaudRateEnable));
1987:Drivers/STM32F7xx_HAL_Driver/Src/stm32f7xx_hal_uart.c ****     MODIFY_REG(huart->Instance->CR2, USART_CR2_ABREN, huart->AdvancedInit.AutoBaudRateEnable);
 3061              		.loc 1 1987 0
 3062 008c 0268     		ldr	r2, [r0]
 3063 008e 5368     		ldr	r3, [r2, #4]
 3064 0090 23F48013 		bic	r3, r3, #1048576
 3065 0094 016C     		ldr	r1, [r0, #64]
 3066 0096 0B43     		orrs	r3, r3, r1
 3067 0098 5360     		str	r3, [r2, #4]
1988:Drivers/STM32F7xx_HAL_Driver/Src/stm32f7xx_hal_uart.c ****     /* set auto Baudrate detection parameters if detection is enabled */
1989:Drivers/STM32F7xx_HAL_Driver/Src/stm32f7xx_hal_uart.c ****     if(huart->AdvancedInit.AutoBaudRateEnable == UART_ADVFEATURE_AUTOBAUDRATE_ENABLE)
 3068              		.loc 1 1989 0
 3069 009a 036C     		ldr	r3, [r0, #64]
 3070 009c B3F5801F 		cmp	r3, #1048576
 3071 00a0 0BD0     		beq	.L296
 3072              	.L294:
1990:Drivers/STM32F7xx_HAL_Driver/Src/stm32f7xx_hal_uart.c ****     {
1991:Drivers/STM32F7xx_HAL_Driver/Src/stm32f7xx_hal_uart.c ****       assert_param(IS_UART_ADVFEATURE_AUTOBAUDRATEMODE(huart->AdvancedInit.AutoBaudRateMode));
1992:Drivers/STM32F7xx_HAL_Driver/Src/stm32f7xx_hal_uart.c ****       MODIFY_REG(huart->Instance->CR2, USART_CR2_ABRMODE, huart->AdvancedInit.AutoBaudRateMode);
1993:Drivers/STM32F7xx_HAL_Driver/Src/stm32f7xx_hal_uart.c ****     }
1994:Drivers/STM32F7xx_HAL_Driver/Src/stm32f7xx_hal_uart.c ****   }
1995:Drivers/STM32F7xx_HAL_Driver/Src/stm32f7xx_hal_uart.c **** 
1996:Drivers/STM32F7xx_HAL_Driver/Src/stm32f7xx_hal_uart.c ****   /* if required, configure MSB first on communication line */
1997:Drivers/STM32F7xx_HAL_Driver/Src/stm32f7xx_hal_uart.c ****   if(HAL_IS_BIT_SET(huart->AdvancedInit.AdvFeatureInit, UART_ADVFEATURE_MSBFIRST_INIT))
 3073              		.loc 1 1997 0
 3074 00a2 436A     		ldr	r3, [r0, #36]
 3075 00a4 13F0800F 		tst	r3, #128
 3076 00a8 06D0     		beq	.L287
1998:Drivers/STM32F7xx_HAL_Driver/Src/stm32f7xx_hal_uart.c ****   {
1999:Drivers/STM32F7xx_HAL_Driver/Src/stm32f7xx_hal_uart.c ****     assert_param(IS_UART_ADVFEATURE_MSBFIRST(huart->AdvancedInit.MSBFirst));
2000:Drivers/STM32F7xx_HAL_Driver/Src/stm32f7xx_hal_uart.c ****     MODIFY_REG(huart->Instance->CR2, USART_CR2_MSBFIRST, huart->AdvancedInit.MSBFirst);
 3077              		.loc 1 2000 0
 3078 00aa 0268     		ldr	r2, [r0]
 3079 00ac 5368     		ldr	r3, [r2, #4]
 3080 00ae 23F40023 		bic	r3, r3, #524288
 3081 00b2 816C     		ldr	r1, [r0, #72]
 3082 00b4 0B43     		orrs	r3, r3, r1
 3083 00b6 5360     		str	r3, [r2, #4]
 3084              	.L287:
 3085 00b8 7047     		bx	lr
 3086              	.L296:
1992:Drivers/STM32F7xx_HAL_Driver/Src/stm32f7xx_hal_uart.c ****     }
 3087              		.loc 1 1992 0
 3088 00ba 0268     		ldr	r2, [r0]
 3089 00bc 5368     		ldr	r3, [r2, #4]
ARM GAS  C:\Users\Student\AppData\Local\Temp\cc4Wk4r8.s 			page 97


 3090 00be 23F4C003 		bic	r3, r3, #6291456
 3091 00c2 416C     		ldr	r1, [r0, #68]
 3092 00c4 0B43     		orrs	r3, r3, r1
 3093 00c6 5360     		str	r3, [r2, #4]
 3094 00c8 EBE7     		b	.L294
 3095              		.cfi_endproc
 3096              	.LFE177:
 3098              		.section	.text.UART_CheckIdleState,"ax",%progbits
 3099              		.align	1
 3100              		.global	UART_CheckIdleState
 3101              		.syntax unified
 3102              		.thumb
 3103              		.thumb_func
 3104              		.fpu fpv5-sp-d16
 3106              	UART_CheckIdleState:
 3107              	.LFB178:
2001:Drivers/STM32F7xx_HAL_Driver/Src/stm32f7xx_hal_uart.c ****   }
2002:Drivers/STM32F7xx_HAL_Driver/Src/stm32f7xx_hal_uart.c **** }
2003:Drivers/STM32F7xx_HAL_Driver/Src/stm32f7xx_hal_uart.c **** 
2004:Drivers/STM32F7xx_HAL_Driver/Src/stm32f7xx_hal_uart.c **** 
2005:Drivers/STM32F7xx_HAL_Driver/Src/stm32f7xx_hal_uart.c **** 
2006:Drivers/STM32F7xx_HAL_Driver/Src/stm32f7xx_hal_uart.c **** /**
2007:Drivers/STM32F7xx_HAL_Driver/Src/stm32f7xx_hal_uart.c ****   * @brief Check the UART Idle State
2008:Drivers/STM32F7xx_HAL_Driver/Src/stm32f7xx_hal_uart.c ****   * @param huart uart handle
2009:Drivers/STM32F7xx_HAL_Driver/Src/stm32f7xx_hal_uart.c ****   * @retval HAL status
2010:Drivers/STM32F7xx_HAL_Driver/Src/stm32f7xx_hal_uart.c ****   */
2011:Drivers/STM32F7xx_HAL_Driver/Src/stm32f7xx_hal_uart.c **** HAL_StatusTypeDef UART_CheckIdleState(UART_HandleTypeDef *huart)
2012:Drivers/STM32F7xx_HAL_Driver/Src/stm32f7xx_hal_uart.c **** {
 3108              		.loc 1 2012 0
 3109              		.cfi_startproc
 3110              		@ args = 0, pretend = 0, frame = 0
 3111              		@ frame_needed = 0, uses_anonymous_args = 0
 3112              	.LVL295:
 3113 0000 10B5     		push	{r4, lr}
 3114              	.LCFI24:
 3115              		.cfi_def_cfa_offset 8
 3116              		.cfi_offset 4, -8
 3117              		.cfi_offset 14, -4
 3118 0002 82B0     		sub	sp, sp, #8
 3119              	.LCFI25:
 3120              		.cfi_def_cfa_offset 16
 3121 0004 0446     		mov	r4, r0
 3122              	.LVL296:
2013:Drivers/STM32F7xx_HAL_Driver/Src/stm32f7xx_hal_uart.c ****   uint32_t tickstart = 0U;
2014:Drivers/STM32F7xx_HAL_Driver/Src/stm32f7xx_hal_uart.c **** 
2015:Drivers/STM32F7xx_HAL_Driver/Src/stm32f7xx_hal_uart.c ****   /* Initialize the UART ErrorCode */
2016:Drivers/STM32F7xx_HAL_Driver/Src/stm32f7xx_hal_uart.c ****   huart->ErrorCode = HAL_UART_ERROR_NONE;
 3123              		.loc 1 2016 0
 3124 0006 0023     		movs	r3, #0
 3125 0008 C366     		str	r3, [r0, #108]
2017:Drivers/STM32F7xx_HAL_Driver/Src/stm32f7xx_hal_uart.c **** 
2018:Drivers/STM32F7xx_HAL_Driver/Src/stm32f7xx_hal_uart.c ****   /* Init tickstart for timeout managment*/
2019:Drivers/STM32F7xx_HAL_Driver/Src/stm32f7xx_hal_uart.c ****   tickstart = HAL_GetTick();
 3126              		.loc 1 2019 0
 3127 000a FFF7FEFF 		bl	HAL_GetTick
 3128              	.LVL297:
2020:Drivers/STM32F7xx_HAL_Driver/Src/stm32f7xx_hal_uart.c **** 
ARM GAS  C:\Users\Student\AppData\Local\Temp\cc4Wk4r8.s 			page 98


2021:Drivers/STM32F7xx_HAL_Driver/Src/stm32f7xx_hal_uart.c ****   /* Check if the Transmitter is enabled */
2022:Drivers/STM32F7xx_HAL_Driver/Src/stm32f7xx_hal_uart.c ****   if((huart->Instance->CR1 & USART_CR1_TE) == USART_CR1_TE)
 3129              		.loc 1 2022 0
 3130 000e 2268     		ldr	r2, [r4]
 3131 0010 1268     		ldr	r2, [r2]
 3132 0012 12F0080F 		tst	r2, #8
 3133 0016 09D1     		bne	.L302
 3134              	.LVL298:
 3135              	.L298:
2023:Drivers/STM32F7xx_HAL_Driver/Src/stm32f7xx_hal_uart.c ****   {
2024:Drivers/STM32F7xx_HAL_Driver/Src/stm32f7xx_hal_uart.c ****     /* Wait until TEACK flag is set */
2025:Drivers/STM32F7xx_HAL_Driver/Src/stm32f7xx_hal_uart.c ****     if(UART_WaitOnFlagUntilTimeout(huart, USART_ISR_TEACK, RESET, tickstart, HAL_UART_TIMEOUT_VALUE
2026:Drivers/STM32F7xx_HAL_Driver/Src/stm32f7xx_hal_uart.c ****     {
2027:Drivers/STM32F7xx_HAL_Driver/Src/stm32f7xx_hal_uart.c ****       /* Timeout Occurred */
2028:Drivers/STM32F7xx_HAL_Driver/Src/stm32f7xx_hal_uart.c ****       return HAL_TIMEOUT;
2029:Drivers/STM32F7xx_HAL_Driver/Src/stm32f7xx_hal_uart.c ****     }
2030:Drivers/STM32F7xx_HAL_Driver/Src/stm32f7xx_hal_uart.c ****   }
2031:Drivers/STM32F7xx_HAL_Driver/Src/stm32f7xx_hal_uart.c **** 
2032:Drivers/STM32F7xx_HAL_Driver/Src/stm32f7xx_hal_uart.c ****   /* Initialize the UART State */
2033:Drivers/STM32F7xx_HAL_Driver/Src/stm32f7xx_hal_uart.c ****   huart->gState= HAL_UART_STATE_READY;
 3136              		.loc 1 2033 0
 3137 0018 2023     		movs	r3, #32
 3138 001a 84F86930 		strb	r3, [r4, #105]
2034:Drivers/STM32F7xx_HAL_Driver/Src/stm32f7xx_hal_uart.c ****   huart->RxState= HAL_UART_STATE_READY;
 3139              		.loc 1 2034 0
 3140 001e 84F86A30 		strb	r3, [r4, #106]
2035:Drivers/STM32F7xx_HAL_Driver/Src/stm32f7xx_hal_uart.c **** 
2036:Drivers/STM32F7xx_HAL_Driver/Src/stm32f7xx_hal_uart.c ****   /* Process Unlocked */
2037:Drivers/STM32F7xx_HAL_Driver/Src/stm32f7xx_hal_uart.c ****   __HAL_UNLOCK(huart);
 3141              		.loc 1 2037 0
 3142 0022 0020     		movs	r0, #0
 3143 0024 84F86800 		strb	r0, [r4, #104]
 3144              	.L299:
2038:Drivers/STM32F7xx_HAL_Driver/Src/stm32f7xx_hal_uart.c **** 
2039:Drivers/STM32F7xx_HAL_Driver/Src/stm32f7xx_hal_uart.c ****   return HAL_OK;
2040:Drivers/STM32F7xx_HAL_Driver/Src/stm32f7xx_hal_uart.c **** }
 3145              		.loc 1 2040 0
 3146 0028 02B0     		add	sp, sp, #8
 3147              	.LCFI26:
 3148              		.cfi_remember_state
 3149              		.cfi_def_cfa_offset 8
 3150              		@ sp needed
 3151 002a 10BD     		pop	{r4, pc}
 3152              	.LVL299:
 3153              	.L302:
 3154              	.LCFI27:
 3155              		.cfi_restore_state
2025:Drivers/STM32F7xx_HAL_Driver/Src/stm32f7xx_hal_uart.c ****     {
 3156              		.loc 1 2025 0
 3157 002c 6FF07E43 		mvn	r3, #-33554432
 3158 0030 0093     		str	r3, [sp]
 3159 0032 0346     		mov	r3, r0
 3160 0034 0022     		movs	r2, #0
 3161 0036 4FF40011 		mov	r1, #2097152
 3162 003a 2046     		mov	r0, r4
 3163              	.LVL300:
 3164 003c FFF7FEFF 		bl	UART_WaitOnFlagUntilTimeout
ARM GAS  C:\Users\Student\AppData\Local\Temp\cc4Wk4r8.s 			page 99


 3165              	.LVL301:
 3166 0040 0028     		cmp	r0, #0
 3167 0042 E9D0     		beq	.L298
2028:Drivers/STM32F7xx_HAL_Driver/Src/stm32f7xx_hal_uart.c ****     }
 3168              		.loc 1 2028 0
 3169 0044 0320     		movs	r0, #3
 3170 0046 EFE7     		b	.L299
 3171              		.cfi_endproc
 3172              	.LFE178:
 3174              		.section	.text.HAL_UART_Init,"ax",%progbits
 3175              		.align	1
 3176              		.global	HAL_UART_Init
 3177              		.syntax unified
 3178              		.thumb
 3179              		.thumb_func
 3180              		.fpu fpv5-sp-d16
 3182              	HAL_UART_Init:
 3183              	.LFB136:
 242:Drivers/STM32F7xx_HAL_Driver/Src/stm32f7xx_hal_uart.c ****   /* Check the UART handle allocation */
 3184              		.loc 1 242 0
 3185              		.cfi_startproc
 3186              		@ args = 0, pretend = 0, frame = 0
 3187              		@ frame_needed = 0, uses_anonymous_args = 0
 3188              	.LVL302:
 244:Drivers/STM32F7xx_HAL_Driver/Src/stm32f7xx_hal_uart.c ****   {
 3189              		.loc 1 244 0
 3190 0000 78B3     		cbz	r0, .L307
 242:Drivers/STM32F7xx_HAL_Driver/Src/stm32f7xx_hal_uart.c ****   /* Check the UART handle allocation */
 3191              		.loc 1 242 0
 3192 0002 10B5     		push	{r4, lr}
 3193              	.LCFI28:
 3194              		.cfi_def_cfa_offset 8
 3195              		.cfi_offset 4, -8
 3196              		.cfi_offset 14, -4
 3197 0004 0446     		mov	r4, r0
 260:Drivers/STM32F7xx_HAL_Driver/Src/stm32f7xx_hal_uart.c ****   {
 3198              		.loc 1 260 0
 3199 0006 90F86930 		ldrb	r3, [r0, #105]	@ zero_extendqisi2
 3200 000a 0BB3     		cbz	r3, .L312
 3201              	.LVL303:
 3202              	.L305:
 269:Drivers/STM32F7xx_HAL_Driver/Src/stm32f7xx_hal_uart.c **** 
 3203              		.loc 1 269 0
 3204 000c 2423     		movs	r3, #36
 3205 000e 84F86930 		strb	r3, [r4, #105]
 272:Drivers/STM32F7xx_HAL_Driver/Src/stm32f7xx_hal_uart.c **** 
 3206              		.loc 1 272 0
 3207 0012 2268     		ldr	r2, [r4]
 3208 0014 1368     		ldr	r3, [r2]
 3209 0016 23F00103 		bic	r3, r3, #1
 3210 001a 1360     		str	r3, [r2]
 275:Drivers/STM32F7xx_HAL_Driver/Src/stm32f7xx_hal_uart.c ****   {
 3211              		.loc 1 275 0
 3212 001c 2046     		mov	r0, r4
 3213 001e FFF7FEFF 		bl	UART_SetConfig
 3214              	.LVL304:
 3215 0022 0128     		cmp	r0, #1
ARM GAS  C:\Users\Student\AppData\Local\Temp\cc4Wk4r8.s 			page 100


 3216 0024 1FD0     		beq	.L304
 280:Drivers/STM32F7xx_HAL_Driver/Src/stm32f7xx_hal_uart.c ****   {
 3217              		.loc 1 280 0
 3218 0026 636A     		ldr	r3, [r4, #36]
 3219 0028 BBB9     		cbnz	r3, .L313
 3220              	.L306:
 288:Drivers/STM32F7xx_HAL_Driver/Src/stm32f7xx_hal_uart.c ****   CLEAR_BIT(huart->Instance->CR3, (USART_CR3_SCEN | USART_CR3_HDSEL | USART_CR3_IREN));
 3221              		.loc 1 288 0
 3222 002a 2268     		ldr	r2, [r4]
 3223 002c 5368     		ldr	r3, [r2, #4]
 3224 002e 23F49043 		bic	r3, r3, #18432
 3225 0032 5360     		str	r3, [r2, #4]
 289:Drivers/STM32F7xx_HAL_Driver/Src/stm32f7xx_hal_uart.c **** 
 3226              		.loc 1 289 0
 3227 0034 2268     		ldr	r2, [r4]
 3228 0036 9368     		ldr	r3, [r2, #8]
 3229 0038 23F02A03 		bic	r3, r3, #42
 3230 003c 9360     		str	r3, [r2, #8]
 292:Drivers/STM32F7xx_HAL_Driver/Src/stm32f7xx_hal_uart.c **** 
 3231              		.loc 1 292 0
 3232 003e 2268     		ldr	r2, [r4]
 3233 0040 1368     		ldr	r3, [r2]
 3234 0042 43F00103 		orr	r3, r3, #1
 3235 0046 1360     		str	r3, [r2]
 295:Drivers/STM32F7xx_HAL_Driver/Src/stm32f7xx_hal_uart.c **** }
 3236              		.loc 1 295 0
 3237 0048 2046     		mov	r0, r4
 3238 004a FFF7FEFF 		bl	UART_CheckIdleState
 3239              	.LVL305:
 3240 004e 10BD     		pop	{r4, pc}
 3241              	.LVL306:
 3242              	.L312:
 263:Drivers/STM32F7xx_HAL_Driver/Src/stm32f7xx_hal_uart.c **** 
 3243              		.loc 1 263 0
 3244 0050 80F86830 		strb	r3, [r0, #104]
 266:Drivers/STM32F7xx_HAL_Driver/Src/stm32f7xx_hal_uart.c ****   }
 3245              		.loc 1 266 0
 3246 0054 FFF7FEFF 		bl	HAL_UART_MspInit
 3247              	.LVL307:
 3248 0058 D8E7     		b	.L305
 3249              	.L313:
 282:Drivers/STM32F7xx_HAL_Driver/Src/stm32f7xx_hal_uart.c ****   }
 3250              		.loc 1 282 0
 3251 005a 2046     		mov	r0, r4
 3252 005c FFF7FEFF 		bl	UART_AdvFeatureConfig
 3253              	.LVL308:
 3254 0060 E3E7     		b	.L306
 3255              	.LVL309:
 3256              	.L307:
 3257              	.LCFI29:
 3258              		.cfi_def_cfa_offset 0
 3259              		.cfi_restore 4
 3260              		.cfi_restore 14
 246:Drivers/STM32F7xx_HAL_Driver/Src/stm32f7xx_hal_uart.c ****   }
 3261              		.loc 1 246 0
 3262 0062 0120     		movs	r0, #1
 3263              	.LVL310:
ARM GAS  C:\Users\Student\AppData\Local\Temp\cc4Wk4r8.s 			page 101


 3264 0064 7047     		bx	lr
 3265              	.LVL311:
 3266              	.L304:
 3267              	.LCFI30:
 3268              		.cfi_def_cfa_offset 8
 3269              		.cfi_offset 4, -8
 3270              		.cfi_offset 14, -4
 296:Drivers/STM32F7xx_HAL_Driver/Src/stm32f7xx_hal_uart.c **** 
 3271              		.loc 1 296 0
 3272 0066 10BD     		pop	{r4, pc}
 3273              		.cfi_endproc
 3274              	.LFE136:
 3276              		.section	.text.HAL_HalfDuplex_Init,"ax",%progbits
 3277              		.align	1
 3278              		.global	HAL_HalfDuplex_Init
 3279              		.syntax unified
 3280              		.thumb
 3281              		.thumb_func
 3282              		.fpu fpv5-sp-d16
 3284              	HAL_HalfDuplex_Init:
 3285              	.LFB137:
 305:Drivers/STM32F7xx_HAL_Driver/Src/stm32f7xx_hal_uart.c ****   /* Check the UART handle allocation */
 3286              		.loc 1 305 0
 3287              		.cfi_startproc
 3288              		@ args = 0, pretend = 0, frame = 0
 3289              		@ frame_needed = 0, uses_anonymous_args = 0
 3290              	.LVL312:
 307:Drivers/STM32F7xx_HAL_Driver/Src/stm32f7xx_hal_uart.c ****   {
 3291              		.loc 1 307 0
 3292 0000 0028     		cmp	r0, #0
 3293 0002 34D0     		beq	.L318
 305:Drivers/STM32F7xx_HAL_Driver/Src/stm32f7xx_hal_uart.c ****   /* Check the UART handle allocation */
 3294              		.loc 1 305 0
 3295 0004 10B5     		push	{r4, lr}
 3296              	.LCFI31:
 3297              		.cfi_def_cfa_offset 8
 3298              		.cfi_offset 4, -8
 3299              		.cfi_offset 14, -4
 3300 0006 0446     		mov	r4, r0
 312:Drivers/STM32F7xx_HAL_Driver/Src/stm32f7xx_hal_uart.c ****   {
 3301              		.loc 1 312 0
 3302 0008 90F86930 		ldrb	r3, [r0, #105]	@ zero_extendqisi2
 3303 000c 33B3     		cbz	r3, .L323
 3304              	.LVL313:
 3305              	.L316:
 321:Drivers/STM32F7xx_HAL_Driver/Src/stm32f7xx_hal_uart.c **** 
 3306              		.loc 1 321 0
 3307 000e 2423     		movs	r3, #36
 3308 0010 84F86930 		strb	r3, [r4, #105]
 324:Drivers/STM32F7xx_HAL_Driver/Src/stm32f7xx_hal_uart.c **** 
 3309              		.loc 1 324 0
 3310 0014 2268     		ldr	r2, [r4]
 3311 0016 1368     		ldr	r3, [r2]
 3312 0018 23F00103 		bic	r3, r3, #1
 3313 001c 1360     		str	r3, [r2]
 327:Drivers/STM32F7xx_HAL_Driver/Src/stm32f7xx_hal_uart.c ****   {
 3314              		.loc 1 327 0
ARM GAS  C:\Users\Student\AppData\Local\Temp\cc4Wk4r8.s 			page 102


 3315 001e 2046     		mov	r0, r4
 3316 0020 FFF7FEFF 		bl	UART_SetConfig
 3317              	.LVL314:
 3318 0024 0128     		cmp	r0, #1
 3319 0026 24D0     		beq	.L315
 332:Drivers/STM32F7xx_HAL_Driver/Src/stm32f7xx_hal_uart.c ****   {
 3320              		.loc 1 332 0
 3321 0028 636A     		ldr	r3, [r4, #36]
 3322 002a E3B9     		cbnz	r3, .L324
 3323              	.L317:
 340:Drivers/STM32F7xx_HAL_Driver/Src/stm32f7xx_hal_uart.c ****   CLEAR_BIT(huart->Instance->CR3, (USART_CR3_IREN | USART_CR3_SCEN));
 3324              		.loc 1 340 0
 3325 002c 2268     		ldr	r2, [r4]
 3326 002e 5368     		ldr	r3, [r2, #4]
 3327 0030 23F49043 		bic	r3, r3, #18432
 3328 0034 5360     		str	r3, [r2, #4]
 341:Drivers/STM32F7xx_HAL_Driver/Src/stm32f7xx_hal_uart.c **** 
 3329              		.loc 1 341 0
 3330 0036 2268     		ldr	r2, [r4]
 3331 0038 9368     		ldr	r3, [r2, #8]
 3332 003a 23F02203 		bic	r3, r3, #34
 3333 003e 9360     		str	r3, [r2, #8]
 344:Drivers/STM32F7xx_HAL_Driver/Src/stm32f7xx_hal_uart.c **** 
 3334              		.loc 1 344 0
 3335 0040 2268     		ldr	r2, [r4]
 3336 0042 9368     		ldr	r3, [r2, #8]
 3337 0044 43F00803 		orr	r3, r3, #8
 3338 0048 9360     		str	r3, [r2, #8]
 347:Drivers/STM32F7xx_HAL_Driver/Src/stm32f7xx_hal_uart.c **** 
 3339              		.loc 1 347 0
 3340 004a 2268     		ldr	r2, [r4]
 3341 004c 1368     		ldr	r3, [r2]
 3342 004e 43F00103 		orr	r3, r3, #1
 3343 0052 1360     		str	r3, [r2]
 350:Drivers/STM32F7xx_HAL_Driver/Src/stm32f7xx_hal_uart.c **** }
 3344              		.loc 1 350 0
 3345 0054 2046     		mov	r0, r4
 3346 0056 FFF7FEFF 		bl	UART_CheckIdleState
 3347              	.LVL315:
 3348 005a 10BD     		pop	{r4, pc}
 3349              	.LVL316:
 3350              	.L323:
 315:Drivers/STM32F7xx_HAL_Driver/Src/stm32f7xx_hal_uart.c **** 
 3351              		.loc 1 315 0
 3352 005c 80F86830 		strb	r3, [r0, #104]
 318:Drivers/STM32F7xx_HAL_Driver/Src/stm32f7xx_hal_uart.c ****   }
 3353              		.loc 1 318 0
 3354 0060 FFF7FEFF 		bl	HAL_UART_MspInit
 3355              	.LVL317:
 3356 0064 D3E7     		b	.L316
 3357              	.L324:
 334:Drivers/STM32F7xx_HAL_Driver/Src/stm32f7xx_hal_uart.c ****   }
 3358              		.loc 1 334 0
 3359 0066 2046     		mov	r0, r4
 3360 0068 FFF7FEFF 		bl	UART_AdvFeatureConfig
 3361              	.LVL318:
 3362 006c DEE7     		b	.L317
ARM GAS  C:\Users\Student\AppData\Local\Temp\cc4Wk4r8.s 			page 103


 3363              	.LVL319:
 3364              	.L318:
 3365              	.LCFI32:
 3366              		.cfi_def_cfa_offset 0
 3367              		.cfi_restore 4
 3368              		.cfi_restore 14
 309:Drivers/STM32F7xx_HAL_Driver/Src/stm32f7xx_hal_uart.c ****   }
 3369              		.loc 1 309 0
 3370 006e 0120     		movs	r0, #1
 3371              	.LVL320:
 3372 0070 7047     		bx	lr
 3373              	.LVL321:
 3374              	.L315:
 3375              	.LCFI33:
 3376              		.cfi_def_cfa_offset 8
 3377              		.cfi_offset 4, -8
 3378              		.cfi_offset 14, -4
 351:Drivers/STM32F7xx_HAL_Driver/Src/stm32f7xx_hal_uart.c **** 
 3379              		.loc 1 351 0
 3380 0072 10BD     		pop	{r4, pc}
 3381              		.cfi_endproc
 3382              	.LFE137:
 3384              		.section	.text.HAL_LIN_Init,"ax",%progbits
 3385              		.align	1
 3386              		.global	HAL_LIN_Init
 3387              		.syntax unified
 3388              		.thumb
 3389              		.thumb_func
 3390              		.fpu fpv5-sp-d16
 3392              	HAL_LIN_Init:
 3393              	.LFB138:
 365:Drivers/STM32F7xx_HAL_Driver/Src/stm32f7xx_hal_uart.c ****   /* Check the UART handle allocation */
 3394              		.loc 1 365 0
 3395              		.cfi_startproc
 3396              		@ args = 0, pretend = 0, frame = 0
 3397              		@ frame_needed = 0, uses_anonymous_args = 0
 3398              	.LVL322:
 367:Drivers/STM32F7xx_HAL_Driver/Src/stm32f7xx_hal_uart.c ****   {
 3399              		.loc 1 367 0
 3400 0000 0028     		cmp	r0, #0
 3401 0002 3CD0     		beq	.L329
 365:Drivers/STM32F7xx_HAL_Driver/Src/stm32f7xx_hal_uart.c ****   /* Check the UART handle allocation */
 3402              		.loc 1 365 0
 3403 0004 38B5     		push	{r3, r4, r5, lr}
 3404              	.LCFI34:
 3405              		.cfi_def_cfa_offset 16
 3406              		.cfi_offset 3, -16
 3407              		.cfi_offset 4, -12
 3408              		.cfi_offset 5, -8
 3409              		.cfi_offset 14, -4
 3410 0006 0446     		mov	r4, r0
 3411 0008 0D46     		mov	r5, r1
 377:Drivers/STM32F7xx_HAL_Driver/Src/stm32f7xx_hal_uart.c ****   {
 3412              		.loc 1 377 0
 3413 000a 90F86930 		ldrb	r3, [r0, #105]	@ zero_extendqisi2
 3414 000e 002B     		cmp	r3, #0
 3415 0010 2CD0     		beq	.L334
ARM GAS  C:\Users\Student\AppData\Local\Temp\cc4Wk4r8.s 			page 104


 3416              	.LVL323:
 3417              	.L327:
 386:Drivers/STM32F7xx_HAL_Driver/Src/stm32f7xx_hal_uart.c **** 
 3418              		.loc 1 386 0
 3419 0012 2423     		movs	r3, #36
 3420 0014 84F86930 		strb	r3, [r4, #105]
 389:Drivers/STM32F7xx_HAL_Driver/Src/stm32f7xx_hal_uart.c **** 
 3421              		.loc 1 389 0
 3422 0018 2268     		ldr	r2, [r4]
 3423 001a 1368     		ldr	r3, [r2]
 3424 001c 23F00103 		bic	r3, r3, #1
 3425 0020 1360     		str	r3, [r2]
 392:Drivers/STM32F7xx_HAL_Driver/Src/stm32f7xx_hal_uart.c ****   {
 3426              		.loc 1 392 0
 3427 0022 2046     		mov	r0, r4
 3428 0024 FFF7FEFF 		bl	UART_SetConfig
 3429              	.LVL324:
 3430 0028 0128     		cmp	r0, #1
 3431 002a 2AD0     		beq	.L326
 397:Drivers/STM32F7xx_HAL_Driver/Src/stm32f7xx_hal_uart.c ****   {
 3432              		.loc 1 397 0
 3433 002c 636A     		ldr	r3, [r4, #36]
 3434 002e 13BB     		cbnz	r3, .L335
 3435              	.L328:
 405:Drivers/STM32F7xx_HAL_Driver/Src/stm32f7xx_hal_uart.c ****   CLEAR_BIT(huart->Instance->CR3, (USART_CR3_HDSEL | USART_CR3_IREN | USART_CR3_SCEN));
 3436              		.loc 1 405 0
 3437 0030 2268     		ldr	r2, [r4]
 3438 0032 5368     		ldr	r3, [r2, #4]
 3439 0034 23F40063 		bic	r3, r3, #2048
 3440 0038 5360     		str	r3, [r2, #4]
 406:Drivers/STM32F7xx_HAL_Driver/Src/stm32f7xx_hal_uart.c **** 
 3441              		.loc 1 406 0
 3442 003a 2268     		ldr	r2, [r4]
 3443 003c 9368     		ldr	r3, [r2, #8]
 3444 003e 23F02A03 		bic	r3, r3, #42
 3445 0042 9360     		str	r3, [r2, #8]
 409:Drivers/STM32F7xx_HAL_Driver/Src/stm32f7xx_hal_uart.c **** 
 3446              		.loc 1 409 0
 3447 0044 2268     		ldr	r2, [r4]
 3448 0046 5368     		ldr	r3, [r2, #4]
 3449 0048 43F48043 		orr	r3, r3, #16384
 3450 004c 5360     		str	r3, [r2, #4]
 412:Drivers/STM32F7xx_HAL_Driver/Src/stm32f7xx_hal_uart.c **** 
 3451              		.loc 1 412 0
 3452 004e 2268     		ldr	r2, [r4]
 3453 0050 5368     		ldr	r3, [r2, #4]
 3454 0052 23F02003 		bic	r3, r3, #32
 3455 0056 2B43     		orrs	r3, r3, r5
 3456 0058 5360     		str	r3, [r2, #4]
 415:Drivers/STM32F7xx_HAL_Driver/Src/stm32f7xx_hal_uart.c **** 
 3457              		.loc 1 415 0
 3458 005a 2268     		ldr	r2, [r4]
 3459 005c 1368     		ldr	r3, [r2]
 3460 005e 43F00103 		orr	r3, r3, #1
 3461 0062 1360     		str	r3, [r2]
 418:Drivers/STM32F7xx_HAL_Driver/Src/stm32f7xx_hal_uart.c **** }
 3462              		.loc 1 418 0
ARM GAS  C:\Users\Student\AppData\Local\Temp\cc4Wk4r8.s 			page 105


 3463 0064 2046     		mov	r0, r4
 3464 0066 FFF7FEFF 		bl	UART_CheckIdleState
 3465              	.LVL325:
 3466 006a 38BD     		pop	{r3, r4, r5, pc}
 3467              	.LVL326:
 3468              	.L334:
 380:Drivers/STM32F7xx_HAL_Driver/Src/stm32f7xx_hal_uart.c **** 
 3469              		.loc 1 380 0
 3470 006c 80F86830 		strb	r3, [r0, #104]
 383:Drivers/STM32F7xx_HAL_Driver/Src/stm32f7xx_hal_uart.c ****   }
 3471              		.loc 1 383 0
 3472 0070 FFF7FEFF 		bl	HAL_UART_MspInit
 3473              	.LVL327:
 3474 0074 CDE7     		b	.L327
 3475              	.L335:
 399:Drivers/STM32F7xx_HAL_Driver/Src/stm32f7xx_hal_uart.c ****   }
 3476              		.loc 1 399 0
 3477 0076 2046     		mov	r0, r4
 3478 0078 FFF7FEFF 		bl	UART_AdvFeatureConfig
 3479              	.LVL328:
 3480 007c D8E7     		b	.L328
 3481              	.LVL329:
 3482              	.L329:
 3483              	.LCFI35:
 3484              		.cfi_def_cfa_offset 0
 3485              		.cfi_restore 3
 3486              		.cfi_restore 4
 3487              		.cfi_restore 5
 3488              		.cfi_restore 14
 369:Drivers/STM32F7xx_HAL_Driver/Src/stm32f7xx_hal_uart.c ****   }
 3489              		.loc 1 369 0
 3490 007e 0120     		movs	r0, #1
 3491              	.LVL330:
 3492 0080 7047     		bx	lr
 3493              	.LVL331:
 3494              	.L326:
 3495              	.LCFI36:
 3496              		.cfi_def_cfa_offset 16
 3497              		.cfi_offset 3, -16
 3498              		.cfi_offset 4, -12
 3499              		.cfi_offset 5, -8
 3500              		.cfi_offset 14, -4
 419:Drivers/STM32F7xx_HAL_Driver/Src/stm32f7xx_hal_uart.c **** 
 3501              		.loc 1 419 0
 3502 0082 38BD     		pop	{r3, r4, r5, pc}
 3503              		.cfi_endproc
 3504              	.LFE138:
 3506              		.section	.text.HAL_MultiProcessor_Init,"ax",%progbits
 3507              		.align	1
 3508              		.global	HAL_MultiProcessor_Init
 3509              		.syntax unified
 3510              		.thumb
 3511              		.thumb_func
 3512              		.fpu fpv5-sp-d16
 3514              	HAL_MultiProcessor_Init:
 3515              	.LFB139:
 439:Drivers/STM32F7xx_HAL_Driver/Src/stm32f7xx_hal_uart.c ****   /* Check the UART handle allocation */
ARM GAS  C:\Users\Student\AppData\Local\Temp\cc4Wk4r8.s 			page 106


 3516              		.loc 1 439 0
 3517              		.cfi_startproc
 3518              		@ args = 0, pretend = 0, frame = 0
 3519              		@ frame_needed = 0, uses_anonymous_args = 0
 3520              	.LVL332:
 441:Drivers/STM32F7xx_HAL_Driver/Src/stm32f7xx_hal_uart.c ****   {
 3521              		.loc 1 441 0
 3522 0000 0028     		cmp	r0, #0
 3523 0002 42D0     		beq	.L341
 439:Drivers/STM32F7xx_HAL_Driver/Src/stm32f7xx_hal_uart.c ****   /* Check the UART handle allocation */
 3524              		.loc 1 439 0
 3525 0004 70B5     		push	{r4, r5, r6, lr}
 3526              	.LCFI37:
 3527              		.cfi_def_cfa_offset 16
 3528              		.cfi_offset 4, -16
 3529              		.cfi_offset 5, -12
 3530              		.cfi_offset 6, -8
 3531              		.cfi_offset 14, -4
 3532 0006 0446     		mov	r4, r0
 3533 0008 1546     		mov	r5, r2
 3534 000a 0E46     		mov	r6, r1
 449:Drivers/STM32F7xx_HAL_Driver/Src/stm32f7xx_hal_uart.c ****   {
 3535              		.loc 1 449 0
 3536 000c 90F86930 		ldrb	r3, [r0, #105]	@ zero_extendqisi2
 3537 0010 53B3     		cbz	r3, .L346
 3538              	.LVL333:
 3539              	.L338:
 458:Drivers/STM32F7xx_HAL_Driver/Src/stm32f7xx_hal_uart.c **** 
 3540              		.loc 1 458 0
 3541 0012 2423     		movs	r3, #36
 3542 0014 84F86930 		strb	r3, [r4, #105]
 461:Drivers/STM32F7xx_HAL_Driver/Src/stm32f7xx_hal_uart.c **** 
 3543              		.loc 1 461 0
 3544 0018 2268     		ldr	r2, [r4]
 3545 001a 1368     		ldr	r3, [r2]
 3546 001c 23F00103 		bic	r3, r3, #1
 3547 0020 1360     		str	r3, [r2]
 464:Drivers/STM32F7xx_HAL_Driver/Src/stm32f7xx_hal_uart.c ****   {
 3548              		.loc 1 464 0
 3549 0022 2046     		mov	r0, r4
 3550 0024 FFF7FEFF 		bl	UART_SetConfig
 3551              	.LVL334:
 3552 0028 0128     		cmp	r0, #1
 3553 002a 30D0     		beq	.L337
 469:Drivers/STM32F7xx_HAL_Driver/Src/stm32f7xx_hal_uart.c ****   {
 3554              		.loc 1 469 0
 3555 002c 636A     		ldr	r3, [r4, #36]
 3556 002e 03BB     		cbnz	r3, .L347
 3557              	.L339:
 477:Drivers/STM32F7xx_HAL_Driver/Src/stm32f7xx_hal_uart.c ****   CLEAR_BIT(huart->Instance->CR3, (USART_CR3_SCEN | USART_CR3_HDSEL | USART_CR3_IREN));
 3558              		.loc 1 477 0
 3559 0030 2268     		ldr	r2, [r4]
 3560 0032 5368     		ldr	r3, [r2, #4]
 3561 0034 23F49043 		bic	r3, r3, #18432
 3562 0038 5360     		str	r3, [r2, #4]
 478:Drivers/STM32F7xx_HAL_Driver/Src/stm32f7xx_hal_uart.c **** 
 3563              		.loc 1 478 0
ARM GAS  C:\Users\Student\AppData\Local\Temp\cc4Wk4r8.s 			page 107


 3564 003a 2268     		ldr	r2, [r4]
 3565 003c 9368     		ldr	r3, [r2, #8]
 3566 003e 23F02A03 		bic	r3, r3, #42
 3567 0042 9360     		str	r3, [r2, #8]
 480:Drivers/STM32F7xx_HAL_Driver/Src/stm32f7xx_hal_uart.c ****   {
 3568              		.loc 1 480 0
 3569 0044 B5F5006F 		cmp	r5, #2048
 3570 0048 17D0     		beq	.L348
 3571              	.L340:
 487:Drivers/STM32F7xx_HAL_Driver/Src/stm32f7xx_hal_uart.c **** 
 3572              		.loc 1 487 0
 3573 004a 2368     		ldr	r3, [r4]
 3574 004c 1A68     		ldr	r2, [r3]
 3575 004e 22F40062 		bic	r2, r2, #2048
 3576 0052 1543     		orrs	r5, r5, r2
 3577              	.LVL335:
 3578 0054 1D60     		str	r5, [r3]
 490:Drivers/STM32F7xx_HAL_Driver/Src/stm32f7xx_hal_uart.c **** 
 3579              		.loc 1 490 0
 3580 0056 2268     		ldr	r2, [r4]
 3581 0058 1368     		ldr	r3, [r2]
 3582 005a 43F00103 		orr	r3, r3, #1
 3583 005e 1360     		str	r3, [r2]
 493:Drivers/STM32F7xx_HAL_Driver/Src/stm32f7xx_hal_uart.c **** }
 3584              		.loc 1 493 0
 3585 0060 2046     		mov	r0, r4
 3586 0062 FFF7FEFF 		bl	UART_CheckIdleState
 3587              	.LVL336:
 3588 0066 70BD     		pop	{r4, r5, r6, pc}
 3589              	.LVL337:
 3590              	.L346:
 452:Drivers/STM32F7xx_HAL_Driver/Src/stm32f7xx_hal_uart.c **** 
 3591              		.loc 1 452 0
 3592 0068 80F86830 		strb	r3, [r0, #104]
 455:Drivers/STM32F7xx_HAL_Driver/Src/stm32f7xx_hal_uart.c ****   }
 3593              		.loc 1 455 0
 3594 006c FFF7FEFF 		bl	HAL_UART_MspInit
 3595              	.LVL338:
 3596 0070 CFE7     		b	.L338
 3597              	.L347:
 471:Drivers/STM32F7xx_HAL_Driver/Src/stm32f7xx_hal_uart.c ****   }
 3598              		.loc 1 471 0
 3599 0072 2046     		mov	r0, r4
 3600 0074 FFF7FEFF 		bl	UART_AdvFeatureConfig
 3601              	.LVL339:
 3602 0078 DAE7     		b	.L339
 3603              	.L348:
 483:Drivers/STM32F7xx_HAL_Driver/Src/stm32f7xx_hal_uart.c ****   }
 3604              		.loc 1 483 0
 3605 007a 2368     		ldr	r3, [r4]
 3606 007c 5968     		ldr	r1, [r3, #4]
 3607 007e 21F07F41 		bic	r1, r1, #-16777216
 3608 0082 41EA0666 		orr	r6, r1, r6, lsl #24
 3609 0086 5E60     		str	r6, [r3, #4]
 3610 0088 DFE7     		b	.L340
 3611              	.LVL340:
 3612              	.L341:
ARM GAS  C:\Users\Student\AppData\Local\Temp\cc4Wk4r8.s 			page 108


 3613              	.LCFI38:
 3614              		.cfi_def_cfa_offset 0
 3615              		.cfi_restore 4
 3616              		.cfi_restore 5
 3617              		.cfi_restore 6
 3618              		.cfi_restore 14
 443:Drivers/STM32F7xx_HAL_Driver/Src/stm32f7xx_hal_uart.c ****   }
 3619              		.loc 1 443 0
 3620 008a 0120     		movs	r0, #1
 3621              	.LVL341:
 3622 008c 7047     		bx	lr
 3623              	.LVL342:
 3624              	.L337:
 3625              	.LCFI39:
 3626              		.cfi_def_cfa_offset 16
 3627              		.cfi_offset 4, -16
 3628              		.cfi_offset 5, -12
 3629              		.cfi_offset 6, -8
 3630              		.cfi_offset 14, -4
 494:Drivers/STM32F7xx_HAL_Driver/Src/stm32f7xx_hal_uart.c **** 
 3631              		.loc 1 494 0
 3632 008e 70BD     		pop	{r4, r5, r6, pc}
 3633              		.cfi_endproc
 3634              	.LFE139:
 3636              		.section	.text.HAL_RS485Ex_Init,"ax",%progbits
 3637              		.align	1
 3638              		.global	HAL_RS485Ex_Init
 3639              		.syntax unified
 3640              		.thumb
 3641              		.thumb_func
 3642              		.fpu fpv5-sp-d16
 3644              	HAL_RS485Ex_Init:
 3645              	.LFB140:
 517:Drivers/STM32F7xx_HAL_Driver/Src/stm32f7xx_hal_uart.c ****   uint32_t temp = 0x0;
 3646              		.loc 1 517 0
 3647              		.cfi_startproc
 3648              		@ args = 0, pretend = 0, frame = 0
 3649              		@ frame_needed = 0, uses_anonymous_args = 0
 3650              	.LVL343:
 521:Drivers/STM32F7xx_HAL_Driver/Src/stm32f7xx_hal_uart.c ****   {
 3651              		.loc 1 521 0
 3652 0000 0028     		cmp	r0, #0
 3653 0002 3CD0     		beq	.L353
 517:Drivers/STM32F7xx_HAL_Driver/Src/stm32f7xx_hal_uart.c ****   uint32_t temp = 0x0;
 3654              		.loc 1 517 0
 3655 0004 F8B5     		push	{r3, r4, r5, r6, r7, lr}
 3656              	.LCFI40:
 3657              		.cfi_def_cfa_offset 24
 3658              		.cfi_offset 3, -24
 3659              		.cfi_offset 4, -20
 3660              		.cfi_offset 5, -16
 3661              		.cfi_offset 6, -12
 3662              		.cfi_offset 7, -8
 3663              		.cfi_offset 14, -4
 3664 0006 0446     		mov	r4, r0
 3665 0008 1D46     		mov	r5, r3
 3666 000a 1646     		mov	r6, r2
ARM GAS  C:\Users\Student\AppData\Local\Temp\cc4Wk4r8.s 			page 109


 3667 000c 0F46     		mov	r7, r1
 537:Drivers/STM32F7xx_HAL_Driver/Src/stm32f7xx_hal_uart.c ****   {
 3668              		.loc 1 537 0
 3669 000e 90F86930 		ldrb	r3, [r0, #105]	@ zero_extendqisi2
 3670              	.LVL344:
 3671 0012 5BB3     		cbz	r3, .L358
 3672              	.LVL345:
 3673              	.L351:
 546:Drivers/STM32F7xx_HAL_Driver/Src/stm32f7xx_hal_uart.c **** 
 3674              		.loc 1 546 0
 3675 0014 2423     		movs	r3, #36
 3676 0016 84F86930 		strb	r3, [r4, #105]
 549:Drivers/STM32F7xx_HAL_Driver/Src/stm32f7xx_hal_uart.c **** 
 3677              		.loc 1 549 0
 3678 001a 2268     		ldr	r2, [r4]
 3679 001c 1368     		ldr	r3, [r2]
 3680 001e 23F00103 		bic	r3, r3, #1
 3681 0022 1360     		str	r3, [r2]
 552:Drivers/STM32F7xx_HAL_Driver/Src/stm32f7xx_hal_uart.c ****   {
 3682              		.loc 1 552 0
 3683 0024 2046     		mov	r0, r4
 3684 0026 FFF7FEFF 		bl	UART_SetConfig
 3685              	.LVL346:
 3686 002a 0128     		cmp	r0, #1
 3687 002c 29D0     		beq	.L350
 557:Drivers/STM32F7xx_HAL_Driver/Src/stm32f7xx_hal_uart.c ****   {
 3688              		.loc 1 557 0
 3689 002e 636A     		ldr	r3, [r4, #36]
 3690 0030 0BBB     		cbnz	r3, .L359
 3691              	.L352:
 563:Drivers/STM32F7xx_HAL_Driver/Src/stm32f7xx_hal_uart.c **** 
 3692              		.loc 1 563 0
 3693 0032 2268     		ldr	r2, [r4]
 3694 0034 9368     		ldr	r3, [r2, #8]
 3695 0036 43F48043 		orr	r3, r3, #16384
 3696 003a 9360     		str	r3, [r2, #8]
 566:Drivers/STM32F7xx_HAL_Driver/Src/stm32f7xx_hal_uart.c **** 
 3697              		.loc 1 566 0
 3698 003c 2268     		ldr	r2, [r4]
 3699 003e 9368     		ldr	r3, [r2, #8]
 3700 0040 23F40043 		bic	r3, r3, #32768
 3701 0044 3B43     		orrs	r3, r3, r7
 3702 0046 9360     		str	r3, [r2, #8]
 3703              	.LVL347:
 570:Drivers/STM32F7xx_HAL_Driver/Src/stm32f7xx_hal_uart.c ****   MODIFY_REG(huart->Instance->CR1, (USART_CR1_DEDT|USART_CR1_DEAT), temp);
 3704              		.loc 1 570 0
 3705 0048 2D04     		lsls	r5, r5, #16
 3706              	.LVL348:
 3707 004a 45EA4655 		orr	r5, r5, r6, lsl #21
 3708              	.LVL349:
 571:Drivers/STM32F7xx_HAL_Driver/Src/stm32f7xx_hal_uart.c **** 
 3709              		.loc 1 571 0
 3710 004e 2368     		ldr	r3, [r4]
 3711 0050 1968     		ldr	r1, [r3]
 3712 0052 0C4A     		ldr	r2, .L360
 3713 0054 0A40     		ands	r2, r2, r1
 3714 0056 1543     		orrs	r5, r5, r2
ARM GAS  C:\Users\Student\AppData\Local\Temp\cc4Wk4r8.s 			page 110


 3715              	.LVL350:
 3716 0058 1D60     		str	r5, [r3]
 574:Drivers/STM32F7xx_HAL_Driver/Src/stm32f7xx_hal_uart.c **** 
 3717              		.loc 1 574 0
 3718 005a 2268     		ldr	r2, [r4]
 3719 005c 1368     		ldr	r3, [r2]
 3720 005e 43F00103 		orr	r3, r3, #1
 3721 0062 1360     		str	r3, [r2]
 577:Drivers/STM32F7xx_HAL_Driver/Src/stm32f7xx_hal_uart.c **** }
 3722              		.loc 1 577 0
 3723 0064 2046     		mov	r0, r4
 3724 0066 FFF7FEFF 		bl	UART_CheckIdleState
 3725              	.LVL351:
 3726 006a F8BD     		pop	{r3, r4, r5, r6, r7, pc}
 3727              	.LVL352:
 3728              	.L358:
 540:Drivers/STM32F7xx_HAL_Driver/Src/stm32f7xx_hal_uart.c **** 
 3729              		.loc 1 540 0
 3730 006c 80F86830 		strb	r3, [r0, #104]
 543:Drivers/STM32F7xx_HAL_Driver/Src/stm32f7xx_hal_uart.c ****   }
 3731              		.loc 1 543 0
 3732 0070 FFF7FEFF 		bl	HAL_UART_MspInit
 3733              	.LVL353:
 3734 0074 CEE7     		b	.L351
 3735              	.L359:
 559:Drivers/STM32F7xx_HAL_Driver/Src/stm32f7xx_hal_uart.c ****   }
 3736              		.loc 1 559 0
 3737 0076 2046     		mov	r0, r4
 3738 0078 FFF7FEFF 		bl	UART_AdvFeatureConfig
 3739              	.LVL354:
 3740 007c D9E7     		b	.L352
 3741              	.LVL355:
 3742              	.L353:
 3743              	.LCFI41:
 3744              		.cfi_def_cfa_offset 0
 3745              		.cfi_restore 3
 3746              		.cfi_restore 4
 3747              		.cfi_restore 5
 3748              		.cfi_restore 6
 3749              		.cfi_restore 7
 3750              		.cfi_restore 14
 523:Drivers/STM32F7xx_HAL_Driver/Src/stm32f7xx_hal_uart.c ****   }
 3751              		.loc 1 523 0
 3752 007e 0120     		movs	r0, #1
 3753              	.LVL356:
 3754 0080 7047     		bx	lr
 3755              	.LVL357:
 3756              	.L350:
 3757              	.LCFI42:
 3758              		.cfi_def_cfa_offset 24
 3759              		.cfi_offset 3, -24
 3760              		.cfi_offset 4, -20
 3761              		.cfi_offset 5, -16
 3762              		.cfi_offset 6, -12
 3763              		.cfi_offset 7, -8
 3764              		.cfi_offset 14, -4
 578:Drivers/STM32F7xx_HAL_Driver/Src/stm32f7xx_hal_uart.c **** 
ARM GAS  C:\Users\Student\AppData\Local\Temp\cc4Wk4r8.s 			page 111


 3765              		.loc 1 578 0
 3766 0082 F8BD     		pop	{r3, r4, r5, r6, r7, pc}
 3767              	.LVL358:
 3768              	.L361:
 3769              		.align	2
 3770              	.L360:
 3771 0084 FFFF00FC 		.word	-67043329
 3772              		.cfi_endproc
 3773              	.LFE140:
 3775              		.section	.text.HAL_MultiProcessor_EnableMuteMode,"ax",%progbits
 3776              		.align	1
 3777              		.global	HAL_MultiProcessor_EnableMuteMode
 3778              		.syntax unified
 3779              		.thumb
 3780              		.thumb_func
 3781              		.fpu fpv5-sp-d16
 3783              	HAL_MultiProcessor_EnableMuteMode:
 3784              	.LFB171:
1747:Drivers/STM32F7xx_HAL_Driver/Src/stm32f7xx_hal_uart.c ****   /* Process Locked */
 3785              		.loc 1 1747 0
 3786              		.cfi_startproc
 3787              		@ args = 0, pretend = 0, frame = 0
 3788              		@ frame_needed = 0, uses_anonymous_args = 0
 3789              	.LVL359:
 3790 0000 08B5     		push	{r3, lr}
 3791              	.LCFI43:
 3792              		.cfi_def_cfa_offset 8
 3793              		.cfi_offset 3, -8
 3794              		.cfi_offset 14, -4
1749:Drivers/STM32F7xx_HAL_Driver/Src/stm32f7xx_hal_uart.c **** 
 3795              		.loc 1 1749 0
 3796 0002 90F86830 		ldrb	r3, [r0, #104]	@ zero_extendqisi2
 3797 0006 012B     		cmp	r3, #1
 3798 0008 01D1     		bne	.L366
 3799 000a 0220     		movs	r0, #2
 3800              	.LVL360:
1759:Drivers/STM32F7xx_HAL_Driver/Src/stm32f7xx_hal_uart.c **** 
 3801              		.loc 1 1759 0
 3802 000c 08BD     		pop	{r3, pc}
 3803              	.LVL361:
 3804              	.L366:
1749:Drivers/STM32F7xx_HAL_Driver/Src/stm32f7xx_hal_uart.c **** 
 3805              		.loc 1 1749 0 discriminator 2
 3806 000e 0123     		movs	r3, #1
 3807 0010 80F86830 		strb	r3, [r0, #104]
1751:Drivers/STM32F7xx_HAL_Driver/Src/stm32f7xx_hal_uart.c **** 
 3808              		.loc 1 1751 0 discriminator 2
 3809 0014 2423     		movs	r3, #36
 3810 0016 80F86930 		strb	r3, [r0, #105]
1754:Drivers/STM32F7xx_HAL_Driver/Src/stm32f7xx_hal_uart.c **** 
 3811              		.loc 1 1754 0 discriminator 2
 3812 001a 0268     		ldr	r2, [r0]
 3813 001c 1368     		ldr	r3, [r2]
 3814 001e 43F40053 		orr	r3, r3, #8192
 3815 0022 1360     		str	r3, [r2]
1756:Drivers/STM32F7xx_HAL_Driver/Src/stm32f7xx_hal_uart.c **** 
 3816              		.loc 1 1756 0 discriminator 2
ARM GAS  C:\Users\Student\AppData\Local\Temp\cc4Wk4r8.s 			page 112


 3817 0024 2023     		movs	r3, #32
 3818 0026 80F86930 		strb	r3, [r0, #105]
1758:Drivers/STM32F7xx_HAL_Driver/Src/stm32f7xx_hal_uart.c **** }
 3819              		.loc 1 1758 0 discriminator 2
 3820 002a FFF7FEFF 		bl	UART_CheckIdleState
 3821              	.LVL362:
 3822 002e 08BD     		pop	{r3, pc}
 3823              		.cfi_endproc
 3824              	.LFE171:
 3826              		.section	.text.HAL_MultiProcessor_DisableMuteMode,"ax",%progbits
 3827              		.align	1
 3828              		.global	HAL_MultiProcessor_DisableMuteMode
 3829              		.syntax unified
 3830              		.thumb
 3831              		.thumb_func
 3832              		.fpu fpv5-sp-d16
 3834              	HAL_MultiProcessor_DisableMuteMode:
 3835              	.LFB172:
1768:Drivers/STM32F7xx_HAL_Driver/Src/stm32f7xx_hal_uart.c ****   /* Process Locked */
 3836              		.loc 1 1768 0
 3837              		.cfi_startproc
 3838              		@ args = 0, pretend = 0, frame = 0
 3839              		@ frame_needed = 0, uses_anonymous_args = 0
 3840              	.LVL363:
 3841 0000 08B5     		push	{r3, lr}
 3842              	.LCFI44:
 3843              		.cfi_def_cfa_offset 8
 3844              		.cfi_offset 3, -8
 3845              		.cfi_offset 14, -4
1770:Drivers/STM32F7xx_HAL_Driver/Src/stm32f7xx_hal_uart.c **** 
 3846              		.loc 1 1770 0
 3847 0002 90F86830 		ldrb	r3, [r0, #104]	@ zero_extendqisi2
 3848 0006 012B     		cmp	r3, #1
 3849 0008 01D1     		bne	.L371
 3850 000a 0220     		movs	r0, #2
 3851              	.LVL364:
1780:Drivers/STM32F7xx_HAL_Driver/Src/stm32f7xx_hal_uart.c **** 
 3852              		.loc 1 1780 0
 3853 000c 08BD     		pop	{r3, pc}
 3854              	.LVL365:
 3855              	.L371:
1770:Drivers/STM32F7xx_HAL_Driver/Src/stm32f7xx_hal_uart.c **** 
 3856              		.loc 1 1770 0 discriminator 2
 3857 000e 0123     		movs	r3, #1
 3858 0010 80F86830 		strb	r3, [r0, #104]
1772:Drivers/STM32F7xx_HAL_Driver/Src/stm32f7xx_hal_uart.c **** 
 3859              		.loc 1 1772 0 discriminator 2
 3860 0014 2423     		movs	r3, #36
 3861 0016 80F86930 		strb	r3, [r0, #105]
1775:Drivers/STM32F7xx_HAL_Driver/Src/stm32f7xx_hal_uart.c **** 
 3862              		.loc 1 1775 0 discriminator 2
 3863 001a 0268     		ldr	r2, [r0]
 3864 001c 1368     		ldr	r3, [r2]
 3865 001e 23F40053 		bic	r3, r3, #8192
 3866 0022 1360     		str	r3, [r2]
1777:Drivers/STM32F7xx_HAL_Driver/Src/stm32f7xx_hal_uart.c **** 
 3867              		.loc 1 1777 0 discriminator 2
ARM GAS  C:\Users\Student\AppData\Local\Temp\cc4Wk4r8.s 			page 113


 3868 0024 2023     		movs	r3, #32
 3869 0026 80F86930 		strb	r3, [r0, #105]
1779:Drivers/STM32F7xx_HAL_Driver/Src/stm32f7xx_hal_uart.c **** }
 3870              		.loc 1 1779 0 discriminator 2
 3871 002a FFF7FEFF 		bl	UART_CheckIdleState
 3872              	.LVL366:
 3873 002e 08BD     		pop	{r3, pc}
 3874              		.cfi_endproc
 3875              	.LFE172:
 3877              		.section	.text.HAL_HalfDuplex_EnableTransmitter,"ax",%progbits
 3878              		.align	1
 3879              		.global	HAL_HalfDuplex_EnableTransmitter
 3880              		.syntax unified
 3881              		.thumb
 3882              		.thumb_func
 3883              		.fpu fpv5-sp-d16
 3885              	HAL_HalfDuplex_EnableTransmitter:
 3886              	.LFB179:
2041:Drivers/STM32F7xx_HAL_Driver/Src/stm32f7xx_hal_uart.c **** 
2042:Drivers/STM32F7xx_HAL_Driver/Src/stm32f7xx_hal_uart.c **** /**
2043:Drivers/STM32F7xx_HAL_Driver/Src/stm32f7xx_hal_uart.c ****   * @brief  Enables the UART transmitter and disables the UART receiver.
2044:Drivers/STM32F7xx_HAL_Driver/Src/stm32f7xx_hal_uart.c ****   * @param  huart UART handle
2045:Drivers/STM32F7xx_HAL_Driver/Src/stm32f7xx_hal_uart.c ****   * @retval HAL status
2046:Drivers/STM32F7xx_HAL_Driver/Src/stm32f7xx_hal_uart.c ****   * @retval None
2047:Drivers/STM32F7xx_HAL_Driver/Src/stm32f7xx_hal_uart.c ****   */
2048:Drivers/STM32F7xx_HAL_Driver/Src/stm32f7xx_hal_uart.c **** HAL_StatusTypeDef HAL_HalfDuplex_EnableTransmitter(UART_HandleTypeDef *huart)
2049:Drivers/STM32F7xx_HAL_Driver/Src/stm32f7xx_hal_uart.c **** {
 3887              		.loc 1 2049 0
 3888              		.cfi_startproc
 3889              		@ args = 0, pretend = 0, frame = 0
 3890              		@ frame_needed = 0, uses_anonymous_args = 0
 3891              		@ link register save eliminated.
 3892              	.LVL367:
2050:Drivers/STM32F7xx_HAL_Driver/Src/stm32f7xx_hal_uart.c ****   /* Process Locked */
2051:Drivers/STM32F7xx_HAL_Driver/Src/stm32f7xx_hal_uart.c ****   __HAL_LOCK(huart);
 3893              		.loc 1 2051 0
 3894 0000 90F86830 		ldrb	r3, [r0, #104]	@ zero_extendqisi2
 3895 0004 012B     		cmp	r3, #1
 3896 0006 17D0     		beq	.L374
 3897              		.loc 1 2051 0 is_stmt 0 discriminator 2
 3898 0008 0123     		movs	r3, #1
 3899 000a 80F86830 		strb	r3, [r0, #104]
2052:Drivers/STM32F7xx_HAL_Driver/Src/stm32f7xx_hal_uart.c ****   huart->gState = HAL_UART_STATE_BUSY;
 3900              		.loc 1 2052 0 is_stmt 1 discriminator 2
 3901 000e 2423     		movs	r3, #36
 3902 0010 80F86930 		strb	r3, [r0, #105]
2053:Drivers/STM32F7xx_HAL_Driver/Src/stm32f7xx_hal_uart.c **** 
2054:Drivers/STM32F7xx_HAL_Driver/Src/stm32f7xx_hal_uart.c ****   /* Clear TE and RE bits */
2055:Drivers/STM32F7xx_HAL_Driver/Src/stm32f7xx_hal_uart.c ****   CLEAR_BIT(huart->Instance->CR1, (USART_CR1_TE | USART_CR1_RE));
 3903              		.loc 1 2055 0 discriminator 2
 3904 0014 0268     		ldr	r2, [r0]
 3905 0016 1368     		ldr	r3, [r2]
 3906 0018 23F00C03 		bic	r3, r3, #12
 3907 001c 1360     		str	r3, [r2]
2056:Drivers/STM32F7xx_HAL_Driver/Src/stm32f7xx_hal_uart.c ****   /* Enable the USART's transmit interface by setting the TE bit in the USART CR1 register */
2057:Drivers/STM32F7xx_HAL_Driver/Src/stm32f7xx_hal_uart.c ****   SET_BIT(huart->Instance->CR1, USART_CR1_TE);
 3908              		.loc 1 2057 0 discriminator 2
ARM GAS  C:\Users\Student\AppData\Local\Temp\cc4Wk4r8.s 			page 114


 3909 001e 0268     		ldr	r2, [r0]
 3910 0020 1368     		ldr	r3, [r2]
 3911 0022 43F00803 		orr	r3, r3, #8
 3912 0026 1360     		str	r3, [r2]
2058:Drivers/STM32F7xx_HAL_Driver/Src/stm32f7xx_hal_uart.c **** 
2059:Drivers/STM32F7xx_HAL_Driver/Src/stm32f7xx_hal_uart.c ****   huart->gState= HAL_UART_STATE_READY;
 3913              		.loc 1 2059 0 discriminator 2
 3914 0028 2023     		movs	r3, #32
 3915 002a 80F86930 		strb	r3, [r0, #105]
2060:Drivers/STM32F7xx_HAL_Driver/Src/stm32f7xx_hal_uart.c ****   /* Process Unlocked */
2061:Drivers/STM32F7xx_HAL_Driver/Src/stm32f7xx_hal_uart.c ****   __HAL_UNLOCK(huart);
 3916              		.loc 1 2061 0 discriminator 2
 3917 002e 0023     		movs	r3, #0
 3918 0030 80F86830 		strb	r3, [r0, #104]
2062:Drivers/STM32F7xx_HAL_Driver/Src/stm32f7xx_hal_uart.c **** 
2063:Drivers/STM32F7xx_HAL_Driver/Src/stm32f7xx_hal_uart.c ****   return HAL_OK;
 3919              		.loc 1 2063 0 discriminator 2
 3920 0034 1846     		mov	r0, r3
 3921              	.LVL368:
 3922 0036 7047     		bx	lr
 3923              	.LVL369:
 3924              	.L374:
2051:Drivers/STM32F7xx_HAL_Driver/Src/stm32f7xx_hal_uart.c ****   huart->gState = HAL_UART_STATE_BUSY;
 3925              		.loc 1 2051 0
 3926 0038 0220     		movs	r0, #2
 3927              	.LVL370:
2064:Drivers/STM32F7xx_HAL_Driver/Src/stm32f7xx_hal_uart.c **** }
 3928              		.loc 1 2064 0
 3929 003a 7047     		bx	lr
 3930              		.cfi_endproc
 3931              	.LFE179:
 3933              		.section	.text.HAL_HalfDuplex_EnableReceiver,"ax",%progbits
 3934              		.align	1
 3935              		.global	HAL_HalfDuplex_EnableReceiver
 3936              		.syntax unified
 3937              		.thumb
 3938              		.thumb_func
 3939              		.fpu fpv5-sp-d16
 3941              	HAL_HalfDuplex_EnableReceiver:
 3942              	.LFB180:
2065:Drivers/STM32F7xx_HAL_Driver/Src/stm32f7xx_hal_uart.c **** 
2066:Drivers/STM32F7xx_HAL_Driver/Src/stm32f7xx_hal_uart.c **** /**
2067:Drivers/STM32F7xx_HAL_Driver/Src/stm32f7xx_hal_uart.c ****   * @brief  Enables the UART receiver and disables the UART transmitter.
2068:Drivers/STM32F7xx_HAL_Driver/Src/stm32f7xx_hal_uart.c ****   * @param  huart UART handle
2069:Drivers/STM32F7xx_HAL_Driver/Src/stm32f7xx_hal_uart.c ****   * @retval HAL status
2070:Drivers/STM32F7xx_HAL_Driver/Src/stm32f7xx_hal_uart.c ****   */
2071:Drivers/STM32F7xx_HAL_Driver/Src/stm32f7xx_hal_uart.c **** HAL_StatusTypeDef HAL_HalfDuplex_EnableReceiver(UART_HandleTypeDef *huart)
2072:Drivers/STM32F7xx_HAL_Driver/Src/stm32f7xx_hal_uart.c **** {
 3943              		.loc 1 2072 0
 3944              		.cfi_startproc
 3945              		@ args = 0, pretend = 0, frame = 0
 3946              		@ frame_needed = 0, uses_anonymous_args = 0
 3947              		@ link register save eliminated.
 3948              	.LVL371:
2073:Drivers/STM32F7xx_HAL_Driver/Src/stm32f7xx_hal_uart.c ****   /* Process Locked */
2074:Drivers/STM32F7xx_HAL_Driver/Src/stm32f7xx_hal_uart.c ****   __HAL_LOCK(huart);
 3949              		.loc 1 2074 0
ARM GAS  C:\Users\Student\AppData\Local\Temp\cc4Wk4r8.s 			page 115


 3950 0000 90F86830 		ldrb	r3, [r0, #104]	@ zero_extendqisi2
 3951 0004 012B     		cmp	r3, #1
 3952 0006 17D0     		beq	.L377
 3953              		.loc 1 2074 0 is_stmt 0 discriminator 2
 3954 0008 0123     		movs	r3, #1
 3955 000a 80F86830 		strb	r3, [r0, #104]
2075:Drivers/STM32F7xx_HAL_Driver/Src/stm32f7xx_hal_uart.c ****   huart->gState = HAL_UART_STATE_BUSY;
 3956              		.loc 1 2075 0 is_stmt 1 discriminator 2
 3957 000e 2423     		movs	r3, #36
 3958 0010 80F86930 		strb	r3, [r0, #105]
2076:Drivers/STM32F7xx_HAL_Driver/Src/stm32f7xx_hal_uart.c **** 
2077:Drivers/STM32F7xx_HAL_Driver/Src/stm32f7xx_hal_uart.c ****   /* Clear TE and RE bits */
2078:Drivers/STM32F7xx_HAL_Driver/Src/stm32f7xx_hal_uart.c ****   CLEAR_BIT(huart->Instance->CR1, (USART_CR1_TE | USART_CR1_RE));
 3959              		.loc 1 2078 0 discriminator 2
 3960 0014 0268     		ldr	r2, [r0]
 3961 0016 1368     		ldr	r3, [r2]
 3962 0018 23F00C03 		bic	r3, r3, #12
 3963 001c 1360     		str	r3, [r2]
2079:Drivers/STM32F7xx_HAL_Driver/Src/stm32f7xx_hal_uart.c ****   /* Enable the USART's receive interface by setting the RE bit in the USART CR1 register */
2080:Drivers/STM32F7xx_HAL_Driver/Src/stm32f7xx_hal_uart.c ****   SET_BIT(huart->Instance->CR1, USART_CR1_RE);
 3964              		.loc 1 2080 0 discriminator 2
 3965 001e 0268     		ldr	r2, [r0]
 3966 0020 1368     		ldr	r3, [r2]
 3967 0022 43F00403 		orr	r3, r3, #4
 3968 0026 1360     		str	r3, [r2]
2081:Drivers/STM32F7xx_HAL_Driver/Src/stm32f7xx_hal_uart.c **** 
2082:Drivers/STM32F7xx_HAL_Driver/Src/stm32f7xx_hal_uart.c ****   huart->gState = HAL_UART_STATE_READY;
 3969              		.loc 1 2082 0 discriminator 2
 3970 0028 2023     		movs	r3, #32
 3971 002a 80F86930 		strb	r3, [r0, #105]
2083:Drivers/STM32F7xx_HAL_Driver/Src/stm32f7xx_hal_uart.c ****   /* Process Unlocked */
2084:Drivers/STM32F7xx_HAL_Driver/Src/stm32f7xx_hal_uart.c ****   __HAL_UNLOCK(huart);
 3972              		.loc 1 2084 0 discriminator 2
 3973 002e 0023     		movs	r3, #0
 3974 0030 80F86830 		strb	r3, [r0, #104]
2085:Drivers/STM32F7xx_HAL_Driver/Src/stm32f7xx_hal_uart.c **** 
2086:Drivers/STM32F7xx_HAL_Driver/Src/stm32f7xx_hal_uart.c ****   return HAL_OK;
 3975              		.loc 1 2086 0 discriminator 2
 3976 0034 1846     		mov	r0, r3
 3977              	.LVL372:
 3978 0036 7047     		bx	lr
 3979              	.LVL373:
 3980              	.L377:
2074:Drivers/STM32F7xx_HAL_Driver/Src/stm32f7xx_hal_uart.c ****   huart->gState = HAL_UART_STATE_BUSY;
 3981              		.loc 1 2074 0
 3982 0038 0220     		movs	r0, #2
 3983              	.LVL374:
2087:Drivers/STM32F7xx_HAL_Driver/Src/stm32f7xx_hal_uart.c **** }
 3984              		.loc 1 2087 0
 3985 003a 7047     		bx	lr
 3986              		.cfi_endproc
 3987              	.LFE180:
 3989              		.section	.text.HAL_LIN_SendBreak,"ax",%progbits
 3990              		.align	1
 3991              		.global	HAL_LIN_SendBreak
 3992              		.syntax unified
 3993              		.thumb
ARM GAS  C:\Users\Student\AppData\Local\Temp\cc4Wk4r8.s 			page 116


 3994              		.thumb_func
 3995              		.fpu fpv5-sp-d16
 3997              	HAL_LIN_SendBreak:
 3998              	.LFB181:
2088:Drivers/STM32F7xx_HAL_Driver/Src/stm32f7xx_hal_uart.c **** 
2089:Drivers/STM32F7xx_HAL_Driver/Src/stm32f7xx_hal_uart.c **** 
2090:Drivers/STM32F7xx_HAL_Driver/Src/stm32f7xx_hal_uart.c **** /**
2091:Drivers/STM32F7xx_HAL_Driver/Src/stm32f7xx_hal_uart.c ****   * @brief  Transmits break characters.
2092:Drivers/STM32F7xx_HAL_Driver/Src/stm32f7xx_hal_uart.c ****   * @param  huart UART handle
2093:Drivers/STM32F7xx_HAL_Driver/Src/stm32f7xx_hal_uart.c ****   * @retval HAL status
2094:Drivers/STM32F7xx_HAL_Driver/Src/stm32f7xx_hal_uart.c ****   */
2095:Drivers/STM32F7xx_HAL_Driver/Src/stm32f7xx_hal_uart.c **** HAL_StatusTypeDef HAL_LIN_SendBreak(UART_HandleTypeDef *huart)
2096:Drivers/STM32F7xx_HAL_Driver/Src/stm32f7xx_hal_uart.c **** {
 3999              		.loc 1 2096 0
 4000              		.cfi_startproc
 4001              		@ args = 0, pretend = 0, frame = 0
 4002              		@ frame_needed = 0, uses_anonymous_args = 0
 4003              		@ link register save eliminated.
 4004              	.LVL375:
2097:Drivers/STM32F7xx_HAL_Driver/Src/stm32f7xx_hal_uart.c ****   /* Check the parameters */
2098:Drivers/STM32F7xx_HAL_Driver/Src/stm32f7xx_hal_uart.c ****   assert_param(IS_UART_INSTANCE(huart->Instance));
2099:Drivers/STM32F7xx_HAL_Driver/Src/stm32f7xx_hal_uart.c **** 
2100:Drivers/STM32F7xx_HAL_Driver/Src/stm32f7xx_hal_uart.c ****   /* Process Locked */
2101:Drivers/STM32F7xx_HAL_Driver/Src/stm32f7xx_hal_uart.c ****   __HAL_LOCK(huart);
 4005              		.loc 1 2101 0
 4006 0000 90F86830 		ldrb	r3, [r0, #104]	@ zero_extendqisi2
 4007 0004 012B     		cmp	r3, #1
 4008 0006 12D0     		beq	.L380
 4009              		.loc 1 2101 0 is_stmt 0 discriminator 2
 4010 0008 0123     		movs	r3, #1
 4011 000a 80F86830 		strb	r3, [r0, #104]
2102:Drivers/STM32F7xx_HAL_Driver/Src/stm32f7xx_hal_uart.c **** 
2103:Drivers/STM32F7xx_HAL_Driver/Src/stm32f7xx_hal_uart.c ****   huart->gState = HAL_UART_STATE_BUSY;
 4012              		.loc 1 2103 0 is_stmt 1 discriminator 2
 4013 000e 2423     		movs	r3, #36
 4014 0010 80F86930 		strb	r3, [r0, #105]
2104:Drivers/STM32F7xx_HAL_Driver/Src/stm32f7xx_hal_uart.c **** 
2105:Drivers/STM32F7xx_HAL_Driver/Src/stm32f7xx_hal_uart.c ****   /* Send break characters */
2106:Drivers/STM32F7xx_HAL_Driver/Src/stm32f7xx_hal_uart.c ****   SET_BIT(huart->Instance->RQR, UART_SENDBREAK_REQUEST);
 4015              		.loc 1 2106 0 discriminator 2
 4016 0014 0268     		ldr	r2, [r0]
 4017 0016 9369     		ldr	r3, [r2, #24]
 4018 0018 43F00203 		orr	r3, r3, #2
 4019 001c 9361     		str	r3, [r2, #24]
2107:Drivers/STM32F7xx_HAL_Driver/Src/stm32f7xx_hal_uart.c **** 
2108:Drivers/STM32F7xx_HAL_Driver/Src/stm32f7xx_hal_uart.c ****   huart->gState = HAL_UART_STATE_READY;
 4020              		.loc 1 2108 0 discriminator 2
 4021 001e 2023     		movs	r3, #32
 4022 0020 80F86930 		strb	r3, [r0, #105]
2109:Drivers/STM32F7xx_HAL_Driver/Src/stm32f7xx_hal_uart.c **** 
2110:Drivers/STM32F7xx_HAL_Driver/Src/stm32f7xx_hal_uart.c ****   /* Process Unlocked */
2111:Drivers/STM32F7xx_HAL_Driver/Src/stm32f7xx_hal_uart.c ****   __HAL_UNLOCK(huart);
 4023              		.loc 1 2111 0 discriminator 2
 4024 0024 0023     		movs	r3, #0
 4025 0026 80F86830 		strb	r3, [r0, #104]
2112:Drivers/STM32F7xx_HAL_Driver/Src/stm32f7xx_hal_uart.c **** 
2113:Drivers/STM32F7xx_HAL_Driver/Src/stm32f7xx_hal_uart.c ****   return HAL_OK;
ARM GAS  C:\Users\Student\AppData\Local\Temp\cc4Wk4r8.s 			page 117


 4026              		.loc 1 2113 0 discriminator 2
 4027 002a 1846     		mov	r0, r3
 4028              	.LVL376:
 4029 002c 7047     		bx	lr
 4030              	.LVL377:
 4031              	.L380:
2101:Drivers/STM32F7xx_HAL_Driver/Src/stm32f7xx_hal_uart.c **** 
 4032              		.loc 1 2101 0
 4033 002e 0220     		movs	r0, #2
 4034              	.LVL378:
2114:Drivers/STM32F7xx_HAL_Driver/Src/stm32f7xx_hal_uart.c **** }
 4035              		.loc 1 2114 0
 4036 0030 7047     		bx	lr
 4037              		.cfi_endproc
 4038              	.LFE181:
 4040              		.section	.text.HAL_MultiProcessorEx_AddressLength_Set,"ax",%progbits
 4041              		.align	1
 4042              		.global	HAL_MultiProcessorEx_AddressLength_Set
 4043              		.syntax unified
 4044              		.thumb
 4045              		.thumb_func
 4046              		.fpu fpv5-sp-d16
 4048              	HAL_MultiProcessorEx_AddressLength_Set:
 4049              	.LFB182:
2115:Drivers/STM32F7xx_HAL_Driver/Src/stm32f7xx_hal_uart.c **** 
2116:Drivers/STM32F7xx_HAL_Driver/Src/stm32f7xx_hal_uart.c **** /**
2117:Drivers/STM32F7xx_HAL_Driver/Src/stm32f7xx_hal_uart.c ****   * @brief By default in multiprocessor mode, when the wake up method is set
2118:Drivers/STM32F7xx_HAL_Driver/Src/stm32f7xx_hal_uart.c ****   *        to address mark, the UART handles only 4-bit long addresses detection;
2119:Drivers/STM32F7xx_HAL_Driver/Src/stm32f7xx_hal_uart.c ****   *        this API allows to enable longer addresses detection (6-, 7- or 8-bit
2120:Drivers/STM32F7xx_HAL_Driver/Src/stm32f7xx_hal_uart.c ****   *        long).
2121:Drivers/STM32F7xx_HAL_Driver/Src/stm32f7xx_hal_uart.c ****   * @note  Addresses detection lengths are: 6-bit address detection in 7-bit data mode,
2122:Drivers/STM32F7xx_HAL_Driver/Src/stm32f7xx_hal_uart.c ****   *        7-bit address detection in 8-bit data mode, 8-bit address detection in 9-bit data mode.
2123:Drivers/STM32F7xx_HAL_Driver/Src/stm32f7xx_hal_uart.c ****   * @param huart UART handle.
2124:Drivers/STM32F7xx_HAL_Driver/Src/stm32f7xx_hal_uart.c ****   * @param AddressLength this parameter can be one of the following values:
2125:Drivers/STM32F7xx_HAL_Driver/Src/stm32f7xx_hal_uart.c ****   *          @arg @ref UART_ADDRESS_DETECT_4B 4-bit long address
2126:Drivers/STM32F7xx_HAL_Driver/Src/stm32f7xx_hal_uart.c ****   *          @arg @ref UART_ADDRESS_DETECT_7B 6-, 7- or 8-bit long address
2127:Drivers/STM32F7xx_HAL_Driver/Src/stm32f7xx_hal_uart.c ****   * @retval HAL status
2128:Drivers/STM32F7xx_HAL_Driver/Src/stm32f7xx_hal_uart.c ****   */
2129:Drivers/STM32F7xx_HAL_Driver/Src/stm32f7xx_hal_uart.c **** HAL_StatusTypeDef HAL_MultiProcessorEx_AddressLength_Set(UART_HandleTypeDef *huart, uint32_t Addres
2130:Drivers/STM32F7xx_HAL_Driver/Src/stm32f7xx_hal_uart.c **** {
 4050              		.loc 1 2130 0
 4051              		.cfi_startproc
 4052              		@ args = 0, pretend = 0, frame = 0
 4053              		@ frame_needed = 0, uses_anonymous_args = 0
 4054              	.LVL379:
2131:Drivers/STM32F7xx_HAL_Driver/Src/stm32f7xx_hal_uart.c ****   /* Check the UART handle allocation */
2132:Drivers/STM32F7xx_HAL_Driver/Src/stm32f7xx_hal_uart.c ****   if(huart == NULL)
 4055              		.loc 1 2132 0
 4056 0000 B0B1     		cbz	r0, .L383
2130:Drivers/STM32F7xx_HAL_Driver/Src/stm32f7xx_hal_uart.c ****   /* Check the UART handle allocation */
 4057              		.loc 1 2130 0
 4058 0002 08B5     		push	{r3, lr}
 4059              	.LCFI45:
 4060              		.cfi_def_cfa_offset 8
 4061              		.cfi_offset 3, -8
 4062              		.cfi_offset 14, -4
2133:Drivers/STM32F7xx_HAL_Driver/Src/stm32f7xx_hal_uart.c ****   {
ARM GAS  C:\Users\Student\AppData\Local\Temp\cc4Wk4r8.s 			page 118


2134:Drivers/STM32F7xx_HAL_Driver/Src/stm32f7xx_hal_uart.c ****     return HAL_ERROR;
2135:Drivers/STM32F7xx_HAL_Driver/Src/stm32f7xx_hal_uart.c ****   }
2136:Drivers/STM32F7xx_HAL_Driver/Src/stm32f7xx_hal_uart.c **** 
2137:Drivers/STM32F7xx_HAL_Driver/Src/stm32f7xx_hal_uart.c ****   /* Check the address length parameter */
2138:Drivers/STM32F7xx_HAL_Driver/Src/stm32f7xx_hal_uart.c ****   assert_param(IS_UART_ADDRESSLENGTH_DETECT(AddressLength));
2139:Drivers/STM32F7xx_HAL_Driver/Src/stm32f7xx_hal_uart.c **** 
2140:Drivers/STM32F7xx_HAL_Driver/Src/stm32f7xx_hal_uart.c ****   huart->gState = HAL_UART_STATE_BUSY;
 4063              		.loc 1 2140 0
 4064 0004 2423     		movs	r3, #36
 4065 0006 80F86930 		strb	r3, [r0, #105]
2141:Drivers/STM32F7xx_HAL_Driver/Src/stm32f7xx_hal_uart.c **** 
2142:Drivers/STM32F7xx_HAL_Driver/Src/stm32f7xx_hal_uart.c ****   /* Disable the Peripheral */
2143:Drivers/STM32F7xx_HAL_Driver/Src/stm32f7xx_hal_uart.c ****   __HAL_UART_DISABLE(huart);
 4066              		.loc 1 2143 0
 4067 000a 0268     		ldr	r2, [r0]
 4068 000c 1368     		ldr	r3, [r2]
 4069 000e 23F00103 		bic	r3, r3, #1
 4070 0012 1360     		str	r3, [r2]
2144:Drivers/STM32F7xx_HAL_Driver/Src/stm32f7xx_hal_uart.c **** 
2145:Drivers/STM32F7xx_HAL_Driver/Src/stm32f7xx_hal_uart.c ****   /* Set the address length */
2146:Drivers/STM32F7xx_HAL_Driver/Src/stm32f7xx_hal_uart.c ****   MODIFY_REG(huart->Instance->CR2, USART_CR2_ADDM7, AddressLength);
 4071              		.loc 1 2146 0
 4072 0014 0268     		ldr	r2, [r0]
 4073 0016 5368     		ldr	r3, [r2, #4]
 4074 0018 23F01003 		bic	r3, r3, #16
 4075 001c 1943     		orrs	r1, r1, r3
 4076              	.LVL380:
 4077 001e 5160     		str	r1, [r2, #4]
2147:Drivers/STM32F7xx_HAL_Driver/Src/stm32f7xx_hal_uart.c **** 
2148:Drivers/STM32F7xx_HAL_Driver/Src/stm32f7xx_hal_uart.c ****   /* Enable the Peripheral */
2149:Drivers/STM32F7xx_HAL_Driver/Src/stm32f7xx_hal_uart.c ****   __HAL_UART_ENABLE(huart);
 4078              		.loc 1 2149 0
 4079 0020 0268     		ldr	r2, [r0]
 4080 0022 1368     		ldr	r3, [r2]
 4081 0024 43F00103 		orr	r3, r3, #1
 4082 0028 1360     		str	r3, [r2]
2150:Drivers/STM32F7xx_HAL_Driver/Src/stm32f7xx_hal_uart.c **** 
2151:Drivers/STM32F7xx_HAL_Driver/Src/stm32f7xx_hal_uart.c ****   /* TEACK and/or REACK to check before moving huart->gState to Ready */
2152:Drivers/STM32F7xx_HAL_Driver/Src/stm32f7xx_hal_uart.c ****   return (UART_CheckIdleState(huart));
 4083              		.loc 1 2152 0
 4084 002a FFF7FEFF 		bl	UART_CheckIdleState
 4085              	.LVL381:
 4086 002e 08BD     		pop	{r3, pc}
 4087              	.LVL382:
 4088              	.L383:
 4089              	.LCFI46:
 4090              		.cfi_def_cfa_offset 0
 4091              		.cfi_restore 3
 4092              		.cfi_restore 14
2134:Drivers/STM32F7xx_HAL_Driver/Src/stm32f7xx_hal_uart.c ****   }
 4093              		.loc 1 2134 0
 4094 0030 0120     		movs	r0, #1
 4095              	.LVL383:
 4096 0032 7047     		bx	lr
 4097              		.cfi_endproc
 4098              	.LFE182:
 4100              		.text
ARM GAS  C:\Users\Student\AppData\Local\Temp\cc4Wk4r8.s 			page 119


 4101              	.Letext0:
 4102              		.file 2 "c:\\gcc_toolchain\\6_2017-q1-update\\arm-none-eabi\\include\\machine\\_default_types.h"
 4103              		.file 3 "c:\\gcc_toolchain\\6_2017-q1-update\\arm-none-eabi\\include\\sys\\_stdint.h"
 4104              		.file 4 "Drivers/CMSIS/Include/core_cm7.h"
 4105              		.file 5 "Drivers/CMSIS/Device/ST/STM32F7xx/Include/system_stm32f7xx.h"
 4106              		.file 6 "Drivers/CMSIS/Device/ST/STM32F7xx/Include/stm32f746xx.h"
 4107              		.file 7 "Drivers/CMSIS/Device/ST/STM32F7xx/Include/stm32f7xx.h"
 4108              		.file 8 "c:\\gcc_toolchain\\6_2017-q1-update\\arm-none-eabi\\include\\sys\\lock.h"
 4109              		.file 9 "c:\\gcc_toolchain\\6_2017-q1-update\\arm-none-eabi\\include\\sys\\_types.h"
 4110              		.file 10 "c:\\gcc_toolchain\\6_2017-q1-update\\lib\\gcc\\arm-none-eabi\\6.3.1\\include\\stddef.h"
 4111              		.file 11 "c:\\gcc_toolchain\\6_2017-q1-update\\arm-none-eabi\\include\\sys\\reent.h"
 4112              		.file 12 "Drivers/STM32F7xx_HAL_Driver/Inc/stm32f7xx_hal_def.h"
 4113              		.file 13 "Drivers/STM32F7xx_HAL_Driver/Inc/stm32f7xx_hal_dma.h"
 4114              		.file 14 "Drivers/STM32F7xx_HAL_Driver/Inc/stm32f7xx_hal_uart.h"
 4115              		.file 15 "Drivers/STM32F7xx_HAL_Driver/Inc/stm32f7xx_hal.h"
 4116              		.file 16 "Drivers/STM32F7xx_HAL_Driver/Inc/stm32f7xx_hal_rcc.h"
ARM GAS  C:\Users\Student\AppData\Local\Temp\cc4Wk4r8.s 			page 120


DEFINED SYMBOLS
                            *ABS*:00000000 stm32f7xx_hal_uart.c
C:\Users\Student\AppData\Local\Temp\cc4Wk4r8.s:18     .text.UART_Transmit_IT:00000000 $t
C:\Users\Student\AppData\Local\Temp\cc4Wk4r8.s:24     .text.UART_Transmit_IT:00000000 UART_Transmit_IT
C:\Users\Student\AppData\Local\Temp\cc4Wk4r8.s:113    .text.UART_EndTxTransfer:00000000 $t
C:\Users\Student\AppData\Local\Temp\cc4Wk4r8.s:119    .text.UART_EndTxTransfer:00000000 UART_EndTxTransfer
C:\Users\Student\AppData\Local\Temp\cc4Wk4r8.s:140    .text.UART_EndRxTransfer:00000000 $t
C:\Users\Student\AppData\Local\Temp\cc4Wk4r8.s:146    .text.UART_EndRxTransfer:00000000 UART_EndRxTransfer
C:\Users\Student\AppData\Local\Temp\cc4Wk4r8.s:172    .text.HAL_UART_MspInit:00000000 $t
C:\Users\Student\AppData\Local\Temp\cc4Wk4r8.s:179    .text.HAL_UART_MspInit:00000000 HAL_UART_MspInit
C:\Users\Student\AppData\Local\Temp\cc4Wk4r8.s:192    .text.HAL_UART_MspDeInit:00000000 $t
C:\Users\Student\AppData\Local\Temp\cc4Wk4r8.s:199    .text.HAL_UART_MspDeInit:00000000 HAL_UART_MspDeInit
C:\Users\Student\AppData\Local\Temp\cc4Wk4r8.s:212    .text.HAL_UART_DeInit:00000000 $t
C:\Users\Student\AppData\Local\Temp\cc4Wk4r8.s:219    .text.HAL_UART_DeInit:00000000 HAL_UART_DeInit
C:\Users\Student\AppData\Local\Temp\cc4Wk4r8.s:285    .text.HAL_UART_Transmit_IT:00000000 $t
C:\Users\Student\AppData\Local\Temp\cc4Wk4r8.s:292    .text.HAL_UART_Transmit_IT:00000000 HAL_UART_Transmit_IT
C:\Users\Student\AppData\Local\Temp\cc4Wk4r8.s:363    .text.HAL_UART_Receive_IT:00000000 $t
C:\Users\Student\AppData\Local\Temp\cc4Wk4r8.s:370    .text.HAL_UART_Receive_IT:00000000 HAL_UART_Receive_IT
C:\Users\Student\AppData\Local\Temp\cc4Wk4r8.s:497    .text.HAL_UART_Transmit_DMA:00000000 $t
C:\Users\Student\AppData\Local\Temp\cc4Wk4r8.s:504    .text.HAL_UART_Transmit_DMA:00000000 HAL_UART_Transmit_DMA
C:\Users\Student\AppData\Local\Temp\cc4Wk4r8.s:608    .text.HAL_UART_Transmit_DMA:00000080 $d
C:\Users\Student\AppData\Local\Temp\cc4Wk4r8.s:1493   .text.UART_DMATransmitCplt:00000000 UART_DMATransmitCplt
C:\Users\Student\AppData\Local\Temp\cc4Wk4r8.s:1603   .text.UART_DMATxHalfCplt:00000000 UART_DMATxHalfCplt
C:\Users\Student\AppData\Local\Temp\cc4Wk4r8.s:1896   .text.UART_DMAError:00000000 UART_DMAError
C:\Users\Student\AppData\Local\Temp\cc4Wk4r8.s:615    .text.HAL_UART_Receive_DMA:00000000 $t
C:\Users\Student\AppData\Local\Temp\cc4Wk4r8.s:622    .text.HAL_UART_Receive_DMA:00000000 HAL_UART_Receive_DMA
C:\Users\Student\AppData\Local\Temp\cc4Wk4r8.s:732    .text.HAL_UART_Receive_DMA:0000008c $d
C:\Users\Student\AppData\Local\Temp\cc4Wk4r8.s:1653   .text.UART_DMAReceiveCplt:00000000 UART_DMAReceiveCplt
C:\Users\Student\AppData\Local\Temp\cc4Wk4r8.s:1846   .text.UART_DMARxHalfCplt:00000000 UART_DMARxHalfCplt
C:\Users\Student\AppData\Local\Temp\cc4Wk4r8.s:739    .text.HAL_UART_DMAPause:00000000 $t
C:\Users\Student\AppData\Local\Temp\cc4Wk4r8.s:746    .text.HAL_UART_DMAPause:00000000 HAL_UART_DMAPause
C:\Users\Student\AppData\Local\Temp\cc4Wk4r8.s:825    .text.HAL_UART_DMAResume:00000000 $t
C:\Users\Student\AppData\Local\Temp\cc4Wk4r8.s:832    .text.HAL_UART_DMAResume:00000000 HAL_UART_DMAResume
C:\Users\Student\AppData\Local\Temp\cc4Wk4r8.s:917    .text.HAL_UART_DMAStop:00000000 $t
C:\Users\Student\AppData\Local\Temp\cc4Wk4r8.s:924    .text.HAL_UART_DMAStop:00000000 HAL_UART_DMAStop
C:\Users\Student\AppData\Local\Temp\cc4Wk4r8.s:1005   .text.UART_WaitOnFlagUntilTimeout:00000000 $t
C:\Users\Student\AppData\Local\Temp\cc4Wk4r8.s:1012   .text.UART_WaitOnFlagUntilTimeout:00000000 UART_WaitOnFlagUntilTimeout
C:\Users\Student\AppData\Local\Temp\cc4Wk4r8.s:1087   .text.HAL_UART_Transmit:00000000 $t
C:\Users\Student\AppData\Local\Temp\cc4Wk4r8.s:1094   .text.HAL_UART_Transmit:00000000 HAL_UART_Transmit
C:\Users\Student\AppData\Local\Temp\cc4Wk4r8.s:1257   .text.HAL_UART_Receive:00000000 $t
C:\Users\Student\AppData\Local\Temp\cc4Wk4r8.s:1264   .text.HAL_UART_Receive:00000000 HAL_UART_Receive
C:\Users\Student\AppData\Local\Temp\cc4Wk4r8.s:1467   .text.HAL_UART_TxCpltCallback:00000000 $t
C:\Users\Student\AppData\Local\Temp\cc4Wk4r8.s:1474   .text.HAL_UART_TxCpltCallback:00000000 HAL_UART_TxCpltCallback
C:\Users\Student\AppData\Local\Temp\cc4Wk4r8.s:1487   .text.UART_DMATransmitCplt:00000000 $t
C:\Users\Student\AppData\Local\Temp\cc4Wk4r8.s:1541   .text.UART_EndTransmit_IT:00000000 $t
C:\Users\Student\AppData\Local\Temp\cc4Wk4r8.s:1547   .text.UART_EndTransmit_IT:00000000 UART_EndTransmit_IT
C:\Users\Student\AppData\Local\Temp\cc4Wk4r8.s:1577   .text.HAL_UART_TxHalfCpltCallback:00000000 $t
C:\Users\Student\AppData\Local\Temp\cc4Wk4r8.s:1584   .text.HAL_UART_TxHalfCpltCallback:00000000 HAL_UART_TxHalfCpltCallback
C:\Users\Student\AppData\Local\Temp\cc4Wk4r8.s:1597   .text.UART_DMATxHalfCplt:00000000 $t
C:\Users\Student\AppData\Local\Temp\cc4Wk4r8.s:1627   .text.HAL_UART_RxCpltCallback:00000000 $t
C:\Users\Student\AppData\Local\Temp\cc4Wk4r8.s:1634   .text.HAL_UART_RxCpltCallback:00000000 HAL_UART_RxCpltCallback
C:\Users\Student\AppData\Local\Temp\cc4Wk4r8.s:1647   .text.UART_DMAReceiveCplt:00000000 $t
C:\Users\Student\AppData\Local\Temp\cc4Wk4r8.s:1706   .text.UART_Receive_IT:00000000 $t
C:\Users\Student\AppData\Local\Temp\cc4Wk4r8.s:1712   .text.UART_Receive_IT:00000000 UART_Receive_IT
C:\Users\Student\AppData\Local\Temp\cc4Wk4r8.s:1820   .text.HAL_UART_RxHalfCpltCallback:00000000 $t
C:\Users\Student\AppData\Local\Temp\cc4Wk4r8.s:1827   .text.HAL_UART_RxHalfCpltCallback:00000000 HAL_UART_RxHalfCpltCallback
C:\Users\Student\AppData\Local\Temp\cc4Wk4r8.s:1840   .text.UART_DMARxHalfCplt:00000000 $t
ARM GAS  C:\Users\Student\AppData\Local\Temp\cc4Wk4r8.s 			page 121


C:\Users\Student\AppData\Local\Temp\cc4Wk4r8.s:1870   .text.HAL_UART_ErrorCallback:00000000 $t
C:\Users\Student\AppData\Local\Temp\cc4Wk4r8.s:1877   .text.HAL_UART_ErrorCallback:00000000 HAL_UART_ErrorCallback
C:\Users\Student\AppData\Local\Temp\cc4Wk4r8.s:1890   .text.UART_DMAError:00000000 $t
C:\Users\Student\AppData\Local\Temp\cc4Wk4r8.s:1967   .text.HAL_UART_IRQHandler:00000000 $t
C:\Users\Student\AppData\Local\Temp\cc4Wk4r8.s:1974   .text.HAL_UART_IRQHandler:00000000 HAL_UART_IRQHandler
C:\Users\Student\AppData\Local\Temp\cc4Wk4r8.s:2214   .text.HAL_UART_IRQHandler:00000134 $d
C:\Users\Student\AppData\Local\Temp\cc4Wk4r8.s:2225   .text.UART_DMAAbortOnError:00000000 UART_DMAAbortOnError
C:\Users\Student\AppData\Local\Temp\cc4Wk4r8.s:2219   .text.UART_DMAAbortOnError:00000000 $t
C:\Users\Student\AppData\Local\Temp\cc4Wk4r8.s:2253   .text.HAL_MultiProcessor_EnterMuteMode:00000000 $t
C:\Users\Student\AppData\Local\Temp\cc4Wk4r8.s:2260   .text.HAL_MultiProcessor_EnterMuteMode:00000000 HAL_MultiProcessor_EnterMuteMode
C:\Users\Student\AppData\Local\Temp\cc4Wk4r8.s:2278   .text.HAL_UART_GetState:00000000 $t
C:\Users\Student\AppData\Local\Temp\cc4Wk4r8.s:2285   .text.HAL_UART_GetState:00000000 HAL_UART_GetState
C:\Users\Student\AppData\Local\Temp\cc4Wk4r8.s:2307   .text.HAL_UART_GetError:00000000 $t
C:\Users\Student\AppData\Local\Temp\cc4Wk4r8.s:2314   .text.HAL_UART_GetError:00000000 HAL_UART_GetError
C:\Users\Student\AppData\Local\Temp\cc4Wk4r8.s:2331   .text.UART_SetConfig:00000000 $t
C:\Users\Student\AppData\Local\Temp\cc4Wk4r8.s:2338   .text.UART_SetConfig:00000000 UART_SetConfig
C:\Users\Student\AppData\Local\Temp\cc4Wk4r8.s:2439   .text.UART_SetConfig:0000008c $d
C:\Users\Student\AppData\Local\Temp\cc4Wk4r8.s:2449   .text.UART_SetConfig:0000009e $t
C:\Users\Student\AppData\Local\Temp\cc4Wk4r8.s:2459   .text.UART_SetConfig:000000b2 $d
C:\Users\Student\AppData\Local\Temp\cc4Wk4r8.s:2463   .text.UART_SetConfig:000000b6 $t
C:\Users\Student\AppData\Local\Temp\cc4Wk4r8.s:2493   .text.UART_SetConfig:000000da $d
C:\Users\Student\AppData\Local\Temp\cc4Wk4r8.s:2769   .text.UART_SetConfig:00000240 $d
C:\Users\Student\AppData\Local\Temp\cc4Wk4r8.s:2837   .text.UART_SetConfig:00000298 $d
C:\Users\Student\AppData\Local\Temp\cc4Wk4r8.s:2850   .text.UART_SetConfig:000002c0 $t
C:\Users\Student\AppData\Local\Temp\cc4Wk4r8.s:2965   .text.UART_SetConfig:0000035c $d
C:\Users\Student\AppData\Local\Temp\cc4Wk4r8.s:2970   .text.UART_AdvFeatureConfig:00000000 $t
C:\Users\Student\AppData\Local\Temp\cc4Wk4r8.s:2977   .text.UART_AdvFeatureConfig:00000000 UART_AdvFeatureConfig
C:\Users\Student\AppData\Local\Temp\cc4Wk4r8.s:3099   .text.UART_CheckIdleState:00000000 $t
C:\Users\Student\AppData\Local\Temp\cc4Wk4r8.s:3106   .text.UART_CheckIdleState:00000000 UART_CheckIdleState
C:\Users\Student\AppData\Local\Temp\cc4Wk4r8.s:3175   .text.HAL_UART_Init:00000000 $t
C:\Users\Student\AppData\Local\Temp\cc4Wk4r8.s:3182   .text.HAL_UART_Init:00000000 HAL_UART_Init
C:\Users\Student\AppData\Local\Temp\cc4Wk4r8.s:3277   .text.HAL_HalfDuplex_Init:00000000 $t
C:\Users\Student\AppData\Local\Temp\cc4Wk4r8.s:3284   .text.HAL_HalfDuplex_Init:00000000 HAL_HalfDuplex_Init
C:\Users\Student\AppData\Local\Temp\cc4Wk4r8.s:3385   .text.HAL_LIN_Init:00000000 $t
C:\Users\Student\AppData\Local\Temp\cc4Wk4r8.s:3392   .text.HAL_LIN_Init:00000000 HAL_LIN_Init
C:\Users\Student\AppData\Local\Temp\cc4Wk4r8.s:3507   .text.HAL_MultiProcessor_Init:00000000 $t
C:\Users\Student\AppData\Local\Temp\cc4Wk4r8.s:3514   .text.HAL_MultiProcessor_Init:00000000 HAL_MultiProcessor_Init
C:\Users\Student\AppData\Local\Temp\cc4Wk4r8.s:3637   .text.HAL_RS485Ex_Init:00000000 $t
C:\Users\Student\AppData\Local\Temp\cc4Wk4r8.s:3644   .text.HAL_RS485Ex_Init:00000000 HAL_RS485Ex_Init
C:\Users\Student\AppData\Local\Temp\cc4Wk4r8.s:3771   .text.HAL_RS485Ex_Init:00000084 $d
C:\Users\Student\AppData\Local\Temp\cc4Wk4r8.s:3776   .text.HAL_MultiProcessor_EnableMuteMode:00000000 $t
C:\Users\Student\AppData\Local\Temp\cc4Wk4r8.s:3783   .text.HAL_MultiProcessor_EnableMuteMode:00000000 HAL_MultiProcessor_EnableMuteMode
C:\Users\Student\AppData\Local\Temp\cc4Wk4r8.s:3827   .text.HAL_MultiProcessor_DisableMuteMode:00000000 $t
C:\Users\Student\AppData\Local\Temp\cc4Wk4r8.s:3834   .text.HAL_MultiProcessor_DisableMuteMode:00000000 HAL_MultiProcessor_DisableMuteMode
C:\Users\Student\AppData\Local\Temp\cc4Wk4r8.s:3878   .text.HAL_HalfDuplex_EnableTransmitter:00000000 $t
C:\Users\Student\AppData\Local\Temp\cc4Wk4r8.s:3885   .text.HAL_HalfDuplex_EnableTransmitter:00000000 HAL_HalfDuplex_EnableTransmitter
C:\Users\Student\AppData\Local\Temp\cc4Wk4r8.s:3934   .text.HAL_HalfDuplex_EnableReceiver:00000000 $t
C:\Users\Student\AppData\Local\Temp\cc4Wk4r8.s:3941   .text.HAL_HalfDuplex_EnableReceiver:00000000 HAL_HalfDuplex_EnableReceiver
C:\Users\Student\AppData\Local\Temp\cc4Wk4r8.s:3990   .text.HAL_LIN_SendBreak:00000000 $t
C:\Users\Student\AppData\Local\Temp\cc4Wk4r8.s:3997   .text.HAL_LIN_SendBreak:00000000 HAL_LIN_SendBreak
C:\Users\Student\AppData\Local\Temp\cc4Wk4r8.s:4041   .text.HAL_MultiProcessorEx_AddressLength_Set:00000000 $t
C:\Users\Student\AppData\Local\Temp\cc4Wk4r8.s:4048   .text.HAL_MultiProcessorEx_AddressLength_Set:00000000 HAL_MultiProcessorEx_AddressLength_Set
                     .debug_frame:00000010 $d
C:\Users\Student\AppData\Local\Temp\cc4Wk4r8.s:2506   .text.UART_SetConfig:000000e7 $d
C:\Users\Student\AppData\Local\Temp\cc4Wk4r8.s:2506   .text.UART_SetConfig:000000e8 $t
C:\Users\Student\AppData\Local\Temp\cc4Wk4r8.s:2778   .text.UART_SetConfig:00000249 $d
C:\Users\Student\AppData\Local\Temp\cc4Wk4r8.s:2778   .text.UART_SetConfig:0000024a $t
ARM GAS  C:\Users\Student\AppData\Local\Temp\cc4Wk4r8.s 			page 122



UNDEFINED SYMBOLS
HAL_DMA_Start_IT
HAL_DMA_Abort
HAL_GetTick
HAL_DMA_Abort_IT
HAL_RCC_GetPCLK1Freq
HAL_RCC_GetPCLK2Freq
HAL_RCC_GetSysClockFreq
