ARM GAS  C:\Users\Student\AppData\Local\Temp\ccPRdzQ1.s 			page 1


   1              		.cpu cortex-m7
   2              		.eabi_attribute 27, 1
   3              		.eabi_attribute 28, 1
   4              		.eabi_attribute 20, 1
   5              		.eabi_attribute 21, 1
   6              		.eabi_attribute 23, 3
   7              		.eabi_attribute 24, 1
   8              		.eabi_attribute 25, 1
   9              		.eabi_attribute 26, 1
  10              		.eabi_attribute 30, 1
  11              		.eabi_attribute 34, 1
  12              		.eabi_attribute 18, 4
  13              		.file	"stm32f7xx_ll_sdmmc.c"
  14              		.text
  15              	.Ltext0:
  16              		.cfi_sections	.debug_frame
  17              		.section	.text.SDMMC_GetCmdError,"ax",%progbits
  18              		.align	1
  19              		.syntax unified
  20              		.thumb
  21              		.thumb_func
  22              		.fpu fpv5-sp-d16
  24              	SDMMC_GetCmdError:
  25              	.LFB174:
  26              		.file 1 "Drivers/STM32F7xx_HAL_Driver/Src/stm32f7xx_ll_sdmmc.c"
   1:Drivers/STM32F7xx_HAL_Driver/Src/stm32f7xx_ll_sdmmc.c **** /**
   2:Drivers/STM32F7xx_HAL_Driver/Src/stm32f7xx_ll_sdmmc.c ****   ******************************************************************************
   3:Drivers/STM32F7xx_HAL_Driver/Src/stm32f7xx_ll_sdmmc.c ****   * @file    stm32f7xx_ll_sdmmc.c
   4:Drivers/STM32F7xx_HAL_Driver/Src/stm32f7xx_ll_sdmmc.c ****   * @author  MCD Application Team
   5:Drivers/STM32F7xx_HAL_Driver/Src/stm32f7xx_ll_sdmmc.c ****   * @brief   SDMMC Low Layer HAL module driver.
   6:Drivers/STM32F7xx_HAL_Driver/Src/stm32f7xx_ll_sdmmc.c ****   *    
   7:Drivers/STM32F7xx_HAL_Driver/Src/stm32f7xx_ll_sdmmc.c ****   *          This file provides firmware functions to manage the following 
   8:Drivers/STM32F7xx_HAL_Driver/Src/stm32f7xx_ll_sdmmc.c ****   *          functionalities of the SDMMC peripheral:
   9:Drivers/STM32F7xx_HAL_Driver/Src/stm32f7xx_ll_sdmmc.c ****   *           + Initialization/de-initialization functions
  10:Drivers/STM32F7xx_HAL_Driver/Src/stm32f7xx_ll_sdmmc.c ****   *           + I/O operation functions
  11:Drivers/STM32F7xx_HAL_Driver/Src/stm32f7xx_ll_sdmmc.c ****   *           + Peripheral Control functions 
  12:Drivers/STM32F7xx_HAL_Driver/Src/stm32f7xx_ll_sdmmc.c ****   *           + Peripheral State functions
  13:Drivers/STM32F7xx_HAL_Driver/Src/stm32f7xx_ll_sdmmc.c ****   *         
  14:Drivers/STM32F7xx_HAL_Driver/Src/stm32f7xx_ll_sdmmc.c ****   @verbatim
  15:Drivers/STM32F7xx_HAL_Driver/Src/stm32f7xx_ll_sdmmc.c ****   ==============================================================================
  16:Drivers/STM32F7xx_HAL_Driver/Src/stm32f7xx_ll_sdmmc.c ****                        ##### SDMMC peripheral features #####
  17:Drivers/STM32F7xx_HAL_Driver/Src/stm32f7xx_ll_sdmmc.c ****   ==============================================================================        
  18:Drivers/STM32F7xx_HAL_Driver/Src/stm32f7xx_ll_sdmmc.c ****     [..] The SD/SDMMC MMC card host interface (SDMMC) provides an interface between the APB2
  19:Drivers/STM32F7xx_HAL_Driver/Src/stm32f7xx_ll_sdmmc.c ****          peripheral bus and MultiMedia cards (MMCs), SD memory cards, SDMMC cards and CE-ATA
  20:Drivers/STM32F7xx_HAL_Driver/Src/stm32f7xx_ll_sdmmc.c ****          devices.
  21:Drivers/STM32F7xx_HAL_Driver/Src/stm32f7xx_ll_sdmmc.c ****     
  22:Drivers/STM32F7xx_HAL_Driver/Src/stm32f7xx_ll_sdmmc.c ****     [..] The SDMMC features include the following:
  23:Drivers/STM32F7xx_HAL_Driver/Src/stm32f7xx_ll_sdmmc.c ****          (+) Full compliance with MultiMedia Card System Specification Version 4.2. Card support
  24:Drivers/STM32F7xx_HAL_Driver/Src/stm32f7xx_ll_sdmmc.c ****              for three different databus modes: 1-bit (default), 4-bit and 8-bit
  25:Drivers/STM32F7xx_HAL_Driver/Src/stm32f7xx_ll_sdmmc.c ****          (+) Full compatibility with previous versions of MultiMedia Cards (forward compatibility)
  26:Drivers/STM32F7xx_HAL_Driver/Src/stm32f7xx_ll_sdmmc.c ****          (+) Full compliance with SD Memory Card Specifications Version 2.0
  27:Drivers/STM32F7xx_HAL_Driver/Src/stm32f7xx_ll_sdmmc.c ****          (+) Full compliance with SD I/O Card Specification Version 2.0: card support for two
  28:Drivers/STM32F7xx_HAL_Driver/Src/stm32f7xx_ll_sdmmc.c ****              different data bus modes: 1-bit (default) and 4-bit
  29:Drivers/STM32F7xx_HAL_Driver/Src/stm32f7xx_ll_sdmmc.c ****          (+) Full support of the CE-ATA features (full compliance with CE-ATA digital protocol
  30:Drivers/STM32F7xx_HAL_Driver/Src/stm32f7xx_ll_sdmmc.c ****              Rev1.1)
  31:Drivers/STM32F7xx_HAL_Driver/Src/stm32f7xx_ll_sdmmc.c ****          (+) Data transfer up to 48 MHz for the 8 bit mode
  32:Drivers/STM32F7xx_HAL_Driver/Src/stm32f7xx_ll_sdmmc.c ****          (+) Data and command output enable signals to control external bidirectional drivers.
ARM GAS  C:\Users\Student\AppData\Local\Temp\ccPRdzQ1.s 			page 2


  33:Drivers/STM32F7xx_HAL_Driver/Src/stm32f7xx_ll_sdmmc.c ****                  
  34:Drivers/STM32F7xx_HAL_Driver/Src/stm32f7xx_ll_sdmmc.c ****    
  35:Drivers/STM32F7xx_HAL_Driver/Src/stm32f7xx_ll_sdmmc.c ****                            ##### How to use this driver #####
  36:Drivers/STM32F7xx_HAL_Driver/Src/stm32f7xx_ll_sdmmc.c ****   ==============================================================================
  37:Drivers/STM32F7xx_HAL_Driver/Src/stm32f7xx_ll_sdmmc.c ****     [..]
  38:Drivers/STM32F7xx_HAL_Driver/Src/stm32f7xx_ll_sdmmc.c ****       This driver is a considered as a driver of service for external devices drivers 
  39:Drivers/STM32F7xx_HAL_Driver/Src/stm32f7xx_ll_sdmmc.c ****       that interfaces with the SDMMC peripheral.
  40:Drivers/STM32F7xx_HAL_Driver/Src/stm32f7xx_ll_sdmmc.c ****       According to the device used (SD card/ MMC card / SDMMC card ...), a set of APIs 
  41:Drivers/STM32F7xx_HAL_Driver/Src/stm32f7xx_ll_sdmmc.c ****       is used in the device's driver to perform SDMMC operations and functionalities.
  42:Drivers/STM32F7xx_HAL_Driver/Src/stm32f7xx_ll_sdmmc.c ****    
  43:Drivers/STM32F7xx_HAL_Driver/Src/stm32f7xx_ll_sdmmc.c ****       This driver is almost transparent for the final user, it is only used to implement other
  44:Drivers/STM32F7xx_HAL_Driver/Src/stm32f7xx_ll_sdmmc.c ****       functionalities of the external device.
  45:Drivers/STM32F7xx_HAL_Driver/Src/stm32f7xx_ll_sdmmc.c ****    
  46:Drivers/STM32F7xx_HAL_Driver/Src/stm32f7xx_ll_sdmmc.c ****     [..]
  47:Drivers/STM32F7xx_HAL_Driver/Src/stm32f7xx_ll_sdmmc.c ****       (+) The SDMMC clock (SDMMCCLK = 48 MHz) is coming from a specific output of PLL 
  48:Drivers/STM32F7xx_HAL_Driver/Src/stm32f7xx_ll_sdmmc.c ****           (PLL48CLK). Before start working with SDMMC peripheral make sure that the
  49:Drivers/STM32F7xx_HAL_Driver/Src/stm32f7xx_ll_sdmmc.c ****           PLL is well configured.
  50:Drivers/STM32F7xx_HAL_Driver/Src/stm32f7xx_ll_sdmmc.c ****           The SDMMC peripheral uses two clock signals:
  51:Drivers/STM32F7xx_HAL_Driver/Src/stm32f7xx_ll_sdmmc.c ****           (++) SDMMC adapter clock (SDMMCCLK = 48 MHz)
  52:Drivers/STM32F7xx_HAL_Driver/Src/stm32f7xx_ll_sdmmc.c ****           (++) APB2 bus clock (PCLK2)
  53:Drivers/STM32F7xx_HAL_Driver/Src/stm32f7xx_ll_sdmmc.c ****        
  54:Drivers/STM32F7xx_HAL_Driver/Src/stm32f7xx_ll_sdmmc.c ****           -@@- PCLK2 and SDMMC_CK clock frequencies must respect the following condition:
  55:Drivers/STM32F7xx_HAL_Driver/Src/stm32f7xx_ll_sdmmc.c ****                Frequency(PCLK2) >= (3 / 8 x Frequency(SDMMC_CK))
  56:Drivers/STM32F7xx_HAL_Driver/Src/stm32f7xx_ll_sdmmc.c ****   
  57:Drivers/STM32F7xx_HAL_Driver/Src/stm32f7xx_ll_sdmmc.c ****       (+) Enable/Disable peripheral clock using RCC peripheral macros related to SDMMC
  58:Drivers/STM32F7xx_HAL_Driver/Src/stm32f7xx_ll_sdmmc.c ****           peripheral.
  59:Drivers/STM32F7xx_HAL_Driver/Src/stm32f7xx_ll_sdmmc.c **** 
  60:Drivers/STM32F7xx_HAL_Driver/Src/stm32f7xx_ll_sdmmc.c ****       (+) Enable the Power ON State using the SDMMC_PowerState_ON(SDMMCx) 
  61:Drivers/STM32F7xx_HAL_Driver/Src/stm32f7xx_ll_sdmmc.c ****           function and disable it using the function SDMMC_PowerState_OFF(SDMMCx).
  62:Drivers/STM32F7xx_HAL_Driver/Src/stm32f7xx_ll_sdmmc.c ****                 
  63:Drivers/STM32F7xx_HAL_Driver/Src/stm32f7xx_ll_sdmmc.c ****       (+) Enable/Disable the clock using the __SDMMC_ENABLE()/__SDMMC_DISABLE() macros.
  64:Drivers/STM32F7xx_HAL_Driver/Src/stm32f7xx_ll_sdmmc.c ****   
  65:Drivers/STM32F7xx_HAL_Driver/Src/stm32f7xx_ll_sdmmc.c ****       (+) Enable/Disable the peripheral interrupts using the macros __SDMMC_ENABLE_IT(hSDMMC, IT) 
  66:Drivers/STM32F7xx_HAL_Driver/Src/stm32f7xx_ll_sdmmc.c ****           and __SDMMC_DISABLE_IT(hSDMMC, IT) if you need to use interrupt mode. 
  67:Drivers/STM32F7xx_HAL_Driver/Src/stm32f7xx_ll_sdmmc.c ****   
  68:Drivers/STM32F7xx_HAL_Driver/Src/stm32f7xx_ll_sdmmc.c ****       (+) When using the DMA mode 
  69:Drivers/STM32F7xx_HAL_Driver/Src/stm32f7xx_ll_sdmmc.c ****           (++) Configure the DMA in the MSP layer of the external device
  70:Drivers/STM32F7xx_HAL_Driver/Src/stm32f7xx_ll_sdmmc.c ****           (++) Active the needed channel Request 
  71:Drivers/STM32F7xx_HAL_Driver/Src/stm32f7xx_ll_sdmmc.c ****           (++) Enable the DMA using __SDMMC_DMA_ENABLE() macro or Disable it using the macro
  72:Drivers/STM32F7xx_HAL_Driver/Src/stm32f7xx_ll_sdmmc.c ****                __SDMMC_DMA_DISABLE().
  73:Drivers/STM32F7xx_HAL_Driver/Src/stm32f7xx_ll_sdmmc.c ****   
  74:Drivers/STM32F7xx_HAL_Driver/Src/stm32f7xx_ll_sdmmc.c ****       (+) To control the CPSM (Command Path State Machine) and send 
  75:Drivers/STM32F7xx_HAL_Driver/Src/stm32f7xx_ll_sdmmc.c ****           commands to the card use the SDMMC_SendCommand(SDMMCx), 
  76:Drivers/STM32F7xx_HAL_Driver/Src/stm32f7xx_ll_sdmmc.c ****           SDMMC_GetCommandResponse() and SDMMC_GetResponse() functions. First, user has
  77:Drivers/STM32F7xx_HAL_Driver/Src/stm32f7xx_ll_sdmmc.c ****           to fill the command structure (pointer to SDMMC_CmdInitTypeDef) according 
  78:Drivers/STM32F7xx_HAL_Driver/Src/stm32f7xx_ll_sdmmc.c ****           to the selected command to be sent.
  79:Drivers/STM32F7xx_HAL_Driver/Src/stm32f7xx_ll_sdmmc.c ****           The parameters that should be filled are:
  80:Drivers/STM32F7xx_HAL_Driver/Src/stm32f7xx_ll_sdmmc.c ****            (++) Command Argument
  81:Drivers/STM32F7xx_HAL_Driver/Src/stm32f7xx_ll_sdmmc.c ****            (++) Command Index
  82:Drivers/STM32F7xx_HAL_Driver/Src/stm32f7xx_ll_sdmmc.c ****            (++) Command Response type
  83:Drivers/STM32F7xx_HAL_Driver/Src/stm32f7xx_ll_sdmmc.c ****            (++) Command Wait
  84:Drivers/STM32F7xx_HAL_Driver/Src/stm32f7xx_ll_sdmmc.c ****            (++) CPSM Status (Enable or Disable).
  85:Drivers/STM32F7xx_HAL_Driver/Src/stm32f7xx_ll_sdmmc.c ****   
  86:Drivers/STM32F7xx_HAL_Driver/Src/stm32f7xx_ll_sdmmc.c ****           -@@- To check if the command is well received, read the SDMMC_CMDRESP
  87:Drivers/STM32F7xx_HAL_Driver/Src/stm32f7xx_ll_sdmmc.c ****               register using the SDMMC_GetCommandResponse().
  88:Drivers/STM32F7xx_HAL_Driver/Src/stm32f7xx_ll_sdmmc.c ****               The SDMMC responses registers (SDMMC_RESP1 to SDMMC_RESP2), use the
  89:Drivers/STM32F7xx_HAL_Driver/Src/stm32f7xx_ll_sdmmc.c ****               SDMMC_GetResponse() function.
ARM GAS  C:\Users\Student\AppData\Local\Temp\ccPRdzQ1.s 			page 3


  90:Drivers/STM32F7xx_HAL_Driver/Src/stm32f7xx_ll_sdmmc.c ****   
  91:Drivers/STM32F7xx_HAL_Driver/Src/stm32f7xx_ll_sdmmc.c ****       (+) To control the DPSM (Data Path State Machine) and send/receive 
  92:Drivers/STM32F7xx_HAL_Driver/Src/stm32f7xx_ll_sdmmc.c ****            data to/from the card use the SDMMC_DataConfig(), SDMMC_GetDataCounter(), 
  93:Drivers/STM32F7xx_HAL_Driver/Src/stm32f7xx_ll_sdmmc.c ****           SDMMC_ReadFIFO(), SDMMC_WriteFIFO() and SDMMC_GetFIFOCount() functions.
  94:Drivers/STM32F7xx_HAL_Driver/Src/stm32f7xx_ll_sdmmc.c ****   
  95:Drivers/STM32F7xx_HAL_Driver/Src/stm32f7xx_ll_sdmmc.c ****     *** Read Operations ***
  96:Drivers/STM32F7xx_HAL_Driver/Src/stm32f7xx_ll_sdmmc.c ****     =======================
  97:Drivers/STM32F7xx_HAL_Driver/Src/stm32f7xx_ll_sdmmc.c ****     [..]
  98:Drivers/STM32F7xx_HAL_Driver/Src/stm32f7xx_ll_sdmmc.c ****       (#) First, user has to fill the data structure (pointer to
  99:Drivers/STM32F7xx_HAL_Driver/Src/stm32f7xx_ll_sdmmc.c ****           SDMMC_DataInitTypeDef) according to the selected data type to be received.
 100:Drivers/STM32F7xx_HAL_Driver/Src/stm32f7xx_ll_sdmmc.c ****           The parameters that should be filled are:
 101:Drivers/STM32F7xx_HAL_Driver/Src/stm32f7xx_ll_sdmmc.c ****            (++) Data TimeOut
 102:Drivers/STM32F7xx_HAL_Driver/Src/stm32f7xx_ll_sdmmc.c ****            (++) Data Length
 103:Drivers/STM32F7xx_HAL_Driver/Src/stm32f7xx_ll_sdmmc.c ****            (++) Data Block size
 104:Drivers/STM32F7xx_HAL_Driver/Src/stm32f7xx_ll_sdmmc.c ****            (++) Data Transfer direction: should be from card (To SDMMC)
 105:Drivers/STM32F7xx_HAL_Driver/Src/stm32f7xx_ll_sdmmc.c ****            (++) Data Transfer mode
 106:Drivers/STM32F7xx_HAL_Driver/Src/stm32f7xx_ll_sdmmc.c ****            (++) DPSM Status (Enable or Disable)
 107:Drivers/STM32F7xx_HAL_Driver/Src/stm32f7xx_ll_sdmmc.c ****                                      
 108:Drivers/STM32F7xx_HAL_Driver/Src/stm32f7xx_ll_sdmmc.c ****       (#) Configure the SDMMC resources to receive the data from the card
 109:Drivers/STM32F7xx_HAL_Driver/Src/stm32f7xx_ll_sdmmc.c ****           according to selected transfer mode (Refer to Step 8, 9 and 10).
 110:Drivers/STM32F7xx_HAL_Driver/Src/stm32f7xx_ll_sdmmc.c ****   
 111:Drivers/STM32F7xx_HAL_Driver/Src/stm32f7xx_ll_sdmmc.c ****       (#) Send the selected Read command (refer to step 11).
 112:Drivers/STM32F7xx_HAL_Driver/Src/stm32f7xx_ll_sdmmc.c ****                     
 113:Drivers/STM32F7xx_HAL_Driver/Src/stm32f7xx_ll_sdmmc.c ****       (#) Use the SDMMC flags/interrupts to check the transfer status.
 114:Drivers/STM32F7xx_HAL_Driver/Src/stm32f7xx_ll_sdmmc.c ****   
 115:Drivers/STM32F7xx_HAL_Driver/Src/stm32f7xx_ll_sdmmc.c ****     *** Write Operations ***
 116:Drivers/STM32F7xx_HAL_Driver/Src/stm32f7xx_ll_sdmmc.c ****     ========================
 117:Drivers/STM32F7xx_HAL_Driver/Src/stm32f7xx_ll_sdmmc.c ****     [..]
 118:Drivers/STM32F7xx_HAL_Driver/Src/stm32f7xx_ll_sdmmc.c ****      (#) First, user has to fill the data structure (pointer to
 119:Drivers/STM32F7xx_HAL_Driver/Src/stm32f7xx_ll_sdmmc.c ****          SDMMC_DataInitTypeDef) according to the selected data type to be received.
 120:Drivers/STM32F7xx_HAL_Driver/Src/stm32f7xx_ll_sdmmc.c ****          The parameters that should be filled are:
 121:Drivers/STM32F7xx_HAL_Driver/Src/stm32f7xx_ll_sdmmc.c ****           (++) Data TimeOut
 122:Drivers/STM32F7xx_HAL_Driver/Src/stm32f7xx_ll_sdmmc.c ****           (++) Data Length
 123:Drivers/STM32F7xx_HAL_Driver/Src/stm32f7xx_ll_sdmmc.c ****           (++) Data Block size
 124:Drivers/STM32F7xx_HAL_Driver/Src/stm32f7xx_ll_sdmmc.c ****           (++) Data Transfer direction:  should be to card (To CARD)
 125:Drivers/STM32F7xx_HAL_Driver/Src/stm32f7xx_ll_sdmmc.c ****           (++) Data Transfer mode
 126:Drivers/STM32F7xx_HAL_Driver/Src/stm32f7xx_ll_sdmmc.c ****           (++) DPSM Status (Enable or Disable)
 127:Drivers/STM32F7xx_HAL_Driver/Src/stm32f7xx_ll_sdmmc.c ****   
 128:Drivers/STM32F7xx_HAL_Driver/Src/stm32f7xx_ll_sdmmc.c ****      (#) Configure the SDMMC resources to send the data to the card according to 
 129:Drivers/STM32F7xx_HAL_Driver/Src/stm32f7xx_ll_sdmmc.c ****          selected transfer mode.
 130:Drivers/STM32F7xx_HAL_Driver/Src/stm32f7xx_ll_sdmmc.c ****                      
 131:Drivers/STM32F7xx_HAL_Driver/Src/stm32f7xx_ll_sdmmc.c ****      (#) Send the selected Write command.
 132:Drivers/STM32F7xx_HAL_Driver/Src/stm32f7xx_ll_sdmmc.c ****                     
 133:Drivers/STM32F7xx_HAL_Driver/Src/stm32f7xx_ll_sdmmc.c ****      (#) Use the SDMMC flags/interrupts to check the transfer status.
 134:Drivers/STM32F7xx_HAL_Driver/Src/stm32f7xx_ll_sdmmc.c ****        
 135:Drivers/STM32F7xx_HAL_Driver/Src/stm32f7xx_ll_sdmmc.c ****     *** Command management operations ***
 136:Drivers/STM32F7xx_HAL_Driver/Src/stm32f7xx_ll_sdmmc.c ****     =====================================
 137:Drivers/STM32F7xx_HAL_Driver/Src/stm32f7xx_ll_sdmmc.c ****     [..]
 138:Drivers/STM32F7xx_HAL_Driver/Src/stm32f7xx_ll_sdmmc.c ****      (#) The commands used for Read/Write//Erase operations are managed in 
 139:Drivers/STM32F7xx_HAL_Driver/Src/stm32f7xx_ll_sdmmc.c ****          separate functions. 
 140:Drivers/STM32F7xx_HAL_Driver/Src/stm32f7xx_ll_sdmmc.c ****          Each function allows to send the needed command with the related argument,
 141:Drivers/STM32F7xx_HAL_Driver/Src/stm32f7xx_ll_sdmmc.c ****          then check the response.
 142:Drivers/STM32F7xx_HAL_Driver/Src/stm32f7xx_ll_sdmmc.c ****          By the same approach, you could implement a command and check the response.
 143:Drivers/STM32F7xx_HAL_Driver/Src/stm32f7xx_ll_sdmmc.c ****   
 144:Drivers/STM32F7xx_HAL_Driver/Src/stm32f7xx_ll_sdmmc.c ****   @endverbatim
 145:Drivers/STM32F7xx_HAL_Driver/Src/stm32f7xx_ll_sdmmc.c ****   ******************************************************************************
 146:Drivers/STM32F7xx_HAL_Driver/Src/stm32f7xx_ll_sdmmc.c ****   * @attention
ARM GAS  C:\Users\Student\AppData\Local\Temp\ccPRdzQ1.s 			page 4


 147:Drivers/STM32F7xx_HAL_Driver/Src/stm32f7xx_ll_sdmmc.c ****   *
 148:Drivers/STM32F7xx_HAL_Driver/Src/stm32f7xx_ll_sdmmc.c ****   * <h2><center>&copy; COPYRIGHT(c) 2017 STMicroelectronics</center></h2>
 149:Drivers/STM32F7xx_HAL_Driver/Src/stm32f7xx_ll_sdmmc.c ****   *
 150:Drivers/STM32F7xx_HAL_Driver/Src/stm32f7xx_ll_sdmmc.c ****   * Redistribution and use in source and binary forms, with or without modification,
 151:Drivers/STM32F7xx_HAL_Driver/Src/stm32f7xx_ll_sdmmc.c ****   * are permitted provided that the following conditions are met:
 152:Drivers/STM32F7xx_HAL_Driver/Src/stm32f7xx_ll_sdmmc.c ****   *   1. Redistributions of source code must retain the above copyright notice,
 153:Drivers/STM32F7xx_HAL_Driver/Src/stm32f7xx_ll_sdmmc.c ****   *      this list of conditions and the following disclaimer.
 154:Drivers/STM32F7xx_HAL_Driver/Src/stm32f7xx_ll_sdmmc.c ****   *   2. Redistributions in binary form must reproduce the above copyright notice,
 155:Drivers/STM32F7xx_HAL_Driver/Src/stm32f7xx_ll_sdmmc.c ****   *      this list of conditions and the following disclaimer in the documentation
 156:Drivers/STM32F7xx_HAL_Driver/Src/stm32f7xx_ll_sdmmc.c ****   *      and/or other materials provided with the distribution.
 157:Drivers/STM32F7xx_HAL_Driver/Src/stm32f7xx_ll_sdmmc.c ****   *   3. Neither the name of STMicroelectronics nor the names of its contributors
 158:Drivers/STM32F7xx_HAL_Driver/Src/stm32f7xx_ll_sdmmc.c ****   *      may be used to endorse or promote products derived from this software
 159:Drivers/STM32F7xx_HAL_Driver/Src/stm32f7xx_ll_sdmmc.c ****   *      without specific prior written permission.
 160:Drivers/STM32F7xx_HAL_Driver/Src/stm32f7xx_ll_sdmmc.c ****   *
 161:Drivers/STM32F7xx_HAL_Driver/Src/stm32f7xx_ll_sdmmc.c ****   * THIS SOFTWARE IS PROVIDED BY THE COPYRIGHT HOLDERS AND CONTRIBUTORS "AS IS"
 162:Drivers/STM32F7xx_HAL_Driver/Src/stm32f7xx_ll_sdmmc.c ****   * AND ANY EXPRESS OR IMPLIED WARRANTIES, INCLUDING, BUT NOT LIMITED TO, THE
 163:Drivers/STM32F7xx_HAL_Driver/Src/stm32f7xx_ll_sdmmc.c ****   * IMPLIED WARRANTIES OF MERCHANTABILITY AND FITNESS FOR A PARTICULAR PURPOSE ARE
 164:Drivers/STM32F7xx_HAL_Driver/Src/stm32f7xx_ll_sdmmc.c ****   * DISCLAIMED. IN NO EVENT SHALL THE COPYRIGHT HOLDER OR CONTRIBUTORS BE LIABLE
 165:Drivers/STM32F7xx_HAL_Driver/Src/stm32f7xx_ll_sdmmc.c ****   * FOR ANY DIRECT, INDIRECT, INCIDENTAL, SPECIAL, EXEMPLARY, OR CONSEQUENTIAL
 166:Drivers/STM32F7xx_HAL_Driver/Src/stm32f7xx_ll_sdmmc.c ****   * DAMAGES (INCLUDING, BUT NOT LIMITED TO, PROCUREMENT OF SUBSTITUTE GOODS OR
 167:Drivers/STM32F7xx_HAL_Driver/Src/stm32f7xx_ll_sdmmc.c ****   * SERVICES; LOSS OF USE, DATA, OR PROFITS; OR BUSINESS INTERRUPTION) HOWEVER
 168:Drivers/STM32F7xx_HAL_Driver/Src/stm32f7xx_ll_sdmmc.c ****   * CAUSED AND ON ANY THEORY OF LIABILITY, WHETHER IN CONTRACT, STRICT LIABILITY,
 169:Drivers/STM32F7xx_HAL_Driver/Src/stm32f7xx_ll_sdmmc.c ****   * OR TORT (INCLUDING NEGLIGENCE OR OTHERWISE) ARISING IN ANY WAY OUT OF THE USE
 170:Drivers/STM32F7xx_HAL_Driver/Src/stm32f7xx_ll_sdmmc.c ****   * OF THIS SOFTWARE, EVEN IF ADVISED OF THE POSSIBILITY OF SUCH DAMAGE.
 171:Drivers/STM32F7xx_HAL_Driver/Src/stm32f7xx_ll_sdmmc.c ****   *
 172:Drivers/STM32F7xx_HAL_Driver/Src/stm32f7xx_ll_sdmmc.c ****   ******************************************************************************
 173:Drivers/STM32F7xx_HAL_Driver/Src/stm32f7xx_ll_sdmmc.c ****   */ 
 174:Drivers/STM32F7xx_HAL_Driver/Src/stm32f7xx_ll_sdmmc.c **** 
 175:Drivers/STM32F7xx_HAL_Driver/Src/stm32f7xx_ll_sdmmc.c **** /* Includes ------------------------------------------------------------------*/
 176:Drivers/STM32F7xx_HAL_Driver/Src/stm32f7xx_ll_sdmmc.c **** #include "stm32f7xx_hal.h"
 177:Drivers/STM32F7xx_HAL_Driver/Src/stm32f7xx_ll_sdmmc.c **** 
 178:Drivers/STM32F7xx_HAL_Driver/Src/stm32f7xx_ll_sdmmc.c **** /** @addtogroup STM32F7xx_HAL_Driver
 179:Drivers/STM32F7xx_HAL_Driver/Src/stm32f7xx_ll_sdmmc.c ****   * @{
 180:Drivers/STM32F7xx_HAL_Driver/Src/stm32f7xx_ll_sdmmc.c ****   */
 181:Drivers/STM32F7xx_HAL_Driver/Src/stm32f7xx_ll_sdmmc.c **** 
 182:Drivers/STM32F7xx_HAL_Driver/Src/stm32f7xx_ll_sdmmc.c **** /** @defgroup SDMMC_LL SDMMC Low Layer
 183:Drivers/STM32F7xx_HAL_Driver/Src/stm32f7xx_ll_sdmmc.c ****   * @brief Low layer module for SD
 184:Drivers/STM32F7xx_HAL_Driver/Src/stm32f7xx_ll_sdmmc.c ****   * @{
 185:Drivers/STM32F7xx_HAL_Driver/Src/stm32f7xx_ll_sdmmc.c ****   */
 186:Drivers/STM32F7xx_HAL_Driver/Src/stm32f7xx_ll_sdmmc.c **** 
 187:Drivers/STM32F7xx_HAL_Driver/Src/stm32f7xx_ll_sdmmc.c **** #if defined (HAL_SD_MODULE_ENABLED) || defined(HAL_MMC_MODULE_ENABLED)
 188:Drivers/STM32F7xx_HAL_Driver/Src/stm32f7xx_ll_sdmmc.c **** 
 189:Drivers/STM32F7xx_HAL_Driver/Src/stm32f7xx_ll_sdmmc.c **** /* Private typedef -----------------------------------------------------------*/
 190:Drivers/STM32F7xx_HAL_Driver/Src/stm32f7xx_ll_sdmmc.c **** /* Private define ------------------------------------------------------------*/
 191:Drivers/STM32F7xx_HAL_Driver/Src/stm32f7xx_ll_sdmmc.c **** /* Private macro -------------------------------------------------------------*/
 192:Drivers/STM32F7xx_HAL_Driver/Src/stm32f7xx_ll_sdmmc.c **** /* Private variables ---------------------------------------------------------*/
 193:Drivers/STM32F7xx_HAL_Driver/Src/stm32f7xx_ll_sdmmc.c **** /* Private function prototypes -----------------------------------------------*/
 194:Drivers/STM32F7xx_HAL_Driver/Src/stm32f7xx_ll_sdmmc.c **** static uint32_t SDMMC_GetCmdError(SDMMC_TypeDef *SDMMCx);
 195:Drivers/STM32F7xx_HAL_Driver/Src/stm32f7xx_ll_sdmmc.c **** static uint32_t SDMMC_GetCmdResp1(SDMMC_TypeDef *SDMMCx, uint8_t SD_CMD, uint32_t Timeout);
 196:Drivers/STM32F7xx_HAL_Driver/Src/stm32f7xx_ll_sdmmc.c **** static uint32_t SDMMC_GetCmdResp2(SDMMC_TypeDef *SDMMCx);
 197:Drivers/STM32F7xx_HAL_Driver/Src/stm32f7xx_ll_sdmmc.c **** static uint32_t SDMMC_GetCmdResp3(SDMMC_TypeDef *SDMMCx);
 198:Drivers/STM32F7xx_HAL_Driver/Src/stm32f7xx_ll_sdmmc.c **** static uint32_t SDMMC_GetCmdResp7(SDMMC_TypeDef *SDMMCx);
 199:Drivers/STM32F7xx_HAL_Driver/Src/stm32f7xx_ll_sdmmc.c **** static uint32_t SDMMC_GetCmdResp6(SDMMC_TypeDef *SDMMCx, uint8_t SD_CMD, uint16_t *pRCA);
 200:Drivers/STM32F7xx_HAL_Driver/Src/stm32f7xx_ll_sdmmc.c **** 
 201:Drivers/STM32F7xx_HAL_Driver/Src/stm32f7xx_ll_sdmmc.c **** /* Exported functions --------------------------------------------------------*/
 202:Drivers/STM32F7xx_HAL_Driver/Src/stm32f7xx_ll_sdmmc.c **** 
 203:Drivers/STM32F7xx_HAL_Driver/Src/stm32f7xx_ll_sdmmc.c **** /** @defgroup SDMMC_LL_Exported_Functions SDMMC Low Layer Exported Functions
ARM GAS  C:\Users\Student\AppData\Local\Temp\ccPRdzQ1.s 			page 5


 204:Drivers/STM32F7xx_HAL_Driver/Src/stm32f7xx_ll_sdmmc.c ****   * @{
 205:Drivers/STM32F7xx_HAL_Driver/Src/stm32f7xx_ll_sdmmc.c ****   */
 206:Drivers/STM32F7xx_HAL_Driver/Src/stm32f7xx_ll_sdmmc.c **** 
 207:Drivers/STM32F7xx_HAL_Driver/Src/stm32f7xx_ll_sdmmc.c **** /** @defgroup HAL_SDMMC_LL_Group1 Initialization de-initialization functions 
 208:Drivers/STM32F7xx_HAL_Driver/Src/stm32f7xx_ll_sdmmc.c ****  *  @brief    Initialization and Configuration functions 
 209:Drivers/STM32F7xx_HAL_Driver/Src/stm32f7xx_ll_sdmmc.c ****  *
 210:Drivers/STM32F7xx_HAL_Driver/Src/stm32f7xx_ll_sdmmc.c **** @verbatim    
 211:Drivers/STM32F7xx_HAL_Driver/Src/stm32f7xx_ll_sdmmc.c ****  ===============================================================================
 212:Drivers/STM32F7xx_HAL_Driver/Src/stm32f7xx_ll_sdmmc.c ****               ##### Initialization/de-initialization functions #####
 213:Drivers/STM32F7xx_HAL_Driver/Src/stm32f7xx_ll_sdmmc.c ****  ===============================================================================
 214:Drivers/STM32F7xx_HAL_Driver/Src/stm32f7xx_ll_sdmmc.c ****     [..]  This section provides functions allowing to:
 215:Drivers/STM32F7xx_HAL_Driver/Src/stm32f7xx_ll_sdmmc.c ****  
 216:Drivers/STM32F7xx_HAL_Driver/Src/stm32f7xx_ll_sdmmc.c **** @endverbatim
 217:Drivers/STM32F7xx_HAL_Driver/Src/stm32f7xx_ll_sdmmc.c ****   * @{
 218:Drivers/STM32F7xx_HAL_Driver/Src/stm32f7xx_ll_sdmmc.c ****   */
 219:Drivers/STM32F7xx_HAL_Driver/Src/stm32f7xx_ll_sdmmc.c **** 
 220:Drivers/STM32F7xx_HAL_Driver/Src/stm32f7xx_ll_sdmmc.c **** /**
 221:Drivers/STM32F7xx_HAL_Driver/Src/stm32f7xx_ll_sdmmc.c ****   * @brief  Initializes the SDMMC according to the specified
 222:Drivers/STM32F7xx_HAL_Driver/Src/stm32f7xx_ll_sdmmc.c ****   *         parameters in the SDMMC_InitTypeDef and create the associated handle.
 223:Drivers/STM32F7xx_HAL_Driver/Src/stm32f7xx_ll_sdmmc.c ****   * @param  SDMMCx Pointer to SDMMC register base
 224:Drivers/STM32F7xx_HAL_Driver/Src/stm32f7xx_ll_sdmmc.c ****   * @param  Init SDMMC initialization structure   
 225:Drivers/STM32F7xx_HAL_Driver/Src/stm32f7xx_ll_sdmmc.c ****   * @retval HAL status
 226:Drivers/STM32F7xx_HAL_Driver/Src/stm32f7xx_ll_sdmmc.c ****   */
 227:Drivers/STM32F7xx_HAL_Driver/Src/stm32f7xx_ll_sdmmc.c **** HAL_StatusTypeDef SDMMC_Init(SDMMC_TypeDef *SDMMCx, SDMMC_InitTypeDef Init)
 228:Drivers/STM32F7xx_HAL_Driver/Src/stm32f7xx_ll_sdmmc.c **** {
 229:Drivers/STM32F7xx_HAL_Driver/Src/stm32f7xx_ll_sdmmc.c ****   uint32_t tmpreg = 0;
 230:Drivers/STM32F7xx_HAL_Driver/Src/stm32f7xx_ll_sdmmc.c **** 
 231:Drivers/STM32F7xx_HAL_Driver/Src/stm32f7xx_ll_sdmmc.c ****   /* Check the parameters */
 232:Drivers/STM32F7xx_HAL_Driver/Src/stm32f7xx_ll_sdmmc.c ****   assert_param(IS_SDMMC_ALL_INSTANCE(SDMMCx));
 233:Drivers/STM32F7xx_HAL_Driver/Src/stm32f7xx_ll_sdmmc.c ****   assert_param(IS_SDMMC_CLOCK_EDGE(Init.ClockEdge)); 
 234:Drivers/STM32F7xx_HAL_Driver/Src/stm32f7xx_ll_sdmmc.c ****   assert_param(IS_SDMMC_CLOCK_BYPASS(Init.ClockBypass));
 235:Drivers/STM32F7xx_HAL_Driver/Src/stm32f7xx_ll_sdmmc.c ****   assert_param(IS_SDMMC_CLOCK_POWER_SAVE(Init.ClockPowerSave));
 236:Drivers/STM32F7xx_HAL_Driver/Src/stm32f7xx_ll_sdmmc.c ****   assert_param(IS_SDMMC_BUS_WIDE(Init.BusWide));
 237:Drivers/STM32F7xx_HAL_Driver/Src/stm32f7xx_ll_sdmmc.c ****   assert_param(IS_SDMMC_HARDWARE_FLOW_CONTROL(Init.HardwareFlowControl));
 238:Drivers/STM32F7xx_HAL_Driver/Src/stm32f7xx_ll_sdmmc.c ****   assert_param(IS_SDMMC_CLKDIV(Init.ClockDiv));
 239:Drivers/STM32F7xx_HAL_Driver/Src/stm32f7xx_ll_sdmmc.c ****   
 240:Drivers/STM32F7xx_HAL_Driver/Src/stm32f7xx_ll_sdmmc.c ****   /* Set SDMMC configuration parameters */
 241:Drivers/STM32F7xx_HAL_Driver/Src/stm32f7xx_ll_sdmmc.c ****   tmpreg |= (Init.ClockEdge           |\
 242:Drivers/STM32F7xx_HAL_Driver/Src/stm32f7xx_ll_sdmmc.c ****              Init.ClockBypass         |\
 243:Drivers/STM32F7xx_HAL_Driver/Src/stm32f7xx_ll_sdmmc.c ****              Init.ClockPowerSave      |\
 244:Drivers/STM32F7xx_HAL_Driver/Src/stm32f7xx_ll_sdmmc.c ****              Init.BusWide             |\
 245:Drivers/STM32F7xx_HAL_Driver/Src/stm32f7xx_ll_sdmmc.c ****              Init.HardwareFlowControl |\
 246:Drivers/STM32F7xx_HAL_Driver/Src/stm32f7xx_ll_sdmmc.c ****              Init.ClockDiv
 247:Drivers/STM32F7xx_HAL_Driver/Src/stm32f7xx_ll_sdmmc.c ****              ); 
 248:Drivers/STM32F7xx_HAL_Driver/Src/stm32f7xx_ll_sdmmc.c ****   
 249:Drivers/STM32F7xx_HAL_Driver/Src/stm32f7xx_ll_sdmmc.c ****   /* Write to SDMMC CLKCR */
 250:Drivers/STM32F7xx_HAL_Driver/Src/stm32f7xx_ll_sdmmc.c ****   MODIFY_REG(SDMMCx->CLKCR, CLKCR_CLEAR_MASK, tmpreg);  
 251:Drivers/STM32F7xx_HAL_Driver/Src/stm32f7xx_ll_sdmmc.c **** 
 252:Drivers/STM32F7xx_HAL_Driver/Src/stm32f7xx_ll_sdmmc.c ****   return HAL_OK;
 253:Drivers/STM32F7xx_HAL_Driver/Src/stm32f7xx_ll_sdmmc.c **** }
 254:Drivers/STM32F7xx_HAL_Driver/Src/stm32f7xx_ll_sdmmc.c **** 
 255:Drivers/STM32F7xx_HAL_Driver/Src/stm32f7xx_ll_sdmmc.c **** 
 256:Drivers/STM32F7xx_HAL_Driver/Src/stm32f7xx_ll_sdmmc.c **** /**
 257:Drivers/STM32F7xx_HAL_Driver/Src/stm32f7xx_ll_sdmmc.c ****   * @}
 258:Drivers/STM32F7xx_HAL_Driver/Src/stm32f7xx_ll_sdmmc.c ****   */
 259:Drivers/STM32F7xx_HAL_Driver/Src/stm32f7xx_ll_sdmmc.c **** 
 260:Drivers/STM32F7xx_HAL_Driver/Src/stm32f7xx_ll_sdmmc.c **** /** @defgroup HAL_SDMMC_LL_Group2 IO operation functions 
ARM GAS  C:\Users\Student\AppData\Local\Temp\ccPRdzQ1.s 			page 6


 261:Drivers/STM32F7xx_HAL_Driver/Src/stm32f7xx_ll_sdmmc.c ****  *  @brief   Data transfers functions 
 262:Drivers/STM32F7xx_HAL_Driver/Src/stm32f7xx_ll_sdmmc.c ****  *
 263:Drivers/STM32F7xx_HAL_Driver/Src/stm32f7xx_ll_sdmmc.c **** @verbatim   
 264:Drivers/STM32F7xx_HAL_Driver/Src/stm32f7xx_ll_sdmmc.c ****  ===============================================================================
 265:Drivers/STM32F7xx_HAL_Driver/Src/stm32f7xx_ll_sdmmc.c ****                       ##### I/O operation functions #####
 266:Drivers/STM32F7xx_HAL_Driver/Src/stm32f7xx_ll_sdmmc.c ****  ===============================================================================  
 267:Drivers/STM32F7xx_HAL_Driver/Src/stm32f7xx_ll_sdmmc.c ****     [..]
 268:Drivers/STM32F7xx_HAL_Driver/Src/stm32f7xx_ll_sdmmc.c ****     This subsection provides a set of functions allowing to manage the SDMMC data 
 269:Drivers/STM32F7xx_HAL_Driver/Src/stm32f7xx_ll_sdmmc.c ****     transfers.
 270:Drivers/STM32F7xx_HAL_Driver/Src/stm32f7xx_ll_sdmmc.c **** 
 271:Drivers/STM32F7xx_HAL_Driver/Src/stm32f7xx_ll_sdmmc.c **** @endverbatim
 272:Drivers/STM32F7xx_HAL_Driver/Src/stm32f7xx_ll_sdmmc.c ****   * @{
 273:Drivers/STM32F7xx_HAL_Driver/Src/stm32f7xx_ll_sdmmc.c ****   */
 274:Drivers/STM32F7xx_HAL_Driver/Src/stm32f7xx_ll_sdmmc.c **** 
 275:Drivers/STM32F7xx_HAL_Driver/Src/stm32f7xx_ll_sdmmc.c **** /**
 276:Drivers/STM32F7xx_HAL_Driver/Src/stm32f7xx_ll_sdmmc.c ****   * @brief  Read data (word) from Rx FIFO in blocking mode (polling) 
 277:Drivers/STM32F7xx_HAL_Driver/Src/stm32f7xx_ll_sdmmc.c ****   * @param  SDMMCx Pointer to SDMMC register base
 278:Drivers/STM32F7xx_HAL_Driver/Src/stm32f7xx_ll_sdmmc.c ****   * @retval HAL status
 279:Drivers/STM32F7xx_HAL_Driver/Src/stm32f7xx_ll_sdmmc.c ****   */
 280:Drivers/STM32F7xx_HAL_Driver/Src/stm32f7xx_ll_sdmmc.c **** uint32_t SDMMC_ReadFIFO(SDMMC_TypeDef *SDMMCx)
 281:Drivers/STM32F7xx_HAL_Driver/Src/stm32f7xx_ll_sdmmc.c **** {
 282:Drivers/STM32F7xx_HAL_Driver/Src/stm32f7xx_ll_sdmmc.c ****   /* Read data from Rx FIFO */ 
 283:Drivers/STM32F7xx_HAL_Driver/Src/stm32f7xx_ll_sdmmc.c ****   return (SDMMCx->FIFO);
 284:Drivers/STM32F7xx_HAL_Driver/Src/stm32f7xx_ll_sdmmc.c **** }
 285:Drivers/STM32F7xx_HAL_Driver/Src/stm32f7xx_ll_sdmmc.c **** 
 286:Drivers/STM32F7xx_HAL_Driver/Src/stm32f7xx_ll_sdmmc.c **** /**
 287:Drivers/STM32F7xx_HAL_Driver/Src/stm32f7xx_ll_sdmmc.c ****   * @brief  Write data (word) to Tx FIFO in blocking mode (polling) 
 288:Drivers/STM32F7xx_HAL_Driver/Src/stm32f7xx_ll_sdmmc.c ****   * @param  SDMMCx Pointer to SDMMC register base
 289:Drivers/STM32F7xx_HAL_Driver/Src/stm32f7xx_ll_sdmmc.c ****   * @param  pWriteData pointer to data to write
 290:Drivers/STM32F7xx_HAL_Driver/Src/stm32f7xx_ll_sdmmc.c ****   * @retval HAL status
 291:Drivers/STM32F7xx_HAL_Driver/Src/stm32f7xx_ll_sdmmc.c ****   */
 292:Drivers/STM32F7xx_HAL_Driver/Src/stm32f7xx_ll_sdmmc.c **** HAL_StatusTypeDef SDMMC_WriteFIFO(SDMMC_TypeDef *SDMMCx, uint32_t *pWriteData)
 293:Drivers/STM32F7xx_HAL_Driver/Src/stm32f7xx_ll_sdmmc.c **** { 
 294:Drivers/STM32F7xx_HAL_Driver/Src/stm32f7xx_ll_sdmmc.c ****   /* Write data to FIFO */ 
 295:Drivers/STM32F7xx_HAL_Driver/Src/stm32f7xx_ll_sdmmc.c ****   SDMMCx->FIFO = *pWriteData;
 296:Drivers/STM32F7xx_HAL_Driver/Src/stm32f7xx_ll_sdmmc.c **** 
 297:Drivers/STM32F7xx_HAL_Driver/Src/stm32f7xx_ll_sdmmc.c ****   return HAL_OK;
 298:Drivers/STM32F7xx_HAL_Driver/Src/stm32f7xx_ll_sdmmc.c **** }
 299:Drivers/STM32F7xx_HAL_Driver/Src/stm32f7xx_ll_sdmmc.c **** 
 300:Drivers/STM32F7xx_HAL_Driver/Src/stm32f7xx_ll_sdmmc.c **** /**
 301:Drivers/STM32F7xx_HAL_Driver/Src/stm32f7xx_ll_sdmmc.c ****   * @}
 302:Drivers/STM32F7xx_HAL_Driver/Src/stm32f7xx_ll_sdmmc.c ****   */
 303:Drivers/STM32F7xx_HAL_Driver/Src/stm32f7xx_ll_sdmmc.c **** 
 304:Drivers/STM32F7xx_HAL_Driver/Src/stm32f7xx_ll_sdmmc.c **** /** @defgroup HAL_SDMMC_LL_Group3 Peripheral Control functions 
 305:Drivers/STM32F7xx_HAL_Driver/Src/stm32f7xx_ll_sdmmc.c ****  *  @brief   management functions 
 306:Drivers/STM32F7xx_HAL_Driver/Src/stm32f7xx_ll_sdmmc.c ****  *
 307:Drivers/STM32F7xx_HAL_Driver/Src/stm32f7xx_ll_sdmmc.c **** @verbatim   
 308:Drivers/STM32F7xx_HAL_Driver/Src/stm32f7xx_ll_sdmmc.c ****  ===============================================================================
 309:Drivers/STM32F7xx_HAL_Driver/Src/stm32f7xx_ll_sdmmc.c ****                       ##### Peripheral Control functions #####
 310:Drivers/STM32F7xx_HAL_Driver/Src/stm32f7xx_ll_sdmmc.c ****  ===============================================================================  
 311:Drivers/STM32F7xx_HAL_Driver/Src/stm32f7xx_ll_sdmmc.c ****     [..]
 312:Drivers/STM32F7xx_HAL_Driver/Src/stm32f7xx_ll_sdmmc.c ****     This subsection provides a set of functions allowing to control the SDMMC data 
 313:Drivers/STM32F7xx_HAL_Driver/Src/stm32f7xx_ll_sdmmc.c ****     transfers.
 314:Drivers/STM32F7xx_HAL_Driver/Src/stm32f7xx_ll_sdmmc.c **** 
 315:Drivers/STM32F7xx_HAL_Driver/Src/stm32f7xx_ll_sdmmc.c **** @endverbatim
 316:Drivers/STM32F7xx_HAL_Driver/Src/stm32f7xx_ll_sdmmc.c ****   * @{
 317:Drivers/STM32F7xx_HAL_Driver/Src/stm32f7xx_ll_sdmmc.c ****   */
ARM GAS  C:\Users\Student\AppData\Local\Temp\ccPRdzQ1.s 			page 7


 318:Drivers/STM32F7xx_HAL_Driver/Src/stm32f7xx_ll_sdmmc.c **** 
 319:Drivers/STM32F7xx_HAL_Driver/Src/stm32f7xx_ll_sdmmc.c **** /**
 320:Drivers/STM32F7xx_HAL_Driver/Src/stm32f7xx_ll_sdmmc.c ****   * @brief  Set SDMMC Power state to ON. 
 321:Drivers/STM32F7xx_HAL_Driver/Src/stm32f7xx_ll_sdmmc.c ****   * @param  SDMMCx Pointer to SDMMC register base
 322:Drivers/STM32F7xx_HAL_Driver/Src/stm32f7xx_ll_sdmmc.c ****   * @retval HAL status
 323:Drivers/STM32F7xx_HAL_Driver/Src/stm32f7xx_ll_sdmmc.c ****   */
 324:Drivers/STM32F7xx_HAL_Driver/Src/stm32f7xx_ll_sdmmc.c **** HAL_StatusTypeDef SDMMC_PowerState_ON(SDMMC_TypeDef *SDMMCx)
 325:Drivers/STM32F7xx_HAL_Driver/Src/stm32f7xx_ll_sdmmc.c **** {  
 326:Drivers/STM32F7xx_HAL_Driver/Src/stm32f7xx_ll_sdmmc.c ****   /* Set power state to ON */ 
 327:Drivers/STM32F7xx_HAL_Driver/Src/stm32f7xx_ll_sdmmc.c ****   SDMMCx->POWER = SDMMC_POWER_PWRCTRL;
 328:Drivers/STM32F7xx_HAL_Driver/Src/stm32f7xx_ll_sdmmc.c ****   
 329:Drivers/STM32F7xx_HAL_Driver/Src/stm32f7xx_ll_sdmmc.c ****   return HAL_OK; 
 330:Drivers/STM32F7xx_HAL_Driver/Src/stm32f7xx_ll_sdmmc.c **** }
 331:Drivers/STM32F7xx_HAL_Driver/Src/stm32f7xx_ll_sdmmc.c **** 
 332:Drivers/STM32F7xx_HAL_Driver/Src/stm32f7xx_ll_sdmmc.c **** /**
 333:Drivers/STM32F7xx_HAL_Driver/Src/stm32f7xx_ll_sdmmc.c ****   * @brief  Set SDMMC Power state to OFF. 
 334:Drivers/STM32F7xx_HAL_Driver/Src/stm32f7xx_ll_sdmmc.c ****   * @param  SDMMCx Pointer to SDMMC register base
 335:Drivers/STM32F7xx_HAL_Driver/Src/stm32f7xx_ll_sdmmc.c ****   * @retval HAL status
 336:Drivers/STM32F7xx_HAL_Driver/Src/stm32f7xx_ll_sdmmc.c ****   */
 337:Drivers/STM32F7xx_HAL_Driver/Src/stm32f7xx_ll_sdmmc.c **** HAL_StatusTypeDef SDMMC_PowerState_OFF(SDMMC_TypeDef *SDMMCx)
 338:Drivers/STM32F7xx_HAL_Driver/Src/stm32f7xx_ll_sdmmc.c **** {
 339:Drivers/STM32F7xx_HAL_Driver/Src/stm32f7xx_ll_sdmmc.c ****   /* Set power state to OFF */
 340:Drivers/STM32F7xx_HAL_Driver/Src/stm32f7xx_ll_sdmmc.c ****   SDMMCx->POWER = (uint32_t)0x00000000;
 341:Drivers/STM32F7xx_HAL_Driver/Src/stm32f7xx_ll_sdmmc.c ****   
 342:Drivers/STM32F7xx_HAL_Driver/Src/stm32f7xx_ll_sdmmc.c ****   return HAL_OK;
 343:Drivers/STM32F7xx_HAL_Driver/Src/stm32f7xx_ll_sdmmc.c **** }
 344:Drivers/STM32F7xx_HAL_Driver/Src/stm32f7xx_ll_sdmmc.c **** 
 345:Drivers/STM32F7xx_HAL_Driver/Src/stm32f7xx_ll_sdmmc.c **** /**
 346:Drivers/STM32F7xx_HAL_Driver/Src/stm32f7xx_ll_sdmmc.c ****   * @brief  Get SDMMC Power state. 
 347:Drivers/STM32F7xx_HAL_Driver/Src/stm32f7xx_ll_sdmmc.c ****   * @param  SDMMCx Pointer to SDMMC register base
 348:Drivers/STM32F7xx_HAL_Driver/Src/stm32f7xx_ll_sdmmc.c ****   * @retval Power status of the controller. The returned value can be one of the 
 349:Drivers/STM32F7xx_HAL_Driver/Src/stm32f7xx_ll_sdmmc.c ****   *         following values:
 350:Drivers/STM32F7xx_HAL_Driver/Src/stm32f7xx_ll_sdmmc.c ****   *            - 0x00: Power OFF
 351:Drivers/STM32F7xx_HAL_Driver/Src/stm32f7xx_ll_sdmmc.c ****   *            - 0x02: Power UP
 352:Drivers/STM32F7xx_HAL_Driver/Src/stm32f7xx_ll_sdmmc.c ****   *            - 0x03: Power ON 
 353:Drivers/STM32F7xx_HAL_Driver/Src/stm32f7xx_ll_sdmmc.c ****   */
 354:Drivers/STM32F7xx_HAL_Driver/Src/stm32f7xx_ll_sdmmc.c **** uint32_t SDMMC_GetPowerState(SDMMC_TypeDef *SDMMCx)  
 355:Drivers/STM32F7xx_HAL_Driver/Src/stm32f7xx_ll_sdmmc.c **** {
 356:Drivers/STM32F7xx_HAL_Driver/Src/stm32f7xx_ll_sdmmc.c ****   return (SDMMCx->POWER & SDMMC_POWER_PWRCTRL);
 357:Drivers/STM32F7xx_HAL_Driver/Src/stm32f7xx_ll_sdmmc.c **** }
 358:Drivers/STM32F7xx_HAL_Driver/Src/stm32f7xx_ll_sdmmc.c **** 
 359:Drivers/STM32F7xx_HAL_Driver/Src/stm32f7xx_ll_sdmmc.c **** /**
 360:Drivers/STM32F7xx_HAL_Driver/Src/stm32f7xx_ll_sdmmc.c ****   * @brief  Configure the SDMMC command path according to the specified parameters in
 361:Drivers/STM32F7xx_HAL_Driver/Src/stm32f7xx_ll_sdmmc.c ****   *         SDMMC_CmdInitTypeDef structure and send the command 
 362:Drivers/STM32F7xx_HAL_Driver/Src/stm32f7xx_ll_sdmmc.c ****   * @param  SDMMCx Pointer to SDMMC register base
 363:Drivers/STM32F7xx_HAL_Driver/Src/stm32f7xx_ll_sdmmc.c ****   * @param  Command pointer to a SDMMC_CmdInitTypeDef structure that contains 
 364:Drivers/STM32F7xx_HAL_Driver/Src/stm32f7xx_ll_sdmmc.c ****   *         the configuration information for the SDMMC command
 365:Drivers/STM32F7xx_HAL_Driver/Src/stm32f7xx_ll_sdmmc.c ****   * @retval HAL status
 366:Drivers/STM32F7xx_HAL_Driver/Src/stm32f7xx_ll_sdmmc.c ****   */
 367:Drivers/STM32F7xx_HAL_Driver/Src/stm32f7xx_ll_sdmmc.c **** HAL_StatusTypeDef SDMMC_SendCommand(SDMMC_TypeDef *SDMMCx, SDMMC_CmdInitTypeDef *Command)
 368:Drivers/STM32F7xx_HAL_Driver/Src/stm32f7xx_ll_sdmmc.c **** {
 369:Drivers/STM32F7xx_HAL_Driver/Src/stm32f7xx_ll_sdmmc.c ****   uint32_t tmpreg = 0;
 370:Drivers/STM32F7xx_HAL_Driver/Src/stm32f7xx_ll_sdmmc.c ****   
 371:Drivers/STM32F7xx_HAL_Driver/Src/stm32f7xx_ll_sdmmc.c ****   /* Check the parameters */
 372:Drivers/STM32F7xx_HAL_Driver/Src/stm32f7xx_ll_sdmmc.c ****   assert_param(IS_SDMMC_CMD_INDEX(Command->CmdIndex));
 373:Drivers/STM32F7xx_HAL_Driver/Src/stm32f7xx_ll_sdmmc.c ****   assert_param(IS_SDMMC_RESPONSE(Command->Response));
 374:Drivers/STM32F7xx_HAL_Driver/Src/stm32f7xx_ll_sdmmc.c ****   assert_param(IS_SDMMC_WAIT(Command->WaitForInterrupt));
ARM GAS  C:\Users\Student\AppData\Local\Temp\ccPRdzQ1.s 			page 8


 375:Drivers/STM32F7xx_HAL_Driver/Src/stm32f7xx_ll_sdmmc.c ****   assert_param(IS_SDMMC_CPSM(Command->CPSM));
 376:Drivers/STM32F7xx_HAL_Driver/Src/stm32f7xx_ll_sdmmc.c **** 
 377:Drivers/STM32F7xx_HAL_Driver/Src/stm32f7xx_ll_sdmmc.c ****   /* Set the SDMMC Argument value */
 378:Drivers/STM32F7xx_HAL_Driver/Src/stm32f7xx_ll_sdmmc.c ****   SDMMCx->ARG = Command->Argument;
 379:Drivers/STM32F7xx_HAL_Driver/Src/stm32f7xx_ll_sdmmc.c **** 
 380:Drivers/STM32F7xx_HAL_Driver/Src/stm32f7xx_ll_sdmmc.c ****   /* Set SDMMC command parameters */
 381:Drivers/STM32F7xx_HAL_Driver/Src/stm32f7xx_ll_sdmmc.c ****   tmpreg |= (uint32_t)(Command->CmdIndex         |\
 382:Drivers/STM32F7xx_HAL_Driver/Src/stm32f7xx_ll_sdmmc.c ****                        Command->Response         |\
 383:Drivers/STM32F7xx_HAL_Driver/Src/stm32f7xx_ll_sdmmc.c ****                        Command->WaitForInterrupt |\
 384:Drivers/STM32F7xx_HAL_Driver/Src/stm32f7xx_ll_sdmmc.c ****                        Command->CPSM);
 385:Drivers/STM32F7xx_HAL_Driver/Src/stm32f7xx_ll_sdmmc.c ****   
 386:Drivers/STM32F7xx_HAL_Driver/Src/stm32f7xx_ll_sdmmc.c ****   /* Write to SDMMC CMD register */
 387:Drivers/STM32F7xx_HAL_Driver/Src/stm32f7xx_ll_sdmmc.c ****   MODIFY_REG(SDMMCx->CMD, CMD_CLEAR_MASK, tmpreg); 
 388:Drivers/STM32F7xx_HAL_Driver/Src/stm32f7xx_ll_sdmmc.c ****   
 389:Drivers/STM32F7xx_HAL_Driver/Src/stm32f7xx_ll_sdmmc.c ****   return HAL_OK;  
 390:Drivers/STM32F7xx_HAL_Driver/Src/stm32f7xx_ll_sdmmc.c **** }
 391:Drivers/STM32F7xx_HAL_Driver/Src/stm32f7xx_ll_sdmmc.c **** 
 392:Drivers/STM32F7xx_HAL_Driver/Src/stm32f7xx_ll_sdmmc.c **** /**
 393:Drivers/STM32F7xx_HAL_Driver/Src/stm32f7xx_ll_sdmmc.c ****   * @brief  Return the command index of last command for which response received
 394:Drivers/STM32F7xx_HAL_Driver/Src/stm32f7xx_ll_sdmmc.c ****   * @param  SDMMCx Pointer to SDMMC register base
 395:Drivers/STM32F7xx_HAL_Driver/Src/stm32f7xx_ll_sdmmc.c ****   * @retval Command index of the last command response received
 396:Drivers/STM32F7xx_HAL_Driver/Src/stm32f7xx_ll_sdmmc.c ****   */
 397:Drivers/STM32F7xx_HAL_Driver/Src/stm32f7xx_ll_sdmmc.c **** uint8_t SDMMC_GetCommandResponse(SDMMC_TypeDef *SDMMCx)
 398:Drivers/STM32F7xx_HAL_Driver/Src/stm32f7xx_ll_sdmmc.c **** {
 399:Drivers/STM32F7xx_HAL_Driver/Src/stm32f7xx_ll_sdmmc.c ****   return (uint8_t)(SDMMCx->RESPCMD);
 400:Drivers/STM32F7xx_HAL_Driver/Src/stm32f7xx_ll_sdmmc.c **** }
 401:Drivers/STM32F7xx_HAL_Driver/Src/stm32f7xx_ll_sdmmc.c **** 
 402:Drivers/STM32F7xx_HAL_Driver/Src/stm32f7xx_ll_sdmmc.c **** 
 403:Drivers/STM32F7xx_HAL_Driver/Src/stm32f7xx_ll_sdmmc.c **** /**
 404:Drivers/STM32F7xx_HAL_Driver/Src/stm32f7xx_ll_sdmmc.c ****   * @brief  Return the response received from the card for the last command
 405:Drivers/STM32F7xx_HAL_Driver/Src/stm32f7xx_ll_sdmmc.c ****   * @param  SDMMCx Pointer to SDMMC register base    
 406:Drivers/STM32F7xx_HAL_Driver/Src/stm32f7xx_ll_sdmmc.c ****   * @param  Response Specifies the SDMMC response register. 
 407:Drivers/STM32F7xx_HAL_Driver/Src/stm32f7xx_ll_sdmmc.c ****   *          This parameter can be one of the following values:
 408:Drivers/STM32F7xx_HAL_Driver/Src/stm32f7xx_ll_sdmmc.c ****   *            @arg SDMMC_RESP1: Response Register 1
 409:Drivers/STM32F7xx_HAL_Driver/Src/stm32f7xx_ll_sdmmc.c ****   *            @arg SDMMC_RESP2: Response Register 2
 410:Drivers/STM32F7xx_HAL_Driver/Src/stm32f7xx_ll_sdmmc.c ****   *            @arg SDMMC_RESP3: Response Register 3
 411:Drivers/STM32F7xx_HAL_Driver/Src/stm32f7xx_ll_sdmmc.c ****   *            @arg SDMMC_RESP4: Response Register 4  
 412:Drivers/STM32F7xx_HAL_Driver/Src/stm32f7xx_ll_sdmmc.c ****   * @retval The Corresponding response register value
 413:Drivers/STM32F7xx_HAL_Driver/Src/stm32f7xx_ll_sdmmc.c ****   */
 414:Drivers/STM32F7xx_HAL_Driver/Src/stm32f7xx_ll_sdmmc.c **** uint32_t SDMMC_GetResponse(SDMMC_TypeDef *SDMMCx, uint32_t Response)
 415:Drivers/STM32F7xx_HAL_Driver/Src/stm32f7xx_ll_sdmmc.c **** {
 416:Drivers/STM32F7xx_HAL_Driver/Src/stm32f7xx_ll_sdmmc.c ****   __IO uint32_t tmp = 0;
 417:Drivers/STM32F7xx_HAL_Driver/Src/stm32f7xx_ll_sdmmc.c **** 
 418:Drivers/STM32F7xx_HAL_Driver/Src/stm32f7xx_ll_sdmmc.c ****   /* Check the parameters */
 419:Drivers/STM32F7xx_HAL_Driver/Src/stm32f7xx_ll_sdmmc.c ****   assert_param(IS_SDMMC_RESP(Response));
 420:Drivers/STM32F7xx_HAL_Driver/Src/stm32f7xx_ll_sdmmc.c ****   
 421:Drivers/STM32F7xx_HAL_Driver/Src/stm32f7xx_ll_sdmmc.c ****   /* Get the response */
 422:Drivers/STM32F7xx_HAL_Driver/Src/stm32f7xx_ll_sdmmc.c ****   tmp = (uint32_t)&(SDMMCx->RESP1) + Response;
 423:Drivers/STM32F7xx_HAL_Driver/Src/stm32f7xx_ll_sdmmc.c ****   
 424:Drivers/STM32F7xx_HAL_Driver/Src/stm32f7xx_ll_sdmmc.c ****   return (*(__IO uint32_t *) tmp);
 425:Drivers/STM32F7xx_HAL_Driver/Src/stm32f7xx_ll_sdmmc.c **** }  
 426:Drivers/STM32F7xx_HAL_Driver/Src/stm32f7xx_ll_sdmmc.c **** 
 427:Drivers/STM32F7xx_HAL_Driver/Src/stm32f7xx_ll_sdmmc.c **** /**
 428:Drivers/STM32F7xx_HAL_Driver/Src/stm32f7xx_ll_sdmmc.c ****   * @brief  Configure the SDMMC data path according to the specified 
 429:Drivers/STM32F7xx_HAL_Driver/Src/stm32f7xx_ll_sdmmc.c ****   *         parameters in the SDMMC_DataInitTypeDef.
 430:Drivers/STM32F7xx_HAL_Driver/Src/stm32f7xx_ll_sdmmc.c ****   * @param  SDMMCx Pointer to SDMMC register base  
 431:Drivers/STM32F7xx_HAL_Driver/Src/stm32f7xx_ll_sdmmc.c ****   * @param  Data  pointer to a SDMMC_DataInitTypeDef structure 
ARM GAS  C:\Users\Student\AppData\Local\Temp\ccPRdzQ1.s 			page 9


 432:Drivers/STM32F7xx_HAL_Driver/Src/stm32f7xx_ll_sdmmc.c ****   *         that contains the configuration information for the SDMMC data.
 433:Drivers/STM32F7xx_HAL_Driver/Src/stm32f7xx_ll_sdmmc.c ****   * @retval HAL status
 434:Drivers/STM32F7xx_HAL_Driver/Src/stm32f7xx_ll_sdmmc.c ****   */
 435:Drivers/STM32F7xx_HAL_Driver/Src/stm32f7xx_ll_sdmmc.c **** HAL_StatusTypeDef SDMMC_ConfigData(SDMMC_TypeDef *SDMMCx, SDMMC_DataInitTypeDef* Data)
 436:Drivers/STM32F7xx_HAL_Driver/Src/stm32f7xx_ll_sdmmc.c **** {
 437:Drivers/STM32F7xx_HAL_Driver/Src/stm32f7xx_ll_sdmmc.c ****   uint32_t tmpreg = 0;
 438:Drivers/STM32F7xx_HAL_Driver/Src/stm32f7xx_ll_sdmmc.c ****   
 439:Drivers/STM32F7xx_HAL_Driver/Src/stm32f7xx_ll_sdmmc.c ****   /* Check the parameters */
 440:Drivers/STM32F7xx_HAL_Driver/Src/stm32f7xx_ll_sdmmc.c ****   assert_param(IS_SDMMC_DATA_LENGTH(Data->DataLength));
 441:Drivers/STM32F7xx_HAL_Driver/Src/stm32f7xx_ll_sdmmc.c ****   assert_param(IS_SDMMC_BLOCK_SIZE(Data->DataBlockSize));
 442:Drivers/STM32F7xx_HAL_Driver/Src/stm32f7xx_ll_sdmmc.c ****   assert_param(IS_SDMMC_TRANSFER_DIR(Data->TransferDir));
 443:Drivers/STM32F7xx_HAL_Driver/Src/stm32f7xx_ll_sdmmc.c ****   assert_param(IS_SDMMC_TRANSFER_MODE(Data->TransferMode));
 444:Drivers/STM32F7xx_HAL_Driver/Src/stm32f7xx_ll_sdmmc.c ****   assert_param(IS_SDMMC_DPSM(Data->DPSM));
 445:Drivers/STM32F7xx_HAL_Driver/Src/stm32f7xx_ll_sdmmc.c **** 
 446:Drivers/STM32F7xx_HAL_Driver/Src/stm32f7xx_ll_sdmmc.c ****   /* Set the SDMMC Data TimeOut value */
 447:Drivers/STM32F7xx_HAL_Driver/Src/stm32f7xx_ll_sdmmc.c ****   SDMMCx->DTIMER = Data->DataTimeOut;
 448:Drivers/STM32F7xx_HAL_Driver/Src/stm32f7xx_ll_sdmmc.c **** 
 449:Drivers/STM32F7xx_HAL_Driver/Src/stm32f7xx_ll_sdmmc.c ****   /* Set the SDMMC DataLength value */
 450:Drivers/STM32F7xx_HAL_Driver/Src/stm32f7xx_ll_sdmmc.c ****   SDMMCx->DLEN = Data->DataLength;
 451:Drivers/STM32F7xx_HAL_Driver/Src/stm32f7xx_ll_sdmmc.c **** 
 452:Drivers/STM32F7xx_HAL_Driver/Src/stm32f7xx_ll_sdmmc.c ****   /* Set the SDMMC data configuration parameters */
 453:Drivers/STM32F7xx_HAL_Driver/Src/stm32f7xx_ll_sdmmc.c ****   tmpreg |= (uint32_t)(Data->DataBlockSize |\
 454:Drivers/STM32F7xx_HAL_Driver/Src/stm32f7xx_ll_sdmmc.c ****                        Data->TransferDir   |\
 455:Drivers/STM32F7xx_HAL_Driver/Src/stm32f7xx_ll_sdmmc.c ****                        Data->TransferMode  |\
 456:Drivers/STM32F7xx_HAL_Driver/Src/stm32f7xx_ll_sdmmc.c ****                        Data->DPSM);
 457:Drivers/STM32F7xx_HAL_Driver/Src/stm32f7xx_ll_sdmmc.c ****   
 458:Drivers/STM32F7xx_HAL_Driver/Src/stm32f7xx_ll_sdmmc.c ****   /* Write to SDMMC DCTRL */
 459:Drivers/STM32F7xx_HAL_Driver/Src/stm32f7xx_ll_sdmmc.c ****   MODIFY_REG(SDMMCx->DCTRL, DCTRL_CLEAR_MASK, tmpreg);
 460:Drivers/STM32F7xx_HAL_Driver/Src/stm32f7xx_ll_sdmmc.c **** 
 461:Drivers/STM32F7xx_HAL_Driver/Src/stm32f7xx_ll_sdmmc.c ****   return HAL_OK;
 462:Drivers/STM32F7xx_HAL_Driver/Src/stm32f7xx_ll_sdmmc.c **** 
 463:Drivers/STM32F7xx_HAL_Driver/Src/stm32f7xx_ll_sdmmc.c **** }
 464:Drivers/STM32F7xx_HAL_Driver/Src/stm32f7xx_ll_sdmmc.c **** 
 465:Drivers/STM32F7xx_HAL_Driver/Src/stm32f7xx_ll_sdmmc.c **** /**
 466:Drivers/STM32F7xx_HAL_Driver/Src/stm32f7xx_ll_sdmmc.c ****   * @brief  Returns number of remaining data bytes to be transferred.
 467:Drivers/STM32F7xx_HAL_Driver/Src/stm32f7xx_ll_sdmmc.c ****   * @param  SDMMCx Pointer to SDMMC register base
 468:Drivers/STM32F7xx_HAL_Driver/Src/stm32f7xx_ll_sdmmc.c ****   * @retval Number of remaining data bytes to be transferred
 469:Drivers/STM32F7xx_HAL_Driver/Src/stm32f7xx_ll_sdmmc.c ****   */
 470:Drivers/STM32F7xx_HAL_Driver/Src/stm32f7xx_ll_sdmmc.c **** uint32_t SDMMC_GetDataCounter(SDMMC_TypeDef *SDMMCx)
 471:Drivers/STM32F7xx_HAL_Driver/Src/stm32f7xx_ll_sdmmc.c **** {
 472:Drivers/STM32F7xx_HAL_Driver/Src/stm32f7xx_ll_sdmmc.c ****   return (SDMMCx->DCOUNT);
 473:Drivers/STM32F7xx_HAL_Driver/Src/stm32f7xx_ll_sdmmc.c **** }
 474:Drivers/STM32F7xx_HAL_Driver/Src/stm32f7xx_ll_sdmmc.c **** 
 475:Drivers/STM32F7xx_HAL_Driver/Src/stm32f7xx_ll_sdmmc.c **** /**
 476:Drivers/STM32F7xx_HAL_Driver/Src/stm32f7xx_ll_sdmmc.c ****   * @brief  Get the FIFO data
 477:Drivers/STM32F7xx_HAL_Driver/Src/stm32f7xx_ll_sdmmc.c ****   * @param  SDMMCx Pointer to SDMMC register base 
 478:Drivers/STM32F7xx_HAL_Driver/Src/stm32f7xx_ll_sdmmc.c ****   * @retval Data received
 479:Drivers/STM32F7xx_HAL_Driver/Src/stm32f7xx_ll_sdmmc.c ****   */
 480:Drivers/STM32F7xx_HAL_Driver/Src/stm32f7xx_ll_sdmmc.c **** uint32_t SDMMC_GetFIFOCount(SDMMC_TypeDef *SDMMCx)
 481:Drivers/STM32F7xx_HAL_Driver/Src/stm32f7xx_ll_sdmmc.c **** {
 482:Drivers/STM32F7xx_HAL_Driver/Src/stm32f7xx_ll_sdmmc.c ****   return (SDMMCx->FIFO);
 483:Drivers/STM32F7xx_HAL_Driver/Src/stm32f7xx_ll_sdmmc.c **** }
 484:Drivers/STM32F7xx_HAL_Driver/Src/stm32f7xx_ll_sdmmc.c **** 
 485:Drivers/STM32F7xx_HAL_Driver/Src/stm32f7xx_ll_sdmmc.c **** /**
 486:Drivers/STM32F7xx_HAL_Driver/Src/stm32f7xx_ll_sdmmc.c ****   * @brief  Sets one of the two options of inserting read wait interval.
 487:Drivers/STM32F7xx_HAL_Driver/Src/stm32f7xx_ll_sdmmc.c ****   * @param  SDMMCx Pointer to SDMMC register base   
 488:Drivers/STM32F7xx_HAL_Driver/Src/stm32f7xx_ll_sdmmc.c ****   * @param  SDMMC_ReadWaitMode SDMMC Read Wait operation mode.
ARM GAS  C:\Users\Student\AppData\Local\Temp\ccPRdzQ1.s 			page 10


 489:Drivers/STM32F7xx_HAL_Driver/Src/stm32f7xx_ll_sdmmc.c ****   *          This parameter can be:
 490:Drivers/STM32F7xx_HAL_Driver/Src/stm32f7xx_ll_sdmmc.c ****   *            @arg SDMMC_READ_WAIT_MODE_CLK: Read Wait control by stopping SDMMCCLK
 491:Drivers/STM32F7xx_HAL_Driver/Src/stm32f7xx_ll_sdmmc.c ****   *            @arg SDMMC_READ_WAIT_MODE_DATA2: Read Wait control using SDMMC_DATA2
 492:Drivers/STM32F7xx_HAL_Driver/Src/stm32f7xx_ll_sdmmc.c ****   * @retval None
 493:Drivers/STM32F7xx_HAL_Driver/Src/stm32f7xx_ll_sdmmc.c ****   */
 494:Drivers/STM32F7xx_HAL_Driver/Src/stm32f7xx_ll_sdmmc.c **** HAL_StatusTypeDef SDMMC_SetSDMMCReadWaitMode(SDMMC_TypeDef *SDMMCx, uint32_t SDMMC_ReadWaitMode)
 495:Drivers/STM32F7xx_HAL_Driver/Src/stm32f7xx_ll_sdmmc.c **** {
 496:Drivers/STM32F7xx_HAL_Driver/Src/stm32f7xx_ll_sdmmc.c ****   /* Check the parameters */
 497:Drivers/STM32F7xx_HAL_Driver/Src/stm32f7xx_ll_sdmmc.c ****   assert_param(IS_SDMMC_READWAIT_MODE(SDMMC_ReadWaitMode));
 498:Drivers/STM32F7xx_HAL_Driver/Src/stm32f7xx_ll_sdmmc.c **** 
 499:Drivers/STM32F7xx_HAL_Driver/Src/stm32f7xx_ll_sdmmc.c ****   /* Set SDMMC read wait mode */
 500:Drivers/STM32F7xx_HAL_Driver/Src/stm32f7xx_ll_sdmmc.c ****   MODIFY_REG(SDMMCx->DCTRL, SDMMC_DCTRL_RWMOD, SDMMC_ReadWaitMode);
 501:Drivers/STM32F7xx_HAL_Driver/Src/stm32f7xx_ll_sdmmc.c ****   
 502:Drivers/STM32F7xx_HAL_Driver/Src/stm32f7xx_ll_sdmmc.c ****   return HAL_OK;  
 503:Drivers/STM32F7xx_HAL_Driver/Src/stm32f7xx_ll_sdmmc.c **** }
 504:Drivers/STM32F7xx_HAL_Driver/Src/stm32f7xx_ll_sdmmc.c **** 
 505:Drivers/STM32F7xx_HAL_Driver/Src/stm32f7xx_ll_sdmmc.c **** /**
 506:Drivers/STM32F7xx_HAL_Driver/Src/stm32f7xx_ll_sdmmc.c ****   * @}
 507:Drivers/STM32F7xx_HAL_Driver/Src/stm32f7xx_ll_sdmmc.c ****   */
 508:Drivers/STM32F7xx_HAL_Driver/Src/stm32f7xx_ll_sdmmc.c **** 
 509:Drivers/STM32F7xx_HAL_Driver/Src/stm32f7xx_ll_sdmmc.c **** 
 510:Drivers/STM32F7xx_HAL_Driver/Src/stm32f7xx_ll_sdmmc.c **** /** @defgroup HAL_SDMMC_LL_Group4 Command management functions 
 511:Drivers/STM32F7xx_HAL_Driver/Src/stm32f7xx_ll_sdmmc.c ****  *  @brief   Data transfers functions 
 512:Drivers/STM32F7xx_HAL_Driver/Src/stm32f7xx_ll_sdmmc.c ****  *
 513:Drivers/STM32F7xx_HAL_Driver/Src/stm32f7xx_ll_sdmmc.c **** @verbatim   
 514:Drivers/STM32F7xx_HAL_Driver/Src/stm32f7xx_ll_sdmmc.c ****  ===============================================================================
 515:Drivers/STM32F7xx_HAL_Driver/Src/stm32f7xx_ll_sdmmc.c ****                    ##### Commands management functions #####
 516:Drivers/STM32F7xx_HAL_Driver/Src/stm32f7xx_ll_sdmmc.c ****  ===============================================================================  
 517:Drivers/STM32F7xx_HAL_Driver/Src/stm32f7xx_ll_sdmmc.c ****     [..]
 518:Drivers/STM32F7xx_HAL_Driver/Src/stm32f7xx_ll_sdmmc.c ****     This subsection provides a set of functions allowing to manage the needed commands.
 519:Drivers/STM32F7xx_HAL_Driver/Src/stm32f7xx_ll_sdmmc.c **** 
 520:Drivers/STM32F7xx_HAL_Driver/Src/stm32f7xx_ll_sdmmc.c **** @endverbatim
 521:Drivers/STM32F7xx_HAL_Driver/Src/stm32f7xx_ll_sdmmc.c ****   * @{
 522:Drivers/STM32F7xx_HAL_Driver/Src/stm32f7xx_ll_sdmmc.c ****   */
 523:Drivers/STM32F7xx_HAL_Driver/Src/stm32f7xx_ll_sdmmc.c **** 
 524:Drivers/STM32F7xx_HAL_Driver/Src/stm32f7xx_ll_sdmmc.c **** /**
 525:Drivers/STM32F7xx_HAL_Driver/Src/stm32f7xx_ll_sdmmc.c ****   * @brief  Send the Data Block Lenght command and check the response
 526:Drivers/STM32F7xx_HAL_Driver/Src/stm32f7xx_ll_sdmmc.c ****   * @param  SDMMCx Pointer to SDMMC register base 
 527:Drivers/STM32F7xx_HAL_Driver/Src/stm32f7xx_ll_sdmmc.c ****   * @retval HAL status
 528:Drivers/STM32F7xx_HAL_Driver/Src/stm32f7xx_ll_sdmmc.c ****   */
 529:Drivers/STM32F7xx_HAL_Driver/Src/stm32f7xx_ll_sdmmc.c **** uint32_t SDMMC_CmdBlockLength(SDMMC_TypeDef *SDMMCx, uint32_t BlockSize)
 530:Drivers/STM32F7xx_HAL_Driver/Src/stm32f7xx_ll_sdmmc.c **** {
 531:Drivers/STM32F7xx_HAL_Driver/Src/stm32f7xx_ll_sdmmc.c ****   SDMMC_CmdInitTypeDef  sdmmc_cmdinit;
 532:Drivers/STM32F7xx_HAL_Driver/Src/stm32f7xx_ll_sdmmc.c ****   uint32_t errorstate = SDMMC_ERROR_NONE;
 533:Drivers/STM32F7xx_HAL_Driver/Src/stm32f7xx_ll_sdmmc.c ****   
 534:Drivers/STM32F7xx_HAL_Driver/Src/stm32f7xx_ll_sdmmc.c ****   /* Set Block Size for Card */ 
 535:Drivers/STM32F7xx_HAL_Driver/Src/stm32f7xx_ll_sdmmc.c ****   sdmmc_cmdinit.Argument         = (uint32_t)BlockSize;
 536:Drivers/STM32F7xx_HAL_Driver/Src/stm32f7xx_ll_sdmmc.c ****   sdmmc_cmdinit.CmdIndex         = SDMMC_CMD_SET_BLOCKLEN;
 537:Drivers/STM32F7xx_HAL_Driver/Src/stm32f7xx_ll_sdmmc.c ****   sdmmc_cmdinit.Response         = SDMMC_RESPONSE_SHORT;
 538:Drivers/STM32F7xx_HAL_Driver/Src/stm32f7xx_ll_sdmmc.c ****   sdmmc_cmdinit.WaitForInterrupt = SDMMC_WAIT_NO;
 539:Drivers/STM32F7xx_HAL_Driver/Src/stm32f7xx_ll_sdmmc.c ****   sdmmc_cmdinit.CPSM             = SDMMC_CPSM_ENABLE;
 540:Drivers/STM32F7xx_HAL_Driver/Src/stm32f7xx_ll_sdmmc.c ****   SDMMC_SendCommand(SDMMCx, &sdmmc_cmdinit);
 541:Drivers/STM32F7xx_HAL_Driver/Src/stm32f7xx_ll_sdmmc.c ****   
 542:Drivers/STM32F7xx_HAL_Driver/Src/stm32f7xx_ll_sdmmc.c ****   /* Check for error conditions */
 543:Drivers/STM32F7xx_HAL_Driver/Src/stm32f7xx_ll_sdmmc.c ****   errorstate = SDMMC_GetCmdResp1(SDMMCx, SDMMC_CMD_SET_BLOCKLEN, SDMMC_CMDTIMEOUT);
 544:Drivers/STM32F7xx_HAL_Driver/Src/stm32f7xx_ll_sdmmc.c **** 
 545:Drivers/STM32F7xx_HAL_Driver/Src/stm32f7xx_ll_sdmmc.c ****   return errorstate;
ARM GAS  C:\Users\Student\AppData\Local\Temp\ccPRdzQ1.s 			page 11


 546:Drivers/STM32F7xx_HAL_Driver/Src/stm32f7xx_ll_sdmmc.c **** }
 547:Drivers/STM32F7xx_HAL_Driver/Src/stm32f7xx_ll_sdmmc.c **** 
 548:Drivers/STM32F7xx_HAL_Driver/Src/stm32f7xx_ll_sdmmc.c **** /**
 549:Drivers/STM32F7xx_HAL_Driver/Src/stm32f7xx_ll_sdmmc.c ****   * @brief  Send the Read Single Block command and check the response
 550:Drivers/STM32F7xx_HAL_Driver/Src/stm32f7xx_ll_sdmmc.c ****   * @param  SDMMCx Pointer to SDMMC register base 
 551:Drivers/STM32F7xx_HAL_Driver/Src/stm32f7xx_ll_sdmmc.c ****   * @retval HAL status
 552:Drivers/STM32F7xx_HAL_Driver/Src/stm32f7xx_ll_sdmmc.c ****   */
 553:Drivers/STM32F7xx_HAL_Driver/Src/stm32f7xx_ll_sdmmc.c **** uint32_t SDMMC_CmdReadSingleBlock(SDMMC_TypeDef *SDMMCx, uint32_t ReadAdd)
 554:Drivers/STM32F7xx_HAL_Driver/Src/stm32f7xx_ll_sdmmc.c **** {
 555:Drivers/STM32F7xx_HAL_Driver/Src/stm32f7xx_ll_sdmmc.c ****   SDMMC_CmdInitTypeDef  sdmmc_cmdinit;
 556:Drivers/STM32F7xx_HAL_Driver/Src/stm32f7xx_ll_sdmmc.c ****   uint32_t errorstate = SDMMC_ERROR_NONE;
 557:Drivers/STM32F7xx_HAL_Driver/Src/stm32f7xx_ll_sdmmc.c ****   
 558:Drivers/STM32F7xx_HAL_Driver/Src/stm32f7xx_ll_sdmmc.c ****   /* Set Block Size for Card */ 
 559:Drivers/STM32F7xx_HAL_Driver/Src/stm32f7xx_ll_sdmmc.c ****   sdmmc_cmdinit.Argument         = (uint32_t)ReadAdd;
 560:Drivers/STM32F7xx_HAL_Driver/Src/stm32f7xx_ll_sdmmc.c ****   sdmmc_cmdinit.CmdIndex         = SDMMC_CMD_READ_SINGLE_BLOCK;
 561:Drivers/STM32F7xx_HAL_Driver/Src/stm32f7xx_ll_sdmmc.c ****   sdmmc_cmdinit.Response         = SDMMC_RESPONSE_SHORT;
 562:Drivers/STM32F7xx_HAL_Driver/Src/stm32f7xx_ll_sdmmc.c ****   sdmmc_cmdinit.WaitForInterrupt = SDMMC_WAIT_NO;
 563:Drivers/STM32F7xx_HAL_Driver/Src/stm32f7xx_ll_sdmmc.c ****   sdmmc_cmdinit.CPSM             = SDMMC_CPSM_ENABLE;
 564:Drivers/STM32F7xx_HAL_Driver/Src/stm32f7xx_ll_sdmmc.c ****   SDMMC_SendCommand(SDMMCx, &sdmmc_cmdinit);
 565:Drivers/STM32F7xx_HAL_Driver/Src/stm32f7xx_ll_sdmmc.c ****   
 566:Drivers/STM32F7xx_HAL_Driver/Src/stm32f7xx_ll_sdmmc.c ****   /* Check for error conditions */
 567:Drivers/STM32F7xx_HAL_Driver/Src/stm32f7xx_ll_sdmmc.c ****   errorstate = SDMMC_GetCmdResp1(SDMMCx, SDMMC_CMD_READ_SINGLE_BLOCK, SDMMC_CMDTIMEOUT);
 568:Drivers/STM32F7xx_HAL_Driver/Src/stm32f7xx_ll_sdmmc.c **** 
 569:Drivers/STM32F7xx_HAL_Driver/Src/stm32f7xx_ll_sdmmc.c ****   return errorstate;
 570:Drivers/STM32F7xx_HAL_Driver/Src/stm32f7xx_ll_sdmmc.c **** }
 571:Drivers/STM32F7xx_HAL_Driver/Src/stm32f7xx_ll_sdmmc.c **** 
 572:Drivers/STM32F7xx_HAL_Driver/Src/stm32f7xx_ll_sdmmc.c **** /**
 573:Drivers/STM32F7xx_HAL_Driver/Src/stm32f7xx_ll_sdmmc.c ****   * @brief  Send the Read Multi Block command and check the response
 574:Drivers/STM32F7xx_HAL_Driver/Src/stm32f7xx_ll_sdmmc.c ****   * @param  SDMMCx Pointer to SDMMC register base 
 575:Drivers/STM32F7xx_HAL_Driver/Src/stm32f7xx_ll_sdmmc.c ****   * @retval HAL status
 576:Drivers/STM32F7xx_HAL_Driver/Src/stm32f7xx_ll_sdmmc.c ****   */
 577:Drivers/STM32F7xx_HAL_Driver/Src/stm32f7xx_ll_sdmmc.c **** uint32_t SDMMC_CmdReadMultiBlock(SDMMC_TypeDef *SDMMCx, uint32_t ReadAdd)
 578:Drivers/STM32F7xx_HAL_Driver/Src/stm32f7xx_ll_sdmmc.c **** {
 579:Drivers/STM32F7xx_HAL_Driver/Src/stm32f7xx_ll_sdmmc.c ****   SDMMC_CmdInitTypeDef  sdmmc_cmdinit;
 580:Drivers/STM32F7xx_HAL_Driver/Src/stm32f7xx_ll_sdmmc.c ****   uint32_t errorstate = SDMMC_ERROR_NONE;
 581:Drivers/STM32F7xx_HAL_Driver/Src/stm32f7xx_ll_sdmmc.c ****   
 582:Drivers/STM32F7xx_HAL_Driver/Src/stm32f7xx_ll_sdmmc.c ****   /* Set Block Size for Card */ 
 583:Drivers/STM32F7xx_HAL_Driver/Src/stm32f7xx_ll_sdmmc.c ****   sdmmc_cmdinit.Argument         = (uint32_t)ReadAdd;
 584:Drivers/STM32F7xx_HAL_Driver/Src/stm32f7xx_ll_sdmmc.c ****   sdmmc_cmdinit.CmdIndex         = SDMMC_CMD_READ_MULT_BLOCK;
 585:Drivers/STM32F7xx_HAL_Driver/Src/stm32f7xx_ll_sdmmc.c ****   sdmmc_cmdinit.Response         = SDMMC_RESPONSE_SHORT;
 586:Drivers/STM32F7xx_HAL_Driver/Src/stm32f7xx_ll_sdmmc.c ****   sdmmc_cmdinit.WaitForInterrupt = SDMMC_WAIT_NO;
 587:Drivers/STM32F7xx_HAL_Driver/Src/stm32f7xx_ll_sdmmc.c ****   sdmmc_cmdinit.CPSM             = SDMMC_CPSM_ENABLE;
 588:Drivers/STM32F7xx_HAL_Driver/Src/stm32f7xx_ll_sdmmc.c ****   SDMMC_SendCommand(SDMMCx, &sdmmc_cmdinit);
 589:Drivers/STM32F7xx_HAL_Driver/Src/stm32f7xx_ll_sdmmc.c ****   
 590:Drivers/STM32F7xx_HAL_Driver/Src/stm32f7xx_ll_sdmmc.c ****   /* Check for error conditions */
 591:Drivers/STM32F7xx_HAL_Driver/Src/stm32f7xx_ll_sdmmc.c ****   errorstate = SDMMC_GetCmdResp1(SDMMCx, SDMMC_CMD_READ_MULT_BLOCK, SDMMC_CMDTIMEOUT);
 592:Drivers/STM32F7xx_HAL_Driver/Src/stm32f7xx_ll_sdmmc.c **** 
 593:Drivers/STM32F7xx_HAL_Driver/Src/stm32f7xx_ll_sdmmc.c ****   return errorstate;
 594:Drivers/STM32F7xx_HAL_Driver/Src/stm32f7xx_ll_sdmmc.c **** }
 595:Drivers/STM32F7xx_HAL_Driver/Src/stm32f7xx_ll_sdmmc.c **** 
 596:Drivers/STM32F7xx_HAL_Driver/Src/stm32f7xx_ll_sdmmc.c **** /**
 597:Drivers/STM32F7xx_HAL_Driver/Src/stm32f7xx_ll_sdmmc.c ****   * @brief  Send the Write Single Block command and check the response
 598:Drivers/STM32F7xx_HAL_Driver/Src/stm32f7xx_ll_sdmmc.c ****   * @param  SDMMCx Pointer to SDMMC register base 
 599:Drivers/STM32F7xx_HAL_Driver/Src/stm32f7xx_ll_sdmmc.c ****   * @retval HAL status
 600:Drivers/STM32F7xx_HAL_Driver/Src/stm32f7xx_ll_sdmmc.c ****   */
 601:Drivers/STM32F7xx_HAL_Driver/Src/stm32f7xx_ll_sdmmc.c **** uint32_t SDMMC_CmdWriteSingleBlock(SDMMC_TypeDef *SDMMCx, uint32_t WriteAdd)
 602:Drivers/STM32F7xx_HAL_Driver/Src/stm32f7xx_ll_sdmmc.c **** {
ARM GAS  C:\Users\Student\AppData\Local\Temp\ccPRdzQ1.s 			page 12


 603:Drivers/STM32F7xx_HAL_Driver/Src/stm32f7xx_ll_sdmmc.c ****   SDMMC_CmdInitTypeDef  sdmmc_cmdinit;
 604:Drivers/STM32F7xx_HAL_Driver/Src/stm32f7xx_ll_sdmmc.c ****   uint32_t errorstate = SDMMC_ERROR_NONE;
 605:Drivers/STM32F7xx_HAL_Driver/Src/stm32f7xx_ll_sdmmc.c ****   
 606:Drivers/STM32F7xx_HAL_Driver/Src/stm32f7xx_ll_sdmmc.c ****   /* Set Block Size for Card */ 
 607:Drivers/STM32F7xx_HAL_Driver/Src/stm32f7xx_ll_sdmmc.c ****   sdmmc_cmdinit.Argument         = (uint32_t)WriteAdd;
 608:Drivers/STM32F7xx_HAL_Driver/Src/stm32f7xx_ll_sdmmc.c ****   sdmmc_cmdinit.CmdIndex         = SDMMC_CMD_WRITE_SINGLE_BLOCK;
 609:Drivers/STM32F7xx_HAL_Driver/Src/stm32f7xx_ll_sdmmc.c ****   sdmmc_cmdinit.Response         = SDMMC_RESPONSE_SHORT;
 610:Drivers/STM32F7xx_HAL_Driver/Src/stm32f7xx_ll_sdmmc.c ****   sdmmc_cmdinit.WaitForInterrupt = SDMMC_WAIT_NO;
 611:Drivers/STM32F7xx_HAL_Driver/Src/stm32f7xx_ll_sdmmc.c ****   sdmmc_cmdinit.CPSM             = SDMMC_CPSM_ENABLE;
 612:Drivers/STM32F7xx_HAL_Driver/Src/stm32f7xx_ll_sdmmc.c ****   SDMMC_SendCommand(SDMMCx, &sdmmc_cmdinit);
 613:Drivers/STM32F7xx_HAL_Driver/Src/stm32f7xx_ll_sdmmc.c ****   
 614:Drivers/STM32F7xx_HAL_Driver/Src/stm32f7xx_ll_sdmmc.c ****   /* Check for error conditions */
 615:Drivers/STM32F7xx_HAL_Driver/Src/stm32f7xx_ll_sdmmc.c ****   errorstate = SDMMC_GetCmdResp1(SDMMCx, SDMMC_CMD_WRITE_SINGLE_BLOCK, SDMMC_CMDTIMEOUT);
 616:Drivers/STM32F7xx_HAL_Driver/Src/stm32f7xx_ll_sdmmc.c **** 
 617:Drivers/STM32F7xx_HAL_Driver/Src/stm32f7xx_ll_sdmmc.c ****   return errorstate;
 618:Drivers/STM32F7xx_HAL_Driver/Src/stm32f7xx_ll_sdmmc.c **** }
 619:Drivers/STM32F7xx_HAL_Driver/Src/stm32f7xx_ll_sdmmc.c **** 
 620:Drivers/STM32F7xx_HAL_Driver/Src/stm32f7xx_ll_sdmmc.c **** /**
 621:Drivers/STM32F7xx_HAL_Driver/Src/stm32f7xx_ll_sdmmc.c ****   * @brief  Send the Write Multi Block command and check the response
 622:Drivers/STM32F7xx_HAL_Driver/Src/stm32f7xx_ll_sdmmc.c ****   * @param  SDMMCx Pointer to SDMMC register base 
 623:Drivers/STM32F7xx_HAL_Driver/Src/stm32f7xx_ll_sdmmc.c ****   * @retval HAL status
 624:Drivers/STM32F7xx_HAL_Driver/Src/stm32f7xx_ll_sdmmc.c ****   */
 625:Drivers/STM32F7xx_HAL_Driver/Src/stm32f7xx_ll_sdmmc.c **** uint32_t SDMMC_CmdWriteMultiBlock(SDMMC_TypeDef *SDMMCx, uint32_t WriteAdd)
 626:Drivers/STM32F7xx_HAL_Driver/Src/stm32f7xx_ll_sdmmc.c **** {
 627:Drivers/STM32F7xx_HAL_Driver/Src/stm32f7xx_ll_sdmmc.c ****   SDMMC_CmdInitTypeDef  sdmmc_cmdinit;
 628:Drivers/STM32F7xx_HAL_Driver/Src/stm32f7xx_ll_sdmmc.c ****   uint32_t errorstate = SDMMC_ERROR_NONE;
 629:Drivers/STM32F7xx_HAL_Driver/Src/stm32f7xx_ll_sdmmc.c ****   
 630:Drivers/STM32F7xx_HAL_Driver/Src/stm32f7xx_ll_sdmmc.c ****   /* Set Block Size for Card */ 
 631:Drivers/STM32F7xx_HAL_Driver/Src/stm32f7xx_ll_sdmmc.c ****   sdmmc_cmdinit.Argument         = (uint32_t)WriteAdd;
 632:Drivers/STM32F7xx_HAL_Driver/Src/stm32f7xx_ll_sdmmc.c ****   sdmmc_cmdinit.CmdIndex         = SDMMC_CMD_WRITE_MULT_BLOCK;
 633:Drivers/STM32F7xx_HAL_Driver/Src/stm32f7xx_ll_sdmmc.c ****   sdmmc_cmdinit.Response         = SDMMC_RESPONSE_SHORT;
 634:Drivers/STM32F7xx_HAL_Driver/Src/stm32f7xx_ll_sdmmc.c ****   sdmmc_cmdinit.WaitForInterrupt = SDMMC_WAIT_NO;
 635:Drivers/STM32F7xx_HAL_Driver/Src/stm32f7xx_ll_sdmmc.c ****   sdmmc_cmdinit.CPSM             = SDMMC_CPSM_ENABLE;
 636:Drivers/STM32F7xx_HAL_Driver/Src/stm32f7xx_ll_sdmmc.c ****   SDMMC_SendCommand(SDMMCx, &sdmmc_cmdinit);
 637:Drivers/STM32F7xx_HAL_Driver/Src/stm32f7xx_ll_sdmmc.c ****   
 638:Drivers/STM32F7xx_HAL_Driver/Src/stm32f7xx_ll_sdmmc.c ****   /* Check for error conditions */
 639:Drivers/STM32F7xx_HAL_Driver/Src/stm32f7xx_ll_sdmmc.c ****   errorstate = SDMMC_GetCmdResp1(SDMMCx, SDMMC_CMD_WRITE_MULT_BLOCK, SDMMC_CMDTIMEOUT);
 640:Drivers/STM32F7xx_HAL_Driver/Src/stm32f7xx_ll_sdmmc.c **** 
 641:Drivers/STM32F7xx_HAL_Driver/Src/stm32f7xx_ll_sdmmc.c ****   return errorstate;
 642:Drivers/STM32F7xx_HAL_Driver/Src/stm32f7xx_ll_sdmmc.c **** }
 643:Drivers/STM32F7xx_HAL_Driver/Src/stm32f7xx_ll_sdmmc.c **** 
 644:Drivers/STM32F7xx_HAL_Driver/Src/stm32f7xx_ll_sdmmc.c **** /**
 645:Drivers/STM32F7xx_HAL_Driver/Src/stm32f7xx_ll_sdmmc.c ****   * @brief  Send the Start Address Erase command for SD and check the response
 646:Drivers/STM32F7xx_HAL_Driver/Src/stm32f7xx_ll_sdmmc.c ****   * @param  SDMMCx Pointer to SDMMC register base 
 647:Drivers/STM32F7xx_HAL_Driver/Src/stm32f7xx_ll_sdmmc.c ****   * @retval HAL status
 648:Drivers/STM32F7xx_HAL_Driver/Src/stm32f7xx_ll_sdmmc.c ****   */
 649:Drivers/STM32F7xx_HAL_Driver/Src/stm32f7xx_ll_sdmmc.c **** uint32_t SDMMC_CmdSDEraseStartAdd(SDMMC_TypeDef *SDMMCx, uint32_t StartAdd)
 650:Drivers/STM32F7xx_HAL_Driver/Src/stm32f7xx_ll_sdmmc.c **** {
 651:Drivers/STM32F7xx_HAL_Driver/Src/stm32f7xx_ll_sdmmc.c ****   SDMMC_CmdInitTypeDef  sdmmc_cmdinit;
 652:Drivers/STM32F7xx_HAL_Driver/Src/stm32f7xx_ll_sdmmc.c ****   uint32_t errorstate = SDMMC_ERROR_NONE;
 653:Drivers/STM32F7xx_HAL_Driver/Src/stm32f7xx_ll_sdmmc.c ****   
 654:Drivers/STM32F7xx_HAL_Driver/Src/stm32f7xx_ll_sdmmc.c ****   /* Set Block Size for Card */ 
 655:Drivers/STM32F7xx_HAL_Driver/Src/stm32f7xx_ll_sdmmc.c ****   sdmmc_cmdinit.Argument         = (uint32_t)StartAdd;
 656:Drivers/STM32F7xx_HAL_Driver/Src/stm32f7xx_ll_sdmmc.c ****   sdmmc_cmdinit.CmdIndex         = SDMMC_CMD_SD_ERASE_GRP_START;
 657:Drivers/STM32F7xx_HAL_Driver/Src/stm32f7xx_ll_sdmmc.c ****   sdmmc_cmdinit.Response         = SDMMC_RESPONSE_SHORT;
 658:Drivers/STM32F7xx_HAL_Driver/Src/stm32f7xx_ll_sdmmc.c ****   sdmmc_cmdinit.WaitForInterrupt = SDMMC_WAIT_NO;
 659:Drivers/STM32F7xx_HAL_Driver/Src/stm32f7xx_ll_sdmmc.c ****   sdmmc_cmdinit.CPSM             = SDMMC_CPSM_ENABLE;
ARM GAS  C:\Users\Student\AppData\Local\Temp\ccPRdzQ1.s 			page 13


 660:Drivers/STM32F7xx_HAL_Driver/Src/stm32f7xx_ll_sdmmc.c ****   SDMMC_SendCommand(SDMMCx, &sdmmc_cmdinit);
 661:Drivers/STM32F7xx_HAL_Driver/Src/stm32f7xx_ll_sdmmc.c ****   
 662:Drivers/STM32F7xx_HAL_Driver/Src/stm32f7xx_ll_sdmmc.c ****   /* Check for error conditions */
 663:Drivers/STM32F7xx_HAL_Driver/Src/stm32f7xx_ll_sdmmc.c ****   errorstate = SDMMC_GetCmdResp1(SDMMCx, SDMMC_CMD_SD_ERASE_GRP_START, SDMMC_CMDTIMEOUT);
 664:Drivers/STM32F7xx_HAL_Driver/Src/stm32f7xx_ll_sdmmc.c **** 
 665:Drivers/STM32F7xx_HAL_Driver/Src/stm32f7xx_ll_sdmmc.c ****   return errorstate;
 666:Drivers/STM32F7xx_HAL_Driver/Src/stm32f7xx_ll_sdmmc.c **** }
 667:Drivers/STM32F7xx_HAL_Driver/Src/stm32f7xx_ll_sdmmc.c **** 
 668:Drivers/STM32F7xx_HAL_Driver/Src/stm32f7xx_ll_sdmmc.c **** /**
 669:Drivers/STM32F7xx_HAL_Driver/Src/stm32f7xx_ll_sdmmc.c ****   * @brief  Send the End Address Erase command for SD and check the response
 670:Drivers/STM32F7xx_HAL_Driver/Src/stm32f7xx_ll_sdmmc.c ****   * @param  SDMMCx Pointer to SDMMC register base 
 671:Drivers/STM32F7xx_HAL_Driver/Src/stm32f7xx_ll_sdmmc.c ****   * @retval HAL status
 672:Drivers/STM32F7xx_HAL_Driver/Src/stm32f7xx_ll_sdmmc.c ****   */
 673:Drivers/STM32F7xx_HAL_Driver/Src/stm32f7xx_ll_sdmmc.c **** uint32_t SDMMC_CmdSDEraseEndAdd(SDMMC_TypeDef *SDMMCx, uint32_t EndAdd)
 674:Drivers/STM32F7xx_HAL_Driver/Src/stm32f7xx_ll_sdmmc.c **** {
 675:Drivers/STM32F7xx_HAL_Driver/Src/stm32f7xx_ll_sdmmc.c ****   SDMMC_CmdInitTypeDef  sdmmc_cmdinit;
 676:Drivers/STM32F7xx_HAL_Driver/Src/stm32f7xx_ll_sdmmc.c ****   uint32_t errorstate = SDMMC_ERROR_NONE;
 677:Drivers/STM32F7xx_HAL_Driver/Src/stm32f7xx_ll_sdmmc.c ****   
 678:Drivers/STM32F7xx_HAL_Driver/Src/stm32f7xx_ll_sdmmc.c ****   /* Set Block Size for Card */ 
 679:Drivers/STM32F7xx_HAL_Driver/Src/stm32f7xx_ll_sdmmc.c ****   sdmmc_cmdinit.Argument         = (uint32_t)EndAdd;
 680:Drivers/STM32F7xx_HAL_Driver/Src/stm32f7xx_ll_sdmmc.c ****   sdmmc_cmdinit.CmdIndex         = SDMMC_CMD_SD_ERASE_GRP_END;
 681:Drivers/STM32F7xx_HAL_Driver/Src/stm32f7xx_ll_sdmmc.c ****   sdmmc_cmdinit.Response         = SDMMC_RESPONSE_SHORT;
 682:Drivers/STM32F7xx_HAL_Driver/Src/stm32f7xx_ll_sdmmc.c ****   sdmmc_cmdinit.WaitForInterrupt = SDMMC_WAIT_NO;
 683:Drivers/STM32F7xx_HAL_Driver/Src/stm32f7xx_ll_sdmmc.c ****   sdmmc_cmdinit.CPSM             = SDMMC_CPSM_ENABLE;
 684:Drivers/STM32F7xx_HAL_Driver/Src/stm32f7xx_ll_sdmmc.c ****   SDMMC_SendCommand(SDMMCx, &sdmmc_cmdinit);
 685:Drivers/STM32F7xx_HAL_Driver/Src/stm32f7xx_ll_sdmmc.c ****   
 686:Drivers/STM32F7xx_HAL_Driver/Src/stm32f7xx_ll_sdmmc.c ****   /* Check for error conditions */
 687:Drivers/STM32F7xx_HAL_Driver/Src/stm32f7xx_ll_sdmmc.c ****   errorstate = SDMMC_GetCmdResp1(SDMMCx, SDMMC_CMD_SD_ERASE_GRP_END, SDMMC_CMDTIMEOUT);
 688:Drivers/STM32F7xx_HAL_Driver/Src/stm32f7xx_ll_sdmmc.c **** 
 689:Drivers/STM32F7xx_HAL_Driver/Src/stm32f7xx_ll_sdmmc.c ****   return errorstate;
 690:Drivers/STM32F7xx_HAL_Driver/Src/stm32f7xx_ll_sdmmc.c **** }
 691:Drivers/STM32F7xx_HAL_Driver/Src/stm32f7xx_ll_sdmmc.c **** 
 692:Drivers/STM32F7xx_HAL_Driver/Src/stm32f7xx_ll_sdmmc.c **** /**
 693:Drivers/STM32F7xx_HAL_Driver/Src/stm32f7xx_ll_sdmmc.c ****   * @brief  Send the Start Address Erase command and check the response
 694:Drivers/STM32F7xx_HAL_Driver/Src/stm32f7xx_ll_sdmmc.c ****   * @param  SDMMCx Pointer to SDMMC register base 
 695:Drivers/STM32F7xx_HAL_Driver/Src/stm32f7xx_ll_sdmmc.c ****   * @retval HAL status
 696:Drivers/STM32F7xx_HAL_Driver/Src/stm32f7xx_ll_sdmmc.c ****   */
 697:Drivers/STM32F7xx_HAL_Driver/Src/stm32f7xx_ll_sdmmc.c **** uint32_t SDMMC_CmdEraseStartAdd(SDMMC_TypeDef *SDMMCx, uint32_t StartAdd)
 698:Drivers/STM32F7xx_HAL_Driver/Src/stm32f7xx_ll_sdmmc.c **** {
 699:Drivers/STM32F7xx_HAL_Driver/Src/stm32f7xx_ll_sdmmc.c ****   SDMMC_CmdInitTypeDef  sdmmc_cmdinit;
 700:Drivers/STM32F7xx_HAL_Driver/Src/stm32f7xx_ll_sdmmc.c ****   uint32_t errorstate = SDMMC_ERROR_NONE;
 701:Drivers/STM32F7xx_HAL_Driver/Src/stm32f7xx_ll_sdmmc.c ****   
 702:Drivers/STM32F7xx_HAL_Driver/Src/stm32f7xx_ll_sdmmc.c ****   /* Set Block Size for Card */ 
 703:Drivers/STM32F7xx_HAL_Driver/Src/stm32f7xx_ll_sdmmc.c ****   sdmmc_cmdinit.Argument         = (uint32_t)StartAdd;
 704:Drivers/STM32F7xx_HAL_Driver/Src/stm32f7xx_ll_sdmmc.c ****   sdmmc_cmdinit.CmdIndex         = SDMMC_CMD_ERASE_GRP_START;
 705:Drivers/STM32F7xx_HAL_Driver/Src/stm32f7xx_ll_sdmmc.c ****   sdmmc_cmdinit.Response         = SDMMC_RESPONSE_SHORT;
 706:Drivers/STM32F7xx_HAL_Driver/Src/stm32f7xx_ll_sdmmc.c ****   sdmmc_cmdinit.WaitForInterrupt = SDMMC_WAIT_NO;
 707:Drivers/STM32F7xx_HAL_Driver/Src/stm32f7xx_ll_sdmmc.c ****   sdmmc_cmdinit.CPSM             = SDMMC_CPSM_ENABLE;
 708:Drivers/STM32F7xx_HAL_Driver/Src/stm32f7xx_ll_sdmmc.c ****   SDMMC_SendCommand(SDMMCx, &sdmmc_cmdinit);
 709:Drivers/STM32F7xx_HAL_Driver/Src/stm32f7xx_ll_sdmmc.c ****   
 710:Drivers/STM32F7xx_HAL_Driver/Src/stm32f7xx_ll_sdmmc.c ****   /* Check for error conditions */
 711:Drivers/STM32F7xx_HAL_Driver/Src/stm32f7xx_ll_sdmmc.c ****   errorstate = SDMMC_GetCmdResp1(SDMMCx, SDMMC_CMD_ERASE_GRP_START, SDMMC_CMDTIMEOUT);
 712:Drivers/STM32F7xx_HAL_Driver/Src/stm32f7xx_ll_sdmmc.c **** 
 713:Drivers/STM32F7xx_HAL_Driver/Src/stm32f7xx_ll_sdmmc.c ****   return errorstate;
 714:Drivers/STM32F7xx_HAL_Driver/Src/stm32f7xx_ll_sdmmc.c **** }
 715:Drivers/STM32F7xx_HAL_Driver/Src/stm32f7xx_ll_sdmmc.c **** 
 716:Drivers/STM32F7xx_HAL_Driver/Src/stm32f7xx_ll_sdmmc.c **** /**
ARM GAS  C:\Users\Student\AppData\Local\Temp\ccPRdzQ1.s 			page 14


 717:Drivers/STM32F7xx_HAL_Driver/Src/stm32f7xx_ll_sdmmc.c ****   * @brief  Send the End Address Erase command and check the response
 718:Drivers/STM32F7xx_HAL_Driver/Src/stm32f7xx_ll_sdmmc.c ****   * @param  SDMMCx Pointer to SDMMC register base 
 719:Drivers/STM32F7xx_HAL_Driver/Src/stm32f7xx_ll_sdmmc.c ****   * @retval HAL status
 720:Drivers/STM32F7xx_HAL_Driver/Src/stm32f7xx_ll_sdmmc.c ****   */
 721:Drivers/STM32F7xx_HAL_Driver/Src/stm32f7xx_ll_sdmmc.c **** uint32_t SDMMC_CmdEraseEndAdd(SDMMC_TypeDef *SDMMCx, uint32_t EndAdd)
 722:Drivers/STM32F7xx_HAL_Driver/Src/stm32f7xx_ll_sdmmc.c **** {
 723:Drivers/STM32F7xx_HAL_Driver/Src/stm32f7xx_ll_sdmmc.c ****   SDMMC_CmdInitTypeDef  sdmmc_cmdinit;
 724:Drivers/STM32F7xx_HAL_Driver/Src/stm32f7xx_ll_sdmmc.c ****   uint32_t errorstate = SDMMC_ERROR_NONE;
 725:Drivers/STM32F7xx_HAL_Driver/Src/stm32f7xx_ll_sdmmc.c ****   
 726:Drivers/STM32F7xx_HAL_Driver/Src/stm32f7xx_ll_sdmmc.c ****   /* Set Block Size for Card */ 
 727:Drivers/STM32F7xx_HAL_Driver/Src/stm32f7xx_ll_sdmmc.c ****   sdmmc_cmdinit.Argument         = (uint32_t)EndAdd;
 728:Drivers/STM32F7xx_HAL_Driver/Src/stm32f7xx_ll_sdmmc.c ****   sdmmc_cmdinit.CmdIndex         = SDMMC_CMD_ERASE_GRP_END;
 729:Drivers/STM32F7xx_HAL_Driver/Src/stm32f7xx_ll_sdmmc.c ****   sdmmc_cmdinit.Response         = SDMMC_RESPONSE_SHORT;
 730:Drivers/STM32F7xx_HAL_Driver/Src/stm32f7xx_ll_sdmmc.c ****   sdmmc_cmdinit.WaitForInterrupt = SDMMC_WAIT_NO;
 731:Drivers/STM32F7xx_HAL_Driver/Src/stm32f7xx_ll_sdmmc.c ****   sdmmc_cmdinit.CPSM             = SDMMC_CPSM_ENABLE;
 732:Drivers/STM32F7xx_HAL_Driver/Src/stm32f7xx_ll_sdmmc.c ****   SDMMC_SendCommand(SDMMCx, &sdmmc_cmdinit);
 733:Drivers/STM32F7xx_HAL_Driver/Src/stm32f7xx_ll_sdmmc.c ****   
 734:Drivers/STM32F7xx_HAL_Driver/Src/stm32f7xx_ll_sdmmc.c ****   /* Check for error conditions */
 735:Drivers/STM32F7xx_HAL_Driver/Src/stm32f7xx_ll_sdmmc.c ****   errorstate = SDMMC_GetCmdResp1(SDMMCx, SDMMC_CMD_ERASE_GRP_END, SDMMC_CMDTIMEOUT);
 736:Drivers/STM32F7xx_HAL_Driver/Src/stm32f7xx_ll_sdmmc.c **** 
 737:Drivers/STM32F7xx_HAL_Driver/Src/stm32f7xx_ll_sdmmc.c ****   return errorstate;
 738:Drivers/STM32F7xx_HAL_Driver/Src/stm32f7xx_ll_sdmmc.c **** }
 739:Drivers/STM32F7xx_HAL_Driver/Src/stm32f7xx_ll_sdmmc.c **** 
 740:Drivers/STM32F7xx_HAL_Driver/Src/stm32f7xx_ll_sdmmc.c **** /**
 741:Drivers/STM32F7xx_HAL_Driver/Src/stm32f7xx_ll_sdmmc.c ****   * @brief  Send the Erase command and check the response
 742:Drivers/STM32F7xx_HAL_Driver/Src/stm32f7xx_ll_sdmmc.c ****   * @param  SDMMCx Pointer to SDMMC register base 
 743:Drivers/STM32F7xx_HAL_Driver/Src/stm32f7xx_ll_sdmmc.c ****   * @retval HAL status
 744:Drivers/STM32F7xx_HAL_Driver/Src/stm32f7xx_ll_sdmmc.c ****   */
 745:Drivers/STM32F7xx_HAL_Driver/Src/stm32f7xx_ll_sdmmc.c **** uint32_t SDMMC_CmdErase(SDMMC_TypeDef *SDMMCx)
 746:Drivers/STM32F7xx_HAL_Driver/Src/stm32f7xx_ll_sdmmc.c **** {
 747:Drivers/STM32F7xx_HAL_Driver/Src/stm32f7xx_ll_sdmmc.c ****   SDMMC_CmdInitTypeDef  sdmmc_cmdinit;
 748:Drivers/STM32F7xx_HAL_Driver/Src/stm32f7xx_ll_sdmmc.c ****   uint32_t errorstate = SDMMC_ERROR_NONE;
 749:Drivers/STM32F7xx_HAL_Driver/Src/stm32f7xx_ll_sdmmc.c ****   
 750:Drivers/STM32F7xx_HAL_Driver/Src/stm32f7xx_ll_sdmmc.c ****   /* Set Block Size for Card */ 
 751:Drivers/STM32F7xx_HAL_Driver/Src/stm32f7xx_ll_sdmmc.c ****   sdmmc_cmdinit.Argument         = 0;
 752:Drivers/STM32F7xx_HAL_Driver/Src/stm32f7xx_ll_sdmmc.c ****   sdmmc_cmdinit.CmdIndex         = SDMMC_CMD_ERASE;
 753:Drivers/STM32F7xx_HAL_Driver/Src/stm32f7xx_ll_sdmmc.c ****   sdmmc_cmdinit.Response         = SDMMC_RESPONSE_SHORT;
 754:Drivers/STM32F7xx_HAL_Driver/Src/stm32f7xx_ll_sdmmc.c ****   sdmmc_cmdinit.WaitForInterrupt = SDMMC_WAIT_NO;
 755:Drivers/STM32F7xx_HAL_Driver/Src/stm32f7xx_ll_sdmmc.c ****   sdmmc_cmdinit.CPSM             = SDMMC_CPSM_ENABLE;
 756:Drivers/STM32F7xx_HAL_Driver/Src/stm32f7xx_ll_sdmmc.c ****   SDMMC_SendCommand(SDMMCx, &sdmmc_cmdinit);
 757:Drivers/STM32F7xx_HAL_Driver/Src/stm32f7xx_ll_sdmmc.c ****   
 758:Drivers/STM32F7xx_HAL_Driver/Src/stm32f7xx_ll_sdmmc.c ****   /* Check for error conditions */
 759:Drivers/STM32F7xx_HAL_Driver/Src/stm32f7xx_ll_sdmmc.c ****   errorstate = SDMMC_GetCmdResp1(SDMMCx, SDMMC_CMD_ERASE, SDMMC_MAXERASETIMEOUT);
 760:Drivers/STM32F7xx_HAL_Driver/Src/stm32f7xx_ll_sdmmc.c **** 
 761:Drivers/STM32F7xx_HAL_Driver/Src/stm32f7xx_ll_sdmmc.c ****   return errorstate;
 762:Drivers/STM32F7xx_HAL_Driver/Src/stm32f7xx_ll_sdmmc.c **** }
 763:Drivers/STM32F7xx_HAL_Driver/Src/stm32f7xx_ll_sdmmc.c **** 
 764:Drivers/STM32F7xx_HAL_Driver/Src/stm32f7xx_ll_sdmmc.c **** /**
 765:Drivers/STM32F7xx_HAL_Driver/Src/stm32f7xx_ll_sdmmc.c ****   * @brief  Send the Stop Transfer command and check the response.
 766:Drivers/STM32F7xx_HAL_Driver/Src/stm32f7xx_ll_sdmmc.c ****   * @param  SDMMCx Pointer to SDMMC register base 
 767:Drivers/STM32F7xx_HAL_Driver/Src/stm32f7xx_ll_sdmmc.c ****   * @retval HAL status
 768:Drivers/STM32F7xx_HAL_Driver/Src/stm32f7xx_ll_sdmmc.c ****   */
 769:Drivers/STM32F7xx_HAL_Driver/Src/stm32f7xx_ll_sdmmc.c **** uint32_t SDMMC_CmdStopTransfer(SDMMC_TypeDef *SDMMCx)
 770:Drivers/STM32F7xx_HAL_Driver/Src/stm32f7xx_ll_sdmmc.c **** {
 771:Drivers/STM32F7xx_HAL_Driver/Src/stm32f7xx_ll_sdmmc.c ****   SDMMC_CmdInitTypeDef  sdmmc_cmdinit;
 772:Drivers/STM32F7xx_HAL_Driver/Src/stm32f7xx_ll_sdmmc.c ****   uint32_t errorstate = SDMMC_ERROR_NONE;
 773:Drivers/STM32F7xx_HAL_Driver/Src/stm32f7xx_ll_sdmmc.c ****   
ARM GAS  C:\Users\Student\AppData\Local\Temp\ccPRdzQ1.s 			page 15


 774:Drivers/STM32F7xx_HAL_Driver/Src/stm32f7xx_ll_sdmmc.c ****   /* Send CMD12 STOP_TRANSMISSION  */
 775:Drivers/STM32F7xx_HAL_Driver/Src/stm32f7xx_ll_sdmmc.c ****   sdmmc_cmdinit.Argument         = 0;
 776:Drivers/STM32F7xx_HAL_Driver/Src/stm32f7xx_ll_sdmmc.c ****   sdmmc_cmdinit.CmdIndex         = SDMMC_CMD_STOP_TRANSMISSION;
 777:Drivers/STM32F7xx_HAL_Driver/Src/stm32f7xx_ll_sdmmc.c ****   sdmmc_cmdinit.Response         = SDMMC_RESPONSE_SHORT;
 778:Drivers/STM32F7xx_HAL_Driver/Src/stm32f7xx_ll_sdmmc.c ****   sdmmc_cmdinit.WaitForInterrupt = SDMMC_WAIT_NO;
 779:Drivers/STM32F7xx_HAL_Driver/Src/stm32f7xx_ll_sdmmc.c ****   sdmmc_cmdinit.CPSM             = SDMMC_CPSM_ENABLE;
 780:Drivers/STM32F7xx_HAL_Driver/Src/stm32f7xx_ll_sdmmc.c ****   SDMMC_SendCommand(SDMMCx, &sdmmc_cmdinit);
 781:Drivers/STM32F7xx_HAL_Driver/Src/stm32f7xx_ll_sdmmc.c ****   
 782:Drivers/STM32F7xx_HAL_Driver/Src/stm32f7xx_ll_sdmmc.c ****   /* Check for error conditions */
 783:Drivers/STM32F7xx_HAL_Driver/Src/stm32f7xx_ll_sdmmc.c ****   errorstate = SDMMC_GetCmdResp1(SDMMCx, SDMMC_CMD_STOP_TRANSMISSION, 100000000/*SDMMC_CMDTIMEOUT*/
 784:Drivers/STM32F7xx_HAL_Driver/Src/stm32f7xx_ll_sdmmc.c **** 
 785:Drivers/STM32F7xx_HAL_Driver/Src/stm32f7xx_ll_sdmmc.c ****   return errorstate;
 786:Drivers/STM32F7xx_HAL_Driver/Src/stm32f7xx_ll_sdmmc.c **** }
 787:Drivers/STM32F7xx_HAL_Driver/Src/stm32f7xx_ll_sdmmc.c **** 
 788:Drivers/STM32F7xx_HAL_Driver/Src/stm32f7xx_ll_sdmmc.c **** /**
 789:Drivers/STM32F7xx_HAL_Driver/Src/stm32f7xx_ll_sdmmc.c ****   * @brief  Send the Select Deselect command and check the response.
 790:Drivers/STM32F7xx_HAL_Driver/Src/stm32f7xx_ll_sdmmc.c ****   * @param  SDMMCx Pointer to SDMMC register base 
 791:Drivers/STM32F7xx_HAL_Driver/Src/stm32f7xx_ll_sdmmc.c ****   * @param  addr Address of the card to be selected  
 792:Drivers/STM32F7xx_HAL_Driver/Src/stm32f7xx_ll_sdmmc.c ****   * @retval HAL status
 793:Drivers/STM32F7xx_HAL_Driver/Src/stm32f7xx_ll_sdmmc.c ****   */
 794:Drivers/STM32F7xx_HAL_Driver/Src/stm32f7xx_ll_sdmmc.c **** uint32_t SDMMC_CmdSelDesel(SDMMC_TypeDef *SDMMCx, uint64_t Addr)
 795:Drivers/STM32F7xx_HAL_Driver/Src/stm32f7xx_ll_sdmmc.c **** {
 796:Drivers/STM32F7xx_HAL_Driver/Src/stm32f7xx_ll_sdmmc.c ****   SDMMC_CmdInitTypeDef  sdmmc_cmdinit;
 797:Drivers/STM32F7xx_HAL_Driver/Src/stm32f7xx_ll_sdmmc.c ****   uint32_t errorstate = SDMMC_ERROR_NONE;
 798:Drivers/STM32F7xx_HAL_Driver/Src/stm32f7xx_ll_sdmmc.c ****   
 799:Drivers/STM32F7xx_HAL_Driver/Src/stm32f7xx_ll_sdmmc.c ****   /* Send CMD7 SDMMC_SEL_DESEL_CARD */
 800:Drivers/STM32F7xx_HAL_Driver/Src/stm32f7xx_ll_sdmmc.c ****   sdmmc_cmdinit.Argument         = (uint32_t)Addr;
 801:Drivers/STM32F7xx_HAL_Driver/Src/stm32f7xx_ll_sdmmc.c ****   sdmmc_cmdinit.CmdIndex         = SDMMC_CMD_SEL_DESEL_CARD;
 802:Drivers/STM32F7xx_HAL_Driver/Src/stm32f7xx_ll_sdmmc.c ****   sdmmc_cmdinit.Response         = SDMMC_RESPONSE_SHORT;
 803:Drivers/STM32F7xx_HAL_Driver/Src/stm32f7xx_ll_sdmmc.c ****   sdmmc_cmdinit.WaitForInterrupt = SDMMC_WAIT_NO;
 804:Drivers/STM32F7xx_HAL_Driver/Src/stm32f7xx_ll_sdmmc.c ****   sdmmc_cmdinit.CPSM             = SDMMC_CPSM_ENABLE;
 805:Drivers/STM32F7xx_HAL_Driver/Src/stm32f7xx_ll_sdmmc.c ****   SDMMC_SendCommand(SDMMCx, &sdmmc_cmdinit);
 806:Drivers/STM32F7xx_HAL_Driver/Src/stm32f7xx_ll_sdmmc.c ****   
 807:Drivers/STM32F7xx_HAL_Driver/Src/stm32f7xx_ll_sdmmc.c ****   /* Check for error conditions */
 808:Drivers/STM32F7xx_HAL_Driver/Src/stm32f7xx_ll_sdmmc.c ****   errorstate = SDMMC_GetCmdResp1(SDMMCx, SDMMC_CMD_SEL_DESEL_CARD, SDMMC_CMDTIMEOUT);
 809:Drivers/STM32F7xx_HAL_Driver/Src/stm32f7xx_ll_sdmmc.c **** 
 810:Drivers/STM32F7xx_HAL_Driver/Src/stm32f7xx_ll_sdmmc.c ****   return errorstate;
 811:Drivers/STM32F7xx_HAL_Driver/Src/stm32f7xx_ll_sdmmc.c **** }
 812:Drivers/STM32F7xx_HAL_Driver/Src/stm32f7xx_ll_sdmmc.c **** 
 813:Drivers/STM32F7xx_HAL_Driver/Src/stm32f7xx_ll_sdmmc.c **** /**
 814:Drivers/STM32F7xx_HAL_Driver/Src/stm32f7xx_ll_sdmmc.c ****   * @brief  Send the Go Idle State command and check the response.
 815:Drivers/STM32F7xx_HAL_Driver/Src/stm32f7xx_ll_sdmmc.c ****   * @param  SDMMCx Pointer to SDMMC register base 
 816:Drivers/STM32F7xx_HAL_Driver/Src/stm32f7xx_ll_sdmmc.c ****   * @retval HAL status
 817:Drivers/STM32F7xx_HAL_Driver/Src/stm32f7xx_ll_sdmmc.c ****   */
 818:Drivers/STM32F7xx_HAL_Driver/Src/stm32f7xx_ll_sdmmc.c **** uint32_t SDMMC_CmdGoIdleState(SDMMC_TypeDef *SDMMCx)
 819:Drivers/STM32F7xx_HAL_Driver/Src/stm32f7xx_ll_sdmmc.c **** {
 820:Drivers/STM32F7xx_HAL_Driver/Src/stm32f7xx_ll_sdmmc.c ****   SDMMC_CmdInitTypeDef  sdmmc_cmdinit;
 821:Drivers/STM32F7xx_HAL_Driver/Src/stm32f7xx_ll_sdmmc.c ****   uint32_t errorstate = SDMMC_ERROR_NONE;
 822:Drivers/STM32F7xx_HAL_Driver/Src/stm32f7xx_ll_sdmmc.c ****   
 823:Drivers/STM32F7xx_HAL_Driver/Src/stm32f7xx_ll_sdmmc.c ****   sdmmc_cmdinit.Argument         = 0;
 824:Drivers/STM32F7xx_HAL_Driver/Src/stm32f7xx_ll_sdmmc.c ****   sdmmc_cmdinit.CmdIndex         = SDMMC_CMD_GO_IDLE_STATE;
 825:Drivers/STM32F7xx_HAL_Driver/Src/stm32f7xx_ll_sdmmc.c ****   sdmmc_cmdinit.Response         = SDMMC_RESPONSE_NO;
 826:Drivers/STM32F7xx_HAL_Driver/Src/stm32f7xx_ll_sdmmc.c ****   sdmmc_cmdinit.WaitForInterrupt = SDMMC_WAIT_NO;
 827:Drivers/STM32F7xx_HAL_Driver/Src/stm32f7xx_ll_sdmmc.c ****   sdmmc_cmdinit.CPSM             = SDMMC_CPSM_ENABLE;
 828:Drivers/STM32F7xx_HAL_Driver/Src/stm32f7xx_ll_sdmmc.c ****   SDMMC_SendCommand(SDMMCx, &sdmmc_cmdinit);
 829:Drivers/STM32F7xx_HAL_Driver/Src/stm32f7xx_ll_sdmmc.c ****   
 830:Drivers/STM32F7xx_HAL_Driver/Src/stm32f7xx_ll_sdmmc.c ****   /* Check for error conditions */
ARM GAS  C:\Users\Student\AppData\Local\Temp\ccPRdzQ1.s 			page 16


 831:Drivers/STM32F7xx_HAL_Driver/Src/stm32f7xx_ll_sdmmc.c ****   errorstate = SDMMC_GetCmdError(SDMMCx);
 832:Drivers/STM32F7xx_HAL_Driver/Src/stm32f7xx_ll_sdmmc.c **** 
 833:Drivers/STM32F7xx_HAL_Driver/Src/stm32f7xx_ll_sdmmc.c ****   return errorstate;
 834:Drivers/STM32F7xx_HAL_Driver/Src/stm32f7xx_ll_sdmmc.c **** }
 835:Drivers/STM32F7xx_HAL_Driver/Src/stm32f7xx_ll_sdmmc.c **** 
 836:Drivers/STM32F7xx_HAL_Driver/Src/stm32f7xx_ll_sdmmc.c **** /**
 837:Drivers/STM32F7xx_HAL_Driver/Src/stm32f7xx_ll_sdmmc.c ****   * @brief  Send the Operating Condition command and check the response.
 838:Drivers/STM32F7xx_HAL_Driver/Src/stm32f7xx_ll_sdmmc.c ****   * @param  SDMMCx Pointer to SDMMC register base 
 839:Drivers/STM32F7xx_HAL_Driver/Src/stm32f7xx_ll_sdmmc.c ****   * @retval HAL status
 840:Drivers/STM32F7xx_HAL_Driver/Src/stm32f7xx_ll_sdmmc.c ****   */
 841:Drivers/STM32F7xx_HAL_Driver/Src/stm32f7xx_ll_sdmmc.c **** uint32_t SDMMC_CmdOperCond(SDMMC_TypeDef *SDMMCx)
 842:Drivers/STM32F7xx_HAL_Driver/Src/stm32f7xx_ll_sdmmc.c **** {
 843:Drivers/STM32F7xx_HAL_Driver/Src/stm32f7xx_ll_sdmmc.c ****   SDMMC_CmdInitTypeDef  sdmmc_cmdinit;
 844:Drivers/STM32F7xx_HAL_Driver/Src/stm32f7xx_ll_sdmmc.c ****   uint32_t errorstate = SDMMC_ERROR_NONE;
 845:Drivers/STM32F7xx_HAL_Driver/Src/stm32f7xx_ll_sdmmc.c ****   
 846:Drivers/STM32F7xx_HAL_Driver/Src/stm32f7xx_ll_sdmmc.c ****   /* Send CMD8 to verify SD card interface operating condition */
 847:Drivers/STM32F7xx_HAL_Driver/Src/stm32f7xx_ll_sdmmc.c ****   /* Argument: - [31:12]: Reserved (shall be set to '0')
 848:Drivers/STM32F7xx_HAL_Driver/Src/stm32f7xx_ll_sdmmc.c ****   - [11:8]: Supply Voltage (VHS) 0x1 (Range: 2.7-3.6 V)
 849:Drivers/STM32F7xx_HAL_Driver/Src/stm32f7xx_ll_sdmmc.c ****   - [7:0]: Check Pattern (recommended 0xAA) */
 850:Drivers/STM32F7xx_HAL_Driver/Src/stm32f7xx_ll_sdmmc.c ****   /* CMD Response: R7 */
 851:Drivers/STM32F7xx_HAL_Driver/Src/stm32f7xx_ll_sdmmc.c ****   sdmmc_cmdinit.Argument         = SDMMC_CHECK_PATTERN;
 852:Drivers/STM32F7xx_HAL_Driver/Src/stm32f7xx_ll_sdmmc.c ****   sdmmc_cmdinit.CmdIndex         = SDMMC_CMD_HS_SEND_EXT_CSD;
 853:Drivers/STM32F7xx_HAL_Driver/Src/stm32f7xx_ll_sdmmc.c ****   sdmmc_cmdinit.Response         = SDMMC_RESPONSE_SHORT;
 854:Drivers/STM32F7xx_HAL_Driver/Src/stm32f7xx_ll_sdmmc.c ****   sdmmc_cmdinit.WaitForInterrupt = SDMMC_WAIT_NO;
 855:Drivers/STM32F7xx_HAL_Driver/Src/stm32f7xx_ll_sdmmc.c ****   sdmmc_cmdinit.CPSM             = SDMMC_CPSM_ENABLE;
 856:Drivers/STM32F7xx_HAL_Driver/Src/stm32f7xx_ll_sdmmc.c ****   SDMMC_SendCommand(SDMMCx, &sdmmc_cmdinit);
 857:Drivers/STM32F7xx_HAL_Driver/Src/stm32f7xx_ll_sdmmc.c ****   
 858:Drivers/STM32F7xx_HAL_Driver/Src/stm32f7xx_ll_sdmmc.c ****   /* Check for error conditions */
 859:Drivers/STM32F7xx_HAL_Driver/Src/stm32f7xx_ll_sdmmc.c ****   errorstate = SDMMC_GetCmdResp7(SDMMCx);
 860:Drivers/STM32F7xx_HAL_Driver/Src/stm32f7xx_ll_sdmmc.c **** 
 861:Drivers/STM32F7xx_HAL_Driver/Src/stm32f7xx_ll_sdmmc.c ****   return errorstate;
 862:Drivers/STM32F7xx_HAL_Driver/Src/stm32f7xx_ll_sdmmc.c **** }
 863:Drivers/STM32F7xx_HAL_Driver/Src/stm32f7xx_ll_sdmmc.c **** 
 864:Drivers/STM32F7xx_HAL_Driver/Src/stm32f7xx_ll_sdmmc.c **** /**
 865:Drivers/STM32F7xx_HAL_Driver/Src/stm32f7xx_ll_sdmmc.c ****   * @brief  Send the Application command to verify that that the next command 
 866:Drivers/STM32F7xx_HAL_Driver/Src/stm32f7xx_ll_sdmmc.c ****   *         is an application specific com-mand rather than a standard command
 867:Drivers/STM32F7xx_HAL_Driver/Src/stm32f7xx_ll_sdmmc.c ****   *         and check the response.
 868:Drivers/STM32F7xx_HAL_Driver/Src/stm32f7xx_ll_sdmmc.c ****   * @param  SDMMCx Pointer to SDMMC register base 
 869:Drivers/STM32F7xx_HAL_Driver/Src/stm32f7xx_ll_sdmmc.c ****   * @retval HAL status
 870:Drivers/STM32F7xx_HAL_Driver/Src/stm32f7xx_ll_sdmmc.c ****   */
 871:Drivers/STM32F7xx_HAL_Driver/Src/stm32f7xx_ll_sdmmc.c **** uint32_t SDMMC_CmdAppCommand(SDMMC_TypeDef *SDMMCx, uint32_t Argument)
 872:Drivers/STM32F7xx_HAL_Driver/Src/stm32f7xx_ll_sdmmc.c **** {
 873:Drivers/STM32F7xx_HAL_Driver/Src/stm32f7xx_ll_sdmmc.c ****   SDMMC_CmdInitTypeDef  sdmmc_cmdinit;
 874:Drivers/STM32F7xx_HAL_Driver/Src/stm32f7xx_ll_sdmmc.c ****   uint32_t errorstate = SDMMC_ERROR_NONE;
 875:Drivers/STM32F7xx_HAL_Driver/Src/stm32f7xx_ll_sdmmc.c ****   
 876:Drivers/STM32F7xx_HAL_Driver/Src/stm32f7xx_ll_sdmmc.c ****   sdmmc_cmdinit.Argument         = (uint32_t)Argument;
 877:Drivers/STM32F7xx_HAL_Driver/Src/stm32f7xx_ll_sdmmc.c ****   sdmmc_cmdinit.CmdIndex         = SDMMC_CMD_APP_CMD;
 878:Drivers/STM32F7xx_HAL_Driver/Src/stm32f7xx_ll_sdmmc.c ****   sdmmc_cmdinit.Response         = SDMMC_RESPONSE_SHORT;
 879:Drivers/STM32F7xx_HAL_Driver/Src/stm32f7xx_ll_sdmmc.c ****   sdmmc_cmdinit.WaitForInterrupt = SDMMC_WAIT_NO;
 880:Drivers/STM32F7xx_HAL_Driver/Src/stm32f7xx_ll_sdmmc.c ****   sdmmc_cmdinit.CPSM             = SDMMC_CPSM_ENABLE;
 881:Drivers/STM32F7xx_HAL_Driver/Src/stm32f7xx_ll_sdmmc.c ****   SDMMC_SendCommand(SDMMCx, &sdmmc_cmdinit);
 882:Drivers/STM32F7xx_HAL_Driver/Src/stm32f7xx_ll_sdmmc.c ****   
 883:Drivers/STM32F7xx_HAL_Driver/Src/stm32f7xx_ll_sdmmc.c ****   /* Check for error conditions */
 884:Drivers/STM32F7xx_HAL_Driver/Src/stm32f7xx_ll_sdmmc.c ****   /* If there is a HAL_ERROR, it is a MMC card, else
 885:Drivers/STM32F7xx_HAL_Driver/Src/stm32f7xx_ll_sdmmc.c ****   it is a SD card: SD card 2.0 (voltage range mismatch)
 886:Drivers/STM32F7xx_HAL_Driver/Src/stm32f7xx_ll_sdmmc.c ****      or SD card 1.x */
 887:Drivers/STM32F7xx_HAL_Driver/Src/stm32f7xx_ll_sdmmc.c ****   errorstate = SDMMC_GetCmdResp1(SDMMCx, SDMMC_CMD_APP_CMD, SDMMC_CMDTIMEOUT);
ARM GAS  C:\Users\Student\AppData\Local\Temp\ccPRdzQ1.s 			page 17


 888:Drivers/STM32F7xx_HAL_Driver/Src/stm32f7xx_ll_sdmmc.c **** 
 889:Drivers/STM32F7xx_HAL_Driver/Src/stm32f7xx_ll_sdmmc.c ****   return errorstate;
 890:Drivers/STM32F7xx_HAL_Driver/Src/stm32f7xx_ll_sdmmc.c **** }
 891:Drivers/STM32F7xx_HAL_Driver/Src/stm32f7xx_ll_sdmmc.c **** 
 892:Drivers/STM32F7xx_HAL_Driver/Src/stm32f7xx_ll_sdmmc.c **** /**
 893:Drivers/STM32F7xx_HAL_Driver/Src/stm32f7xx_ll_sdmmc.c ****   * @brief  Send the command asking the accessed card to send its operating 
 894:Drivers/STM32F7xx_HAL_Driver/Src/stm32f7xx_ll_sdmmc.c ****   *         condition register (OCR)
 895:Drivers/STM32F7xx_HAL_Driver/Src/stm32f7xx_ll_sdmmc.c ****   * @param  SDMMCx Pointer to SDMMC register base 
 896:Drivers/STM32F7xx_HAL_Driver/Src/stm32f7xx_ll_sdmmc.c ****   * @retval HAL status
 897:Drivers/STM32F7xx_HAL_Driver/Src/stm32f7xx_ll_sdmmc.c ****   */
 898:Drivers/STM32F7xx_HAL_Driver/Src/stm32f7xx_ll_sdmmc.c **** uint32_t SDMMC_CmdAppOperCommand(SDMMC_TypeDef *SDMMCx, uint32_t SdType)
 899:Drivers/STM32F7xx_HAL_Driver/Src/stm32f7xx_ll_sdmmc.c **** {
 900:Drivers/STM32F7xx_HAL_Driver/Src/stm32f7xx_ll_sdmmc.c ****   SDMMC_CmdInitTypeDef  sdmmc_cmdinit;
 901:Drivers/STM32F7xx_HAL_Driver/Src/stm32f7xx_ll_sdmmc.c ****   uint32_t errorstate = SDMMC_ERROR_NONE;
 902:Drivers/STM32F7xx_HAL_Driver/Src/stm32f7xx_ll_sdmmc.c ****   
 903:Drivers/STM32F7xx_HAL_Driver/Src/stm32f7xx_ll_sdmmc.c ****   sdmmc_cmdinit.Argument         = SDMMC_VOLTAGE_WINDOW_SD | SdType;
 904:Drivers/STM32F7xx_HAL_Driver/Src/stm32f7xx_ll_sdmmc.c ****   sdmmc_cmdinit.CmdIndex         = SDMMC_CMD_SD_APP_OP_COND;
 905:Drivers/STM32F7xx_HAL_Driver/Src/stm32f7xx_ll_sdmmc.c ****   sdmmc_cmdinit.Response         = SDMMC_RESPONSE_SHORT;
 906:Drivers/STM32F7xx_HAL_Driver/Src/stm32f7xx_ll_sdmmc.c ****   sdmmc_cmdinit.WaitForInterrupt = SDMMC_WAIT_NO;
 907:Drivers/STM32F7xx_HAL_Driver/Src/stm32f7xx_ll_sdmmc.c ****   sdmmc_cmdinit.CPSM             = SDMMC_CPSM_ENABLE;
 908:Drivers/STM32F7xx_HAL_Driver/Src/stm32f7xx_ll_sdmmc.c ****   SDMMC_SendCommand(SDMMCx, &sdmmc_cmdinit);
 909:Drivers/STM32F7xx_HAL_Driver/Src/stm32f7xx_ll_sdmmc.c ****   
 910:Drivers/STM32F7xx_HAL_Driver/Src/stm32f7xx_ll_sdmmc.c ****   /* Check for error conditions */
 911:Drivers/STM32F7xx_HAL_Driver/Src/stm32f7xx_ll_sdmmc.c ****   errorstate = SDMMC_GetCmdResp3(SDMMCx);
 912:Drivers/STM32F7xx_HAL_Driver/Src/stm32f7xx_ll_sdmmc.c **** 
 913:Drivers/STM32F7xx_HAL_Driver/Src/stm32f7xx_ll_sdmmc.c ****   return errorstate;
 914:Drivers/STM32F7xx_HAL_Driver/Src/stm32f7xx_ll_sdmmc.c **** }
 915:Drivers/STM32F7xx_HAL_Driver/Src/stm32f7xx_ll_sdmmc.c **** 
 916:Drivers/STM32F7xx_HAL_Driver/Src/stm32f7xx_ll_sdmmc.c **** /**
 917:Drivers/STM32F7xx_HAL_Driver/Src/stm32f7xx_ll_sdmmc.c ****   * @brief  Send the Bus Width command and check the response.
 918:Drivers/STM32F7xx_HAL_Driver/Src/stm32f7xx_ll_sdmmc.c ****   * @param  SDMMCx Pointer to SDMMC register base 
 919:Drivers/STM32F7xx_HAL_Driver/Src/stm32f7xx_ll_sdmmc.c ****   * @retval HAL status
 920:Drivers/STM32F7xx_HAL_Driver/Src/stm32f7xx_ll_sdmmc.c ****   */
 921:Drivers/STM32F7xx_HAL_Driver/Src/stm32f7xx_ll_sdmmc.c **** uint32_t SDMMC_CmdBusWidth(SDMMC_TypeDef *SDMMCx, uint32_t BusWidth)
 922:Drivers/STM32F7xx_HAL_Driver/Src/stm32f7xx_ll_sdmmc.c **** {
 923:Drivers/STM32F7xx_HAL_Driver/Src/stm32f7xx_ll_sdmmc.c ****   SDMMC_CmdInitTypeDef  sdmmc_cmdinit;
 924:Drivers/STM32F7xx_HAL_Driver/Src/stm32f7xx_ll_sdmmc.c ****   uint32_t errorstate = SDMMC_ERROR_NONE;
 925:Drivers/STM32F7xx_HAL_Driver/Src/stm32f7xx_ll_sdmmc.c ****   
 926:Drivers/STM32F7xx_HAL_Driver/Src/stm32f7xx_ll_sdmmc.c ****   sdmmc_cmdinit.Argument         = (uint32_t)BusWidth;
 927:Drivers/STM32F7xx_HAL_Driver/Src/stm32f7xx_ll_sdmmc.c ****   sdmmc_cmdinit.CmdIndex         = SDMMC_CMD_APP_SD_SET_BUSWIDTH;
 928:Drivers/STM32F7xx_HAL_Driver/Src/stm32f7xx_ll_sdmmc.c ****   sdmmc_cmdinit.Response         = SDMMC_RESPONSE_SHORT;
 929:Drivers/STM32F7xx_HAL_Driver/Src/stm32f7xx_ll_sdmmc.c ****   sdmmc_cmdinit.WaitForInterrupt = SDMMC_WAIT_NO;
 930:Drivers/STM32F7xx_HAL_Driver/Src/stm32f7xx_ll_sdmmc.c ****   sdmmc_cmdinit.CPSM             = SDMMC_CPSM_ENABLE;
 931:Drivers/STM32F7xx_HAL_Driver/Src/stm32f7xx_ll_sdmmc.c ****   SDMMC_SendCommand(SDMMCx, &sdmmc_cmdinit);
 932:Drivers/STM32F7xx_HAL_Driver/Src/stm32f7xx_ll_sdmmc.c ****   
 933:Drivers/STM32F7xx_HAL_Driver/Src/stm32f7xx_ll_sdmmc.c ****   /* Check for error conditions */
 934:Drivers/STM32F7xx_HAL_Driver/Src/stm32f7xx_ll_sdmmc.c ****   errorstate = SDMMC_GetCmdResp1(SDMMCx, SDMMC_CMD_APP_SD_SET_BUSWIDTH, SDMMC_CMDTIMEOUT);
 935:Drivers/STM32F7xx_HAL_Driver/Src/stm32f7xx_ll_sdmmc.c **** 
 936:Drivers/STM32F7xx_HAL_Driver/Src/stm32f7xx_ll_sdmmc.c ****   return errorstate;
 937:Drivers/STM32F7xx_HAL_Driver/Src/stm32f7xx_ll_sdmmc.c **** }
 938:Drivers/STM32F7xx_HAL_Driver/Src/stm32f7xx_ll_sdmmc.c **** 
 939:Drivers/STM32F7xx_HAL_Driver/Src/stm32f7xx_ll_sdmmc.c **** /**
 940:Drivers/STM32F7xx_HAL_Driver/Src/stm32f7xx_ll_sdmmc.c ****   * @brief  Send the Send SCR command and check the response.
 941:Drivers/STM32F7xx_HAL_Driver/Src/stm32f7xx_ll_sdmmc.c ****   * @param  SDMMCx Pointer to SDMMC register base 
 942:Drivers/STM32F7xx_HAL_Driver/Src/stm32f7xx_ll_sdmmc.c ****   * @retval HAL status
 943:Drivers/STM32F7xx_HAL_Driver/Src/stm32f7xx_ll_sdmmc.c ****   */
 944:Drivers/STM32F7xx_HAL_Driver/Src/stm32f7xx_ll_sdmmc.c **** uint32_t SDMMC_CmdSendSCR(SDMMC_TypeDef *SDMMCx)
ARM GAS  C:\Users\Student\AppData\Local\Temp\ccPRdzQ1.s 			page 18


 945:Drivers/STM32F7xx_HAL_Driver/Src/stm32f7xx_ll_sdmmc.c **** {
 946:Drivers/STM32F7xx_HAL_Driver/Src/stm32f7xx_ll_sdmmc.c ****   SDMMC_CmdInitTypeDef  sdmmc_cmdinit;
 947:Drivers/STM32F7xx_HAL_Driver/Src/stm32f7xx_ll_sdmmc.c ****   uint32_t errorstate = SDMMC_ERROR_NONE;
 948:Drivers/STM32F7xx_HAL_Driver/Src/stm32f7xx_ll_sdmmc.c ****   
 949:Drivers/STM32F7xx_HAL_Driver/Src/stm32f7xx_ll_sdmmc.c ****   /* Send CMD51 SD_APP_SEND_SCR */
 950:Drivers/STM32F7xx_HAL_Driver/Src/stm32f7xx_ll_sdmmc.c ****   sdmmc_cmdinit.Argument         = 0;
 951:Drivers/STM32F7xx_HAL_Driver/Src/stm32f7xx_ll_sdmmc.c ****   sdmmc_cmdinit.CmdIndex         = SDMMC_CMD_SD_APP_SEND_SCR;
 952:Drivers/STM32F7xx_HAL_Driver/Src/stm32f7xx_ll_sdmmc.c ****   sdmmc_cmdinit.Response         = SDMMC_RESPONSE_SHORT;
 953:Drivers/STM32F7xx_HAL_Driver/Src/stm32f7xx_ll_sdmmc.c ****   sdmmc_cmdinit.WaitForInterrupt = SDMMC_WAIT_NO;
 954:Drivers/STM32F7xx_HAL_Driver/Src/stm32f7xx_ll_sdmmc.c ****   sdmmc_cmdinit.CPSM             = SDMMC_CPSM_ENABLE;
 955:Drivers/STM32F7xx_HAL_Driver/Src/stm32f7xx_ll_sdmmc.c ****   SDMMC_SendCommand(SDMMCx, &sdmmc_cmdinit);
 956:Drivers/STM32F7xx_HAL_Driver/Src/stm32f7xx_ll_sdmmc.c ****   
 957:Drivers/STM32F7xx_HAL_Driver/Src/stm32f7xx_ll_sdmmc.c ****   /* Check for error conditions */
 958:Drivers/STM32F7xx_HAL_Driver/Src/stm32f7xx_ll_sdmmc.c ****   errorstate = SDMMC_GetCmdResp1(SDMMCx, SDMMC_CMD_SD_APP_SEND_SCR, SDMMC_CMDTIMEOUT);
 959:Drivers/STM32F7xx_HAL_Driver/Src/stm32f7xx_ll_sdmmc.c **** 
 960:Drivers/STM32F7xx_HAL_Driver/Src/stm32f7xx_ll_sdmmc.c ****   return errorstate;
 961:Drivers/STM32F7xx_HAL_Driver/Src/stm32f7xx_ll_sdmmc.c **** }
 962:Drivers/STM32F7xx_HAL_Driver/Src/stm32f7xx_ll_sdmmc.c **** 
 963:Drivers/STM32F7xx_HAL_Driver/Src/stm32f7xx_ll_sdmmc.c **** /**
 964:Drivers/STM32F7xx_HAL_Driver/Src/stm32f7xx_ll_sdmmc.c ****   * @brief  Send the Send CID command and check the response.
 965:Drivers/STM32F7xx_HAL_Driver/Src/stm32f7xx_ll_sdmmc.c ****   * @param  SDMMCx Pointer to SDMMC register base 
 966:Drivers/STM32F7xx_HAL_Driver/Src/stm32f7xx_ll_sdmmc.c ****   * @retval HAL status
 967:Drivers/STM32F7xx_HAL_Driver/Src/stm32f7xx_ll_sdmmc.c ****   */
 968:Drivers/STM32F7xx_HAL_Driver/Src/stm32f7xx_ll_sdmmc.c **** uint32_t SDMMC_CmdSendCID(SDMMC_TypeDef *SDMMCx)
 969:Drivers/STM32F7xx_HAL_Driver/Src/stm32f7xx_ll_sdmmc.c **** {
 970:Drivers/STM32F7xx_HAL_Driver/Src/stm32f7xx_ll_sdmmc.c ****   SDMMC_CmdInitTypeDef  sdmmc_cmdinit;
 971:Drivers/STM32F7xx_HAL_Driver/Src/stm32f7xx_ll_sdmmc.c ****   uint32_t errorstate = SDMMC_ERROR_NONE;
 972:Drivers/STM32F7xx_HAL_Driver/Src/stm32f7xx_ll_sdmmc.c ****   
 973:Drivers/STM32F7xx_HAL_Driver/Src/stm32f7xx_ll_sdmmc.c ****   /* Send CMD2 ALL_SEND_CID */
 974:Drivers/STM32F7xx_HAL_Driver/Src/stm32f7xx_ll_sdmmc.c ****   sdmmc_cmdinit.Argument         = 0;
 975:Drivers/STM32F7xx_HAL_Driver/Src/stm32f7xx_ll_sdmmc.c ****   sdmmc_cmdinit.CmdIndex         = SDMMC_CMD_ALL_SEND_CID;
 976:Drivers/STM32F7xx_HAL_Driver/Src/stm32f7xx_ll_sdmmc.c ****   sdmmc_cmdinit.Response         = SDMMC_RESPONSE_LONG;
 977:Drivers/STM32F7xx_HAL_Driver/Src/stm32f7xx_ll_sdmmc.c ****   sdmmc_cmdinit.WaitForInterrupt = SDMMC_WAIT_NO;
 978:Drivers/STM32F7xx_HAL_Driver/Src/stm32f7xx_ll_sdmmc.c ****   sdmmc_cmdinit.CPSM             = SDMMC_CPSM_ENABLE;
 979:Drivers/STM32F7xx_HAL_Driver/Src/stm32f7xx_ll_sdmmc.c ****   SDMMC_SendCommand(SDMMCx, &sdmmc_cmdinit);
 980:Drivers/STM32F7xx_HAL_Driver/Src/stm32f7xx_ll_sdmmc.c ****   
 981:Drivers/STM32F7xx_HAL_Driver/Src/stm32f7xx_ll_sdmmc.c ****   /* Check for error conditions */
 982:Drivers/STM32F7xx_HAL_Driver/Src/stm32f7xx_ll_sdmmc.c ****   errorstate = SDMMC_GetCmdResp2(SDMMCx);
 983:Drivers/STM32F7xx_HAL_Driver/Src/stm32f7xx_ll_sdmmc.c **** 
 984:Drivers/STM32F7xx_HAL_Driver/Src/stm32f7xx_ll_sdmmc.c ****   return errorstate;
 985:Drivers/STM32F7xx_HAL_Driver/Src/stm32f7xx_ll_sdmmc.c **** }
 986:Drivers/STM32F7xx_HAL_Driver/Src/stm32f7xx_ll_sdmmc.c **** 
 987:Drivers/STM32F7xx_HAL_Driver/Src/stm32f7xx_ll_sdmmc.c **** /**
 988:Drivers/STM32F7xx_HAL_Driver/Src/stm32f7xx_ll_sdmmc.c ****   * @brief  Send the Send CSD command and check the response.
 989:Drivers/STM32F7xx_HAL_Driver/Src/stm32f7xx_ll_sdmmc.c ****   * @param  SDMMCx Pointer to SDMMC register base 
 990:Drivers/STM32F7xx_HAL_Driver/Src/stm32f7xx_ll_sdmmc.c ****   * @retval HAL status
 991:Drivers/STM32F7xx_HAL_Driver/Src/stm32f7xx_ll_sdmmc.c ****   */
 992:Drivers/STM32F7xx_HAL_Driver/Src/stm32f7xx_ll_sdmmc.c **** uint32_t SDMMC_CmdSendCSD(SDMMC_TypeDef *SDMMCx, uint32_t Argument)
 993:Drivers/STM32F7xx_HAL_Driver/Src/stm32f7xx_ll_sdmmc.c **** {
 994:Drivers/STM32F7xx_HAL_Driver/Src/stm32f7xx_ll_sdmmc.c ****   SDMMC_CmdInitTypeDef  sdmmc_cmdinit;
 995:Drivers/STM32F7xx_HAL_Driver/Src/stm32f7xx_ll_sdmmc.c ****   uint32_t errorstate = SDMMC_ERROR_NONE;
 996:Drivers/STM32F7xx_HAL_Driver/Src/stm32f7xx_ll_sdmmc.c ****   
 997:Drivers/STM32F7xx_HAL_Driver/Src/stm32f7xx_ll_sdmmc.c ****   /* Send CMD9 SEND_CSD */
 998:Drivers/STM32F7xx_HAL_Driver/Src/stm32f7xx_ll_sdmmc.c ****   sdmmc_cmdinit.Argument         = (uint32_t)Argument;
 999:Drivers/STM32F7xx_HAL_Driver/Src/stm32f7xx_ll_sdmmc.c ****   sdmmc_cmdinit.CmdIndex         = SDMMC_CMD_SEND_CSD;
1000:Drivers/STM32F7xx_HAL_Driver/Src/stm32f7xx_ll_sdmmc.c ****   sdmmc_cmdinit.Response         = SDMMC_RESPONSE_LONG;
1001:Drivers/STM32F7xx_HAL_Driver/Src/stm32f7xx_ll_sdmmc.c ****   sdmmc_cmdinit.WaitForInterrupt = SDMMC_WAIT_NO;
ARM GAS  C:\Users\Student\AppData\Local\Temp\ccPRdzQ1.s 			page 19


1002:Drivers/STM32F7xx_HAL_Driver/Src/stm32f7xx_ll_sdmmc.c ****   sdmmc_cmdinit.CPSM             = SDMMC_CPSM_ENABLE;
1003:Drivers/STM32F7xx_HAL_Driver/Src/stm32f7xx_ll_sdmmc.c ****   SDMMC_SendCommand(SDMMCx, &sdmmc_cmdinit);
1004:Drivers/STM32F7xx_HAL_Driver/Src/stm32f7xx_ll_sdmmc.c ****   
1005:Drivers/STM32F7xx_HAL_Driver/Src/stm32f7xx_ll_sdmmc.c ****   /* Check for error conditions */
1006:Drivers/STM32F7xx_HAL_Driver/Src/stm32f7xx_ll_sdmmc.c ****   errorstate = SDMMC_GetCmdResp2(SDMMCx);
1007:Drivers/STM32F7xx_HAL_Driver/Src/stm32f7xx_ll_sdmmc.c **** 
1008:Drivers/STM32F7xx_HAL_Driver/Src/stm32f7xx_ll_sdmmc.c ****   return errorstate;
1009:Drivers/STM32F7xx_HAL_Driver/Src/stm32f7xx_ll_sdmmc.c **** }
1010:Drivers/STM32F7xx_HAL_Driver/Src/stm32f7xx_ll_sdmmc.c **** 
1011:Drivers/STM32F7xx_HAL_Driver/Src/stm32f7xx_ll_sdmmc.c **** /**
1012:Drivers/STM32F7xx_HAL_Driver/Src/stm32f7xx_ll_sdmmc.c ****   * @brief  Send the Send CSD command and check the response.
1013:Drivers/STM32F7xx_HAL_Driver/Src/stm32f7xx_ll_sdmmc.c ****   * @param  SDMMCx Pointer to SDMMC register base 
1014:Drivers/STM32F7xx_HAL_Driver/Src/stm32f7xx_ll_sdmmc.c ****   * @retval HAL status
1015:Drivers/STM32F7xx_HAL_Driver/Src/stm32f7xx_ll_sdmmc.c ****   */
1016:Drivers/STM32F7xx_HAL_Driver/Src/stm32f7xx_ll_sdmmc.c **** uint32_t SDMMC_CmdSetRelAdd(SDMMC_TypeDef *SDMMCx, uint16_t *pRCA)
1017:Drivers/STM32F7xx_HAL_Driver/Src/stm32f7xx_ll_sdmmc.c **** {
1018:Drivers/STM32F7xx_HAL_Driver/Src/stm32f7xx_ll_sdmmc.c ****   SDMMC_CmdInitTypeDef  sdmmc_cmdinit;
1019:Drivers/STM32F7xx_HAL_Driver/Src/stm32f7xx_ll_sdmmc.c ****   uint32_t errorstate = SDMMC_ERROR_NONE;
1020:Drivers/STM32F7xx_HAL_Driver/Src/stm32f7xx_ll_sdmmc.c ****   
1021:Drivers/STM32F7xx_HAL_Driver/Src/stm32f7xx_ll_sdmmc.c ****   /* Send CMD3 SD_CMD_SET_REL_ADDR */
1022:Drivers/STM32F7xx_HAL_Driver/Src/stm32f7xx_ll_sdmmc.c ****   sdmmc_cmdinit.Argument         = 0;
1023:Drivers/STM32F7xx_HAL_Driver/Src/stm32f7xx_ll_sdmmc.c ****   sdmmc_cmdinit.CmdIndex         = SDMMC_CMD_SET_REL_ADDR;
1024:Drivers/STM32F7xx_HAL_Driver/Src/stm32f7xx_ll_sdmmc.c ****   sdmmc_cmdinit.Response         = SDMMC_RESPONSE_SHORT;
1025:Drivers/STM32F7xx_HAL_Driver/Src/stm32f7xx_ll_sdmmc.c ****   sdmmc_cmdinit.WaitForInterrupt = SDMMC_WAIT_NO;
1026:Drivers/STM32F7xx_HAL_Driver/Src/stm32f7xx_ll_sdmmc.c ****   sdmmc_cmdinit.CPSM             = SDMMC_CPSM_ENABLE;
1027:Drivers/STM32F7xx_HAL_Driver/Src/stm32f7xx_ll_sdmmc.c ****   SDMMC_SendCommand(SDMMCx, &sdmmc_cmdinit);
1028:Drivers/STM32F7xx_HAL_Driver/Src/stm32f7xx_ll_sdmmc.c ****   
1029:Drivers/STM32F7xx_HAL_Driver/Src/stm32f7xx_ll_sdmmc.c ****   /* Check for error conditions */
1030:Drivers/STM32F7xx_HAL_Driver/Src/stm32f7xx_ll_sdmmc.c ****   errorstate = SDMMC_GetCmdResp6(SDMMCx, SDMMC_CMD_SET_REL_ADDR, pRCA);
1031:Drivers/STM32F7xx_HAL_Driver/Src/stm32f7xx_ll_sdmmc.c **** 
1032:Drivers/STM32F7xx_HAL_Driver/Src/stm32f7xx_ll_sdmmc.c ****   return errorstate;
1033:Drivers/STM32F7xx_HAL_Driver/Src/stm32f7xx_ll_sdmmc.c **** }
1034:Drivers/STM32F7xx_HAL_Driver/Src/stm32f7xx_ll_sdmmc.c **** 
1035:Drivers/STM32F7xx_HAL_Driver/Src/stm32f7xx_ll_sdmmc.c **** /**
1036:Drivers/STM32F7xx_HAL_Driver/Src/stm32f7xx_ll_sdmmc.c ****   * @brief  Send the Status command and check the response.
1037:Drivers/STM32F7xx_HAL_Driver/Src/stm32f7xx_ll_sdmmc.c ****   * @param  SDMMCx Pointer to SDMMC register base 
1038:Drivers/STM32F7xx_HAL_Driver/Src/stm32f7xx_ll_sdmmc.c ****   * @retval HAL status
1039:Drivers/STM32F7xx_HAL_Driver/Src/stm32f7xx_ll_sdmmc.c ****   */
1040:Drivers/STM32F7xx_HAL_Driver/Src/stm32f7xx_ll_sdmmc.c **** uint32_t SDMMC_CmdSendStatus(SDMMC_TypeDef *SDMMCx, uint32_t Argument)
1041:Drivers/STM32F7xx_HAL_Driver/Src/stm32f7xx_ll_sdmmc.c **** {
1042:Drivers/STM32F7xx_HAL_Driver/Src/stm32f7xx_ll_sdmmc.c ****   SDMMC_CmdInitTypeDef  sdmmc_cmdinit;
1043:Drivers/STM32F7xx_HAL_Driver/Src/stm32f7xx_ll_sdmmc.c ****   uint32_t errorstate = SDMMC_ERROR_NONE;
1044:Drivers/STM32F7xx_HAL_Driver/Src/stm32f7xx_ll_sdmmc.c ****   
1045:Drivers/STM32F7xx_HAL_Driver/Src/stm32f7xx_ll_sdmmc.c ****   sdmmc_cmdinit.Argument         = (uint32_t)Argument;
1046:Drivers/STM32F7xx_HAL_Driver/Src/stm32f7xx_ll_sdmmc.c ****   sdmmc_cmdinit.CmdIndex         = SDMMC_CMD_SEND_STATUS;
1047:Drivers/STM32F7xx_HAL_Driver/Src/stm32f7xx_ll_sdmmc.c ****   sdmmc_cmdinit.Response         = SDMMC_RESPONSE_SHORT;
1048:Drivers/STM32F7xx_HAL_Driver/Src/stm32f7xx_ll_sdmmc.c ****   sdmmc_cmdinit.WaitForInterrupt = SDMMC_WAIT_NO;
1049:Drivers/STM32F7xx_HAL_Driver/Src/stm32f7xx_ll_sdmmc.c ****   sdmmc_cmdinit.CPSM             = SDMMC_CPSM_ENABLE;
1050:Drivers/STM32F7xx_HAL_Driver/Src/stm32f7xx_ll_sdmmc.c ****   SDMMC_SendCommand(SDMMCx, &sdmmc_cmdinit);
1051:Drivers/STM32F7xx_HAL_Driver/Src/stm32f7xx_ll_sdmmc.c ****   
1052:Drivers/STM32F7xx_HAL_Driver/Src/stm32f7xx_ll_sdmmc.c ****   /* Check for error conditions */
1053:Drivers/STM32F7xx_HAL_Driver/Src/stm32f7xx_ll_sdmmc.c ****   errorstate = SDMMC_GetCmdResp1(SDMMCx, SDMMC_CMD_SEND_STATUS, SDMMC_CMDTIMEOUT);
1054:Drivers/STM32F7xx_HAL_Driver/Src/stm32f7xx_ll_sdmmc.c **** 
1055:Drivers/STM32F7xx_HAL_Driver/Src/stm32f7xx_ll_sdmmc.c ****   return errorstate;
1056:Drivers/STM32F7xx_HAL_Driver/Src/stm32f7xx_ll_sdmmc.c **** }
1057:Drivers/STM32F7xx_HAL_Driver/Src/stm32f7xx_ll_sdmmc.c **** 
1058:Drivers/STM32F7xx_HAL_Driver/Src/stm32f7xx_ll_sdmmc.c **** /**
ARM GAS  C:\Users\Student\AppData\Local\Temp\ccPRdzQ1.s 			page 20


1059:Drivers/STM32F7xx_HAL_Driver/Src/stm32f7xx_ll_sdmmc.c ****   * @brief  Send the Status register command and check the response.
1060:Drivers/STM32F7xx_HAL_Driver/Src/stm32f7xx_ll_sdmmc.c ****   * @param  SDMMCx Pointer to SDMMC register base 
1061:Drivers/STM32F7xx_HAL_Driver/Src/stm32f7xx_ll_sdmmc.c ****   * @retval HAL status
1062:Drivers/STM32F7xx_HAL_Driver/Src/stm32f7xx_ll_sdmmc.c ****   */
1063:Drivers/STM32F7xx_HAL_Driver/Src/stm32f7xx_ll_sdmmc.c **** uint32_t SDMMC_CmdStatusRegister(SDMMC_TypeDef *SDMMCx)
1064:Drivers/STM32F7xx_HAL_Driver/Src/stm32f7xx_ll_sdmmc.c **** {
1065:Drivers/STM32F7xx_HAL_Driver/Src/stm32f7xx_ll_sdmmc.c ****   SDMMC_CmdInitTypeDef  sdmmc_cmdinit;
1066:Drivers/STM32F7xx_HAL_Driver/Src/stm32f7xx_ll_sdmmc.c ****   uint32_t errorstate = SDMMC_ERROR_NONE;
1067:Drivers/STM32F7xx_HAL_Driver/Src/stm32f7xx_ll_sdmmc.c ****   
1068:Drivers/STM32F7xx_HAL_Driver/Src/stm32f7xx_ll_sdmmc.c ****   sdmmc_cmdinit.Argument         = 0;
1069:Drivers/STM32F7xx_HAL_Driver/Src/stm32f7xx_ll_sdmmc.c ****   sdmmc_cmdinit.CmdIndex         = SDMMC_CMD_SD_APP_STATUS;
1070:Drivers/STM32F7xx_HAL_Driver/Src/stm32f7xx_ll_sdmmc.c ****   sdmmc_cmdinit.Response         = SDMMC_RESPONSE_SHORT;
1071:Drivers/STM32F7xx_HAL_Driver/Src/stm32f7xx_ll_sdmmc.c ****   sdmmc_cmdinit.WaitForInterrupt = SDMMC_WAIT_NO;
1072:Drivers/STM32F7xx_HAL_Driver/Src/stm32f7xx_ll_sdmmc.c ****   sdmmc_cmdinit.CPSM             = SDMMC_CPSM_ENABLE;
1073:Drivers/STM32F7xx_HAL_Driver/Src/stm32f7xx_ll_sdmmc.c ****   SDMMC_SendCommand(SDMMCx, &sdmmc_cmdinit);
1074:Drivers/STM32F7xx_HAL_Driver/Src/stm32f7xx_ll_sdmmc.c ****   
1075:Drivers/STM32F7xx_HAL_Driver/Src/stm32f7xx_ll_sdmmc.c ****   /* Check for error conditions */
1076:Drivers/STM32F7xx_HAL_Driver/Src/stm32f7xx_ll_sdmmc.c ****   errorstate = SDMMC_GetCmdResp1(SDMMCx, SDMMC_CMD_SD_APP_STATUS, SDMMC_CMDTIMEOUT);
1077:Drivers/STM32F7xx_HAL_Driver/Src/stm32f7xx_ll_sdmmc.c **** 
1078:Drivers/STM32F7xx_HAL_Driver/Src/stm32f7xx_ll_sdmmc.c ****   return errorstate;
1079:Drivers/STM32F7xx_HAL_Driver/Src/stm32f7xx_ll_sdmmc.c **** }
1080:Drivers/STM32F7xx_HAL_Driver/Src/stm32f7xx_ll_sdmmc.c **** 
1081:Drivers/STM32F7xx_HAL_Driver/Src/stm32f7xx_ll_sdmmc.c **** /**
1082:Drivers/STM32F7xx_HAL_Driver/Src/stm32f7xx_ll_sdmmc.c ****   * @brief  Sends host capacity support information and activates the card's 
1083:Drivers/STM32F7xx_HAL_Driver/Src/stm32f7xx_ll_sdmmc.c ****   *         initialization process. Send SDMMC_CMD_SEND_OP_COND command
1084:Drivers/STM32F7xx_HAL_Driver/Src/stm32f7xx_ll_sdmmc.c ****   * @param  SDIOx Pointer to SDIO register base 
1085:Drivers/STM32F7xx_HAL_Driver/Src/stm32f7xx_ll_sdmmc.c ****   * @parame Argument Argument used for the command
1086:Drivers/STM32F7xx_HAL_Driver/Src/stm32f7xx_ll_sdmmc.c ****   * @retval HAL status
1087:Drivers/STM32F7xx_HAL_Driver/Src/stm32f7xx_ll_sdmmc.c ****   */
1088:Drivers/STM32F7xx_HAL_Driver/Src/stm32f7xx_ll_sdmmc.c **** uint32_t SDMMC_CmdOpCondition(SDMMC_TypeDef *SDMMCx, uint32_t Argument)
1089:Drivers/STM32F7xx_HAL_Driver/Src/stm32f7xx_ll_sdmmc.c **** {
1090:Drivers/STM32F7xx_HAL_Driver/Src/stm32f7xx_ll_sdmmc.c ****   SDMMC_CmdInitTypeDef  sdmmc_cmdinit;
1091:Drivers/STM32F7xx_HAL_Driver/Src/stm32f7xx_ll_sdmmc.c ****   uint32_t errorstate = SDMMC_ERROR_NONE;
1092:Drivers/STM32F7xx_HAL_Driver/Src/stm32f7xx_ll_sdmmc.c ****   
1093:Drivers/STM32F7xx_HAL_Driver/Src/stm32f7xx_ll_sdmmc.c ****   sdmmc_cmdinit.Argument         = Argument;
1094:Drivers/STM32F7xx_HAL_Driver/Src/stm32f7xx_ll_sdmmc.c ****   sdmmc_cmdinit.CmdIndex         = SDMMC_CMD_SEND_OP_COND;
1095:Drivers/STM32F7xx_HAL_Driver/Src/stm32f7xx_ll_sdmmc.c ****   sdmmc_cmdinit.Response         = SDMMC_RESPONSE_SHORT;
1096:Drivers/STM32F7xx_HAL_Driver/Src/stm32f7xx_ll_sdmmc.c ****   sdmmc_cmdinit.WaitForInterrupt = SDMMC_WAIT_NO;
1097:Drivers/STM32F7xx_HAL_Driver/Src/stm32f7xx_ll_sdmmc.c ****   sdmmc_cmdinit.CPSM             = SDMMC_CPSM_ENABLE;
1098:Drivers/STM32F7xx_HAL_Driver/Src/stm32f7xx_ll_sdmmc.c ****   SDMMC_SendCommand(SDMMCx, &sdmmc_cmdinit);
1099:Drivers/STM32F7xx_HAL_Driver/Src/stm32f7xx_ll_sdmmc.c ****   
1100:Drivers/STM32F7xx_HAL_Driver/Src/stm32f7xx_ll_sdmmc.c ****   /* Check for error conditions */
1101:Drivers/STM32F7xx_HAL_Driver/Src/stm32f7xx_ll_sdmmc.c ****   errorstate = SDMMC_GetCmdResp3(SDMMCx);
1102:Drivers/STM32F7xx_HAL_Driver/Src/stm32f7xx_ll_sdmmc.c **** 
1103:Drivers/STM32F7xx_HAL_Driver/Src/stm32f7xx_ll_sdmmc.c ****   return errorstate;
1104:Drivers/STM32F7xx_HAL_Driver/Src/stm32f7xx_ll_sdmmc.c **** }
1105:Drivers/STM32F7xx_HAL_Driver/Src/stm32f7xx_ll_sdmmc.c **** 
1106:Drivers/STM32F7xx_HAL_Driver/Src/stm32f7xx_ll_sdmmc.c **** /**
1107:Drivers/STM32F7xx_HAL_Driver/Src/stm32f7xx_ll_sdmmc.c ****   * @brief  Checks switchable function and switch card function. SDMMC_CMD_HS_SWITCH comand
1108:Drivers/STM32F7xx_HAL_Driver/Src/stm32f7xx_ll_sdmmc.c ****   * @param  SDIOx Pointer to SDIO register base 
1109:Drivers/STM32F7xx_HAL_Driver/Src/stm32f7xx_ll_sdmmc.c ****   * @parame Argument Argument used for the command
1110:Drivers/STM32F7xx_HAL_Driver/Src/stm32f7xx_ll_sdmmc.c ****   * @retval HAL status
1111:Drivers/STM32F7xx_HAL_Driver/Src/stm32f7xx_ll_sdmmc.c ****   */
1112:Drivers/STM32F7xx_HAL_Driver/Src/stm32f7xx_ll_sdmmc.c **** uint32_t SDMMC_CmdSwitch(SDMMC_TypeDef *SDMMCx, uint32_t Argument)
1113:Drivers/STM32F7xx_HAL_Driver/Src/stm32f7xx_ll_sdmmc.c **** {
1114:Drivers/STM32F7xx_HAL_Driver/Src/stm32f7xx_ll_sdmmc.c ****   SDMMC_CmdInitTypeDef  sdmmc_cmdinit;
1115:Drivers/STM32F7xx_HAL_Driver/Src/stm32f7xx_ll_sdmmc.c ****   uint32_t errorstate = SDMMC_ERROR_NONE;
ARM GAS  C:\Users\Student\AppData\Local\Temp\ccPRdzQ1.s 			page 21


1116:Drivers/STM32F7xx_HAL_Driver/Src/stm32f7xx_ll_sdmmc.c ****   
1117:Drivers/STM32F7xx_HAL_Driver/Src/stm32f7xx_ll_sdmmc.c ****   sdmmc_cmdinit.Argument         = Argument;
1118:Drivers/STM32F7xx_HAL_Driver/Src/stm32f7xx_ll_sdmmc.c ****   sdmmc_cmdinit.CmdIndex         = SDMMC_CMD_HS_SWITCH;
1119:Drivers/STM32F7xx_HAL_Driver/Src/stm32f7xx_ll_sdmmc.c ****   sdmmc_cmdinit.Response         = SDMMC_RESPONSE_SHORT;
1120:Drivers/STM32F7xx_HAL_Driver/Src/stm32f7xx_ll_sdmmc.c ****   sdmmc_cmdinit.WaitForInterrupt = SDMMC_WAIT_NO;
1121:Drivers/STM32F7xx_HAL_Driver/Src/stm32f7xx_ll_sdmmc.c ****   sdmmc_cmdinit.CPSM             = SDMMC_CPSM_ENABLE;
1122:Drivers/STM32F7xx_HAL_Driver/Src/stm32f7xx_ll_sdmmc.c ****   SDMMC_SendCommand(SDMMCx, &sdmmc_cmdinit);
1123:Drivers/STM32F7xx_HAL_Driver/Src/stm32f7xx_ll_sdmmc.c ****   
1124:Drivers/STM32F7xx_HAL_Driver/Src/stm32f7xx_ll_sdmmc.c ****   /* Check for error conditions */
1125:Drivers/STM32F7xx_HAL_Driver/Src/stm32f7xx_ll_sdmmc.c ****   errorstate = SDMMC_GetCmdResp1(SDMMCx, SDMMC_CMD_HS_SWITCH, SDMMC_CMDTIMEOUT);
1126:Drivers/STM32F7xx_HAL_Driver/Src/stm32f7xx_ll_sdmmc.c **** 
1127:Drivers/STM32F7xx_HAL_Driver/Src/stm32f7xx_ll_sdmmc.c ****   return errorstate;
1128:Drivers/STM32F7xx_HAL_Driver/Src/stm32f7xx_ll_sdmmc.c **** }
1129:Drivers/STM32F7xx_HAL_Driver/Src/stm32f7xx_ll_sdmmc.c **** 
1130:Drivers/STM32F7xx_HAL_Driver/Src/stm32f7xx_ll_sdmmc.c **** /**
1131:Drivers/STM32F7xx_HAL_Driver/Src/stm32f7xx_ll_sdmmc.c ****   * @}
1132:Drivers/STM32F7xx_HAL_Driver/Src/stm32f7xx_ll_sdmmc.c ****   */
1133:Drivers/STM32F7xx_HAL_Driver/Src/stm32f7xx_ll_sdmmc.c **** 
1134:Drivers/STM32F7xx_HAL_Driver/Src/stm32f7xx_ll_sdmmc.c **** /* Private function ----------------------------------------------------------*/  
1135:Drivers/STM32F7xx_HAL_Driver/Src/stm32f7xx_ll_sdmmc.c **** /** @addtogroup SD_Private_Functions
1136:Drivers/STM32F7xx_HAL_Driver/Src/stm32f7xx_ll_sdmmc.c ****   * @{
1137:Drivers/STM32F7xx_HAL_Driver/Src/stm32f7xx_ll_sdmmc.c ****   */
1138:Drivers/STM32F7xx_HAL_Driver/Src/stm32f7xx_ll_sdmmc.c ****     
1139:Drivers/STM32F7xx_HAL_Driver/Src/stm32f7xx_ll_sdmmc.c **** /**
1140:Drivers/STM32F7xx_HAL_Driver/Src/stm32f7xx_ll_sdmmc.c ****   * @brief  Checks for error conditions for CMD0.
1141:Drivers/STM32F7xx_HAL_Driver/Src/stm32f7xx_ll_sdmmc.c ****   * @param  hsd SD handle
1142:Drivers/STM32F7xx_HAL_Driver/Src/stm32f7xx_ll_sdmmc.c ****   * @retval SD Card error state
1143:Drivers/STM32F7xx_HAL_Driver/Src/stm32f7xx_ll_sdmmc.c ****   */
1144:Drivers/STM32F7xx_HAL_Driver/Src/stm32f7xx_ll_sdmmc.c **** static uint32_t SDMMC_GetCmdError(SDMMC_TypeDef *SDMMCx)
1145:Drivers/STM32F7xx_HAL_Driver/Src/stm32f7xx_ll_sdmmc.c **** {
  27              		.loc 1 1145 0
  28              		.cfi_startproc
  29              		@ args = 0, pretend = 0, frame = 0
  30              		@ frame_needed = 0, uses_anonymous_args = 0
  31              		@ link register save eliminated.
  32              	.LVL0:
1146:Drivers/STM32F7xx_HAL_Driver/Src/stm32f7xx_ll_sdmmc.c ****   /* 8 is the number of required instructions cycles for the below loop statement.
1147:Drivers/STM32F7xx_HAL_Driver/Src/stm32f7xx_ll_sdmmc.c ****   The SDMMC_CMDTIMEOUT is expressed in ms */
1148:Drivers/STM32F7xx_HAL_Driver/Src/stm32f7xx_ll_sdmmc.c ****   register uint32_t count = SDMMC_CMDTIMEOUT * (SystemCoreClock / 8 /1000);
  33              		.loc 1 1148 0
  34 0000 0C4B     		ldr	r3, .L5
  35 0002 1B68     		ldr	r3, [r3]
  36 0004 0C4A     		ldr	r2, .L5+4
  37 0006 A2FB0323 		umull	r2, r3, r2, r3
  38 000a 5A0A     		lsrs	r2, r3, #9
  39 000c 41F28833 		movw	r3, #5000
  40 0010 03FB02F3 		mul	r3, r3, r2
  41              	.LVL1:
  42              	.L3:
1149:Drivers/STM32F7xx_HAL_Driver/Src/stm32f7xx_ll_sdmmc.c ****   
1150:Drivers/STM32F7xx_HAL_Driver/Src/stm32f7xx_ll_sdmmc.c ****   do
1151:Drivers/STM32F7xx_HAL_Driver/Src/stm32f7xx_ll_sdmmc.c ****   {
1152:Drivers/STM32F7xx_HAL_Driver/Src/stm32f7xx_ll_sdmmc.c ****     if (count-- == 0)
  43              		.loc 1 1152 0
  44 0014 5A1E     		subs	r2, r3, #1
  45              	.LVL2:
  46 0016 4BB1     		cbz	r3, .L4
ARM GAS  C:\Users\Student\AppData\Local\Temp\ccPRdzQ1.s 			page 22


1153:Drivers/STM32F7xx_HAL_Driver/Src/stm32f7xx_ll_sdmmc.c ****     {
1154:Drivers/STM32F7xx_HAL_Driver/Src/stm32f7xx_ll_sdmmc.c ****       return SDMMC_ERROR_TIMEOUT;
1155:Drivers/STM32F7xx_HAL_Driver/Src/stm32f7xx_ll_sdmmc.c ****     }
1156:Drivers/STM32F7xx_HAL_Driver/Src/stm32f7xx_ll_sdmmc.c ****     
1157:Drivers/STM32F7xx_HAL_Driver/Src/stm32f7xx_ll_sdmmc.c ****   }while(!__SDMMC_GET_FLAG(SDMMCx, SDMMC_FLAG_CMDSENT));
  47              		.loc 1 1157 0
  48 0018 416B     		ldr	r1, [r0, #52]
1152:Drivers/STM32F7xx_HAL_Driver/Src/stm32f7xx_ll_sdmmc.c ****     {
  49              		.loc 1 1152 0
  50 001a 1346     		mov	r3, r2
  51              		.loc 1 1157 0
  52 001c 11F0800F 		tst	r1, #128
  53 0020 F8D0     		beq	.L3
1158:Drivers/STM32F7xx_HAL_Driver/Src/stm32f7xx_ll_sdmmc.c ****   
1159:Drivers/STM32F7xx_HAL_Driver/Src/stm32f7xx_ll_sdmmc.c ****   /* Clear all the static flags */
1160:Drivers/STM32F7xx_HAL_Driver/Src/stm32f7xx_ll_sdmmc.c ****   __SDMMC_CLEAR_FLAG(SDMMCx, SDMMC_STATIC_FLAGS);
  54              		.loc 1 1160 0
  55 0022 40F2FF53 		movw	r3, #1535
  56 0026 8363     		str	r3, [r0, #56]
1161:Drivers/STM32F7xx_HAL_Driver/Src/stm32f7xx_ll_sdmmc.c ****   
1162:Drivers/STM32F7xx_HAL_Driver/Src/stm32f7xx_ll_sdmmc.c ****   return SDMMC_ERROR_NONE;
  57              		.loc 1 1162 0
  58 0028 0020     		movs	r0, #0
  59              	.LVL3:
  60 002a 7047     		bx	lr
  61              	.LVL4:
  62              	.L4:
1154:Drivers/STM32F7xx_HAL_Driver/Src/stm32f7xx_ll_sdmmc.c ****     }
  63              		.loc 1 1154 0
  64 002c 4FF00040 		mov	r0, #-2147483648
  65              	.LVL5:
1163:Drivers/STM32F7xx_HAL_Driver/Src/stm32f7xx_ll_sdmmc.c **** }
  66              		.loc 1 1163 0
  67 0030 7047     		bx	lr
  68              	.L6:
  69 0032 00BF     		.align	2
  70              	.L5:
  71 0034 00000000 		.word	SystemCoreClock
  72 0038 D34D6210 		.word	274877907
  73              		.cfi_endproc
  74              	.LFE174:
  76              		.section	.text.SDMMC_GetCmdResp2,"ax",%progbits
  77              		.align	1
  78              		.syntax unified
  79              		.thumb
  80              		.thumb_func
  81              		.fpu fpv5-sp-d16
  83              	SDMMC_GetCmdResp2:
  84              	.LFB176:
1164:Drivers/STM32F7xx_HAL_Driver/Src/stm32f7xx_ll_sdmmc.c **** 
1165:Drivers/STM32F7xx_HAL_Driver/Src/stm32f7xx_ll_sdmmc.c **** /**
1166:Drivers/STM32F7xx_HAL_Driver/Src/stm32f7xx_ll_sdmmc.c ****   * @brief  Checks for error conditions for R1 response.
1167:Drivers/STM32F7xx_HAL_Driver/Src/stm32f7xx_ll_sdmmc.c ****   * @param  hsd SD handle
1168:Drivers/STM32F7xx_HAL_Driver/Src/stm32f7xx_ll_sdmmc.c ****   * @param  SD_CMD The sent command index  
1169:Drivers/STM32F7xx_HAL_Driver/Src/stm32f7xx_ll_sdmmc.c ****   * @retval SD Card error state
1170:Drivers/STM32F7xx_HAL_Driver/Src/stm32f7xx_ll_sdmmc.c ****   */
1171:Drivers/STM32F7xx_HAL_Driver/Src/stm32f7xx_ll_sdmmc.c **** static uint32_t SDMMC_GetCmdResp1(SDMMC_TypeDef *SDMMCx, uint8_t SD_CMD, uint32_t Timeout)
ARM GAS  C:\Users\Student\AppData\Local\Temp\ccPRdzQ1.s 			page 23


1172:Drivers/STM32F7xx_HAL_Driver/Src/stm32f7xx_ll_sdmmc.c **** {
1173:Drivers/STM32F7xx_HAL_Driver/Src/stm32f7xx_ll_sdmmc.c ****   uint32_t response_r1;
1174:Drivers/STM32F7xx_HAL_Driver/Src/stm32f7xx_ll_sdmmc.c ****   
1175:Drivers/STM32F7xx_HAL_Driver/Src/stm32f7xx_ll_sdmmc.c ****   /* 8 is the number of required instructions cycles for the below loop statement.
1176:Drivers/STM32F7xx_HAL_Driver/Src/stm32f7xx_ll_sdmmc.c ****   The Timeout is expressed in ms */
1177:Drivers/STM32F7xx_HAL_Driver/Src/stm32f7xx_ll_sdmmc.c ****   register uint32_t count = Timeout * (SystemCoreClock / 8 /1000);
1178:Drivers/STM32F7xx_HAL_Driver/Src/stm32f7xx_ll_sdmmc.c ****   
1179:Drivers/STM32F7xx_HAL_Driver/Src/stm32f7xx_ll_sdmmc.c ****   do
1180:Drivers/STM32F7xx_HAL_Driver/Src/stm32f7xx_ll_sdmmc.c ****   {
1181:Drivers/STM32F7xx_HAL_Driver/Src/stm32f7xx_ll_sdmmc.c ****     if (count-- == 0)
1182:Drivers/STM32F7xx_HAL_Driver/Src/stm32f7xx_ll_sdmmc.c ****     {
1183:Drivers/STM32F7xx_HAL_Driver/Src/stm32f7xx_ll_sdmmc.c ****       return SDMMC_ERROR_TIMEOUT;
1184:Drivers/STM32F7xx_HAL_Driver/Src/stm32f7xx_ll_sdmmc.c ****     }
1185:Drivers/STM32F7xx_HAL_Driver/Src/stm32f7xx_ll_sdmmc.c ****     
1186:Drivers/STM32F7xx_HAL_Driver/Src/stm32f7xx_ll_sdmmc.c ****   }while(!__SDMMC_GET_FLAG(SDMMCx, SDMMC_FLAG_CCRCFAIL | SDMMC_FLAG_CMDREND | SDMMC_FLAG_CTIMEOUT))
1187:Drivers/STM32F7xx_HAL_Driver/Src/stm32f7xx_ll_sdmmc.c ****   
1188:Drivers/STM32F7xx_HAL_Driver/Src/stm32f7xx_ll_sdmmc.c ****   if(__SDMMC_GET_FLAG(SDMMCx, SDMMC_FLAG_CTIMEOUT))
1189:Drivers/STM32F7xx_HAL_Driver/Src/stm32f7xx_ll_sdmmc.c ****   {
1190:Drivers/STM32F7xx_HAL_Driver/Src/stm32f7xx_ll_sdmmc.c ****     __SDMMC_CLEAR_FLAG(SDMMCx, SDMMC_FLAG_CTIMEOUT);
1191:Drivers/STM32F7xx_HAL_Driver/Src/stm32f7xx_ll_sdmmc.c ****     
1192:Drivers/STM32F7xx_HAL_Driver/Src/stm32f7xx_ll_sdmmc.c ****     return SDMMC_ERROR_CMD_RSP_TIMEOUT;
1193:Drivers/STM32F7xx_HAL_Driver/Src/stm32f7xx_ll_sdmmc.c ****   }
1194:Drivers/STM32F7xx_HAL_Driver/Src/stm32f7xx_ll_sdmmc.c ****   else if(__SDMMC_GET_FLAG(SDMMCx, SDMMC_FLAG_CCRCFAIL))
1195:Drivers/STM32F7xx_HAL_Driver/Src/stm32f7xx_ll_sdmmc.c ****   {
1196:Drivers/STM32F7xx_HAL_Driver/Src/stm32f7xx_ll_sdmmc.c ****     __SDMMC_CLEAR_FLAG(SDMMCx, SDMMC_FLAG_CCRCFAIL);
1197:Drivers/STM32F7xx_HAL_Driver/Src/stm32f7xx_ll_sdmmc.c ****     
1198:Drivers/STM32F7xx_HAL_Driver/Src/stm32f7xx_ll_sdmmc.c ****     return SDMMC_ERROR_CMD_CRC_FAIL;
1199:Drivers/STM32F7xx_HAL_Driver/Src/stm32f7xx_ll_sdmmc.c ****   }
1200:Drivers/STM32F7xx_HAL_Driver/Src/stm32f7xx_ll_sdmmc.c ****   
1201:Drivers/STM32F7xx_HAL_Driver/Src/stm32f7xx_ll_sdmmc.c ****   /* Check response received is of desired command */
1202:Drivers/STM32F7xx_HAL_Driver/Src/stm32f7xx_ll_sdmmc.c ****   if(SDMMC_GetCommandResponse(SDMMCx) != SD_CMD)
1203:Drivers/STM32F7xx_HAL_Driver/Src/stm32f7xx_ll_sdmmc.c ****   {
1204:Drivers/STM32F7xx_HAL_Driver/Src/stm32f7xx_ll_sdmmc.c ****     return SDMMC_ERROR_CMD_CRC_FAIL;
1205:Drivers/STM32F7xx_HAL_Driver/Src/stm32f7xx_ll_sdmmc.c ****   }
1206:Drivers/STM32F7xx_HAL_Driver/Src/stm32f7xx_ll_sdmmc.c ****   
1207:Drivers/STM32F7xx_HAL_Driver/Src/stm32f7xx_ll_sdmmc.c ****   /* Clear all the static flags */
1208:Drivers/STM32F7xx_HAL_Driver/Src/stm32f7xx_ll_sdmmc.c ****   __SDMMC_CLEAR_FLAG(SDMMCx, SDMMC_STATIC_FLAGS);
1209:Drivers/STM32F7xx_HAL_Driver/Src/stm32f7xx_ll_sdmmc.c ****   
1210:Drivers/STM32F7xx_HAL_Driver/Src/stm32f7xx_ll_sdmmc.c ****   /* We have received response, retrieve it for analysis  */
1211:Drivers/STM32F7xx_HAL_Driver/Src/stm32f7xx_ll_sdmmc.c ****   response_r1 = SDMMC_GetResponse(SDMMCx, SDMMC_RESP1);
1212:Drivers/STM32F7xx_HAL_Driver/Src/stm32f7xx_ll_sdmmc.c ****   
1213:Drivers/STM32F7xx_HAL_Driver/Src/stm32f7xx_ll_sdmmc.c ****   if((response_r1 & SDMMC_OCR_ERRORBITS) == SDMMC_ALLZERO)
1214:Drivers/STM32F7xx_HAL_Driver/Src/stm32f7xx_ll_sdmmc.c ****   {
1215:Drivers/STM32F7xx_HAL_Driver/Src/stm32f7xx_ll_sdmmc.c ****     return SDMMC_ERROR_NONE;
1216:Drivers/STM32F7xx_HAL_Driver/Src/stm32f7xx_ll_sdmmc.c ****   }
1217:Drivers/STM32F7xx_HAL_Driver/Src/stm32f7xx_ll_sdmmc.c ****   else if((response_r1 & SDMMC_OCR_ADDR_OUT_OF_RANGE) == SDMMC_OCR_ADDR_OUT_OF_RANGE)
1218:Drivers/STM32F7xx_HAL_Driver/Src/stm32f7xx_ll_sdmmc.c ****   {
1219:Drivers/STM32F7xx_HAL_Driver/Src/stm32f7xx_ll_sdmmc.c ****     return SDMMC_ERROR_ADDR_OUT_OF_RANGE;
1220:Drivers/STM32F7xx_HAL_Driver/Src/stm32f7xx_ll_sdmmc.c ****   }
1221:Drivers/STM32F7xx_HAL_Driver/Src/stm32f7xx_ll_sdmmc.c ****   else if((response_r1 & SDMMC_OCR_ADDR_MISALIGNED) == SDMMC_OCR_ADDR_MISALIGNED)
1222:Drivers/STM32F7xx_HAL_Driver/Src/stm32f7xx_ll_sdmmc.c ****   {
1223:Drivers/STM32F7xx_HAL_Driver/Src/stm32f7xx_ll_sdmmc.c ****     return SDMMC_ERROR_ADDR_MISALIGNED;
1224:Drivers/STM32F7xx_HAL_Driver/Src/stm32f7xx_ll_sdmmc.c ****   }
1225:Drivers/STM32F7xx_HAL_Driver/Src/stm32f7xx_ll_sdmmc.c ****   else if((response_r1 & SDMMC_OCR_BLOCK_LEN_ERR) == SDMMC_OCR_BLOCK_LEN_ERR)
1226:Drivers/STM32F7xx_HAL_Driver/Src/stm32f7xx_ll_sdmmc.c ****   {
1227:Drivers/STM32F7xx_HAL_Driver/Src/stm32f7xx_ll_sdmmc.c ****     return SDMMC_ERROR_BLOCK_LEN_ERR;
1228:Drivers/STM32F7xx_HAL_Driver/Src/stm32f7xx_ll_sdmmc.c ****   }
ARM GAS  C:\Users\Student\AppData\Local\Temp\ccPRdzQ1.s 			page 24


1229:Drivers/STM32F7xx_HAL_Driver/Src/stm32f7xx_ll_sdmmc.c ****   else if((response_r1 & SDMMC_OCR_ERASE_SEQ_ERR) == SDMMC_OCR_ERASE_SEQ_ERR)
1230:Drivers/STM32F7xx_HAL_Driver/Src/stm32f7xx_ll_sdmmc.c ****   {
1231:Drivers/STM32F7xx_HAL_Driver/Src/stm32f7xx_ll_sdmmc.c ****     return SDMMC_ERROR_ERASE_SEQ_ERR;
1232:Drivers/STM32F7xx_HAL_Driver/Src/stm32f7xx_ll_sdmmc.c ****   }
1233:Drivers/STM32F7xx_HAL_Driver/Src/stm32f7xx_ll_sdmmc.c ****   else if((response_r1 & SDMMC_OCR_BAD_ERASE_PARAM) == SDMMC_OCR_BAD_ERASE_PARAM)
1234:Drivers/STM32F7xx_HAL_Driver/Src/stm32f7xx_ll_sdmmc.c ****   {
1235:Drivers/STM32F7xx_HAL_Driver/Src/stm32f7xx_ll_sdmmc.c ****     return SDMMC_ERROR_BAD_ERASE_PARAM;
1236:Drivers/STM32F7xx_HAL_Driver/Src/stm32f7xx_ll_sdmmc.c ****   }
1237:Drivers/STM32F7xx_HAL_Driver/Src/stm32f7xx_ll_sdmmc.c ****   else if((response_r1 & SDMMC_OCR_WRITE_PROT_VIOLATION) == SDMMC_OCR_WRITE_PROT_VIOLATION)
1238:Drivers/STM32F7xx_HAL_Driver/Src/stm32f7xx_ll_sdmmc.c ****   {
1239:Drivers/STM32F7xx_HAL_Driver/Src/stm32f7xx_ll_sdmmc.c ****     return SDMMC_ERROR_WRITE_PROT_VIOLATION;
1240:Drivers/STM32F7xx_HAL_Driver/Src/stm32f7xx_ll_sdmmc.c ****   }
1241:Drivers/STM32F7xx_HAL_Driver/Src/stm32f7xx_ll_sdmmc.c ****   else if((response_r1 & SDMMC_OCR_LOCK_UNLOCK_FAILED) == SDMMC_OCR_LOCK_UNLOCK_FAILED)
1242:Drivers/STM32F7xx_HAL_Driver/Src/stm32f7xx_ll_sdmmc.c ****   {
1243:Drivers/STM32F7xx_HAL_Driver/Src/stm32f7xx_ll_sdmmc.c ****     return SDMMC_ERROR_LOCK_UNLOCK_FAILED;
1244:Drivers/STM32F7xx_HAL_Driver/Src/stm32f7xx_ll_sdmmc.c ****   }
1245:Drivers/STM32F7xx_HAL_Driver/Src/stm32f7xx_ll_sdmmc.c ****   else if((response_r1 & SDMMC_OCR_COM_CRC_FAILED) == SDMMC_OCR_COM_CRC_FAILED)
1246:Drivers/STM32F7xx_HAL_Driver/Src/stm32f7xx_ll_sdmmc.c ****   {
1247:Drivers/STM32F7xx_HAL_Driver/Src/stm32f7xx_ll_sdmmc.c ****     return SDMMC_ERROR_COM_CRC_FAILED;
1248:Drivers/STM32F7xx_HAL_Driver/Src/stm32f7xx_ll_sdmmc.c ****   }
1249:Drivers/STM32F7xx_HAL_Driver/Src/stm32f7xx_ll_sdmmc.c ****   else if((response_r1 & SDMMC_OCR_ILLEGAL_CMD) == SDMMC_OCR_ILLEGAL_CMD)
1250:Drivers/STM32F7xx_HAL_Driver/Src/stm32f7xx_ll_sdmmc.c ****   {
1251:Drivers/STM32F7xx_HAL_Driver/Src/stm32f7xx_ll_sdmmc.c ****     return SDMMC_ERROR_ILLEGAL_CMD;
1252:Drivers/STM32F7xx_HAL_Driver/Src/stm32f7xx_ll_sdmmc.c ****   }
1253:Drivers/STM32F7xx_HAL_Driver/Src/stm32f7xx_ll_sdmmc.c ****   else if((response_r1 & SDMMC_OCR_CARD_ECC_FAILED) == SDMMC_OCR_CARD_ECC_FAILED)
1254:Drivers/STM32F7xx_HAL_Driver/Src/stm32f7xx_ll_sdmmc.c ****   {
1255:Drivers/STM32F7xx_HAL_Driver/Src/stm32f7xx_ll_sdmmc.c ****     return SDMMC_ERROR_CARD_ECC_FAILED;
1256:Drivers/STM32F7xx_HAL_Driver/Src/stm32f7xx_ll_sdmmc.c ****   }
1257:Drivers/STM32F7xx_HAL_Driver/Src/stm32f7xx_ll_sdmmc.c ****   else if((response_r1 & SDMMC_OCR_CC_ERROR) == SDMMC_OCR_CC_ERROR)
1258:Drivers/STM32F7xx_HAL_Driver/Src/stm32f7xx_ll_sdmmc.c ****   {
1259:Drivers/STM32F7xx_HAL_Driver/Src/stm32f7xx_ll_sdmmc.c ****     return SDMMC_ERROR_CC_ERR;
1260:Drivers/STM32F7xx_HAL_Driver/Src/stm32f7xx_ll_sdmmc.c ****   }
1261:Drivers/STM32F7xx_HAL_Driver/Src/stm32f7xx_ll_sdmmc.c ****   else if((response_r1 & SDMMC_OCR_STREAM_READ_UNDERRUN) == SDMMC_OCR_STREAM_READ_UNDERRUN)
1262:Drivers/STM32F7xx_HAL_Driver/Src/stm32f7xx_ll_sdmmc.c ****   {
1263:Drivers/STM32F7xx_HAL_Driver/Src/stm32f7xx_ll_sdmmc.c ****     return SDMMC_ERROR_STREAM_READ_UNDERRUN;
1264:Drivers/STM32F7xx_HAL_Driver/Src/stm32f7xx_ll_sdmmc.c ****   }
1265:Drivers/STM32F7xx_HAL_Driver/Src/stm32f7xx_ll_sdmmc.c ****   else if((response_r1 & SDMMC_OCR_STREAM_WRITE_OVERRUN) == SDMMC_OCR_STREAM_WRITE_OVERRUN)
1266:Drivers/STM32F7xx_HAL_Driver/Src/stm32f7xx_ll_sdmmc.c ****   {
1267:Drivers/STM32F7xx_HAL_Driver/Src/stm32f7xx_ll_sdmmc.c ****     return SDMMC_ERROR_STREAM_WRITE_OVERRUN;
1268:Drivers/STM32F7xx_HAL_Driver/Src/stm32f7xx_ll_sdmmc.c ****   }
1269:Drivers/STM32F7xx_HAL_Driver/Src/stm32f7xx_ll_sdmmc.c ****   else if((response_r1 & SDMMC_OCR_CID_CSD_OVERWRITE) == SDMMC_OCR_CID_CSD_OVERWRITE)
1270:Drivers/STM32F7xx_HAL_Driver/Src/stm32f7xx_ll_sdmmc.c ****   {
1271:Drivers/STM32F7xx_HAL_Driver/Src/stm32f7xx_ll_sdmmc.c ****     return SDMMC_ERROR_CID_CSD_OVERWRITE;
1272:Drivers/STM32F7xx_HAL_Driver/Src/stm32f7xx_ll_sdmmc.c ****   }
1273:Drivers/STM32F7xx_HAL_Driver/Src/stm32f7xx_ll_sdmmc.c ****   else if((response_r1 & SDMMC_OCR_WP_ERASE_SKIP) == SDMMC_OCR_WP_ERASE_SKIP)
1274:Drivers/STM32F7xx_HAL_Driver/Src/stm32f7xx_ll_sdmmc.c ****   {
1275:Drivers/STM32F7xx_HAL_Driver/Src/stm32f7xx_ll_sdmmc.c ****     return SDMMC_ERROR_WP_ERASE_SKIP;
1276:Drivers/STM32F7xx_HAL_Driver/Src/stm32f7xx_ll_sdmmc.c ****   }
1277:Drivers/STM32F7xx_HAL_Driver/Src/stm32f7xx_ll_sdmmc.c ****   else if((response_r1 & SDMMC_OCR_CARD_ECC_DISABLED) == SDMMC_OCR_CARD_ECC_DISABLED)
1278:Drivers/STM32F7xx_HAL_Driver/Src/stm32f7xx_ll_sdmmc.c ****   {
1279:Drivers/STM32F7xx_HAL_Driver/Src/stm32f7xx_ll_sdmmc.c ****     return SDMMC_ERROR_CARD_ECC_DISABLED;
1280:Drivers/STM32F7xx_HAL_Driver/Src/stm32f7xx_ll_sdmmc.c ****   }
1281:Drivers/STM32F7xx_HAL_Driver/Src/stm32f7xx_ll_sdmmc.c ****   else if((response_r1 & SDMMC_OCR_ERASE_RESET) == SDMMC_OCR_ERASE_RESET)
1282:Drivers/STM32F7xx_HAL_Driver/Src/stm32f7xx_ll_sdmmc.c ****   {
1283:Drivers/STM32F7xx_HAL_Driver/Src/stm32f7xx_ll_sdmmc.c ****     return SDMMC_ERROR_ERASE_RESET;
1284:Drivers/STM32F7xx_HAL_Driver/Src/stm32f7xx_ll_sdmmc.c ****   }
1285:Drivers/STM32F7xx_HAL_Driver/Src/stm32f7xx_ll_sdmmc.c ****   else if((response_r1 & SDMMC_OCR_AKE_SEQ_ERROR) == SDMMC_OCR_AKE_SEQ_ERROR)
ARM GAS  C:\Users\Student\AppData\Local\Temp\ccPRdzQ1.s 			page 25


1286:Drivers/STM32F7xx_HAL_Driver/Src/stm32f7xx_ll_sdmmc.c ****   {
1287:Drivers/STM32F7xx_HAL_Driver/Src/stm32f7xx_ll_sdmmc.c ****     return SDMMC_ERROR_AKE_SEQ_ERR;
1288:Drivers/STM32F7xx_HAL_Driver/Src/stm32f7xx_ll_sdmmc.c ****   }
1289:Drivers/STM32F7xx_HAL_Driver/Src/stm32f7xx_ll_sdmmc.c ****   else
1290:Drivers/STM32F7xx_HAL_Driver/Src/stm32f7xx_ll_sdmmc.c ****   {
1291:Drivers/STM32F7xx_HAL_Driver/Src/stm32f7xx_ll_sdmmc.c ****     return SDMMC_ERROR_GENERAL_UNKNOWN_ERR;
1292:Drivers/STM32F7xx_HAL_Driver/Src/stm32f7xx_ll_sdmmc.c ****   }
1293:Drivers/STM32F7xx_HAL_Driver/Src/stm32f7xx_ll_sdmmc.c **** }
1294:Drivers/STM32F7xx_HAL_Driver/Src/stm32f7xx_ll_sdmmc.c **** 
1295:Drivers/STM32F7xx_HAL_Driver/Src/stm32f7xx_ll_sdmmc.c **** /**
1296:Drivers/STM32F7xx_HAL_Driver/Src/stm32f7xx_ll_sdmmc.c ****   * @brief  Checks for error conditions for R2 (CID or CSD) response.
1297:Drivers/STM32F7xx_HAL_Driver/Src/stm32f7xx_ll_sdmmc.c ****   * @param  hsd SD handle
1298:Drivers/STM32F7xx_HAL_Driver/Src/stm32f7xx_ll_sdmmc.c ****   * @retval SD Card error state
1299:Drivers/STM32F7xx_HAL_Driver/Src/stm32f7xx_ll_sdmmc.c ****   */
1300:Drivers/STM32F7xx_HAL_Driver/Src/stm32f7xx_ll_sdmmc.c **** static uint32_t SDMMC_GetCmdResp2(SDMMC_TypeDef *SDMMCx)
1301:Drivers/STM32F7xx_HAL_Driver/Src/stm32f7xx_ll_sdmmc.c **** {
  85              		.loc 1 1301 0
  86              		.cfi_startproc
  87              		@ args = 0, pretend = 0, frame = 0
  88              		@ frame_needed = 0, uses_anonymous_args = 0
  89              		@ link register save eliminated.
  90              	.LVL6:
1302:Drivers/STM32F7xx_HAL_Driver/Src/stm32f7xx_ll_sdmmc.c ****   /* 8 is the number of required instructions cycles for the below loop statement.
1303:Drivers/STM32F7xx_HAL_Driver/Src/stm32f7xx_ll_sdmmc.c ****   The SDMMC_CMDTIMEOUT is expressed in ms */
1304:Drivers/STM32F7xx_HAL_Driver/Src/stm32f7xx_ll_sdmmc.c ****   register uint32_t count = SDMMC_CMDTIMEOUT * (SystemCoreClock / 8 /1000);
  91              		.loc 1 1304 0
  92 0000 144B     		ldr	r3, .L14
  93 0002 1B68     		ldr	r3, [r3]
  94 0004 144A     		ldr	r2, .L14+4
  95 0006 A2FB0323 		umull	r2, r3, r2, r3
  96 000a 5A0A     		lsrs	r2, r3, #9
  97 000c 41F28833 		movw	r3, #5000
  98 0010 03FB02F3 		mul	r3, r3, r2
  99              	.LVL7:
 100              	.L9:
1305:Drivers/STM32F7xx_HAL_Driver/Src/stm32f7xx_ll_sdmmc.c ****   
1306:Drivers/STM32F7xx_HAL_Driver/Src/stm32f7xx_ll_sdmmc.c ****   do
1307:Drivers/STM32F7xx_HAL_Driver/Src/stm32f7xx_ll_sdmmc.c ****   {
1308:Drivers/STM32F7xx_HAL_Driver/Src/stm32f7xx_ll_sdmmc.c ****     if (count-- == 0)
 101              		.loc 1 1308 0
 102 0014 5A1E     		subs	r2, r3, #1
 103              	.LVL8:
 104 0016 CBB1     		cbz	r3, .L12
1309:Drivers/STM32F7xx_HAL_Driver/Src/stm32f7xx_ll_sdmmc.c ****     {
1310:Drivers/STM32F7xx_HAL_Driver/Src/stm32f7xx_ll_sdmmc.c ****       return SDMMC_ERROR_TIMEOUT;
1311:Drivers/STM32F7xx_HAL_Driver/Src/stm32f7xx_ll_sdmmc.c ****     }
1312:Drivers/STM32F7xx_HAL_Driver/Src/stm32f7xx_ll_sdmmc.c ****     
1313:Drivers/STM32F7xx_HAL_Driver/Src/stm32f7xx_ll_sdmmc.c ****   }while(!__SDMMC_GET_FLAG(SDMMCx, SDMMC_FLAG_CCRCFAIL | SDMMC_FLAG_CMDREND | SDMMC_FLAG_CTIMEOUT))
 105              		.loc 1 1313 0
 106 0018 416B     		ldr	r1, [r0, #52]
1308:Drivers/STM32F7xx_HAL_Driver/Src/stm32f7xx_ll_sdmmc.c ****     {
 107              		.loc 1 1308 0
 108 001a 1346     		mov	r3, r2
 109              		.loc 1 1313 0
 110 001c 11F0450F 		tst	r1, #69
 111 0020 F8D0     		beq	.L9
1314:Drivers/STM32F7xx_HAL_Driver/Src/stm32f7xx_ll_sdmmc.c ****     
ARM GAS  C:\Users\Student\AppData\Local\Temp\ccPRdzQ1.s 			page 26


1315:Drivers/STM32F7xx_HAL_Driver/Src/stm32f7xx_ll_sdmmc.c ****   if (__SDMMC_GET_FLAG(SDMMCx, SDMMC_FLAG_CTIMEOUT))
 112              		.loc 1 1315 0
 113 0022 436B     		ldr	r3, [r0, #52]
 114 0024 13F0040F 		tst	r3, #4
 115 0028 03D0     		beq	.L10
1316:Drivers/STM32F7xx_HAL_Driver/Src/stm32f7xx_ll_sdmmc.c ****   {
1317:Drivers/STM32F7xx_HAL_Driver/Src/stm32f7xx_ll_sdmmc.c ****     __SDMMC_CLEAR_FLAG(SDMMCx, SDMMC_FLAG_CTIMEOUT);
 116              		.loc 1 1317 0
 117 002a 0423     		movs	r3, #4
 118 002c 8363     		str	r3, [r0, #56]
1318:Drivers/STM32F7xx_HAL_Driver/Src/stm32f7xx_ll_sdmmc.c ****     
1319:Drivers/STM32F7xx_HAL_Driver/Src/stm32f7xx_ll_sdmmc.c ****     return SDMMC_ERROR_CMD_RSP_TIMEOUT;
 119              		.loc 1 1319 0
 120 002e 1846     		mov	r0, r3
 121              	.LVL9:
 122 0030 7047     		bx	lr
 123              	.LVL10:
 124              	.L10:
1320:Drivers/STM32F7xx_HAL_Driver/Src/stm32f7xx_ll_sdmmc.c ****   }
1321:Drivers/STM32F7xx_HAL_Driver/Src/stm32f7xx_ll_sdmmc.c ****   else if (__SDMMC_GET_FLAG(SDMMCx, SDMMC_FLAG_CCRCFAIL))
 125              		.loc 1 1321 0
 126 0032 436B     		ldr	r3, [r0, #52]
 127 0034 13F0010F 		tst	r3, #1
 128 0038 04D1     		bne	.L13
1322:Drivers/STM32F7xx_HAL_Driver/Src/stm32f7xx_ll_sdmmc.c ****   {
1323:Drivers/STM32F7xx_HAL_Driver/Src/stm32f7xx_ll_sdmmc.c ****     __SDMMC_CLEAR_FLAG(SDMMCx, SDMMC_FLAG_CCRCFAIL);
1324:Drivers/STM32F7xx_HAL_Driver/Src/stm32f7xx_ll_sdmmc.c ****     
1325:Drivers/STM32F7xx_HAL_Driver/Src/stm32f7xx_ll_sdmmc.c ****     return SDMMC_ERROR_CMD_CRC_FAIL;
1326:Drivers/STM32F7xx_HAL_Driver/Src/stm32f7xx_ll_sdmmc.c ****   }
1327:Drivers/STM32F7xx_HAL_Driver/Src/stm32f7xx_ll_sdmmc.c ****   else
1328:Drivers/STM32F7xx_HAL_Driver/Src/stm32f7xx_ll_sdmmc.c ****   {
1329:Drivers/STM32F7xx_HAL_Driver/Src/stm32f7xx_ll_sdmmc.c ****     /* No error flag set */
1330:Drivers/STM32F7xx_HAL_Driver/Src/stm32f7xx_ll_sdmmc.c ****     /* Clear all the static flags */
1331:Drivers/STM32F7xx_HAL_Driver/Src/stm32f7xx_ll_sdmmc.c ****     __SDMMC_CLEAR_FLAG(SDMMCx, SDMMC_STATIC_FLAGS);
 129              		.loc 1 1331 0
 130 003a 40F2FF53 		movw	r3, #1535
 131 003e 8363     		str	r3, [r0, #56]
1332:Drivers/STM32F7xx_HAL_Driver/Src/stm32f7xx_ll_sdmmc.c ****   }
1333:Drivers/STM32F7xx_HAL_Driver/Src/stm32f7xx_ll_sdmmc.c **** 
1334:Drivers/STM32F7xx_HAL_Driver/Src/stm32f7xx_ll_sdmmc.c ****   return SDMMC_ERROR_NONE;
 132              		.loc 1 1334 0
 133 0040 0020     		movs	r0, #0
 134              	.LVL11:
 135 0042 7047     		bx	lr
 136              	.LVL12:
 137              	.L13:
1323:Drivers/STM32F7xx_HAL_Driver/Src/stm32f7xx_ll_sdmmc.c ****     
 138              		.loc 1 1323 0
 139 0044 0123     		movs	r3, #1
 140 0046 8363     		str	r3, [r0, #56]
1325:Drivers/STM32F7xx_HAL_Driver/Src/stm32f7xx_ll_sdmmc.c ****   }
 141              		.loc 1 1325 0
 142 0048 1846     		mov	r0, r3
 143              	.LVL13:
 144 004a 7047     		bx	lr
 145              	.LVL14:
 146              	.L12:
ARM GAS  C:\Users\Student\AppData\Local\Temp\ccPRdzQ1.s 			page 27


1310:Drivers/STM32F7xx_HAL_Driver/Src/stm32f7xx_ll_sdmmc.c ****     }
 147              		.loc 1 1310 0
 148 004c 4FF00040 		mov	r0, #-2147483648
 149              	.LVL15:
1335:Drivers/STM32F7xx_HAL_Driver/Src/stm32f7xx_ll_sdmmc.c **** }
 150              		.loc 1 1335 0
 151 0050 7047     		bx	lr
 152              	.L15:
 153 0052 00BF     		.align	2
 154              	.L14:
 155 0054 00000000 		.word	SystemCoreClock
 156 0058 D34D6210 		.word	274877907
 157              		.cfi_endproc
 158              	.LFE176:
 160              		.section	.text.SDMMC_GetCmdResp3,"ax",%progbits
 161              		.align	1
 162              		.syntax unified
 163              		.thumb
 164              		.thumb_func
 165              		.fpu fpv5-sp-d16
 167              	SDMMC_GetCmdResp3:
 168              	.LFB177:
1336:Drivers/STM32F7xx_HAL_Driver/Src/stm32f7xx_ll_sdmmc.c **** 
1337:Drivers/STM32F7xx_HAL_Driver/Src/stm32f7xx_ll_sdmmc.c **** /**
1338:Drivers/STM32F7xx_HAL_Driver/Src/stm32f7xx_ll_sdmmc.c ****   * @brief  Checks for error conditions for R3 (OCR) response.
1339:Drivers/STM32F7xx_HAL_Driver/Src/stm32f7xx_ll_sdmmc.c ****   * @param  hsd SD handle
1340:Drivers/STM32F7xx_HAL_Driver/Src/stm32f7xx_ll_sdmmc.c ****   * @retval SD Card error state
1341:Drivers/STM32F7xx_HAL_Driver/Src/stm32f7xx_ll_sdmmc.c ****   */
1342:Drivers/STM32F7xx_HAL_Driver/Src/stm32f7xx_ll_sdmmc.c **** static uint32_t SDMMC_GetCmdResp3(SDMMC_TypeDef *SDMMCx)
1343:Drivers/STM32F7xx_HAL_Driver/Src/stm32f7xx_ll_sdmmc.c **** {
 169              		.loc 1 1343 0
 170              		.cfi_startproc
 171              		@ args = 0, pretend = 0, frame = 0
 172              		@ frame_needed = 0, uses_anonymous_args = 0
 173              		@ link register save eliminated.
 174              	.LVL16:
1344:Drivers/STM32F7xx_HAL_Driver/Src/stm32f7xx_ll_sdmmc.c ****   /* 8 is the number of required instructions cycles for the below loop statement.
1345:Drivers/STM32F7xx_HAL_Driver/Src/stm32f7xx_ll_sdmmc.c ****   The SDMMC_CMDTIMEOUT is expressed in ms */
1346:Drivers/STM32F7xx_HAL_Driver/Src/stm32f7xx_ll_sdmmc.c ****   register uint32_t count = SDMMC_CMDTIMEOUT * (SystemCoreClock / 8 /1000);
 175              		.loc 1 1346 0
 176 0000 104B     		ldr	r3, .L21
 177 0002 1B68     		ldr	r3, [r3]
 178 0004 104A     		ldr	r2, .L21+4
 179 0006 A2FB0323 		umull	r2, r3, r2, r3
 180 000a 5A0A     		lsrs	r2, r3, #9
 181 000c 41F28833 		movw	r3, #5000
 182 0010 03FB02F3 		mul	r3, r3, r2
 183              	.LVL17:
 184              	.L18:
1347:Drivers/STM32F7xx_HAL_Driver/Src/stm32f7xx_ll_sdmmc.c ****   
1348:Drivers/STM32F7xx_HAL_Driver/Src/stm32f7xx_ll_sdmmc.c ****   do
1349:Drivers/STM32F7xx_HAL_Driver/Src/stm32f7xx_ll_sdmmc.c ****   {
1350:Drivers/STM32F7xx_HAL_Driver/Src/stm32f7xx_ll_sdmmc.c ****     if (count-- == 0)
 185              		.loc 1 1350 0
 186 0014 5A1E     		subs	r2, r3, #1
 187              	.LVL18:
 188 0016 8BB1     		cbz	r3, .L20
ARM GAS  C:\Users\Student\AppData\Local\Temp\ccPRdzQ1.s 			page 28


1351:Drivers/STM32F7xx_HAL_Driver/Src/stm32f7xx_ll_sdmmc.c ****     {
1352:Drivers/STM32F7xx_HAL_Driver/Src/stm32f7xx_ll_sdmmc.c ****       return SDMMC_ERROR_TIMEOUT;
1353:Drivers/STM32F7xx_HAL_Driver/Src/stm32f7xx_ll_sdmmc.c ****     }
1354:Drivers/STM32F7xx_HAL_Driver/Src/stm32f7xx_ll_sdmmc.c ****     
1355:Drivers/STM32F7xx_HAL_Driver/Src/stm32f7xx_ll_sdmmc.c ****   }while(!__SDMMC_GET_FLAG(SDMMCx, SDMMC_FLAG_CCRCFAIL | SDMMC_FLAG_CMDREND | SDMMC_FLAG_CTIMEOUT))
 189              		.loc 1 1355 0
 190 0018 416B     		ldr	r1, [r0, #52]
1350:Drivers/STM32F7xx_HAL_Driver/Src/stm32f7xx_ll_sdmmc.c ****     {
 191              		.loc 1 1350 0
 192 001a 1346     		mov	r3, r2
 193              		.loc 1 1355 0
 194 001c 11F0450F 		tst	r1, #69
 195 0020 F8D0     		beq	.L18
1356:Drivers/STM32F7xx_HAL_Driver/Src/stm32f7xx_ll_sdmmc.c ****   
1357:Drivers/STM32F7xx_HAL_Driver/Src/stm32f7xx_ll_sdmmc.c ****   if(__SDMMC_GET_FLAG(SDMMCx, SDMMC_FLAG_CTIMEOUT))
 196              		.loc 1 1357 0
 197 0022 436B     		ldr	r3, [r0, #52]
 198 0024 13F0040F 		tst	r3, #4
 199 0028 03D0     		beq	.L19
1358:Drivers/STM32F7xx_HAL_Driver/Src/stm32f7xx_ll_sdmmc.c ****   {
1359:Drivers/STM32F7xx_HAL_Driver/Src/stm32f7xx_ll_sdmmc.c ****     __SDMMC_CLEAR_FLAG(SDMMCx, SDMMC_FLAG_CTIMEOUT);
 200              		.loc 1 1359 0
 201 002a 0423     		movs	r3, #4
 202 002c 8363     		str	r3, [r0, #56]
1360:Drivers/STM32F7xx_HAL_Driver/Src/stm32f7xx_ll_sdmmc.c ****     
1361:Drivers/STM32F7xx_HAL_Driver/Src/stm32f7xx_ll_sdmmc.c ****     return SDMMC_ERROR_CMD_RSP_TIMEOUT;
 203              		.loc 1 1361 0
 204 002e 1846     		mov	r0, r3
 205              	.LVL19:
 206 0030 7047     		bx	lr
 207              	.LVL20:
 208              	.L19:
1362:Drivers/STM32F7xx_HAL_Driver/Src/stm32f7xx_ll_sdmmc.c ****   }
1363:Drivers/STM32F7xx_HAL_Driver/Src/stm32f7xx_ll_sdmmc.c ****   else
1364:Drivers/STM32F7xx_HAL_Driver/Src/stm32f7xx_ll_sdmmc.c ****  
1365:Drivers/STM32F7xx_HAL_Driver/Src/stm32f7xx_ll_sdmmc.c ****   {  
1366:Drivers/STM32F7xx_HAL_Driver/Src/stm32f7xx_ll_sdmmc.c ****     /* Clear all the static flags */
1367:Drivers/STM32F7xx_HAL_Driver/Src/stm32f7xx_ll_sdmmc.c ****     __SDMMC_CLEAR_FLAG(SDMMCx, SDMMC_STATIC_FLAGS);
 209              		.loc 1 1367 0
 210 0032 40F2FF53 		movw	r3, #1535
 211 0036 8363     		str	r3, [r0, #56]
1368:Drivers/STM32F7xx_HAL_Driver/Src/stm32f7xx_ll_sdmmc.c ****   }
1369:Drivers/STM32F7xx_HAL_Driver/Src/stm32f7xx_ll_sdmmc.c ****   
1370:Drivers/STM32F7xx_HAL_Driver/Src/stm32f7xx_ll_sdmmc.c ****   return SDMMC_ERROR_NONE;
 212              		.loc 1 1370 0
 213 0038 0020     		movs	r0, #0
 214              	.LVL21:
 215 003a 7047     		bx	lr
 216              	.LVL22:
 217              	.L20:
1352:Drivers/STM32F7xx_HAL_Driver/Src/stm32f7xx_ll_sdmmc.c ****     }
 218              		.loc 1 1352 0
 219 003c 4FF00040 		mov	r0, #-2147483648
 220              	.LVL23:
1371:Drivers/STM32F7xx_HAL_Driver/Src/stm32f7xx_ll_sdmmc.c **** }
 221              		.loc 1 1371 0
 222 0040 7047     		bx	lr
ARM GAS  C:\Users\Student\AppData\Local\Temp\ccPRdzQ1.s 			page 29


 223              	.L22:
 224 0042 00BF     		.align	2
 225              	.L21:
 226 0044 00000000 		.word	SystemCoreClock
 227 0048 D34D6210 		.word	274877907
 228              		.cfi_endproc
 229              	.LFE177:
 231              		.section	.text.SDMMC_GetCmdResp7,"ax",%progbits
 232              		.align	1
 233              		.syntax unified
 234              		.thumb
 235              		.thumb_func
 236              		.fpu fpv5-sp-d16
 238              	SDMMC_GetCmdResp7:
 239              	.LFB179:
1372:Drivers/STM32F7xx_HAL_Driver/Src/stm32f7xx_ll_sdmmc.c **** 
1373:Drivers/STM32F7xx_HAL_Driver/Src/stm32f7xx_ll_sdmmc.c **** /**
1374:Drivers/STM32F7xx_HAL_Driver/Src/stm32f7xx_ll_sdmmc.c ****   * @brief  Checks for error conditions for R6 (RCA) response.
1375:Drivers/STM32F7xx_HAL_Driver/Src/stm32f7xx_ll_sdmmc.c ****   * @param  hsd SD handle
1376:Drivers/STM32F7xx_HAL_Driver/Src/stm32f7xx_ll_sdmmc.c ****   * @param  SD_CMD The sent command index
1377:Drivers/STM32F7xx_HAL_Driver/Src/stm32f7xx_ll_sdmmc.c ****   * @param  pRCA Pointer to the variable that will contain the SD card relative 
1378:Drivers/STM32F7xx_HAL_Driver/Src/stm32f7xx_ll_sdmmc.c ****   *         address RCA   
1379:Drivers/STM32F7xx_HAL_Driver/Src/stm32f7xx_ll_sdmmc.c ****   * @retval SD Card error state
1380:Drivers/STM32F7xx_HAL_Driver/Src/stm32f7xx_ll_sdmmc.c ****   */
1381:Drivers/STM32F7xx_HAL_Driver/Src/stm32f7xx_ll_sdmmc.c **** static uint32_t SDMMC_GetCmdResp6(SDMMC_TypeDef *SDMMCx, uint8_t SD_CMD, uint16_t *pRCA)
1382:Drivers/STM32F7xx_HAL_Driver/Src/stm32f7xx_ll_sdmmc.c **** {
1383:Drivers/STM32F7xx_HAL_Driver/Src/stm32f7xx_ll_sdmmc.c ****   uint32_t response_r1;
1384:Drivers/STM32F7xx_HAL_Driver/Src/stm32f7xx_ll_sdmmc.c **** 
1385:Drivers/STM32F7xx_HAL_Driver/Src/stm32f7xx_ll_sdmmc.c ****   /* 8 is the number of required instructions cycles for the below loop statement.
1386:Drivers/STM32F7xx_HAL_Driver/Src/stm32f7xx_ll_sdmmc.c ****   The SDMMC_CMDTIMEOUT is expressed in ms */
1387:Drivers/STM32F7xx_HAL_Driver/Src/stm32f7xx_ll_sdmmc.c ****   register uint32_t count = SDMMC_CMDTIMEOUT * (SystemCoreClock / 8 /1000);
1388:Drivers/STM32F7xx_HAL_Driver/Src/stm32f7xx_ll_sdmmc.c ****   
1389:Drivers/STM32F7xx_HAL_Driver/Src/stm32f7xx_ll_sdmmc.c ****   do
1390:Drivers/STM32F7xx_HAL_Driver/Src/stm32f7xx_ll_sdmmc.c ****   {
1391:Drivers/STM32F7xx_HAL_Driver/Src/stm32f7xx_ll_sdmmc.c ****     if (count-- == 0)
1392:Drivers/STM32F7xx_HAL_Driver/Src/stm32f7xx_ll_sdmmc.c ****     {
1393:Drivers/STM32F7xx_HAL_Driver/Src/stm32f7xx_ll_sdmmc.c ****       return SDMMC_ERROR_TIMEOUT;
1394:Drivers/STM32F7xx_HAL_Driver/Src/stm32f7xx_ll_sdmmc.c ****     }
1395:Drivers/STM32F7xx_HAL_Driver/Src/stm32f7xx_ll_sdmmc.c ****     
1396:Drivers/STM32F7xx_HAL_Driver/Src/stm32f7xx_ll_sdmmc.c ****   }while(!__SDMMC_GET_FLAG(SDMMCx, SDMMC_FLAG_CCRCFAIL | SDMMC_FLAG_CMDREND | SDMMC_FLAG_CTIMEOUT))
1397:Drivers/STM32F7xx_HAL_Driver/Src/stm32f7xx_ll_sdmmc.c ****   
1398:Drivers/STM32F7xx_HAL_Driver/Src/stm32f7xx_ll_sdmmc.c ****   if(__SDMMC_GET_FLAG(SDMMCx, SDMMC_FLAG_CTIMEOUT))
1399:Drivers/STM32F7xx_HAL_Driver/Src/stm32f7xx_ll_sdmmc.c ****   {
1400:Drivers/STM32F7xx_HAL_Driver/Src/stm32f7xx_ll_sdmmc.c ****     __SDMMC_CLEAR_FLAG(SDMMCx, SDMMC_FLAG_CTIMEOUT);
1401:Drivers/STM32F7xx_HAL_Driver/Src/stm32f7xx_ll_sdmmc.c ****     
1402:Drivers/STM32F7xx_HAL_Driver/Src/stm32f7xx_ll_sdmmc.c ****     return SDMMC_ERROR_CMD_RSP_TIMEOUT;
1403:Drivers/STM32F7xx_HAL_Driver/Src/stm32f7xx_ll_sdmmc.c ****   }
1404:Drivers/STM32F7xx_HAL_Driver/Src/stm32f7xx_ll_sdmmc.c ****   else if(__SDMMC_GET_FLAG(SDMMCx, SDMMC_FLAG_CCRCFAIL))
1405:Drivers/STM32F7xx_HAL_Driver/Src/stm32f7xx_ll_sdmmc.c ****   {
1406:Drivers/STM32F7xx_HAL_Driver/Src/stm32f7xx_ll_sdmmc.c ****     __SDMMC_CLEAR_FLAG(SDMMCx, SDMMC_FLAG_CCRCFAIL);
1407:Drivers/STM32F7xx_HAL_Driver/Src/stm32f7xx_ll_sdmmc.c ****     
1408:Drivers/STM32F7xx_HAL_Driver/Src/stm32f7xx_ll_sdmmc.c ****     return SDMMC_ERROR_CMD_CRC_FAIL;
1409:Drivers/STM32F7xx_HAL_Driver/Src/stm32f7xx_ll_sdmmc.c ****   }
1410:Drivers/STM32F7xx_HAL_Driver/Src/stm32f7xx_ll_sdmmc.c ****   
1411:Drivers/STM32F7xx_HAL_Driver/Src/stm32f7xx_ll_sdmmc.c ****   /* Check response received is of desired command */
1412:Drivers/STM32F7xx_HAL_Driver/Src/stm32f7xx_ll_sdmmc.c ****   if(SDMMC_GetCommandResponse(SDMMCx) != SD_CMD)
1413:Drivers/STM32F7xx_HAL_Driver/Src/stm32f7xx_ll_sdmmc.c ****   {
ARM GAS  C:\Users\Student\AppData\Local\Temp\ccPRdzQ1.s 			page 30


1414:Drivers/STM32F7xx_HAL_Driver/Src/stm32f7xx_ll_sdmmc.c ****     return SDMMC_ERROR_CMD_CRC_FAIL;
1415:Drivers/STM32F7xx_HAL_Driver/Src/stm32f7xx_ll_sdmmc.c ****   }
1416:Drivers/STM32F7xx_HAL_Driver/Src/stm32f7xx_ll_sdmmc.c ****   
1417:Drivers/STM32F7xx_HAL_Driver/Src/stm32f7xx_ll_sdmmc.c ****   /* Clear all the static flags */
1418:Drivers/STM32F7xx_HAL_Driver/Src/stm32f7xx_ll_sdmmc.c ****   __SDMMC_CLEAR_FLAG(SDMMCx, SDMMC_STATIC_FLAGS);
1419:Drivers/STM32F7xx_HAL_Driver/Src/stm32f7xx_ll_sdmmc.c ****   
1420:Drivers/STM32F7xx_HAL_Driver/Src/stm32f7xx_ll_sdmmc.c ****   /* We have received response, retrieve it.  */
1421:Drivers/STM32F7xx_HAL_Driver/Src/stm32f7xx_ll_sdmmc.c ****   response_r1 = SDMMC_GetResponse(SDMMCx, SDMMC_RESP1);
1422:Drivers/STM32F7xx_HAL_Driver/Src/stm32f7xx_ll_sdmmc.c ****   
1423:Drivers/STM32F7xx_HAL_Driver/Src/stm32f7xx_ll_sdmmc.c ****   if((response_r1 & (SDMMC_R6_GENERAL_UNKNOWN_ERROR | SDMMC_R6_ILLEGAL_CMD | SDMMC_R6_COM_CRC_FAILE
1424:Drivers/STM32F7xx_HAL_Driver/Src/stm32f7xx_ll_sdmmc.c ****   {
1425:Drivers/STM32F7xx_HAL_Driver/Src/stm32f7xx_ll_sdmmc.c ****     *pRCA = (uint16_t) (response_r1 >> 16);
1426:Drivers/STM32F7xx_HAL_Driver/Src/stm32f7xx_ll_sdmmc.c ****     
1427:Drivers/STM32F7xx_HAL_Driver/Src/stm32f7xx_ll_sdmmc.c ****     return SDMMC_ERROR_NONE;
1428:Drivers/STM32F7xx_HAL_Driver/Src/stm32f7xx_ll_sdmmc.c ****   }
1429:Drivers/STM32F7xx_HAL_Driver/Src/stm32f7xx_ll_sdmmc.c ****   else if((response_r1 & SDMMC_R6_ILLEGAL_CMD) == SDMMC_R6_ILLEGAL_CMD)
1430:Drivers/STM32F7xx_HAL_Driver/Src/stm32f7xx_ll_sdmmc.c ****   {
1431:Drivers/STM32F7xx_HAL_Driver/Src/stm32f7xx_ll_sdmmc.c ****     return SDMMC_ERROR_ILLEGAL_CMD;
1432:Drivers/STM32F7xx_HAL_Driver/Src/stm32f7xx_ll_sdmmc.c ****   }
1433:Drivers/STM32F7xx_HAL_Driver/Src/stm32f7xx_ll_sdmmc.c ****   else if((response_r1 & SDMMC_R6_COM_CRC_FAILED) == SDMMC_R6_COM_CRC_FAILED)
1434:Drivers/STM32F7xx_HAL_Driver/Src/stm32f7xx_ll_sdmmc.c ****   {
1435:Drivers/STM32F7xx_HAL_Driver/Src/stm32f7xx_ll_sdmmc.c ****     return SDMMC_ERROR_COM_CRC_FAILED;
1436:Drivers/STM32F7xx_HAL_Driver/Src/stm32f7xx_ll_sdmmc.c ****   }
1437:Drivers/STM32F7xx_HAL_Driver/Src/stm32f7xx_ll_sdmmc.c ****   else
1438:Drivers/STM32F7xx_HAL_Driver/Src/stm32f7xx_ll_sdmmc.c ****   {
1439:Drivers/STM32F7xx_HAL_Driver/Src/stm32f7xx_ll_sdmmc.c ****     return SDMMC_ERROR_GENERAL_UNKNOWN_ERR;
1440:Drivers/STM32F7xx_HAL_Driver/Src/stm32f7xx_ll_sdmmc.c ****   }
1441:Drivers/STM32F7xx_HAL_Driver/Src/stm32f7xx_ll_sdmmc.c **** }
1442:Drivers/STM32F7xx_HAL_Driver/Src/stm32f7xx_ll_sdmmc.c **** 
1443:Drivers/STM32F7xx_HAL_Driver/Src/stm32f7xx_ll_sdmmc.c **** /**
1444:Drivers/STM32F7xx_HAL_Driver/Src/stm32f7xx_ll_sdmmc.c ****   * @brief  Checks for error conditions for R7 response.
1445:Drivers/STM32F7xx_HAL_Driver/Src/stm32f7xx_ll_sdmmc.c ****   * @param  hsd SD handle
1446:Drivers/STM32F7xx_HAL_Driver/Src/stm32f7xx_ll_sdmmc.c ****   * @retval SD Card error state
1447:Drivers/STM32F7xx_HAL_Driver/Src/stm32f7xx_ll_sdmmc.c ****   */
1448:Drivers/STM32F7xx_HAL_Driver/Src/stm32f7xx_ll_sdmmc.c **** static uint32_t SDMMC_GetCmdResp7(SDMMC_TypeDef *SDMMCx)
1449:Drivers/STM32F7xx_HAL_Driver/Src/stm32f7xx_ll_sdmmc.c **** {
 240              		.loc 1 1449 0
 241              		.cfi_startproc
 242              		@ args = 0, pretend = 0, frame = 0
 243              		@ frame_needed = 0, uses_anonymous_args = 0
 244              		@ link register save eliminated.
 245              	.LVL24:
1450:Drivers/STM32F7xx_HAL_Driver/Src/stm32f7xx_ll_sdmmc.c ****   /* 8 is the number of required instructions cycles for the below loop statement.
1451:Drivers/STM32F7xx_HAL_Driver/Src/stm32f7xx_ll_sdmmc.c ****   The SDMMC_CMDTIMEOUT is expressed in ms */
1452:Drivers/STM32F7xx_HAL_Driver/Src/stm32f7xx_ll_sdmmc.c ****   register uint32_t count = SDMMC_CMDTIMEOUT * (SystemCoreClock / 8 /1000);
 246              		.loc 1 1452 0
 247 0000 124B     		ldr	r3, .L29
 248 0002 1B68     		ldr	r3, [r3]
 249 0004 124A     		ldr	r2, .L29+4
 250 0006 A2FB0323 		umull	r2, r3, r2, r3
 251 000a 5A0A     		lsrs	r2, r3, #9
 252 000c 41F28833 		movw	r3, #5000
 253 0010 03FB02F3 		mul	r3, r3, r2
 254              	.LVL25:
 255              	.L25:
1453:Drivers/STM32F7xx_HAL_Driver/Src/stm32f7xx_ll_sdmmc.c ****   
1454:Drivers/STM32F7xx_HAL_Driver/Src/stm32f7xx_ll_sdmmc.c ****   do
ARM GAS  C:\Users\Student\AppData\Local\Temp\ccPRdzQ1.s 			page 31


1455:Drivers/STM32F7xx_HAL_Driver/Src/stm32f7xx_ll_sdmmc.c ****   {
1456:Drivers/STM32F7xx_HAL_Driver/Src/stm32f7xx_ll_sdmmc.c ****     if (count-- == 0)
 256              		.loc 1 1456 0
 257 0014 5A1E     		subs	r2, r3, #1
 258              	.LVL26:
 259 0016 A3B1     		cbz	r3, .L27
1457:Drivers/STM32F7xx_HAL_Driver/Src/stm32f7xx_ll_sdmmc.c ****     {
1458:Drivers/STM32F7xx_HAL_Driver/Src/stm32f7xx_ll_sdmmc.c ****       return SDMMC_ERROR_TIMEOUT;
1459:Drivers/STM32F7xx_HAL_Driver/Src/stm32f7xx_ll_sdmmc.c ****     }
1460:Drivers/STM32F7xx_HAL_Driver/Src/stm32f7xx_ll_sdmmc.c ****     
1461:Drivers/STM32F7xx_HAL_Driver/Src/stm32f7xx_ll_sdmmc.c ****   }while(!__SDMMC_GET_FLAG(SDMMCx, SDMMC_FLAG_CCRCFAIL | SDMMC_FLAG_CMDREND | SDMMC_FLAG_CTIMEOUT))
 260              		.loc 1 1461 0
 261 0018 416B     		ldr	r1, [r0, #52]
1456:Drivers/STM32F7xx_HAL_Driver/Src/stm32f7xx_ll_sdmmc.c ****     {
 262              		.loc 1 1456 0
 263 001a 1346     		mov	r3, r2
 264              		.loc 1 1461 0
 265 001c 11F0450F 		tst	r1, #69
 266 0020 F8D0     		beq	.L25
1462:Drivers/STM32F7xx_HAL_Driver/Src/stm32f7xx_ll_sdmmc.c **** 
1463:Drivers/STM32F7xx_HAL_Driver/Src/stm32f7xx_ll_sdmmc.c ****   if(__SDMMC_GET_FLAG(SDMMCx, SDMMC_FLAG_CTIMEOUT))
 267              		.loc 1 1463 0
 268 0022 436B     		ldr	r3, [r0, #52]
 269 0024 13F0040F 		tst	r3, #4
 270 0028 03D0     		beq	.L26
1464:Drivers/STM32F7xx_HAL_Driver/Src/stm32f7xx_ll_sdmmc.c ****   {
1465:Drivers/STM32F7xx_HAL_Driver/Src/stm32f7xx_ll_sdmmc.c ****     /* Card is SD V2.0 compliant */
1466:Drivers/STM32F7xx_HAL_Driver/Src/stm32f7xx_ll_sdmmc.c ****     __SDMMC_CLEAR_FLAG(SDMMCx, SDMMC_FLAG_CMDREND);
 271              		.loc 1 1466 0
 272 002a 4023     		movs	r3, #64
 273 002c 8363     		str	r3, [r0, #56]
1467:Drivers/STM32F7xx_HAL_Driver/Src/stm32f7xx_ll_sdmmc.c ****     
1468:Drivers/STM32F7xx_HAL_Driver/Src/stm32f7xx_ll_sdmmc.c ****     return SDMMC_ERROR_CMD_RSP_TIMEOUT;
 274              		.loc 1 1468 0
 275 002e 0420     		movs	r0, #4
 276              	.LVL27:
 277 0030 7047     		bx	lr
 278              	.LVL28:
 279              	.L26:
1469:Drivers/STM32F7xx_HAL_Driver/Src/stm32f7xx_ll_sdmmc.c ****   }
1470:Drivers/STM32F7xx_HAL_Driver/Src/stm32f7xx_ll_sdmmc.c ****   
1471:Drivers/STM32F7xx_HAL_Driver/Src/stm32f7xx_ll_sdmmc.c ****   if(__SDMMC_GET_FLAG(SDMMCx, SDMMC_FLAG_CMDREND))
 280              		.loc 1 1471 0
 281 0032 436B     		ldr	r3, [r0, #52]
 282 0034 13F0400F 		tst	r3, #64
 283 0038 06D0     		beq	.L28
1472:Drivers/STM32F7xx_HAL_Driver/Src/stm32f7xx_ll_sdmmc.c ****   {
1473:Drivers/STM32F7xx_HAL_Driver/Src/stm32f7xx_ll_sdmmc.c ****     /* Card is SD V2.0 compliant */
1474:Drivers/STM32F7xx_HAL_Driver/Src/stm32f7xx_ll_sdmmc.c ****     __SDMMC_CLEAR_FLAG(SDMMCx, SDMMC_FLAG_CMDREND);
 284              		.loc 1 1474 0
 285 003a 4023     		movs	r3, #64
 286 003c 8363     		str	r3, [r0, #56]
1475:Drivers/STM32F7xx_HAL_Driver/Src/stm32f7xx_ll_sdmmc.c ****   }
1476:Drivers/STM32F7xx_HAL_Driver/Src/stm32f7xx_ll_sdmmc.c ****   
1477:Drivers/STM32F7xx_HAL_Driver/Src/stm32f7xx_ll_sdmmc.c ****   return SDMMC_ERROR_NONE;
 287              		.loc 1 1477 0
 288 003e 0020     		movs	r0, #0
ARM GAS  C:\Users\Student\AppData\Local\Temp\ccPRdzQ1.s 			page 32


 289              	.LVL29:
 290 0040 7047     		bx	lr
 291              	.LVL30:
 292              	.L27:
1458:Drivers/STM32F7xx_HAL_Driver/Src/stm32f7xx_ll_sdmmc.c ****     }
 293              		.loc 1 1458 0
 294 0042 4FF00040 		mov	r0, #-2147483648
 295              	.LVL31:
 296 0046 7047     		bx	lr
 297              	.LVL32:
 298              	.L28:
 299              		.loc 1 1477 0
 300 0048 0020     		movs	r0, #0
 301              	.LVL33:
1478:Drivers/STM32F7xx_HAL_Driver/Src/stm32f7xx_ll_sdmmc.c ****   
1479:Drivers/STM32F7xx_HAL_Driver/Src/stm32f7xx_ll_sdmmc.c **** }
 302              		.loc 1 1479 0
 303 004a 7047     		bx	lr
 304              	.L30:
 305              		.align	2
 306              	.L29:
 307 004c 00000000 		.word	SystemCoreClock
 308 0050 D34D6210 		.word	274877907
 309              		.cfi_endproc
 310              	.LFE179:
 312              		.section	.text.SDMMC_Init,"ax",%progbits
 313              		.align	1
 314              		.global	SDMMC_Init
 315              		.syntax unified
 316              		.thumb
 317              		.thumb_func
 318              		.fpu fpv5-sp-d16
 320              	SDMMC_Init:
 321              	.LFB136:
 228:Drivers/STM32F7xx_HAL_Driver/Src/stm32f7xx_ll_sdmmc.c ****   uint32_t tmpreg = 0;
 322              		.loc 1 228 0
 323              		.cfi_startproc
 324              		@ args = 28, pretend = 16, frame = 0
 325              		@ frame_needed = 0, uses_anonymous_args = 0
 326              		@ link register save eliminated.
 327              	.LVL34:
 328 0000 84B0     		sub	sp, sp, #16
 329              	.LCFI0:
 330              		.cfi_def_cfa_offset 16
 331 0002 10B4     		push	{r4}
 332              	.LCFI1:
 333              		.cfi_def_cfa_offset 20
 334              		.cfi_offset 4, -20
 335 0004 02AC     		add	r4, sp, #8
 336 0006 84E80E00 		stm	r4, {r1, r2, r3}
 337              	.LVL35:
 242:Drivers/STM32F7xx_HAL_Driver/Src/stm32f7xx_ll_sdmmc.c ****              Init.ClockPowerSave      |\
 338              		.loc 1 242 0
 339 000a 039A     		ldr	r2, [sp, #12]
 241:Drivers/STM32F7xx_HAL_Driver/Src/stm32f7xx_ll_sdmmc.c ****              Init.ClockBypass         |\
 340              		.loc 1 241 0
 341 000c 0B46     		mov	r3, r1
ARM GAS  C:\Users\Student\AppData\Local\Temp\ccPRdzQ1.s 			page 33


 342 000e 1343     		orrs	r3, r3, r2
 243:Drivers/STM32F7xx_HAL_Driver/Src/stm32f7xx_ll_sdmmc.c ****              Init.BusWide             |\
 343              		.loc 1 243 0
 344 0010 049A     		ldr	r2, [sp, #16]
 242:Drivers/STM32F7xx_HAL_Driver/Src/stm32f7xx_ll_sdmmc.c ****              Init.ClockPowerSave      |\
 345              		.loc 1 242 0
 346 0012 1343     		orrs	r3, r3, r2
 244:Drivers/STM32F7xx_HAL_Driver/Src/stm32f7xx_ll_sdmmc.c ****              Init.HardwareFlowControl |\
 347              		.loc 1 244 0
 348 0014 059A     		ldr	r2, [sp, #20]
 243:Drivers/STM32F7xx_HAL_Driver/Src/stm32f7xx_ll_sdmmc.c ****              Init.BusWide             |\
 349              		.loc 1 243 0
 350 0016 1343     		orrs	r3, r3, r2
 245:Drivers/STM32F7xx_HAL_Driver/Src/stm32f7xx_ll_sdmmc.c ****              Init.ClockDiv
 351              		.loc 1 245 0
 352 0018 069A     		ldr	r2, [sp, #24]
 244:Drivers/STM32F7xx_HAL_Driver/Src/stm32f7xx_ll_sdmmc.c ****              Init.HardwareFlowControl |\
 353              		.loc 1 244 0
 354 001a 1343     		orrs	r3, r3, r2
 246:Drivers/STM32F7xx_HAL_Driver/Src/stm32f7xx_ll_sdmmc.c ****              ); 
 355              		.loc 1 246 0
 356 001c 079A     		ldr	r2, [sp, #28]
 245:Drivers/STM32F7xx_HAL_Driver/Src/stm32f7xx_ll_sdmmc.c ****              Init.ClockDiv
 357              		.loc 1 245 0
 358 001e 1343     		orrs	r3, r3, r2
 359              	.LVL36:
 250:Drivers/STM32F7xx_HAL_Driver/Src/stm32f7xx_ll_sdmmc.c **** 
 360              		.loc 1 250 0
 361 0020 4168     		ldr	r1, [r0, #4]
 362 0022 044A     		ldr	r2, .L33
 363 0024 0A40     		ands	r2, r2, r1
 364 0026 1343     		orrs	r3, r3, r2
 365              	.LVL37:
 366 0028 4360     		str	r3, [r0, #4]
 253:Drivers/STM32F7xx_HAL_Driver/Src/stm32f7xx_ll_sdmmc.c **** 
 367              		.loc 1 253 0
 368 002a 0020     		movs	r0, #0
 369              	.LVL38:
 370 002c 5DF8044B 		ldr	r4, [sp], #4
 371              	.LCFI2:
 372              		.cfi_restore 4
 373              		.cfi_def_cfa_offset 16
 374              	.LVL39:
 375 0030 04B0     		add	sp, sp, #16
 376              	.LCFI3:
 377              		.cfi_def_cfa_offset 0
 378              	.LVL40:
 379 0032 7047     		bx	lr
 380              	.L34:
 381              		.align	2
 382              	.L33:
 383 0034 0081FFFF 		.word	-32512
 384              		.cfi_endproc
 385              	.LFE136:
 387              		.section	.text.SDMMC_ReadFIFO,"ax",%progbits
 388              		.align	1
 389              		.global	SDMMC_ReadFIFO
ARM GAS  C:\Users\Student\AppData\Local\Temp\ccPRdzQ1.s 			page 34


 390              		.syntax unified
 391              		.thumb
 392              		.thumb_func
 393              		.fpu fpv5-sp-d16
 395              	SDMMC_ReadFIFO:
 396              	.LFB137:
 281:Drivers/STM32F7xx_HAL_Driver/Src/stm32f7xx_ll_sdmmc.c ****   /* Read data from Rx FIFO */ 
 397              		.loc 1 281 0
 398              		.cfi_startproc
 399              		@ args = 0, pretend = 0, frame = 0
 400              		@ frame_needed = 0, uses_anonymous_args = 0
 401              		@ link register save eliminated.
 402              	.LVL41:
 283:Drivers/STM32F7xx_HAL_Driver/Src/stm32f7xx_ll_sdmmc.c **** }
 403              		.loc 1 283 0
 404 0000 D0F88000 		ldr	r0, [r0, #128]
 405              	.LVL42:
 284:Drivers/STM32F7xx_HAL_Driver/Src/stm32f7xx_ll_sdmmc.c **** 
 406              		.loc 1 284 0
 407 0004 7047     		bx	lr
 408              		.cfi_endproc
 409              	.LFE137:
 411              		.section	.text.SDMMC_WriteFIFO,"ax",%progbits
 412              		.align	1
 413              		.global	SDMMC_WriteFIFO
 414              		.syntax unified
 415              		.thumb
 416              		.thumb_func
 417              		.fpu fpv5-sp-d16
 419              	SDMMC_WriteFIFO:
 420              	.LFB138:
 293:Drivers/STM32F7xx_HAL_Driver/Src/stm32f7xx_ll_sdmmc.c ****   /* Write data to FIFO */ 
 421              		.loc 1 293 0
 422              		.cfi_startproc
 423              		@ args = 0, pretend = 0, frame = 0
 424              		@ frame_needed = 0, uses_anonymous_args = 0
 425              		@ link register save eliminated.
 426              	.LVL43:
 295:Drivers/STM32F7xx_HAL_Driver/Src/stm32f7xx_ll_sdmmc.c **** 
 427              		.loc 1 295 0
 428 0000 0B68     		ldr	r3, [r1]
 429 0002 C0F88030 		str	r3, [r0, #128]
 298:Drivers/STM32F7xx_HAL_Driver/Src/stm32f7xx_ll_sdmmc.c **** 
 430              		.loc 1 298 0
 431 0006 0020     		movs	r0, #0
 432              	.LVL44:
 433 0008 7047     		bx	lr
 434              		.cfi_endproc
 435              	.LFE138:
 437              		.section	.text.SDMMC_PowerState_ON,"ax",%progbits
 438              		.align	1
 439              		.global	SDMMC_PowerState_ON
 440              		.syntax unified
 441              		.thumb
 442              		.thumb_func
 443              		.fpu fpv5-sp-d16
 445              	SDMMC_PowerState_ON:
ARM GAS  C:\Users\Student\AppData\Local\Temp\ccPRdzQ1.s 			page 35


 446              	.LFB139:
 325:Drivers/STM32F7xx_HAL_Driver/Src/stm32f7xx_ll_sdmmc.c ****   /* Set power state to ON */ 
 447              		.loc 1 325 0
 448              		.cfi_startproc
 449              		@ args = 0, pretend = 0, frame = 0
 450              		@ frame_needed = 0, uses_anonymous_args = 0
 451              		@ link register save eliminated.
 452              	.LVL45:
 327:Drivers/STM32F7xx_HAL_Driver/Src/stm32f7xx_ll_sdmmc.c ****   
 453              		.loc 1 327 0
 454 0000 0323     		movs	r3, #3
 455 0002 0360     		str	r3, [r0]
 330:Drivers/STM32F7xx_HAL_Driver/Src/stm32f7xx_ll_sdmmc.c **** 
 456              		.loc 1 330 0
 457 0004 0020     		movs	r0, #0
 458              	.LVL46:
 459 0006 7047     		bx	lr
 460              		.cfi_endproc
 461              	.LFE139:
 463              		.section	.text.SDMMC_PowerState_OFF,"ax",%progbits
 464              		.align	1
 465              		.global	SDMMC_PowerState_OFF
 466              		.syntax unified
 467              		.thumb
 468              		.thumb_func
 469              		.fpu fpv5-sp-d16
 471              	SDMMC_PowerState_OFF:
 472              	.LFB140:
 338:Drivers/STM32F7xx_HAL_Driver/Src/stm32f7xx_ll_sdmmc.c ****   /* Set power state to OFF */
 473              		.loc 1 338 0
 474              		.cfi_startproc
 475              		@ args = 0, pretend = 0, frame = 0
 476              		@ frame_needed = 0, uses_anonymous_args = 0
 477              		@ link register save eliminated.
 478              	.LVL47:
 340:Drivers/STM32F7xx_HAL_Driver/Src/stm32f7xx_ll_sdmmc.c ****   
 479              		.loc 1 340 0
 480 0000 0023     		movs	r3, #0
 481 0002 0360     		str	r3, [r0]
 343:Drivers/STM32F7xx_HAL_Driver/Src/stm32f7xx_ll_sdmmc.c **** 
 482              		.loc 1 343 0
 483 0004 1846     		mov	r0, r3
 484              	.LVL48:
 485 0006 7047     		bx	lr
 486              		.cfi_endproc
 487              	.LFE140:
 489              		.section	.text.SDMMC_GetPowerState,"ax",%progbits
 490              		.align	1
 491              		.global	SDMMC_GetPowerState
 492              		.syntax unified
 493              		.thumb
 494              		.thumb_func
 495              		.fpu fpv5-sp-d16
 497              	SDMMC_GetPowerState:
 498              	.LFB141:
 355:Drivers/STM32F7xx_HAL_Driver/Src/stm32f7xx_ll_sdmmc.c ****   return (SDMMCx->POWER & SDMMC_POWER_PWRCTRL);
 499              		.loc 1 355 0
ARM GAS  C:\Users\Student\AppData\Local\Temp\ccPRdzQ1.s 			page 36


 500              		.cfi_startproc
 501              		@ args = 0, pretend = 0, frame = 0
 502              		@ frame_needed = 0, uses_anonymous_args = 0
 503              		@ link register save eliminated.
 504              	.LVL49:
 356:Drivers/STM32F7xx_HAL_Driver/Src/stm32f7xx_ll_sdmmc.c **** }
 505              		.loc 1 356 0
 506 0000 0068     		ldr	r0, [r0]
 507              	.LVL50:
 357:Drivers/STM32F7xx_HAL_Driver/Src/stm32f7xx_ll_sdmmc.c **** 
 508              		.loc 1 357 0
 509 0002 00F00300 		and	r0, r0, #3
 510 0006 7047     		bx	lr
 511              		.cfi_endproc
 512              	.LFE141:
 514              		.section	.text.SDMMC_SendCommand,"ax",%progbits
 515              		.align	1
 516              		.global	SDMMC_SendCommand
 517              		.syntax unified
 518              		.thumb
 519              		.thumb_func
 520              		.fpu fpv5-sp-d16
 522              	SDMMC_SendCommand:
 523              	.LFB142:
 368:Drivers/STM32F7xx_HAL_Driver/Src/stm32f7xx_ll_sdmmc.c ****   uint32_t tmpreg = 0;
 524              		.loc 1 368 0
 525              		.cfi_startproc
 526              		@ args = 0, pretend = 0, frame = 0
 527              		@ frame_needed = 0, uses_anonymous_args = 0
 528              		@ link register save eliminated.
 529              	.LVL51:
 378:Drivers/STM32F7xx_HAL_Driver/Src/stm32f7xx_ll_sdmmc.c **** 
 530              		.loc 1 378 0
 531 0000 0B68     		ldr	r3, [r1]
 532 0002 8360     		str	r3, [r0, #8]
 381:Drivers/STM32F7xx_HAL_Driver/Src/stm32f7xx_ll_sdmmc.c ****                        Command->Response         |\
 533              		.loc 1 381 0
 534 0004 4B68     		ldr	r3, [r1, #4]
 382:Drivers/STM32F7xx_HAL_Driver/Src/stm32f7xx_ll_sdmmc.c ****                        Command->WaitForInterrupt |\
 535              		.loc 1 382 0
 536 0006 8A68     		ldr	r2, [r1, #8]
 381:Drivers/STM32F7xx_HAL_Driver/Src/stm32f7xx_ll_sdmmc.c ****                        Command->Response         |\
 537              		.loc 1 381 0
 538 0008 1343     		orrs	r3, r3, r2
 383:Drivers/STM32F7xx_HAL_Driver/Src/stm32f7xx_ll_sdmmc.c ****                        Command->CPSM);
 539              		.loc 1 383 0
 540 000a CA68     		ldr	r2, [r1, #12]
 382:Drivers/STM32F7xx_HAL_Driver/Src/stm32f7xx_ll_sdmmc.c ****                        Command->WaitForInterrupt |\
 541              		.loc 1 382 0
 542 000c 1343     		orrs	r3, r3, r2
 384:Drivers/STM32F7xx_HAL_Driver/Src/stm32f7xx_ll_sdmmc.c ****   
 543              		.loc 1 384 0
 544 000e 0A69     		ldr	r2, [r1, #16]
 383:Drivers/STM32F7xx_HAL_Driver/Src/stm32f7xx_ll_sdmmc.c ****                        Command->CPSM);
 545              		.loc 1 383 0
 546 0010 1343     		orrs	r3, r3, r2
 547              	.LVL52:
ARM GAS  C:\Users\Student\AppData\Local\Temp\ccPRdzQ1.s 			page 37


 387:Drivers/STM32F7xx_HAL_Driver/Src/stm32f7xx_ll_sdmmc.c ****   
 548              		.loc 1 387 0
 549 0012 C168     		ldr	r1, [r0, #12]
 550              	.LVL53:
 551 0014 024A     		ldr	r2, .L41
 552 0016 0A40     		ands	r2, r2, r1
 553 0018 1343     		orrs	r3, r3, r2
 554              	.LVL54:
 555 001a C360     		str	r3, [r0, #12]
 556              	.LVL55:
 390:Drivers/STM32F7xx_HAL_Driver/Src/stm32f7xx_ll_sdmmc.c **** 
 557              		.loc 1 390 0
 558 001c 0020     		movs	r0, #0
 559              	.LVL56:
 560 001e 7047     		bx	lr
 561              	.L42:
 562              		.align	2
 563              	.L41:
 564 0020 00F0FFFF 		.word	-4096
 565              		.cfi_endproc
 566              	.LFE142:
 568              		.section	.text.SDMMC_GetCommandResponse,"ax",%progbits
 569              		.align	1
 570              		.global	SDMMC_GetCommandResponse
 571              		.syntax unified
 572              		.thumb
 573              		.thumb_func
 574              		.fpu fpv5-sp-d16
 576              	SDMMC_GetCommandResponse:
 577              	.LFB143:
 398:Drivers/STM32F7xx_HAL_Driver/Src/stm32f7xx_ll_sdmmc.c ****   return (uint8_t)(SDMMCx->RESPCMD);
 578              		.loc 1 398 0
 579              		.cfi_startproc
 580              		@ args = 0, pretend = 0, frame = 0
 581              		@ frame_needed = 0, uses_anonymous_args = 0
 582              		@ link register save eliminated.
 583              	.LVL57:
 399:Drivers/STM32F7xx_HAL_Driver/Src/stm32f7xx_ll_sdmmc.c **** }
 584              		.loc 1 399 0
 585 0000 0069     		ldr	r0, [r0, #16]
 586              	.LVL58:
 400:Drivers/STM32F7xx_HAL_Driver/Src/stm32f7xx_ll_sdmmc.c **** 
 587              		.loc 1 400 0
 588 0002 C0B2     		uxtb	r0, r0
 589 0004 7047     		bx	lr
 590              		.cfi_endproc
 591              	.LFE143:
 593              		.section	.text.SDMMC_GetResponse,"ax",%progbits
 594              		.align	1
 595              		.global	SDMMC_GetResponse
 596              		.syntax unified
 597              		.thumb
 598              		.thumb_func
 599              		.fpu fpv5-sp-d16
 601              	SDMMC_GetResponse:
 602              	.LFB144:
 415:Drivers/STM32F7xx_HAL_Driver/Src/stm32f7xx_ll_sdmmc.c ****   __IO uint32_t tmp = 0;
ARM GAS  C:\Users\Student\AppData\Local\Temp\ccPRdzQ1.s 			page 38


 603              		.loc 1 415 0
 604              		.cfi_startproc
 605              		@ args = 0, pretend = 0, frame = 8
 606              		@ frame_needed = 0, uses_anonymous_args = 0
 607              		@ link register save eliminated.
 608              	.LVL59:
 609 0000 82B0     		sub	sp, sp, #8
 610              	.LCFI4:
 611              		.cfi_def_cfa_offset 8
 416:Drivers/STM32F7xx_HAL_Driver/Src/stm32f7xx_ll_sdmmc.c **** 
 612              		.loc 1 416 0
 613 0002 0023     		movs	r3, #0
 614 0004 0193     		str	r3, [sp, #4]
 422:Drivers/STM32F7xx_HAL_Driver/Src/stm32f7xx_ll_sdmmc.c ****   
 615              		.loc 1 422 0
 616 0006 1430     		adds	r0, r0, #20
 617              	.LVL60:
 618 0008 0144     		add	r1, r1, r0
 619              	.LVL61:
 620 000a 0191     		str	r1, [sp, #4]
 424:Drivers/STM32F7xx_HAL_Driver/Src/stm32f7xx_ll_sdmmc.c **** }  
 621              		.loc 1 424 0
 622 000c 019B     		ldr	r3, [sp, #4]
 623 000e 1868     		ldr	r0, [r3]
 624              	.LVL62:
 425:Drivers/STM32F7xx_HAL_Driver/Src/stm32f7xx_ll_sdmmc.c **** 
 625              		.loc 1 425 0
 626 0010 02B0     		add	sp, sp, #8
 627              	.LCFI5:
 628              		.cfi_def_cfa_offset 0
 629              		@ sp needed
 630 0012 7047     		bx	lr
 631              		.cfi_endproc
 632              	.LFE144:
 634              		.section	.text.SDMMC_GetCmdResp1,"ax",%progbits
 635              		.align	1
 636              		.syntax unified
 637              		.thumb
 638              		.thumb_func
 639              		.fpu fpv5-sp-d16
 641              	SDMMC_GetCmdResp1:
 642              	.LFB175:
1172:Drivers/STM32F7xx_HAL_Driver/Src/stm32f7xx_ll_sdmmc.c ****   uint32_t response_r1;
 643              		.loc 1 1172 0
 644              		.cfi_startproc
 645              		@ args = 0, pretend = 0, frame = 0
 646              		@ frame_needed = 0, uses_anonymous_args = 0
 647              	.LVL63:
 648 0000 38B5     		push	{r3, r4, r5, lr}
 649              	.LCFI6:
 650              		.cfi_def_cfa_offset 16
 651              		.cfi_offset 3, -16
 652              		.cfi_offset 4, -12
 653              		.cfi_offset 5, -8
 654              		.cfi_offset 14, -4
1177:Drivers/STM32F7xx_HAL_Driver/Src/stm32f7xx_ll_sdmmc.c ****   
 655              		.loc 1 1177 0
ARM GAS  C:\Users\Student\AppData\Local\Temp\ccPRdzQ1.s 			page 39


 656 0002 524B     		ldr	r3, .L76
 657 0004 1B68     		ldr	r3, [r3]
 658 0006 524C     		ldr	r4, .L76+4
 659 0008 A4FB0343 		umull	r4, r3, r4, r3
 660 000c 5B0A     		lsrs	r3, r3, #9
 661 000e 02FB03F2 		mul	r2, r2, r3
 662              	.LVL64:
 663              	.L48:
1181:Drivers/STM32F7xx_HAL_Driver/Src/stm32f7xx_ll_sdmmc.c ****     {
 664              		.loc 1 1181 0
 665 0012 531E     		subs	r3, r2, #1
 666              	.LVL65:
 667 0014 002A     		cmp	r2, #0
 668 0016 63D0     		beq	.L51
1186:Drivers/STM32F7xx_HAL_Driver/Src/stm32f7xx_ll_sdmmc.c ****   
 669              		.loc 1 1186 0
 670 0018 446B     		ldr	r4, [r0, #52]
1181:Drivers/STM32F7xx_HAL_Driver/Src/stm32f7xx_ll_sdmmc.c ****     {
 671              		.loc 1 1181 0
 672 001a 1A46     		mov	r2, r3
1186:Drivers/STM32F7xx_HAL_Driver/Src/stm32f7xx_ll_sdmmc.c ****   
 673              		.loc 1 1186 0
 674 001c 14F0450F 		tst	r4, #69
 675 0020 F7D0     		beq	.L48
1188:Drivers/STM32F7xx_HAL_Driver/Src/stm32f7xx_ll_sdmmc.c ****   {
 676              		.loc 1 1188 0
 677 0022 436B     		ldr	r3, [r0, #52]
 678              	.LVL66:
 679 0024 13F0040F 		tst	r3, #4
 680 0028 03D0     		beq	.L49
1190:Drivers/STM32F7xx_HAL_Driver/Src/stm32f7xx_ll_sdmmc.c ****     
 681              		.loc 1 1190 0
 682 002a 0423     		movs	r3, #4
 683 002c 8363     		str	r3, [r0, #56]
1192:Drivers/STM32F7xx_HAL_Driver/Src/stm32f7xx_ll_sdmmc.c ****   }
 684              		.loc 1 1192 0
 685 002e 1846     		mov	r0, r3
 686              	.LVL67:
 687 0030 38BD     		pop	{r3, r4, r5, pc}
 688              	.LVL68:
 689              	.L49:
1194:Drivers/STM32F7xx_HAL_Driver/Src/stm32f7xx_ll_sdmmc.c ****   {
 690              		.loc 1 1194 0
 691 0032 436B     		ldr	r3, [r0, #52]
 692 0034 13F0010F 		tst	r3, #1
 693 0038 03D0     		beq	.L50
1196:Drivers/STM32F7xx_HAL_Driver/Src/stm32f7xx_ll_sdmmc.c ****     
 694              		.loc 1 1196 0
 695 003a 0123     		movs	r3, #1
 696 003c 8363     		str	r3, [r0, #56]
1198:Drivers/STM32F7xx_HAL_Driver/Src/stm32f7xx_ll_sdmmc.c ****   }
 697              		.loc 1 1198 0
 698 003e 1846     		mov	r0, r3
 699              	.LVL69:
 700 0040 38BD     		pop	{r3, r4, r5, pc}
 701              	.LVL70:
 702              	.L50:
ARM GAS  C:\Users\Student\AppData\Local\Temp\ccPRdzQ1.s 			page 40


 703 0042 0D46     		mov	r5, r1
 704 0044 0446     		mov	r4, r0
1202:Drivers/STM32F7xx_HAL_Driver/Src/stm32f7xx_ll_sdmmc.c ****   {
 705              		.loc 1 1202 0
 706 0046 FFF7FEFF 		bl	SDMMC_GetCommandResponse
 707              	.LVL71:
 708 004a A842     		cmp	r0, r5
 709 004c 01D0     		beq	.L73
1204:Drivers/STM32F7xx_HAL_Driver/Src/stm32f7xx_ll_sdmmc.c ****   }
 710              		.loc 1 1204 0
 711 004e 0120     		movs	r0, #1
 712 0050 38BD     		pop	{r3, r4, r5, pc}
 713              	.LVL72:
 714              	.L73:
1208:Drivers/STM32F7xx_HAL_Driver/Src/stm32f7xx_ll_sdmmc.c ****   
 715              		.loc 1 1208 0
 716 0052 40F2FF53 		movw	r3, #1535
 717 0056 A363     		str	r3, [r4, #56]
1211:Drivers/STM32F7xx_HAL_Driver/Src/stm32f7xx_ll_sdmmc.c ****   
 718              		.loc 1 1211 0
 719 0058 0021     		movs	r1, #0
 720 005a 2046     		mov	r0, r4
 721 005c FFF7FEFF 		bl	SDMMC_GetResponse
 722              	.LVL73:
1213:Drivers/STM32F7xx_HAL_Driver/Src/stm32f7xx_ll_sdmmc.c ****   {
 723              		.loc 1 1213 0
 724 0060 3C4B     		ldr	r3, .L76+8
 725 0062 0340     		ands	r3, r3, r0
 726 0064 002B     		cmp	r3, #0
 727 0066 3ED0     		beq	.L53
1217:Drivers/STM32F7xx_HAL_Driver/Src/stm32f7xx_ll_sdmmc.c ****   {
 728              		.loc 1 1217 0
 729 0068 0028     		cmp	r0, #0
 730 006a 3EDB     		blt	.L54
1221:Drivers/STM32F7xx_HAL_Driver/Src/stm32f7xx_ll_sdmmc.c ****   {
 731              		.loc 1 1221 0
 732 006c 10F0804F 		tst	r0, #1073741824
 733 0070 01D0     		beq	.L74
1223:Drivers/STM32F7xx_HAL_Driver/Src/stm32f7xx_ll_sdmmc.c ****   }
 734              		.loc 1 1223 0
 735 0072 4020     		movs	r0, #64
 736              	.LVL74:
 737 0074 38BD     		pop	{r3, r4, r5, pc}
 738              	.LVL75:
 739              	.L74:
1225:Drivers/STM32F7xx_HAL_Driver/Src/stm32f7xx_ll_sdmmc.c ****   {
 740              		.loc 1 1225 0
 741 0076 10F0005F 		tst	r0, #536870912
 742 007a 01D0     		beq	.L75
1227:Drivers/STM32F7xx_HAL_Driver/Src/stm32f7xx_ll_sdmmc.c ****   }
 743              		.loc 1 1227 0
 744 007c 8020     		movs	r0, #128
 745              	.LVL76:
 746 007e 38BD     		pop	{r3, r4, r5, pc}
 747              	.LVL77:
 748              	.L75:
1229:Drivers/STM32F7xx_HAL_Driver/Src/stm32f7xx_ll_sdmmc.c ****   {
ARM GAS  C:\Users\Student\AppData\Local\Temp\ccPRdzQ1.s 			page 41


 749              		.loc 1 1229 0
 750 0080 10F0805F 		tst	r0, #268435456
 751 0084 34D1     		bne	.L57
1233:Drivers/STM32F7xx_HAL_Driver/Src/stm32f7xx_ll_sdmmc.c ****   {
 752              		.loc 1 1233 0
 753 0086 10F0006F 		tst	r0, #134217728
 754 008a 34D1     		bne	.L58
1237:Drivers/STM32F7xx_HAL_Driver/Src/stm32f7xx_ll_sdmmc.c ****   {
 755              		.loc 1 1237 0
 756 008c 10F0806F 		tst	r0, #67108864
 757 0090 34D1     		bne	.L59
1241:Drivers/STM32F7xx_HAL_Driver/Src/stm32f7xx_ll_sdmmc.c ****   {
 758              		.loc 1 1241 0
 759 0092 10F0807F 		tst	r0, #16777216
 760 0096 34D1     		bne	.L60
1245:Drivers/STM32F7xx_HAL_Driver/Src/stm32f7xx_ll_sdmmc.c ****   {
 761              		.loc 1 1245 0
 762 0098 10F4000F 		tst	r0, #8388608
 763 009c 34D1     		bne	.L61
1249:Drivers/STM32F7xx_HAL_Driver/Src/stm32f7xx_ll_sdmmc.c ****   {
 764              		.loc 1 1249 0
 765 009e 10F4800F 		tst	r0, #4194304
 766 00a2 34D1     		bne	.L62
1253:Drivers/STM32F7xx_HAL_Driver/Src/stm32f7xx_ll_sdmmc.c ****   {
 767              		.loc 1 1253 0
 768 00a4 10F4001F 		tst	r0, #2097152
 769 00a8 34D1     		bne	.L63
1257:Drivers/STM32F7xx_HAL_Driver/Src/stm32f7xx_ll_sdmmc.c ****   {
 770              		.loc 1 1257 0
 771 00aa 10F4801F 		tst	r0, #1048576
 772 00ae 34D1     		bne	.L64
1261:Drivers/STM32F7xx_HAL_Driver/Src/stm32f7xx_ll_sdmmc.c ****   {
 773              		.loc 1 1261 0
 774 00b0 10F4802F 		tst	r0, #262144
 775 00b4 34D1     		bne	.L65
1265:Drivers/STM32F7xx_HAL_Driver/Src/stm32f7xx_ll_sdmmc.c ****   {
 776              		.loc 1 1265 0
 777 00b6 10F4003F 		tst	r0, #131072
 778 00ba 34D1     		bne	.L66
1269:Drivers/STM32F7xx_HAL_Driver/Src/stm32f7xx_ll_sdmmc.c ****   {
 779              		.loc 1 1269 0
 780 00bc 10F4803F 		tst	r0, #65536
 781 00c0 34D1     		bne	.L67
1273:Drivers/STM32F7xx_HAL_Driver/Src/stm32f7xx_ll_sdmmc.c ****   {
 782              		.loc 1 1273 0
 783 00c2 10F4004F 		tst	r0, #32768
 784 00c6 34D1     		bne	.L68
1277:Drivers/STM32F7xx_HAL_Driver/Src/stm32f7xx_ll_sdmmc.c ****   {
 785              		.loc 1 1277 0
 786 00c8 10F4804F 		tst	r0, #16384
 787 00cc 34D1     		bne	.L69
1281:Drivers/STM32F7xx_HAL_Driver/Src/stm32f7xx_ll_sdmmc.c ****   {
 788              		.loc 1 1281 0
 789 00ce 10F4005F 		tst	r0, #8192
 790 00d2 34D1     		bne	.L70
1285:Drivers/STM32F7xx_HAL_Driver/Src/stm32f7xx_ll_sdmmc.c ****   {
 791              		.loc 1 1285 0
ARM GAS  C:\Users\Student\AppData\Local\Temp\ccPRdzQ1.s 			page 42


 792 00d4 10F0080F 		tst	r0, #8
 793 00d8 34D0     		beq	.L71
1287:Drivers/STM32F7xx_HAL_Driver/Src/stm32f7xx_ll_sdmmc.c ****   }
 794              		.loc 1 1287 0
 795 00da 4FF40000 		mov	r0, #8388608
 796              	.LVL78:
 797 00de 38BD     		pop	{r3, r4, r5, pc}
 798              	.LVL79:
 799              	.L51:
1183:Drivers/STM32F7xx_HAL_Driver/Src/stm32f7xx_ll_sdmmc.c ****     }
 800              		.loc 1 1183 0
 801 00e0 4FF00040 		mov	r0, #-2147483648
 802              	.LVL80:
 803 00e4 38BD     		pop	{r3, r4, r5, pc}
 804              	.LVL81:
 805              	.L53:
1215:Drivers/STM32F7xx_HAL_Driver/Src/stm32f7xx_ll_sdmmc.c ****   }
 806              		.loc 1 1215 0
 807 00e6 0020     		movs	r0, #0
 808              	.LVL82:
 809 00e8 38BD     		pop	{r3, r4, r5, pc}
 810              	.LVL83:
 811              	.L54:
1219:Drivers/STM32F7xx_HAL_Driver/Src/stm32f7xx_ll_sdmmc.c ****   }
 812              		.loc 1 1219 0
 813 00ea 4FF00070 		mov	r0, #33554432
 814              	.LVL84:
 815 00ee 38BD     		pop	{r3, r4, r5, pc}
 816              	.LVL85:
 817              	.L57:
1231:Drivers/STM32F7xx_HAL_Driver/Src/stm32f7xx_ll_sdmmc.c ****   }
 818              		.loc 1 1231 0
 819 00f0 4FF48070 		mov	r0, #256
 820              	.LVL86:
 821 00f4 38BD     		pop	{r3, r4, r5, pc}
 822              	.LVL87:
 823              	.L58:
1235:Drivers/STM32F7xx_HAL_Driver/Src/stm32f7xx_ll_sdmmc.c ****   }
 824              		.loc 1 1235 0
 825 00f6 4FF40070 		mov	r0, #512
 826              	.LVL88:
 827 00fa 38BD     		pop	{r3, r4, r5, pc}
 828              	.LVL89:
 829              	.L59:
1239:Drivers/STM32F7xx_HAL_Driver/Src/stm32f7xx_ll_sdmmc.c ****   }
 830              		.loc 1 1239 0
 831 00fc 4FF48060 		mov	r0, #1024
 832              	.LVL90:
 833 0100 38BD     		pop	{r3, r4, r5, pc}
 834              	.LVL91:
 835              	.L60:
1243:Drivers/STM32F7xx_HAL_Driver/Src/stm32f7xx_ll_sdmmc.c ****   }
 836              		.loc 1 1243 0
 837 0102 4FF40060 		mov	r0, #2048
 838              	.LVL92:
 839 0106 38BD     		pop	{r3, r4, r5, pc}
 840              	.LVL93:
ARM GAS  C:\Users\Student\AppData\Local\Temp\ccPRdzQ1.s 			page 43


 841              	.L61:
1247:Drivers/STM32F7xx_HAL_Driver/Src/stm32f7xx_ll_sdmmc.c ****   }
 842              		.loc 1 1247 0
 843 0108 4FF48050 		mov	r0, #4096
 844              	.LVL94:
 845 010c 38BD     		pop	{r3, r4, r5, pc}
 846              	.LVL95:
 847              	.L62:
1251:Drivers/STM32F7xx_HAL_Driver/Src/stm32f7xx_ll_sdmmc.c ****   }
 848              		.loc 1 1251 0
 849 010e 4FF40050 		mov	r0, #8192
 850              	.LVL96:
 851 0112 38BD     		pop	{r3, r4, r5, pc}
 852              	.LVL97:
 853              	.L63:
1255:Drivers/STM32F7xx_HAL_Driver/Src/stm32f7xx_ll_sdmmc.c ****   }
 854              		.loc 1 1255 0
 855 0114 4FF48040 		mov	r0, #16384
 856              	.LVL98:
 857 0118 38BD     		pop	{r3, r4, r5, pc}
 858              	.LVL99:
 859              	.L64:
1259:Drivers/STM32F7xx_HAL_Driver/Src/stm32f7xx_ll_sdmmc.c ****   }
 860              		.loc 1 1259 0
 861 011a 4FF40040 		mov	r0, #32768
 862              	.LVL100:
 863 011e 38BD     		pop	{r3, r4, r5, pc}
 864              	.LVL101:
 865              	.L65:
1263:Drivers/STM32F7xx_HAL_Driver/Src/stm32f7xx_ll_sdmmc.c ****   }
 866              		.loc 1 1263 0
 867 0120 4FF40030 		mov	r0, #131072
 868              	.LVL102:
 869 0124 38BD     		pop	{r3, r4, r5, pc}
 870              	.LVL103:
 871              	.L66:
1267:Drivers/STM32F7xx_HAL_Driver/Src/stm32f7xx_ll_sdmmc.c ****   }
 872              		.loc 1 1267 0
 873 0126 4FF48020 		mov	r0, #262144
 874              	.LVL104:
 875 012a 38BD     		pop	{r3, r4, r5, pc}
 876              	.LVL105:
 877              	.L67:
1271:Drivers/STM32F7xx_HAL_Driver/Src/stm32f7xx_ll_sdmmc.c ****   }
 878              		.loc 1 1271 0
 879 012c 4FF40020 		mov	r0, #524288
 880              	.LVL106:
 881 0130 38BD     		pop	{r3, r4, r5, pc}
 882              	.LVL107:
 883              	.L68:
1275:Drivers/STM32F7xx_HAL_Driver/Src/stm32f7xx_ll_sdmmc.c ****   }
 884              		.loc 1 1275 0
 885 0132 4FF48010 		mov	r0, #1048576
 886              	.LVL108:
 887 0136 38BD     		pop	{r3, r4, r5, pc}
 888              	.LVL109:
 889              	.L69:
ARM GAS  C:\Users\Student\AppData\Local\Temp\ccPRdzQ1.s 			page 44


1279:Drivers/STM32F7xx_HAL_Driver/Src/stm32f7xx_ll_sdmmc.c ****   }
 890              		.loc 1 1279 0
 891 0138 4FF40010 		mov	r0, #2097152
 892              	.LVL110:
 893 013c 38BD     		pop	{r3, r4, r5, pc}
 894              	.LVL111:
 895              	.L70:
1283:Drivers/STM32F7xx_HAL_Driver/Src/stm32f7xx_ll_sdmmc.c ****   }
 896              		.loc 1 1283 0
 897 013e 4FF48000 		mov	r0, #4194304
 898              	.LVL112:
 899 0142 38BD     		pop	{r3, r4, r5, pc}
 900              	.LVL113:
 901              	.L71:
1291:Drivers/STM32F7xx_HAL_Driver/Src/stm32f7xx_ll_sdmmc.c ****   }
 902              		.loc 1 1291 0
 903 0144 4FF48030 		mov	r0, #65536
 904              	.LVL114:
1293:Drivers/STM32F7xx_HAL_Driver/Src/stm32f7xx_ll_sdmmc.c **** 
 905              		.loc 1 1293 0
 906 0148 38BD     		pop	{r3, r4, r5, pc}
 907              	.LVL115:
 908              	.L77:
 909 014a 00BF     		.align	2
 910              	.L76:
 911 014c 00000000 		.word	SystemCoreClock
 912 0150 D34D6210 		.word	274877907
 913 0154 08E0FFFD 		.word	-33562616
 914              		.cfi_endproc
 915              	.LFE175:
 917              		.section	.text.SDMMC_GetCmdResp6,"ax",%progbits
 918              		.align	1
 919              		.syntax unified
 920              		.thumb
 921              		.thumb_func
 922              		.fpu fpv5-sp-d16
 924              	SDMMC_GetCmdResp6:
 925              	.LFB178:
1382:Drivers/STM32F7xx_HAL_Driver/Src/stm32f7xx_ll_sdmmc.c ****   uint32_t response_r1;
 926              		.loc 1 1382 0
 927              		.cfi_startproc
 928              		@ args = 0, pretend = 0, frame = 0
 929              		@ frame_needed = 0, uses_anonymous_args = 0
 930              	.LVL116:
 931 0000 70B5     		push	{r4, r5, r6, lr}
 932              	.LCFI7:
 933              		.cfi_def_cfa_offset 16
 934              		.cfi_offset 4, -16
 935              		.cfi_offset 5, -12
 936              		.cfi_offset 6, -8
 937              		.cfi_offset 14, -4
1387:Drivers/STM32F7xx_HAL_Driver/Src/stm32f7xx_ll_sdmmc.c ****   
 938              		.loc 1 1387 0
 939 0002 254B     		ldr	r3, .L92
 940 0004 1B68     		ldr	r3, [r3]
 941 0006 254C     		ldr	r4, .L92+4
 942 0008 A4FB0343 		umull	r4, r3, r4, r3
ARM GAS  C:\Users\Student\AppData\Local\Temp\ccPRdzQ1.s 			page 45


 943 000c 5C0A     		lsrs	r4, r3, #9
 944 000e 41F28833 		movw	r3, #5000
 945 0012 03FB04F3 		mul	r3, r3, r4
 946              	.LVL117:
 947              	.L80:
1391:Drivers/STM32F7xx_HAL_Driver/Src/stm32f7xx_ll_sdmmc.c ****     {
 948              		.loc 1 1391 0
 949 0016 5C1E     		subs	r4, r3, #1
 950              	.LVL118:
 951 0018 002B     		cmp	r3, #0
 952 001a 37D0     		beq	.L84
1396:Drivers/STM32F7xx_HAL_Driver/Src/stm32f7xx_ll_sdmmc.c ****   
 953              		.loc 1 1396 0
 954 001c 456B     		ldr	r5, [r0, #52]
1391:Drivers/STM32F7xx_HAL_Driver/Src/stm32f7xx_ll_sdmmc.c ****     {
 955              		.loc 1 1391 0
 956 001e 2346     		mov	r3, r4
1396:Drivers/STM32F7xx_HAL_Driver/Src/stm32f7xx_ll_sdmmc.c ****   
 957              		.loc 1 1396 0
 958 0020 15F0450F 		tst	r5, #69
 959 0024 F7D0     		beq	.L80
1398:Drivers/STM32F7xx_HAL_Driver/Src/stm32f7xx_ll_sdmmc.c ****   {
 960              		.loc 1 1398 0
 961 0026 436B     		ldr	r3, [r0, #52]
 962 0028 13F0040F 		tst	r3, #4
 963 002c 03D0     		beq	.L81
1400:Drivers/STM32F7xx_HAL_Driver/Src/stm32f7xx_ll_sdmmc.c ****     
 964              		.loc 1 1400 0
 965 002e 0423     		movs	r3, #4
 966 0030 8363     		str	r3, [r0, #56]
1402:Drivers/STM32F7xx_HAL_Driver/Src/stm32f7xx_ll_sdmmc.c ****   }
 967              		.loc 1 1402 0
 968 0032 1846     		mov	r0, r3
 969              	.LVL119:
 970 0034 70BD     		pop	{r4, r5, r6, pc}
 971              	.LVL120:
 972              	.L81:
1404:Drivers/STM32F7xx_HAL_Driver/Src/stm32f7xx_ll_sdmmc.c ****   {
 973              		.loc 1 1404 0
 974 0036 436B     		ldr	r3, [r0, #52]
 975 0038 13F0010F 		tst	r3, #1
 976 003c 03D0     		beq	.L82
1406:Drivers/STM32F7xx_HAL_Driver/Src/stm32f7xx_ll_sdmmc.c ****     
 977              		.loc 1 1406 0
 978 003e 0123     		movs	r3, #1
 979 0040 8363     		str	r3, [r0, #56]
1408:Drivers/STM32F7xx_HAL_Driver/Src/stm32f7xx_ll_sdmmc.c ****   }
 980              		.loc 1 1408 0
 981 0042 1846     		mov	r0, r3
 982              	.LVL121:
 983 0044 70BD     		pop	{r4, r5, r6, pc}
 984              	.LVL122:
 985              	.L82:
 986 0046 1646     		mov	r6, r2
 987 0048 0D46     		mov	r5, r1
 988 004a 0446     		mov	r4, r0
 989              	.LVL123:
ARM GAS  C:\Users\Student\AppData\Local\Temp\ccPRdzQ1.s 			page 46


1412:Drivers/STM32F7xx_HAL_Driver/Src/stm32f7xx_ll_sdmmc.c ****   {
 990              		.loc 1 1412 0
 991 004c FFF7FEFF 		bl	SDMMC_GetCommandResponse
 992              	.LVL124:
 993 0050 A842     		cmp	r0, r5
 994 0052 01D0     		beq	.L89
1414:Drivers/STM32F7xx_HAL_Driver/Src/stm32f7xx_ll_sdmmc.c ****   }
 995              		.loc 1 1414 0
 996 0054 0120     		movs	r0, #1
 997 0056 70BD     		pop	{r4, r5, r6, pc}
 998              	.LVL125:
 999              	.L89:
1418:Drivers/STM32F7xx_HAL_Driver/Src/stm32f7xx_ll_sdmmc.c ****   
 1000              		.loc 1 1418 0
 1001 0058 40F2FF53 		movw	r3, #1535
 1002 005c A363     		str	r3, [r4, #56]
1421:Drivers/STM32F7xx_HAL_Driver/Src/stm32f7xx_ll_sdmmc.c ****   
 1003              		.loc 1 1421 0
 1004 005e 0021     		movs	r1, #0
 1005 0060 2046     		mov	r0, r4
 1006 0062 FFF7FEFF 		bl	SDMMC_GetResponse
 1007              	.LVL126:
1423:Drivers/STM32F7xx_HAL_Driver/Src/stm32f7xx_ll_sdmmc.c ****   {
 1008              		.loc 1 1423 0
 1009 0066 10F4604F 		tst	r0, #57344
 1010 006a 05D0     		beq	.L90
1429:Drivers/STM32F7xx_HAL_Driver/Src/stm32f7xx_ll_sdmmc.c ****   {
 1011              		.loc 1 1429 0
 1012 006c 10F4804F 		tst	r0, #16384
 1013 0070 06D0     		beq	.L91
1431:Drivers/STM32F7xx_HAL_Driver/Src/stm32f7xx_ll_sdmmc.c ****   }
 1014              		.loc 1 1431 0
 1015 0072 4FF40050 		mov	r0, #8192
 1016              	.LVL127:
 1017 0076 70BD     		pop	{r4, r5, r6, pc}
 1018              	.LVL128:
 1019              	.L90:
1425:Drivers/STM32F7xx_HAL_Driver/Src/stm32f7xx_ll_sdmmc.c ****     
 1020              		.loc 1 1425 0
 1021 0078 000C     		lsrs	r0, r0, #16
 1022              	.LVL129:
 1023 007a 3080     		strh	r0, [r6]	@ movhi
1427:Drivers/STM32F7xx_HAL_Driver/Src/stm32f7xx_ll_sdmmc.c ****   }
 1024              		.loc 1 1427 0
 1025 007c 0020     		movs	r0, #0
 1026 007e 70BD     		pop	{r4, r5, r6, pc}
 1027              	.LVL130:
 1028              	.L91:
1433:Drivers/STM32F7xx_HAL_Driver/Src/stm32f7xx_ll_sdmmc.c ****   {
 1029              		.loc 1 1433 0
 1030 0080 10F4004F 		tst	r0, #32768
 1031 0084 05D0     		beq	.L87
1435:Drivers/STM32F7xx_HAL_Driver/Src/stm32f7xx_ll_sdmmc.c ****   }
 1032              		.loc 1 1435 0
 1033 0086 4FF48050 		mov	r0, #4096
 1034              	.LVL131:
 1035 008a 70BD     		pop	{r4, r5, r6, pc}
ARM GAS  C:\Users\Student\AppData\Local\Temp\ccPRdzQ1.s 			page 47


 1036              	.LVL132:
 1037              	.L84:
1393:Drivers/STM32F7xx_HAL_Driver/Src/stm32f7xx_ll_sdmmc.c ****     }
 1038              		.loc 1 1393 0
 1039 008c 4FF00040 		mov	r0, #-2147483648
 1040              	.LVL133:
 1041 0090 70BD     		pop	{r4, r5, r6, pc}
 1042              	.LVL134:
 1043              	.L87:
1439:Drivers/STM32F7xx_HAL_Driver/Src/stm32f7xx_ll_sdmmc.c ****   }
 1044              		.loc 1 1439 0
 1045 0092 4FF48030 		mov	r0, #65536
 1046              	.LVL135:
1441:Drivers/STM32F7xx_HAL_Driver/Src/stm32f7xx_ll_sdmmc.c **** 
 1047              		.loc 1 1441 0
 1048 0096 70BD     		pop	{r4, r5, r6, pc}
 1049              	.LVL136:
 1050              	.L93:
 1051              		.align	2
 1052              	.L92:
 1053 0098 00000000 		.word	SystemCoreClock
 1054 009c D34D6210 		.word	274877907
 1055              		.cfi_endproc
 1056              	.LFE178:
 1058              		.section	.text.SDMMC_ConfigData,"ax",%progbits
 1059              		.align	1
 1060              		.global	SDMMC_ConfigData
 1061              		.syntax unified
 1062              		.thumb
 1063              		.thumb_func
 1064              		.fpu fpv5-sp-d16
 1066              	SDMMC_ConfigData:
 1067              	.LFB145:
 436:Drivers/STM32F7xx_HAL_Driver/Src/stm32f7xx_ll_sdmmc.c ****   uint32_t tmpreg = 0;
 1068              		.loc 1 436 0
 1069              		.cfi_startproc
 1070              		@ args = 0, pretend = 0, frame = 0
 1071              		@ frame_needed = 0, uses_anonymous_args = 0
 1072              		@ link register save eliminated.
 1073              	.LVL137:
 447:Drivers/STM32F7xx_HAL_Driver/Src/stm32f7xx_ll_sdmmc.c **** 
 1074              		.loc 1 447 0
 1075 0000 0B68     		ldr	r3, [r1]
 1076 0002 4362     		str	r3, [r0, #36]
 450:Drivers/STM32F7xx_HAL_Driver/Src/stm32f7xx_ll_sdmmc.c **** 
 1077              		.loc 1 450 0
 1078 0004 4B68     		ldr	r3, [r1, #4]
 1079 0006 8362     		str	r3, [r0, #40]
 453:Drivers/STM32F7xx_HAL_Driver/Src/stm32f7xx_ll_sdmmc.c ****                        Data->TransferDir   |\
 1080              		.loc 1 453 0
 1081 0008 8B68     		ldr	r3, [r1, #8]
 454:Drivers/STM32F7xx_HAL_Driver/Src/stm32f7xx_ll_sdmmc.c ****                        Data->TransferMode  |\
 1082              		.loc 1 454 0
 1083 000a CA68     		ldr	r2, [r1, #12]
 453:Drivers/STM32F7xx_HAL_Driver/Src/stm32f7xx_ll_sdmmc.c ****                        Data->TransferDir   |\
 1084              		.loc 1 453 0
 1085 000c 1343     		orrs	r3, r3, r2
ARM GAS  C:\Users\Student\AppData\Local\Temp\ccPRdzQ1.s 			page 48


 455:Drivers/STM32F7xx_HAL_Driver/Src/stm32f7xx_ll_sdmmc.c ****                        Data->DPSM);
 1086              		.loc 1 455 0
 1087 000e 0A69     		ldr	r2, [r1, #16]
 454:Drivers/STM32F7xx_HAL_Driver/Src/stm32f7xx_ll_sdmmc.c ****                        Data->TransferMode  |\
 1088              		.loc 1 454 0
 1089 0010 1343     		orrs	r3, r3, r2
 456:Drivers/STM32F7xx_HAL_Driver/Src/stm32f7xx_ll_sdmmc.c ****   
 1090              		.loc 1 456 0
 1091 0012 4A69     		ldr	r2, [r1, #20]
 455:Drivers/STM32F7xx_HAL_Driver/Src/stm32f7xx_ll_sdmmc.c ****                        Data->DPSM);
 1092              		.loc 1 455 0
 1093 0014 1343     		orrs	r3, r3, r2
 1094              	.LVL138:
 459:Drivers/STM32F7xx_HAL_Driver/Src/stm32f7xx_ll_sdmmc.c **** 
 1095              		.loc 1 459 0
 1096 0016 C26A     		ldr	r2, [r0, #44]
 1097 0018 22F0F702 		bic	r2, r2, #247
 1098 001c 1343     		orrs	r3, r3, r2
 1099              	.LVL139:
 1100 001e C362     		str	r3, [r0, #44]
 1101              	.LVL140:
 463:Drivers/STM32F7xx_HAL_Driver/Src/stm32f7xx_ll_sdmmc.c **** 
 1102              		.loc 1 463 0
 1103 0020 0020     		movs	r0, #0
 1104              	.LVL141:
 1105 0022 7047     		bx	lr
 1106              		.cfi_endproc
 1107              	.LFE145:
 1109              		.section	.text.SDMMC_GetDataCounter,"ax",%progbits
 1110              		.align	1
 1111              		.global	SDMMC_GetDataCounter
 1112              		.syntax unified
 1113              		.thumb
 1114              		.thumb_func
 1115              		.fpu fpv5-sp-d16
 1117              	SDMMC_GetDataCounter:
 1118              	.LFB146:
 471:Drivers/STM32F7xx_HAL_Driver/Src/stm32f7xx_ll_sdmmc.c ****   return (SDMMCx->DCOUNT);
 1119              		.loc 1 471 0
 1120              		.cfi_startproc
 1121              		@ args = 0, pretend = 0, frame = 0
 1122              		@ frame_needed = 0, uses_anonymous_args = 0
 1123              		@ link register save eliminated.
 1124              	.LVL142:
 472:Drivers/STM32F7xx_HAL_Driver/Src/stm32f7xx_ll_sdmmc.c **** }
 1125              		.loc 1 472 0
 1126 0000 006B     		ldr	r0, [r0, #48]
 1127              	.LVL143:
 473:Drivers/STM32F7xx_HAL_Driver/Src/stm32f7xx_ll_sdmmc.c **** 
 1128              		.loc 1 473 0
 1129 0002 7047     		bx	lr
 1130              		.cfi_endproc
 1131              	.LFE146:
 1133              		.section	.text.SDMMC_GetFIFOCount,"ax",%progbits
 1134              		.align	1
 1135              		.global	SDMMC_GetFIFOCount
 1136              		.syntax unified
ARM GAS  C:\Users\Student\AppData\Local\Temp\ccPRdzQ1.s 			page 49


 1137              		.thumb
 1138              		.thumb_func
 1139              		.fpu fpv5-sp-d16
 1141              	SDMMC_GetFIFOCount:
 1142              	.LFB147:
 481:Drivers/STM32F7xx_HAL_Driver/Src/stm32f7xx_ll_sdmmc.c ****   return (SDMMCx->FIFO);
 1143              		.loc 1 481 0
 1144              		.cfi_startproc
 1145              		@ args = 0, pretend = 0, frame = 0
 1146              		@ frame_needed = 0, uses_anonymous_args = 0
 1147              		@ link register save eliminated.
 1148              	.LVL144:
 482:Drivers/STM32F7xx_HAL_Driver/Src/stm32f7xx_ll_sdmmc.c **** }
 1149              		.loc 1 482 0
 1150 0000 D0F88000 		ldr	r0, [r0, #128]
 1151              	.LVL145:
 483:Drivers/STM32F7xx_HAL_Driver/Src/stm32f7xx_ll_sdmmc.c **** 
 1152              		.loc 1 483 0
 1153 0004 7047     		bx	lr
 1154              		.cfi_endproc
 1155              	.LFE147:
 1157              		.section	.text.SDMMC_SetSDMMCReadWaitMode,"ax",%progbits
 1158              		.align	1
 1159              		.global	SDMMC_SetSDMMCReadWaitMode
 1160              		.syntax unified
 1161              		.thumb
 1162              		.thumb_func
 1163              		.fpu fpv5-sp-d16
 1165              	SDMMC_SetSDMMCReadWaitMode:
 1166              	.LFB148:
 495:Drivers/STM32F7xx_HAL_Driver/Src/stm32f7xx_ll_sdmmc.c ****   /* Check the parameters */
 1167              		.loc 1 495 0
 1168              		.cfi_startproc
 1169              		@ args = 0, pretend = 0, frame = 0
 1170              		@ frame_needed = 0, uses_anonymous_args = 0
 1171              		@ link register save eliminated.
 1172              	.LVL146:
 500:Drivers/STM32F7xx_HAL_Driver/Src/stm32f7xx_ll_sdmmc.c ****   
 1173              		.loc 1 500 0
 1174 0000 C36A     		ldr	r3, [r0, #44]
 1175 0002 23F48063 		bic	r3, r3, #1024
 1176 0006 1943     		orrs	r1, r1, r3
 1177              	.LVL147:
 1178 0008 C162     		str	r1, [r0, #44]
 503:Drivers/STM32F7xx_HAL_Driver/Src/stm32f7xx_ll_sdmmc.c **** 
 1179              		.loc 1 503 0
 1180 000a 0020     		movs	r0, #0
 1181              	.LVL148:
 1182 000c 7047     		bx	lr
 1183              		.cfi_endproc
 1184              	.LFE148:
 1186              		.section	.text.SDMMC_CmdBlockLength,"ax",%progbits
 1187              		.align	1
 1188              		.global	SDMMC_CmdBlockLength
 1189              		.syntax unified
 1190              		.thumb
 1191              		.thumb_func
ARM GAS  C:\Users\Student\AppData\Local\Temp\ccPRdzQ1.s 			page 50


 1192              		.fpu fpv5-sp-d16
 1194              	SDMMC_CmdBlockLength:
 1195              	.LFB149:
 530:Drivers/STM32F7xx_HAL_Driver/Src/stm32f7xx_ll_sdmmc.c ****   SDMMC_CmdInitTypeDef  sdmmc_cmdinit;
 1196              		.loc 1 530 0
 1197              		.cfi_startproc
 1198              		@ args = 0, pretend = 0, frame = 24
 1199              		@ frame_needed = 0, uses_anonymous_args = 0
 1200              	.LVL149:
 1201 0000 30B5     		push	{r4, r5, lr}
 1202              	.LCFI8:
 1203              		.cfi_def_cfa_offset 12
 1204              		.cfi_offset 4, -12
 1205              		.cfi_offset 5, -8
 1206              		.cfi_offset 14, -4
 1207 0002 87B0     		sub	sp, sp, #28
 1208              	.LCFI9:
 1209              		.cfi_def_cfa_offset 40
 1210 0004 0546     		mov	r5, r0
 1211              	.LVL150:
 535:Drivers/STM32F7xx_HAL_Driver/Src/stm32f7xx_ll_sdmmc.c ****   sdmmc_cmdinit.CmdIndex         = SDMMC_CMD_SET_BLOCKLEN;
 1212              		.loc 1 535 0
 1213 0006 0191     		str	r1, [sp, #4]
 536:Drivers/STM32F7xx_HAL_Driver/Src/stm32f7xx_ll_sdmmc.c ****   sdmmc_cmdinit.Response         = SDMMC_RESPONSE_SHORT;
 1214              		.loc 1 536 0
 1215 0008 1024     		movs	r4, #16
 1216 000a 0294     		str	r4, [sp, #8]
 537:Drivers/STM32F7xx_HAL_Driver/Src/stm32f7xx_ll_sdmmc.c ****   sdmmc_cmdinit.WaitForInterrupt = SDMMC_WAIT_NO;
 1217              		.loc 1 537 0
 1218 000c 4023     		movs	r3, #64
 1219 000e 0393     		str	r3, [sp, #12]
 538:Drivers/STM32F7xx_HAL_Driver/Src/stm32f7xx_ll_sdmmc.c ****   sdmmc_cmdinit.CPSM             = SDMMC_CPSM_ENABLE;
 1220              		.loc 1 538 0
 1221 0010 0023     		movs	r3, #0
 1222 0012 0493     		str	r3, [sp, #16]
 539:Drivers/STM32F7xx_HAL_Driver/Src/stm32f7xx_ll_sdmmc.c ****   SDMMC_SendCommand(SDMMCx, &sdmmc_cmdinit);
 1223              		.loc 1 539 0
 1224 0014 4FF48063 		mov	r3, #1024
 1225 0018 0593     		str	r3, [sp, #20]
 540:Drivers/STM32F7xx_HAL_Driver/Src/stm32f7xx_ll_sdmmc.c ****   
 1226              		.loc 1 540 0
 1227 001a 01A9     		add	r1, sp, #4
 1228              	.LVL151:
 1229 001c FFF7FEFF 		bl	SDMMC_SendCommand
 1230              	.LVL152:
 543:Drivers/STM32F7xx_HAL_Driver/Src/stm32f7xx_ll_sdmmc.c **** 
 1231              		.loc 1 543 0
 1232 0020 41F28832 		movw	r2, #5000
 1233 0024 2146     		mov	r1, r4
 1234 0026 2846     		mov	r0, r5
 1235 0028 FFF7FEFF 		bl	SDMMC_GetCmdResp1
 1236              	.LVL153:
 546:Drivers/STM32F7xx_HAL_Driver/Src/stm32f7xx_ll_sdmmc.c **** 
 1237              		.loc 1 546 0
 1238 002c 07B0     		add	sp, sp, #28
 1239              	.LCFI10:
 1240              		.cfi_def_cfa_offset 12
ARM GAS  C:\Users\Student\AppData\Local\Temp\ccPRdzQ1.s 			page 51


 1241              		@ sp needed
 1242 002e 30BD     		pop	{r4, r5, pc}
 1243              		.cfi_endproc
 1244              	.LFE149:
 1246              		.section	.text.SDMMC_CmdReadSingleBlock,"ax",%progbits
 1247              		.align	1
 1248              		.global	SDMMC_CmdReadSingleBlock
 1249              		.syntax unified
 1250              		.thumb
 1251              		.thumb_func
 1252              		.fpu fpv5-sp-d16
 1254              	SDMMC_CmdReadSingleBlock:
 1255              	.LFB150:
 554:Drivers/STM32F7xx_HAL_Driver/Src/stm32f7xx_ll_sdmmc.c ****   SDMMC_CmdInitTypeDef  sdmmc_cmdinit;
 1256              		.loc 1 554 0
 1257              		.cfi_startproc
 1258              		@ args = 0, pretend = 0, frame = 24
 1259              		@ frame_needed = 0, uses_anonymous_args = 0
 1260              	.LVL154:
 1261 0000 30B5     		push	{r4, r5, lr}
 1262              	.LCFI11:
 1263              		.cfi_def_cfa_offset 12
 1264              		.cfi_offset 4, -12
 1265              		.cfi_offset 5, -8
 1266              		.cfi_offset 14, -4
 1267 0002 87B0     		sub	sp, sp, #28
 1268              	.LCFI12:
 1269              		.cfi_def_cfa_offset 40
 1270 0004 0546     		mov	r5, r0
 1271              	.LVL155:
 559:Drivers/STM32F7xx_HAL_Driver/Src/stm32f7xx_ll_sdmmc.c ****   sdmmc_cmdinit.CmdIndex         = SDMMC_CMD_READ_SINGLE_BLOCK;
 1272              		.loc 1 559 0
 1273 0006 0191     		str	r1, [sp, #4]
 560:Drivers/STM32F7xx_HAL_Driver/Src/stm32f7xx_ll_sdmmc.c ****   sdmmc_cmdinit.Response         = SDMMC_RESPONSE_SHORT;
 1274              		.loc 1 560 0
 1275 0008 1124     		movs	r4, #17
 1276 000a 0294     		str	r4, [sp, #8]
 561:Drivers/STM32F7xx_HAL_Driver/Src/stm32f7xx_ll_sdmmc.c ****   sdmmc_cmdinit.WaitForInterrupt = SDMMC_WAIT_NO;
 1277              		.loc 1 561 0
 1278 000c 4023     		movs	r3, #64
 1279 000e 0393     		str	r3, [sp, #12]
 562:Drivers/STM32F7xx_HAL_Driver/Src/stm32f7xx_ll_sdmmc.c ****   sdmmc_cmdinit.CPSM             = SDMMC_CPSM_ENABLE;
 1280              		.loc 1 562 0
 1281 0010 0023     		movs	r3, #0
 1282 0012 0493     		str	r3, [sp, #16]
 563:Drivers/STM32F7xx_HAL_Driver/Src/stm32f7xx_ll_sdmmc.c ****   SDMMC_SendCommand(SDMMCx, &sdmmc_cmdinit);
 1283              		.loc 1 563 0
 1284 0014 4FF48063 		mov	r3, #1024
 1285 0018 0593     		str	r3, [sp, #20]
 564:Drivers/STM32F7xx_HAL_Driver/Src/stm32f7xx_ll_sdmmc.c ****   
 1286              		.loc 1 564 0
 1287 001a 01A9     		add	r1, sp, #4
 1288              	.LVL156:
 1289 001c FFF7FEFF 		bl	SDMMC_SendCommand
 1290              	.LVL157:
 567:Drivers/STM32F7xx_HAL_Driver/Src/stm32f7xx_ll_sdmmc.c **** 
 1291              		.loc 1 567 0
ARM GAS  C:\Users\Student\AppData\Local\Temp\ccPRdzQ1.s 			page 52


 1292 0020 41F28832 		movw	r2, #5000
 1293 0024 2146     		mov	r1, r4
 1294 0026 2846     		mov	r0, r5
 1295 0028 FFF7FEFF 		bl	SDMMC_GetCmdResp1
 1296              	.LVL158:
 570:Drivers/STM32F7xx_HAL_Driver/Src/stm32f7xx_ll_sdmmc.c **** 
 1297              		.loc 1 570 0
 1298 002c 07B0     		add	sp, sp, #28
 1299              	.LCFI13:
 1300              		.cfi_def_cfa_offset 12
 1301              		@ sp needed
 1302 002e 30BD     		pop	{r4, r5, pc}
 1303              		.cfi_endproc
 1304              	.LFE150:
 1306              		.section	.text.SDMMC_CmdReadMultiBlock,"ax",%progbits
 1307              		.align	1
 1308              		.global	SDMMC_CmdReadMultiBlock
 1309              		.syntax unified
 1310              		.thumb
 1311              		.thumb_func
 1312              		.fpu fpv5-sp-d16
 1314              	SDMMC_CmdReadMultiBlock:
 1315              	.LFB151:
 578:Drivers/STM32F7xx_HAL_Driver/Src/stm32f7xx_ll_sdmmc.c ****   SDMMC_CmdInitTypeDef  sdmmc_cmdinit;
 1316              		.loc 1 578 0
 1317              		.cfi_startproc
 1318              		@ args = 0, pretend = 0, frame = 24
 1319              		@ frame_needed = 0, uses_anonymous_args = 0
 1320              	.LVL159:
 1321 0000 30B5     		push	{r4, r5, lr}
 1322              	.LCFI14:
 1323              		.cfi_def_cfa_offset 12
 1324              		.cfi_offset 4, -12
 1325              		.cfi_offset 5, -8
 1326              		.cfi_offset 14, -4
 1327 0002 87B0     		sub	sp, sp, #28
 1328              	.LCFI15:
 1329              		.cfi_def_cfa_offset 40
 1330 0004 0546     		mov	r5, r0
 1331              	.LVL160:
 583:Drivers/STM32F7xx_HAL_Driver/Src/stm32f7xx_ll_sdmmc.c ****   sdmmc_cmdinit.CmdIndex         = SDMMC_CMD_READ_MULT_BLOCK;
 1332              		.loc 1 583 0
 1333 0006 0191     		str	r1, [sp, #4]
 584:Drivers/STM32F7xx_HAL_Driver/Src/stm32f7xx_ll_sdmmc.c ****   sdmmc_cmdinit.Response         = SDMMC_RESPONSE_SHORT;
 1334              		.loc 1 584 0
 1335 0008 1224     		movs	r4, #18
 1336 000a 0294     		str	r4, [sp, #8]
 585:Drivers/STM32F7xx_HAL_Driver/Src/stm32f7xx_ll_sdmmc.c ****   sdmmc_cmdinit.WaitForInterrupt = SDMMC_WAIT_NO;
 1337              		.loc 1 585 0
 1338 000c 4023     		movs	r3, #64
 1339 000e 0393     		str	r3, [sp, #12]
 586:Drivers/STM32F7xx_HAL_Driver/Src/stm32f7xx_ll_sdmmc.c ****   sdmmc_cmdinit.CPSM             = SDMMC_CPSM_ENABLE;
 1340              		.loc 1 586 0
 1341 0010 0023     		movs	r3, #0
 1342 0012 0493     		str	r3, [sp, #16]
 587:Drivers/STM32F7xx_HAL_Driver/Src/stm32f7xx_ll_sdmmc.c ****   SDMMC_SendCommand(SDMMCx, &sdmmc_cmdinit);
 1343              		.loc 1 587 0
ARM GAS  C:\Users\Student\AppData\Local\Temp\ccPRdzQ1.s 			page 53


 1344 0014 4FF48063 		mov	r3, #1024
 1345 0018 0593     		str	r3, [sp, #20]
 588:Drivers/STM32F7xx_HAL_Driver/Src/stm32f7xx_ll_sdmmc.c ****   
 1346              		.loc 1 588 0
 1347 001a 01A9     		add	r1, sp, #4
 1348              	.LVL161:
 1349 001c FFF7FEFF 		bl	SDMMC_SendCommand
 1350              	.LVL162:
 591:Drivers/STM32F7xx_HAL_Driver/Src/stm32f7xx_ll_sdmmc.c **** 
 1351              		.loc 1 591 0
 1352 0020 41F28832 		movw	r2, #5000
 1353 0024 2146     		mov	r1, r4
 1354 0026 2846     		mov	r0, r5
 1355 0028 FFF7FEFF 		bl	SDMMC_GetCmdResp1
 1356              	.LVL163:
 594:Drivers/STM32F7xx_HAL_Driver/Src/stm32f7xx_ll_sdmmc.c **** 
 1357              		.loc 1 594 0
 1358 002c 07B0     		add	sp, sp, #28
 1359              	.LCFI16:
 1360              		.cfi_def_cfa_offset 12
 1361              		@ sp needed
 1362 002e 30BD     		pop	{r4, r5, pc}
 1363              		.cfi_endproc
 1364              	.LFE151:
 1366              		.section	.text.SDMMC_CmdWriteSingleBlock,"ax",%progbits
 1367              		.align	1
 1368              		.global	SDMMC_CmdWriteSingleBlock
 1369              		.syntax unified
 1370              		.thumb
 1371              		.thumb_func
 1372              		.fpu fpv5-sp-d16
 1374              	SDMMC_CmdWriteSingleBlock:
 1375              	.LFB152:
 602:Drivers/STM32F7xx_HAL_Driver/Src/stm32f7xx_ll_sdmmc.c ****   SDMMC_CmdInitTypeDef  sdmmc_cmdinit;
 1376              		.loc 1 602 0
 1377              		.cfi_startproc
 1378              		@ args = 0, pretend = 0, frame = 24
 1379              		@ frame_needed = 0, uses_anonymous_args = 0
 1380              	.LVL164:
 1381 0000 30B5     		push	{r4, r5, lr}
 1382              	.LCFI17:
 1383              		.cfi_def_cfa_offset 12
 1384              		.cfi_offset 4, -12
 1385              		.cfi_offset 5, -8
 1386              		.cfi_offset 14, -4
 1387 0002 87B0     		sub	sp, sp, #28
 1388              	.LCFI18:
 1389              		.cfi_def_cfa_offset 40
 1390 0004 0546     		mov	r5, r0
 1391              	.LVL165:
 607:Drivers/STM32F7xx_HAL_Driver/Src/stm32f7xx_ll_sdmmc.c ****   sdmmc_cmdinit.CmdIndex         = SDMMC_CMD_WRITE_SINGLE_BLOCK;
 1392              		.loc 1 607 0
 1393 0006 0191     		str	r1, [sp, #4]
 608:Drivers/STM32F7xx_HAL_Driver/Src/stm32f7xx_ll_sdmmc.c ****   sdmmc_cmdinit.Response         = SDMMC_RESPONSE_SHORT;
 1394              		.loc 1 608 0
 1395 0008 1824     		movs	r4, #24
 1396 000a 0294     		str	r4, [sp, #8]
ARM GAS  C:\Users\Student\AppData\Local\Temp\ccPRdzQ1.s 			page 54


 609:Drivers/STM32F7xx_HAL_Driver/Src/stm32f7xx_ll_sdmmc.c ****   sdmmc_cmdinit.WaitForInterrupt = SDMMC_WAIT_NO;
 1397              		.loc 1 609 0
 1398 000c 4023     		movs	r3, #64
 1399 000e 0393     		str	r3, [sp, #12]
 610:Drivers/STM32F7xx_HAL_Driver/Src/stm32f7xx_ll_sdmmc.c ****   sdmmc_cmdinit.CPSM             = SDMMC_CPSM_ENABLE;
 1400              		.loc 1 610 0
 1401 0010 0023     		movs	r3, #0
 1402 0012 0493     		str	r3, [sp, #16]
 611:Drivers/STM32F7xx_HAL_Driver/Src/stm32f7xx_ll_sdmmc.c ****   SDMMC_SendCommand(SDMMCx, &sdmmc_cmdinit);
 1403              		.loc 1 611 0
 1404 0014 4FF48063 		mov	r3, #1024
 1405 0018 0593     		str	r3, [sp, #20]
 612:Drivers/STM32F7xx_HAL_Driver/Src/stm32f7xx_ll_sdmmc.c ****   
 1406              		.loc 1 612 0
 1407 001a 01A9     		add	r1, sp, #4
 1408              	.LVL166:
 1409 001c FFF7FEFF 		bl	SDMMC_SendCommand
 1410              	.LVL167:
 615:Drivers/STM32F7xx_HAL_Driver/Src/stm32f7xx_ll_sdmmc.c **** 
 1411              		.loc 1 615 0
 1412 0020 41F28832 		movw	r2, #5000
 1413 0024 2146     		mov	r1, r4
 1414 0026 2846     		mov	r0, r5
 1415 0028 FFF7FEFF 		bl	SDMMC_GetCmdResp1
 1416              	.LVL168:
 618:Drivers/STM32F7xx_HAL_Driver/Src/stm32f7xx_ll_sdmmc.c **** 
 1417              		.loc 1 618 0
 1418 002c 07B0     		add	sp, sp, #28
 1419              	.LCFI19:
 1420              		.cfi_def_cfa_offset 12
 1421              		@ sp needed
 1422 002e 30BD     		pop	{r4, r5, pc}
 1423              		.cfi_endproc
 1424              	.LFE152:
 1426              		.section	.text.SDMMC_CmdWriteMultiBlock,"ax",%progbits
 1427              		.align	1
 1428              		.global	SDMMC_CmdWriteMultiBlock
 1429              		.syntax unified
 1430              		.thumb
 1431              		.thumb_func
 1432              		.fpu fpv5-sp-d16
 1434              	SDMMC_CmdWriteMultiBlock:
 1435              	.LFB153:
 626:Drivers/STM32F7xx_HAL_Driver/Src/stm32f7xx_ll_sdmmc.c ****   SDMMC_CmdInitTypeDef  sdmmc_cmdinit;
 1436              		.loc 1 626 0
 1437              		.cfi_startproc
 1438              		@ args = 0, pretend = 0, frame = 24
 1439              		@ frame_needed = 0, uses_anonymous_args = 0
 1440              	.LVL169:
 1441 0000 30B5     		push	{r4, r5, lr}
 1442              	.LCFI20:
 1443              		.cfi_def_cfa_offset 12
 1444              		.cfi_offset 4, -12
 1445              		.cfi_offset 5, -8
 1446              		.cfi_offset 14, -4
 1447 0002 87B0     		sub	sp, sp, #28
 1448              	.LCFI21:
ARM GAS  C:\Users\Student\AppData\Local\Temp\ccPRdzQ1.s 			page 55


 1449              		.cfi_def_cfa_offset 40
 1450 0004 0546     		mov	r5, r0
 1451              	.LVL170:
 631:Drivers/STM32F7xx_HAL_Driver/Src/stm32f7xx_ll_sdmmc.c ****   sdmmc_cmdinit.CmdIndex         = SDMMC_CMD_WRITE_MULT_BLOCK;
 1452              		.loc 1 631 0
 1453 0006 0191     		str	r1, [sp, #4]
 632:Drivers/STM32F7xx_HAL_Driver/Src/stm32f7xx_ll_sdmmc.c ****   sdmmc_cmdinit.Response         = SDMMC_RESPONSE_SHORT;
 1454              		.loc 1 632 0
 1455 0008 1924     		movs	r4, #25
 1456 000a 0294     		str	r4, [sp, #8]
 633:Drivers/STM32F7xx_HAL_Driver/Src/stm32f7xx_ll_sdmmc.c ****   sdmmc_cmdinit.WaitForInterrupt = SDMMC_WAIT_NO;
 1457              		.loc 1 633 0
 1458 000c 4023     		movs	r3, #64
 1459 000e 0393     		str	r3, [sp, #12]
 634:Drivers/STM32F7xx_HAL_Driver/Src/stm32f7xx_ll_sdmmc.c ****   sdmmc_cmdinit.CPSM             = SDMMC_CPSM_ENABLE;
 1460              		.loc 1 634 0
 1461 0010 0023     		movs	r3, #0
 1462 0012 0493     		str	r3, [sp, #16]
 635:Drivers/STM32F7xx_HAL_Driver/Src/stm32f7xx_ll_sdmmc.c ****   SDMMC_SendCommand(SDMMCx, &sdmmc_cmdinit);
 1463              		.loc 1 635 0
 1464 0014 4FF48063 		mov	r3, #1024
 1465 0018 0593     		str	r3, [sp, #20]
 636:Drivers/STM32F7xx_HAL_Driver/Src/stm32f7xx_ll_sdmmc.c ****   
 1466              		.loc 1 636 0
 1467 001a 01A9     		add	r1, sp, #4
 1468              	.LVL171:
 1469 001c FFF7FEFF 		bl	SDMMC_SendCommand
 1470              	.LVL172:
 639:Drivers/STM32F7xx_HAL_Driver/Src/stm32f7xx_ll_sdmmc.c **** 
 1471              		.loc 1 639 0
 1472 0020 41F28832 		movw	r2, #5000
 1473 0024 2146     		mov	r1, r4
 1474 0026 2846     		mov	r0, r5
 1475 0028 FFF7FEFF 		bl	SDMMC_GetCmdResp1
 1476              	.LVL173:
 642:Drivers/STM32F7xx_HAL_Driver/Src/stm32f7xx_ll_sdmmc.c **** 
 1477              		.loc 1 642 0
 1478 002c 07B0     		add	sp, sp, #28
 1479              	.LCFI22:
 1480              		.cfi_def_cfa_offset 12
 1481              		@ sp needed
 1482 002e 30BD     		pop	{r4, r5, pc}
 1483              		.cfi_endproc
 1484              	.LFE153:
 1486              		.section	.text.SDMMC_CmdSDEraseStartAdd,"ax",%progbits
 1487              		.align	1
 1488              		.global	SDMMC_CmdSDEraseStartAdd
 1489              		.syntax unified
 1490              		.thumb
 1491              		.thumb_func
 1492              		.fpu fpv5-sp-d16
 1494              	SDMMC_CmdSDEraseStartAdd:
 1495              	.LFB154:
 650:Drivers/STM32F7xx_HAL_Driver/Src/stm32f7xx_ll_sdmmc.c ****   SDMMC_CmdInitTypeDef  sdmmc_cmdinit;
 1496              		.loc 1 650 0
 1497              		.cfi_startproc
 1498              		@ args = 0, pretend = 0, frame = 24
ARM GAS  C:\Users\Student\AppData\Local\Temp\ccPRdzQ1.s 			page 56


 1499              		@ frame_needed = 0, uses_anonymous_args = 0
 1500              	.LVL174:
 1501 0000 30B5     		push	{r4, r5, lr}
 1502              	.LCFI23:
 1503              		.cfi_def_cfa_offset 12
 1504              		.cfi_offset 4, -12
 1505              		.cfi_offset 5, -8
 1506              		.cfi_offset 14, -4
 1507 0002 87B0     		sub	sp, sp, #28
 1508              	.LCFI24:
 1509              		.cfi_def_cfa_offset 40
 1510 0004 0546     		mov	r5, r0
 1511              	.LVL175:
 655:Drivers/STM32F7xx_HAL_Driver/Src/stm32f7xx_ll_sdmmc.c ****   sdmmc_cmdinit.CmdIndex         = SDMMC_CMD_SD_ERASE_GRP_START;
 1512              		.loc 1 655 0
 1513 0006 0191     		str	r1, [sp, #4]
 656:Drivers/STM32F7xx_HAL_Driver/Src/stm32f7xx_ll_sdmmc.c ****   sdmmc_cmdinit.Response         = SDMMC_RESPONSE_SHORT;
 1514              		.loc 1 656 0
 1515 0008 2024     		movs	r4, #32
 1516 000a 0294     		str	r4, [sp, #8]
 657:Drivers/STM32F7xx_HAL_Driver/Src/stm32f7xx_ll_sdmmc.c ****   sdmmc_cmdinit.WaitForInterrupt = SDMMC_WAIT_NO;
 1517              		.loc 1 657 0
 1518 000c 4023     		movs	r3, #64
 1519 000e 0393     		str	r3, [sp, #12]
 658:Drivers/STM32F7xx_HAL_Driver/Src/stm32f7xx_ll_sdmmc.c ****   sdmmc_cmdinit.CPSM             = SDMMC_CPSM_ENABLE;
 1520              		.loc 1 658 0
 1521 0010 0023     		movs	r3, #0
 1522 0012 0493     		str	r3, [sp, #16]
 659:Drivers/STM32F7xx_HAL_Driver/Src/stm32f7xx_ll_sdmmc.c ****   SDMMC_SendCommand(SDMMCx, &sdmmc_cmdinit);
 1523              		.loc 1 659 0
 1524 0014 4FF48063 		mov	r3, #1024
 1525 0018 0593     		str	r3, [sp, #20]
 660:Drivers/STM32F7xx_HAL_Driver/Src/stm32f7xx_ll_sdmmc.c ****   
 1526              		.loc 1 660 0
 1527 001a 01A9     		add	r1, sp, #4
 1528              	.LVL176:
 1529 001c FFF7FEFF 		bl	SDMMC_SendCommand
 1530              	.LVL177:
 663:Drivers/STM32F7xx_HAL_Driver/Src/stm32f7xx_ll_sdmmc.c **** 
 1531              		.loc 1 663 0
 1532 0020 41F28832 		movw	r2, #5000
 1533 0024 2146     		mov	r1, r4
 1534 0026 2846     		mov	r0, r5
 1535 0028 FFF7FEFF 		bl	SDMMC_GetCmdResp1
 1536              	.LVL178:
 666:Drivers/STM32F7xx_HAL_Driver/Src/stm32f7xx_ll_sdmmc.c **** 
 1537              		.loc 1 666 0
 1538 002c 07B0     		add	sp, sp, #28
 1539              	.LCFI25:
 1540              		.cfi_def_cfa_offset 12
 1541              		@ sp needed
 1542 002e 30BD     		pop	{r4, r5, pc}
 1543              		.cfi_endproc
 1544              	.LFE154:
 1546              		.section	.text.SDMMC_CmdSDEraseEndAdd,"ax",%progbits
 1547              		.align	1
 1548              		.global	SDMMC_CmdSDEraseEndAdd
ARM GAS  C:\Users\Student\AppData\Local\Temp\ccPRdzQ1.s 			page 57


 1549              		.syntax unified
 1550              		.thumb
 1551              		.thumb_func
 1552              		.fpu fpv5-sp-d16
 1554              	SDMMC_CmdSDEraseEndAdd:
 1555              	.LFB155:
 674:Drivers/STM32F7xx_HAL_Driver/Src/stm32f7xx_ll_sdmmc.c ****   SDMMC_CmdInitTypeDef  sdmmc_cmdinit;
 1556              		.loc 1 674 0
 1557              		.cfi_startproc
 1558              		@ args = 0, pretend = 0, frame = 24
 1559              		@ frame_needed = 0, uses_anonymous_args = 0
 1560              	.LVL179:
 1561 0000 30B5     		push	{r4, r5, lr}
 1562              	.LCFI26:
 1563              		.cfi_def_cfa_offset 12
 1564              		.cfi_offset 4, -12
 1565              		.cfi_offset 5, -8
 1566              		.cfi_offset 14, -4
 1567 0002 87B0     		sub	sp, sp, #28
 1568              	.LCFI27:
 1569              		.cfi_def_cfa_offset 40
 1570 0004 0546     		mov	r5, r0
 1571              	.LVL180:
 679:Drivers/STM32F7xx_HAL_Driver/Src/stm32f7xx_ll_sdmmc.c ****   sdmmc_cmdinit.CmdIndex         = SDMMC_CMD_SD_ERASE_GRP_END;
 1572              		.loc 1 679 0
 1573 0006 0191     		str	r1, [sp, #4]
 680:Drivers/STM32F7xx_HAL_Driver/Src/stm32f7xx_ll_sdmmc.c ****   sdmmc_cmdinit.Response         = SDMMC_RESPONSE_SHORT;
 1574              		.loc 1 680 0
 1575 0008 2124     		movs	r4, #33
 1576 000a 0294     		str	r4, [sp, #8]
 681:Drivers/STM32F7xx_HAL_Driver/Src/stm32f7xx_ll_sdmmc.c ****   sdmmc_cmdinit.WaitForInterrupt = SDMMC_WAIT_NO;
 1577              		.loc 1 681 0
 1578 000c 4023     		movs	r3, #64
 1579 000e 0393     		str	r3, [sp, #12]
 682:Drivers/STM32F7xx_HAL_Driver/Src/stm32f7xx_ll_sdmmc.c ****   sdmmc_cmdinit.CPSM             = SDMMC_CPSM_ENABLE;
 1580              		.loc 1 682 0
 1581 0010 0023     		movs	r3, #0
 1582 0012 0493     		str	r3, [sp, #16]
 683:Drivers/STM32F7xx_HAL_Driver/Src/stm32f7xx_ll_sdmmc.c ****   SDMMC_SendCommand(SDMMCx, &sdmmc_cmdinit);
 1583              		.loc 1 683 0
 1584 0014 4FF48063 		mov	r3, #1024
 1585 0018 0593     		str	r3, [sp, #20]
 684:Drivers/STM32F7xx_HAL_Driver/Src/stm32f7xx_ll_sdmmc.c ****   
 1586              		.loc 1 684 0
 1587 001a 01A9     		add	r1, sp, #4
 1588              	.LVL181:
 1589 001c FFF7FEFF 		bl	SDMMC_SendCommand
 1590              	.LVL182:
 687:Drivers/STM32F7xx_HAL_Driver/Src/stm32f7xx_ll_sdmmc.c **** 
 1591              		.loc 1 687 0
 1592 0020 41F28832 		movw	r2, #5000
 1593 0024 2146     		mov	r1, r4
 1594 0026 2846     		mov	r0, r5
 1595 0028 FFF7FEFF 		bl	SDMMC_GetCmdResp1
 1596              	.LVL183:
 690:Drivers/STM32F7xx_HAL_Driver/Src/stm32f7xx_ll_sdmmc.c **** 
 1597              		.loc 1 690 0
ARM GAS  C:\Users\Student\AppData\Local\Temp\ccPRdzQ1.s 			page 58


 1598 002c 07B0     		add	sp, sp, #28
 1599              	.LCFI28:
 1600              		.cfi_def_cfa_offset 12
 1601              		@ sp needed
 1602 002e 30BD     		pop	{r4, r5, pc}
 1603              		.cfi_endproc
 1604              	.LFE155:
 1606              		.section	.text.SDMMC_CmdEraseStartAdd,"ax",%progbits
 1607              		.align	1
 1608              		.global	SDMMC_CmdEraseStartAdd
 1609              		.syntax unified
 1610              		.thumb
 1611              		.thumb_func
 1612              		.fpu fpv5-sp-d16
 1614              	SDMMC_CmdEraseStartAdd:
 1615              	.LFB156:
 698:Drivers/STM32F7xx_HAL_Driver/Src/stm32f7xx_ll_sdmmc.c ****   SDMMC_CmdInitTypeDef  sdmmc_cmdinit;
 1616              		.loc 1 698 0
 1617              		.cfi_startproc
 1618              		@ args = 0, pretend = 0, frame = 24
 1619              		@ frame_needed = 0, uses_anonymous_args = 0
 1620              	.LVL184:
 1621 0000 30B5     		push	{r4, r5, lr}
 1622              	.LCFI29:
 1623              		.cfi_def_cfa_offset 12
 1624              		.cfi_offset 4, -12
 1625              		.cfi_offset 5, -8
 1626              		.cfi_offset 14, -4
 1627 0002 87B0     		sub	sp, sp, #28
 1628              	.LCFI30:
 1629              		.cfi_def_cfa_offset 40
 1630 0004 0546     		mov	r5, r0
 1631              	.LVL185:
 703:Drivers/STM32F7xx_HAL_Driver/Src/stm32f7xx_ll_sdmmc.c ****   sdmmc_cmdinit.CmdIndex         = SDMMC_CMD_ERASE_GRP_START;
 1632              		.loc 1 703 0
 1633 0006 0191     		str	r1, [sp, #4]
 704:Drivers/STM32F7xx_HAL_Driver/Src/stm32f7xx_ll_sdmmc.c ****   sdmmc_cmdinit.Response         = SDMMC_RESPONSE_SHORT;
 1634              		.loc 1 704 0
 1635 0008 2324     		movs	r4, #35
 1636 000a 0294     		str	r4, [sp, #8]
 705:Drivers/STM32F7xx_HAL_Driver/Src/stm32f7xx_ll_sdmmc.c ****   sdmmc_cmdinit.WaitForInterrupt = SDMMC_WAIT_NO;
 1637              		.loc 1 705 0
 1638 000c 4023     		movs	r3, #64
 1639 000e 0393     		str	r3, [sp, #12]
 706:Drivers/STM32F7xx_HAL_Driver/Src/stm32f7xx_ll_sdmmc.c ****   sdmmc_cmdinit.CPSM             = SDMMC_CPSM_ENABLE;
 1640              		.loc 1 706 0
 1641 0010 0023     		movs	r3, #0
 1642 0012 0493     		str	r3, [sp, #16]
 707:Drivers/STM32F7xx_HAL_Driver/Src/stm32f7xx_ll_sdmmc.c ****   SDMMC_SendCommand(SDMMCx, &sdmmc_cmdinit);
 1643              		.loc 1 707 0
 1644 0014 4FF48063 		mov	r3, #1024
 1645 0018 0593     		str	r3, [sp, #20]
 708:Drivers/STM32F7xx_HAL_Driver/Src/stm32f7xx_ll_sdmmc.c ****   
 1646              		.loc 1 708 0
 1647 001a 01A9     		add	r1, sp, #4
 1648              	.LVL186:
 1649 001c FFF7FEFF 		bl	SDMMC_SendCommand
ARM GAS  C:\Users\Student\AppData\Local\Temp\ccPRdzQ1.s 			page 59


 1650              	.LVL187:
 711:Drivers/STM32F7xx_HAL_Driver/Src/stm32f7xx_ll_sdmmc.c **** 
 1651              		.loc 1 711 0
 1652 0020 41F28832 		movw	r2, #5000
 1653 0024 2146     		mov	r1, r4
 1654 0026 2846     		mov	r0, r5
 1655 0028 FFF7FEFF 		bl	SDMMC_GetCmdResp1
 1656              	.LVL188:
 714:Drivers/STM32F7xx_HAL_Driver/Src/stm32f7xx_ll_sdmmc.c **** 
 1657              		.loc 1 714 0
 1658 002c 07B0     		add	sp, sp, #28
 1659              	.LCFI31:
 1660              		.cfi_def_cfa_offset 12
 1661              		@ sp needed
 1662 002e 30BD     		pop	{r4, r5, pc}
 1663              		.cfi_endproc
 1664              	.LFE156:
 1666              		.section	.text.SDMMC_CmdEraseEndAdd,"ax",%progbits
 1667              		.align	1
 1668              		.global	SDMMC_CmdEraseEndAdd
 1669              		.syntax unified
 1670              		.thumb
 1671              		.thumb_func
 1672              		.fpu fpv5-sp-d16
 1674              	SDMMC_CmdEraseEndAdd:
 1675              	.LFB157:
 722:Drivers/STM32F7xx_HAL_Driver/Src/stm32f7xx_ll_sdmmc.c ****   SDMMC_CmdInitTypeDef  sdmmc_cmdinit;
 1676              		.loc 1 722 0
 1677              		.cfi_startproc
 1678              		@ args = 0, pretend = 0, frame = 24
 1679              		@ frame_needed = 0, uses_anonymous_args = 0
 1680              	.LVL189:
 1681 0000 30B5     		push	{r4, r5, lr}
 1682              	.LCFI32:
 1683              		.cfi_def_cfa_offset 12
 1684              		.cfi_offset 4, -12
 1685              		.cfi_offset 5, -8
 1686              		.cfi_offset 14, -4
 1687 0002 87B0     		sub	sp, sp, #28
 1688              	.LCFI33:
 1689              		.cfi_def_cfa_offset 40
 1690 0004 0546     		mov	r5, r0
 1691              	.LVL190:
 727:Drivers/STM32F7xx_HAL_Driver/Src/stm32f7xx_ll_sdmmc.c ****   sdmmc_cmdinit.CmdIndex         = SDMMC_CMD_ERASE_GRP_END;
 1692              		.loc 1 727 0
 1693 0006 0191     		str	r1, [sp, #4]
 728:Drivers/STM32F7xx_HAL_Driver/Src/stm32f7xx_ll_sdmmc.c ****   sdmmc_cmdinit.Response         = SDMMC_RESPONSE_SHORT;
 1694              		.loc 1 728 0
 1695 0008 2424     		movs	r4, #36
 1696 000a 0294     		str	r4, [sp, #8]
 729:Drivers/STM32F7xx_HAL_Driver/Src/stm32f7xx_ll_sdmmc.c ****   sdmmc_cmdinit.WaitForInterrupt = SDMMC_WAIT_NO;
 1697              		.loc 1 729 0
 1698 000c 4023     		movs	r3, #64
 1699 000e 0393     		str	r3, [sp, #12]
 730:Drivers/STM32F7xx_HAL_Driver/Src/stm32f7xx_ll_sdmmc.c ****   sdmmc_cmdinit.CPSM             = SDMMC_CPSM_ENABLE;
 1700              		.loc 1 730 0
 1701 0010 0023     		movs	r3, #0
ARM GAS  C:\Users\Student\AppData\Local\Temp\ccPRdzQ1.s 			page 60


 1702 0012 0493     		str	r3, [sp, #16]
 731:Drivers/STM32F7xx_HAL_Driver/Src/stm32f7xx_ll_sdmmc.c ****   SDMMC_SendCommand(SDMMCx, &sdmmc_cmdinit);
 1703              		.loc 1 731 0
 1704 0014 4FF48063 		mov	r3, #1024
 1705 0018 0593     		str	r3, [sp, #20]
 732:Drivers/STM32F7xx_HAL_Driver/Src/stm32f7xx_ll_sdmmc.c ****   
 1706              		.loc 1 732 0
 1707 001a 01A9     		add	r1, sp, #4
 1708              	.LVL191:
 1709 001c FFF7FEFF 		bl	SDMMC_SendCommand
 1710              	.LVL192:
 735:Drivers/STM32F7xx_HAL_Driver/Src/stm32f7xx_ll_sdmmc.c **** 
 1711              		.loc 1 735 0
 1712 0020 41F28832 		movw	r2, #5000
 1713 0024 2146     		mov	r1, r4
 1714 0026 2846     		mov	r0, r5
 1715 0028 FFF7FEFF 		bl	SDMMC_GetCmdResp1
 1716              	.LVL193:
 738:Drivers/STM32F7xx_HAL_Driver/Src/stm32f7xx_ll_sdmmc.c **** 
 1717              		.loc 1 738 0
 1718 002c 07B0     		add	sp, sp, #28
 1719              	.LCFI34:
 1720              		.cfi_def_cfa_offset 12
 1721              		@ sp needed
 1722 002e 30BD     		pop	{r4, r5, pc}
 1723              		.cfi_endproc
 1724              	.LFE157:
 1726              		.section	.text.SDMMC_CmdErase,"ax",%progbits
 1727              		.align	1
 1728              		.global	SDMMC_CmdErase
 1729              		.syntax unified
 1730              		.thumb
 1731              		.thumb_func
 1732              		.fpu fpv5-sp-d16
 1734              	SDMMC_CmdErase:
 1735              	.LFB158:
 746:Drivers/STM32F7xx_HAL_Driver/Src/stm32f7xx_ll_sdmmc.c ****   SDMMC_CmdInitTypeDef  sdmmc_cmdinit;
 1736              		.loc 1 746 0
 1737              		.cfi_startproc
 1738              		@ args = 0, pretend = 0, frame = 24
 1739              		@ frame_needed = 0, uses_anonymous_args = 0
 1740              	.LVL194:
 1741 0000 30B5     		push	{r4, r5, lr}
 1742              	.LCFI35:
 1743              		.cfi_def_cfa_offset 12
 1744              		.cfi_offset 4, -12
 1745              		.cfi_offset 5, -8
 1746              		.cfi_offset 14, -4
 1747 0002 87B0     		sub	sp, sp, #28
 1748              	.LCFI36:
 1749              		.cfi_def_cfa_offset 40
 1750 0004 0546     		mov	r5, r0
 1751              	.LVL195:
 751:Drivers/STM32F7xx_HAL_Driver/Src/stm32f7xx_ll_sdmmc.c ****   sdmmc_cmdinit.CmdIndex         = SDMMC_CMD_ERASE;
 1752              		.loc 1 751 0
 1753 0006 0023     		movs	r3, #0
 1754 0008 0193     		str	r3, [sp, #4]
ARM GAS  C:\Users\Student\AppData\Local\Temp\ccPRdzQ1.s 			page 61


 752:Drivers/STM32F7xx_HAL_Driver/Src/stm32f7xx_ll_sdmmc.c ****   sdmmc_cmdinit.Response         = SDMMC_RESPONSE_SHORT;
 1755              		.loc 1 752 0
 1756 000a 2624     		movs	r4, #38
 1757 000c 0294     		str	r4, [sp, #8]
 753:Drivers/STM32F7xx_HAL_Driver/Src/stm32f7xx_ll_sdmmc.c ****   sdmmc_cmdinit.WaitForInterrupt = SDMMC_WAIT_NO;
 1758              		.loc 1 753 0
 1759 000e 4022     		movs	r2, #64
 1760 0010 0392     		str	r2, [sp, #12]
 754:Drivers/STM32F7xx_HAL_Driver/Src/stm32f7xx_ll_sdmmc.c ****   sdmmc_cmdinit.CPSM             = SDMMC_CPSM_ENABLE;
 1761              		.loc 1 754 0
 1762 0012 0493     		str	r3, [sp, #16]
 755:Drivers/STM32F7xx_HAL_Driver/Src/stm32f7xx_ll_sdmmc.c ****   SDMMC_SendCommand(SDMMCx, &sdmmc_cmdinit);
 1763              		.loc 1 755 0
 1764 0014 4FF48063 		mov	r3, #1024
 1765 0018 0593     		str	r3, [sp, #20]
 756:Drivers/STM32F7xx_HAL_Driver/Src/stm32f7xx_ll_sdmmc.c ****   
 1766              		.loc 1 756 0
 1767 001a 01A9     		add	r1, sp, #4
 1768 001c FFF7FEFF 		bl	SDMMC_SendCommand
 1769              	.LVL196:
 759:Drivers/STM32F7xx_HAL_Driver/Src/stm32f7xx_ll_sdmmc.c **** 
 1770              		.loc 1 759 0
 1771 0020 4FF21862 		movw	r2, #63000
 1772 0024 2146     		mov	r1, r4
 1773 0026 2846     		mov	r0, r5
 1774 0028 FFF7FEFF 		bl	SDMMC_GetCmdResp1
 1775              	.LVL197:
 762:Drivers/STM32F7xx_HAL_Driver/Src/stm32f7xx_ll_sdmmc.c **** 
 1776              		.loc 1 762 0
 1777 002c 07B0     		add	sp, sp, #28
 1778              	.LCFI37:
 1779              		.cfi_def_cfa_offset 12
 1780              		@ sp needed
 1781 002e 30BD     		pop	{r4, r5, pc}
 1782              		.cfi_endproc
 1783              	.LFE158:
 1785              		.section	.text.SDMMC_CmdStopTransfer,"ax",%progbits
 1786              		.align	1
 1787              		.global	SDMMC_CmdStopTransfer
 1788              		.syntax unified
 1789              		.thumb
 1790              		.thumb_func
 1791              		.fpu fpv5-sp-d16
 1793              	SDMMC_CmdStopTransfer:
 1794              	.LFB159:
 770:Drivers/STM32F7xx_HAL_Driver/Src/stm32f7xx_ll_sdmmc.c ****   SDMMC_CmdInitTypeDef  sdmmc_cmdinit;
 1795              		.loc 1 770 0
 1796              		.cfi_startproc
 1797              		@ args = 0, pretend = 0, frame = 24
 1798              		@ frame_needed = 0, uses_anonymous_args = 0
 1799              	.LVL198:
 1800 0000 30B5     		push	{r4, r5, lr}
 1801              	.LCFI38:
 1802              		.cfi_def_cfa_offset 12
 1803              		.cfi_offset 4, -12
 1804              		.cfi_offset 5, -8
 1805              		.cfi_offset 14, -4
ARM GAS  C:\Users\Student\AppData\Local\Temp\ccPRdzQ1.s 			page 62


 1806 0002 87B0     		sub	sp, sp, #28
 1807              	.LCFI39:
 1808              		.cfi_def_cfa_offset 40
 1809 0004 0546     		mov	r5, r0
 1810              	.LVL199:
 775:Drivers/STM32F7xx_HAL_Driver/Src/stm32f7xx_ll_sdmmc.c ****   sdmmc_cmdinit.CmdIndex         = SDMMC_CMD_STOP_TRANSMISSION;
 1811              		.loc 1 775 0
 1812 0006 0023     		movs	r3, #0
 1813 0008 0193     		str	r3, [sp, #4]
 776:Drivers/STM32F7xx_HAL_Driver/Src/stm32f7xx_ll_sdmmc.c ****   sdmmc_cmdinit.Response         = SDMMC_RESPONSE_SHORT;
 1814              		.loc 1 776 0
 1815 000a 0C24     		movs	r4, #12
 1816 000c 0294     		str	r4, [sp, #8]
 777:Drivers/STM32F7xx_HAL_Driver/Src/stm32f7xx_ll_sdmmc.c ****   sdmmc_cmdinit.WaitForInterrupt = SDMMC_WAIT_NO;
 1817              		.loc 1 777 0
 1818 000e 4022     		movs	r2, #64
 1819 0010 0392     		str	r2, [sp, #12]
 778:Drivers/STM32F7xx_HAL_Driver/Src/stm32f7xx_ll_sdmmc.c ****   sdmmc_cmdinit.CPSM             = SDMMC_CPSM_ENABLE;
 1820              		.loc 1 778 0
 1821 0012 0493     		str	r3, [sp, #16]
 779:Drivers/STM32F7xx_HAL_Driver/Src/stm32f7xx_ll_sdmmc.c ****   SDMMC_SendCommand(SDMMCx, &sdmmc_cmdinit);
 1822              		.loc 1 779 0
 1823 0014 4FF48063 		mov	r3, #1024
 1824 0018 0593     		str	r3, [sp, #20]
 780:Drivers/STM32F7xx_HAL_Driver/Src/stm32f7xx_ll_sdmmc.c ****   
 1825              		.loc 1 780 0
 1826 001a 01A9     		add	r1, sp, #4
 1827 001c FFF7FEFF 		bl	SDMMC_SendCommand
 1828              	.LVL200:
 783:Drivers/STM32F7xx_HAL_Driver/Src/stm32f7xx_ll_sdmmc.c **** 
 1829              		.loc 1 783 0
 1830 0020 034A     		ldr	r2, .L120
 1831 0022 2146     		mov	r1, r4
 1832 0024 2846     		mov	r0, r5
 1833 0026 FFF7FEFF 		bl	SDMMC_GetCmdResp1
 1834              	.LVL201:
 786:Drivers/STM32F7xx_HAL_Driver/Src/stm32f7xx_ll_sdmmc.c **** 
 1835              		.loc 1 786 0
 1836 002a 07B0     		add	sp, sp, #28
 1837              	.LCFI40:
 1838              		.cfi_def_cfa_offset 12
 1839              		@ sp needed
 1840 002c 30BD     		pop	{r4, r5, pc}
 1841              	.LVL202:
 1842              	.L121:
 1843 002e 00BF     		.align	2
 1844              	.L120:
 1845 0030 00E1F505 		.word	100000000
 1846              		.cfi_endproc
 1847              	.LFE159:
 1849              		.section	.text.SDMMC_CmdSelDesel,"ax",%progbits
 1850              		.align	1
 1851              		.global	SDMMC_CmdSelDesel
 1852              		.syntax unified
 1853              		.thumb
 1854              		.thumb_func
 1855              		.fpu fpv5-sp-d16
ARM GAS  C:\Users\Student\AppData\Local\Temp\ccPRdzQ1.s 			page 63


 1857              	SDMMC_CmdSelDesel:
 1858              	.LFB160:
 795:Drivers/STM32F7xx_HAL_Driver/Src/stm32f7xx_ll_sdmmc.c ****   SDMMC_CmdInitTypeDef  sdmmc_cmdinit;
 1859              		.loc 1 795 0
 1860              		.cfi_startproc
 1861              		@ args = 0, pretend = 0, frame = 24
 1862              		@ frame_needed = 0, uses_anonymous_args = 0
 1863              	.LVL203:
 1864 0000 30B5     		push	{r4, r5, lr}
 1865              	.LCFI41:
 1866              		.cfi_def_cfa_offset 12
 1867              		.cfi_offset 4, -12
 1868              		.cfi_offset 5, -8
 1869              		.cfi_offset 14, -4
 1870 0002 87B0     		sub	sp, sp, #28
 1871              	.LCFI42:
 1872              		.cfi_def_cfa_offset 40
 1873 0004 0546     		mov	r5, r0
 1874              	.LVL204:
 800:Drivers/STM32F7xx_HAL_Driver/Src/stm32f7xx_ll_sdmmc.c ****   sdmmc_cmdinit.CmdIndex         = SDMMC_CMD_SEL_DESEL_CARD;
 1875              		.loc 1 800 0
 1876 0006 0192     		str	r2, [sp, #4]
 801:Drivers/STM32F7xx_HAL_Driver/Src/stm32f7xx_ll_sdmmc.c ****   sdmmc_cmdinit.Response         = SDMMC_RESPONSE_SHORT;
 1877              		.loc 1 801 0
 1878 0008 0724     		movs	r4, #7
 1879 000a 0294     		str	r4, [sp, #8]
 802:Drivers/STM32F7xx_HAL_Driver/Src/stm32f7xx_ll_sdmmc.c ****   sdmmc_cmdinit.WaitForInterrupt = SDMMC_WAIT_NO;
 1880              		.loc 1 802 0
 1881 000c 4023     		movs	r3, #64
 1882 000e 0393     		str	r3, [sp, #12]
 803:Drivers/STM32F7xx_HAL_Driver/Src/stm32f7xx_ll_sdmmc.c ****   sdmmc_cmdinit.CPSM             = SDMMC_CPSM_ENABLE;
 1883              		.loc 1 803 0
 1884 0010 0023     		movs	r3, #0
 1885 0012 0493     		str	r3, [sp, #16]
 804:Drivers/STM32F7xx_HAL_Driver/Src/stm32f7xx_ll_sdmmc.c ****   SDMMC_SendCommand(SDMMCx, &sdmmc_cmdinit);
 1886              		.loc 1 804 0
 1887 0014 4FF48063 		mov	r3, #1024
 1888 0018 0593     		str	r3, [sp, #20]
 805:Drivers/STM32F7xx_HAL_Driver/Src/stm32f7xx_ll_sdmmc.c ****   
 1889              		.loc 1 805 0
 1890 001a 01A9     		add	r1, sp, #4
 1891 001c FFF7FEFF 		bl	SDMMC_SendCommand
 1892              	.LVL205:
 808:Drivers/STM32F7xx_HAL_Driver/Src/stm32f7xx_ll_sdmmc.c **** 
 1893              		.loc 1 808 0
 1894 0020 41F28832 		movw	r2, #5000
 1895 0024 2146     		mov	r1, r4
 1896 0026 2846     		mov	r0, r5
 1897 0028 FFF7FEFF 		bl	SDMMC_GetCmdResp1
 1898              	.LVL206:
 811:Drivers/STM32F7xx_HAL_Driver/Src/stm32f7xx_ll_sdmmc.c **** 
 1899              		.loc 1 811 0
 1900 002c 07B0     		add	sp, sp, #28
 1901              	.LCFI43:
 1902              		.cfi_def_cfa_offset 12
 1903              		@ sp needed
 1904 002e 30BD     		pop	{r4, r5, pc}
ARM GAS  C:\Users\Student\AppData\Local\Temp\ccPRdzQ1.s 			page 64


 1905              		.cfi_endproc
 1906              	.LFE160:
 1908              		.section	.text.SDMMC_CmdGoIdleState,"ax",%progbits
 1909              		.align	1
 1910              		.global	SDMMC_CmdGoIdleState
 1911              		.syntax unified
 1912              		.thumb
 1913              		.thumb_func
 1914              		.fpu fpv5-sp-d16
 1916              	SDMMC_CmdGoIdleState:
 1917              	.LFB161:
 819:Drivers/STM32F7xx_HAL_Driver/Src/stm32f7xx_ll_sdmmc.c ****   SDMMC_CmdInitTypeDef  sdmmc_cmdinit;
 1918              		.loc 1 819 0
 1919              		.cfi_startproc
 1920              		@ args = 0, pretend = 0, frame = 24
 1921              		@ frame_needed = 0, uses_anonymous_args = 0
 1922              	.LVL207:
 1923 0000 10B5     		push	{r4, lr}
 1924              	.LCFI44:
 1925              		.cfi_def_cfa_offset 8
 1926              		.cfi_offset 4, -8
 1927              		.cfi_offset 14, -4
 1928 0002 86B0     		sub	sp, sp, #24
 1929              	.LCFI45:
 1930              		.cfi_def_cfa_offset 32
 1931 0004 0446     		mov	r4, r0
 1932              	.LVL208:
 823:Drivers/STM32F7xx_HAL_Driver/Src/stm32f7xx_ll_sdmmc.c ****   sdmmc_cmdinit.CmdIndex         = SDMMC_CMD_GO_IDLE_STATE;
 1933              		.loc 1 823 0
 1934 0006 0023     		movs	r3, #0
 1935 0008 0193     		str	r3, [sp, #4]
 824:Drivers/STM32F7xx_HAL_Driver/Src/stm32f7xx_ll_sdmmc.c ****   sdmmc_cmdinit.Response         = SDMMC_RESPONSE_NO;
 1936              		.loc 1 824 0
 1937 000a 0293     		str	r3, [sp, #8]
 825:Drivers/STM32F7xx_HAL_Driver/Src/stm32f7xx_ll_sdmmc.c ****   sdmmc_cmdinit.WaitForInterrupt = SDMMC_WAIT_NO;
 1938              		.loc 1 825 0
 1939 000c 0393     		str	r3, [sp, #12]
 826:Drivers/STM32F7xx_HAL_Driver/Src/stm32f7xx_ll_sdmmc.c ****   sdmmc_cmdinit.CPSM             = SDMMC_CPSM_ENABLE;
 1940              		.loc 1 826 0
 1941 000e 0493     		str	r3, [sp, #16]
 827:Drivers/STM32F7xx_HAL_Driver/Src/stm32f7xx_ll_sdmmc.c ****   SDMMC_SendCommand(SDMMCx, &sdmmc_cmdinit);
 1942              		.loc 1 827 0
 1943 0010 4FF48063 		mov	r3, #1024
 1944 0014 0593     		str	r3, [sp, #20]
 828:Drivers/STM32F7xx_HAL_Driver/Src/stm32f7xx_ll_sdmmc.c ****   
 1945              		.loc 1 828 0
 1946 0016 01A9     		add	r1, sp, #4
 1947 0018 FFF7FEFF 		bl	SDMMC_SendCommand
 1948              	.LVL209:
 831:Drivers/STM32F7xx_HAL_Driver/Src/stm32f7xx_ll_sdmmc.c **** 
 1949              		.loc 1 831 0
 1950 001c 2046     		mov	r0, r4
 1951 001e FFF7FEFF 		bl	SDMMC_GetCmdError
 1952              	.LVL210:
 834:Drivers/STM32F7xx_HAL_Driver/Src/stm32f7xx_ll_sdmmc.c **** 
 1953              		.loc 1 834 0
 1954 0022 06B0     		add	sp, sp, #24
ARM GAS  C:\Users\Student\AppData\Local\Temp\ccPRdzQ1.s 			page 65


 1955              	.LCFI46:
 1956              		.cfi_def_cfa_offset 8
 1957              		@ sp needed
 1958 0024 10BD     		pop	{r4, pc}
 1959              		.cfi_endproc
 1960              	.LFE161:
 1962              		.section	.text.SDMMC_CmdOperCond,"ax",%progbits
 1963              		.align	1
 1964              		.global	SDMMC_CmdOperCond
 1965              		.syntax unified
 1966              		.thumb
 1967              		.thumb_func
 1968              		.fpu fpv5-sp-d16
 1970              	SDMMC_CmdOperCond:
 1971              	.LFB162:
 842:Drivers/STM32F7xx_HAL_Driver/Src/stm32f7xx_ll_sdmmc.c ****   SDMMC_CmdInitTypeDef  sdmmc_cmdinit;
 1972              		.loc 1 842 0
 1973              		.cfi_startproc
 1974              		@ args = 0, pretend = 0, frame = 24
 1975              		@ frame_needed = 0, uses_anonymous_args = 0
 1976              	.LVL211:
 1977 0000 10B5     		push	{r4, lr}
 1978              	.LCFI47:
 1979              		.cfi_def_cfa_offset 8
 1980              		.cfi_offset 4, -8
 1981              		.cfi_offset 14, -4
 1982 0002 86B0     		sub	sp, sp, #24
 1983              	.LCFI48:
 1984              		.cfi_def_cfa_offset 32
 1985 0004 0446     		mov	r4, r0
 1986              	.LVL212:
 851:Drivers/STM32F7xx_HAL_Driver/Src/stm32f7xx_ll_sdmmc.c ****   sdmmc_cmdinit.CmdIndex         = SDMMC_CMD_HS_SEND_EXT_CSD;
 1987              		.loc 1 851 0
 1988 0006 4FF4D573 		mov	r3, #426
 1989 000a 0193     		str	r3, [sp, #4]
 852:Drivers/STM32F7xx_HAL_Driver/Src/stm32f7xx_ll_sdmmc.c ****   sdmmc_cmdinit.Response         = SDMMC_RESPONSE_SHORT;
 1990              		.loc 1 852 0
 1991 000c 0823     		movs	r3, #8
 1992 000e 0293     		str	r3, [sp, #8]
 853:Drivers/STM32F7xx_HAL_Driver/Src/stm32f7xx_ll_sdmmc.c ****   sdmmc_cmdinit.WaitForInterrupt = SDMMC_WAIT_NO;
 1993              		.loc 1 853 0
 1994 0010 4023     		movs	r3, #64
 1995 0012 0393     		str	r3, [sp, #12]
 854:Drivers/STM32F7xx_HAL_Driver/Src/stm32f7xx_ll_sdmmc.c ****   sdmmc_cmdinit.CPSM             = SDMMC_CPSM_ENABLE;
 1996              		.loc 1 854 0
 1997 0014 0023     		movs	r3, #0
 1998 0016 0493     		str	r3, [sp, #16]
 855:Drivers/STM32F7xx_HAL_Driver/Src/stm32f7xx_ll_sdmmc.c ****   SDMMC_SendCommand(SDMMCx, &sdmmc_cmdinit);
 1999              		.loc 1 855 0
 2000 0018 4FF48063 		mov	r3, #1024
 2001 001c 0593     		str	r3, [sp, #20]
 856:Drivers/STM32F7xx_HAL_Driver/Src/stm32f7xx_ll_sdmmc.c ****   
 2002              		.loc 1 856 0
 2003 001e 01A9     		add	r1, sp, #4
 2004 0020 FFF7FEFF 		bl	SDMMC_SendCommand
 2005              	.LVL213:
 859:Drivers/STM32F7xx_HAL_Driver/Src/stm32f7xx_ll_sdmmc.c **** 
ARM GAS  C:\Users\Student\AppData\Local\Temp\ccPRdzQ1.s 			page 66


 2006              		.loc 1 859 0
 2007 0024 2046     		mov	r0, r4
 2008 0026 FFF7FEFF 		bl	SDMMC_GetCmdResp7
 2009              	.LVL214:
 862:Drivers/STM32F7xx_HAL_Driver/Src/stm32f7xx_ll_sdmmc.c **** 
 2010              		.loc 1 862 0
 2011 002a 06B0     		add	sp, sp, #24
 2012              	.LCFI49:
 2013              		.cfi_def_cfa_offset 8
 2014              		@ sp needed
 2015 002c 10BD     		pop	{r4, pc}
 2016              		.cfi_endproc
 2017              	.LFE162:
 2019              		.section	.text.SDMMC_CmdAppCommand,"ax",%progbits
 2020              		.align	1
 2021              		.global	SDMMC_CmdAppCommand
 2022              		.syntax unified
 2023              		.thumb
 2024              		.thumb_func
 2025              		.fpu fpv5-sp-d16
 2027              	SDMMC_CmdAppCommand:
 2028              	.LFB163:
 872:Drivers/STM32F7xx_HAL_Driver/Src/stm32f7xx_ll_sdmmc.c ****   SDMMC_CmdInitTypeDef  sdmmc_cmdinit;
 2029              		.loc 1 872 0
 2030              		.cfi_startproc
 2031              		@ args = 0, pretend = 0, frame = 24
 2032              		@ frame_needed = 0, uses_anonymous_args = 0
 2033              	.LVL215:
 2034 0000 30B5     		push	{r4, r5, lr}
 2035              	.LCFI50:
 2036              		.cfi_def_cfa_offset 12
 2037              		.cfi_offset 4, -12
 2038              		.cfi_offset 5, -8
 2039              		.cfi_offset 14, -4
 2040 0002 87B0     		sub	sp, sp, #28
 2041              	.LCFI51:
 2042              		.cfi_def_cfa_offset 40
 2043 0004 0546     		mov	r5, r0
 2044              	.LVL216:
 876:Drivers/STM32F7xx_HAL_Driver/Src/stm32f7xx_ll_sdmmc.c ****   sdmmc_cmdinit.CmdIndex         = SDMMC_CMD_APP_CMD;
 2045              		.loc 1 876 0
 2046 0006 0191     		str	r1, [sp, #4]
 877:Drivers/STM32F7xx_HAL_Driver/Src/stm32f7xx_ll_sdmmc.c ****   sdmmc_cmdinit.Response         = SDMMC_RESPONSE_SHORT;
 2047              		.loc 1 877 0
 2048 0008 3724     		movs	r4, #55
 2049 000a 0294     		str	r4, [sp, #8]
 878:Drivers/STM32F7xx_HAL_Driver/Src/stm32f7xx_ll_sdmmc.c ****   sdmmc_cmdinit.WaitForInterrupt = SDMMC_WAIT_NO;
 2050              		.loc 1 878 0
 2051 000c 4023     		movs	r3, #64
 2052 000e 0393     		str	r3, [sp, #12]
 879:Drivers/STM32F7xx_HAL_Driver/Src/stm32f7xx_ll_sdmmc.c ****   sdmmc_cmdinit.CPSM             = SDMMC_CPSM_ENABLE;
 2053              		.loc 1 879 0
 2054 0010 0023     		movs	r3, #0
 2055 0012 0493     		str	r3, [sp, #16]
 880:Drivers/STM32F7xx_HAL_Driver/Src/stm32f7xx_ll_sdmmc.c ****   SDMMC_SendCommand(SDMMCx, &sdmmc_cmdinit);
 2056              		.loc 1 880 0
 2057 0014 4FF48063 		mov	r3, #1024
ARM GAS  C:\Users\Student\AppData\Local\Temp\ccPRdzQ1.s 			page 67


 2058 0018 0593     		str	r3, [sp, #20]
 881:Drivers/STM32F7xx_HAL_Driver/Src/stm32f7xx_ll_sdmmc.c ****   
 2059              		.loc 1 881 0
 2060 001a 01A9     		add	r1, sp, #4
 2061              	.LVL217:
 2062 001c FFF7FEFF 		bl	SDMMC_SendCommand
 2063              	.LVL218:
 887:Drivers/STM32F7xx_HAL_Driver/Src/stm32f7xx_ll_sdmmc.c **** 
 2064              		.loc 1 887 0
 2065 0020 41F28832 		movw	r2, #5000
 2066 0024 2146     		mov	r1, r4
 2067 0026 2846     		mov	r0, r5
 2068 0028 FFF7FEFF 		bl	SDMMC_GetCmdResp1
 2069              	.LVL219:
 890:Drivers/STM32F7xx_HAL_Driver/Src/stm32f7xx_ll_sdmmc.c **** 
 2070              		.loc 1 890 0
 2071 002c 07B0     		add	sp, sp, #28
 2072              	.LCFI52:
 2073              		.cfi_def_cfa_offset 12
 2074              		@ sp needed
 2075 002e 30BD     		pop	{r4, r5, pc}
 2076              		.cfi_endproc
 2077              	.LFE163:
 2079              		.section	.text.SDMMC_CmdAppOperCommand,"ax",%progbits
 2080              		.align	1
 2081              		.global	SDMMC_CmdAppOperCommand
 2082              		.syntax unified
 2083              		.thumb
 2084              		.thumb_func
 2085              		.fpu fpv5-sp-d16
 2087              	SDMMC_CmdAppOperCommand:
 2088              	.LFB164:
 899:Drivers/STM32F7xx_HAL_Driver/Src/stm32f7xx_ll_sdmmc.c ****   SDMMC_CmdInitTypeDef  sdmmc_cmdinit;
 2089              		.loc 1 899 0
 2090              		.cfi_startproc
 2091              		@ args = 0, pretend = 0, frame = 24
 2092              		@ frame_needed = 0, uses_anonymous_args = 0
 2093              	.LVL220:
 2094 0000 10B5     		push	{r4, lr}
 2095              	.LCFI53:
 2096              		.cfi_def_cfa_offset 8
 2097              		.cfi_offset 4, -8
 2098              		.cfi_offset 14, -4
 2099 0002 86B0     		sub	sp, sp, #24
 2100              	.LCFI54:
 2101              		.cfi_def_cfa_offset 32
 2102 0004 0446     		mov	r4, r0
 2103              	.LVL221:
 903:Drivers/STM32F7xx_HAL_Driver/Src/stm32f7xx_ll_sdmmc.c ****   sdmmc_cmdinit.CmdIndex         = SDMMC_CMD_SD_APP_OP_COND;
 2104              		.loc 1 903 0
 2105 0006 0A4B     		ldr	r3, .L132
 2106 0008 0B43     		orrs	r3, r3, r1
 2107 000a 0193     		str	r3, [sp, #4]
 904:Drivers/STM32F7xx_HAL_Driver/Src/stm32f7xx_ll_sdmmc.c ****   sdmmc_cmdinit.Response         = SDMMC_RESPONSE_SHORT;
 2108              		.loc 1 904 0
 2109 000c 2923     		movs	r3, #41
 2110 000e 0293     		str	r3, [sp, #8]
ARM GAS  C:\Users\Student\AppData\Local\Temp\ccPRdzQ1.s 			page 68


 905:Drivers/STM32F7xx_HAL_Driver/Src/stm32f7xx_ll_sdmmc.c ****   sdmmc_cmdinit.WaitForInterrupt = SDMMC_WAIT_NO;
 2111              		.loc 1 905 0
 2112 0010 4023     		movs	r3, #64
 2113 0012 0393     		str	r3, [sp, #12]
 906:Drivers/STM32F7xx_HAL_Driver/Src/stm32f7xx_ll_sdmmc.c ****   sdmmc_cmdinit.CPSM             = SDMMC_CPSM_ENABLE;
 2114              		.loc 1 906 0
 2115 0014 0023     		movs	r3, #0
 2116 0016 0493     		str	r3, [sp, #16]
 907:Drivers/STM32F7xx_HAL_Driver/Src/stm32f7xx_ll_sdmmc.c ****   SDMMC_SendCommand(SDMMCx, &sdmmc_cmdinit);
 2117              		.loc 1 907 0
 2118 0018 4FF48063 		mov	r3, #1024
 2119 001c 0593     		str	r3, [sp, #20]
 908:Drivers/STM32F7xx_HAL_Driver/Src/stm32f7xx_ll_sdmmc.c ****   
 2120              		.loc 1 908 0
 2121 001e 01A9     		add	r1, sp, #4
 2122              	.LVL222:
 2123 0020 FFF7FEFF 		bl	SDMMC_SendCommand
 2124              	.LVL223:
 911:Drivers/STM32F7xx_HAL_Driver/Src/stm32f7xx_ll_sdmmc.c **** 
 2125              		.loc 1 911 0
 2126 0024 2046     		mov	r0, r4
 2127 0026 FFF7FEFF 		bl	SDMMC_GetCmdResp3
 2128              	.LVL224:
 914:Drivers/STM32F7xx_HAL_Driver/Src/stm32f7xx_ll_sdmmc.c **** 
 2129              		.loc 1 914 0
 2130 002a 06B0     		add	sp, sp, #24
 2131              	.LCFI55:
 2132              		.cfi_def_cfa_offset 8
 2133              		@ sp needed
 2134 002c 10BD     		pop	{r4, pc}
 2135              	.LVL225:
 2136              	.L133:
 2137 002e 00BF     		.align	2
 2138              	.L132:
 2139 0030 00001080 		.word	-2146435072
 2140              		.cfi_endproc
 2141              	.LFE164:
 2143              		.section	.text.SDMMC_CmdBusWidth,"ax",%progbits
 2144              		.align	1
 2145              		.global	SDMMC_CmdBusWidth
 2146              		.syntax unified
 2147              		.thumb
 2148              		.thumb_func
 2149              		.fpu fpv5-sp-d16
 2151              	SDMMC_CmdBusWidth:
 2152              	.LFB165:
 922:Drivers/STM32F7xx_HAL_Driver/Src/stm32f7xx_ll_sdmmc.c ****   SDMMC_CmdInitTypeDef  sdmmc_cmdinit;
 2153              		.loc 1 922 0
 2154              		.cfi_startproc
 2155              		@ args = 0, pretend = 0, frame = 24
 2156              		@ frame_needed = 0, uses_anonymous_args = 0
 2157              	.LVL226:
 2158 0000 30B5     		push	{r4, r5, lr}
 2159              	.LCFI56:
 2160              		.cfi_def_cfa_offset 12
 2161              		.cfi_offset 4, -12
 2162              		.cfi_offset 5, -8
ARM GAS  C:\Users\Student\AppData\Local\Temp\ccPRdzQ1.s 			page 69


 2163              		.cfi_offset 14, -4
 2164 0002 87B0     		sub	sp, sp, #28
 2165              	.LCFI57:
 2166              		.cfi_def_cfa_offset 40
 2167 0004 0546     		mov	r5, r0
 2168              	.LVL227:
 926:Drivers/STM32F7xx_HAL_Driver/Src/stm32f7xx_ll_sdmmc.c ****   sdmmc_cmdinit.CmdIndex         = SDMMC_CMD_APP_SD_SET_BUSWIDTH;
 2169              		.loc 1 926 0
 2170 0006 0191     		str	r1, [sp, #4]
 927:Drivers/STM32F7xx_HAL_Driver/Src/stm32f7xx_ll_sdmmc.c ****   sdmmc_cmdinit.Response         = SDMMC_RESPONSE_SHORT;
 2171              		.loc 1 927 0
 2172 0008 0624     		movs	r4, #6
 2173 000a 0294     		str	r4, [sp, #8]
 928:Drivers/STM32F7xx_HAL_Driver/Src/stm32f7xx_ll_sdmmc.c ****   sdmmc_cmdinit.WaitForInterrupt = SDMMC_WAIT_NO;
 2174              		.loc 1 928 0
 2175 000c 4023     		movs	r3, #64
 2176 000e 0393     		str	r3, [sp, #12]
 929:Drivers/STM32F7xx_HAL_Driver/Src/stm32f7xx_ll_sdmmc.c ****   sdmmc_cmdinit.CPSM             = SDMMC_CPSM_ENABLE;
 2177              		.loc 1 929 0
 2178 0010 0023     		movs	r3, #0
 2179 0012 0493     		str	r3, [sp, #16]
 930:Drivers/STM32F7xx_HAL_Driver/Src/stm32f7xx_ll_sdmmc.c ****   SDMMC_SendCommand(SDMMCx, &sdmmc_cmdinit);
 2180              		.loc 1 930 0
 2181 0014 4FF48063 		mov	r3, #1024
 2182 0018 0593     		str	r3, [sp, #20]
 931:Drivers/STM32F7xx_HAL_Driver/Src/stm32f7xx_ll_sdmmc.c ****   
 2183              		.loc 1 931 0
 2184 001a 01A9     		add	r1, sp, #4
 2185              	.LVL228:
 2186 001c FFF7FEFF 		bl	SDMMC_SendCommand
 2187              	.LVL229:
 934:Drivers/STM32F7xx_HAL_Driver/Src/stm32f7xx_ll_sdmmc.c **** 
 2188              		.loc 1 934 0
 2189 0020 41F28832 		movw	r2, #5000
 2190 0024 2146     		mov	r1, r4
 2191 0026 2846     		mov	r0, r5
 2192 0028 FFF7FEFF 		bl	SDMMC_GetCmdResp1
 2193              	.LVL230:
 937:Drivers/STM32F7xx_HAL_Driver/Src/stm32f7xx_ll_sdmmc.c **** 
 2194              		.loc 1 937 0
 2195 002c 07B0     		add	sp, sp, #28
 2196              	.LCFI58:
 2197              		.cfi_def_cfa_offset 12
 2198              		@ sp needed
 2199 002e 30BD     		pop	{r4, r5, pc}
 2200              		.cfi_endproc
 2201              	.LFE165:
 2203              		.section	.text.SDMMC_CmdSendSCR,"ax",%progbits
 2204              		.align	1
 2205              		.global	SDMMC_CmdSendSCR
 2206              		.syntax unified
 2207              		.thumb
 2208              		.thumb_func
 2209              		.fpu fpv5-sp-d16
 2211              	SDMMC_CmdSendSCR:
 2212              	.LFB166:
 945:Drivers/STM32F7xx_HAL_Driver/Src/stm32f7xx_ll_sdmmc.c ****   SDMMC_CmdInitTypeDef  sdmmc_cmdinit;
ARM GAS  C:\Users\Student\AppData\Local\Temp\ccPRdzQ1.s 			page 70


 2213              		.loc 1 945 0
 2214              		.cfi_startproc
 2215              		@ args = 0, pretend = 0, frame = 24
 2216              		@ frame_needed = 0, uses_anonymous_args = 0
 2217              	.LVL231:
 2218 0000 30B5     		push	{r4, r5, lr}
 2219              	.LCFI59:
 2220              		.cfi_def_cfa_offset 12
 2221              		.cfi_offset 4, -12
 2222              		.cfi_offset 5, -8
 2223              		.cfi_offset 14, -4
 2224 0002 87B0     		sub	sp, sp, #28
 2225              	.LCFI60:
 2226              		.cfi_def_cfa_offset 40
 2227 0004 0546     		mov	r5, r0
 2228              	.LVL232:
 950:Drivers/STM32F7xx_HAL_Driver/Src/stm32f7xx_ll_sdmmc.c ****   sdmmc_cmdinit.CmdIndex         = SDMMC_CMD_SD_APP_SEND_SCR;
 2229              		.loc 1 950 0
 2230 0006 0023     		movs	r3, #0
 2231 0008 0193     		str	r3, [sp, #4]
 951:Drivers/STM32F7xx_HAL_Driver/Src/stm32f7xx_ll_sdmmc.c ****   sdmmc_cmdinit.Response         = SDMMC_RESPONSE_SHORT;
 2232              		.loc 1 951 0
 2233 000a 3324     		movs	r4, #51
 2234 000c 0294     		str	r4, [sp, #8]
 952:Drivers/STM32F7xx_HAL_Driver/Src/stm32f7xx_ll_sdmmc.c ****   sdmmc_cmdinit.WaitForInterrupt = SDMMC_WAIT_NO;
 2235              		.loc 1 952 0
 2236 000e 4022     		movs	r2, #64
 2237 0010 0392     		str	r2, [sp, #12]
 953:Drivers/STM32F7xx_HAL_Driver/Src/stm32f7xx_ll_sdmmc.c ****   sdmmc_cmdinit.CPSM             = SDMMC_CPSM_ENABLE;
 2238              		.loc 1 953 0
 2239 0012 0493     		str	r3, [sp, #16]
 954:Drivers/STM32F7xx_HAL_Driver/Src/stm32f7xx_ll_sdmmc.c ****   SDMMC_SendCommand(SDMMCx, &sdmmc_cmdinit);
 2240              		.loc 1 954 0
 2241 0014 4FF48063 		mov	r3, #1024
 2242 0018 0593     		str	r3, [sp, #20]
 955:Drivers/STM32F7xx_HAL_Driver/Src/stm32f7xx_ll_sdmmc.c ****   
 2243              		.loc 1 955 0
 2244 001a 01A9     		add	r1, sp, #4
 2245 001c FFF7FEFF 		bl	SDMMC_SendCommand
 2246              	.LVL233:
 958:Drivers/STM32F7xx_HAL_Driver/Src/stm32f7xx_ll_sdmmc.c **** 
 2247              		.loc 1 958 0
 2248 0020 41F28832 		movw	r2, #5000
 2249 0024 2146     		mov	r1, r4
 2250 0026 2846     		mov	r0, r5
 2251 0028 FFF7FEFF 		bl	SDMMC_GetCmdResp1
 2252              	.LVL234:
 961:Drivers/STM32F7xx_HAL_Driver/Src/stm32f7xx_ll_sdmmc.c **** 
 2253              		.loc 1 961 0
 2254 002c 07B0     		add	sp, sp, #28
 2255              	.LCFI61:
 2256              		.cfi_def_cfa_offset 12
 2257              		@ sp needed
 2258 002e 30BD     		pop	{r4, r5, pc}
 2259              		.cfi_endproc
 2260              	.LFE166:
 2262              		.section	.text.SDMMC_CmdSendCID,"ax",%progbits
ARM GAS  C:\Users\Student\AppData\Local\Temp\ccPRdzQ1.s 			page 71


 2263              		.align	1
 2264              		.global	SDMMC_CmdSendCID
 2265              		.syntax unified
 2266              		.thumb
 2267              		.thumb_func
 2268              		.fpu fpv5-sp-d16
 2270              	SDMMC_CmdSendCID:
 2271              	.LFB167:
 969:Drivers/STM32F7xx_HAL_Driver/Src/stm32f7xx_ll_sdmmc.c ****   SDMMC_CmdInitTypeDef  sdmmc_cmdinit;
 2272              		.loc 1 969 0
 2273              		.cfi_startproc
 2274              		@ args = 0, pretend = 0, frame = 24
 2275              		@ frame_needed = 0, uses_anonymous_args = 0
 2276              	.LVL235:
 2277 0000 10B5     		push	{r4, lr}
 2278              	.LCFI62:
 2279              		.cfi_def_cfa_offset 8
 2280              		.cfi_offset 4, -8
 2281              		.cfi_offset 14, -4
 2282 0002 86B0     		sub	sp, sp, #24
 2283              	.LCFI63:
 2284              		.cfi_def_cfa_offset 32
 2285 0004 0446     		mov	r4, r0
 2286              	.LVL236:
 974:Drivers/STM32F7xx_HAL_Driver/Src/stm32f7xx_ll_sdmmc.c ****   sdmmc_cmdinit.CmdIndex         = SDMMC_CMD_ALL_SEND_CID;
 2287              		.loc 1 974 0
 2288 0006 0023     		movs	r3, #0
 2289 0008 0193     		str	r3, [sp, #4]
 975:Drivers/STM32F7xx_HAL_Driver/Src/stm32f7xx_ll_sdmmc.c ****   sdmmc_cmdinit.Response         = SDMMC_RESPONSE_LONG;
 2290              		.loc 1 975 0
 2291 000a 0222     		movs	r2, #2
 2292 000c 0292     		str	r2, [sp, #8]
 976:Drivers/STM32F7xx_HAL_Driver/Src/stm32f7xx_ll_sdmmc.c ****   sdmmc_cmdinit.WaitForInterrupt = SDMMC_WAIT_NO;
 2293              		.loc 1 976 0
 2294 000e C022     		movs	r2, #192
 2295 0010 0392     		str	r2, [sp, #12]
 977:Drivers/STM32F7xx_HAL_Driver/Src/stm32f7xx_ll_sdmmc.c ****   sdmmc_cmdinit.CPSM             = SDMMC_CPSM_ENABLE;
 2296              		.loc 1 977 0
 2297 0012 0493     		str	r3, [sp, #16]
 978:Drivers/STM32F7xx_HAL_Driver/Src/stm32f7xx_ll_sdmmc.c ****   SDMMC_SendCommand(SDMMCx, &sdmmc_cmdinit);
 2298              		.loc 1 978 0
 2299 0014 4FF48063 		mov	r3, #1024
 2300 0018 0593     		str	r3, [sp, #20]
 979:Drivers/STM32F7xx_HAL_Driver/Src/stm32f7xx_ll_sdmmc.c ****   
 2301              		.loc 1 979 0
 2302 001a 01A9     		add	r1, sp, #4
 2303 001c FFF7FEFF 		bl	SDMMC_SendCommand
 2304              	.LVL237:
 982:Drivers/STM32F7xx_HAL_Driver/Src/stm32f7xx_ll_sdmmc.c **** 
 2305              		.loc 1 982 0
 2306 0020 2046     		mov	r0, r4
 2307 0022 FFF7FEFF 		bl	SDMMC_GetCmdResp2
 2308              	.LVL238:
 985:Drivers/STM32F7xx_HAL_Driver/Src/stm32f7xx_ll_sdmmc.c **** 
 2309              		.loc 1 985 0
 2310 0026 06B0     		add	sp, sp, #24
 2311              	.LCFI64:
ARM GAS  C:\Users\Student\AppData\Local\Temp\ccPRdzQ1.s 			page 72


 2312              		.cfi_def_cfa_offset 8
 2313              		@ sp needed
 2314 0028 10BD     		pop	{r4, pc}
 2315              		.cfi_endproc
 2316              	.LFE167:
 2318              		.section	.text.SDMMC_CmdSendCSD,"ax",%progbits
 2319              		.align	1
 2320              		.global	SDMMC_CmdSendCSD
 2321              		.syntax unified
 2322              		.thumb
 2323              		.thumb_func
 2324              		.fpu fpv5-sp-d16
 2326              	SDMMC_CmdSendCSD:
 2327              	.LFB168:
 993:Drivers/STM32F7xx_HAL_Driver/Src/stm32f7xx_ll_sdmmc.c ****   SDMMC_CmdInitTypeDef  sdmmc_cmdinit;
 2328              		.loc 1 993 0
 2329              		.cfi_startproc
 2330              		@ args = 0, pretend = 0, frame = 24
 2331              		@ frame_needed = 0, uses_anonymous_args = 0
 2332              	.LVL239:
 2333 0000 10B5     		push	{r4, lr}
 2334              	.LCFI65:
 2335              		.cfi_def_cfa_offset 8
 2336              		.cfi_offset 4, -8
 2337              		.cfi_offset 14, -4
 2338 0002 86B0     		sub	sp, sp, #24
 2339              	.LCFI66:
 2340              		.cfi_def_cfa_offset 32
 2341 0004 0446     		mov	r4, r0
 2342              	.LVL240:
 998:Drivers/STM32F7xx_HAL_Driver/Src/stm32f7xx_ll_sdmmc.c ****   sdmmc_cmdinit.CmdIndex         = SDMMC_CMD_SEND_CSD;
 2343              		.loc 1 998 0
 2344 0006 0191     		str	r1, [sp, #4]
 999:Drivers/STM32F7xx_HAL_Driver/Src/stm32f7xx_ll_sdmmc.c ****   sdmmc_cmdinit.Response         = SDMMC_RESPONSE_LONG;
 2345              		.loc 1 999 0
 2346 0008 0923     		movs	r3, #9
 2347 000a 0293     		str	r3, [sp, #8]
1000:Drivers/STM32F7xx_HAL_Driver/Src/stm32f7xx_ll_sdmmc.c ****   sdmmc_cmdinit.WaitForInterrupt = SDMMC_WAIT_NO;
 2348              		.loc 1 1000 0
 2349 000c C023     		movs	r3, #192
 2350 000e 0393     		str	r3, [sp, #12]
1001:Drivers/STM32F7xx_HAL_Driver/Src/stm32f7xx_ll_sdmmc.c ****   sdmmc_cmdinit.CPSM             = SDMMC_CPSM_ENABLE;
 2351              		.loc 1 1001 0
 2352 0010 0023     		movs	r3, #0
 2353 0012 0493     		str	r3, [sp, #16]
1002:Drivers/STM32F7xx_HAL_Driver/Src/stm32f7xx_ll_sdmmc.c ****   SDMMC_SendCommand(SDMMCx, &sdmmc_cmdinit);
 2354              		.loc 1 1002 0
 2355 0014 4FF48063 		mov	r3, #1024
 2356 0018 0593     		str	r3, [sp, #20]
1003:Drivers/STM32F7xx_HAL_Driver/Src/stm32f7xx_ll_sdmmc.c ****   
 2357              		.loc 1 1003 0
 2358 001a 01A9     		add	r1, sp, #4
 2359              	.LVL241:
 2360 001c FFF7FEFF 		bl	SDMMC_SendCommand
 2361              	.LVL242:
1006:Drivers/STM32F7xx_HAL_Driver/Src/stm32f7xx_ll_sdmmc.c **** 
 2362              		.loc 1 1006 0
ARM GAS  C:\Users\Student\AppData\Local\Temp\ccPRdzQ1.s 			page 73


 2363 0020 2046     		mov	r0, r4
 2364 0022 FFF7FEFF 		bl	SDMMC_GetCmdResp2
 2365              	.LVL243:
1009:Drivers/STM32F7xx_HAL_Driver/Src/stm32f7xx_ll_sdmmc.c **** 
 2366              		.loc 1 1009 0
 2367 0026 06B0     		add	sp, sp, #24
 2368              	.LCFI67:
 2369              		.cfi_def_cfa_offset 8
 2370              		@ sp needed
 2371 0028 10BD     		pop	{r4, pc}
 2372              		.cfi_endproc
 2373              	.LFE168:
 2375              		.section	.text.SDMMC_CmdSetRelAdd,"ax",%progbits
 2376              		.align	1
 2377              		.global	SDMMC_CmdSetRelAdd
 2378              		.syntax unified
 2379              		.thumb
 2380              		.thumb_func
 2381              		.fpu fpv5-sp-d16
 2383              	SDMMC_CmdSetRelAdd:
 2384              	.LFB169:
1017:Drivers/STM32F7xx_HAL_Driver/Src/stm32f7xx_ll_sdmmc.c ****   SDMMC_CmdInitTypeDef  sdmmc_cmdinit;
 2385              		.loc 1 1017 0
 2386              		.cfi_startproc
 2387              		@ args = 0, pretend = 0, frame = 24
 2388              		@ frame_needed = 0, uses_anonymous_args = 0
 2389              	.LVL244:
 2390 0000 70B5     		push	{r4, r5, r6, lr}
 2391              	.LCFI68:
 2392              		.cfi_def_cfa_offset 16
 2393              		.cfi_offset 4, -16
 2394              		.cfi_offset 5, -12
 2395              		.cfi_offset 6, -8
 2396              		.cfi_offset 14, -4
 2397 0002 86B0     		sub	sp, sp, #24
 2398              	.LCFI69:
 2399              		.cfi_def_cfa_offset 40
 2400 0004 0546     		mov	r5, r0
 2401 0006 0E46     		mov	r6, r1
 2402              	.LVL245:
1022:Drivers/STM32F7xx_HAL_Driver/Src/stm32f7xx_ll_sdmmc.c ****   sdmmc_cmdinit.CmdIndex         = SDMMC_CMD_SET_REL_ADDR;
 2403              		.loc 1 1022 0
 2404 0008 0023     		movs	r3, #0
 2405 000a 0193     		str	r3, [sp, #4]
1023:Drivers/STM32F7xx_HAL_Driver/Src/stm32f7xx_ll_sdmmc.c ****   sdmmc_cmdinit.Response         = SDMMC_RESPONSE_SHORT;
 2406              		.loc 1 1023 0
 2407 000c 0324     		movs	r4, #3
 2408 000e 0294     		str	r4, [sp, #8]
1024:Drivers/STM32F7xx_HAL_Driver/Src/stm32f7xx_ll_sdmmc.c ****   sdmmc_cmdinit.WaitForInterrupt = SDMMC_WAIT_NO;
 2409              		.loc 1 1024 0
 2410 0010 4022     		movs	r2, #64
 2411 0012 0392     		str	r2, [sp, #12]
1025:Drivers/STM32F7xx_HAL_Driver/Src/stm32f7xx_ll_sdmmc.c ****   sdmmc_cmdinit.CPSM             = SDMMC_CPSM_ENABLE;
 2412              		.loc 1 1025 0
 2413 0014 0493     		str	r3, [sp, #16]
1026:Drivers/STM32F7xx_HAL_Driver/Src/stm32f7xx_ll_sdmmc.c ****   SDMMC_SendCommand(SDMMCx, &sdmmc_cmdinit);
 2414              		.loc 1 1026 0
ARM GAS  C:\Users\Student\AppData\Local\Temp\ccPRdzQ1.s 			page 74


 2415 0016 4FF48063 		mov	r3, #1024
 2416 001a 0593     		str	r3, [sp, #20]
1027:Drivers/STM32F7xx_HAL_Driver/Src/stm32f7xx_ll_sdmmc.c ****   
 2417              		.loc 1 1027 0
 2418 001c 01A9     		add	r1, sp, #4
 2419              	.LVL246:
 2420 001e FFF7FEFF 		bl	SDMMC_SendCommand
 2421              	.LVL247:
1030:Drivers/STM32F7xx_HAL_Driver/Src/stm32f7xx_ll_sdmmc.c **** 
 2422              		.loc 1 1030 0
 2423 0022 3246     		mov	r2, r6
 2424 0024 2146     		mov	r1, r4
 2425 0026 2846     		mov	r0, r5
 2426 0028 FFF7FEFF 		bl	SDMMC_GetCmdResp6
 2427              	.LVL248:
1033:Drivers/STM32F7xx_HAL_Driver/Src/stm32f7xx_ll_sdmmc.c **** 
 2428              		.loc 1 1033 0
 2429 002c 06B0     		add	sp, sp, #24
 2430              	.LCFI70:
 2431              		.cfi_def_cfa_offset 16
 2432              		@ sp needed
 2433 002e 70BD     		pop	{r4, r5, r6, pc}
 2434              		.cfi_endproc
 2435              	.LFE169:
 2437              		.section	.text.SDMMC_CmdSendStatus,"ax",%progbits
 2438              		.align	1
 2439              		.global	SDMMC_CmdSendStatus
 2440              		.syntax unified
 2441              		.thumb
 2442              		.thumb_func
 2443              		.fpu fpv5-sp-d16
 2445              	SDMMC_CmdSendStatus:
 2446              	.LFB170:
1041:Drivers/STM32F7xx_HAL_Driver/Src/stm32f7xx_ll_sdmmc.c ****   SDMMC_CmdInitTypeDef  sdmmc_cmdinit;
 2447              		.loc 1 1041 0
 2448              		.cfi_startproc
 2449              		@ args = 0, pretend = 0, frame = 24
 2450              		@ frame_needed = 0, uses_anonymous_args = 0
 2451              	.LVL249:
 2452 0000 30B5     		push	{r4, r5, lr}
 2453              	.LCFI71:
 2454              		.cfi_def_cfa_offset 12
 2455              		.cfi_offset 4, -12
 2456              		.cfi_offset 5, -8
 2457              		.cfi_offset 14, -4
 2458 0002 87B0     		sub	sp, sp, #28
 2459              	.LCFI72:
 2460              		.cfi_def_cfa_offset 40
 2461 0004 0546     		mov	r5, r0
 2462              	.LVL250:
1045:Drivers/STM32F7xx_HAL_Driver/Src/stm32f7xx_ll_sdmmc.c ****   sdmmc_cmdinit.CmdIndex         = SDMMC_CMD_SEND_STATUS;
 2463              		.loc 1 1045 0
 2464 0006 0191     		str	r1, [sp, #4]
1046:Drivers/STM32F7xx_HAL_Driver/Src/stm32f7xx_ll_sdmmc.c ****   sdmmc_cmdinit.Response         = SDMMC_RESPONSE_SHORT;
 2465              		.loc 1 1046 0
 2466 0008 0D24     		movs	r4, #13
 2467 000a 0294     		str	r4, [sp, #8]
ARM GAS  C:\Users\Student\AppData\Local\Temp\ccPRdzQ1.s 			page 75


1047:Drivers/STM32F7xx_HAL_Driver/Src/stm32f7xx_ll_sdmmc.c ****   sdmmc_cmdinit.WaitForInterrupt = SDMMC_WAIT_NO;
 2468              		.loc 1 1047 0
 2469 000c 4023     		movs	r3, #64
 2470 000e 0393     		str	r3, [sp, #12]
1048:Drivers/STM32F7xx_HAL_Driver/Src/stm32f7xx_ll_sdmmc.c ****   sdmmc_cmdinit.CPSM             = SDMMC_CPSM_ENABLE;
 2471              		.loc 1 1048 0
 2472 0010 0023     		movs	r3, #0
 2473 0012 0493     		str	r3, [sp, #16]
1049:Drivers/STM32F7xx_HAL_Driver/Src/stm32f7xx_ll_sdmmc.c ****   SDMMC_SendCommand(SDMMCx, &sdmmc_cmdinit);
 2474              		.loc 1 1049 0
 2475 0014 4FF48063 		mov	r3, #1024
 2476 0018 0593     		str	r3, [sp, #20]
1050:Drivers/STM32F7xx_HAL_Driver/Src/stm32f7xx_ll_sdmmc.c ****   
 2477              		.loc 1 1050 0
 2478 001a 01A9     		add	r1, sp, #4
 2479              	.LVL251:
 2480 001c FFF7FEFF 		bl	SDMMC_SendCommand
 2481              	.LVL252:
1053:Drivers/STM32F7xx_HAL_Driver/Src/stm32f7xx_ll_sdmmc.c **** 
 2482              		.loc 1 1053 0
 2483 0020 41F28832 		movw	r2, #5000
 2484 0024 2146     		mov	r1, r4
 2485 0026 2846     		mov	r0, r5
 2486 0028 FFF7FEFF 		bl	SDMMC_GetCmdResp1
 2487              	.LVL253:
1056:Drivers/STM32F7xx_HAL_Driver/Src/stm32f7xx_ll_sdmmc.c **** 
 2488              		.loc 1 1056 0
 2489 002c 07B0     		add	sp, sp, #28
 2490              	.LCFI73:
 2491              		.cfi_def_cfa_offset 12
 2492              		@ sp needed
 2493 002e 30BD     		pop	{r4, r5, pc}
 2494              		.cfi_endproc
 2495              	.LFE170:
 2497              		.section	.text.SDMMC_CmdStatusRegister,"ax",%progbits
 2498              		.align	1
 2499              		.global	SDMMC_CmdStatusRegister
 2500              		.syntax unified
 2501              		.thumb
 2502              		.thumb_func
 2503              		.fpu fpv5-sp-d16
 2505              	SDMMC_CmdStatusRegister:
 2506              	.LFB171:
1064:Drivers/STM32F7xx_HAL_Driver/Src/stm32f7xx_ll_sdmmc.c ****   SDMMC_CmdInitTypeDef  sdmmc_cmdinit;
 2507              		.loc 1 1064 0
 2508              		.cfi_startproc
 2509              		@ args = 0, pretend = 0, frame = 24
 2510              		@ frame_needed = 0, uses_anonymous_args = 0
 2511              	.LVL254:
 2512 0000 30B5     		push	{r4, r5, lr}
 2513              	.LCFI74:
 2514              		.cfi_def_cfa_offset 12
 2515              		.cfi_offset 4, -12
 2516              		.cfi_offset 5, -8
 2517              		.cfi_offset 14, -4
 2518 0002 87B0     		sub	sp, sp, #28
 2519              	.LCFI75:
ARM GAS  C:\Users\Student\AppData\Local\Temp\ccPRdzQ1.s 			page 76


 2520              		.cfi_def_cfa_offset 40
 2521 0004 0546     		mov	r5, r0
 2522              	.LVL255:
1068:Drivers/STM32F7xx_HAL_Driver/Src/stm32f7xx_ll_sdmmc.c ****   sdmmc_cmdinit.CmdIndex         = SDMMC_CMD_SD_APP_STATUS;
 2523              		.loc 1 1068 0
 2524 0006 0023     		movs	r3, #0
 2525 0008 0193     		str	r3, [sp, #4]
1069:Drivers/STM32F7xx_HAL_Driver/Src/stm32f7xx_ll_sdmmc.c ****   sdmmc_cmdinit.Response         = SDMMC_RESPONSE_SHORT;
 2526              		.loc 1 1069 0
 2527 000a 0D24     		movs	r4, #13
 2528 000c 0294     		str	r4, [sp, #8]
1070:Drivers/STM32F7xx_HAL_Driver/Src/stm32f7xx_ll_sdmmc.c ****   sdmmc_cmdinit.WaitForInterrupt = SDMMC_WAIT_NO;
 2529              		.loc 1 1070 0
 2530 000e 4022     		movs	r2, #64
 2531 0010 0392     		str	r2, [sp, #12]
1071:Drivers/STM32F7xx_HAL_Driver/Src/stm32f7xx_ll_sdmmc.c ****   sdmmc_cmdinit.CPSM             = SDMMC_CPSM_ENABLE;
 2532              		.loc 1 1071 0
 2533 0012 0493     		str	r3, [sp, #16]
1072:Drivers/STM32F7xx_HAL_Driver/Src/stm32f7xx_ll_sdmmc.c ****   SDMMC_SendCommand(SDMMCx, &sdmmc_cmdinit);
 2534              		.loc 1 1072 0
 2535 0014 4FF48063 		mov	r3, #1024
 2536 0018 0593     		str	r3, [sp, #20]
1073:Drivers/STM32F7xx_HAL_Driver/Src/stm32f7xx_ll_sdmmc.c ****   
 2537              		.loc 1 1073 0
 2538 001a 01A9     		add	r1, sp, #4
 2539 001c FFF7FEFF 		bl	SDMMC_SendCommand
 2540              	.LVL256:
1076:Drivers/STM32F7xx_HAL_Driver/Src/stm32f7xx_ll_sdmmc.c **** 
 2541              		.loc 1 1076 0
 2542 0020 41F28832 		movw	r2, #5000
 2543 0024 2146     		mov	r1, r4
 2544 0026 2846     		mov	r0, r5
 2545 0028 FFF7FEFF 		bl	SDMMC_GetCmdResp1
 2546              	.LVL257:
1079:Drivers/STM32F7xx_HAL_Driver/Src/stm32f7xx_ll_sdmmc.c **** 
 2547              		.loc 1 1079 0
 2548 002c 07B0     		add	sp, sp, #28
 2549              	.LCFI76:
 2550              		.cfi_def_cfa_offset 12
 2551              		@ sp needed
 2552 002e 30BD     		pop	{r4, r5, pc}
 2553              		.cfi_endproc
 2554              	.LFE171:
 2556              		.section	.text.SDMMC_CmdOpCondition,"ax",%progbits
 2557              		.align	1
 2558              		.global	SDMMC_CmdOpCondition
 2559              		.syntax unified
 2560              		.thumb
 2561              		.thumb_func
 2562              		.fpu fpv5-sp-d16
 2564              	SDMMC_CmdOpCondition:
 2565              	.LFB172:
1089:Drivers/STM32F7xx_HAL_Driver/Src/stm32f7xx_ll_sdmmc.c ****   SDMMC_CmdInitTypeDef  sdmmc_cmdinit;
 2566              		.loc 1 1089 0
 2567              		.cfi_startproc
 2568              		@ args = 0, pretend = 0, frame = 24
 2569              		@ frame_needed = 0, uses_anonymous_args = 0
ARM GAS  C:\Users\Student\AppData\Local\Temp\ccPRdzQ1.s 			page 77


 2570              	.LVL258:
 2571 0000 10B5     		push	{r4, lr}
 2572              	.LCFI77:
 2573              		.cfi_def_cfa_offset 8
 2574              		.cfi_offset 4, -8
 2575              		.cfi_offset 14, -4
 2576 0002 86B0     		sub	sp, sp, #24
 2577              	.LCFI78:
 2578              		.cfi_def_cfa_offset 32
 2579 0004 0446     		mov	r4, r0
 2580              	.LVL259:
1093:Drivers/STM32F7xx_HAL_Driver/Src/stm32f7xx_ll_sdmmc.c ****   sdmmc_cmdinit.CmdIndex         = SDMMC_CMD_SEND_OP_COND;
 2581              		.loc 1 1093 0
 2582 0006 0191     		str	r1, [sp, #4]
1094:Drivers/STM32F7xx_HAL_Driver/Src/stm32f7xx_ll_sdmmc.c ****   sdmmc_cmdinit.Response         = SDMMC_RESPONSE_SHORT;
 2583              		.loc 1 1094 0
 2584 0008 0123     		movs	r3, #1
 2585 000a 0293     		str	r3, [sp, #8]
1095:Drivers/STM32F7xx_HAL_Driver/Src/stm32f7xx_ll_sdmmc.c ****   sdmmc_cmdinit.WaitForInterrupt = SDMMC_WAIT_NO;
 2586              		.loc 1 1095 0
 2587 000c 4023     		movs	r3, #64
 2588 000e 0393     		str	r3, [sp, #12]
1096:Drivers/STM32F7xx_HAL_Driver/Src/stm32f7xx_ll_sdmmc.c ****   sdmmc_cmdinit.CPSM             = SDMMC_CPSM_ENABLE;
 2589              		.loc 1 1096 0
 2590 0010 0023     		movs	r3, #0
 2591 0012 0493     		str	r3, [sp, #16]
1097:Drivers/STM32F7xx_HAL_Driver/Src/stm32f7xx_ll_sdmmc.c ****   SDMMC_SendCommand(SDMMCx, &sdmmc_cmdinit);
 2592              		.loc 1 1097 0
 2593 0014 4FF48063 		mov	r3, #1024
 2594 0018 0593     		str	r3, [sp, #20]
1098:Drivers/STM32F7xx_HAL_Driver/Src/stm32f7xx_ll_sdmmc.c ****   
 2595              		.loc 1 1098 0
 2596 001a 01A9     		add	r1, sp, #4
 2597              	.LVL260:
 2598 001c FFF7FEFF 		bl	SDMMC_SendCommand
 2599              	.LVL261:
1101:Drivers/STM32F7xx_HAL_Driver/Src/stm32f7xx_ll_sdmmc.c **** 
 2600              		.loc 1 1101 0
 2601 0020 2046     		mov	r0, r4
 2602 0022 FFF7FEFF 		bl	SDMMC_GetCmdResp3
 2603              	.LVL262:
1104:Drivers/STM32F7xx_HAL_Driver/Src/stm32f7xx_ll_sdmmc.c **** 
 2604              		.loc 1 1104 0
 2605 0026 06B0     		add	sp, sp, #24
 2606              	.LCFI79:
 2607              		.cfi_def_cfa_offset 8
 2608              		@ sp needed
 2609 0028 10BD     		pop	{r4, pc}
 2610              		.cfi_endproc
 2611              	.LFE172:
 2613              		.section	.text.SDMMC_CmdSwitch,"ax",%progbits
 2614              		.align	1
 2615              		.global	SDMMC_CmdSwitch
 2616              		.syntax unified
 2617              		.thumb
 2618              		.thumb_func
 2619              		.fpu fpv5-sp-d16
ARM GAS  C:\Users\Student\AppData\Local\Temp\ccPRdzQ1.s 			page 78


 2621              	SDMMC_CmdSwitch:
 2622              	.LFB173:
1113:Drivers/STM32F7xx_HAL_Driver/Src/stm32f7xx_ll_sdmmc.c ****   SDMMC_CmdInitTypeDef  sdmmc_cmdinit;
 2623              		.loc 1 1113 0
 2624              		.cfi_startproc
 2625              		@ args = 0, pretend = 0, frame = 24
 2626              		@ frame_needed = 0, uses_anonymous_args = 0
 2627              	.LVL263:
 2628 0000 30B5     		push	{r4, r5, lr}
 2629              	.LCFI80:
 2630              		.cfi_def_cfa_offset 12
 2631              		.cfi_offset 4, -12
 2632              		.cfi_offset 5, -8
 2633              		.cfi_offset 14, -4
 2634 0002 87B0     		sub	sp, sp, #28
 2635              	.LCFI81:
 2636              		.cfi_def_cfa_offset 40
 2637 0004 0546     		mov	r5, r0
 2638              	.LVL264:
1117:Drivers/STM32F7xx_HAL_Driver/Src/stm32f7xx_ll_sdmmc.c ****   sdmmc_cmdinit.CmdIndex         = SDMMC_CMD_HS_SWITCH;
 2639              		.loc 1 1117 0
 2640 0006 0191     		str	r1, [sp, #4]
1118:Drivers/STM32F7xx_HAL_Driver/Src/stm32f7xx_ll_sdmmc.c ****   sdmmc_cmdinit.Response         = SDMMC_RESPONSE_SHORT;
 2641              		.loc 1 1118 0
 2642 0008 0624     		movs	r4, #6
 2643 000a 0294     		str	r4, [sp, #8]
1119:Drivers/STM32F7xx_HAL_Driver/Src/stm32f7xx_ll_sdmmc.c ****   sdmmc_cmdinit.WaitForInterrupt = SDMMC_WAIT_NO;
 2644              		.loc 1 1119 0
 2645 000c 4023     		movs	r3, #64
 2646 000e 0393     		str	r3, [sp, #12]
1120:Drivers/STM32F7xx_HAL_Driver/Src/stm32f7xx_ll_sdmmc.c ****   sdmmc_cmdinit.CPSM             = SDMMC_CPSM_ENABLE;
 2647              		.loc 1 1120 0
 2648 0010 0023     		movs	r3, #0
 2649 0012 0493     		str	r3, [sp, #16]
1121:Drivers/STM32F7xx_HAL_Driver/Src/stm32f7xx_ll_sdmmc.c ****   SDMMC_SendCommand(SDMMCx, &sdmmc_cmdinit);
 2650              		.loc 1 1121 0
 2651 0014 4FF48063 		mov	r3, #1024
 2652 0018 0593     		str	r3, [sp, #20]
1122:Drivers/STM32F7xx_HAL_Driver/Src/stm32f7xx_ll_sdmmc.c ****   
 2653              		.loc 1 1122 0
 2654 001a 01A9     		add	r1, sp, #4
 2655              	.LVL265:
 2656 001c FFF7FEFF 		bl	SDMMC_SendCommand
 2657              	.LVL266:
1125:Drivers/STM32F7xx_HAL_Driver/Src/stm32f7xx_ll_sdmmc.c **** 
 2658              		.loc 1 1125 0
 2659 0020 41F28832 		movw	r2, #5000
 2660 0024 2146     		mov	r1, r4
 2661 0026 2846     		mov	r0, r5
 2662 0028 FFF7FEFF 		bl	SDMMC_GetCmdResp1
 2663              	.LVL267:
1128:Drivers/STM32F7xx_HAL_Driver/Src/stm32f7xx_ll_sdmmc.c **** 
 2664              		.loc 1 1128 0
 2665 002c 07B0     		add	sp, sp, #28
 2666              	.LCFI82:
 2667              		.cfi_def_cfa_offset 12
 2668              		@ sp needed
ARM GAS  C:\Users\Student\AppData\Local\Temp\ccPRdzQ1.s 			page 79


 2669 002e 30BD     		pop	{r4, r5, pc}
 2670              		.cfi_endproc
 2671              	.LFE173:
 2673              		.text
 2674              	.Letext0:
 2675              		.file 2 "c:\\gcc_toolchain\\6_2017-q1-update\\arm-none-eabi\\include\\machine\\_default_types.h"
 2676              		.file 3 "c:\\gcc_toolchain\\6_2017-q1-update\\arm-none-eabi\\include\\sys\\_stdint.h"
 2677              		.file 4 "Drivers/CMSIS/Include/core_cm7.h"
 2678              		.file 5 "Drivers/CMSIS/Device/ST/STM32F7xx/Include/system_stm32f7xx.h"
 2679              		.file 6 "Drivers/CMSIS/Device/ST/STM32F7xx/Include/stm32f746xx.h"
 2680              		.file 7 "c:\\gcc_toolchain\\6_2017-q1-update\\arm-none-eabi\\include\\sys\\lock.h"
 2681              		.file 8 "c:\\gcc_toolchain\\6_2017-q1-update\\arm-none-eabi\\include\\sys\\_types.h"
 2682              		.file 9 "c:\\gcc_toolchain\\6_2017-q1-update\\lib\\gcc\\arm-none-eabi\\6.3.1\\include\\stddef.h"
 2683              		.file 10 "c:\\gcc_toolchain\\6_2017-q1-update\\arm-none-eabi\\include\\sys\\reent.h"
 2684              		.file 11 "Drivers/CMSIS/Device/ST/STM32F7xx/Include/stm32f7xx.h"
 2685              		.file 12 "Drivers/STM32F7xx_HAL_Driver/Inc/stm32f7xx_hal_def.h"
 2686              		.file 13 "Drivers/STM32F7xx_HAL_Driver/Inc/stm32f7xx_ll_sdmmc.h"
ARM GAS  C:\Users\Student\AppData\Local\Temp\ccPRdzQ1.s 			page 80


DEFINED SYMBOLS
                            *ABS*:00000000 stm32f7xx_ll_sdmmc.c
C:\Users\Student\AppData\Local\Temp\ccPRdzQ1.s:18     .text.SDMMC_GetCmdError:00000000 $t
C:\Users\Student\AppData\Local\Temp\ccPRdzQ1.s:24     .text.SDMMC_GetCmdError:00000000 SDMMC_GetCmdError
C:\Users\Student\AppData\Local\Temp\ccPRdzQ1.s:71     .text.SDMMC_GetCmdError:00000034 $d
C:\Users\Student\AppData\Local\Temp\ccPRdzQ1.s:77     .text.SDMMC_GetCmdResp2:00000000 $t
C:\Users\Student\AppData\Local\Temp\ccPRdzQ1.s:83     .text.SDMMC_GetCmdResp2:00000000 SDMMC_GetCmdResp2
C:\Users\Student\AppData\Local\Temp\ccPRdzQ1.s:155    .text.SDMMC_GetCmdResp2:00000054 $d
C:\Users\Student\AppData\Local\Temp\ccPRdzQ1.s:161    .text.SDMMC_GetCmdResp3:00000000 $t
C:\Users\Student\AppData\Local\Temp\ccPRdzQ1.s:167    .text.SDMMC_GetCmdResp3:00000000 SDMMC_GetCmdResp3
C:\Users\Student\AppData\Local\Temp\ccPRdzQ1.s:226    .text.SDMMC_GetCmdResp3:00000044 $d
C:\Users\Student\AppData\Local\Temp\ccPRdzQ1.s:232    .text.SDMMC_GetCmdResp7:00000000 $t
C:\Users\Student\AppData\Local\Temp\ccPRdzQ1.s:238    .text.SDMMC_GetCmdResp7:00000000 SDMMC_GetCmdResp7
C:\Users\Student\AppData\Local\Temp\ccPRdzQ1.s:307    .text.SDMMC_GetCmdResp7:0000004c $d
C:\Users\Student\AppData\Local\Temp\ccPRdzQ1.s:313    .text.SDMMC_Init:00000000 $t
C:\Users\Student\AppData\Local\Temp\ccPRdzQ1.s:320    .text.SDMMC_Init:00000000 SDMMC_Init
C:\Users\Student\AppData\Local\Temp\ccPRdzQ1.s:383    .text.SDMMC_Init:00000034 $d
C:\Users\Student\AppData\Local\Temp\ccPRdzQ1.s:388    .text.SDMMC_ReadFIFO:00000000 $t
C:\Users\Student\AppData\Local\Temp\ccPRdzQ1.s:395    .text.SDMMC_ReadFIFO:00000000 SDMMC_ReadFIFO
C:\Users\Student\AppData\Local\Temp\ccPRdzQ1.s:412    .text.SDMMC_WriteFIFO:00000000 $t
C:\Users\Student\AppData\Local\Temp\ccPRdzQ1.s:419    .text.SDMMC_WriteFIFO:00000000 SDMMC_WriteFIFO
C:\Users\Student\AppData\Local\Temp\ccPRdzQ1.s:438    .text.SDMMC_PowerState_ON:00000000 $t
C:\Users\Student\AppData\Local\Temp\ccPRdzQ1.s:445    .text.SDMMC_PowerState_ON:00000000 SDMMC_PowerState_ON
C:\Users\Student\AppData\Local\Temp\ccPRdzQ1.s:464    .text.SDMMC_PowerState_OFF:00000000 $t
C:\Users\Student\AppData\Local\Temp\ccPRdzQ1.s:471    .text.SDMMC_PowerState_OFF:00000000 SDMMC_PowerState_OFF
C:\Users\Student\AppData\Local\Temp\ccPRdzQ1.s:490    .text.SDMMC_GetPowerState:00000000 $t
C:\Users\Student\AppData\Local\Temp\ccPRdzQ1.s:497    .text.SDMMC_GetPowerState:00000000 SDMMC_GetPowerState
C:\Users\Student\AppData\Local\Temp\ccPRdzQ1.s:515    .text.SDMMC_SendCommand:00000000 $t
C:\Users\Student\AppData\Local\Temp\ccPRdzQ1.s:522    .text.SDMMC_SendCommand:00000000 SDMMC_SendCommand
C:\Users\Student\AppData\Local\Temp\ccPRdzQ1.s:564    .text.SDMMC_SendCommand:00000020 $d
C:\Users\Student\AppData\Local\Temp\ccPRdzQ1.s:569    .text.SDMMC_GetCommandResponse:00000000 $t
C:\Users\Student\AppData\Local\Temp\ccPRdzQ1.s:576    .text.SDMMC_GetCommandResponse:00000000 SDMMC_GetCommandResponse
C:\Users\Student\AppData\Local\Temp\ccPRdzQ1.s:594    .text.SDMMC_GetResponse:00000000 $t
C:\Users\Student\AppData\Local\Temp\ccPRdzQ1.s:601    .text.SDMMC_GetResponse:00000000 SDMMC_GetResponse
C:\Users\Student\AppData\Local\Temp\ccPRdzQ1.s:635    .text.SDMMC_GetCmdResp1:00000000 $t
C:\Users\Student\AppData\Local\Temp\ccPRdzQ1.s:641    .text.SDMMC_GetCmdResp1:00000000 SDMMC_GetCmdResp1
C:\Users\Student\AppData\Local\Temp\ccPRdzQ1.s:911    .text.SDMMC_GetCmdResp1:0000014c $d
C:\Users\Student\AppData\Local\Temp\ccPRdzQ1.s:918    .text.SDMMC_GetCmdResp6:00000000 $t
C:\Users\Student\AppData\Local\Temp\ccPRdzQ1.s:924    .text.SDMMC_GetCmdResp6:00000000 SDMMC_GetCmdResp6
C:\Users\Student\AppData\Local\Temp\ccPRdzQ1.s:1053   .text.SDMMC_GetCmdResp6:00000098 $d
C:\Users\Student\AppData\Local\Temp\ccPRdzQ1.s:1059   .text.SDMMC_ConfigData:00000000 $t
C:\Users\Student\AppData\Local\Temp\ccPRdzQ1.s:1066   .text.SDMMC_ConfigData:00000000 SDMMC_ConfigData
C:\Users\Student\AppData\Local\Temp\ccPRdzQ1.s:1110   .text.SDMMC_GetDataCounter:00000000 $t
C:\Users\Student\AppData\Local\Temp\ccPRdzQ1.s:1117   .text.SDMMC_GetDataCounter:00000000 SDMMC_GetDataCounter
C:\Users\Student\AppData\Local\Temp\ccPRdzQ1.s:1134   .text.SDMMC_GetFIFOCount:00000000 $t
C:\Users\Student\AppData\Local\Temp\ccPRdzQ1.s:1141   .text.SDMMC_GetFIFOCount:00000000 SDMMC_GetFIFOCount
C:\Users\Student\AppData\Local\Temp\ccPRdzQ1.s:1158   .text.SDMMC_SetSDMMCReadWaitMode:00000000 $t
C:\Users\Student\AppData\Local\Temp\ccPRdzQ1.s:1165   .text.SDMMC_SetSDMMCReadWaitMode:00000000 SDMMC_SetSDMMCReadWaitMode
C:\Users\Student\AppData\Local\Temp\ccPRdzQ1.s:1187   .text.SDMMC_CmdBlockLength:00000000 $t
C:\Users\Student\AppData\Local\Temp\ccPRdzQ1.s:1194   .text.SDMMC_CmdBlockLength:00000000 SDMMC_CmdBlockLength
C:\Users\Student\AppData\Local\Temp\ccPRdzQ1.s:1247   .text.SDMMC_CmdReadSingleBlock:00000000 $t
C:\Users\Student\AppData\Local\Temp\ccPRdzQ1.s:1254   .text.SDMMC_CmdReadSingleBlock:00000000 SDMMC_CmdReadSingleBlock
C:\Users\Student\AppData\Local\Temp\ccPRdzQ1.s:1307   .text.SDMMC_CmdReadMultiBlock:00000000 $t
C:\Users\Student\AppData\Local\Temp\ccPRdzQ1.s:1314   .text.SDMMC_CmdReadMultiBlock:00000000 SDMMC_CmdReadMultiBlock
C:\Users\Student\AppData\Local\Temp\ccPRdzQ1.s:1367   .text.SDMMC_CmdWriteSingleBlock:00000000 $t
C:\Users\Student\AppData\Local\Temp\ccPRdzQ1.s:1374   .text.SDMMC_CmdWriteSingleBlock:00000000 SDMMC_CmdWriteSingleBlock
C:\Users\Student\AppData\Local\Temp\ccPRdzQ1.s:1427   .text.SDMMC_CmdWriteMultiBlock:00000000 $t
ARM GAS  C:\Users\Student\AppData\Local\Temp\ccPRdzQ1.s 			page 81


C:\Users\Student\AppData\Local\Temp\ccPRdzQ1.s:1434   .text.SDMMC_CmdWriteMultiBlock:00000000 SDMMC_CmdWriteMultiBlock
C:\Users\Student\AppData\Local\Temp\ccPRdzQ1.s:1487   .text.SDMMC_CmdSDEraseStartAdd:00000000 $t
C:\Users\Student\AppData\Local\Temp\ccPRdzQ1.s:1494   .text.SDMMC_CmdSDEraseStartAdd:00000000 SDMMC_CmdSDEraseStartAdd
C:\Users\Student\AppData\Local\Temp\ccPRdzQ1.s:1547   .text.SDMMC_CmdSDEraseEndAdd:00000000 $t
C:\Users\Student\AppData\Local\Temp\ccPRdzQ1.s:1554   .text.SDMMC_CmdSDEraseEndAdd:00000000 SDMMC_CmdSDEraseEndAdd
C:\Users\Student\AppData\Local\Temp\ccPRdzQ1.s:1607   .text.SDMMC_CmdEraseStartAdd:00000000 $t
C:\Users\Student\AppData\Local\Temp\ccPRdzQ1.s:1614   .text.SDMMC_CmdEraseStartAdd:00000000 SDMMC_CmdEraseStartAdd
C:\Users\Student\AppData\Local\Temp\ccPRdzQ1.s:1667   .text.SDMMC_CmdEraseEndAdd:00000000 $t
C:\Users\Student\AppData\Local\Temp\ccPRdzQ1.s:1674   .text.SDMMC_CmdEraseEndAdd:00000000 SDMMC_CmdEraseEndAdd
C:\Users\Student\AppData\Local\Temp\ccPRdzQ1.s:1727   .text.SDMMC_CmdErase:00000000 $t
C:\Users\Student\AppData\Local\Temp\ccPRdzQ1.s:1734   .text.SDMMC_CmdErase:00000000 SDMMC_CmdErase
C:\Users\Student\AppData\Local\Temp\ccPRdzQ1.s:1786   .text.SDMMC_CmdStopTransfer:00000000 $t
C:\Users\Student\AppData\Local\Temp\ccPRdzQ1.s:1793   .text.SDMMC_CmdStopTransfer:00000000 SDMMC_CmdStopTransfer
C:\Users\Student\AppData\Local\Temp\ccPRdzQ1.s:1845   .text.SDMMC_CmdStopTransfer:00000030 $d
C:\Users\Student\AppData\Local\Temp\ccPRdzQ1.s:1850   .text.SDMMC_CmdSelDesel:00000000 $t
C:\Users\Student\AppData\Local\Temp\ccPRdzQ1.s:1857   .text.SDMMC_CmdSelDesel:00000000 SDMMC_CmdSelDesel
C:\Users\Student\AppData\Local\Temp\ccPRdzQ1.s:1909   .text.SDMMC_CmdGoIdleState:00000000 $t
C:\Users\Student\AppData\Local\Temp\ccPRdzQ1.s:1916   .text.SDMMC_CmdGoIdleState:00000000 SDMMC_CmdGoIdleState
C:\Users\Student\AppData\Local\Temp\ccPRdzQ1.s:1963   .text.SDMMC_CmdOperCond:00000000 $t
C:\Users\Student\AppData\Local\Temp\ccPRdzQ1.s:1970   .text.SDMMC_CmdOperCond:00000000 SDMMC_CmdOperCond
C:\Users\Student\AppData\Local\Temp\ccPRdzQ1.s:2020   .text.SDMMC_CmdAppCommand:00000000 $t
C:\Users\Student\AppData\Local\Temp\ccPRdzQ1.s:2027   .text.SDMMC_CmdAppCommand:00000000 SDMMC_CmdAppCommand
C:\Users\Student\AppData\Local\Temp\ccPRdzQ1.s:2080   .text.SDMMC_CmdAppOperCommand:00000000 $t
C:\Users\Student\AppData\Local\Temp\ccPRdzQ1.s:2087   .text.SDMMC_CmdAppOperCommand:00000000 SDMMC_CmdAppOperCommand
C:\Users\Student\AppData\Local\Temp\ccPRdzQ1.s:2139   .text.SDMMC_CmdAppOperCommand:00000030 $d
C:\Users\Student\AppData\Local\Temp\ccPRdzQ1.s:2144   .text.SDMMC_CmdBusWidth:00000000 $t
C:\Users\Student\AppData\Local\Temp\ccPRdzQ1.s:2151   .text.SDMMC_CmdBusWidth:00000000 SDMMC_CmdBusWidth
C:\Users\Student\AppData\Local\Temp\ccPRdzQ1.s:2204   .text.SDMMC_CmdSendSCR:00000000 $t
C:\Users\Student\AppData\Local\Temp\ccPRdzQ1.s:2211   .text.SDMMC_CmdSendSCR:00000000 SDMMC_CmdSendSCR
C:\Users\Student\AppData\Local\Temp\ccPRdzQ1.s:2263   .text.SDMMC_CmdSendCID:00000000 $t
C:\Users\Student\AppData\Local\Temp\ccPRdzQ1.s:2270   .text.SDMMC_CmdSendCID:00000000 SDMMC_CmdSendCID
C:\Users\Student\AppData\Local\Temp\ccPRdzQ1.s:2319   .text.SDMMC_CmdSendCSD:00000000 $t
C:\Users\Student\AppData\Local\Temp\ccPRdzQ1.s:2326   .text.SDMMC_CmdSendCSD:00000000 SDMMC_CmdSendCSD
C:\Users\Student\AppData\Local\Temp\ccPRdzQ1.s:2376   .text.SDMMC_CmdSetRelAdd:00000000 $t
C:\Users\Student\AppData\Local\Temp\ccPRdzQ1.s:2383   .text.SDMMC_CmdSetRelAdd:00000000 SDMMC_CmdSetRelAdd
C:\Users\Student\AppData\Local\Temp\ccPRdzQ1.s:2438   .text.SDMMC_CmdSendStatus:00000000 $t
C:\Users\Student\AppData\Local\Temp\ccPRdzQ1.s:2445   .text.SDMMC_CmdSendStatus:00000000 SDMMC_CmdSendStatus
C:\Users\Student\AppData\Local\Temp\ccPRdzQ1.s:2498   .text.SDMMC_CmdStatusRegister:00000000 $t
C:\Users\Student\AppData\Local\Temp\ccPRdzQ1.s:2505   .text.SDMMC_CmdStatusRegister:00000000 SDMMC_CmdStatusRegister
C:\Users\Student\AppData\Local\Temp\ccPRdzQ1.s:2557   .text.SDMMC_CmdOpCondition:00000000 $t
C:\Users\Student\AppData\Local\Temp\ccPRdzQ1.s:2564   .text.SDMMC_CmdOpCondition:00000000 SDMMC_CmdOpCondition
C:\Users\Student\AppData\Local\Temp\ccPRdzQ1.s:2614   .text.SDMMC_CmdSwitch:00000000 $t
C:\Users\Student\AppData\Local\Temp\ccPRdzQ1.s:2621   .text.SDMMC_CmdSwitch:00000000 SDMMC_CmdSwitch
                     .debug_frame:00000010 $d

UNDEFINED SYMBOLS
SystemCoreClock
