ARM GAS  C:\Users\milek\AppData\Local\Temp\ccMSPWBt.s 			page 1


   1              		.cpu cortex-m7
   2              		.eabi_attribute 27, 1
   3              		.eabi_attribute 28, 1
   4              		.eabi_attribute 20, 1
   5              		.eabi_attribute 21, 1
   6              		.eabi_attribute 23, 3
   7              		.eabi_attribute 24, 1
   8              		.eabi_attribute 25, 1
   9              		.eabi_attribute 26, 1
  10              		.eabi_attribute 30, 1
  11              		.eabi_attribute 34, 1
  12              		.eabi_attribute 18, 4
  13              		.file	"stm32746g_discovery_lcd.c"
  14              		.text
  15              	.Ltext0:
  16              		.cfi_sections	.debug_frame
  17              		.section	.text.LL_FillBuffer,"ax",%progbits
  18              		.align	1
  19              		.syntax unified
  20              		.thumb
  21              		.thumb_func
  22              		.fpu fpv5-sp-d16
  24              	LL_FillBuffer:
  25              	.LFB192:
  26              		.file 1 "Drivers/BSP/STM32746G-Discovery/stm32746g_discovery_lcd.c"
   1:Drivers/BSP/STM32746G-Discovery/stm32746g_discovery_lcd.c **** /**
   2:Drivers/BSP/STM32746G-Discovery/stm32746g_discovery_lcd.c ****   ******************************************************************************
   3:Drivers/BSP/STM32746G-Discovery/stm32746g_discovery_lcd.c ****   * @file    stm32746g_discovery_lcd.c
   4:Drivers/BSP/STM32746G-Discovery/stm32746g_discovery_lcd.c ****   * @author  MCD Application Team
   5:Drivers/BSP/STM32746G-Discovery/stm32746g_discovery_lcd.c ****   * @brief   This file includes the driver for Liquid Crystal Display (LCD) module
   6:Drivers/BSP/STM32746G-Discovery/stm32746g_discovery_lcd.c ****   *          mounted on STM32746G-Discovery board.
   7:Drivers/BSP/STM32746G-Discovery/stm32746g_discovery_lcd.c ****   @verbatim
   8:Drivers/BSP/STM32746G-Discovery/stm32746g_discovery_lcd.c ****   1. How To use this driver:
   9:Drivers/BSP/STM32746G-Discovery/stm32746g_discovery_lcd.c ****   --------------------------
  10:Drivers/BSP/STM32746G-Discovery/stm32746g_discovery_lcd.c ****      - This driver is used to drive directly an LCD TFT using the LTDC controller.
  11:Drivers/BSP/STM32746G-Discovery/stm32746g_discovery_lcd.c ****      - This driver uses timing and setting for RK043FN48H LCD.
  12:Drivers/BSP/STM32746G-Discovery/stm32746g_discovery_lcd.c ****   
  13:Drivers/BSP/STM32746G-Discovery/stm32746g_discovery_lcd.c ****   2. Driver description:
  14:Drivers/BSP/STM32746G-Discovery/stm32746g_discovery_lcd.c ****   ---------------------
  15:Drivers/BSP/STM32746G-Discovery/stm32746g_discovery_lcd.c ****     + Initialization steps:
  16:Drivers/BSP/STM32746G-Discovery/stm32746g_discovery_lcd.c ****        o Initialize the LCD using the BSP_LCD_Init() function.
  17:Drivers/BSP/STM32746G-Discovery/stm32746g_discovery_lcd.c ****        o Apply the Layer configuration using the BSP_LCD_LayerDefaultInit() function.    
  18:Drivers/BSP/STM32746G-Discovery/stm32746g_discovery_lcd.c ****        o Select the LCD layer to be used using the BSP_LCD_SelectLayer() function.
  19:Drivers/BSP/STM32746G-Discovery/stm32746g_discovery_lcd.c ****        o Enable the LCD display using the BSP_LCD_DisplayOn() function.
  20:Drivers/BSP/STM32746G-Discovery/stm32746g_discovery_lcd.c ****   
  21:Drivers/BSP/STM32746G-Discovery/stm32746g_discovery_lcd.c ****     + Options
  22:Drivers/BSP/STM32746G-Discovery/stm32746g_discovery_lcd.c ****        o Configure and enable the color keying functionality using the 
  23:Drivers/BSP/STM32746G-Discovery/stm32746g_discovery_lcd.c ****          BSP_LCD_SetColorKeying() function.
  24:Drivers/BSP/STM32746G-Discovery/stm32746g_discovery_lcd.c ****        o Modify in the fly the transparency and/or the frame buffer address
  25:Drivers/BSP/STM32746G-Discovery/stm32746g_discovery_lcd.c ****          using the following functions:
  26:Drivers/BSP/STM32746G-Discovery/stm32746g_discovery_lcd.c ****          - BSP_LCD_SetTransparency()
  27:Drivers/BSP/STM32746G-Discovery/stm32746g_discovery_lcd.c ****          - BSP_LCD_SetLayerAddress() 
  28:Drivers/BSP/STM32746G-Discovery/stm32746g_discovery_lcd.c ****     
  29:Drivers/BSP/STM32746G-Discovery/stm32746g_discovery_lcd.c ****     + Display on LCD
  30:Drivers/BSP/STM32746G-Discovery/stm32746g_discovery_lcd.c ****        o Clear the hole LCD using BSP_LCD_Clear() function or only one specified string
  31:Drivers/BSP/STM32746G-Discovery/stm32746g_discovery_lcd.c ****          line using the BSP_LCD_ClearStringLine() function.
  32:Drivers/BSP/STM32746G-Discovery/stm32746g_discovery_lcd.c ****        o Display a character on the specified line and column using the BSP_LCD_DisplayChar()
ARM GAS  C:\Users\milek\AppData\Local\Temp\ccMSPWBt.s 			page 2


  33:Drivers/BSP/STM32746G-Discovery/stm32746g_discovery_lcd.c ****          function or a complete string line using the BSP_LCD_DisplayStringAtLine() function.
  34:Drivers/BSP/STM32746G-Discovery/stm32746g_discovery_lcd.c ****        o Display a string line on the specified position (x,y in pixel) and align mode
  35:Drivers/BSP/STM32746G-Discovery/stm32746g_discovery_lcd.c ****          using the BSP_LCD_DisplayStringAtLine() function.          
  36:Drivers/BSP/STM32746G-Discovery/stm32746g_discovery_lcd.c ****        o Draw and fill a basic shapes (dot, line, rectangle, circle, ellipse, .. bitmap) 
  37:Drivers/BSP/STM32746G-Discovery/stm32746g_discovery_lcd.c ****          on LCD using the available set of functions.       
  38:Drivers/BSP/STM32746G-Discovery/stm32746g_discovery_lcd.c ****   @endverbatim
  39:Drivers/BSP/STM32746G-Discovery/stm32746g_discovery_lcd.c ****   ******************************************************************************
  40:Drivers/BSP/STM32746G-Discovery/stm32746g_discovery_lcd.c ****   * @attention
  41:Drivers/BSP/STM32746G-Discovery/stm32746g_discovery_lcd.c ****   *
  42:Drivers/BSP/STM32746G-Discovery/stm32746g_discovery_lcd.c ****   * <h2><center>&copy; COPYRIGHT(c) 2016 STMicroelectronics</center></h2>
  43:Drivers/BSP/STM32746G-Discovery/stm32746g_discovery_lcd.c ****   *
  44:Drivers/BSP/STM32746G-Discovery/stm32746g_discovery_lcd.c ****   * Redistribution and use in source and binary forms, with or without modification,
  45:Drivers/BSP/STM32746G-Discovery/stm32746g_discovery_lcd.c ****   * are permitted provided that the following conditions are met:
  46:Drivers/BSP/STM32746G-Discovery/stm32746g_discovery_lcd.c ****   *   1. Redistributions of source code must retain the above copyright notice,
  47:Drivers/BSP/STM32746G-Discovery/stm32746g_discovery_lcd.c ****   *      this list of conditions and the following disclaimer.
  48:Drivers/BSP/STM32746G-Discovery/stm32746g_discovery_lcd.c ****   *   2. Redistributions in binary form must reproduce the above copyright notice,
  49:Drivers/BSP/STM32746G-Discovery/stm32746g_discovery_lcd.c ****   *      this list of conditions and the following disclaimer in the documentation
  50:Drivers/BSP/STM32746G-Discovery/stm32746g_discovery_lcd.c ****   *      and/or other materials provided with the distribution.
  51:Drivers/BSP/STM32746G-Discovery/stm32746g_discovery_lcd.c ****   *   3. Neither the name of STMicroelectronics nor the names of its contributors
  52:Drivers/BSP/STM32746G-Discovery/stm32746g_discovery_lcd.c ****   *      may be used to endorse or promote products derived from this software
  53:Drivers/BSP/STM32746G-Discovery/stm32746g_discovery_lcd.c ****   *      without specific prior written permission.
  54:Drivers/BSP/STM32746G-Discovery/stm32746g_discovery_lcd.c ****   *
  55:Drivers/BSP/STM32746G-Discovery/stm32746g_discovery_lcd.c ****   * THIS SOFTWARE IS PROVIDED BY THE COPYRIGHT HOLDERS AND CONTRIBUTORS "AS IS"
  56:Drivers/BSP/STM32746G-Discovery/stm32746g_discovery_lcd.c ****   * AND ANY EXPRESS OR IMPLIED WARRANTIES, INCLUDING, BUT NOT LIMITED TO, THE
  57:Drivers/BSP/STM32746G-Discovery/stm32746g_discovery_lcd.c ****   * IMPLIED WARRANTIES OF MERCHANTABILITY AND FITNESS FOR A PARTICULAR PURPOSE ARE
  58:Drivers/BSP/STM32746G-Discovery/stm32746g_discovery_lcd.c ****   * DISCLAIMED. IN NO EVENT SHALL THE COPYRIGHT HOLDER OR CONTRIBUTORS BE LIABLE
  59:Drivers/BSP/STM32746G-Discovery/stm32746g_discovery_lcd.c ****   * FOR ANY DIRECT, INDIRECT, INCIDENTAL, SPECIAL, EXEMPLARY, OR CONSEQUENTIAL
  60:Drivers/BSP/STM32746G-Discovery/stm32746g_discovery_lcd.c ****   * DAMAGES (INCLUDING, BUT NOT LIMITED TO, PROCUREMENT OF SUBSTITUTE GOODS OR
  61:Drivers/BSP/STM32746G-Discovery/stm32746g_discovery_lcd.c ****   * SERVICES; LOSS OF USE, DATA, OR PROFITS; OR BUSINESS INTERRUPTION) HOWEVER
  62:Drivers/BSP/STM32746G-Discovery/stm32746g_discovery_lcd.c ****   * CAUSED AND ON ANY THEORY OF LIABILITY, WHETHER IN CONTRACT, STRICT LIABILITY,
  63:Drivers/BSP/STM32746G-Discovery/stm32746g_discovery_lcd.c ****   * OR TORT (INCLUDING NEGLIGENCE OR OTHERWISE) ARISING IN ANY WAY OUT OF THE USE
  64:Drivers/BSP/STM32746G-Discovery/stm32746g_discovery_lcd.c ****   * OF THIS SOFTWARE, EVEN IF ADVISED OF THE POSSIBILITY OF SUCH DAMAGE.
  65:Drivers/BSP/STM32746G-Discovery/stm32746g_discovery_lcd.c ****   *
  66:Drivers/BSP/STM32746G-Discovery/stm32746g_discovery_lcd.c ****   ******************************************************************************
  67:Drivers/BSP/STM32746G-Discovery/stm32746g_discovery_lcd.c ****   */ 
  68:Drivers/BSP/STM32746G-Discovery/stm32746g_discovery_lcd.c **** 
  69:Drivers/BSP/STM32746G-Discovery/stm32746g_discovery_lcd.c **** /* Dependencies
  70:Drivers/BSP/STM32746G-Discovery/stm32746g_discovery_lcd.c **** - stm32746g_discovery.c
  71:Drivers/BSP/STM32746G-Discovery/stm32746g_discovery_lcd.c **** - stm32746g_discovery_sdram.c
  72:Drivers/BSP/STM32746G-Discovery/stm32746g_discovery_lcd.c **** - stm32f7xx_hal_ltdc.c
  73:Drivers/BSP/STM32746G-Discovery/stm32746g_discovery_lcd.c **** - stm32f7xx_hal_ltdc_ex.c
  74:Drivers/BSP/STM32746G-Discovery/stm32746g_discovery_lcd.c **** - stm32f7xx_hal_dma2d.c
  75:Drivers/BSP/STM32746G-Discovery/stm32746g_discovery_lcd.c **** - stm32f7xx_hal_rcc_ex.c
  76:Drivers/BSP/STM32746G-Discovery/stm32746g_discovery_lcd.c **** - stm32f7xx_hal_gpio.c
  77:Drivers/BSP/STM32746G-Discovery/stm32746g_discovery_lcd.c **** - stm32f7xx_hal_cortex.c
  78:Drivers/BSP/STM32746G-Discovery/stm32746g_discovery_lcd.c **** - rk043fn48h.h
  79:Drivers/BSP/STM32746G-Discovery/stm32746g_discovery_lcd.c **** - fonts.h
  80:Drivers/BSP/STM32746G-Discovery/stm32746g_discovery_lcd.c **** - font24.c
  81:Drivers/BSP/STM32746G-Discovery/stm32746g_discovery_lcd.c **** - font20.c
  82:Drivers/BSP/STM32746G-Discovery/stm32746g_discovery_lcd.c **** - font16.c
  83:Drivers/BSP/STM32746G-Discovery/stm32746g_discovery_lcd.c **** - font12.c
  84:Drivers/BSP/STM32746G-Discovery/stm32746g_discovery_lcd.c **** - font8.c"
  85:Drivers/BSP/STM32746G-Discovery/stm32746g_discovery_lcd.c **** EndDependencies */
  86:Drivers/BSP/STM32746G-Discovery/stm32746g_discovery_lcd.c **** 
  87:Drivers/BSP/STM32746G-Discovery/stm32746g_discovery_lcd.c **** /* Includes ------------------------------------------------------------------*/
  88:Drivers/BSP/STM32746G-Discovery/stm32746g_discovery_lcd.c **** #include "stm32746g_discovery_lcd.h"
  89:Drivers/BSP/STM32746G-Discovery/stm32746g_discovery_lcd.c **** #include "../../../Utilities/Fonts/fonts.h"
ARM GAS  C:\Users\milek\AppData\Local\Temp\ccMSPWBt.s 			page 3


  90:Drivers/BSP/STM32746G-Discovery/stm32746g_discovery_lcd.c **** #include "../../../Utilities/Fonts/font24.c"
  91:Drivers/BSP/STM32746G-Discovery/stm32746g_discovery_lcd.c **** #include "../../../Utilities/Fonts/font20.c"
  92:Drivers/BSP/STM32746G-Discovery/stm32746g_discovery_lcd.c **** #include "../../../Utilities/Fonts/font16.c"
  93:Drivers/BSP/STM32746G-Discovery/stm32746g_discovery_lcd.c **** #include "../../../Utilities/Fonts/font12.c"
  94:Drivers/BSP/STM32746G-Discovery/stm32746g_discovery_lcd.c **** #include "../../../Utilities/Fonts/font8.c"
  95:Drivers/BSP/STM32746G-Discovery/stm32746g_discovery_lcd.c **** 
  96:Drivers/BSP/STM32746G-Discovery/stm32746g_discovery_lcd.c **** /** @addtogroup BSP
  97:Drivers/BSP/STM32746G-Discovery/stm32746g_discovery_lcd.c ****   * @{
  98:Drivers/BSP/STM32746G-Discovery/stm32746g_discovery_lcd.c ****   */
  99:Drivers/BSP/STM32746G-Discovery/stm32746g_discovery_lcd.c **** 
 100:Drivers/BSP/STM32746G-Discovery/stm32746g_discovery_lcd.c **** /** @addtogroup STM32746G_DISCOVERY
 101:Drivers/BSP/STM32746G-Discovery/stm32746g_discovery_lcd.c ****   * @{
 102:Drivers/BSP/STM32746G-Discovery/stm32746g_discovery_lcd.c ****   */
 103:Drivers/BSP/STM32746G-Discovery/stm32746g_discovery_lcd.c ****     
 104:Drivers/BSP/STM32746G-Discovery/stm32746g_discovery_lcd.c **** /** @addtogroup STM32746G_DISCOVERY_LCD
 105:Drivers/BSP/STM32746G-Discovery/stm32746g_discovery_lcd.c ****   * @{
 106:Drivers/BSP/STM32746G-Discovery/stm32746g_discovery_lcd.c ****   */ 
 107:Drivers/BSP/STM32746G-Discovery/stm32746g_discovery_lcd.c **** 
 108:Drivers/BSP/STM32746G-Discovery/stm32746g_discovery_lcd.c **** /** @defgroup STM32746G_DISCOVERY_LCD_Private_TypesDefinitions STM32746G_DISCOVERY_LCD Private Type
 109:Drivers/BSP/STM32746G-Discovery/stm32746g_discovery_lcd.c ****   * @{
 110:Drivers/BSP/STM32746G-Discovery/stm32746g_discovery_lcd.c ****   */ 
 111:Drivers/BSP/STM32746G-Discovery/stm32746g_discovery_lcd.c **** /**
 112:Drivers/BSP/STM32746G-Discovery/stm32746g_discovery_lcd.c ****   * @}
 113:Drivers/BSP/STM32746G-Discovery/stm32746g_discovery_lcd.c ****   */ 
 114:Drivers/BSP/STM32746G-Discovery/stm32746g_discovery_lcd.c **** 
 115:Drivers/BSP/STM32746G-Discovery/stm32746g_discovery_lcd.c **** /** @defgroup STM32746G_DISCOVERY_LCD_Private_Defines STM32746G_DISCOVERY LCD Private Defines
 116:Drivers/BSP/STM32746G-Discovery/stm32746g_discovery_lcd.c ****   * @{
 117:Drivers/BSP/STM32746G-Discovery/stm32746g_discovery_lcd.c ****   */
 118:Drivers/BSP/STM32746G-Discovery/stm32746g_discovery_lcd.c **** #define POLY_X(Z)              ((int32_t)((Points + Z)->X))
 119:Drivers/BSP/STM32746G-Discovery/stm32746g_discovery_lcd.c **** #define POLY_Y(Z)              ((int32_t)((Points + Z)->Y))      
 120:Drivers/BSP/STM32746G-Discovery/stm32746g_discovery_lcd.c **** /**
 121:Drivers/BSP/STM32746G-Discovery/stm32746g_discovery_lcd.c ****   * @}
 122:Drivers/BSP/STM32746G-Discovery/stm32746g_discovery_lcd.c ****   */ 
 123:Drivers/BSP/STM32746G-Discovery/stm32746g_discovery_lcd.c **** 
 124:Drivers/BSP/STM32746G-Discovery/stm32746g_discovery_lcd.c **** /** @defgroup STM32746G_DISCOVERY_LCD_Private_Macros STM32746G_DISCOVERY_LCD Private Macros
 125:Drivers/BSP/STM32746G-Discovery/stm32746g_discovery_lcd.c ****   * @{
 126:Drivers/BSP/STM32746G-Discovery/stm32746g_discovery_lcd.c ****   */
 127:Drivers/BSP/STM32746G-Discovery/stm32746g_discovery_lcd.c **** #define ABS(X)  ((X) > 0 ? (X) : -(X))      
 128:Drivers/BSP/STM32746G-Discovery/stm32746g_discovery_lcd.c **** /**
 129:Drivers/BSP/STM32746G-Discovery/stm32746g_discovery_lcd.c ****   * @}
 130:Drivers/BSP/STM32746G-Discovery/stm32746g_discovery_lcd.c ****   */ 
 131:Drivers/BSP/STM32746G-Discovery/stm32746g_discovery_lcd.c ****     
 132:Drivers/BSP/STM32746G-Discovery/stm32746g_discovery_lcd.c **** /** @defgroup STM32746G_DISCOVERY_LCD_Private_Variables STM32746G_DISCOVERY_LCD Private Variables
 133:Drivers/BSP/STM32746G-Discovery/stm32746g_discovery_lcd.c ****   * @{
 134:Drivers/BSP/STM32746G-Discovery/stm32746g_discovery_lcd.c ****   */ 
 135:Drivers/BSP/STM32746G-Discovery/stm32746g_discovery_lcd.c **** LTDC_HandleTypeDef  hLtdcHandler;
 136:Drivers/BSP/STM32746G-Discovery/stm32746g_discovery_lcd.c **** static DMA2D_HandleTypeDef hDma2dHandler;
 137:Drivers/BSP/STM32746G-Discovery/stm32746g_discovery_lcd.c **** 
 138:Drivers/BSP/STM32746G-Discovery/stm32746g_discovery_lcd.c **** /* Default LCD configuration with LCD Layer 1 */
 139:Drivers/BSP/STM32746G-Discovery/stm32746g_discovery_lcd.c **** static uint32_t            ActiveLayer = 0;
 140:Drivers/BSP/STM32746G-Discovery/stm32746g_discovery_lcd.c **** static LCD_DrawPropTypeDef DrawProp[MAX_LAYER_NUMBER];
 141:Drivers/BSP/STM32746G-Discovery/stm32746g_discovery_lcd.c **** /**
 142:Drivers/BSP/STM32746G-Discovery/stm32746g_discovery_lcd.c ****   * @}
 143:Drivers/BSP/STM32746G-Discovery/stm32746g_discovery_lcd.c ****   */ 
 144:Drivers/BSP/STM32746G-Discovery/stm32746g_discovery_lcd.c **** 
 145:Drivers/BSP/STM32746G-Discovery/stm32746g_discovery_lcd.c **** /** @defgroup STM32746G_DISCOVERY_LCD_Private_FunctionPrototypes STM32746G_DISCOVERY_LCD Private Fu
 146:Drivers/BSP/STM32746G-Discovery/stm32746g_discovery_lcd.c ****   * @{
ARM GAS  C:\Users\milek\AppData\Local\Temp\ccMSPWBt.s 			page 4


 147:Drivers/BSP/STM32746G-Discovery/stm32746g_discovery_lcd.c ****   */ 
 148:Drivers/BSP/STM32746G-Discovery/stm32746g_discovery_lcd.c **** static void DrawChar(uint16_t Xpos, uint16_t Ypos, const uint8_t *c);
 149:Drivers/BSP/STM32746G-Discovery/stm32746g_discovery_lcd.c **** static void FillTriangle(uint16_t x1, uint16_t x2, uint16_t x3, uint16_t y1, uint16_t y2, uint16_t 
 150:Drivers/BSP/STM32746G-Discovery/stm32746g_discovery_lcd.c **** static void LL_FillBuffer(uint32_t LayerIndex, void *pDst, uint32_t xSize, uint32_t ySize, uint32_t
 151:Drivers/BSP/STM32746G-Discovery/stm32746g_discovery_lcd.c **** static void LL_ConvertLineToARGB8888(void * pSrc, void *pDst, uint32_t xSize, uint32_t ColorMode);
 152:Drivers/BSP/STM32746G-Discovery/stm32746g_discovery_lcd.c **** /**
 153:Drivers/BSP/STM32746G-Discovery/stm32746g_discovery_lcd.c ****   * @}
 154:Drivers/BSP/STM32746G-Discovery/stm32746g_discovery_lcd.c ****   */ 
 155:Drivers/BSP/STM32746G-Discovery/stm32746g_discovery_lcd.c **** 
 156:Drivers/BSP/STM32746G-Discovery/stm32746g_discovery_lcd.c **** /** @defgroup STM32746G_DISCOVERY_LCD_Exported_Functions STM32746G_DISCOVERY_LCD Exported Functions
 157:Drivers/BSP/STM32746G-Discovery/stm32746g_discovery_lcd.c ****   * @{
 158:Drivers/BSP/STM32746G-Discovery/stm32746g_discovery_lcd.c ****   */
 159:Drivers/BSP/STM32746G-Discovery/stm32746g_discovery_lcd.c **** 
 160:Drivers/BSP/STM32746G-Discovery/stm32746g_discovery_lcd.c **** /**
 161:Drivers/BSP/STM32746G-Discovery/stm32746g_discovery_lcd.c ****   * @brief  Initializes the LCD.
 162:Drivers/BSP/STM32746G-Discovery/stm32746g_discovery_lcd.c ****   * @retval LCD state
 163:Drivers/BSP/STM32746G-Discovery/stm32746g_discovery_lcd.c ****   */
 164:Drivers/BSP/STM32746G-Discovery/stm32746g_discovery_lcd.c **** uint8_t BSP_LCD_Init(void)
 165:Drivers/BSP/STM32746G-Discovery/stm32746g_discovery_lcd.c **** {    
 166:Drivers/BSP/STM32746G-Discovery/stm32746g_discovery_lcd.c ****   /* Select the used LCD */
 167:Drivers/BSP/STM32746G-Discovery/stm32746g_discovery_lcd.c **** 
 168:Drivers/BSP/STM32746G-Discovery/stm32746g_discovery_lcd.c ****   /* The RK043FN48H LCD 480x272 is selected */
 169:Drivers/BSP/STM32746G-Discovery/stm32746g_discovery_lcd.c ****   /* Timing Configuration */
 170:Drivers/BSP/STM32746G-Discovery/stm32746g_discovery_lcd.c ****   hLtdcHandler.Init.HorizontalSync = (RK043FN48H_HSYNC - 1);
 171:Drivers/BSP/STM32746G-Discovery/stm32746g_discovery_lcd.c ****   hLtdcHandler.Init.VerticalSync = (RK043FN48H_VSYNC - 1);
 172:Drivers/BSP/STM32746G-Discovery/stm32746g_discovery_lcd.c ****   hLtdcHandler.Init.AccumulatedHBP = (RK043FN48H_HSYNC + RK043FN48H_HBP - 1);
 173:Drivers/BSP/STM32746G-Discovery/stm32746g_discovery_lcd.c ****   hLtdcHandler.Init.AccumulatedVBP = (RK043FN48H_VSYNC + RK043FN48H_VBP - 1);
 174:Drivers/BSP/STM32746G-Discovery/stm32746g_discovery_lcd.c ****   hLtdcHandler.Init.AccumulatedActiveH = (RK043FN48H_HEIGHT + RK043FN48H_VSYNC + RK043FN48H_VBP - 1
 175:Drivers/BSP/STM32746G-Discovery/stm32746g_discovery_lcd.c ****   hLtdcHandler.Init.AccumulatedActiveW = (RK043FN48H_WIDTH + RK043FN48H_HSYNC + RK043FN48H_HBP - 1)
 176:Drivers/BSP/STM32746G-Discovery/stm32746g_discovery_lcd.c ****   hLtdcHandler.Init.TotalHeigh = (RK043FN48H_HEIGHT + RK043FN48H_VSYNC + RK043FN48H_VBP + RK043FN48
 177:Drivers/BSP/STM32746G-Discovery/stm32746g_discovery_lcd.c ****   hLtdcHandler.Init.TotalWidth = (RK043FN48H_WIDTH + RK043FN48H_HSYNC + RK043FN48H_HBP + RK043FN48H
 178:Drivers/BSP/STM32746G-Discovery/stm32746g_discovery_lcd.c ****   
 179:Drivers/BSP/STM32746G-Discovery/stm32746g_discovery_lcd.c ****   /* LCD clock configuration */
 180:Drivers/BSP/STM32746G-Discovery/stm32746g_discovery_lcd.c ****   BSP_LCD_ClockConfig(&hLtdcHandler, NULL);
 181:Drivers/BSP/STM32746G-Discovery/stm32746g_discovery_lcd.c **** 
 182:Drivers/BSP/STM32746G-Discovery/stm32746g_discovery_lcd.c ****   /* Initialize the LCD pixel width and pixel height */
 183:Drivers/BSP/STM32746G-Discovery/stm32746g_discovery_lcd.c ****   hLtdcHandler.LayerCfg->ImageWidth  = RK043FN48H_WIDTH;
 184:Drivers/BSP/STM32746G-Discovery/stm32746g_discovery_lcd.c ****   hLtdcHandler.LayerCfg->ImageHeight = RK043FN48H_HEIGHT;
 185:Drivers/BSP/STM32746G-Discovery/stm32746g_discovery_lcd.c **** 
 186:Drivers/BSP/STM32746G-Discovery/stm32746g_discovery_lcd.c ****   /* Background value */
 187:Drivers/BSP/STM32746G-Discovery/stm32746g_discovery_lcd.c ****   hLtdcHandler.Init.Backcolor.Blue = 0;
 188:Drivers/BSP/STM32746G-Discovery/stm32746g_discovery_lcd.c ****   hLtdcHandler.Init.Backcolor.Green = 0;
 189:Drivers/BSP/STM32746G-Discovery/stm32746g_discovery_lcd.c ****   hLtdcHandler.Init.Backcolor.Red = 0;
 190:Drivers/BSP/STM32746G-Discovery/stm32746g_discovery_lcd.c ****   
 191:Drivers/BSP/STM32746G-Discovery/stm32746g_discovery_lcd.c ****   /* Polarity */
 192:Drivers/BSP/STM32746G-Discovery/stm32746g_discovery_lcd.c ****   hLtdcHandler.Init.HSPolarity = LTDC_HSPOLARITY_AL;
 193:Drivers/BSP/STM32746G-Discovery/stm32746g_discovery_lcd.c ****   hLtdcHandler.Init.VSPolarity = LTDC_VSPOLARITY_AL; 
 194:Drivers/BSP/STM32746G-Discovery/stm32746g_discovery_lcd.c ****   hLtdcHandler.Init.DEPolarity = LTDC_DEPOLARITY_AL;  
 195:Drivers/BSP/STM32746G-Discovery/stm32746g_discovery_lcd.c ****   hLtdcHandler.Init.PCPolarity = LTDC_PCPOLARITY_IPC;
 196:Drivers/BSP/STM32746G-Discovery/stm32746g_discovery_lcd.c ****   hLtdcHandler.Instance = LTDC;
 197:Drivers/BSP/STM32746G-Discovery/stm32746g_discovery_lcd.c **** 
 198:Drivers/BSP/STM32746G-Discovery/stm32746g_discovery_lcd.c ****   if(HAL_LTDC_GetState(&hLtdcHandler) == HAL_LTDC_STATE_RESET)
 199:Drivers/BSP/STM32746G-Discovery/stm32746g_discovery_lcd.c ****   {
 200:Drivers/BSP/STM32746G-Discovery/stm32746g_discovery_lcd.c ****     /* Initialize the LCD Msp: this __weak function can be rewritten by the application */
 201:Drivers/BSP/STM32746G-Discovery/stm32746g_discovery_lcd.c ****     BSP_LCD_MspInit(&hLtdcHandler, NULL);
 202:Drivers/BSP/STM32746G-Discovery/stm32746g_discovery_lcd.c ****   }
 203:Drivers/BSP/STM32746G-Discovery/stm32746g_discovery_lcd.c ****   HAL_LTDC_Init(&hLtdcHandler);
ARM GAS  C:\Users\milek\AppData\Local\Temp\ccMSPWBt.s 			page 5


 204:Drivers/BSP/STM32746G-Discovery/stm32746g_discovery_lcd.c **** 
 205:Drivers/BSP/STM32746G-Discovery/stm32746g_discovery_lcd.c ****   /* Assert display enable LCD_DISP pin */
 206:Drivers/BSP/STM32746G-Discovery/stm32746g_discovery_lcd.c ****   HAL_GPIO_WritePin(LCD_DISP_GPIO_PORT, LCD_DISP_PIN, GPIO_PIN_SET);
 207:Drivers/BSP/STM32746G-Discovery/stm32746g_discovery_lcd.c **** 
 208:Drivers/BSP/STM32746G-Discovery/stm32746g_discovery_lcd.c ****   /* Assert backlight LCD_BL_CTRL pin */
 209:Drivers/BSP/STM32746G-Discovery/stm32746g_discovery_lcd.c ****   HAL_GPIO_WritePin(LCD_BL_CTRL_GPIO_PORT, LCD_BL_CTRL_PIN, GPIO_PIN_SET);
 210:Drivers/BSP/STM32746G-Discovery/stm32746g_discovery_lcd.c **** 
 211:Drivers/BSP/STM32746G-Discovery/stm32746g_discovery_lcd.c **** #if !defined(DATA_IN_ExtSDRAM)
 212:Drivers/BSP/STM32746G-Discovery/stm32746g_discovery_lcd.c ****   /* Initialize the SDRAM */
 213:Drivers/BSP/STM32746G-Discovery/stm32746g_discovery_lcd.c ****   BSP_SDRAM_Init();
 214:Drivers/BSP/STM32746G-Discovery/stm32746g_discovery_lcd.c **** #endif
 215:Drivers/BSP/STM32746G-Discovery/stm32746g_discovery_lcd.c ****     
 216:Drivers/BSP/STM32746G-Discovery/stm32746g_discovery_lcd.c ****   /* Initialize the font */
 217:Drivers/BSP/STM32746G-Discovery/stm32746g_discovery_lcd.c ****   BSP_LCD_SetFont(&LCD_DEFAULT_FONT);
 218:Drivers/BSP/STM32746G-Discovery/stm32746g_discovery_lcd.c ****   
 219:Drivers/BSP/STM32746G-Discovery/stm32746g_discovery_lcd.c ****   return LCD_OK;
 220:Drivers/BSP/STM32746G-Discovery/stm32746g_discovery_lcd.c **** }
 221:Drivers/BSP/STM32746G-Discovery/stm32746g_discovery_lcd.c **** 
 222:Drivers/BSP/STM32746G-Discovery/stm32746g_discovery_lcd.c **** /**
 223:Drivers/BSP/STM32746G-Discovery/stm32746g_discovery_lcd.c ****   * @brief  DeInitializes the LCD.
 224:Drivers/BSP/STM32746G-Discovery/stm32746g_discovery_lcd.c ****   * @retval LCD state
 225:Drivers/BSP/STM32746G-Discovery/stm32746g_discovery_lcd.c ****   */
 226:Drivers/BSP/STM32746G-Discovery/stm32746g_discovery_lcd.c **** uint8_t BSP_LCD_DeInit(void)
 227:Drivers/BSP/STM32746G-Discovery/stm32746g_discovery_lcd.c **** { 
 228:Drivers/BSP/STM32746G-Discovery/stm32746g_discovery_lcd.c ****   /* Initialize the hLtdcHandler Instance parameter */
 229:Drivers/BSP/STM32746G-Discovery/stm32746g_discovery_lcd.c ****   hLtdcHandler.Instance = LTDC;
 230:Drivers/BSP/STM32746G-Discovery/stm32746g_discovery_lcd.c **** 
 231:Drivers/BSP/STM32746G-Discovery/stm32746g_discovery_lcd.c ****  /* Disable LTDC block */
 232:Drivers/BSP/STM32746G-Discovery/stm32746g_discovery_lcd.c ****   __HAL_LTDC_DISABLE(&hLtdcHandler);
 233:Drivers/BSP/STM32746G-Discovery/stm32746g_discovery_lcd.c **** 
 234:Drivers/BSP/STM32746G-Discovery/stm32746g_discovery_lcd.c ****   /* DeInit the LTDC */
 235:Drivers/BSP/STM32746G-Discovery/stm32746g_discovery_lcd.c ****   HAL_LTDC_DeInit(&hLtdcHandler);
 236:Drivers/BSP/STM32746G-Discovery/stm32746g_discovery_lcd.c **** 
 237:Drivers/BSP/STM32746G-Discovery/stm32746g_discovery_lcd.c ****   /* DeInit the LTDC MSP : this __weak function can be rewritten by the application */
 238:Drivers/BSP/STM32746G-Discovery/stm32746g_discovery_lcd.c ****   BSP_LCD_MspDeInit(&hLtdcHandler, NULL);
 239:Drivers/BSP/STM32746G-Discovery/stm32746g_discovery_lcd.c **** 
 240:Drivers/BSP/STM32746G-Discovery/stm32746g_discovery_lcd.c ****   return LCD_OK;
 241:Drivers/BSP/STM32746G-Discovery/stm32746g_discovery_lcd.c **** }
 242:Drivers/BSP/STM32746G-Discovery/stm32746g_discovery_lcd.c **** 
 243:Drivers/BSP/STM32746G-Discovery/stm32746g_discovery_lcd.c **** /**
 244:Drivers/BSP/STM32746G-Discovery/stm32746g_discovery_lcd.c ****   * @brief  Gets the LCD X size.
 245:Drivers/BSP/STM32746G-Discovery/stm32746g_discovery_lcd.c ****   * @retval Used LCD X size
 246:Drivers/BSP/STM32746G-Discovery/stm32746g_discovery_lcd.c ****   */
 247:Drivers/BSP/STM32746G-Discovery/stm32746g_discovery_lcd.c **** uint32_t BSP_LCD_GetXSize(void)
 248:Drivers/BSP/STM32746G-Discovery/stm32746g_discovery_lcd.c **** {
 249:Drivers/BSP/STM32746G-Discovery/stm32746g_discovery_lcd.c ****   return hLtdcHandler.LayerCfg[ActiveLayer].ImageWidth;
 250:Drivers/BSP/STM32746G-Discovery/stm32746g_discovery_lcd.c **** }
 251:Drivers/BSP/STM32746G-Discovery/stm32746g_discovery_lcd.c **** 
 252:Drivers/BSP/STM32746G-Discovery/stm32746g_discovery_lcd.c **** /**
 253:Drivers/BSP/STM32746G-Discovery/stm32746g_discovery_lcd.c ****   * @brief  Gets the LCD Y size.
 254:Drivers/BSP/STM32746G-Discovery/stm32746g_discovery_lcd.c ****   * @retval Used LCD Y size
 255:Drivers/BSP/STM32746G-Discovery/stm32746g_discovery_lcd.c ****   */
 256:Drivers/BSP/STM32746G-Discovery/stm32746g_discovery_lcd.c **** uint32_t BSP_LCD_GetYSize(void)
 257:Drivers/BSP/STM32746G-Discovery/stm32746g_discovery_lcd.c **** {
 258:Drivers/BSP/STM32746G-Discovery/stm32746g_discovery_lcd.c ****   return hLtdcHandler.LayerCfg[ActiveLayer].ImageHeight;
 259:Drivers/BSP/STM32746G-Discovery/stm32746g_discovery_lcd.c **** }
 260:Drivers/BSP/STM32746G-Discovery/stm32746g_discovery_lcd.c **** 
ARM GAS  C:\Users\milek\AppData\Local\Temp\ccMSPWBt.s 			page 6


 261:Drivers/BSP/STM32746G-Discovery/stm32746g_discovery_lcd.c **** /**
 262:Drivers/BSP/STM32746G-Discovery/stm32746g_discovery_lcd.c ****   * @brief  Set the LCD X size.
 263:Drivers/BSP/STM32746G-Discovery/stm32746g_discovery_lcd.c ****   * @param  imageWidthPixels : image width in pixels unit
 264:Drivers/BSP/STM32746G-Discovery/stm32746g_discovery_lcd.c ****   * @retval None
 265:Drivers/BSP/STM32746G-Discovery/stm32746g_discovery_lcd.c ****   */
 266:Drivers/BSP/STM32746G-Discovery/stm32746g_discovery_lcd.c **** void BSP_LCD_SetXSize(uint32_t imageWidthPixels)
 267:Drivers/BSP/STM32746G-Discovery/stm32746g_discovery_lcd.c **** {
 268:Drivers/BSP/STM32746G-Discovery/stm32746g_discovery_lcd.c ****   hLtdcHandler.LayerCfg[ActiveLayer].ImageWidth = imageWidthPixels;
 269:Drivers/BSP/STM32746G-Discovery/stm32746g_discovery_lcd.c **** }
 270:Drivers/BSP/STM32746G-Discovery/stm32746g_discovery_lcd.c **** 
 271:Drivers/BSP/STM32746G-Discovery/stm32746g_discovery_lcd.c **** /**
 272:Drivers/BSP/STM32746G-Discovery/stm32746g_discovery_lcd.c ****   * @brief  Set the LCD Y size.
 273:Drivers/BSP/STM32746G-Discovery/stm32746g_discovery_lcd.c ****   * @param  imageHeightPixels : image height in lines unit
 274:Drivers/BSP/STM32746G-Discovery/stm32746g_discovery_lcd.c ****   * @retval None
 275:Drivers/BSP/STM32746G-Discovery/stm32746g_discovery_lcd.c ****   */
 276:Drivers/BSP/STM32746G-Discovery/stm32746g_discovery_lcd.c **** void BSP_LCD_SetYSize(uint32_t imageHeightPixels)
 277:Drivers/BSP/STM32746G-Discovery/stm32746g_discovery_lcd.c **** {
 278:Drivers/BSP/STM32746G-Discovery/stm32746g_discovery_lcd.c ****   hLtdcHandler.LayerCfg[ActiveLayer].ImageHeight = imageHeightPixels;
 279:Drivers/BSP/STM32746G-Discovery/stm32746g_discovery_lcd.c **** }
 280:Drivers/BSP/STM32746G-Discovery/stm32746g_discovery_lcd.c **** 
 281:Drivers/BSP/STM32746G-Discovery/stm32746g_discovery_lcd.c **** /**
 282:Drivers/BSP/STM32746G-Discovery/stm32746g_discovery_lcd.c ****   * @brief  Initializes the LCD layer in ARGB8888 format (32 bits per pixel).
 283:Drivers/BSP/STM32746G-Discovery/stm32746g_discovery_lcd.c ****   * @param  LayerIndex: Layer foreground or background
 284:Drivers/BSP/STM32746G-Discovery/stm32746g_discovery_lcd.c ****   * @param  FB_Address: Layer frame buffer
 285:Drivers/BSP/STM32746G-Discovery/stm32746g_discovery_lcd.c ****   * @retval None
 286:Drivers/BSP/STM32746G-Discovery/stm32746g_discovery_lcd.c ****   */
 287:Drivers/BSP/STM32746G-Discovery/stm32746g_discovery_lcd.c **** void BSP_LCD_LayerDefaultInit(uint16_t LayerIndex, uint32_t FB_Address)
 288:Drivers/BSP/STM32746G-Discovery/stm32746g_discovery_lcd.c **** {     
 289:Drivers/BSP/STM32746G-Discovery/stm32746g_discovery_lcd.c ****   LCD_LayerCfgTypeDef  layer_cfg;
 290:Drivers/BSP/STM32746G-Discovery/stm32746g_discovery_lcd.c **** 
 291:Drivers/BSP/STM32746G-Discovery/stm32746g_discovery_lcd.c ****   /* Layer Init */
 292:Drivers/BSP/STM32746G-Discovery/stm32746g_discovery_lcd.c ****   layer_cfg.WindowX0 = 0;
 293:Drivers/BSP/STM32746G-Discovery/stm32746g_discovery_lcd.c ****   layer_cfg.WindowX1 = BSP_LCD_GetXSize();
 294:Drivers/BSP/STM32746G-Discovery/stm32746g_discovery_lcd.c ****   layer_cfg.WindowY0 = 0;
 295:Drivers/BSP/STM32746G-Discovery/stm32746g_discovery_lcd.c ****   layer_cfg.WindowY1 = BSP_LCD_GetYSize(); 
 296:Drivers/BSP/STM32746G-Discovery/stm32746g_discovery_lcd.c ****   layer_cfg.PixelFormat = LTDC_PIXEL_FORMAT_ARGB8888;
 297:Drivers/BSP/STM32746G-Discovery/stm32746g_discovery_lcd.c ****   layer_cfg.FBStartAdress = FB_Address;
 298:Drivers/BSP/STM32746G-Discovery/stm32746g_discovery_lcd.c ****   layer_cfg.Alpha = 255;
 299:Drivers/BSP/STM32746G-Discovery/stm32746g_discovery_lcd.c ****   layer_cfg.Alpha0 = 0;
 300:Drivers/BSP/STM32746G-Discovery/stm32746g_discovery_lcd.c ****   layer_cfg.Backcolor.Blue = 0;
 301:Drivers/BSP/STM32746G-Discovery/stm32746g_discovery_lcd.c ****   layer_cfg.Backcolor.Green = 0;
 302:Drivers/BSP/STM32746G-Discovery/stm32746g_discovery_lcd.c ****   layer_cfg.Backcolor.Red = 0;
 303:Drivers/BSP/STM32746G-Discovery/stm32746g_discovery_lcd.c ****   layer_cfg.BlendingFactor1 = LTDC_BLENDING_FACTOR1_PAxCA;
 304:Drivers/BSP/STM32746G-Discovery/stm32746g_discovery_lcd.c ****   layer_cfg.BlendingFactor2 = LTDC_BLENDING_FACTOR2_PAxCA;
 305:Drivers/BSP/STM32746G-Discovery/stm32746g_discovery_lcd.c ****   layer_cfg.ImageWidth = BSP_LCD_GetXSize();
 306:Drivers/BSP/STM32746G-Discovery/stm32746g_discovery_lcd.c ****   layer_cfg.ImageHeight = BSP_LCD_GetYSize();
 307:Drivers/BSP/STM32746G-Discovery/stm32746g_discovery_lcd.c ****   
 308:Drivers/BSP/STM32746G-Discovery/stm32746g_discovery_lcd.c ****   HAL_LTDC_ConfigLayer(&hLtdcHandler, &layer_cfg, LayerIndex); 
 309:Drivers/BSP/STM32746G-Discovery/stm32746g_discovery_lcd.c **** 
 310:Drivers/BSP/STM32746G-Discovery/stm32746g_discovery_lcd.c ****   DrawProp[LayerIndex].BackColor = LCD_COLOR_WHITE;
 311:Drivers/BSP/STM32746G-Discovery/stm32746g_discovery_lcd.c ****   DrawProp[LayerIndex].pFont     = &Font24;
 312:Drivers/BSP/STM32746G-Discovery/stm32746g_discovery_lcd.c ****   DrawProp[LayerIndex].TextColor = LCD_COLOR_BLACK; 
 313:Drivers/BSP/STM32746G-Discovery/stm32746g_discovery_lcd.c **** }
 314:Drivers/BSP/STM32746G-Discovery/stm32746g_discovery_lcd.c **** 
 315:Drivers/BSP/STM32746G-Discovery/stm32746g_discovery_lcd.c **** /**
 316:Drivers/BSP/STM32746G-Discovery/stm32746g_discovery_lcd.c ****   * @brief  Initializes the LCD layer in RGB565 format (16 bits per pixel).
 317:Drivers/BSP/STM32746G-Discovery/stm32746g_discovery_lcd.c ****   * @param  LayerIndex: Layer foreground or background
ARM GAS  C:\Users\milek\AppData\Local\Temp\ccMSPWBt.s 			page 7


 318:Drivers/BSP/STM32746G-Discovery/stm32746g_discovery_lcd.c ****   * @param  FB_Address: Layer frame buffer
 319:Drivers/BSP/STM32746G-Discovery/stm32746g_discovery_lcd.c ****   * @retval None
 320:Drivers/BSP/STM32746G-Discovery/stm32746g_discovery_lcd.c ****   */
 321:Drivers/BSP/STM32746G-Discovery/stm32746g_discovery_lcd.c **** void BSP_LCD_LayerRgb565Init(uint16_t LayerIndex, uint32_t FB_Address)
 322:Drivers/BSP/STM32746G-Discovery/stm32746g_discovery_lcd.c **** {     
 323:Drivers/BSP/STM32746G-Discovery/stm32746g_discovery_lcd.c ****   LCD_LayerCfgTypeDef  layer_cfg;
 324:Drivers/BSP/STM32746G-Discovery/stm32746g_discovery_lcd.c **** 
 325:Drivers/BSP/STM32746G-Discovery/stm32746g_discovery_lcd.c ****   /* Layer Init */
 326:Drivers/BSP/STM32746G-Discovery/stm32746g_discovery_lcd.c ****   layer_cfg.WindowX0 = 0;
 327:Drivers/BSP/STM32746G-Discovery/stm32746g_discovery_lcd.c ****   layer_cfg.WindowX1 = BSP_LCD_GetXSize();
 328:Drivers/BSP/STM32746G-Discovery/stm32746g_discovery_lcd.c ****   layer_cfg.WindowY0 = 0;
 329:Drivers/BSP/STM32746G-Discovery/stm32746g_discovery_lcd.c ****   layer_cfg.WindowY1 = BSP_LCD_GetYSize(); 
 330:Drivers/BSP/STM32746G-Discovery/stm32746g_discovery_lcd.c ****   layer_cfg.PixelFormat = LTDC_PIXEL_FORMAT_RGB565;
 331:Drivers/BSP/STM32746G-Discovery/stm32746g_discovery_lcd.c ****   layer_cfg.FBStartAdress = FB_Address;
 332:Drivers/BSP/STM32746G-Discovery/stm32746g_discovery_lcd.c ****   layer_cfg.Alpha = 255;
 333:Drivers/BSP/STM32746G-Discovery/stm32746g_discovery_lcd.c ****   layer_cfg.Alpha0 = 0;
 334:Drivers/BSP/STM32746G-Discovery/stm32746g_discovery_lcd.c ****   layer_cfg.Backcolor.Blue = 0;
 335:Drivers/BSP/STM32746G-Discovery/stm32746g_discovery_lcd.c ****   layer_cfg.Backcolor.Green = 0;
 336:Drivers/BSP/STM32746G-Discovery/stm32746g_discovery_lcd.c ****   layer_cfg.Backcolor.Red = 0;
 337:Drivers/BSP/STM32746G-Discovery/stm32746g_discovery_lcd.c ****   layer_cfg.BlendingFactor1 = LTDC_BLENDING_FACTOR1_PAxCA;
 338:Drivers/BSP/STM32746G-Discovery/stm32746g_discovery_lcd.c ****   layer_cfg.BlendingFactor2 = LTDC_BLENDING_FACTOR2_PAxCA;
 339:Drivers/BSP/STM32746G-Discovery/stm32746g_discovery_lcd.c ****   layer_cfg.ImageWidth = BSP_LCD_GetXSize();
 340:Drivers/BSP/STM32746G-Discovery/stm32746g_discovery_lcd.c ****   layer_cfg.ImageHeight = BSP_LCD_GetYSize();
 341:Drivers/BSP/STM32746G-Discovery/stm32746g_discovery_lcd.c ****   
 342:Drivers/BSP/STM32746G-Discovery/stm32746g_discovery_lcd.c ****   HAL_LTDC_ConfigLayer(&hLtdcHandler, &layer_cfg, LayerIndex); 
 343:Drivers/BSP/STM32746G-Discovery/stm32746g_discovery_lcd.c **** 
 344:Drivers/BSP/STM32746G-Discovery/stm32746g_discovery_lcd.c ****   DrawProp[LayerIndex].BackColor = LCD_COLOR_WHITE;
 345:Drivers/BSP/STM32746G-Discovery/stm32746g_discovery_lcd.c ****   DrawProp[LayerIndex].pFont     = &Font24;
 346:Drivers/BSP/STM32746G-Discovery/stm32746g_discovery_lcd.c ****   DrawProp[LayerIndex].TextColor = LCD_COLOR_BLACK; 
 347:Drivers/BSP/STM32746G-Discovery/stm32746g_discovery_lcd.c **** }
 348:Drivers/BSP/STM32746G-Discovery/stm32746g_discovery_lcd.c **** 
 349:Drivers/BSP/STM32746G-Discovery/stm32746g_discovery_lcd.c **** /**
 350:Drivers/BSP/STM32746G-Discovery/stm32746g_discovery_lcd.c ****   * @brief  Selects the LCD Layer.
 351:Drivers/BSP/STM32746G-Discovery/stm32746g_discovery_lcd.c ****   * @param  LayerIndex: Layer foreground or background
 352:Drivers/BSP/STM32746G-Discovery/stm32746g_discovery_lcd.c ****   * @retval None
 353:Drivers/BSP/STM32746G-Discovery/stm32746g_discovery_lcd.c ****   */
 354:Drivers/BSP/STM32746G-Discovery/stm32746g_discovery_lcd.c **** void BSP_LCD_SelectLayer(uint32_t LayerIndex)
 355:Drivers/BSP/STM32746G-Discovery/stm32746g_discovery_lcd.c **** {
 356:Drivers/BSP/STM32746G-Discovery/stm32746g_discovery_lcd.c ****   ActiveLayer = LayerIndex;
 357:Drivers/BSP/STM32746G-Discovery/stm32746g_discovery_lcd.c **** } 
 358:Drivers/BSP/STM32746G-Discovery/stm32746g_discovery_lcd.c **** 
 359:Drivers/BSP/STM32746G-Discovery/stm32746g_discovery_lcd.c **** /**
 360:Drivers/BSP/STM32746G-Discovery/stm32746g_discovery_lcd.c ****   * @brief  Sets an LCD Layer visible
 361:Drivers/BSP/STM32746G-Discovery/stm32746g_discovery_lcd.c ****   * @param  LayerIndex: Visible Layer
 362:Drivers/BSP/STM32746G-Discovery/stm32746g_discovery_lcd.c ****   * @param  State: New state of the specified layer
 363:Drivers/BSP/STM32746G-Discovery/stm32746g_discovery_lcd.c ****   *          This parameter can be one of the following values:
 364:Drivers/BSP/STM32746G-Discovery/stm32746g_discovery_lcd.c ****   *            @arg  ENABLE
 365:Drivers/BSP/STM32746G-Discovery/stm32746g_discovery_lcd.c ****   *            @arg  DISABLE 
 366:Drivers/BSP/STM32746G-Discovery/stm32746g_discovery_lcd.c ****   * @retval None
 367:Drivers/BSP/STM32746G-Discovery/stm32746g_discovery_lcd.c ****   */
 368:Drivers/BSP/STM32746G-Discovery/stm32746g_discovery_lcd.c **** void BSP_LCD_SetLayerVisible(uint32_t LayerIndex, FunctionalState State)
 369:Drivers/BSP/STM32746G-Discovery/stm32746g_discovery_lcd.c **** {
 370:Drivers/BSP/STM32746G-Discovery/stm32746g_discovery_lcd.c ****   if(State == ENABLE)
 371:Drivers/BSP/STM32746G-Discovery/stm32746g_discovery_lcd.c ****   {
 372:Drivers/BSP/STM32746G-Discovery/stm32746g_discovery_lcd.c ****     __HAL_LTDC_LAYER_ENABLE(&hLtdcHandler, LayerIndex);
 373:Drivers/BSP/STM32746G-Discovery/stm32746g_discovery_lcd.c ****   }
 374:Drivers/BSP/STM32746G-Discovery/stm32746g_discovery_lcd.c ****   else
ARM GAS  C:\Users\milek\AppData\Local\Temp\ccMSPWBt.s 			page 8


 375:Drivers/BSP/STM32746G-Discovery/stm32746g_discovery_lcd.c ****   {
 376:Drivers/BSP/STM32746G-Discovery/stm32746g_discovery_lcd.c ****     __HAL_LTDC_LAYER_DISABLE(&hLtdcHandler, LayerIndex);
 377:Drivers/BSP/STM32746G-Discovery/stm32746g_discovery_lcd.c ****   }
 378:Drivers/BSP/STM32746G-Discovery/stm32746g_discovery_lcd.c ****   __HAL_LTDC_RELOAD_CONFIG(&hLtdcHandler);
 379:Drivers/BSP/STM32746G-Discovery/stm32746g_discovery_lcd.c **** } 
 380:Drivers/BSP/STM32746G-Discovery/stm32746g_discovery_lcd.c **** 
 381:Drivers/BSP/STM32746G-Discovery/stm32746g_discovery_lcd.c **** /**
 382:Drivers/BSP/STM32746G-Discovery/stm32746g_discovery_lcd.c ****   * @brief  Sets an LCD Layer visible without reloading.
 383:Drivers/BSP/STM32746G-Discovery/stm32746g_discovery_lcd.c ****   * @param  LayerIndex: Visible Layer
 384:Drivers/BSP/STM32746G-Discovery/stm32746g_discovery_lcd.c ****   * @param  State: New state of the specified layer
 385:Drivers/BSP/STM32746G-Discovery/stm32746g_discovery_lcd.c ****   *          This parameter can be one of the following values:
 386:Drivers/BSP/STM32746G-Discovery/stm32746g_discovery_lcd.c ****   *            @arg  ENABLE
 387:Drivers/BSP/STM32746G-Discovery/stm32746g_discovery_lcd.c ****   *            @arg  DISABLE 
 388:Drivers/BSP/STM32746G-Discovery/stm32746g_discovery_lcd.c ****   * @retval None
 389:Drivers/BSP/STM32746G-Discovery/stm32746g_discovery_lcd.c ****   */
 390:Drivers/BSP/STM32746G-Discovery/stm32746g_discovery_lcd.c **** void BSP_LCD_SetLayerVisible_NoReload(uint32_t LayerIndex, FunctionalState State)
 391:Drivers/BSP/STM32746G-Discovery/stm32746g_discovery_lcd.c **** {
 392:Drivers/BSP/STM32746G-Discovery/stm32746g_discovery_lcd.c ****   if(State == ENABLE)
 393:Drivers/BSP/STM32746G-Discovery/stm32746g_discovery_lcd.c ****   {
 394:Drivers/BSP/STM32746G-Discovery/stm32746g_discovery_lcd.c ****     __HAL_LTDC_LAYER_ENABLE(&hLtdcHandler, LayerIndex);
 395:Drivers/BSP/STM32746G-Discovery/stm32746g_discovery_lcd.c ****   }
 396:Drivers/BSP/STM32746G-Discovery/stm32746g_discovery_lcd.c ****   else
 397:Drivers/BSP/STM32746G-Discovery/stm32746g_discovery_lcd.c ****   {
 398:Drivers/BSP/STM32746G-Discovery/stm32746g_discovery_lcd.c ****     __HAL_LTDC_LAYER_DISABLE(&hLtdcHandler, LayerIndex);
 399:Drivers/BSP/STM32746G-Discovery/stm32746g_discovery_lcd.c ****   }
 400:Drivers/BSP/STM32746G-Discovery/stm32746g_discovery_lcd.c ****   /* Do not Sets the Reload  */
 401:Drivers/BSP/STM32746G-Discovery/stm32746g_discovery_lcd.c **** } 
 402:Drivers/BSP/STM32746G-Discovery/stm32746g_discovery_lcd.c **** 
 403:Drivers/BSP/STM32746G-Discovery/stm32746g_discovery_lcd.c **** /**
 404:Drivers/BSP/STM32746G-Discovery/stm32746g_discovery_lcd.c ****   * @brief  Configures the transparency.
 405:Drivers/BSP/STM32746G-Discovery/stm32746g_discovery_lcd.c ****   * @param  LayerIndex: Layer foreground or background.
 406:Drivers/BSP/STM32746G-Discovery/stm32746g_discovery_lcd.c ****   * @param  Transparency: Transparency
 407:Drivers/BSP/STM32746G-Discovery/stm32746g_discovery_lcd.c ****   *           This parameter must be a number between Min_Data = 0x00 and Max_Data = 0xFF 
 408:Drivers/BSP/STM32746G-Discovery/stm32746g_discovery_lcd.c ****   * @retval None
 409:Drivers/BSP/STM32746G-Discovery/stm32746g_discovery_lcd.c ****   */
 410:Drivers/BSP/STM32746G-Discovery/stm32746g_discovery_lcd.c **** void BSP_LCD_SetTransparency(uint32_t LayerIndex, uint8_t Transparency)
 411:Drivers/BSP/STM32746G-Discovery/stm32746g_discovery_lcd.c **** {    
 412:Drivers/BSP/STM32746G-Discovery/stm32746g_discovery_lcd.c ****   HAL_LTDC_SetAlpha(&hLtdcHandler, Transparency, LayerIndex);
 413:Drivers/BSP/STM32746G-Discovery/stm32746g_discovery_lcd.c **** }
 414:Drivers/BSP/STM32746G-Discovery/stm32746g_discovery_lcd.c **** 
 415:Drivers/BSP/STM32746G-Discovery/stm32746g_discovery_lcd.c **** /**
 416:Drivers/BSP/STM32746G-Discovery/stm32746g_discovery_lcd.c ****   * @brief  Configures the transparency without reloading.
 417:Drivers/BSP/STM32746G-Discovery/stm32746g_discovery_lcd.c ****   * @param  LayerIndex: Layer foreground or background.
 418:Drivers/BSP/STM32746G-Discovery/stm32746g_discovery_lcd.c ****   * @param  Transparency: Transparency
 419:Drivers/BSP/STM32746G-Discovery/stm32746g_discovery_lcd.c ****   *           This parameter must be a number between Min_Data = 0x00 and Max_Data = 0xFF 
 420:Drivers/BSP/STM32746G-Discovery/stm32746g_discovery_lcd.c ****   * @retval None
 421:Drivers/BSP/STM32746G-Discovery/stm32746g_discovery_lcd.c ****   */
 422:Drivers/BSP/STM32746G-Discovery/stm32746g_discovery_lcd.c **** void BSP_LCD_SetTransparency_NoReload(uint32_t LayerIndex, uint8_t Transparency)
 423:Drivers/BSP/STM32746G-Discovery/stm32746g_discovery_lcd.c **** {    
 424:Drivers/BSP/STM32746G-Discovery/stm32746g_discovery_lcd.c ****   HAL_LTDC_SetAlpha_NoReload(&hLtdcHandler, Transparency, LayerIndex);
 425:Drivers/BSP/STM32746G-Discovery/stm32746g_discovery_lcd.c **** }
 426:Drivers/BSP/STM32746G-Discovery/stm32746g_discovery_lcd.c **** 
 427:Drivers/BSP/STM32746G-Discovery/stm32746g_discovery_lcd.c **** /**
 428:Drivers/BSP/STM32746G-Discovery/stm32746g_discovery_lcd.c ****   * @brief  Sets an LCD layer frame buffer address.
 429:Drivers/BSP/STM32746G-Discovery/stm32746g_discovery_lcd.c ****   * @param  LayerIndex: Layer foreground or background
 430:Drivers/BSP/STM32746G-Discovery/stm32746g_discovery_lcd.c ****   * @param  Address: New LCD frame buffer value      
 431:Drivers/BSP/STM32746G-Discovery/stm32746g_discovery_lcd.c ****   * @retval None
ARM GAS  C:\Users\milek\AppData\Local\Temp\ccMSPWBt.s 			page 9


 432:Drivers/BSP/STM32746G-Discovery/stm32746g_discovery_lcd.c ****   */
 433:Drivers/BSP/STM32746G-Discovery/stm32746g_discovery_lcd.c **** void BSP_LCD_SetLayerAddress(uint32_t LayerIndex, uint32_t Address)
 434:Drivers/BSP/STM32746G-Discovery/stm32746g_discovery_lcd.c **** {
 435:Drivers/BSP/STM32746G-Discovery/stm32746g_discovery_lcd.c ****   HAL_LTDC_SetAddress(&hLtdcHandler, Address, LayerIndex);
 436:Drivers/BSP/STM32746G-Discovery/stm32746g_discovery_lcd.c **** }
 437:Drivers/BSP/STM32746G-Discovery/stm32746g_discovery_lcd.c **** 
 438:Drivers/BSP/STM32746G-Discovery/stm32746g_discovery_lcd.c **** /**
 439:Drivers/BSP/STM32746G-Discovery/stm32746g_discovery_lcd.c ****   * @brief  Sets an LCD layer frame buffer address without reloading.
 440:Drivers/BSP/STM32746G-Discovery/stm32746g_discovery_lcd.c ****   * @param  LayerIndex: Layer foreground or background
 441:Drivers/BSP/STM32746G-Discovery/stm32746g_discovery_lcd.c ****   * @param  Address: New LCD frame buffer value      
 442:Drivers/BSP/STM32746G-Discovery/stm32746g_discovery_lcd.c ****   * @retval None
 443:Drivers/BSP/STM32746G-Discovery/stm32746g_discovery_lcd.c ****   */
 444:Drivers/BSP/STM32746G-Discovery/stm32746g_discovery_lcd.c **** void BSP_LCD_SetLayerAddress_NoReload(uint32_t LayerIndex, uint32_t Address)
 445:Drivers/BSP/STM32746G-Discovery/stm32746g_discovery_lcd.c **** {
 446:Drivers/BSP/STM32746G-Discovery/stm32746g_discovery_lcd.c ****   HAL_LTDC_SetAddress_NoReload(&hLtdcHandler, Address, LayerIndex);
 447:Drivers/BSP/STM32746G-Discovery/stm32746g_discovery_lcd.c **** }
 448:Drivers/BSP/STM32746G-Discovery/stm32746g_discovery_lcd.c **** 
 449:Drivers/BSP/STM32746G-Discovery/stm32746g_discovery_lcd.c **** /**
 450:Drivers/BSP/STM32746G-Discovery/stm32746g_discovery_lcd.c ****   * @brief  Sets display window.
 451:Drivers/BSP/STM32746G-Discovery/stm32746g_discovery_lcd.c ****   * @param  LayerIndex: Layer index
 452:Drivers/BSP/STM32746G-Discovery/stm32746g_discovery_lcd.c ****   * @param  Xpos: LCD X position
 453:Drivers/BSP/STM32746G-Discovery/stm32746g_discovery_lcd.c ****   * @param  Ypos: LCD Y position
 454:Drivers/BSP/STM32746G-Discovery/stm32746g_discovery_lcd.c ****   * @param  Width: LCD window width
 455:Drivers/BSP/STM32746G-Discovery/stm32746g_discovery_lcd.c ****   * @param  Height: LCD window height  
 456:Drivers/BSP/STM32746G-Discovery/stm32746g_discovery_lcd.c ****   * @retval None
 457:Drivers/BSP/STM32746G-Discovery/stm32746g_discovery_lcd.c ****   */
 458:Drivers/BSP/STM32746G-Discovery/stm32746g_discovery_lcd.c **** void BSP_LCD_SetLayerWindow(uint16_t LayerIndex, uint16_t Xpos, uint16_t Ypos, uint16_t Width, uint
 459:Drivers/BSP/STM32746G-Discovery/stm32746g_discovery_lcd.c **** {
 460:Drivers/BSP/STM32746G-Discovery/stm32746g_discovery_lcd.c ****   /* Reconfigure the layer size */
 461:Drivers/BSP/STM32746G-Discovery/stm32746g_discovery_lcd.c ****   HAL_LTDC_SetWindowSize(&hLtdcHandler, Width, Height, LayerIndex);
 462:Drivers/BSP/STM32746G-Discovery/stm32746g_discovery_lcd.c ****   
 463:Drivers/BSP/STM32746G-Discovery/stm32746g_discovery_lcd.c ****   /* Reconfigure the layer position */
 464:Drivers/BSP/STM32746G-Discovery/stm32746g_discovery_lcd.c ****   HAL_LTDC_SetWindowPosition(&hLtdcHandler, Xpos, Ypos, LayerIndex); 
 465:Drivers/BSP/STM32746G-Discovery/stm32746g_discovery_lcd.c **** }
 466:Drivers/BSP/STM32746G-Discovery/stm32746g_discovery_lcd.c **** 
 467:Drivers/BSP/STM32746G-Discovery/stm32746g_discovery_lcd.c **** /**
 468:Drivers/BSP/STM32746G-Discovery/stm32746g_discovery_lcd.c ****   * @brief  Sets display window without reloading.
 469:Drivers/BSP/STM32746G-Discovery/stm32746g_discovery_lcd.c ****   * @param  LayerIndex: Layer index
 470:Drivers/BSP/STM32746G-Discovery/stm32746g_discovery_lcd.c ****   * @param  Xpos: LCD X position
 471:Drivers/BSP/STM32746G-Discovery/stm32746g_discovery_lcd.c ****   * @param  Ypos: LCD Y position
 472:Drivers/BSP/STM32746G-Discovery/stm32746g_discovery_lcd.c ****   * @param  Width: LCD window width
 473:Drivers/BSP/STM32746G-Discovery/stm32746g_discovery_lcd.c ****   * @param  Height: LCD window height  
 474:Drivers/BSP/STM32746G-Discovery/stm32746g_discovery_lcd.c ****   * @retval None
 475:Drivers/BSP/STM32746G-Discovery/stm32746g_discovery_lcd.c ****   */
 476:Drivers/BSP/STM32746G-Discovery/stm32746g_discovery_lcd.c **** void BSP_LCD_SetLayerWindow_NoReload(uint16_t LayerIndex, uint16_t Xpos, uint16_t Ypos, uint16_t Wi
 477:Drivers/BSP/STM32746G-Discovery/stm32746g_discovery_lcd.c **** {
 478:Drivers/BSP/STM32746G-Discovery/stm32746g_discovery_lcd.c ****   /* Reconfigure the layer size */
 479:Drivers/BSP/STM32746G-Discovery/stm32746g_discovery_lcd.c ****   HAL_LTDC_SetWindowSize_NoReload(&hLtdcHandler, Width, Height, LayerIndex);
 480:Drivers/BSP/STM32746G-Discovery/stm32746g_discovery_lcd.c ****   
 481:Drivers/BSP/STM32746G-Discovery/stm32746g_discovery_lcd.c ****   /* Reconfigure the layer position */
 482:Drivers/BSP/STM32746G-Discovery/stm32746g_discovery_lcd.c ****   HAL_LTDC_SetWindowPosition_NoReload(&hLtdcHandler, Xpos, Ypos, LayerIndex); 
 483:Drivers/BSP/STM32746G-Discovery/stm32746g_discovery_lcd.c **** }
 484:Drivers/BSP/STM32746G-Discovery/stm32746g_discovery_lcd.c **** 
 485:Drivers/BSP/STM32746G-Discovery/stm32746g_discovery_lcd.c **** /**
 486:Drivers/BSP/STM32746G-Discovery/stm32746g_discovery_lcd.c ****   * @brief  Configures and sets the color keying.
 487:Drivers/BSP/STM32746G-Discovery/stm32746g_discovery_lcd.c ****   * @param  LayerIndex: Layer foreground or background
 488:Drivers/BSP/STM32746G-Discovery/stm32746g_discovery_lcd.c ****   * @param  RGBValue: Color reference
ARM GAS  C:\Users\milek\AppData\Local\Temp\ccMSPWBt.s 			page 10


 489:Drivers/BSP/STM32746G-Discovery/stm32746g_discovery_lcd.c ****   * @retval None
 490:Drivers/BSP/STM32746G-Discovery/stm32746g_discovery_lcd.c ****   */
 491:Drivers/BSP/STM32746G-Discovery/stm32746g_discovery_lcd.c **** void BSP_LCD_SetColorKeying(uint32_t LayerIndex, uint32_t RGBValue)
 492:Drivers/BSP/STM32746G-Discovery/stm32746g_discovery_lcd.c **** {  
 493:Drivers/BSP/STM32746G-Discovery/stm32746g_discovery_lcd.c ****   /* Configure and Enable the color Keying for LCD Layer */
 494:Drivers/BSP/STM32746G-Discovery/stm32746g_discovery_lcd.c ****   HAL_LTDC_ConfigColorKeying(&hLtdcHandler, RGBValue, LayerIndex);
 495:Drivers/BSP/STM32746G-Discovery/stm32746g_discovery_lcd.c ****   HAL_LTDC_EnableColorKeying(&hLtdcHandler, LayerIndex);
 496:Drivers/BSP/STM32746G-Discovery/stm32746g_discovery_lcd.c **** }
 497:Drivers/BSP/STM32746G-Discovery/stm32746g_discovery_lcd.c **** 
 498:Drivers/BSP/STM32746G-Discovery/stm32746g_discovery_lcd.c **** /**
 499:Drivers/BSP/STM32746G-Discovery/stm32746g_discovery_lcd.c ****   * @brief  Configures and sets the color keying without reloading.
 500:Drivers/BSP/STM32746G-Discovery/stm32746g_discovery_lcd.c ****   * @param  LayerIndex: Layer foreground or background
 501:Drivers/BSP/STM32746G-Discovery/stm32746g_discovery_lcd.c ****   * @param  RGBValue: Color reference
 502:Drivers/BSP/STM32746G-Discovery/stm32746g_discovery_lcd.c ****   * @retval None
 503:Drivers/BSP/STM32746G-Discovery/stm32746g_discovery_lcd.c ****   */
 504:Drivers/BSP/STM32746G-Discovery/stm32746g_discovery_lcd.c **** void BSP_LCD_SetColorKeying_NoReload(uint32_t LayerIndex, uint32_t RGBValue)
 505:Drivers/BSP/STM32746G-Discovery/stm32746g_discovery_lcd.c **** {  
 506:Drivers/BSP/STM32746G-Discovery/stm32746g_discovery_lcd.c ****   /* Configure and Enable the color Keying for LCD Layer */
 507:Drivers/BSP/STM32746G-Discovery/stm32746g_discovery_lcd.c ****   HAL_LTDC_ConfigColorKeying_NoReload(&hLtdcHandler, RGBValue, LayerIndex);
 508:Drivers/BSP/STM32746G-Discovery/stm32746g_discovery_lcd.c ****   HAL_LTDC_EnableColorKeying_NoReload(&hLtdcHandler, LayerIndex);
 509:Drivers/BSP/STM32746G-Discovery/stm32746g_discovery_lcd.c **** }
 510:Drivers/BSP/STM32746G-Discovery/stm32746g_discovery_lcd.c **** 
 511:Drivers/BSP/STM32746G-Discovery/stm32746g_discovery_lcd.c **** /**
 512:Drivers/BSP/STM32746G-Discovery/stm32746g_discovery_lcd.c ****   * @brief  Disables the color keying.
 513:Drivers/BSP/STM32746G-Discovery/stm32746g_discovery_lcd.c ****   * @param  LayerIndex: Layer foreground or background
 514:Drivers/BSP/STM32746G-Discovery/stm32746g_discovery_lcd.c ****   * @retval None
 515:Drivers/BSP/STM32746G-Discovery/stm32746g_discovery_lcd.c ****   */
 516:Drivers/BSP/STM32746G-Discovery/stm32746g_discovery_lcd.c **** void BSP_LCD_ResetColorKeying(uint32_t LayerIndex)
 517:Drivers/BSP/STM32746G-Discovery/stm32746g_discovery_lcd.c **** {   
 518:Drivers/BSP/STM32746G-Discovery/stm32746g_discovery_lcd.c ****   /* Disable the color Keying for LCD Layer */
 519:Drivers/BSP/STM32746G-Discovery/stm32746g_discovery_lcd.c ****   HAL_LTDC_DisableColorKeying(&hLtdcHandler, LayerIndex);
 520:Drivers/BSP/STM32746G-Discovery/stm32746g_discovery_lcd.c **** }
 521:Drivers/BSP/STM32746G-Discovery/stm32746g_discovery_lcd.c **** 
 522:Drivers/BSP/STM32746G-Discovery/stm32746g_discovery_lcd.c **** /**
 523:Drivers/BSP/STM32746G-Discovery/stm32746g_discovery_lcd.c ****   * @brief  Disables the color keying without reloading.
 524:Drivers/BSP/STM32746G-Discovery/stm32746g_discovery_lcd.c ****   * @param  LayerIndex: Layer foreground or background
 525:Drivers/BSP/STM32746G-Discovery/stm32746g_discovery_lcd.c ****   * @retval None
 526:Drivers/BSP/STM32746G-Discovery/stm32746g_discovery_lcd.c ****   */
 527:Drivers/BSP/STM32746G-Discovery/stm32746g_discovery_lcd.c **** void BSP_LCD_ResetColorKeying_NoReload(uint32_t LayerIndex)
 528:Drivers/BSP/STM32746G-Discovery/stm32746g_discovery_lcd.c **** {   
 529:Drivers/BSP/STM32746G-Discovery/stm32746g_discovery_lcd.c ****   /* Disable the color Keying for LCD Layer */
 530:Drivers/BSP/STM32746G-Discovery/stm32746g_discovery_lcd.c ****   HAL_LTDC_DisableColorKeying_NoReload(&hLtdcHandler, LayerIndex);
 531:Drivers/BSP/STM32746G-Discovery/stm32746g_discovery_lcd.c **** }
 532:Drivers/BSP/STM32746G-Discovery/stm32746g_discovery_lcd.c **** 
 533:Drivers/BSP/STM32746G-Discovery/stm32746g_discovery_lcd.c **** /**
 534:Drivers/BSP/STM32746G-Discovery/stm32746g_discovery_lcd.c ****   * @brief  Disables the color keying without reloading.
 535:Drivers/BSP/STM32746G-Discovery/stm32746g_discovery_lcd.c ****   * @param  ReloadType: can be one of the following values 
 536:Drivers/BSP/STM32746G-Discovery/stm32746g_discovery_lcd.c ****   *         - LCD_RELOAD_IMMEDIATE 
 537:Drivers/BSP/STM32746G-Discovery/stm32746g_discovery_lcd.c ****   *         - LCD_RELOAD_VERTICAL_BLANKING
 538:Drivers/BSP/STM32746G-Discovery/stm32746g_discovery_lcd.c ****   * @retval None
 539:Drivers/BSP/STM32746G-Discovery/stm32746g_discovery_lcd.c ****   */
 540:Drivers/BSP/STM32746G-Discovery/stm32746g_discovery_lcd.c **** void BSP_LCD_Reload(uint32_t ReloadType)
 541:Drivers/BSP/STM32746G-Discovery/stm32746g_discovery_lcd.c **** {
 542:Drivers/BSP/STM32746G-Discovery/stm32746g_discovery_lcd.c ****   HAL_LTDC_Reload (&hLtdcHandler, ReloadType);
 543:Drivers/BSP/STM32746G-Discovery/stm32746g_discovery_lcd.c **** }
 544:Drivers/BSP/STM32746G-Discovery/stm32746g_discovery_lcd.c **** 
 545:Drivers/BSP/STM32746G-Discovery/stm32746g_discovery_lcd.c **** /**
ARM GAS  C:\Users\milek\AppData\Local\Temp\ccMSPWBt.s 			page 11


 546:Drivers/BSP/STM32746G-Discovery/stm32746g_discovery_lcd.c ****   * @brief  Sets the LCD text color.
 547:Drivers/BSP/STM32746G-Discovery/stm32746g_discovery_lcd.c ****   * @param  Color: Text color code ARGB(8-8-8-8)
 548:Drivers/BSP/STM32746G-Discovery/stm32746g_discovery_lcd.c ****   * @retval None
 549:Drivers/BSP/STM32746G-Discovery/stm32746g_discovery_lcd.c ****   */
 550:Drivers/BSP/STM32746G-Discovery/stm32746g_discovery_lcd.c **** void BSP_LCD_SetTextColor(uint32_t Color)
 551:Drivers/BSP/STM32746G-Discovery/stm32746g_discovery_lcd.c **** {
 552:Drivers/BSP/STM32746G-Discovery/stm32746g_discovery_lcd.c ****   DrawProp[ActiveLayer].TextColor = Color;
 553:Drivers/BSP/STM32746G-Discovery/stm32746g_discovery_lcd.c **** }
 554:Drivers/BSP/STM32746G-Discovery/stm32746g_discovery_lcd.c **** 
 555:Drivers/BSP/STM32746G-Discovery/stm32746g_discovery_lcd.c **** /**
 556:Drivers/BSP/STM32746G-Discovery/stm32746g_discovery_lcd.c ****   * @brief  Gets the LCD text color.
 557:Drivers/BSP/STM32746G-Discovery/stm32746g_discovery_lcd.c ****   * @retval Used text color.
 558:Drivers/BSP/STM32746G-Discovery/stm32746g_discovery_lcd.c ****   */
 559:Drivers/BSP/STM32746G-Discovery/stm32746g_discovery_lcd.c **** uint32_t BSP_LCD_GetTextColor(void)
 560:Drivers/BSP/STM32746G-Discovery/stm32746g_discovery_lcd.c **** {
 561:Drivers/BSP/STM32746G-Discovery/stm32746g_discovery_lcd.c ****   return DrawProp[ActiveLayer].TextColor;
 562:Drivers/BSP/STM32746G-Discovery/stm32746g_discovery_lcd.c **** }
 563:Drivers/BSP/STM32746G-Discovery/stm32746g_discovery_lcd.c **** 
 564:Drivers/BSP/STM32746G-Discovery/stm32746g_discovery_lcd.c **** /**
 565:Drivers/BSP/STM32746G-Discovery/stm32746g_discovery_lcd.c ****   * @brief  Sets the LCD background color.
 566:Drivers/BSP/STM32746G-Discovery/stm32746g_discovery_lcd.c ****   * @param  Color: Layer background color code ARGB(8-8-8-8)
 567:Drivers/BSP/STM32746G-Discovery/stm32746g_discovery_lcd.c ****   * @retval None
 568:Drivers/BSP/STM32746G-Discovery/stm32746g_discovery_lcd.c ****   */
 569:Drivers/BSP/STM32746G-Discovery/stm32746g_discovery_lcd.c **** void BSP_LCD_SetBackColor(uint32_t Color)
 570:Drivers/BSP/STM32746G-Discovery/stm32746g_discovery_lcd.c **** {
 571:Drivers/BSP/STM32746G-Discovery/stm32746g_discovery_lcd.c ****   DrawProp[ActiveLayer].BackColor = Color;
 572:Drivers/BSP/STM32746G-Discovery/stm32746g_discovery_lcd.c **** }
 573:Drivers/BSP/STM32746G-Discovery/stm32746g_discovery_lcd.c **** 
 574:Drivers/BSP/STM32746G-Discovery/stm32746g_discovery_lcd.c **** /**
 575:Drivers/BSP/STM32746G-Discovery/stm32746g_discovery_lcd.c ****   * @brief  Gets the LCD background color.
 576:Drivers/BSP/STM32746G-Discovery/stm32746g_discovery_lcd.c ****   * @retval Used background colour
 577:Drivers/BSP/STM32746G-Discovery/stm32746g_discovery_lcd.c ****   */
 578:Drivers/BSP/STM32746G-Discovery/stm32746g_discovery_lcd.c **** uint32_t BSP_LCD_GetBackColor(void)
 579:Drivers/BSP/STM32746G-Discovery/stm32746g_discovery_lcd.c **** {
 580:Drivers/BSP/STM32746G-Discovery/stm32746g_discovery_lcd.c ****   return DrawProp[ActiveLayer].BackColor;
 581:Drivers/BSP/STM32746G-Discovery/stm32746g_discovery_lcd.c **** }
 582:Drivers/BSP/STM32746G-Discovery/stm32746g_discovery_lcd.c **** 
 583:Drivers/BSP/STM32746G-Discovery/stm32746g_discovery_lcd.c **** /**
 584:Drivers/BSP/STM32746G-Discovery/stm32746g_discovery_lcd.c ****   * @brief  Sets the LCD text font.
 585:Drivers/BSP/STM32746G-Discovery/stm32746g_discovery_lcd.c ****   * @param  fonts: Layer font to be used
 586:Drivers/BSP/STM32746G-Discovery/stm32746g_discovery_lcd.c ****   * @retval None
 587:Drivers/BSP/STM32746G-Discovery/stm32746g_discovery_lcd.c ****   */
 588:Drivers/BSP/STM32746G-Discovery/stm32746g_discovery_lcd.c **** void BSP_LCD_SetFont(sFONT *fonts)
 589:Drivers/BSP/STM32746G-Discovery/stm32746g_discovery_lcd.c **** {
 590:Drivers/BSP/STM32746G-Discovery/stm32746g_discovery_lcd.c ****   DrawProp[ActiveLayer].pFont = fonts;
 591:Drivers/BSP/STM32746G-Discovery/stm32746g_discovery_lcd.c **** }
 592:Drivers/BSP/STM32746G-Discovery/stm32746g_discovery_lcd.c **** 
 593:Drivers/BSP/STM32746G-Discovery/stm32746g_discovery_lcd.c **** /**
 594:Drivers/BSP/STM32746G-Discovery/stm32746g_discovery_lcd.c ****   * @brief  Gets the LCD text font.
 595:Drivers/BSP/STM32746G-Discovery/stm32746g_discovery_lcd.c ****   * @retval Used layer font
 596:Drivers/BSP/STM32746G-Discovery/stm32746g_discovery_lcd.c ****   */
 597:Drivers/BSP/STM32746G-Discovery/stm32746g_discovery_lcd.c **** sFONT *BSP_LCD_GetFont(void)
 598:Drivers/BSP/STM32746G-Discovery/stm32746g_discovery_lcd.c **** {
 599:Drivers/BSP/STM32746G-Discovery/stm32746g_discovery_lcd.c ****   return DrawProp[ActiveLayer].pFont;
 600:Drivers/BSP/STM32746G-Discovery/stm32746g_discovery_lcd.c **** }
 601:Drivers/BSP/STM32746G-Discovery/stm32746g_discovery_lcd.c **** 
 602:Drivers/BSP/STM32746G-Discovery/stm32746g_discovery_lcd.c **** /**
ARM GAS  C:\Users\milek\AppData\Local\Temp\ccMSPWBt.s 			page 12


 603:Drivers/BSP/STM32746G-Discovery/stm32746g_discovery_lcd.c ****   * @brief  Reads an LCD pixel.
 604:Drivers/BSP/STM32746G-Discovery/stm32746g_discovery_lcd.c ****   * @param  Xpos: X position 
 605:Drivers/BSP/STM32746G-Discovery/stm32746g_discovery_lcd.c ****   * @param  Ypos: Y position 
 606:Drivers/BSP/STM32746G-Discovery/stm32746g_discovery_lcd.c ****   * @retval RGB pixel color
 607:Drivers/BSP/STM32746G-Discovery/stm32746g_discovery_lcd.c ****   */
 608:Drivers/BSP/STM32746G-Discovery/stm32746g_discovery_lcd.c **** uint32_t BSP_LCD_ReadPixel(uint16_t Xpos, uint16_t Ypos)
 609:Drivers/BSP/STM32746G-Discovery/stm32746g_discovery_lcd.c **** {
 610:Drivers/BSP/STM32746G-Discovery/stm32746g_discovery_lcd.c ****   uint32_t ret = 0;
 611:Drivers/BSP/STM32746G-Discovery/stm32746g_discovery_lcd.c ****   
 612:Drivers/BSP/STM32746G-Discovery/stm32746g_discovery_lcd.c ****   if(hLtdcHandler.LayerCfg[ActiveLayer].PixelFormat == LTDC_PIXEL_FORMAT_ARGB8888)
 613:Drivers/BSP/STM32746G-Discovery/stm32746g_discovery_lcd.c ****   {
 614:Drivers/BSP/STM32746G-Discovery/stm32746g_discovery_lcd.c ****     /* Read data value from SDRAM memory */
 615:Drivers/BSP/STM32746G-Discovery/stm32746g_discovery_lcd.c ****     ret = *(__IO uint32_t*) (hLtdcHandler.LayerCfg[ActiveLayer].FBStartAdress + (4*(Ypos*BSP_LCD_Ge
 616:Drivers/BSP/STM32746G-Discovery/stm32746g_discovery_lcd.c ****   }
 617:Drivers/BSP/STM32746G-Discovery/stm32746g_discovery_lcd.c ****   else if(hLtdcHandler.LayerCfg[ActiveLayer].PixelFormat == LTDC_PIXEL_FORMAT_RGB888)
 618:Drivers/BSP/STM32746G-Discovery/stm32746g_discovery_lcd.c ****   {
 619:Drivers/BSP/STM32746G-Discovery/stm32746g_discovery_lcd.c ****     /* Read data value from SDRAM memory */
 620:Drivers/BSP/STM32746G-Discovery/stm32746g_discovery_lcd.c ****     ret = (*(__IO uint32_t*) (hLtdcHandler.LayerCfg[ActiveLayer].FBStartAdress + (4*(Ypos*BSP_LCD_G
 621:Drivers/BSP/STM32746G-Discovery/stm32746g_discovery_lcd.c ****   }
 622:Drivers/BSP/STM32746G-Discovery/stm32746g_discovery_lcd.c ****   else if((hLtdcHandler.LayerCfg[ActiveLayer].PixelFormat == LTDC_PIXEL_FORMAT_RGB565) || \
 623:Drivers/BSP/STM32746G-Discovery/stm32746g_discovery_lcd.c ****           (hLtdcHandler.LayerCfg[ActiveLayer].PixelFormat == LTDC_PIXEL_FORMAT_ARGB4444) || \
 624:Drivers/BSP/STM32746G-Discovery/stm32746g_discovery_lcd.c ****           (hLtdcHandler.LayerCfg[ActiveLayer].PixelFormat == LTDC_PIXEL_FORMAT_AL88))  
 625:Drivers/BSP/STM32746G-Discovery/stm32746g_discovery_lcd.c ****   {
 626:Drivers/BSP/STM32746G-Discovery/stm32746g_discovery_lcd.c ****     /* Read data value from SDRAM memory */
 627:Drivers/BSP/STM32746G-Discovery/stm32746g_discovery_lcd.c ****     ret = *(__IO uint16_t*) (hLtdcHandler.LayerCfg[ActiveLayer].FBStartAdress + (2*(Ypos*BSP_LCD_Ge
 628:Drivers/BSP/STM32746G-Discovery/stm32746g_discovery_lcd.c ****   }
 629:Drivers/BSP/STM32746G-Discovery/stm32746g_discovery_lcd.c ****   else
 630:Drivers/BSP/STM32746G-Discovery/stm32746g_discovery_lcd.c ****   {
 631:Drivers/BSP/STM32746G-Discovery/stm32746g_discovery_lcd.c ****     /* Read data value from SDRAM memory */
 632:Drivers/BSP/STM32746G-Discovery/stm32746g_discovery_lcd.c ****     ret = *(__IO uint8_t*) (hLtdcHandler.LayerCfg[ActiveLayer].FBStartAdress + (2*(Ypos*BSP_LCD_Get
 633:Drivers/BSP/STM32746G-Discovery/stm32746g_discovery_lcd.c ****   }
 634:Drivers/BSP/STM32746G-Discovery/stm32746g_discovery_lcd.c ****   
 635:Drivers/BSP/STM32746G-Discovery/stm32746g_discovery_lcd.c ****   return ret;
 636:Drivers/BSP/STM32746G-Discovery/stm32746g_discovery_lcd.c **** }
 637:Drivers/BSP/STM32746G-Discovery/stm32746g_discovery_lcd.c **** 
 638:Drivers/BSP/STM32746G-Discovery/stm32746g_discovery_lcd.c **** /**
 639:Drivers/BSP/STM32746G-Discovery/stm32746g_discovery_lcd.c ****   * @brief  Clears the hole LCD.
 640:Drivers/BSP/STM32746G-Discovery/stm32746g_discovery_lcd.c ****   * @param  Color: Color of the background
 641:Drivers/BSP/STM32746G-Discovery/stm32746g_discovery_lcd.c ****   * @retval None
 642:Drivers/BSP/STM32746G-Discovery/stm32746g_discovery_lcd.c ****   */
 643:Drivers/BSP/STM32746G-Discovery/stm32746g_discovery_lcd.c **** void BSP_LCD_Clear(uint32_t Color)
 644:Drivers/BSP/STM32746G-Discovery/stm32746g_discovery_lcd.c **** { 
 645:Drivers/BSP/STM32746G-Discovery/stm32746g_discovery_lcd.c ****   /* Clear the LCD */ 
 646:Drivers/BSP/STM32746G-Discovery/stm32746g_discovery_lcd.c ****   LL_FillBuffer(ActiveLayer, (uint32_t *)(hLtdcHandler.LayerCfg[ActiveLayer].FBStartAdress), BSP_LC
 647:Drivers/BSP/STM32746G-Discovery/stm32746g_discovery_lcd.c **** }
 648:Drivers/BSP/STM32746G-Discovery/stm32746g_discovery_lcd.c **** 
 649:Drivers/BSP/STM32746G-Discovery/stm32746g_discovery_lcd.c **** /**
 650:Drivers/BSP/STM32746G-Discovery/stm32746g_discovery_lcd.c ****   * @brief  Clears the selected line.
 651:Drivers/BSP/STM32746G-Discovery/stm32746g_discovery_lcd.c ****   * @param  Line: Line to be cleared
 652:Drivers/BSP/STM32746G-Discovery/stm32746g_discovery_lcd.c ****   * @retval None
 653:Drivers/BSP/STM32746G-Discovery/stm32746g_discovery_lcd.c ****   */
 654:Drivers/BSP/STM32746G-Discovery/stm32746g_discovery_lcd.c **** void BSP_LCD_ClearStringLine(uint32_t Line)
 655:Drivers/BSP/STM32746G-Discovery/stm32746g_discovery_lcd.c **** {
 656:Drivers/BSP/STM32746G-Discovery/stm32746g_discovery_lcd.c ****   uint32_t color_backup = DrawProp[ActiveLayer].TextColor;
 657:Drivers/BSP/STM32746G-Discovery/stm32746g_discovery_lcd.c ****   DrawProp[ActiveLayer].TextColor = DrawProp[ActiveLayer].BackColor;
 658:Drivers/BSP/STM32746G-Discovery/stm32746g_discovery_lcd.c ****   
 659:Drivers/BSP/STM32746G-Discovery/stm32746g_discovery_lcd.c ****   /* Draw rectangle with background color */
ARM GAS  C:\Users\milek\AppData\Local\Temp\ccMSPWBt.s 			page 13


 660:Drivers/BSP/STM32746G-Discovery/stm32746g_discovery_lcd.c ****   BSP_LCD_FillRect(0, (Line * DrawProp[ActiveLayer].pFont->Height), BSP_LCD_GetXSize(), DrawProp[Ac
 661:Drivers/BSP/STM32746G-Discovery/stm32746g_discovery_lcd.c ****   
 662:Drivers/BSP/STM32746G-Discovery/stm32746g_discovery_lcd.c ****   DrawProp[ActiveLayer].TextColor = color_backup;
 663:Drivers/BSP/STM32746G-Discovery/stm32746g_discovery_lcd.c ****   BSP_LCD_SetTextColor(DrawProp[ActiveLayer].TextColor);  
 664:Drivers/BSP/STM32746G-Discovery/stm32746g_discovery_lcd.c **** }
 665:Drivers/BSP/STM32746G-Discovery/stm32746g_discovery_lcd.c **** 
 666:Drivers/BSP/STM32746G-Discovery/stm32746g_discovery_lcd.c **** /**
 667:Drivers/BSP/STM32746G-Discovery/stm32746g_discovery_lcd.c ****   * @brief  Displays one character.
 668:Drivers/BSP/STM32746G-Discovery/stm32746g_discovery_lcd.c ****   * @param  Xpos: Start column address
 669:Drivers/BSP/STM32746G-Discovery/stm32746g_discovery_lcd.c ****   * @param  Ypos: Line where to display the character shape.
 670:Drivers/BSP/STM32746G-Discovery/stm32746g_discovery_lcd.c ****   * @param  Ascii: Character ascii code
 671:Drivers/BSP/STM32746G-Discovery/stm32746g_discovery_lcd.c ****   *           This parameter must be a number between Min_Data = 0x20 and Max_Data = 0x7E 
 672:Drivers/BSP/STM32746G-Discovery/stm32746g_discovery_lcd.c ****   * @retval None
 673:Drivers/BSP/STM32746G-Discovery/stm32746g_discovery_lcd.c ****   */
 674:Drivers/BSP/STM32746G-Discovery/stm32746g_discovery_lcd.c **** void BSP_LCD_DisplayChar(uint16_t Xpos, uint16_t Ypos, uint8_t Ascii)
 675:Drivers/BSP/STM32746G-Discovery/stm32746g_discovery_lcd.c **** {
 676:Drivers/BSP/STM32746G-Discovery/stm32746g_discovery_lcd.c ****   DrawChar(Xpos, Ypos, &DrawProp[ActiveLayer].pFont->table[(Ascii-' ') *\
 677:Drivers/BSP/STM32746G-Discovery/stm32746g_discovery_lcd.c ****     DrawProp[ActiveLayer].pFont->Height * ((DrawProp[ActiveLayer].pFont->Width + 7) / 8)]);
 678:Drivers/BSP/STM32746G-Discovery/stm32746g_discovery_lcd.c **** }
 679:Drivers/BSP/STM32746G-Discovery/stm32746g_discovery_lcd.c **** 
 680:Drivers/BSP/STM32746G-Discovery/stm32746g_discovery_lcd.c **** /**
 681:Drivers/BSP/STM32746G-Discovery/stm32746g_discovery_lcd.c ****   * @brief  Displays characters on the LCD.
 682:Drivers/BSP/STM32746G-Discovery/stm32746g_discovery_lcd.c ****   * @param  Xpos: X position (in pixel)
 683:Drivers/BSP/STM32746G-Discovery/stm32746g_discovery_lcd.c ****   * @param  Ypos: Y position (in pixel)   
 684:Drivers/BSP/STM32746G-Discovery/stm32746g_discovery_lcd.c ****   * @param  Text: Pointer to string to display on LCD
 685:Drivers/BSP/STM32746G-Discovery/stm32746g_discovery_lcd.c ****   * @param  Mode: Display mode
 686:Drivers/BSP/STM32746G-Discovery/stm32746g_discovery_lcd.c ****   *          This parameter can be one of the following values:
 687:Drivers/BSP/STM32746G-Discovery/stm32746g_discovery_lcd.c ****   *            @arg  CENTER_MODE
 688:Drivers/BSP/STM32746G-Discovery/stm32746g_discovery_lcd.c ****   *            @arg  RIGHT_MODE
 689:Drivers/BSP/STM32746G-Discovery/stm32746g_discovery_lcd.c ****   *            @arg  LEFT_MODE   
 690:Drivers/BSP/STM32746G-Discovery/stm32746g_discovery_lcd.c ****   * @retval None
 691:Drivers/BSP/STM32746G-Discovery/stm32746g_discovery_lcd.c ****   */
 692:Drivers/BSP/STM32746G-Discovery/stm32746g_discovery_lcd.c **** void BSP_LCD_DisplayStringAt(uint16_t Xpos, uint16_t Ypos, uint8_t *Text, Text_AlignModeTypdef Mode
 693:Drivers/BSP/STM32746G-Discovery/stm32746g_discovery_lcd.c **** {
 694:Drivers/BSP/STM32746G-Discovery/stm32746g_discovery_lcd.c ****   uint16_t ref_column = 1, i = 0;
 695:Drivers/BSP/STM32746G-Discovery/stm32746g_discovery_lcd.c ****   uint32_t size = 0, xsize = 0; 
 696:Drivers/BSP/STM32746G-Discovery/stm32746g_discovery_lcd.c ****   uint8_t  *ptr = Text;
 697:Drivers/BSP/STM32746G-Discovery/stm32746g_discovery_lcd.c ****   
 698:Drivers/BSP/STM32746G-Discovery/stm32746g_discovery_lcd.c ****   /* Get the text size */
 699:Drivers/BSP/STM32746G-Discovery/stm32746g_discovery_lcd.c ****   while (*ptr++) size ++ ;
 700:Drivers/BSP/STM32746G-Discovery/stm32746g_discovery_lcd.c ****   
 701:Drivers/BSP/STM32746G-Discovery/stm32746g_discovery_lcd.c ****   /* Characters number per line */
 702:Drivers/BSP/STM32746G-Discovery/stm32746g_discovery_lcd.c ****   xsize = (BSP_LCD_GetXSize()/DrawProp[ActiveLayer].pFont->Width);
 703:Drivers/BSP/STM32746G-Discovery/stm32746g_discovery_lcd.c ****   
 704:Drivers/BSP/STM32746G-Discovery/stm32746g_discovery_lcd.c ****   switch (Mode)
 705:Drivers/BSP/STM32746G-Discovery/stm32746g_discovery_lcd.c ****   {
 706:Drivers/BSP/STM32746G-Discovery/stm32746g_discovery_lcd.c ****   case CENTER_MODE:
 707:Drivers/BSP/STM32746G-Discovery/stm32746g_discovery_lcd.c ****     {
 708:Drivers/BSP/STM32746G-Discovery/stm32746g_discovery_lcd.c ****       ref_column = Xpos + ((xsize - size)* DrawProp[ActiveLayer].pFont->Width) / 2;
 709:Drivers/BSP/STM32746G-Discovery/stm32746g_discovery_lcd.c ****       break;
 710:Drivers/BSP/STM32746G-Discovery/stm32746g_discovery_lcd.c ****     }
 711:Drivers/BSP/STM32746G-Discovery/stm32746g_discovery_lcd.c ****   case LEFT_MODE:
 712:Drivers/BSP/STM32746G-Discovery/stm32746g_discovery_lcd.c ****     {
 713:Drivers/BSP/STM32746G-Discovery/stm32746g_discovery_lcd.c ****       ref_column = Xpos;
 714:Drivers/BSP/STM32746G-Discovery/stm32746g_discovery_lcd.c ****       break;
 715:Drivers/BSP/STM32746G-Discovery/stm32746g_discovery_lcd.c ****     }
 716:Drivers/BSP/STM32746G-Discovery/stm32746g_discovery_lcd.c ****   case RIGHT_MODE:
ARM GAS  C:\Users\milek\AppData\Local\Temp\ccMSPWBt.s 			page 14


 717:Drivers/BSP/STM32746G-Discovery/stm32746g_discovery_lcd.c ****     {
 718:Drivers/BSP/STM32746G-Discovery/stm32746g_discovery_lcd.c ****       ref_column = - Xpos + ((xsize - size)*DrawProp[ActiveLayer].pFont->Width);
 719:Drivers/BSP/STM32746G-Discovery/stm32746g_discovery_lcd.c ****       break;
 720:Drivers/BSP/STM32746G-Discovery/stm32746g_discovery_lcd.c ****     }    
 721:Drivers/BSP/STM32746G-Discovery/stm32746g_discovery_lcd.c ****   default:
 722:Drivers/BSP/STM32746G-Discovery/stm32746g_discovery_lcd.c ****     {
 723:Drivers/BSP/STM32746G-Discovery/stm32746g_discovery_lcd.c ****       ref_column = Xpos;
 724:Drivers/BSP/STM32746G-Discovery/stm32746g_discovery_lcd.c ****       break;
 725:Drivers/BSP/STM32746G-Discovery/stm32746g_discovery_lcd.c ****     }
 726:Drivers/BSP/STM32746G-Discovery/stm32746g_discovery_lcd.c ****   }
 727:Drivers/BSP/STM32746G-Discovery/stm32746g_discovery_lcd.c ****   
 728:Drivers/BSP/STM32746G-Discovery/stm32746g_discovery_lcd.c ****   /* Check that the Start column is located in the screen */
 729:Drivers/BSP/STM32746G-Discovery/stm32746g_discovery_lcd.c ****   if ((ref_column < 1) || (ref_column >= 0x8000))
 730:Drivers/BSP/STM32746G-Discovery/stm32746g_discovery_lcd.c ****   {
 731:Drivers/BSP/STM32746G-Discovery/stm32746g_discovery_lcd.c ****     ref_column = 1;
 732:Drivers/BSP/STM32746G-Discovery/stm32746g_discovery_lcd.c ****   }
 733:Drivers/BSP/STM32746G-Discovery/stm32746g_discovery_lcd.c **** 
 734:Drivers/BSP/STM32746G-Discovery/stm32746g_discovery_lcd.c ****   /* Send the string character by character on LCD */
 735:Drivers/BSP/STM32746G-Discovery/stm32746g_discovery_lcd.c ****   while ((*Text != 0) & (((BSP_LCD_GetXSize() - (i*DrawProp[ActiveLayer].pFont->Width)) & 0xFFFF) >
 736:Drivers/BSP/STM32746G-Discovery/stm32746g_discovery_lcd.c ****   {
 737:Drivers/BSP/STM32746G-Discovery/stm32746g_discovery_lcd.c ****     /* Display one character on LCD */
 738:Drivers/BSP/STM32746G-Discovery/stm32746g_discovery_lcd.c ****     BSP_LCD_DisplayChar(ref_column, Ypos, *Text);
 739:Drivers/BSP/STM32746G-Discovery/stm32746g_discovery_lcd.c ****     /* Decrement the column position by 16 */
 740:Drivers/BSP/STM32746G-Discovery/stm32746g_discovery_lcd.c ****     ref_column += DrawProp[ActiveLayer].pFont->Width;
 741:Drivers/BSP/STM32746G-Discovery/stm32746g_discovery_lcd.c ****     /* Point on the next character */
 742:Drivers/BSP/STM32746G-Discovery/stm32746g_discovery_lcd.c ****     Text++;
 743:Drivers/BSP/STM32746G-Discovery/stm32746g_discovery_lcd.c ****     i++;
 744:Drivers/BSP/STM32746G-Discovery/stm32746g_discovery_lcd.c ****   }  
 745:Drivers/BSP/STM32746G-Discovery/stm32746g_discovery_lcd.c **** }
 746:Drivers/BSP/STM32746G-Discovery/stm32746g_discovery_lcd.c **** 
 747:Drivers/BSP/STM32746G-Discovery/stm32746g_discovery_lcd.c **** /**
 748:Drivers/BSP/STM32746G-Discovery/stm32746g_discovery_lcd.c ****   * @brief  Displays a maximum of 60 characters on the LCD.
 749:Drivers/BSP/STM32746G-Discovery/stm32746g_discovery_lcd.c ****   * @param  Line: Line where to display the character shape
 750:Drivers/BSP/STM32746G-Discovery/stm32746g_discovery_lcd.c ****   * @param  ptr: Pointer to string to display on LCD
 751:Drivers/BSP/STM32746G-Discovery/stm32746g_discovery_lcd.c ****   * @retval None
 752:Drivers/BSP/STM32746G-Discovery/stm32746g_discovery_lcd.c ****   */
 753:Drivers/BSP/STM32746G-Discovery/stm32746g_discovery_lcd.c **** void BSP_LCD_DisplayStringAtLine(uint16_t Line, uint8_t *ptr)
 754:Drivers/BSP/STM32746G-Discovery/stm32746g_discovery_lcd.c **** {  
 755:Drivers/BSP/STM32746G-Discovery/stm32746g_discovery_lcd.c ****   BSP_LCD_DisplayStringAt(0, LINE(Line), ptr, LEFT_MODE);
 756:Drivers/BSP/STM32746G-Discovery/stm32746g_discovery_lcd.c **** }
 757:Drivers/BSP/STM32746G-Discovery/stm32746g_discovery_lcd.c **** 
 758:Drivers/BSP/STM32746G-Discovery/stm32746g_discovery_lcd.c **** /**
 759:Drivers/BSP/STM32746G-Discovery/stm32746g_discovery_lcd.c ****   * @brief  Draws an horizontal line.
 760:Drivers/BSP/STM32746G-Discovery/stm32746g_discovery_lcd.c ****   * @param  Xpos: X position
 761:Drivers/BSP/STM32746G-Discovery/stm32746g_discovery_lcd.c ****   * @param  Ypos: Y position
 762:Drivers/BSP/STM32746G-Discovery/stm32746g_discovery_lcd.c ****   * @param  Length: Line length
 763:Drivers/BSP/STM32746G-Discovery/stm32746g_discovery_lcd.c ****   * @retval None
 764:Drivers/BSP/STM32746G-Discovery/stm32746g_discovery_lcd.c ****   */
 765:Drivers/BSP/STM32746G-Discovery/stm32746g_discovery_lcd.c **** void BSP_LCD_DrawHLine(uint16_t Xpos, uint16_t Ypos, uint16_t Length)
 766:Drivers/BSP/STM32746G-Discovery/stm32746g_discovery_lcd.c **** {
 767:Drivers/BSP/STM32746G-Discovery/stm32746g_discovery_lcd.c ****   uint32_t  Xaddress = 0;
 768:Drivers/BSP/STM32746G-Discovery/stm32746g_discovery_lcd.c ****   
 769:Drivers/BSP/STM32746G-Discovery/stm32746g_discovery_lcd.c ****   /* Get the line address */
 770:Drivers/BSP/STM32746G-Discovery/stm32746g_discovery_lcd.c ****   if(hLtdcHandler.LayerCfg[ActiveLayer].PixelFormat == LTDC_PIXEL_FORMAT_RGB565)
 771:Drivers/BSP/STM32746G-Discovery/stm32746g_discovery_lcd.c ****   { /* RGB565 format */
 772:Drivers/BSP/STM32746G-Discovery/stm32746g_discovery_lcd.c ****     Xaddress = (hLtdcHandler.LayerCfg[ActiveLayer].FBStartAdress) + 2*(BSP_LCD_GetXSize()*Ypos + Xp
 773:Drivers/BSP/STM32746G-Discovery/stm32746g_discovery_lcd.c ****   }
ARM GAS  C:\Users\milek\AppData\Local\Temp\ccMSPWBt.s 			page 15


 774:Drivers/BSP/STM32746G-Discovery/stm32746g_discovery_lcd.c ****   else
 775:Drivers/BSP/STM32746G-Discovery/stm32746g_discovery_lcd.c ****   { /* ARGB8888 format */
 776:Drivers/BSP/STM32746G-Discovery/stm32746g_discovery_lcd.c ****     Xaddress = (hLtdcHandler.LayerCfg[ActiveLayer].FBStartAdress) + 4*(BSP_LCD_GetXSize()*Ypos + Xp
 777:Drivers/BSP/STM32746G-Discovery/stm32746g_discovery_lcd.c ****   }
 778:Drivers/BSP/STM32746G-Discovery/stm32746g_discovery_lcd.c ****   
 779:Drivers/BSP/STM32746G-Discovery/stm32746g_discovery_lcd.c ****   /* Write line */
 780:Drivers/BSP/STM32746G-Discovery/stm32746g_discovery_lcd.c ****   LL_FillBuffer(ActiveLayer, (uint32_t *)Xaddress, Length, 1, 0, DrawProp[ActiveLayer].TextColor);
 781:Drivers/BSP/STM32746G-Discovery/stm32746g_discovery_lcd.c **** }
 782:Drivers/BSP/STM32746G-Discovery/stm32746g_discovery_lcd.c **** 
 783:Drivers/BSP/STM32746G-Discovery/stm32746g_discovery_lcd.c **** /**
 784:Drivers/BSP/STM32746G-Discovery/stm32746g_discovery_lcd.c ****   * @brief  Draws a vertical line.
 785:Drivers/BSP/STM32746G-Discovery/stm32746g_discovery_lcd.c ****   * @param  Xpos: X position
 786:Drivers/BSP/STM32746G-Discovery/stm32746g_discovery_lcd.c ****   * @param  Ypos: Y position
 787:Drivers/BSP/STM32746G-Discovery/stm32746g_discovery_lcd.c ****   * @param  Length: Line length
 788:Drivers/BSP/STM32746G-Discovery/stm32746g_discovery_lcd.c ****   * @retval None
 789:Drivers/BSP/STM32746G-Discovery/stm32746g_discovery_lcd.c ****   */
 790:Drivers/BSP/STM32746G-Discovery/stm32746g_discovery_lcd.c **** void BSP_LCD_DrawVLine(uint16_t Xpos, uint16_t Ypos, uint16_t Length)
 791:Drivers/BSP/STM32746G-Discovery/stm32746g_discovery_lcd.c **** {
 792:Drivers/BSP/STM32746G-Discovery/stm32746g_discovery_lcd.c ****   uint32_t  Xaddress = 0;
 793:Drivers/BSP/STM32746G-Discovery/stm32746g_discovery_lcd.c ****   
 794:Drivers/BSP/STM32746G-Discovery/stm32746g_discovery_lcd.c ****   /* Get the line address */
 795:Drivers/BSP/STM32746G-Discovery/stm32746g_discovery_lcd.c ****   if(hLtdcHandler.LayerCfg[ActiveLayer].PixelFormat == LTDC_PIXEL_FORMAT_RGB565)
 796:Drivers/BSP/STM32746G-Discovery/stm32746g_discovery_lcd.c ****   { /* RGB565 format */
 797:Drivers/BSP/STM32746G-Discovery/stm32746g_discovery_lcd.c ****     Xaddress = (hLtdcHandler.LayerCfg[ActiveLayer].FBStartAdress) + 2*(BSP_LCD_GetXSize()*Ypos + Xp
 798:Drivers/BSP/STM32746G-Discovery/stm32746g_discovery_lcd.c ****   }
 799:Drivers/BSP/STM32746G-Discovery/stm32746g_discovery_lcd.c ****   else
 800:Drivers/BSP/STM32746G-Discovery/stm32746g_discovery_lcd.c ****   { /* ARGB8888 format */
 801:Drivers/BSP/STM32746G-Discovery/stm32746g_discovery_lcd.c ****     Xaddress = (hLtdcHandler.LayerCfg[ActiveLayer].FBStartAdress) + 4*(BSP_LCD_GetXSize()*Ypos + Xp
 802:Drivers/BSP/STM32746G-Discovery/stm32746g_discovery_lcd.c ****   }
 803:Drivers/BSP/STM32746G-Discovery/stm32746g_discovery_lcd.c ****   
 804:Drivers/BSP/STM32746G-Discovery/stm32746g_discovery_lcd.c ****   /* Write line */
 805:Drivers/BSP/STM32746G-Discovery/stm32746g_discovery_lcd.c ****   LL_FillBuffer(ActiveLayer, (uint32_t *)Xaddress, 1, Length, (BSP_LCD_GetXSize() - 1), DrawProp[Ac
 806:Drivers/BSP/STM32746G-Discovery/stm32746g_discovery_lcd.c **** }
 807:Drivers/BSP/STM32746G-Discovery/stm32746g_discovery_lcd.c **** 
 808:Drivers/BSP/STM32746G-Discovery/stm32746g_discovery_lcd.c **** /**
 809:Drivers/BSP/STM32746G-Discovery/stm32746g_discovery_lcd.c ****   * @brief  Draws an uni-line (between two points).
 810:Drivers/BSP/STM32746G-Discovery/stm32746g_discovery_lcd.c ****   * @param  x1: Point 1 X position
 811:Drivers/BSP/STM32746G-Discovery/stm32746g_discovery_lcd.c ****   * @param  y1: Point 1 Y position
 812:Drivers/BSP/STM32746G-Discovery/stm32746g_discovery_lcd.c ****   * @param  x2: Point 2 X position
 813:Drivers/BSP/STM32746G-Discovery/stm32746g_discovery_lcd.c ****   * @param  y2: Point 2 Y position
 814:Drivers/BSP/STM32746G-Discovery/stm32746g_discovery_lcd.c ****   * @retval None
 815:Drivers/BSP/STM32746G-Discovery/stm32746g_discovery_lcd.c ****   */
 816:Drivers/BSP/STM32746G-Discovery/stm32746g_discovery_lcd.c **** void BSP_LCD_DrawLine(uint16_t x1, uint16_t y1, uint16_t x2, uint16_t y2)
 817:Drivers/BSP/STM32746G-Discovery/stm32746g_discovery_lcd.c **** {
 818:Drivers/BSP/STM32746G-Discovery/stm32746g_discovery_lcd.c ****   int16_t deltax = 0, deltay = 0, x = 0, y = 0, xinc1 = 0, xinc2 = 0, 
 819:Drivers/BSP/STM32746G-Discovery/stm32746g_discovery_lcd.c ****   yinc1 = 0, yinc2 = 0, den = 0, num = 0, num_add = 0, num_pixels = 0, 
 820:Drivers/BSP/STM32746G-Discovery/stm32746g_discovery_lcd.c ****   curpixel = 0;
 821:Drivers/BSP/STM32746G-Discovery/stm32746g_discovery_lcd.c ****   
 822:Drivers/BSP/STM32746G-Discovery/stm32746g_discovery_lcd.c ****   deltax = ABS(x2 - x1);        /* The difference between the x's */
 823:Drivers/BSP/STM32746G-Discovery/stm32746g_discovery_lcd.c ****   deltay = ABS(y2 - y1);        /* The difference between the y's */
 824:Drivers/BSP/STM32746G-Discovery/stm32746g_discovery_lcd.c ****   x = x1;                       /* Start x off at the first pixel */
 825:Drivers/BSP/STM32746G-Discovery/stm32746g_discovery_lcd.c ****   y = y1;                       /* Start y off at the first pixel */
 826:Drivers/BSP/STM32746G-Discovery/stm32746g_discovery_lcd.c ****   
 827:Drivers/BSP/STM32746G-Discovery/stm32746g_discovery_lcd.c ****   if (x2 >= x1)                 /* The x-values are increasing */
 828:Drivers/BSP/STM32746G-Discovery/stm32746g_discovery_lcd.c ****   {
 829:Drivers/BSP/STM32746G-Discovery/stm32746g_discovery_lcd.c ****     xinc1 = 1;
 830:Drivers/BSP/STM32746G-Discovery/stm32746g_discovery_lcd.c ****     xinc2 = 1;
ARM GAS  C:\Users\milek\AppData\Local\Temp\ccMSPWBt.s 			page 16


 831:Drivers/BSP/STM32746G-Discovery/stm32746g_discovery_lcd.c ****   }
 832:Drivers/BSP/STM32746G-Discovery/stm32746g_discovery_lcd.c ****   else                          /* The x-values are decreasing */
 833:Drivers/BSP/STM32746G-Discovery/stm32746g_discovery_lcd.c ****   {
 834:Drivers/BSP/STM32746G-Discovery/stm32746g_discovery_lcd.c ****     xinc1 = -1;
 835:Drivers/BSP/STM32746G-Discovery/stm32746g_discovery_lcd.c ****     xinc2 = -1;
 836:Drivers/BSP/STM32746G-Discovery/stm32746g_discovery_lcd.c ****   }
 837:Drivers/BSP/STM32746G-Discovery/stm32746g_discovery_lcd.c ****   
 838:Drivers/BSP/STM32746G-Discovery/stm32746g_discovery_lcd.c ****   if (y2 >= y1)                 /* The y-values are increasing */
 839:Drivers/BSP/STM32746G-Discovery/stm32746g_discovery_lcd.c ****   {
 840:Drivers/BSP/STM32746G-Discovery/stm32746g_discovery_lcd.c ****     yinc1 = 1;
 841:Drivers/BSP/STM32746G-Discovery/stm32746g_discovery_lcd.c ****     yinc2 = 1;
 842:Drivers/BSP/STM32746G-Discovery/stm32746g_discovery_lcd.c ****   }
 843:Drivers/BSP/STM32746G-Discovery/stm32746g_discovery_lcd.c ****   else                          /* The y-values are decreasing */
 844:Drivers/BSP/STM32746G-Discovery/stm32746g_discovery_lcd.c ****   {
 845:Drivers/BSP/STM32746G-Discovery/stm32746g_discovery_lcd.c ****     yinc1 = -1;
 846:Drivers/BSP/STM32746G-Discovery/stm32746g_discovery_lcd.c ****     yinc2 = -1;
 847:Drivers/BSP/STM32746G-Discovery/stm32746g_discovery_lcd.c ****   }
 848:Drivers/BSP/STM32746G-Discovery/stm32746g_discovery_lcd.c ****   
 849:Drivers/BSP/STM32746G-Discovery/stm32746g_discovery_lcd.c ****   if (deltax >= deltay)         /* There is at least one x-value for every y-value */
 850:Drivers/BSP/STM32746G-Discovery/stm32746g_discovery_lcd.c ****   {
 851:Drivers/BSP/STM32746G-Discovery/stm32746g_discovery_lcd.c ****     xinc1 = 0;                  /* Don't change the x when numerator >= denominator */
 852:Drivers/BSP/STM32746G-Discovery/stm32746g_discovery_lcd.c ****     yinc2 = 0;                  /* Don't change the y for every iteration */
 853:Drivers/BSP/STM32746G-Discovery/stm32746g_discovery_lcd.c ****     den = deltax;
 854:Drivers/BSP/STM32746G-Discovery/stm32746g_discovery_lcd.c ****     num = deltax / 2;
 855:Drivers/BSP/STM32746G-Discovery/stm32746g_discovery_lcd.c ****     num_add = deltay;
 856:Drivers/BSP/STM32746G-Discovery/stm32746g_discovery_lcd.c ****     num_pixels = deltax;         /* There are more x-values than y-values */
 857:Drivers/BSP/STM32746G-Discovery/stm32746g_discovery_lcd.c ****   }
 858:Drivers/BSP/STM32746G-Discovery/stm32746g_discovery_lcd.c ****   else                          /* There is at least one y-value for every x-value */
 859:Drivers/BSP/STM32746G-Discovery/stm32746g_discovery_lcd.c ****   {
 860:Drivers/BSP/STM32746G-Discovery/stm32746g_discovery_lcd.c ****     xinc2 = 0;                  /* Don't change the x for every iteration */
 861:Drivers/BSP/STM32746G-Discovery/stm32746g_discovery_lcd.c ****     yinc1 = 0;                  /* Don't change the y when numerator >= denominator */
 862:Drivers/BSP/STM32746G-Discovery/stm32746g_discovery_lcd.c ****     den = deltay;
 863:Drivers/BSP/STM32746G-Discovery/stm32746g_discovery_lcd.c ****     num = deltay / 2;
 864:Drivers/BSP/STM32746G-Discovery/stm32746g_discovery_lcd.c ****     num_add = deltax;
 865:Drivers/BSP/STM32746G-Discovery/stm32746g_discovery_lcd.c ****     num_pixels = deltay;         /* There are more y-values than x-values */
 866:Drivers/BSP/STM32746G-Discovery/stm32746g_discovery_lcd.c ****   }
 867:Drivers/BSP/STM32746G-Discovery/stm32746g_discovery_lcd.c ****   
 868:Drivers/BSP/STM32746G-Discovery/stm32746g_discovery_lcd.c ****   for (curpixel = 0; curpixel <= num_pixels; curpixel++)
 869:Drivers/BSP/STM32746G-Discovery/stm32746g_discovery_lcd.c ****   {
 870:Drivers/BSP/STM32746G-Discovery/stm32746g_discovery_lcd.c ****     BSP_LCD_DrawPixel(x, y, DrawProp[ActiveLayer].TextColor);   /* Draw the current pixel */
 871:Drivers/BSP/STM32746G-Discovery/stm32746g_discovery_lcd.c ****     num += num_add;                            /* Increase the numerator by the top of the fraction
 872:Drivers/BSP/STM32746G-Discovery/stm32746g_discovery_lcd.c ****     if (num >= den)                           /* Check if numerator >= denominator */
 873:Drivers/BSP/STM32746G-Discovery/stm32746g_discovery_lcd.c ****     {
 874:Drivers/BSP/STM32746G-Discovery/stm32746g_discovery_lcd.c ****       num -= den;                             /* Calculate the new numerator value */
 875:Drivers/BSP/STM32746G-Discovery/stm32746g_discovery_lcd.c ****       x += xinc1;                             /* Change the x as appropriate */
 876:Drivers/BSP/STM32746G-Discovery/stm32746g_discovery_lcd.c ****       y += yinc1;                             /* Change the y as appropriate */
 877:Drivers/BSP/STM32746G-Discovery/stm32746g_discovery_lcd.c ****     }
 878:Drivers/BSP/STM32746G-Discovery/stm32746g_discovery_lcd.c ****     x += xinc2;                               /* Change the x as appropriate */
 879:Drivers/BSP/STM32746G-Discovery/stm32746g_discovery_lcd.c ****     y += yinc2;                               /* Change the y as appropriate */
 880:Drivers/BSP/STM32746G-Discovery/stm32746g_discovery_lcd.c ****   }
 881:Drivers/BSP/STM32746G-Discovery/stm32746g_discovery_lcd.c **** }
 882:Drivers/BSP/STM32746G-Discovery/stm32746g_discovery_lcd.c **** 
 883:Drivers/BSP/STM32746G-Discovery/stm32746g_discovery_lcd.c **** /**
 884:Drivers/BSP/STM32746G-Discovery/stm32746g_discovery_lcd.c ****   * @brief  Draws a rectangle.
 885:Drivers/BSP/STM32746G-Discovery/stm32746g_discovery_lcd.c ****   * @param  Xpos: X position
 886:Drivers/BSP/STM32746G-Discovery/stm32746g_discovery_lcd.c ****   * @param  Ypos: Y position
 887:Drivers/BSP/STM32746G-Discovery/stm32746g_discovery_lcd.c ****   * @param  Width: Rectangle width  
ARM GAS  C:\Users\milek\AppData\Local\Temp\ccMSPWBt.s 			page 17


 888:Drivers/BSP/STM32746G-Discovery/stm32746g_discovery_lcd.c ****   * @param  Height: Rectangle height
 889:Drivers/BSP/STM32746G-Discovery/stm32746g_discovery_lcd.c ****   * @retval None
 890:Drivers/BSP/STM32746G-Discovery/stm32746g_discovery_lcd.c ****   */
 891:Drivers/BSP/STM32746G-Discovery/stm32746g_discovery_lcd.c **** void BSP_LCD_DrawRect(uint16_t Xpos, uint16_t Ypos, uint16_t Width, uint16_t Height)
 892:Drivers/BSP/STM32746G-Discovery/stm32746g_discovery_lcd.c **** {
 893:Drivers/BSP/STM32746G-Discovery/stm32746g_discovery_lcd.c ****   /* Draw horizontal lines */
 894:Drivers/BSP/STM32746G-Discovery/stm32746g_discovery_lcd.c ****   BSP_LCD_DrawHLine(Xpos, Ypos, Width);
 895:Drivers/BSP/STM32746G-Discovery/stm32746g_discovery_lcd.c ****   BSP_LCD_DrawHLine(Xpos, (Ypos+ Height), Width);
 896:Drivers/BSP/STM32746G-Discovery/stm32746g_discovery_lcd.c ****   
 897:Drivers/BSP/STM32746G-Discovery/stm32746g_discovery_lcd.c ****   /* Draw vertical lines */
 898:Drivers/BSP/STM32746G-Discovery/stm32746g_discovery_lcd.c ****   BSP_LCD_DrawVLine(Xpos, Ypos, Height);
 899:Drivers/BSP/STM32746G-Discovery/stm32746g_discovery_lcd.c ****   BSP_LCD_DrawVLine((Xpos + Width), Ypos, Height);
 900:Drivers/BSP/STM32746G-Discovery/stm32746g_discovery_lcd.c **** }
 901:Drivers/BSP/STM32746G-Discovery/stm32746g_discovery_lcd.c **** 
 902:Drivers/BSP/STM32746G-Discovery/stm32746g_discovery_lcd.c **** /**
 903:Drivers/BSP/STM32746G-Discovery/stm32746g_discovery_lcd.c ****   * @brief  Draws a circle.
 904:Drivers/BSP/STM32746G-Discovery/stm32746g_discovery_lcd.c ****   * @param  Xpos: X position
 905:Drivers/BSP/STM32746G-Discovery/stm32746g_discovery_lcd.c ****   * @param  Ypos: Y position
 906:Drivers/BSP/STM32746G-Discovery/stm32746g_discovery_lcd.c ****   * @param  Radius: Circle radius
 907:Drivers/BSP/STM32746G-Discovery/stm32746g_discovery_lcd.c ****   * @retval None
 908:Drivers/BSP/STM32746G-Discovery/stm32746g_discovery_lcd.c ****   */
 909:Drivers/BSP/STM32746G-Discovery/stm32746g_discovery_lcd.c **** void BSP_LCD_DrawCircle(uint16_t Xpos, uint16_t Ypos, uint16_t Radius)
 910:Drivers/BSP/STM32746G-Discovery/stm32746g_discovery_lcd.c **** {
 911:Drivers/BSP/STM32746G-Discovery/stm32746g_discovery_lcd.c ****   int32_t   decision;    /* Decision Variable */ 
 912:Drivers/BSP/STM32746G-Discovery/stm32746g_discovery_lcd.c ****   uint32_t  current_x;   /* Current X Value */
 913:Drivers/BSP/STM32746G-Discovery/stm32746g_discovery_lcd.c ****   uint32_t  current_y;   /* Current Y Value */
 914:Drivers/BSP/STM32746G-Discovery/stm32746g_discovery_lcd.c ****   
 915:Drivers/BSP/STM32746G-Discovery/stm32746g_discovery_lcd.c ****   decision = 3 - (Radius << 1);
 916:Drivers/BSP/STM32746G-Discovery/stm32746g_discovery_lcd.c ****   current_x = 0;
 917:Drivers/BSP/STM32746G-Discovery/stm32746g_discovery_lcd.c ****   current_y = Radius;
 918:Drivers/BSP/STM32746G-Discovery/stm32746g_discovery_lcd.c ****   
 919:Drivers/BSP/STM32746G-Discovery/stm32746g_discovery_lcd.c ****   while (current_x <= current_y)
 920:Drivers/BSP/STM32746G-Discovery/stm32746g_discovery_lcd.c ****   {
 921:Drivers/BSP/STM32746G-Discovery/stm32746g_discovery_lcd.c ****     BSP_LCD_DrawPixel((Xpos + current_x), (Ypos - current_y), DrawProp[ActiveLayer].TextColor);
 922:Drivers/BSP/STM32746G-Discovery/stm32746g_discovery_lcd.c ****     
 923:Drivers/BSP/STM32746G-Discovery/stm32746g_discovery_lcd.c ****     BSP_LCD_DrawPixel((Xpos - current_x), (Ypos - current_y), DrawProp[ActiveLayer].TextColor);
 924:Drivers/BSP/STM32746G-Discovery/stm32746g_discovery_lcd.c ****     
 925:Drivers/BSP/STM32746G-Discovery/stm32746g_discovery_lcd.c ****     BSP_LCD_DrawPixel((Xpos + current_y), (Ypos - current_x), DrawProp[ActiveLayer].TextColor);
 926:Drivers/BSP/STM32746G-Discovery/stm32746g_discovery_lcd.c ****     
 927:Drivers/BSP/STM32746G-Discovery/stm32746g_discovery_lcd.c ****     BSP_LCD_DrawPixel((Xpos - current_y), (Ypos - current_x), DrawProp[ActiveLayer].TextColor);
 928:Drivers/BSP/STM32746G-Discovery/stm32746g_discovery_lcd.c ****     
 929:Drivers/BSP/STM32746G-Discovery/stm32746g_discovery_lcd.c ****     BSP_LCD_DrawPixel((Xpos + current_x), (Ypos + current_y), DrawProp[ActiveLayer].TextColor);
 930:Drivers/BSP/STM32746G-Discovery/stm32746g_discovery_lcd.c ****     
 931:Drivers/BSP/STM32746G-Discovery/stm32746g_discovery_lcd.c ****     BSP_LCD_DrawPixel((Xpos - current_x), (Ypos + current_y), DrawProp[ActiveLayer].TextColor);
 932:Drivers/BSP/STM32746G-Discovery/stm32746g_discovery_lcd.c ****     
 933:Drivers/BSP/STM32746G-Discovery/stm32746g_discovery_lcd.c ****     BSP_LCD_DrawPixel((Xpos + current_y), (Ypos + current_x), DrawProp[ActiveLayer].TextColor);
 934:Drivers/BSP/STM32746G-Discovery/stm32746g_discovery_lcd.c ****     
 935:Drivers/BSP/STM32746G-Discovery/stm32746g_discovery_lcd.c ****     BSP_LCD_DrawPixel((Xpos - current_y), (Ypos + current_x), DrawProp[ActiveLayer].TextColor);
 936:Drivers/BSP/STM32746G-Discovery/stm32746g_discovery_lcd.c ****     
 937:Drivers/BSP/STM32746G-Discovery/stm32746g_discovery_lcd.c ****     if (decision < 0)
 938:Drivers/BSP/STM32746G-Discovery/stm32746g_discovery_lcd.c ****     { 
 939:Drivers/BSP/STM32746G-Discovery/stm32746g_discovery_lcd.c ****       decision += (current_x << 2) + 6;
 940:Drivers/BSP/STM32746G-Discovery/stm32746g_discovery_lcd.c ****     }
 941:Drivers/BSP/STM32746G-Discovery/stm32746g_discovery_lcd.c ****     else
 942:Drivers/BSP/STM32746G-Discovery/stm32746g_discovery_lcd.c ****     {
 943:Drivers/BSP/STM32746G-Discovery/stm32746g_discovery_lcd.c ****       decision += ((current_x - current_y) << 2) + 10;
 944:Drivers/BSP/STM32746G-Discovery/stm32746g_discovery_lcd.c ****       current_y--;
ARM GAS  C:\Users\milek\AppData\Local\Temp\ccMSPWBt.s 			page 18


 945:Drivers/BSP/STM32746G-Discovery/stm32746g_discovery_lcd.c ****     }
 946:Drivers/BSP/STM32746G-Discovery/stm32746g_discovery_lcd.c ****     current_x++;
 947:Drivers/BSP/STM32746G-Discovery/stm32746g_discovery_lcd.c ****   } 
 948:Drivers/BSP/STM32746G-Discovery/stm32746g_discovery_lcd.c **** }
 949:Drivers/BSP/STM32746G-Discovery/stm32746g_discovery_lcd.c **** 
 950:Drivers/BSP/STM32746G-Discovery/stm32746g_discovery_lcd.c **** /**
 951:Drivers/BSP/STM32746G-Discovery/stm32746g_discovery_lcd.c ****   * @brief  Draws an poly-line (between many points).
 952:Drivers/BSP/STM32746G-Discovery/stm32746g_discovery_lcd.c ****   * @param  Points: Pointer to the points array
 953:Drivers/BSP/STM32746G-Discovery/stm32746g_discovery_lcd.c ****   * @param  PointCount: Number of points
 954:Drivers/BSP/STM32746G-Discovery/stm32746g_discovery_lcd.c ****   * @retval None
 955:Drivers/BSP/STM32746G-Discovery/stm32746g_discovery_lcd.c ****   */
 956:Drivers/BSP/STM32746G-Discovery/stm32746g_discovery_lcd.c **** void BSP_LCD_DrawPolygon(pPoint Points, uint16_t PointCount)
 957:Drivers/BSP/STM32746G-Discovery/stm32746g_discovery_lcd.c **** {
 958:Drivers/BSP/STM32746G-Discovery/stm32746g_discovery_lcd.c ****   int16_t x = 0, y = 0;
 959:Drivers/BSP/STM32746G-Discovery/stm32746g_discovery_lcd.c ****   
 960:Drivers/BSP/STM32746G-Discovery/stm32746g_discovery_lcd.c ****   if(PointCount < 2)
 961:Drivers/BSP/STM32746G-Discovery/stm32746g_discovery_lcd.c ****   {
 962:Drivers/BSP/STM32746G-Discovery/stm32746g_discovery_lcd.c ****     return;
 963:Drivers/BSP/STM32746G-Discovery/stm32746g_discovery_lcd.c ****   }
 964:Drivers/BSP/STM32746G-Discovery/stm32746g_discovery_lcd.c ****   
 965:Drivers/BSP/STM32746G-Discovery/stm32746g_discovery_lcd.c ****   BSP_LCD_DrawLine(Points->X, Points->Y, (Points+PointCount-1)->X, (Points+PointCount-1)->Y);
 966:Drivers/BSP/STM32746G-Discovery/stm32746g_discovery_lcd.c ****   
 967:Drivers/BSP/STM32746G-Discovery/stm32746g_discovery_lcd.c ****   while(--PointCount)
 968:Drivers/BSP/STM32746G-Discovery/stm32746g_discovery_lcd.c ****   {
 969:Drivers/BSP/STM32746G-Discovery/stm32746g_discovery_lcd.c ****     x = Points->X;
 970:Drivers/BSP/STM32746G-Discovery/stm32746g_discovery_lcd.c ****     y = Points->Y;
 971:Drivers/BSP/STM32746G-Discovery/stm32746g_discovery_lcd.c ****     Points++;
 972:Drivers/BSP/STM32746G-Discovery/stm32746g_discovery_lcd.c ****     BSP_LCD_DrawLine(x, y, Points->X, Points->Y);
 973:Drivers/BSP/STM32746G-Discovery/stm32746g_discovery_lcd.c ****   }
 974:Drivers/BSP/STM32746G-Discovery/stm32746g_discovery_lcd.c **** }
 975:Drivers/BSP/STM32746G-Discovery/stm32746g_discovery_lcd.c **** 
 976:Drivers/BSP/STM32746G-Discovery/stm32746g_discovery_lcd.c **** /**
 977:Drivers/BSP/STM32746G-Discovery/stm32746g_discovery_lcd.c ****   * @brief  Draws an ellipse on LCD.
 978:Drivers/BSP/STM32746G-Discovery/stm32746g_discovery_lcd.c ****   * @param  Xpos: X position
 979:Drivers/BSP/STM32746G-Discovery/stm32746g_discovery_lcd.c ****   * @param  Ypos: Y position
 980:Drivers/BSP/STM32746G-Discovery/stm32746g_discovery_lcd.c ****   * @param  XRadius: Ellipse X radius
 981:Drivers/BSP/STM32746G-Discovery/stm32746g_discovery_lcd.c ****   * @param  YRadius: Ellipse Y radius
 982:Drivers/BSP/STM32746G-Discovery/stm32746g_discovery_lcd.c ****   * @retval None
 983:Drivers/BSP/STM32746G-Discovery/stm32746g_discovery_lcd.c ****   */
 984:Drivers/BSP/STM32746G-Discovery/stm32746g_discovery_lcd.c **** void BSP_LCD_DrawEllipse(int Xpos, int Ypos, int XRadius, int YRadius)
 985:Drivers/BSP/STM32746G-Discovery/stm32746g_discovery_lcd.c **** {
 986:Drivers/BSP/STM32746G-Discovery/stm32746g_discovery_lcd.c ****   int x = 0, y = -YRadius, err = 2-2*XRadius, e2;
 987:Drivers/BSP/STM32746G-Discovery/stm32746g_discovery_lcd.c ****   float k = 0, rad1 = 0, rad2 = 0;
 988:Drivers/BSP/STM32746G-Discovery/stm32746g_discovery_lcd.c ****   
 989:Drivers/BSP/STM32746G-Discovery/stm32746g_discovery_lcd.c ****   rad1 = XRadius;
 990:Drivers/BSP/STM32746G-Discovery/stm32746g_discovery_lcd.c ****   rad2 = YRadius;
 991:Drivers/BSP/STM32746G-Discovery/stm32746g_discovery_lcd.c ****   
 992:Drivers/BSP/STM32746G-Discovery/stm32746g_discovery_lcd.c ****   k = (float)(rad2/rad1);  
 993:Drivers/BSP/STM32746G-Discovery/stm32746g_discovery_lcd.c ****   
 994:Drivers/BSP/STM32746G-Discovery/stm32746g_discovery_lcd.c ****   do { 
 995:Drivers/BSP/STM32746G-Discovery/stm32746g_discovery_lcd.c ****     BSP_LCD_DrawPixel((Xpos-(uint16_t)(x/k)), (Ypos+y), DrawProp[ActiveLayer].TextColor);
 996:Drivers/BSP/STM32746G-Discovery/stm32746g_discovery_lcd.c ****     BSP_LCD_DrawPixel((Xpos+(uint16_t)(x/k)), (Ypos+y), DrawProp[ActiveLayer].TextColor);
 997:Drivers/BSP/STM32746G-Discovery/stm32746g_discovery_lcd.c ****     BSP_LCD_DrawPixel((Xpos+(uint16_t)(x/k)), (Ypos-y), DrawProp[ActiveLayer].TextColor);
 998:Drivers/BSP/STM32746G-Discovery/stm32746g_discovery_lcd.c ****     BSP_LCD_DrawPixel((Xpos-(uint16_t)(x/k)), (Ypos-y), DrawProp[ActiveLayer].TextColor);      
 999:Drivers/BSP/STM32746G-Discovery/stm32746g_discovery_lcd.c ****     
1000:Drivers/BSP/STM32746G-Discovery/stm32746g_discovery_lcd.c ****     e2 = err;
1001:Drivers/BSP/STM32746G-Discovery/stm32746g_discovery_lcd.c ****     if (e2 <= x) {
ARM GAS  C:\Users\milek\AppData\Local\Temp\ccMSPWBt.s 			page 19


1002:Drivers/BSP/STM32746G-Discovery/stm32746g_discovery_lcd.c ****       err += ++x*2+1;
1003:Drivers/BSP/STM32746G-Discovery/stm32746g_discovery_lcd.c ****       if (-y == x && e2 <= y) e2 = 0;
1004:Drivers/BSP/STM32746G-Discovery/stm32746g_discovery_lcd.c ****     }
1005:Drivers/BSP/STM32746G-Discovery/stm32746g_discovery_lcd.c ****     if (e2 > y) err += ++y*2+1;     
1006:Drivers/BSP/STM32746G-Discovery/stm32746g_discovery_lcd.c ****   }
1007:Drivers/BSP/STM32746G-Discovery/stm32746g_discovery_lcd.c ****   while (y <= 0);
1008:Drivers/BSP/STM32746G-Discovery/stm32746g_discovery_lcd.c **** }
1009:Drivers/BSP/STM32746G-Discovery/stm32746g_discovery_lcd.c **** 
1010:Drivers/BSP/STM32746G-Discovery/stm32746g_discovery_lcd.c **** /**
1011:Drivers/BSP/STM32746G-Discovery/stm32746g_discovery_lcd.c ****   * @brief  Draws a pixel on LCD.
1012:Drivers/BSP/STM32746G-Discovery/stm32746g_discovery_lcd.c ****   * @param  Xpos: X position
1013:Drivers/BSP/STM32746G-Discovery/stm32746g_discovery_lcd.c ****   * @param  Ypos: Y position
1014:Drivers/BSP/STM32746G-Discovery/stm32746g_discovery_lcd.c ****   * @param  RGB_Code: Pixel color in ARGB mode (8-8-8-8)
1015:Drivers/BSP/STM32746G-Discovery/stm32746g_discovery_lcd.c ****   * @retval None
1016:Drivers/BSP/STM32746G-Discovery/stm32746g_discovery_lcd.c ****   */
1017:Drivers/BSP/STM32746G-Discovery/stm32746g_discovery_lcd.c **** void BSP_LCD_DrawPixel(uint16_t Xpos, uint16_t Ypos, uint32_t RGB_Code)
1018:Drivers/BSP/STM32746G-Discovery/stm32746g_discovery_lcd.c **** {
1019:Drivers/BSP/STM32746G-Discovery/stm32746g_discovery_lcd.c ****   /* Write data value to all SDRAM memory */
1020:Drivers/BSP/STM32746G-Discovery/stm32746g_discovery_lcd.c ****   if(hLtdcHandler.LayerCfg[ActiveLayer].PixelFormat == LTDC_PIXEL_FORMAT_RGB565)
1021:Drivers/BSP/STM32746G-Discovery/stm32746g_discovery_lcd.c ****   { /* RGB565 format */
1022:Drivers/BSP/STM32746G-Discovery/stm32746g_discovery_lcd.c ****     *(__IO uint16_t*) (hLtdcHandler.LayerCfg[ActiveLayer].FBStartAdress + (2*(Ypos*BSP_LCD_GetXSize
1023:Drivers/BSP/STM32746G-Discovery/stm32746g_discovery_lcd.c ****   }
1024:Drivers/BSP/STM32746G-Discovery/stm32746g_discovery_lcd.c ****   else
1025:Drivers/BSP/STM32746G-Discovery/stm32746g_discovery_lcd.c ****   { /* ARGB8888 format */
1026:Drivers/BSP/STM32746G-Discovery/stm32746g_discovery_lcd.c ****     *(__IO uint32_t*) (hLtdcHandler.LayerCfg[ActiveLayer].FBStartAdress + (4*(Ypos*BSP_LCD_GetXSize
1027:Drivers/BSP/STM32746G-Discovery/stm32746g_discovery_lcd.c ****   }
1028:Drivers/BSP/STM32746G-Discovery/stm32746g_discovery_lcd.c **** }
1029:Drivers/BSP/STM32746G-Discovery/stm32746g_discovery_lcd.c **** 
1030:Drivers/BSP/STM32746G-Discovery/stm32746g_discovery_lcd.c **** /**
1031:Drivers/BSP/STM32746G-Discovery/stm32746g_discovery_lcd.c ****   * @brief  Draws a bitmap picture loaded in the internal Flash in ARGB888 format (32 bits per pixe
1032:Drivers/BSP/STM32746G-Discovery/stm32746g_discovery_lcd.c ****   * @param  Xpos: Bmp X position in the LCD
1033:Drivers/BSP/STM32746G-Discovery/stm32746g_discovery_lcd.c ****   * @param  Ypos: Bmp Y position in the LCD
1034:Drivers/BSP/STM32746G-Discovery/stm32746g_discovery_lcd.c ****   * @param  pbmp: Pointer to Bmp picture address in the internal Flash
1035:Drivers/BSP/STM32746G-Discovery/stm32746g_discovery_lcd.c ****   * @retval None
1036:Drivers/BSP/STM32746G-Discovery/stm32746g_discovery_lcd.c ****   */
1037:Drivers/BSP/STM32746G-Discovery/stm32746g_discovery_lcd.c **** void BSP_LCD_DrawBitmap(uint32_t Xpos, uint32_t Ypos, uint8_t *pbmp)
1038:Drivers/BSP/STM32746G-Discovery/stm32746g_discovery_lcd.c **** {
1039:Drivers/BSP/STM32746G-Discovery/stm32746g_discovery_lcd.c ****   uint32_t index = 0, width = 0, height = 0, bit_pixel = 0;
1040:Drivers/BSP/STM32746G-Discovery/stm32746g_discovery_lcd.c ****   uint32_t address;
1041:Drivers/BSP/STM32746G-Discovery/stm32746g_discovery_lcd.c ****   uint32_t input_color_mode = 0;
1042:Drivers/BSP/STM32746G-Discovery/stm32746g_discovery_lcd.c ****   
1043:Drivers/BSP/STM32746G-Discovery/stm32746g_discovery_lcd.c ****   /* Get bitmap data address offset */
1044:Drivers/BSP/STM32746G-Discovery/stm32746g_discovery_lcd.c ****   index = pbmp[10] + (pbmp[11] << 8) + (pbmp[12] << 16)  + (pbmp[13] << 24);
1045:Drivers/BSP/STM32746G-Discovery/stm32746g_discovery_lcd.c **** 
1046:Drivers/BSP/STM32746G-Discovery/stm32746g_discovery_lcd.c ****   /* Read bitmap width */
1047:Drivers/BSP/STM32746G-Discovery/stm32746g_discovery_lcd.c ****   width = pbmp[18] + (pbmp[19] << 8) + (pbmp[20] << 16)  + (pbmp[21] << 24);
1048:Drivers/BSP/STM32746G-Discovery/stm32746g_discovery_lcd.c **** 
1049:Drivers/BSP/STM32746G-Discovery/stm32746g_discovery_lcd.c ****   /* Read bitmap height */
1050:Drivers/BSP/STM32746G-Discovery/stm32746g_discovery_lcd.c ****   height = pbmp[22] + (pbmp[23] << 8) + (pbmp[24] << 16)  + (pbmp[25] << 24);
1051:Drivers/BSP/STM32746G-Discovery/stm32746g_discovery_lcd.c **** 
1052:Drivers/BSP/STM32746G-Discovery/stm32746g_discovery_lcd.c ****   /* Read bit/pixel */
1053:Drivers/BSP/STM32746G-Discovery/stm32746g_discovery_lcd.c ****   bit_pixel = pbmp[28] + (pbmp[29] << 8);  
1054:Drivers/BSP/STM32746G-Discovery/stm32746g_discovery_lcd.c ****   
1055:Drivers/BSP/STM32746G-Discovery/stm32746g_discovery_lcd.c ****   /* Set the address */
1056:Drivers/BSP/STM32746G-Discovery/stm32746g_discovery_lcd.c ****   address = hLtdcHandler.LayerCfg[ActiveLayer].FBStartAdress + (((BSP_LCD_GetXSize()*Ypos) + Xpos)*
1057:Drivers/BSP/STM32746G-Discovery/stm32746g_discovery_lcd.c ****   
1058:Drivers/BSP/STM32746G-Discovery/stm32746g_discovery_lcd.c ****   /* Get the layer pixel format */    
ARM GAS  C:\Users\milek\AppData\Local\Temp\ccMSPWBt.s 			page 20


1059:Drivers/BSP/STM32746G-Discovery/stm32746g_discovery_lcd.c ****   if ((bit_pixel/8) == 4)
1060:Drivers/BSP/STM32746G-Discovery/stm32746g_discovery_lcd.c ****   {
1061:Drivers/BSP/STM32746G-Discovery/stm32746g_discovery_lcd.c ****     input_color_mode = CM_ARGB8888;
1062:Drivers/BSP/STM32746G-Discovery/stm32746g_discovery_lcd.c ****   }
1063:Drivers/BSP/STM32746G-Discovery/stm32746g_discovery_lcd.c ****   else if ((bit_pixel/8) == 2)
1064:Drivers/BSP/STM32746G-Discovery/stm32746g_discovery_lcd.c ****   {
1065:Drivers/BSP/STM32746G-Discovery/stm32746g_discovery_lcd.c ****     input_color_mode = CM_RGB565;   
1066:Drivers/BSP/STM32746G-Discovery/stm32746g_discovery_lcd.c ****   }
1067:Drivers/BSP/STM32746G-Discovery/stm32746g_discovery_lcd.c ****   else 
1068:Drivers/BSP/STM32746G-Discovery/stm32746g_discovery_lcd.c ****   {
1069:Drivers/BSP/STM32746G-Discovery/stm32746g_discovery_lcd.c ****     input_color_mode = CM_RGB888;
1070:Drivers/BSP/STM32746G-Discovery/stm32746g_discovery_lcd.c ****   }
1071:Drivers/BSP/STM32746G-Discovery/stm32746g_discovery_lcd.c ****   
1072:Drivers/BSP/STM32746G-Discovery/stm32746g_discovery_lcd.c ****   /* Bypass the bitmap header */
1073:Drivers/BSP/STM32746G-Discovery/stm32746g_discovery_lcd.c ****   pbmp += (index + (width * (height - 1) * (bit_pixel/8)));  
1074:Drivers/BSP/STM32746G-Discovery/stm32746g_discovery_lcd.c ****   
1075:Drivers/BSP/STM32746G-Discovery/stm32746g_discovery_lcd.c ****   /* Convert picture to ARGB8888 pixel format */
1076:Drivers/BSP/STM32746G-Discovery/stm32746g_discovery_lcd.c ****   for(index=0; index < height; index++)
1077:Drivers/BSP/STM32746G-Discovery/stm32746g_discovery_lcd.c ****   {
1078:Drivers/BSP/STM32746G-Discovery/stm32746g_discovery_lcd.c ****     /* Pixel format conversion */
1079:Drivers/BSP/STM32746G-Discovery/stm32746g_discovery_lcd.c ****     LL_ConvertLineToARGB8888((uint32_t *)pbmp, (uint32_t *)address, width, input_color_mode);
1080:Drivers/BSP/STM32746G-Discovery/stm32746g_discovery_lcd.c ****     
1081:Drivers/BSP/STM32746G-Discovery/stm32746g_discovery_lcd.c ****     /* Increment the source and destination buffers */
1082:Drivers/BSP/STM32746G-Discovery/stm32746g_discovery_lcd.c ****     address+=  (BSP_LCD_GetXSize()*4);
1083:Drivers/BSP/STM32746G-Discovery/stm32746g_discovery_lcd.c ****     pbmp -= width*(bit_pixel/8);
1084:Drivers/BSP/STM32746G-Discovery/stm32746g_discovery_lcd.c ****   } 
1085:Drivers/BSP/STM32746G-Discovery/stm32746g_discovery_lcd.c **** }
1086:Drivers/BSP/STM32746G-Discovery/stm32746g_discovery_lcd.c **** 
1087:Drivers/BSP/STM32746G-Discovery/stm32746g_discovery_lcd.c **** /**
1088:Drivers/BSP/STM32746G-Discovery/stm32746g_discovery_lcd.c ****   * @brief  Draws a full rectangle.
1089:Drivers/BSP/STM32746G-Discovery/stm32746g_discovery_lcd.c ****   * @param  Xpos: X position
1090:Drivers/BSP/STM32746G-Discovery/stm32746g_discovery_lcd.c ****   * @param  Ypos: Y position
1091:Drivers/BSP/STM32746G-Discovery/stm32746g_discovery_lcd.c ****   * @param  Width: Rectangle width  
1092:Drivers/BSP/STM32746G-Discovery/stm32746g_discovery_lcd.c ****   * @param  Height: Rectangle height
1093:Drivers/BSP/STM32746G-Discovery/stm32746g_discovery_lcd.c ****   * @retval None
1094:Drivers/BSP/STM32746G-Discovery/stm32746g_discovery_lcd.c ****   */
1095:Drivers/BSP/STM32746G-Discovery/stm32746g_discovery_lcd.c **** void BSP_LCD_FillRect(uint16_t Xpos, uint16_t Ypos, uint16_t Width, uint16_t Height)
1096:Drivers/BSP/STM32746G-Discovery/stm32746g_discovery_lcd.c **** {
1097:Drivers/BSP/STM32746G-Discovery/stm32746g_discovery_lcd.c ****   uint32_t  x_address = 0;
1098:Drivers/BSP/STM32746G-Discovery/stm32746g_discovery_lcd.c ****   
1099:Drivers/BSP/STM32746G-Discovery/stm32746g_discovery_lcd.c ****   /* Set the text color */
1100:Drivers/BSP/STM32746G-Discovery/stm32746g_discovery_lcd.c ****   BSP_LCD_SetTextColor(DrawProp[ActiveLayer].TextColor);
1101:Drivers/BSP/STM32746G-Discovery/stm32746g_discovery_lcd.c ****   
1102:Drivers/BSP/STM32746G-Discovery/stm32746g_discovery_lcd.c ****   /* Get the rectangle start address */
1103:Drivers/BSP/STM32746G-Discovery/stm32746g_discovery_lcd.c ****   if(hLtdcHandler.LayerCfg[ActiveLayer].PixelFormat == LTDC_PIXEL_FORMAT_RGB565)
1104:Drivers/BSP/STM32746G-Discovery/stm32746g_discovery_lcd.c ****   { /* RGB565 format */
1105:Drivers/BSP/STM32746G-Discovery/stm32746g_discovery_lcd.c ****     x_address = (hLtdcHandler.LayerCfg[ActiveLayer].FBStartAdress) + 2*(BSP_LCD_GetXSize()*Ypos + X
1106:Drivers/BSP/STM32746G-Discovery/stm32746g_discovery_lcd.c ****   }
1107:Drivers/BSP/STM32746G-Discovery/stm32746g_discovery_lcd.c ****   else
1108:Drivers/BSP/STM32746G-Discovery/stm32746g_discovery_lcd.c ****   { /* ARGB8888 format */
1109:Drivers/BSP/STM32746G-Discovery/stm32746g_discovery_lcd.c ****     x_address = (hLtdcHandler.LayerCfg[ActiveLayer].FBStartAdress) + 4*(BSP_LCD_GetXSize()*Ypos + X
1110:Drivers/BSP/STM32746G-Discovery/stm32746g_discovery_lcd.c ****   }
1111:Drivers/BSP/STM32746G-Discovery/stm32746g_discovery_lcd.c ****   /* Fill the rectangle */
1112:Drivers/BSP/STM32746G-Discovery/stm32746g_discovery_lcd.c ****   LL_FillBuffer(ActiveLayer, (uint32_t *)x_address, Width, Height, (BSP_LCD_GetXSize() - Width), Dr
1113:Drivers/BSP/STM32746G-Discovery/stm32746g_discovery_lcd.c **** }
1114:Drivers/BSP/STM32746G-Discovery/stm32746g_discovery_lcd.c **** 
1115:Drivers/BSP/STM32746G-Discovery/stm32746g_discovery_lcd.c **** /**
ARM GAS  C:\Users\milek\AppData\Local\Temp\ccMSPWBt.s 			page 21


1116:Drivers/BSP/STM32746G-Discovery/stm32746g_discovery_lcd.c ****   * @brief  Draws a full circle.
1117:Drivers/BSP/STM32746G-Discovery/stm32746g_discovery_lcd.c ****   * @param  Xpos: X position
1118:Drivers/BSP/STM32746G-Discovery/stm32746g_discovery_lcd.c ****   * @param  Ypos: Y position
1119:Drivers/BSP/STM32746G-Discovery/stm32746g_discovery_lcd.c ****   * @param  Radius: Circle radius
1120:Drivers/BSP/STM32746G-Discovery/stm32746g_discovery_lcd.c ****   * @retval None
1121:Drivers/BSP/STM32746G-Discovery/stm32746g_discovery_lcd.c ****   */
1122:Drivers/BSP/STM32746G-Discovery/stm32746g_discovery_lcd.c **** void BSP_LCD_FillCircle(uint16_t Xpos, uint16_t Ypos, uint16_t Radius)
1123:Drivers/BSP/STM32746G-Discovery/stm32746g_discovery_lcd.c **** {
1124:Drivers/BSP/STM32746G-Discovery/stm32746g_discovery_lcd.c ****   int32_t  decision;     /* Decision Variable */ 
1125:Drivers/BSP/STM32746G-Discovery/stm32746g_discovery_lcd.c ****   uint32_t  current_x;   /* Current X Value */
1126:Drivers/BSP/STM32746G-Discovery/stm32746g_discovery_lcd.c ****   uint32_t  current_y;   /* Current Y Value */
1127:Drivers/BSP/STM32746G-Discovery/stm32746g_discovery_lcd.c ****   
1128:Drivers/BSP/STM32746G-Discovery/stm32746g_discovery_lcd.c ****   decision = 3 - (Radius << 1);
1129:Drivers/BSP/STM32746G-Discovery/stm32746g_discovery_lcd.c ****   
1130:Drivers/BSP/STM32746G-Discovery/stm32746g_discovery_lcd.c ****   current_x = 0;
1131:Drivers/BSP/STM32746G-Discovery/stm32746g_discovery_lcd.c ****   current_y = Radius;
1132:Drivers/BSP/STM32746G-Discovery/stm32746g_discovery_lcd.c ****   
1133:Drivers/BSP/STM32746G-Discovery/stm32746g_discovery_lcd.c ****   BSP_LCD_SetTextColor(DrawProp[ActiveLayer].TextColor);
1134:Drivers/BSP/STM32746G-Discovery/stm32746g_discovery_lcd.c ****   
1135:Drivers/BSP/STM32746G-Discovery/stm32746g_discovery_lcd.c ****   while (current_x <= current_y)
1136:Drivers/BSP/STM32746G-Discovery/stm32746g_discovery_lcd.c ****   {
1137:Drivers/BSP/STM32746G-Discovery/stm32746g_discovery_lcd.c ****     if(current_y > 0) 
1138:Drivers/BSP/STM32746G-Discovery/stm32746g_discovery_lcd.c ****     {
1139:Drivers/BSP/STM32746G-Discovery/stm32746g_discovery_lcd.c ****       BSP_LCD_DrawHLine(Xpos - current_y, Ypos + current_x, 2*current_y);
1140:Drivers/BSP/STM32746G-Discovery/stm32746g_discovery_lcd.c ****       BSP_LCD_DrawHLine(Xpos - current_y, Ypos - current_x, 2*current_y);
1141:Drivers/BSP/STM32746G-Discovery/stm32746g_discovery_lcd.c ****     }
1142:Drivers/BSP/STM32746G-Discovery/stm32746g_discovery_lcd.c ****     
1143:Drivers/BSP/STM32746G-Discovery/stm32746g_discovery_lcd.c ****     if(current_x > 0) 
1144:Drivers/BSP/STM32746G-Discovery/stm32746g_discovery_lcd.c ****     {
1145:Drivers/BSP/STM32746G-Discovery/stm32746g_discovery_lcd.c ****       BSP_LCD_DrawHLine(Xpos - current_x, Ypos - current_y, 2*current_x);
1146:Drivers/BSP/STM32746G-Discovery/stm32746g_discovery_lcd.c ****       BSP_LCD_DrawHLine(Xpos - current_x, Ypos + current_y, 2*current_x);
1147:Drivers/BSP/STM32746G-Discovery/stm32746g_discovery_lcd.c ****     }
1148:Drivers/BSP/STM32746G-Discovery/stm32746g_discovery_lcd.c ****     if (decision < 0)
1149:Drivers/BSP/STM32746G-Discovery/stm32746g_discovery_lcd.c ****     { 
1150:Drivers/BSP/STM32746G-Discovery/stm32746g_discovery_lcd.c ****       decision += (current_x << 2) + 6;
1151:Drivers/BSP/STM32746G-Discovery/stm32746g_discovery_lcd.c ****     }
1152:Drivers/BSP/STM32746G-Discovery/stm32746g_discovery_lcd.c ****     else
1153:Drivers/BSP/STM32746G-Discovery/stm32746g_discovery_lcd.c ****     {
1154:Drivers/BSP/STM32746G-Discovery/stm32746g_discovery_lcd.c ****       decision += ((current_x - current_y) << 2) + 10;
1155:Drivers/BSP/STM32746G-Discovery/stm32746g_discovery_lcd.c ****       current_y--;
1156:Drivers/BSP/STM32746G-Discovery/stm32746g_discovery_lcd.c ****     }
1157:Drivers/BSP/STM32746G-Discovery/stm32746g_discovery_lcd.c ****     current_x++;
1158:Drivers/BSP/STM32746G-Discovery/stm32746g_discovery_lcd.c ****   }
1159:Drivers/BSP/STM32746G-Discovery/stm32746g_discovery_lcd.c ****   
1160:Drivers/BSP/STM32746G-Discovery/stm32746g_discovery_lcd.c ****   BSP_LCD_SetTextColor(DrawProp[ActiveLayer].TextColor);
1161:Drivers/BSP/STM32746G-Discovery/stm32746g_discovery_lcd.c ****   BSP_LCD_DrawCircle(Xpos, Ypos, Radius);
1162:Drivers/BSP/STM32746G-Discovery/stm32746g_discovery_lcd.c **** }
1163:Drivers/BSP/STM32746G-Discovery/stm32746g_discovery_lcd.c **** 
1164:Drivers/BSP/STM32746G-Discovery/stm32746g_discovery_lcd.c **** /**
1165:Drivers/BSP/STM32746G-Discovery/stm32746g_discovery_lcd.c ****   * @brief  Draws a full poly-line (between many points).
1166:Drivers/BSP/STM32746G-Discovery/stm32746g_discovery_lcd.c ****   * @param  Points: Pointer to the points array
1167:Drivers/BSP/STM32746G-Discovery/stm32746g_discovery_lcd.c ****   * @param  PointCount: Number of points
1168:Drivers/BSP/STM32746G-Discovery/stm32746g_discovery_lcd.c ****   * @retval None
1169:Drivers/BSP/STM32746G-Discovery/stm32746g_discovery_lcd.c ****   */
1170:Drivers/BSP/STM32746G-Discovery/stm32746g_discovery_lcd.c **** void BSP_LCD_FillPolygon(pPoint Points, uint16_t PointCount)
1171:Drivers/BSP/STM32746G-Discovery/stm32746g_discovery_lcd.c **** {
1172:Drivers/BSP/STM32746G-Discovery/stm32746g_discovery_lcd.c ****   int16_t X = 0, Y = 0, X2 = 0, Y2 = 0, X_center = 0, Y_center = 0, X_first = 0, Y_first = 0, pixel
ARM GAS  C:\Users\milek\AppData\Local\Temp\ccMSPWBt.s 			page 22


1173:Drivers/BSP/STM32746G-Discovery/stm32746g_discovery_lcd.c ****   uint16_t  image_left = 0, image_right = 0, image_top = 0, image_bottom = 0;
1174:Drivers/BSP/STM32746G-Discovery/stm32746g_discovery_lcd.c ****   
1175:Drivers/BSP/STM32746G-Discovery/stm32746g_discovery_lcd.c ****   image_left = image_right = Points->X;
1176:Drivers/BSP/STM32746G-Discovery/stm32746g_discovery_lcd.c ****   image_top= image_bottom = Points->Y;
1177:Drivers/BSP/STM32746G-Discovery/stm32746g_discovery_lcd.c ****   
1178:Drivers/BSP/STM32746G-Discovery/stm32746g_discovery_lcd.c ****   for(counter = 1; counter < PointCount; counter++)
1179:Drivers/BSP/STM32746G-Discovery/stm32746g_discovery_lcd.c ****   {
1180:Drivers/BSP/STM32746G-Discovery/stm32746g_discovery_lcd.c ****     pixelX = POLY_X(counter);
1181:Drivers/BSP/STM32746G-Discovery/stm32746g_discovery_lcd.c ****     if(pixelX < image_left)
1182:Drivers/BSP/STM32746G-Discovery/stm32746g_discovery_lcd.c ****     {
1183:Drivers/BSP/STM32746G-Discovery/stm32746g_discovery_lcd.c ****       image_left = pixelX;
1184:Drivers/BSP/STM32746G-Discovery/stm32746g_discovery_lcd.c ****     }
1185:Drivers/BSP/STM32746G-Discovery/stm32746g_discovery_lcd.c ****     if(pixelX > image_right)
1186:Drivers/BSP/STM32746G-Discovery/stm32746g_discovery_lcd.c ****     {
1187:Drivers/BSP/STM32746G-Discovery/stm32746g_discovery_lcd.c ****       image_right = pixelX;
1188:Drivers/BSP/STM32746G-Discovery/stm32746g_discovery_lcd.c ****     }
1189:Drivers/BSP/STM32746G-Discovery/stm32746g_discovery_lcd.c ****     
1190:Drivers/BSP/STM32746G-Discovery/stm32746g_discovery_lcd.c ****     pixelY = POLY_Y(counter);
1191:Drivers/BSP/STM32746G-Discovery/stm32746g_discovery_lcd.c ****     if(pixelY < image_top)
1192:Drivers/BSP/STM32746G-Discovery/stm32746g_discovery_lcd.c ****     { 
1193:Drivers/BSP/STM32746G-Discovery/stm32746g_discovery_lcd.c ****       image_top = pixelY;
1194:Drivers/BSP/STM32746G-Discovery/stm32746g_discovery_lcd.c ****     }
1195:Drivers/BSP/STM32746G-Discovery/stm32746g_discovery_lcd.c ****     if(pixelY > image_bottom)
1196:Drivers/BSP/STM32746G-Discovery/stm32746g_discovery_lcd.c ****     {
1197:Drivers/BSP/STM32746G-Discovery/stm32746g_discovery_lcd.c ****       image_bottom = pixelY;
1198:Drivers/BSP/STM32746G-Discovery/stm32746g_discovery_lcd.c ****     }
1199:Drivers/BSP/STM32746G-Discovery/stm32746g_discovery_lcd.c ****   }  
1200:Drivers/BSP/STM32746G-Discovery/stm32746g_discovery_lcd.c ****   
1201:Drivers/BSP/STM32746G-Discovery/stm32746g_discovery_lcd.c ****   if(PointCount < 2)
1202:Drivers/BSP/STM32746G-Discovery/stm32746g_discovery_lcd.c ****   {
1203:Drivers/BSP/STM32746G-Discovery/stm32746g_discovery_lcd.c ****     return;
1204:Drivers/BSP/STM32746G-Discovery/stm32746g_discovery_lcd.c ****   }
1205:Drivers/BSP/STM32746G-Discovery/stm32746g_discovery_lcd.c ****   
1206:Drivers/BSP/STM32746G-Discovery/stm32746g_discovery_lcd.c ****   X_center = (image_left + image_right)/2;
1207:Drivers/BSP/STM32746G-Discovery/stm32746g_discovery_lcd.c ****   Y_center = (image_bottom + image_top)/2;
1208:Drivers/BSP/STM32746G-Discovery/stm32746g_discovery_lcd.c ****   
1209:Drivers/BSP/STM32746G-Discovery/stm32746g_discovery_lcd.c ****   X_first = Points->X;
1210:Drivers/BSP/STM32746G-Discovery/stm32746g_discovery_lcd.c ****   Y_first = Points->Y;
1211:Drivers/BSP/STM32746G-Discovery/stm32746g_discovery_lcd.c ****   
1212:Drivers/BSP/STM32746G-Discovery/stm32746g_discovery_lcd.c ****   while(--PointCount)
1213:Drivers/BSP/STM32746G-Discovery/stm32746g_discovery_lcd.c ****   {
1214:Drivers/BSP/STM32746G-Discovery/stm32746g_discovery_lcd.c ****     X = Points->X;
1215:Drivers/BSP/STM32746G-Discovery/stm32746g_discovery_lcd.c ****     Y = Points->Y;
1216:Drivers/BSP/STM32746G-Discovery/stm32746g_discovery_lcd.c ****     Points++;
1217:Drivers/BSP/STM32746G-Discovery/stm32746g_discovery_lcd.c ****     X2 = Points->X;
1218:Drivers/BSP/STM32746G-Discovery/stm32746g_discovery_lcd.c ****     Y2 = Points->Y;    
1219:Drivers/BSP/STM32746G-Discovery/stm32746g_discovery_lcd.c ****     
1220:Drivers/BSP/STM32746G-Discovery/stm32746g_discovery_lcd.c ****     FillTriangle(X, X2, X_center, Y, Y2, Y_center);
1221:Drivers/BSP/STM32746G-Discovery/stm32746g_discovery_lcd.c ****     FillTriangle(X, X_center, X2, Y, Y_center, Y2);
1222:Drivers/BSP/STM32746G-Discovery/stm32746g_discovery_lcd.c ****     FillTriangle(X_center, X2, X, Y_center, Y2, Y);   
1223:Drivers/BSP/STM32746G-Discovery/stm32746g_discovery_lcd.c ****   }
1224:Drivers/BSP/STM32746G-Discovery/stm32746g_discovery_lcd.c ****   
1225:Drivers/BSP/STM32746G-Discovery/stm32746g_discovery_lcd.c ****   FillTriangle(X_first, X2, X_center, Y_first, Y2, Y_center);
1226:Drivers/BSP/STM32746G-Discovery/stm32746g_discovery_lcd.c ****   FillTriangle(X_first, X_center, X2, Y_first, Y_center, Y2);
1227:Drivers/BSP/STM32746G-Discovery/stm32746g_discovery_lcd.c ****   FillTriangle(X_center, X2, X_first, Y_center, Y2, Y_first);   
1228:Drivers/BSP/STM32746G-Discovery/stm32746g_discovery_lcd.c **** }
1229:Drivers/BSP/STM32746G-Discovery/stm32746g_discovery_lcd.c **** 
ARM GAS  C:\Users\milek\AppData\Local\Temp\ccMSPWBt.s 			page 23


1230:Drivers/BSP/STM32746G-Discovery/stm32746g_discovery_lcd.c **** /**
1231:Drivers/BSP/STM32746G-Discovery/stm32746g_discovery_lcd.c ****   * @brief  Draws a full ellipse.
1232:Drivers/BSP/STM32746G-Discovery/stm32746g_discovery_lcd.c ****   * @param  Xpos: X position
1233:Drivers/BSP/STM32746G-Discovery/stm32746g_discovery_lcd.c ****   * @param  Ypos: Y position
1234:Drivers/BSP/STM32746G-Discovery/stm32746g_discovery_lcd.c ****   * @param  XRadius: Ellipse X radius
1235:Drivers/BSP/STM32746G-Discovery/stm32746g_discovery_lcd.c ****   * @param  YRadius: Ellipse Y radius  
1236:Drivers/BSP/STM32746G-Discovery/stm32746g_discovery_lcd.c ****   * @retval None
1237:Drivers/BSP/STM32746G-Discovery/stm32746g_discovery_lcd.c ****   */
1238:Drivers/BSP/STM32746G-Discovery/stm32746g_discovery_lcd.c **** void BSP_LCD_FillEllipse(int Xpos, int Ypos, int XRadius, int YRadius)
1239:Drivers/BSP/STM32746G-Discovery/stm32746g_discovery_lcd.c **** {
1240:Drivers/BSP/STM32746G-Discovery/stm32746g_discovery_lcd.c ****   int x = 0, y = -YRadius, err = 2-2*XRadius, e2;
1241:Drivers/BSP/STM32746G-Discovery/stm32746g_discovery_lcd.c ****   float k = 0, rad1 = 0, rad2 = 0;
1242:Drivers/BSP/STM32746G-Discovery/stm32746g_discovery_lcd.c ****   
1243:Drivers/BSP/STM32746G-Discovery/stm32746g_discovery_lcd.c ****   rad1 = XRadius;
1244:Drivers/BSP/STM32746G-Discovery/stm32746g_discovery_lcd.c ****   rad2 = YRadius;
1245:Drivers/BSP/STM32746G-Discovery/stm32746g_discovery_lcd.c ****   
1246:Drivers/BSP/STM32746G-Discovery/stm32746g_discovery_lcd.c ****   k = (float)(rad2/rad1);
1247:Drivers/BSP/STM32746G-Discovery/stm32746g_discovery_lcd.c ****   
1248:Drivers/BSP/STM32746G-Discovery/stm32746g_discovery_lcd.c ****   do 
1249:Drivers/BSP/STM32746G-Discovery/stm32746g_discovery_lcd.c ****   {       
1250:Drivers/BSP/STM32746G-Discovery/stm32746g_discovery_lcd.c ****     BSP_LCD_DrawHLine((Xpos-(uint16_t)(x/k)), (Ypos+y), (2*(uint16_t)(x/k) + 1));
1251:Drivers/BSP/STM32746G-Discovery/stm32746g_discovery_lcd.c ****     BSP_LCD_DrawHLine((Xpos-(uint16_t)(x/k)), (Ypos-y), (2*(uint16_t)(x/k) + 1));
1252:Drivers/BSP/STM32746G-Discovery/stm32746g_discovery_lcd.c ****     
1253:Drivers/BSP/STM32746G-Discovery/stm32746g_discovery_lcd.c ****     e2 = err;
1254:Drivers/BSP/STM32746G-Discovery/stm32746g_discovery_lcd.c ****     if (e2 <= x) 
1255:Drivers/BSP/STM32746G-Discovery/stm32746g_discovery_lcd.c ****     {
1256:Drivers/BSP/STM32746G-Discovery/stm32746g_discovery_lcd.c ****       err += ++x*2+1;
1257:Drivers/BSP/STM32746G-Discovery/stm32746g_discovery_lcd.c ****       if (-y == x && e2 <= y) e2 = 0;
1258:Drivers/BSP/STM32746G-Discovery/stm32746g_discovery_lcd.c ****     }
1259:Drivers/BSP/STM32746G-Discovery/stm32746g_discovery_lcd.c ****     if (e2 > y) err += ++y*2+1;
1260:Drivers/BSP/STM32746G-Discovery/stm32746g_discovery_lcd.c ****   }
1261:Drivers/BSP/STM32746G-Discovery/stm32746g_discovery_lcd.c ****   while (y <= 0);
1262:Drivers/BSP/STM32746G-Discovery/stm32746g_discovery_lcd.c **** }
1263:Drivers/BSP/STM32746G-Discovery/stm32746g_discovery_lcd.c **** 
1264:Drivers/BSP/STM32746G-Discovery/stm32746g_discovery_lcd.c **** /**
1265:Drivers/BSP/STM32746G-Discovery/stm32746g_discovery_lcd.c ****   * @brief  Enables the display.
1266:Drivers/BSP/STM32746G-Discovery/stm32746g_discovery_lcd.c ****   * @retval None
1267:Drivers/BSP/STM32746G-Discovery/stm32746g_discovery_lcd.c ****   */
1268:Drivers/BSP/STM32746G-Discovery/stm32746g_discovery_lcd.c **** void BSP_LCD_DisplayOn(void)
1269:Drivers/BSP/STM32746G-Discovery/stm32746g_discovery_lcd.c **** {
1270:Drivers/BSP/STM32746G-Discovery/stm32746g_discovery_lcd.c ****   /* Display On */
1271:Drivers/BSP/STM32746G-Discovery/stm32746g_discovery_lcd.c ****   __HAL_LTDC_ENABLE(&hLtdcHandler);
1272:Drivers/BSP/STM32746G-Discovery/stm32746g_discovery_lcd.c ****   HAL_GPIO_WritePin(LCD_DISP_GPIO_PORT, LCD_DISP_PIN, GPIO_PIN_SET);        /* Assert LCD_DISP pin 
1273:Drivers/BSP/STM32746G-Discovery/stm32746g_discovery_lcd.c ****   HAL_GPIO_WritePin(LCD_BL_CTRL_GPIO_PORT, LCD_BL_CTRL_PIN, GPIO_PIN_SET);  /* Assert LCD_BL_CTRL p
1274:Drivers/BSP/STM32746G-Discovery/stm32746g_discovery_lcd.c **** }
1275:Drivers/BSP/STM32746G-Discovery/stm32746g_discovery_lcd.c **** 
1276:Drivers/BSP/STM32746G-Discovery/stm32746g_discovery_lcd.c **** /**
1277:Drivers/BSP/STM32746G-Discovery/stm32746g_discovery_lcd.c ****   * @brief  Disables the display.
1278:Drivers/BSP/STM32746G-Discovery/stm32746g_discovery_lcd.c ****   * @retval None
1279:Drivers/BSP/STM32746G-Discovery/stm32746g_discovery_lcd.c ****   */
1280:Drivers/BSP/STM32746G-Discovery/stm32746g_discovery_lcd.c **** void BSP_LCD_DisplayOff(void)
1281:Drivers/BSP/STM32746G-Discovery/stm32746g_discovery_lcd.c **** {
1282:Drivers/BSP/STM32746G-Discovery/stm32746g_discovery_lcd.c ****   /* Display Off */
1283:Drivers/BSP/STM32746G-Discovery/stm32746g_discovery_lcd.c ****   __HAL_LTDC_DISABLE(&hLtdcHandler);
1284:Drivers/BSP/STM32746G-Discovery/stm32746g_discovery_lcd.c ****   HAL_GPIO_WritePin(LCD_DISP_GPIO_PORT, LCD_DISP_PIN, GPIO_PIN_RESET);      /* De-assert LCD_DISP p
1285:Drivers/BSP/STM32746G-Discovery/stm32746g_discovery_lcd.c ****   HAL_GPIO_WritePin(LCD_BL_CTRL_GPIO_PORT, LCD_BL_CTRL_PIN, GPIO_PIN_RESET);/* De-assert LCD_BL_CTR
1286:Drivers/BSP/STM32746G-Discovery/stm32746g_discovery_lcd.c **** }
ARM GAS  C:\Users\milek\AppData\Local\Temp\ccMSPWBt.s 			page 24


1287:Drivers/BSP/STM32746G-Discovery/stm32746g_discovery_lcd.c **** 
1288:Drivers/BSP/STM32746G-Discovery/stm32746g_discovery_lcd.c **** /**
1289:Drivers/BSP/STM32746G-Discovery/stm32746g_discovery_lcd.c ****   * @brief  Initializes the LTDC MSP.
1290:Drivers/BSP/STM32746G-Discovery/stm32746g_discovery_lcd.c ****   * @param  hltdc: LTDC handle
1291:Drivers/BSP/STM32746G-Discovery/stm32746g_discovery_lcd.c ****   * @param  Params
1292:Drivers/BSP/STM32746G-Discovery/stm32746g_discovery_lcd.c ****   * @retval None
1293:Drivers/BSP/STM32746G-Discovery/stm32746g_discovery_lcd.c ****   */
1294:Drivers/BSP/STM32746G-Discovery/stm32746g_discovery_lcd.c **** __weak void BSP_LCD_MspInit(LTDC_HandleTypeDef *hltdc, void *Params)
1295:Drivers/BSP/STM32746G-Discovery/stm32746g_discovery_lcd.c **** {
1296:Drivers/BSP/STM32746G-Discovery/stm32746g_discovery_lcd.c ****   GPIO_InitTypeDef gpio_init_structure;
1297:Drivers/BSP/STM32746G-Discovery/stm32746g_discovery_lcd.c ****   
1298:Drivers/BSP/STM32746G-Discovery/stm32746g_discovery_lcd.c ****   /* Enable the LTDC and DMA2D clocks */
1299:Drivers/BSP/STM32746G-Discovery/stm32746g_discovery_lcd.c ****   __HAL_RCC_LTDC_CLK_ENABLE();
1300:Drivers/BSP/STM32746G-Discovery/stm32746g_discovery_lcd.c ****   __HAL_RCC_DMA2D_CLK_ENABLE();
1301:Drivers/BSP/STM32746G-Discovery/stm32746g_discovery_lcd.c ****   
1302:Drivers/BSP/STM32746G-Discovery/stm32746g_discovery_lcd.c ****   /* Enable GPIOs clock */
1303:Drivers/BSP/STM32746G-Discovery/stm32746g_discovery_lcd.c ****   __HAL_RCC_GPIOE_CLK_ENABLE();
1304:Drivers/BSP/STM32746G-Discovery/stm32746g_discovery_lcd.c ****   __HAL_RCC_GPIOG_CLK_ENABLE();
1305:Drivers/BSP/STM32746G-Discovery/stm32746g_discovery_lcd.c ****   __HAL_RCC_GPIOI_CLK_ENABLE();
1306:Drivers/BSP/STM32746G-Discovery/stm32746g_discovery_lcd.c ****   __HAL_RCC_GPIOJ_CLK_ENABLE();
1307:Drivers/BSP/STM32746G-Discovery/stm32746g_discovery_lcd.c ****   __HAL_RCC_GPIOK_CLK_ENABLE();
1308:Drivers/BSP/STM32746G-Discovery/stm32746g_discovery_lcd.c ****   LCD_DISP_GPIO_CLK_ENABLE();
1309:Drivers/BSP/STM32746G-Discovery/stm32746g_discovery_lcd.c ****   LCD_BL_CTRL_GPIO_CLK_ENABLE();
1310:Drivers/BSP/STM32746G-Discovery/stm32746g_discovery_lcd.c **** 
1311:Drivers/BSP/STM32746G-Discovery/stm32746g_discovery_lcd.c ****   /*** LTDC Pins configuration ***/
1312:Drivers/BSP/STM32746G-Discovery/stm32746g_discovery_lcd.c ****   /* GPIOE configuration */
1313:Drivers/BSP/STM32746G-Discovery/stm32746g_discovery_lcd.c ****   gpio_init_structure.Pin       = GPIO_PIN_4;
1314:Drivers/BSP/STM32746G-Discovery/stm32746g_discovery_lcd.c ****   gpio_init_structure.Mode      = GPIO_MODE_AF_PP;
1315:Drivers/BSP/STM32746G-Discovery/stm32746g_discovery_lcd.c ****   gpio_init_structure.Pull      = GPIO_NOPULL;
1316:Drivers/BSP/STM32746G-Discovery/stm32746g_discovery_lcd.c ****   gpio_init_structure.Speed     = GPIO_SPEED_FAST;
1317:Drivers/BSP/STM32746G-Discovery/stm32746g_discovery_lcd.c ****   gpio_init_structure.Alternate = GPIO_AF14_LTDC;  
1318:Drivers/BSP/STM32746G-Discovery/stm32746g_discovery_lcd.c ****   HAL_GPIO_Init(GPIOE, &gpio_init_structure);
1319:Drivers/BSP/STM32746G-Discovery/stm32746g_discovery_lcd.c **** 
1320:Drivers/BSP/STM32746G-Discovery/stm32746g_discovery_lcd.c ****   /* GPIOG configuration */
1321:Drivers/BSP/STM32746G-Discovery/stm32746g_discovery_lcd.c ****   gpio_init_structure.Pin       = GPIO_PIN_12;
1322:Drivers/BSP/STM32746G-Discovery/stm32746g_discovery_lcd.c ****   gpio_init_structure.Mode      = GPIO_MODE_AF_PP;
1323:Drivers/BSP/STM32746G-Discovery/stm32746g_discovery_lcd.c ****   gpio_init_structure.Alternate = GPIO_AF9_LTDC;
1324:Drivers/BSP/STM32746G-Discovery/stm32746g_discovery_lcd.c ****   HAL_GPIO_Init(GPIOG, &gpio_init_structure);
1325:Drivers/BSP/STM32746G-Discovery/stm32746g_discovery_lcd.c **** 
1326:Drivers/BSP/STM32746G-Discovery/stm32746g_discovery_lcd.c ****   /* GPIOI LTDC alternate configuration */
1327:Drivers/BSP/STM32746G-Discovery/stm32746g_discovery_lcd.c ****   gpio_init_structure.Pin       = GPIO_PIN_9 | GPIO_PIN_10 | \
1328:Drivers/BSP/STM32746G-Discovery/stm32746g_discovery_lcd.c ****                                   GPIO_PIN_13 | GPIO_PIN_14 | GPIO_PIN_15;
1329:Drivers/BSP/STM32746G-Discovery/stm32746g_discovery_lcd.c ****   gpio_init_structure.Mode      = GPIO_MODE_AF_PP;
1330:Drivers/BSP/STM32746G-Discovery/stm32746g_discovery_lcd.c ****   gpio_init_structure.Alternate = GPIO_AF14_LTDC;
1331:Drivers/BSP/STM32746G-Discovery/stm32746g_discovery_lcd.c ****   HAL_GPIO_Init(GPIOI, &gpio_init_structure);
1332:Drivers/BSP/STM32746G-Discovery/stm32746g_discovery_lcd.c **** 
1333:Drivers/BSP/STM32746G-Discovery/stm32746g_discovery_lcd.c ****   /* GPIOJ configuration */  
1334:Drivers/BSP/STM32746G-Discovery/stm32746g_discovery_lcd.c ****   gpio_init_structure.Pin       = GPIO_PIN_0 | GPIO_PIN_1 | GPIO_PIN_2 | GPIO_PIN_3 | \
1335:Drivers/BSP/STM32746G-Discovery/stm32746g_discovery_lcd.c ****                                   GPIO_PIN_4 | GPIO_PIN_5 | GPIO_PIN_6 | GPIO_PIN_7 | \
1336:Drivers/BSP/STM32746G-Discovery/stm32746g_discovery_lcd.c ****                                   GPIO_PIN_8 | GPIO_PIN_9 | GPIO_PIN_10 | GPIO_PIN_11 | \
1337:Drivers/BSP/STM32746G-Discovery/stm32746g_discovery_lcd.c ****                                   GPIO_PIN_13 | GPIO_PIN_14 | GPIO_PIN_15;
1338:Drivers/BSP/STM32746G-Discovery/stm32746g_discovery_lcd.c ****   gpio_init_structure.Mode      = GPIO_MODE_AF_PP;
1339:Drivers/BSP/STM32746G-Discovery/stm32746g_discovery_lcd.c ****   gpio_init_structure.Alternate = GPIO_AF14_LTDC;
1340:Drivers/BSP/STM32746G-Discovery/stm32746g_discovery_lcd.c ****   HAL_GPIO_Init(GPIOJ, &gpio_init_structure);  
1341:Drivers/BSP/STM32746G-Discovery/stm32746g_discovery_lcd.c **** 
1342:Drivers/BSP/STM32746G-Discovery/stm32746g_discovery_lcd.c ****   /* GPIOK configuration */  
1343:Drivers/BSP/STM32746G-Discovery/stm32746g_discovery_lcd.c ****   gpio_init_structure.Pin       = GPIO_PIN_0 | GPIO_PIN_1 | GPIO_PIN_2 | GPIO_PIN_4 | \
ARM GAS  C:\Users\milek\AppData\Local\Temp\ccMSPWBt.s 			page 25


1344:Drivers/BSP/STM32746G-Discovery/stm32746g_discovery_lcd.c ****                                   GPIO_PIN_5 | GPIO_PIN_6 | GPIO_PIN_7;
1345:Drivers/BSP/STM32746G-Discovery/stm32746g_discovery_lcd.c ****   gpio_init_structure.Mode      = GPIO_MODE_AF_PP;
1346:Drivers/BSP/STM32746G-Discovery/stm32746g_discovery_lcd.c ****   gpio_init_structure.Alternate = GPIO_AF14_LTDC;
1347:Drivers/BSP/STM32746G-Discovery/stm32746g_discovery_lcd.c ****   HAL_GPIO_Init(GPIOK, &gpio_init_structure);
1348:Drivers/BSP/STM32746G-Discovery/stm32746g_discovery_lcd.c **** 
1349:Drivers/BSP/STM32746G-Discovery/stm32746g_discovery_lcd.c ****   /* LCD_DISP GPIO configuration */
1350:Drivers/BSP/STM32746G-Discovery/stm32746g_discovery_lcd.c ****   gpio_init_structure.Pin       = LCD_DISP_PIN;     /* LCD_DISP pin has to be manually controlled *
1351:Drivers/BSP/STM32746G-Discovery/stm32746g_discovery_lcd.c ****   gpio_init_structure.Mode      = GPIO_MODE_OUTPUT_PP;
1352:Drivers/BSP/STM32746G-Discovery/stm32746g_discovery_lcd.c ****   HAL_GPIO_Init(LCD_DISP_GPIO_PORT, &gpio_init_structure);
1353:Drivers/BSP/STM32746G-Discovery/stm32746g_discovery_lcd.c **** 
1354:Drivers/BSP/STM32746G-Discovery/stm32746g_discovery_lcd.c ****   /* LCD_BL_CTRL GPIO configuration */
1355:Drivers/BSP/STM32746G-Discovery/stm32746g_discovery_lcd.c ****   gpio_init_structure.Pin       = LCD_BL_CTRL_PIN;  /* LCD_BL_CTRL pin has to be manually controlle
1356:Drivers/BSP/STM32746G-Discovery/stm32746g_discovery_lcd.c ****   gpio_init_structure.Mode      = GPIO_MODE_OUTPUT_PP;
1357:Drivers/BSP/STM32746G-Discovery/stm32746g_discovery_lcd.c ****   HAL_GPIO_Init(LCD_BL_CTRL_GPIO_PORT, &gpio_init_structure);
1358:Drivers/BSP/STM32746G-Discovery/stm32746g_discovery_lcd.c **** }
1359:Drivers/BSP/STM32746G-Discovery/stm32746g_discovery_lcd.c **** 
1360:Drivers/BSP/STM32746G-Discovery/stm32746g_discovery_lcd.c **** /**
1361:Drivers/BSP/STM32746G-Discovery/stm32746g_discovery_lcd.c ****   * @brief  DeInitializes BSP_LCD MSP.
1362:Drivers/BSP/STM32746G-Discovery/stm32746g_discovery_lcd.c ****   * @param  hltdc: LTDC handle
1363:Drivers/BSP/STM32746G-Discovery/stm32746g_discovery_lcd.c ****   * @param  Params
1364:Drivers/BSP/STM32746G-Discovery/stm32746g_discovery_lcd.c ****   * @retval None
1365:Drivers/BSP/STM32746G-Discovery/stm32746g_discovery_lcd.c ****   */
1366:Drivers/BSP/STM32746G-Discovery/stm32746g_discovery_lcd.c **** __weak void BSP_LCD_MspDeInit(LTDC_HandleTypeDef *hltdc, void *Params)
1367:Drivers/BSP/STM32746G-Discovery/stm32746g_discovery_lcd.c **** {
1368:Drivers/BSP/STM32746G-Discovery/stm32746g_discovery_lcd.c ****   GPIO_InitTypeDef  gpio_init_structure;
1369:Drivers/BSP/STM32746G-Discovery/stm32746g_discovery_lcd.c **** 
1370:Drivers/BSP/STM32746G-Discovery/stm32746g_discovery_lcd.c ****   /* Disable LTDC block */
1371:Drivers/BSP/STM32746G-Discovery/stm32746g_discovery_lcd.c ****   __HAL_LTDC_DISABLE(hltdc);
1372:Drivers/BSP/STM32746G-Discovery/stm32746g_discovery_lcd.c **** 
1373:Drivers/BSP/STM32746G-Discovery/stm32746g_discovery_lcd.c ****   /* LTDC Pins deactivation */
1374:Drivers/BSP/STM32746G-Discovery/stm32746g_discovery_lcd.c **** 
1375:Drivers/BSP/STM32746G-Discovery/stm32746g_discovery_lcd.c ****   /* GPIOE deactivation */
1376:Drivers/BSP/STM32746G-Discovery/stm32746g_discovery_lcd.c ****   gpio_init_structure.Pin       = GPIO_PIN_4;
1377:Drivers/BSP/STM32746G-Discovery/stm32746g_discovery_lcd.c ****   HAL_GPIO_DeInit(GPIOE, gpio_init_structure.Pin);
1378:Drivers/BSP/STM32746G-Discovery/stm32746g_discovery_lcd.c **** 
1379:Drivers/BSP/STM32746G-Discovery/stm32746g_discovery_lcd.c ****   /* GPIOG deactivation */
1380:Drivers/BSP/STM32746G-Discovery/stm32746g_discovery_lcd.c ****   gpio_init_structure.Pin       = GPIO_PIN_12;
1381:Drivers/BSP/STM32746G-Discovery/stm32746g_discovery_lcd.c ****   HAL_GPIO_DeInit(GPIOG, gpio_init_structure.Pin);
1382:Drivers/BSP/STM32746G-Discovery/stm32746g_discovery_lcd.c **** 
1383:Drivers/BSP/STM32746G-Discovery/stm32746g_discovery_lcd.c ****   /* GPIOI deactivation */
1384:Drivers/BSP/STM32746G-Discovery/stm32746g_discovery_lcd.c ****   gpio_init_structure.Pin       = GPIO_PIN_8 | GPIO_PIN_9 | GPIO_PIN_10 | GPIO_PIN_12 | \
1385:Drivers/BSP/STM32746G-Discovery/stm32746g_discovery_lcd.c ****                                   GPIO_PIN_13 | GPIO_PIN_14 | GPIO_PIN_15;
1386:Drivers/BSP/STM32746G-Discovery/stm32746g_discovery_lcd.c ****   HAL_GPIO_DeInit(GPIOI, gpio_init_structure.Pin);
1387:Drivers/BSP/STM32746G-Discovery/stm32746g_discovery_lcd.c **** 
1388:Drivers/BSP/STM32746G-Discovery/stm32746g_discovery_lcd.c ****   /* GPIOJ deactivation */
1389:Drivers/BSP/STM32746G-Discovery/stm32746g_discovery_lcd.c ****   gpio_init_structure.Pin       = GPIO_PIN_0 | GPIO_PIN_1 | GPIO_PIN_2 | GPIO_PIN_3 | \
1390:Drivers/BSP/STM32746G-Discovery/stm32746g_discovery_lcd.c ****                                   GPIO_PIN_4 | GPIO_PIN_5 | GPIO_PIN_6 | GPIO_PIN_7 | \
1391:Drivers/BSP/STM32746G-Discovery/stm32746g_discovery_lcd.c ****                                   GPIO_PIN_8 | GPIO_PIN_9 | GPIO_PIN_10 | GPIO_PIN_11 | \
1392:Drivers/BSP/STM32746G-Discovery/stm32746g_discovery_lcd.c ****                                   GPIO_PIN_13 | GPIO_PIN_14 | GPIO_PIN_15;
1393:Drivers/BSP/STM32746G-Discovery/stm32746g_discovery_lcd.c ****   HAL_GPIO_DeInit(GPIOJ, gpio_init_structure.Pin);
1394:Drivers/BSP/STM32746G-Discovery/stm32746g_discovery_lcd.c **** 
1395:Drivers/BSP/STM32746G-Discovery/stm32746g_discovery_lcd.c ****   /* GPIOK deactivation */
1396:Drivers/BSP/STM32746G-Discovery/stm32746g_discovery_lcd.c ****   gpio_init_structure.Pin       = GPIO_PIN_0 | GPIO_PIN_1 | GPIO_PIN_2 | GPIO_PIN_4 | \
1397:Drivers/BSP/STM32746G-Discovery/stm32746g_discovery_lcd.c ****                                   GPIO_PIN_5 | GPIO_PIN_6 | GPIO_PIN_7;
1398:Drivers/BSP/STM32746G-Discovery/stm32746g_discovery_lcd.c ****   HAL_GPIO_DeInit(GPIOK, gpio_init_structure.Pin);
1399:Drivers/BSP/STM32746G-Discovery/stm32746g_discovery_lcd.c **** 
1400:Drivers/BSP/STM32746G-Discovery/stm32746g_discovery_lcd.c ****   /* Disable LTDC clock */
ARM GAS  C:\Users\milek\AppData\Local\Temp\ccMSPWBt.s 			page 26


1401:Drivers/BSP/STM32746G-Discovery/stm32746g_discovery_lcd.c ****   __HAL_RCC_LTDC_CLK_DISABLE();
1402:Drivers/BSP/STM32746G-Discovery/stm32746g_discovery_lcd.c **** 
1403:Drivers/BSP/STM32746G-Discovery/stm32746g_discovery_lcd.c ****   /* GPIO pins clock can be shut down in the application
1404:Drivers/BSP/STM32746G-Discovery/stm32746g_discovery_lcd.c ****      by surcharging this __weak function */
1405:Drivers/BSP/STM32746G-Discovery/stm32746g_discovery_lcd.c **** }
1406:Drivers/BSP/STM32746G-Discovery/stm32746g_discovery_lcd.c **** 
1407:Drivers/BSP/STM32746G-Discovery/stm32746g_discovery_lcd.c **** /**
1408:Drivers/BSP/STM32746G-Discovery/stm32746g_discovery_lcd.c ****   * @brief  Clock Config.
1409:Drivers/BSP/STM32746G-Discovery/stm32746g_discovery_lcd.c ****   * @param  hltdc: LTDC handle
1410:Drivers/BSP/STM32746G-Discovery/stm32746g_discovery_lcd.c ****   * @param  Params
1411:Drivers/BSP/STM32746G-Discovery/stm32746g_discovery_lcd.c ****   * @note   This API is called by BSP_LCD_Init()
1412:Drivers/BSP/STM32746G-Discovery/stm32746g_discovery_lcd.c ****   *         Being __weak it can be overwritten by the application
1413:Drivers/BSP/STM32746G-Discovery/stm32746g_discovery_lcd.c ****   * @retval None
1414:Drivers/BSP/STM32746G-Discovery/stm32746g_discovery_lcd.c ****   */
1415:Drivers/BSP/STM32746G-Discovery/stm32746g_discovery_lcd.c **** __weak void BSP_LCD_ClockConfig(LTDC_HandleTypeDef *hltdc, void *Params)
1416:Drivers/BSP/STM32746G-Discovery/stm32746g_discovery_lcd.c **** {
1417:Drivers/BSP/STM32746G-Discovery/stm32746g_discovery_lcd.c ****   static RCC_PeriphCLKInitTypeDef  periph_clk_init_struct;
1418:Drivers/BSP/STM32746G-Discovery/stm32746g_discovery_lcd.c **** 
1419:Drivers/BSP/STM32746G-Discovery/stm32746g_discovery_lcd.c ****   /* RK043FN48H LCD clock configuration */
1420:Drivers/BSP/STM32746G-Discovery/stm32746g_discovery_lcd.c ****   /* PLLSAI_VCO Input = HSE_VALUE/PLL_M = 1 Mhz */
1421:Drivers/BSP/STM32746G-Discovery/stm32746g_discovery_lcd.c ****   /* PLLSAI_VCO Output = PLLSAI_VCO Input * PLLSAIN = 192 Mhz */
1422:Drivers/BSP/STM32746G-Discovery/stm32746g_discovery_lcd.c ****   /* PLLLCDCLK = PLLSAI_VCO Output/PLLSAIR = 192/5 = 38.4 Mhz */
1423:Drivers/BSP/STM32746G-Discovery/stm32746g_discovery_lcd.c ****   /* LTDC clock frequency = PLLLCDCLK / LTDC_PLLSAI_DIVR_4 = 38.4/4 = 9.6Mhz */
1424:Drivers/BSP/STM32746G-Discovery/stm32746g_discovery_lcd.c ****   periph_clk_init_struct.PeriphClockSelection = RCC_PERIPHCLK_LTDC;
1425:Drivers/BSP/STM32746G-Discovery/stm32746g_discovery_lcd.c ****   periph_clk_init_struct.PLLSAI.PLLSAIN = 192;
1426:Drivers/BSP/STM32746G-Discovery/stm32746g_discovery_lcd.c ****   periph_clk_init_struct.PLLSAI.PLLSAIR = RK043FN48H_FREQUENCY_DIVIDER;
1427:Drivers/BSP/STM32746G-Discovery/stm32746g_discovery_lcd.c ****   periph_clk_init_struct.PLLSAIDivR = RCC_PLLSAIDIVR_4;
1428:Drivers/BSP/STM32746G-Discovery/stm32746g_discovery_lcd.c ****   HAL_RCCEx_PeriphCLKConfig(&periph_clk_init_struct);
1429:Drivers/BSP/STM32746G-Discovery/stm32746g_discovery_lcd.c **** }
1430:Drivers/BSP/STM32746G-Discovery/stm32746g_discovery_lcd.c **** 
1431:Drivers/BSP/STM32746G-Discovery/stm32746g_discovery_lcd.c **** 
1432:Drivers/BSP/STM32746G-Discovery/stm32746g_discovery_lcd.c **** /*******************************************************************************
1433:Drivers/BSP/STM32746G-Discovery/stm32746g_discovery_lcd.c ****                             Static Functions
1434:Drivers/BSP/STM32746G-Discovery/stm32746g_discovery_lcd.c **** *******************************************************************************/
1435:Drivers/BSP/STM32746G-Discovery/stm32746g_discovery_lcd.c **** 
1436:Drivers/BSP/STM32746G-Discovery/stm32746g_discovery_lcd.c **** /**
1437:Drivers/BSP/STM32746G-Discovery/stm32746g_discovery_lcd.c ****   * @brief  Draws a character on LCD.
1438:Drivers/BSP/STM32746G-Discovery/stm32746g_discovery_lcd.c ****   * @param  Xpos: Line where to display the character shape
1439:Drivers/BSP/STM32746G-Discovery/stm32746g_discovery_lcd.c ****   * @param  Ypos: Start column address
1440:Drivers/BSP/STM32746G-Discovery/stm32746g_discovery_lcd.c ****   * @param  c: Pointer to the character data
1441:Drivers/BSP/STM32746G-Discovery/stm32746g_discovery_lcd.c ****   * @retval None
1442:Drivers/BSP/STM32746G-Discovery/stm32746g_discovery_lcd.c ****   */
1443:Drivers/BSP/STM32746G-Discovery/stm32746g_discovery_lcd.c **** static void DrawChar(uint16_t Xpos, uint16_t Ypos, const uint8_t *c)
1444:Drivers/BSP/STM32746G-Discovery/stm32746g_discovery_lcd.c **** {
1445:Drivers/BSP/STM32746G-Discovery/stm32746g_discovery_lcd.c ****   uint32_t i = 0, j = 0;
1446:Drivers/BSP/STM32746G-Discovery/stm32746g_discovery_lcd.c ****   uint16_t height, width;
1447:Drivers/BSP/STM32746G-Discovery/stm32746g_discovery_lcd.c ****   uint8_t  offset;
1448:Drivers/BSP/STM32746G-Discovery/stm32746g_discovery_lcd.c ****   uint8_t  *pchar;
1449:Drivers/BSP/STM32746G-Discovery/stm32746g_discovery_lcd.c ****   uint32_t line;
1450:Drivers/BSP/STM32746G-Discovery/stm32746g_discovery_lcd.c ****   
1451:Drivers/BSP/STM32746G-Discovery/stm32746g_discovery_lcd.c ****   height = DrawProp[ActiveLayer].pFont->Height;
1452:Drivers/BSP/STM32746G-Discovery/stm32746g_discovery_lcd.c ****   width  = DrawProp[ActiveLayer].pFont->Width;
1453:Drivers/BSP/STM32746G-Discovery/stm32746g_discovery_lcd.c ****   
1454:Drivers/BSP/STM32746G-Discovery/stm32746g_discovery_lcd.c ****   offset =  8 *((width + 7)/8) -  width ;
1455:Drivers/BSP/STM32746G-Discovery/stm32746g_discovery_lcd.c ****   
1456:Drivers/BSP/STM32746G-Discovery/stm32746g_discovery_lcd.c ****   for(i = 0; i < height; i++)
1457:Drivers/BSP/STM32746G-Discovery/stm32746g_discovery_lcd.c ****   {
ARM GAS  C:\Users\milek\AppData\Local\Temp\ccMSPWBt.s 			page 27


1458:Drivers/BSP/STM32746G-Discovery/stm32746g_discovery_lcd.c ****     pchar = ((uint8_t *)c + (width + 7)/8 * i);
1459:Drivers/BSP/STM32746G-Discovery/stm32746g_discovery_lcd.c ****     
1460:Drivers/BSP/STM32746G-Discovery/stm32746g_discovery_lcd.c ****     switch(((width + 7)/8))
1461:Drivers/BSP/STM32746G-Discovery/stm32746g_discovery_lcd.c ****     {
1462:Drivers/BSP/STM32746G-Discovery/stm32746g_discovery_lcd.c ****       
1463:Drivers/BSP/STM32746G-Discovery/stm32746g_discovery_lcd.c ****     case 1:
1464:Drivers/BSP/STM32746G-Discovery/stm32746g_discovery_lcd.c ****       line =  pchar[0];      
1465:Drivers/BSP/STM32746G-Discovery/stm32746g_discovery_lcd.c ****       break;
1466:Drivers/BSP/STM32746G-Discovery/stm32746g_discovery_lcd.c ****       
1467:Drivers/BSP/STM32746G-Discovery/stm32746g_discovery_lcd.c ****     case 2:
1468:Drivers/BSP/STM32746G-Discovery/stm32746g_discovery_lcd.c ****       line =  (pchar[0]<< 8) | pchar[1];      
1469:Drivers/BSP/STM32746G-Discovery/stm32746g_discovery_lcd.c ****       break;
1470:Drivers/BSP/STM32746G-Discovery/stm32746g_discovery_lcd.c ****       
1471:Drivers/BSP/STM32746G-Discovery/stm32746g_discovery_lcd.c ****     case 3:
1472:Drivers/BSP/STM32746G-Discovery/stm32746g_discovery_lcd.c ****     default:
1473:Drivers/BSP/STM32746G-Discovery/stm32746g_discovery_lcd.c ****       line =  (pchar[0]<< 16) | (pchar[1]<< 8) | pchar[2];      
1474:Drivers/BSP/STM32746G-Discovery/stm32746g_discovery_lcd.c ****       break;
1475:Drivers/BSP/STM32746G-Discovery/stm32746g_discovery_lcd.c ****     } 
1476:Drivers/BSP/STM32746G-Discovery/stm32746g_discovery_lcd.c ****     
1477:Drivers/BSP/STM32746G-Discovery/stm32746g_discovery_lcd.c ****     for (j = 0; j < width; j++)
1478:Drivers/BSP/STM32746G-Discovery/stm32746g_discovery_lcd.c ****     {
1479:Drivers/BSP/STM32746G-Discovery/stm32746g_discovery_lcd.c ****       if(line & (1 << (width- j + offset- 1))) 
1480:Drivers/BSP/STM32746G-Discovery/stm32746g_discovery_lcd.c ****       {
1481:Drivers/BSP/STM32746G-Discovery/stm32746g_discovery_lcd.c ****         BSP_LCD_DrawPixel((Xpos + j), Ypos, DrawProp[ActiveLayer].TextColor);
1482:Drivers/BSP/STM32746G-Discovery/stm32746g_discovery_lcd.c ****       }
1483:Drivers/BSP/STM32746G-Discovery/stm32746g_discovery_lcd.c ****       else
1484:Drivers/BSP/STM32746G-Discovery/stm32746g_discovery_lcd.c ****       {
1485:Drivers/BSP/STM32746G-Discovery/stm32746g_discovery_lcd.c ****         BSP_LCD_DrawPixel((Xpos + j), Ypos, DrawProp[ActiveLayer].BackColor);
1486:Drivers/BSP/STM32746G-Discovery/stm32746g_discovery_lcd.c ****       } 
1487:Drivers/BSP/STM32746G-Discovery/stm32746g_discovery_lcd.c ****     }
1488:Drivers/BSP/STM32746G-Discovery/stm32746g_discovery_lcd.c ****     Ypos++;
1489:Drivers/BSP/STM32746G-Discovery/stm32746g_discovery_lcd.c ****   }
1490:Drivers/BSP/STM32746G-Discovery/stm32746g_discovery_lcd.c **** }
1491:Drivers/BSP/STM32746G-Discovery/stm32746g_discovery_lcd.c **** 
1492:Drivers/BSP/STM32746G-Discovery/stm32746g_discovery_lcd.c **** /**
1493:Drivers/BSP/STM32746G-Discovery/stm32746g_discovery_lcd.c ****   * @brief  Fills a triangle (between 3 points).
1494:Drivers/BSP/STM32746G-Discovery/stm32746g_discovery_lcd.c ****   * @param  x1: Point 1 X position
1495:Drivers/BSP/STM32746G-Discovery/stm32746g_discovery_lcd.c ****   * @param  y1: Point 1 Y position
1496:Drivers/BSP/STM32746G-Discovery/stm32746g_discovery_lcd.c ****   * @param  x2: Point 2 X position
1497:Drivers/BSP/STM32746G-Discovery/stm32746g_discovery_lcd.c ****   * @param  y2: Point 2 Y position
1498:Drivers/BSP/STM32746G-Discovery/stm32746g_discovery_lcd.c ****   * @param  x3: Point 3 X position
1499:Drivers/BSP/STM32746G-Discovery/stm32746g_discovery_lcd.c ****   * @param  y3: Point 3 Y position
1500:Drivers/BSP/STM32746G-Discovery/stm32746g_discovery_lcd.c ****   * @retval None
1501:Drivers/BSP/STM32746G-Discovery/stm32746g_discovery_lcd.c ****   */
1502:Drivers/BSP/STM32746G-Discovery/stm32746g_discovery_lcd.c **** static void FillTriangle(uint16_t x1, uint16_t x2, uint16_t x3, uint16_t y1, uint16_t y2, uint16_t 
1503:Drivers/BSP/STM32746G-Discovery/stm32746g_discovery_lcd.c **** { 
1504:Drivers/BSP/STM32746G-Discovery/stm32746g_discovery_lcd.c ****   int16_t deltax = 0, deltay = 0, x = 0, y = 0, xinc1 = 0, xinc2 = 0, 
1505:Drivers/BSP/STM32746G-Discovery/stm32746g_discovery_lcd.c ****   yinc1 = 0, yinc2 = 0, den = 0, num = 0, num_add = 0, num_pixels = 0,
1506:Drivers/BSP/STM32746G-Discovery/stm32746g_discovery_lcd.c ****   curpixel = 0;
1507:Drivers/BSP/STM32746G-Discovery/stm32746g_discovery_lcd.c ****   
1508:Drivers/BSP/STM32746G-Discovery/stm32746g_discovery_lcd.c ****   deltax = ABS(x2 - x1);        /* The difference between the x's */
1509:Drivers/BSP/STM32746G-Discovery/stm32746g_discovery_lcd.c ****   deltay = ABS(y2 - y1);        /* The difference between the y's */
1510:Drivers/BSP/STM32746G-Discovery/stm32746g_discovery_lcd.c ****   x = x1;                       /* Start x off at the first pixel */
1511:Drivers/BSP/STM32746G-Discovery/stm32746g_discovery_lcd.c ****   y = y1;                       /* Start y off at the first pixel */
1512:Drivers/BSP/STM32746G-Discovery/stm32746g_discovery_lcd.c ****   
1513:Drivers/BSP/STM32746G-Discovery/stm32746g_discovery_lcd.c ****   if (x2 >= x1)                 /* The x-values are increasing */
1514:Drivers/BSP/STM32746G-Discovery/stm32746g_discovery_lcd.c ****   {
ARM GAS  C:\Users\milek\AppData\Local\Temp\ccMSPWBt.s 			page 28


1515:Drivers/BSP/STM32746G-Discovery/stm32746g_discovery_lcd.c ****     xinc1 = 1;
1516:Drivers/BSP/STM32746G-Discovery/stm32746g_discovery_lcd.c ****     xinc2 = 1;
1517:Drivers/BSP/STM32746G-Discovery/stm32746g_discovery_lcd.c ****   }
1518:Drivers/BSP/STM32746G-Discovery/stm32746g_discovery_lcd.c ****   else                          /* The x-values are decreasing */
1519:Drivers/BSP/STM32746G-Discovery/stm32746g_discovery_lcd.c ****   {
1520:Drivers/BSP/STM32746G-Discovery/stm32746g_discovery_lcd.c ****     xinc1 = -1;
1521:Drivers/BSP/STM32746G-Discovery/stm32746g_discovery_lcd.c ****     xinc2 = -1;
1522:Drivers/BSP/STM32746G-Discovery/stm32746g_discovery_lcd.c ****   }
1523:Drivers/BSP/STM32746G-Discovery/stm32746g_discovery_lcd.c ****   
1524:Drivers/BSP/STM32746G-Discovery/stm32746g_discovery_lcd.c ****   if (y2 >= y1)                 /* The y-values are increasing */
1525:Drivers/BSP/STM32746G-Discovery/stm32746g_discovery_lcd.c ****   {
1526:Drivers/BSP/STM32746G-Discovery/stm32746g_discovery_lcd.c ****     yinc1 = 1;
1527:Drivers/BSP/STM32746G-Discovery/stm32746g_discovery_lcd.c ****     yinc2 = 1;
1528:Drivers/BSP/STM32746G-Discovery/stm32746g_discovery_lcd.c ****   }
1529:Drivers/BSP/STM32746G-Discovery/stm32746g_discovery_lcd.c ****   else                          /* The y-values are decreasing */
1530:Drivers/BSP/STM32746G-Discovery/stm32746g_discovery_lcd.c ****   {
1531:Drivers/BSP/STM32746G-Discovery/stm32746g_discovery_lcd.c ****     yinc1 = -1;
1532:Drivers/BSP/STM32746G-Discovery/stm32746g_discovery_lcd.c ****     yinc2 = -1;
1533:Drivers/BSP/STM32746G-Discovery/stm32746g_discovery_lcd.c ****   }
1534:Drivers/BSP/STM32746G-Discovery/stm32746g_discovery_lcd.c ****   
1535:Drivers/BSP/STM32746G-Discovery/stm32746g_discovery_lcd.c ****   if (deltax >= deltay)         /* There is at least one x-value for every y-value */
1536:Drivers/BSP/STM32746G-Discovery/stm32746g_discovery_lcd.c ****   {
1537:Drivers/BSP/STM32746G-Discovery/stm32746g_discovery_lcd.c ****     xinc1 = 0;                  /* Don't change the x when numerator >= denominator */
1538:Drivers/BSP/STM32746G-Discovery/stm32746g_discovery_lcd.c ****     yinc2 = 0;                  /* Don't change the y for every iteration */
1539:Drivers/BSP/STM32746G-Discovery/stm32746g_discovery_lcd.c ****     den = deltax;
1540:Drivers/BSP/STM32746G-Discovery/stm32746g_discovery_lcd.c ****     num = deltax / 2;
1541:Drivers/BSP/STM32746G-Discovery/stm32746g_discovery_lcd.c ****     num_add = deltay;
1542:Drivers/BSP/STM32746G-Discovery/stm32746g_discovery_lcd.c ****     num_pixels = deltax;         /* There are more x-values than y-values */
1543:Drivers/BSP/STM32746G-Discovery/stm32746g_discovery_lcd.c ****   }
1544:Drivers/BSP/STM32746G-Discovery/stm32746g_discovery_lcd.c ****   else                          /* There is at least one y-value for every x-value */
1545:Drivers/BSP/STM32746G-Discovery/stm32746g_discovery_lcd.c ****   {
1546:Drivers/BSP/STM32746G-Discovery/stm32746g_discovery_lcd.c ****     xinc2 = 0;                  /* Don't change the x for every iteration */
1547:Drivers/BSP/STM32746G-Discovery/stm32746g_discovery_lcd.c ****     yinc1 = 0;                  /* Don't change the y when numerator >= denominator */
1548:Drivers/BSP/STM32746G-Discovery/stm32746g_discovery_lcd.c ****     den = deltay;
1549:Drivers/BSP/STM32746G-Discovery/stm32746g_discovery_lcd.c ****     num = deltay / 2;
1550:Drivers/BSP/STM32746G-Discovery/stm32746g_discovery_lcd.c ****     num_add = deltax;
1551:Drivers/BSP/STM32746G-Discovery/stm32746g_discovery_lcd.c ****     num_pixels = deltay;         /* There are more y-values than x-values */
1552:Drivers/BSP/STM32746G-Discovery/stm32746g_discovery_lcd.c ****   }
1553:Drivers/BSP/STM32746G-Discovery/stm32746g_discovery_lcd.c ****   
1554:Drivers/BSP/STM32746G-Discovery/stm32746g_discovery_lcd.c ****   for (curpixel = 0; curpixel <= num_pixels; curpixel++)
1555:Drivers/BSP/STM32746G-Discovery/stm32746g_discovery_lcd.c ****   {
1556:Drivers/BSP/STM32746G-Discovery/stm32746g_discovery_lcd.c ****     BSP_LCD_DrawLine(x, y, x3, y3);
1557:Drivers/BSP/STM32746G-Discovery/stm32746g_discovery_lcd.c ****     
1558:Drivers/BSP/STM32746G-Discovery/stm32746g_discovery_lcd.c ****     num += num_add;              /* Increase the numerator by the top of the fraction */
1559:Drivers/BSP/STM32746G-Discovery/stm32746g_discovery_lcd.c ****     if (num >= den)             /* Check if numerator >= denominator */
1560:Drivers/BSP/STM32746G-Discovery/stm32746g_discovery_lcd.c ****     {
1561:Drivers/BSP/STM32746G-Discovery/stm32746g_discovery_lcd.c ****       num -= den;               /* Calculate the new numerator value */
1562:Drivers/BSP/STM32746G-Discovery/stm32746g_discovery_lcd.c ****       x += xinc1;               /* Change the x as appropriate */
1563:Drivers/BSP/STM32746G-Discovery/stm32746g_discovery_lcd.c ****       y += yinc1;               /* Change the y as appropriate */
1564:Drivers/BSP/STM32746G-Discovery/stm32746g_discovery_lcd.c ****     }
1565:Drivers/BSP/STM32746G-Discovery/stm32746g_discovery_lcd.c ****     x += xinc2;                 /* Change the x as appropriate */
1566:Drivers/BSP/STM32746G-Discovery/stm32746g_discovery_lcd.c ****     y += yinc2;                 /* Change the y as appropriate */
1567:Drivers/BSP/STM32746G-Discovery/stm32746g_discovery_lcd.c ****   } 
1568:Drivers/BSP/STM32746G-Discovery/stm32746g_discovery_lcd.c **** }
1569:Drivers/BSP/STM32746G-Discovery/stm32746g_discovery_lcd.c **** 
1570:Drivers/BSP/STM32746G-Discovery/stm32746g_discovery_lcd.c **** /**
1571:Drivers/BSP/STM32746G-Discovery/stm32746g_discovery_lcd.c ****   * @brief  Fills a buffer.
ARM GAS  C:\Users\milek\AppData\Local\Temp\ccMSPWBt.s 			page 29


1572:Drivers/BSP/STM32746G-Discovery/stm32746g_discovery_lcd.c ****   * @param  LayerIndex: Layer index
1573:Drivers/BSP/STM32746G-Discovery/stm32746g_discovery_lcd.c ****   * @param  pDst: Pointer to destination buffer
1574:Drivers/BSP/STM32746G-Discovery/stm32746g_discovery_lcd.c ****   * @param  xSize: Buffer width
1575:Drivers/BSP/STM32746G-Discovery/stm32746g_discovery_lcd.c ****   * @param  ySize: Buffer height
1576:Drivers/BSP/STM32746G-Discovery/stm32746g_discovery_lcd.c ****   * @param  OffLine: Offset
1577:Drivers/BSP/STM32746G-Discovery/stm32746g_discovery_lcd.c ****   * @param  ColorIndex: Color index
1578:Drivers/BSP/STM32746G-Discovery/stm32746g_discovery_lcd.c ****   * @retval None
1579:Drivers/BSP/STM32746G-Discovery/stm32746g_discovery_lcd.c ****   */
1580:Drivers/BSP/STM32746G-Discovery/stm32746g_discovery_lcd.c **** static void LL_FillBuffer(uint32_t LayerIndex, void *pDst, uint32_t xSize, uint32_t ySize, uint32_t
1581:Drivers/BSP/STM32746G-Discovery/stm32746g_discovery_lcd.c **** {
  27              		.loc 1 1581 0
  28              		.cfi_startproc
  29              		@ args = 8, pretend = 0, frame = 0
  30              		@ frame_needed = 0, uses_anonymous_args = 0
  31              	.LVL0:
  32 0000 F0B5     		push	{r4, r5, r6, r7, lr}
  33              	.LCFI0:
  34              		.cfi_def_cfa_offset 20
  35              		.cfi_offset 4, -20
  36              		.cfi_offset 5, -16
  37              		.cfi_offset 6, -12
  38              		.cfi_offset 7, -8
  39              		.cfi_offset 14, -4
  40 0002 83B0     		sub	sp, sp, #12
  41              	.LCFI1:
  42              		.cfi_def_cfa_offset 32
  43 0004 0446     		mov	r4, r0
  44 0006 0D46     		mov	r5, r1
  45 0008 1646     		mov	r6, r2
  46 000a 1F46     		mov	r7, r3
1582:Drivers/BSP/STM32746G-Discovery/stm32746g_discovery_lcd.c ****   /* Register to memory mode with ARGB8888 as color Mode */ 
1583:Drivers/BSP/STM32746G-Discovery/stm32746g_discovery_lcd.c ****   hDma2dHandler.Init.Mode         = DMA2D_R2M;
  47              		.loc 1 1583 0
  48 000c 184B     		ldr	r3, .L8
  49              	.LVL1:
  50 000e 4FF44032 		mov	r2, #196608
  51              	.LVL2:
  52 0012 5A60     		str	r2, [r3, #4]
1584:Drivers/BSP/STM32746G-Discovery/stm32746g_discovery_lcd.c ****   if(hLtdcHandler.LayerCfg[ActiveLayer].PixelFormat == LTDC_PIXEL_FORMAT_RGB565)
  53              		.loc 1 1584 0
  54 0014 174B     		ldr	r3, .L8+4
  55 0016 1B68     		ldr	r3, [r3]
  56 0018 174A     		ldr	r2, .L8+8
  57 001a 3421     		movs	r1, #52
  58              	.LVL3:
  59 001c 01FB0323 		mla	r3, r1, r3, r2
  60 0020 9B6C     		ldr	r3, [r3, #72]
  61 0022 022B     		cmp	r3, #2
  62 0024 0CD0     		beq	.L6
1585:Drivers/BSP/STM32746G-Discovery/stm32746g_discovery_lcd.c ****   { /* RGB565 format */ 
1586:Drivers/BSP/STM32746G-Discovery/stm32746g_discovery_lcd.c ****     hDma2dHandler.Init.ColorMode    = DMA2D_RGB565;
1587:Drivers/BSP/STM32746G-Discovery/stm32746g_discovery_lcd.c ****   }
1588:Drivers/BSP/STM32746G-Discovery/stm32746g_discovery_lcd.c ****   else
1589:Drivers/BSP/STM32746G-Discovery/stm32746g_discovery_lcd.c ****   { /* ARGB8888 format */
1590:Drivers/BSP/STM32746G-Discovery/stm32746g_discovery_lcd.c ****     hDma2dHandler.Init.ColorMode    = DMA2D_ARGB8888;
  63              		.loc 1 1590 0
  64 0026 124B     		ldr	r3, .L8
ARM GAS  C:\Users\milek\AppData\Local\Temp\ccMSPWBt.s 			page 30


  65 0028 0022     		movs	r2, #0
  66 002a 9A60     		str	r2, [r3, #8]
  67              	.L3:
1591:Drivers/BSP/STM32746G-Discovery/stm32746g_discovery_lcd.c ****   }
1592:Drivers/BSP/STM32746G-Discovery/stm32746g_discovery_lcd.c ****   hDma2dHandler.Init.OutputOffset = OffLine;      
  68              		.loc 1 1592 0
  69 002c 1048     		ldr	r0, .L8
  70              	.LVL4:
  71 002e 089B     		ldr	r3, [sp, #32]
  72 0030 C360     		str	r3, [r0, #12]
1593:Drivers/BSP/STM32746G-Discovery/stm32746g_discovery_lcd.c ****   
1594:Drivers/BSP/STM32746G-Discovery/stm32746g_discovery_lcd.c ****   hDma2dHandler.Instance = DMA2D;
  73              		.loc 1 1594 0
  74 0032 124B     		ldr	r3, .L8+12
  75 0034 0360     		str	r3, [r0]
1595:Drivers/BSP/STM32746G-Discovery/stm32746g_discovery_lcd.c ****   
1596:Drivers/BSP/STM32746G-Discovery/stm32746g_discovery_lcd.c ****   /* DMA2D Initialization */
1597:Drivers/BSP/STM32746G-Discovery/stm32746g_discovery_lcd.c ****   if(HAL_DMA2D_Init(&hDma2dHandler) == HAL_OK) 
  76              		.loc 1 1597 0
  77 0036 FFF7FEFF 		bl	HAL_DMA2D_Init
  78              	.LVL5:
  79 003a 28B1     		cbz	r0, .L7
  80              	.L1:
1598:Drivers/BSP/STM32746G-Discovery/stm32746g_discovery_lcd.c ****   {
1599:Drivers/BSP/STM32746G-Discovery/stm32746g_discovery_lcd.c ****     if(HAL_DMA2D_ConfigLayer(&hDma2dHandler, LayerIndex) == HAL_OK) 
1600:Drivers/BSP/STM32746G-Discovery/stm32746g_discovery_lcd.c ****     {
1601:Drivers/BSP/STM32746G-Discovery/stm32746g_discovery_lcd.c ****       if (HAL_DMA2D_Start(&hDma2dHandler, ColorIndex, (uint32_t)pDst, xSize, ySize) == HAL_OK)
1602:Drivers/BSP/STM32746G-Discovery/stm32746g_discovery_lcd.c ****       {
1603:Drivers/BSP/STM32746G-Discovery/stm32746g_discovery_lcd.c ****         /* Polling For DMA transfer */  
1604:Drivers/BSP/STM32746G-Discovery/stm32746g_discovery_lcd.c ****         HAL_DMA2D_PollForTransfer(&hDma2dHandler, 10);
1605:Drivers/BSP/STM32746G-Discovery/stm32746g_discovery_lcd.c ****       }
1606:Drivers/BSP/STM32746G-Discovery/stm32746g_discovery_lcd.c ****     }
1607:Drivers/BSP/STM32746G-Discovery/stm32746g_discovery_lcd.c ****   } 
1608:Drivers/BSP/STM32746G-Discovery/stm32746g_discovery_lcd.c **** }
  81              		.loc 1 1608 0
  82 003c 03B0     		add	sp, sp, #12
  83              	.LCFI2:
  84              		.cfi_remember_state
  85              		.cfi_def_cfa_offset 20
  86              		@ sp needed
  87 003e F0BD     		pop	{r4, r5, r6, r7, pc}
  88              	.LVL6:
  89              	.L6:
  90              	.LCFI3:
  91              		.cfi_restore_state
1586:Drivers/BSP/STM32746G-Discovery/stm32746g_discovery_lcd.c ****   }
  92              		.loc 1 1586 0
  93 0040 0B4B     		ldr	r3, .L8
  94 0042 0222     		movs	r2, #2
  95 0044 9A60     		str	r2, [r3, #8]
  96 0046 F1E7     		b	.L3
  97              	.LVL7:
  98              	.L7:
1599:Drivers/BSP/STM32746G-Discovery/stm32746g_discovery_lcd.c ****     {
  99              		.loc 1 1599 0
 100 0048 2146     		mov	r1, r4
 101 004a 0948     		ldr	r0, .L8
ARM GAS  C:\Users\milek\AppData\Local\Temp\ccMSPWBt.s 			page 31


 102 004c FFF7FEFF 		bl	HAL_DMA2D_ConfigLayer
 103              	.LVL8:
 104 0050 0028     		cmp	r0, #0
 105 0052 F3D1     		bne	.L1
1601:Drivers/BSP/STM32746G-Discovery/stm32746g_discovery_lcd.c ****       {
 106              		.loc 1 1601 0
 107 0054 0097     		str	r7, [sp]
 108 0056 3346     		mov	r3, r6
 109 0058 2A46     		mov	r2, r5
 110 005a 0999     		ldr	r1, [sp, #36]
 111 005c 0448     		ldr	r0, .L8
 112 005e FFF7FEFF 		bl	HAL_DMA2D_Start
 113              	.LVL9:
 114 0062 0028     		cmp	r0, #0
 115 0064 EAD1     		bne	.L1
1604:Drivers/BSP/STM32746G-Discovery/stm32746g_discovery_lcd.c ****       }
 116              		.loc 1 1604 0
 117 0066 0A21     		movs	r1, #10
 118 0068 0148     		ldr	r0, .L8
 119 006a FFF7FEFF 		bl	HAL_DMA2D_PollForTransfer
 120              	.LVL10:
 121              		.loc 1 1608 0
 122 006e E5E7     		b	.L1
 123              	.L9:
 124              		.align	2
 125              	.L8:
 126 0070 00000000 		.word	.LANCHOR0
 127 0074 00000000 		.word	.LANCHOR1
 128 0078 00000000 		.word	hLtdcHandler
 129 007c 00B00240 		.word	1073917952
 130              		.cfi_endproc
 131              	.LFE192:
 133              		.section	.text.LL_ConvertLineToARGB8888,"ax",%progbits
 134              		.align	1
 135              		.syntax unified
 136              		.thumb
 137              		.thumb_func
 138              		.fpu fpv5-sp-d16
 140              	LL_ConvertLineToARGB8888:
 141              	.LFB193:
1609:Drivers/BSP/STM32746G-Discovery/stm32746g_discovery_lcd.c **** 
1610:Drivers/BSP/STM32746G-Discovery/stm32746g_discovery_lcd.c **** /**
1611:Drivers/BSP/STM32746G-Discovery/stm32746g_discovery_lcd.c ****   * @brief  Converts a line to an ARGB8888 pixel format.
1612:Drivers/BSP/STM32746G-Discovery/stm32746g_discovery_lcd.c ****   * @param  pSrc: Pointer to source buffer
1613:Drivers/BSP/STM32746G-Discovery/stm32746g_discovery_lcd.c ****   * @param  pDst: Output color
1614:Drivers/BSP/STM32746G-Discovery/stm32746g_discovery_lcd.c ****   * @param  xSize: Buffer width
1615:Drivers/BSP/STM32746G-Discovery/stm32746g_discovery_lcd.c ****   * @param  ColorMode: Input color mode   
1616:Drivers/BSP/STM32746G-Discovery/stm32746g_discovery_lcd.c ****   * @retval None
1617:Drivers/BSP/STM32746G-Discovery/stm32746g_discovery_lcd.c ****   */
1618:Drivers/BSP/STM32746G-Discovery/stm32746g_discovery_lcd.c **** static void LL_ConvertLineToARGB8888(void *pSrc, void *pDst, uint32_t xSize, uint32_t ColorMode)
1619:Drivers/BSP/STM32746G-Discovery/stm32746g_discovery_lcd.c **** {    
 142              		.loc 1 1619 0
 143              		.cfi_startproc
 144              		@ args = 0, pretend = 0, frame = 0
 145              		@ frame_needed = 0, uses_anonymous_args = 0
 146              	.LVL11:
 147 0000 70B5     		push	{r4, r5, r6, lr}
ARM GAS  C:\Users\milek\AppData\Local\Temp\ccMSPWBt.s 			page 32


 148              	.LCFI4:
 149              		.cfi_def_cfa_offset 16
 150              		.cfi_offset 4, -16
 151              		.cfi_offset 5, -12
 152              		.cfi_offset 6, -8
 153              		.cfi_offset 14, -4
 154 0002 82B0     		sub	sp, sp, #8
 155              	.LCFI5:
 156              		.cfi_def_cfa_offset 24
 157 0004 0446     		mov	r4, r0
 158 0006 0D46     		mov	r5, r1
 159 0008 1646     		mov	r6, r2
1620:Drivers/BSP/STM32746G-Discovery/stm32746g_discovery_lcd.c ****   /* Configure the DMA2D Mode, Color Mode and output offset */
1621:Drivers/BSP/STM32746G-Discovery/stm32746g_discovery_lcd.c ****   hDma2dHandler.Init.Mode         = DMA2D_M2M_PFC;
 160              		.loc 1 1621 0
 161 000a 1448     		ldr	r0, .L14
 162              	.LVL12:
 163 000c 4FF48032 		mov	r2, #65536
 164              	.LVL13:
 165 0010 4260     		str	r2, [r0, #4]
1622:Drivers/BSP/STM32746G-Discovery/stm32746g_discovery_lcd.c ****   hDma2dHandler.Init.ColorMode    = DMA2D_ARGB8888;
 166              		.loc 1 1622 0
 167 0012 0022     		movs	r2, #0
 168 0014 8260     		str	r2, [r0, #8]
1623:Drivers/BSP/STM32746G-Discovery/stm32746g_discovery_lcd.c ****   hDma2dHandler.Init.OutputOffset = 0;     
 169              		.loc 1 1623 0
 170 0016 C260     		str	r2, [r0, #12]
1624:Drivers/BSP/STM32746G-Discovery/stm32746g_discovery_lcd.c ****   
1625:Drivers/BSP/STM32746G-Discovery/stm32746g_discovery_lcd.c ****   /* Foreground Configuration */
1626:Drivers/BSP/STM32746G-Discovery/stm32746g_discovery_lcd.c ****   hDma2dHandler.LayerCfg[1].AlphaMode = DMA2D_NO_MODIF_ALPHA;
 171              		.loc 1 1626 0
 172 0018 0263     		str	r2, [r0, #48]
1627:Drivers/BSP/STM32746G-Discovery/stm32746g_discovery_lcd.c ****   hDma2dHandler.LayerCfg[1].InputAlpha = 0xFF;
 173              		.loc 1 1627 0
 174 001a FF21     		movs	r1, #255
 175              	.LVL14:
 176 001c 4163     		str	r1, [r0, #52]
1628:Drivers/BSP/STM32746G-Discovery/stm32746g_discovery_lcd.c ****   hDma2dHandler.LayerCfg[1].InputColorMode = ColorMode;
 177              		.loc 1 1628 0
 178 001e C362     		str	r3, [r0, #44]
1629:Drivers/BSP/STM32746G-Discovery/stm32746g_discovery_lcd.c ****   hDma2dHandler.LayerCfg[1].InputOffset = 0;
 179              		.loc 1 1629 0
 180 0020 8262     		str	r2, [r0, #40]
1630:Drivers/BSP/STM32746G-Discovery/stm32746g_discovery_lcd.c ****   
1631:Drivers/BSP/STM32746G-Discovery/stm32746g_discovery_lcd.c ****   hDma2dHandler.Instance = DMA2D; 
 181              		.loc 1 1631 0
 182 0022 0F4B     		ldr	r3, .L14+4
 183              	.LVL15:
 184 0024 0360     		str	r3, [r0]
1632:Drivers/BSP/STM32746G-Discovery/stm32746g_discovery_lcd.c ****   
1633:Drivers/BSP/STM32746G-Discovery/stm32746g_discovery_lcd.c ****   /* DMA2D Initialization */
1634:Drivers/BSP/STM32746G-Discovery/stm32746g_discovery_lcd.c ****   if(HAL_DMA2D_Init(&hDma2dHandler) == HAL_OK) 
 185              		.loc 1 1634 0
 186 0026 FFF7FEFF 		bl	HAL_DMA2D_Init
 187              	.LVL16:
 188 002a 08B1     		cbz	r0, .L13
 189              	.L10:
ARM GAS  C:\Users\milek\AppData\Local\Temp\ccMSPWBt.s 			page 33


1635:Drivers/BSP/STM32746G-Discovery/stm32746g_discovery_lcd.c ****   {
1636:Drivers/BSP/STM32746G-Discovery/stm32746g_discovery_lcd.c ****     if(HAL_DMA2D_ConfigLayer(&hDma2dHandler, 1) == HAL_OK) 
1637:Drivers/BSP/STM32746G-Discovery/stm32746g_discovery_lcd.c ****     {
1638:Drivers/BSP/STM32746G-Discovery/stm32746g_discovery_lcd.c ****       if (HAL_DMA2D_Start(&hDma2dHandler, (uint32_t)pSrc, (uint32_t)pDst, xSize, 1) == HAL_OK)
1639:Drivers/BSP/STM32746G-Discovery/stm32746g_discovery_lcd.c ****       {
1640:Drivers/BSP/STM32746G-Discovery/stm32746g_discovery_lcd.c ****         /* Polling For DMA transfer */  
1641:Drivers/BSP/STM32746G-Discovery/stm32746g_discovery_lcd.c ****         HAL_DMA2D_PollForTransfer(&hDma2dHandler, 10);
1642:Drivers/BSP/STM32746G-Discovery/stm32746g_discovery_lcd.c ****       }
1643:Drivers/BSP/STM32746G-Discovery/stm32746g_discovery_lcd.c ****     }
1644:Drivers/BSP/STM32746G-Discovery/stm32746g_discovery_lcd.c ****   } 
1645:Drivers/BSP/STM32746G-Discovery/stm32746g_discovery_lcd.c **** }
 190              		.loc 1 1645 0
 191 002c 02B0     		add	sp, sp, #8
 192              	.LCFI6:
 193              		.cfi_remember_state
 194              		.cfi_def_cfa_offset 16
 195              		@ sp needed
 196 002e 70BD     		pop	{r4, r5, r6, pc}
 197              	.LVL17:
 198              	.L13:
 199              	.LCFI7:
 200              		.cfi_restore_state
1636:Drivers/BSP/STM32746G-Discovery/stm32746g_discovery_lcd.c ****     {
 201              		.loc 1 1636 0
 202 0030 0121     		movs	r1, #1
 203 0032 0A48     		ldr	r0, .L14
 204 0034 FFF7FEFF 		bl	HAL_DMA2D_ConfigLayer
 205              	.LVL18:
 206 0038 0028     		cmp	r0, #0
 207 003a F7D1     		bne	.L10
1638:Drivers/BSP/STM32746G-Discovery/stm32746g_discovery_lcd.c ****       {
 208              		.loc 1 1638 0
 209 003c 0123     		movs	r3, #1
 210 003e 0093     		str	r3, [sp]
 211 0040 3346     		mov	r3, r6
 212 0042 2A46     		mov	r2, r5
 213 0044 2146     		mov	r1, r4
 214 0046 0548     		ldr	r0, .L14
 215 0048 FFF7FEFF 		bl	HAL_DMA2D_Start
 216              	.LVL19:
 217 004c 0028     		cmp	r0, #0
 218 004e EDD1     		bne	.L10
1641:Drivers/BSP/STM32746G-Discovery/stm32746g_discovery_lcd.c ****       }
 219              		.loc 1 1641 0
 220 0050 0A21     		movs	r1, #10
 221 0052 0248     		ldr	r0, .L14
 222 0054 FFF7FEFF 		bl	HAL_DMA2D_PollForTransfer
 223              	.LVL20:
 224              		.loc 1 1645 0
 225 0058 E8E7     		b	.L10
 226              	.L15:
 227 005a 00BF     		.align	2
 228              	.L14:
 229 005c 00000000 		.word	.LANCHOR0
 230 0060 00B00240 		.word	1073917952
 231              		.cfi_endproc
 232              	.LFE193:
ARM GAS  C:\Users\milek\AppData\Local\Temp\ccMSPWBt.s 			page 34


 234              		.section	.text.BSP_LCD_GetXSize,"ax",%progbits
 235              		.align	1
 236              		.global	BSP_LCD_GetXSize
 237              		.syntax unified
 238              		.thumb
 239              		.thumb_func
 240              		.fpu fpv5-sp-d16
 242              	BSP_LCD_GetXSize:
 243              	.LFB140:
 248:Drivers/BSP/STM32746G-Discovery/stm32746g_discovery_lcd.c ****   return hLtdcHandler.LayerCfg[ActiveLayer].ImageWidth;
 244              		.loc 1 248 0
 245              		.cfi_startproc
 246              		@ args = 0, pretend = 0, frame = 0
 247              		@ frame_needed = 0, uses_anonymous_args = 0
 248              		@ link register save eliminated.
 249:Drivers/BSP/STM32746G-Discovery/stm32746g_discovery_lcd.c **** }
 249              		.loc 1 249 0
 250 0000 034B     		ldr	r3, .L17
 251 0002 1B68     		ldr	r3, [r3]
 252 0004 034A     		ldr	r2, .L17+4
 253 0006 3421     		movs	r1, #52
 254 0008 01FB0323 		mla	r3, r1, r3, r2
 250:Drivers/BSP/STM32746G-Discovery/stm32746g_discovery_lcd.c **** 
 255              		.loc 1 250 0
 256 000c 186E     		ldr	r0, [r3, #96]
 257 000e 7047     		bx	lr
 258              	.L18:
 259              		.align	2
 260              	.L17:
 261 0010 00000000 		.word	.LANCHOR1
 262 0014 00000000 		.word	hLtdcHandler
 263              		.cfi_endproc
 264              	.LFE140:
 266              		.section	.text.BSP_LCD_GetYSize,"ax",%progbits
 267              		.align	1
 268              		.global	BSP_LCD_GetYSize
 269              		.syntax unified
 270              		.thumb
 271              		.thumb_func
 272              		.fpu fpv5-sp-d16
 274              	BSP_LCD_GetYSize:
 275              	.LFB141:
 257:Drivers/BSP/STM32746G-Discovery/stm32746g_discovery_lcd.c ****   return hLtdcHandler.LayerCfg[ActiveLayer].ImageHeight;
 276              		.loc 1 257 0
 277              		.cfi_startproc
 278              		@ args = 0, pretend = 0, frame = 0
 279              		@ frame_needed = 0, uses_anonymous_args = 0
 280              		@ link register save eliminated.
 258:Drivers/BSP/STM32746G-Discovery/stm32746g_discovery_lcd.c **** }
 281              		.loc 1 258 0
 282 0000 034B     		ldr	r3, .L20
 283 0002 1B68     		ldr	r3, [r3]
 284 0004 034A     		ldr	r2, .L20+4
 285 0006 3421     		movs	r1, #52
 286 0008 01FB0323 		mla	r3, r1, r3, r2
 259:Drivers/BSP/STM32746G-Discovery/stm32746g_discovery_lcd.c **** 
 287              		.loc 1 259 0
ARM GAS  C:\Users\milek\AppData\Local\Temp\ccMSPWBt.s 			page 35


 288 000c 586E     		ldr	r0, [r3, #100]
 289 000e 7047     		bx	lr
 290              	.L21:
 291              		.align	2
 292              	.L20:
 293 0010 00000000 		.word	.LANCHOR1
 294 0014 00000000 		.word	hLtdcHandler
 295              		.cfi_endproc
 296              	.LFE141:
 298              		.section	.text.BSP_LCD_SetXSize,"ax",%progbits
 299              		.align	1
 300              		.global	BSP_LCD_SetXSize
 301              		.syntax unified
 302              		.thumb
 303              		.thumb_func
 304              		.fpu fpv5-sp-d16
 306              	BSP_LCD_SetXSize:
 307              	.LFB142:
 267:Drivers/BSP/STM32746G-Discovery/stm32746g_discovery_lcd.c ****   hLtdcHandler.LayerCfg[ActiveLayer].ImageWidth = imageWidthPixels;
 308              		.loc 1 267 0
 309              		.cfi_startproc
 310              		@ args = 0, pretend = 0, frame = 0
 311              		@ frame_needed = 0, uses_anonymous_args = 0
 312              		@ link register save eliminated.
 313              	.LVL21:
 268:Drivers/BSP/STM32746G-Discovery/stm32746g_discovery_lcd.c **** }
 314              		.loc 1 268 0
 315 0000 034B     		ldr	r3, .L23
 316 0002 1B68     		ldr	r3, [r3]
 317 0004 034A     		ldr	r2, .L23+4
 318 0006 3421     		movs	r1, #52
 319 0008 01FB0323 		mla	r3, r1, r3, r2
 320 000c 1866     		str	r0, [r3, #96]
 269:Drivers/BSP/STM32746G-Discovery/stm32746g_discovery_lcd.c **** 
 321              		.loc 1 269 0
 322 000e 7047     		bx	lr
 323              	.L24:
 324              		.align	2
 325              	.L23:
 326 0010 00000000 		.word	.LANCHOR1
 327 0014 00000000 		.word	hLtdcHandler
 328              		.cfi_endproc
 329              	.LFE142:
 331              		.section	.text.BSP_LCD_SetYSize,"ax",%progbits
 332              		.align	1
 333              		.global	BSP_LCD_SetYSize
 334              		.syntax unified
 335              		.thumb
 336              		.thumb_func
 337              		.fpu fpv5-sp-d16
 339              	BSP_LCD_SetYSize:
 340              	.LFB143:
 277:Drivers/BSP/STM32746G-Discovery/stm32746g_discovery_lcd.c ****   hLtdcHandler.LayerCfg[ActiveLayer].ImageHeight = imageHeightPixels;
 341              		.loc 1 277 0
 342              		.cfi_startproc
 343              		@ args = 0, pretend = 0, frame = 0
 344              		@ frame_needed = 0, uses_anonymous_args = 0
ARM GAS  C:\Users\milek\AppData\Local\Temp\ccMSPWBt.s 			page 36


 345              		@ link register save eliminated.
 346              	.LVL22:
 278:Drivers/BSP/STM32746G-Discovery/stm32746g_discovery_lcd.c **** }
 347              		.loc 1 278 0
 348 0000 034B     		ldr	r3, .L26
 349 0002 1B68     		ldr	r3, [r3]
 350 0004 034A     		ldr	r2, .L26+4
 351 0006 3421     		movs	r1, #52
 352 0008 01FB0323 		mla	r3, r1, r3, r2
 353 000c 5866     		str	r0, [r3, #100]
 279:Drivers/BSP/STM32746G-Discovery/stm32746g_discovery_lcd.c **** 
 354              		.loc 1 279 0
 355 000e 7047     		bx	lr
 356              	.L27:
 357              		.align	2
 358              	.L26:
 359 0010 00000000 		.word	.LANCHOR1
 360 0014 00000000 		.word	hLtdcHandler
 361              		.cfi_endproc
 362              	.LFE143:
 364              		.section	.text.BSP_LCD_LayerDefaultInit,"ax",%progbits
 365              		.align	1
 366              		.global	BSP_LCD_LayerDefaultInit
 367              		.syntax unified
 368              		.thumb
 369              		.thumb_func
 370              		.fpu fpv5-sp-d16
 372              	BSP_LCD_LayerDefaultInit:
 373              	.LFB144:
 288:Drivers/BSP/STM32746G-Discovery/stm32746g_discovery_lcd.c ****   LCD_LayerCfgTypeDef  layer_cfg;
 374              		.loc 1 288 0
 375              		.cfi_startproc
 376              		@ args = 0, pretend = 0, frame = 56
 377              		@ frame_needed = 0, uses_anonymous_args = 0
 378              	.LVL23:
 379 0000 70B5     		push	{r4, r5, r6, lr}
 380              	.LCFI8:
 381              		.cfi_def_cfa_offset 16
 382              		.cfi_offset 4, -16
 383              		.cfi_offset 5, -12
 384              		.cfi_offset 6, -8
 385              		.cfi_offset 14, -4
 386 0002 8EB0     		sub	sp, sp, #56
 387              	.LCFI9:
 388              		.cfi_def_cfa_offset 72
 389 0004 0546     		mov	r5, r0
 390 0006 0E46     		mov	r6, r1
 292:Drivers/BSP/STM32746G-Discovery/stm32746g_discovery_lcd.c ****   layer_cfg.WindowX1 = BSP_LCD_GetXSize();
 391              		.loc 1 292 0
 392 0008 0024     		movs	r4, #0
 393 000a 0194     		str	r4, [sp, #4]
 293:Drivers/BSP/STM32746G-Discovery/stm32746g_discovery_lcd.c ****   layer_cfg.WindowY0 = 0;
 394              		.loc 1 293 0
 395 000c FFF7FEFF 		bl	BSP_LCD_GetXSize
 396              	.LVL24:
 397 0010 0290     		str	r0, [sp, #8]
 294:Drivers/BSP/STM32746G-Discovery/stm32746g_discovery_lcd.c ****   layer_cfg.WindowY1 = BSP_LCD_GetYSize(); 
ARM GAS  C:\Users\milek\AppData\Local\Temp\ccMSPWBt.s 			page 37


 398              		.loc 1 294 0
 399 0012 0394     		str	r4, [sp, #12]
 295:Drivers/BSP/STM32746G-Discovery/stm32746g_discovery_lcd.c ****   layer_cfg.PixelFormat = LTDC_PIXEL_FORMAT_ARGB8888;
 400              		.loc 1 295 0
 401 0014 FFF7FEFF 		bl	BSP_LCD_GetYSize
 402              	.LVL25:
 403 0018 0490     		str	r0, [sp, #16]
 296:Drivers/BSP/STM32746G-Discovery/stm32746g_discovery_lcd.c ****   layer_cfg.FBStartAdress = FB_Address;
 404              		.loc 1 296 0
 405 001a 0594     		str	r4, [sp, #20]
 297:Drivers/BSP/STM32746G-Discovery/stm32746g_discovery_lcd.c ****   layer_cfg.Alpha = 255;
 406              		.loc 1 297 0
 407 001c 0A96     		str	r6, [sp, #40]
 298:Drivers/BSP/STM32746G-Discovery/stm32746g_discovery_lcd.c ****   layer_cfg.Alpha0 = 0;
 408              		.loc 1 298 0
 409 001e FF23     		movs	r3, #255
 410 0020 0693     		str	r3, [sp, #24]
 299:Drivers/BSP/STM32746G-Discovery/stm32746g_discovery_lcd.c ****   layer_cfg.Backcolor.Blue = 0;
 411              		.loc 1 299 0
 412 0022 0794     		str	r4, [sp, #28]
 300:Drivers/BSP/STM32746G-Discovery/stm32746g_discovery_lcd.c ****   layer_cfg.Backcolor.Green = 0;
 413              		.loc 1 300 0
 414 0024 8DF83440 		strb	r4, [sp, #52]
 301:Drivers/BSP/STM32746G-Discovery/stm32746g_discovery_lcd.c ****   layer_cfg.Backcolor.Red = 0;
 415              		.loc 1 301 0
 416 0028 8DF83540 		strb	r4, [sp, #53]
 302:Drivers/BSP/STM32746G-Discovery/stm32746g_discovery_lcd.c ****   layer_cfg.BlendingFactor1 = LTDC_BLENDING_FACTOR1_PAxCA;
 417              		.loc 1 302 0
 418 002c 8DF83640 		strb	r4, [sp, #54]
 303:Drivers/BSP/STM32746G-Discovery/stm32746g_discovery_lcd.c ****   layer_cfg.BlendingFactor2 = LTDC_BLENDING_FACTOR2_PAxCA;
 419              		.loc 1 303 0
 420 0030 4FF4C063 		mov	r3, #1536
 421 0034 0893     		str	r3, [sp, #32]
 304:Drivers/BSP/STM32746G-Discovery/stm32746g_discovery_lcd.c ****   layer_cfg.ImageWidth = BSP_LCD_GetXSize();
 422              		.loc 1 304 0
 423 0036 0723     		movs	r3, #7
 424 0038 0993     		str	r3, [sp, #36]
 305:Drivers/BSP/STM32746G-Discovery/stm32746g_discovery_lcd.c ****   layer_cfg.ImageHeight = BSP_LCD_GetYSize();
 425              		.loc 1 305 0
 426 003a FFF7FEFF 		bl	BSP_LCD_GetXSize
 427              	.LVL26:
 428 003e 0B90     		str	r0, [sp, #44]
 306:Drivers/BSP/STM32746G-Discovery/stm32746g_discovery_lcd.c ****   
 429              		.loc 1 306 0
 430 0040 FFF7FEFF 		bl	BSP_LCD_GetYSize
 431              	.LVL27:
 432 0044 0C90     		str	r0, [sp, #48]
 308:Drivers/BSP/STM32746G-Discovery/stm32746g_discovery_lcd.c **** 
 433              		.loc 1 308 0
 434 0046 2A46     		mov	r2, r5
 435 0048 01A9     		add	r1, sp, #4
 436 004a 0A48     		ldr	r0, .L30
 437 004c FFF7FEFF 		bl	HAL_LTDC_ConfigLayer
 438              	.LVL28:
 310:Drivers/BSP/STM32746G-Discovery/stm32746g_discovery_lcd.c ****   DrawProp[LayerIndex].pFont     = &Font24;
 439              		.loc 1 310 0
 440 0050 094A     		ldr	r2, .L30+4
ARM GAS  C:\Users\milek\AppData\Local\Temp\ccMSPWBt.s 			page 38


 441 0052 6800     		lsls	r0, r5, #1
 442 0054 4119     		adds	r1, r0, r5
 443 0056 8B00     		lsls	r3, r1, #2
 444 0058 1344     		add	r3, r3, r2
 445 005a 4FF0FF31 		mov	r1, #-1
 446 005e 5960     		str	r1, [r3, #4]
 311:Drivers/BSP/STM32746G-Discovery/stm32746g_discovery_lcd.c ****   DrawProp[LayerIndex].TextColor = LCD_COLOR_BLACK; 
 447              		.loc 1 311 0
 448 0060 0649     		ldr	r1, .L30+8
 449 0062 9960     		str	r1, [r3, #8]
 312:Drivers/BSP/STM32746G-Discovery/stm32746g_discovery_lcd.c **** }
 450              		.loc 1 312 0
 451 0064 2844     		add	r0, r0, r5
 452 0066 8300     		lsls	r3, r0, #2
 453 0068 4FF07F41 		mov	r1, #-16777216
 454 006c D150     		str	r1, [r2, r3]
 313:Drivers/BSP/STM32746G-Discovery/stm32746g_discovery_lcd.c **** 
 455              		.loc 1 313 0
 456 006e 0EB0     		add	sp, sp, #56
 457              	.LCFI10:
 458              		.cfi_def_cfa_offset 16
 459              		@ sp needed
 460 0070 70BD     		pop	{r4, r5, r6, pc}
 461              	.LVL29:
 462              	.L31:
 463 0072 00BF     		.align	2
 464              	.L30:
 465 0074 00000000 		.word	hLtdcHandler
 466 0078 00000000 		.word	.LANCHOR2
 467 007c 00000000 		.word	.LANCHOR3
 468              		.cfi_endproc
 469              	.LFE144:
 471              		.section	.text.BSP_LCD_LayerRgb565Init,"ax",%progbits
 472              		.align	1
 473              		.global	BSP_LCD_LayerRgb565Init
 474              		.syntax unified
 475              		.thumb
 476              		.thumb_func
 477              		.fpu fpv5-sp-d16
 479              	BSP_LCD_LayerRgb565Init:
 480              	.LFB145:
 322:Drivers/BSP/STM32746G-Discovery/stm32746g_discovery_lcd.c ****   LCD_LayerCfgTypeDef  layer_cfg;
 481              		.loc 1 322 0
 482              		.cfi_startproc
 483              		@ args = 0, pretend = 0, frame = 56
 484              		@ frame_needed = 0, uses_anonymous_args = 0
 485              	.LVL30:
 486 0000 70B5     		push	{r4, r5, r6, lr}
 487              	.LCFI11:
 488              		.cfi_def_cfa_offset 16
 489              		.cfi_offset 4, -16
 490              		.cfi_offset 5, -12
 491              		.cfi_offset 6, -8
 492              		.cfi_offset 14, -4
 493 0002 8EB0     		sub	sp, sp, #56
 494              	.LCFI12:
 495              		.cfi_def_cfa_offset 72
ARM GAS  C:\Users\milek\AppData\Local\Temp\ccMSPWBt.s 			page 39


 496 0004 0546     		mov	r5, r0
 497 0006 0E46     		mov	r6, r1
 326:Drivers/BSP/STM32746G-Discovery/stm32746g_discovery_lcd.c ****   layer_cfg.WindowX1 = BSP_LCD_GetXSize();
 498              		.loc 1 326 0
 499 0008 0024     		movs	r4, #0
 500 000a 0194     		str	r4, [sp, #4]
 327:Drivers/BSP/STM32746G-Discovery/stm32746g_discovery_lcd.c ****   layer_cfg.WindowY0 = 0;
 501              		.loc 1 327 0
 502 000c FFF7FEFF 		bl	BSP_LCD_GetXSize
 503              	.LVL31:
 504 0010 0290     		str	r0, [sp, #8]
 328:Drivers/BSP/STM32746G-Discovery/stm32746g_discovery_lcd.c ****   layer_cfg.WindowY1 = BSP_LCD_GetYSize(); 
 505              		.loc 1 328 0
 506 0012 0394     		str	r4, [sp, #12]
 329:Drivers/BSP/STM32746G-Discovery/stm32746g_discovery_lcd.c ****   layer_cfg.PixelFormat = LTDC_PIXEL_FORMAT_RGB565;
 507              		.loc 1 329 0
 508 0014 FFF7FEFF 		bl	BSP_LCD_GetYSize
 509              	.LVL32:
 510 0018 0490     		str	r0, [sp, #16]
 330:Drivers/BSP/STM32746G-Discovery/stm32746g_discovery_lcd.c ****   layer_cfg.FBStartAdress = FB_Address;
 511              		.loc 1 330 0
 512 001a 0223     		movs	r3, #2
 513 001c 0593     		str	r3, [sp, #20]
 331:Drivers/BSP/STM32746G-Discovery/stm32746g_discovery_lcd.c ****   layer_cfg.Alpha = 255;
 514              		.loc 1 331 0
 515 001e 0A96     		str	r6, [sp, #40]
 332:Drivers/BSP/STM32746G-Discovery/stm32746g_discovery_lcd.c ****   layer_cfg.Alpha0 = 0;
 516              		.loc 1 332 0
 517 0020 FF23     		movs	r3, #255
 518 0022 0693     		str	r3, [sp, #24]
 333:Drivers/BSP/STM32746G-Discovery/stm32746g_discovery_lcd.c ****   layer_cfg.Backcolor.Blue = 0;
 519              		.loc 1 333 0
 520 0024 0794     		str	r4, [sp, #28]
 334:Drivers/BSP/STM32746G-Discovery/stm32746g_discovery_lcd.c ****   layer_cfg.Backcolor.Green = 0;
 521              		.loc 1 334 0
 522 0026 8DF83440 		strb	r4, [sp, #52]
 335:Drivers/BSP/STM32746G-Discovery/stm32746g_discovery_lcd.c ****   layer_cfg.Backcolor.Red = 0;
 523              		.loc 1 335 0
 524 002a 8DF83540 		strb	r4, [sp, #53]
 336:Drivers/BSP/STM32746G-Discovery/stm32746g_discovery_lcd.c ****   layer_cfg.BlendingFactor1 = LTDC_BLENDING_FACTOR1_PAxCA;
 525              		.loc 1 336 0
 526 002e 8DF83640 		strb	r4, [sp, #54]
 337:Drivers/BSP/STM32746G-Discovery/stm32746g_discovery_lcd.c ****   layer_cfg.BlendingFactor2 = LTDC_BLENDING_FACTOR2_PAxCA;
 527              		.loc 1 337 0
 528 0032 4FF4C063 		mov	r3, #1536
 529 0036 0893     		str	r3, [sp, #32]
 338:Drivers/BSP/STM32746G-Discovery/stm32746g_discovery_lcd.c ****   layer_cfg.ImageWidth = BSP_LCD_GetXSize();
 530              		.loc 1 338 0
 531 0038 0723     		movs	r3, #7
 532 003a 0993     		str	r3, [sp, #36]
 339:Drivers/BSP/STM32746G-Discovery/stm32746g_discovery_lcd.c ****   layer_cfg.ImageHeight = BSP_LCD_GetYSize();
 533              		.loc 1 339 0
 534 003c FFF7FEFF 		bl	BSP_LCD_GetXSize
 535              	.LVL33:
 536 0040 0B90     		str	r0, [sp, #44]
 340:Drivers/BSP/STM32746G-Discovery/stm32746g_discovery_lcd.c ****   
 537              		.loc 1 340 0
ARM GAS  C:\Users\milek\AppData\Local\Temp\ccMSPWBt.s 			page 40


 538 0042 FFF7FEFF 		bl	BSP_LCD_GetYSize
 539              	.LVL34:
 540 0046 0C90     		str	r0, [sp, #48]
 342:Drivers/BSP/STM32746G-Discovery/stm32746g_discovery_lcd.c **** 
 541              		.loc 1 342 0
 542 0048 2A46     		mov	r2, r5
 543 004a 01A9     		add	r1, sp, #4
 544 004c 0948     		ldr	r0, .L34
 545 004e FFF7FEFF 		bl	HAL_LTDC_ConfigLayer
 546              	.LVL35:
 344:Drivers/BSP/STM32746G-Discovery/stm32746g_discovery_lcd.c ****   DrawProp[LayerIndex].pFont     = &Font24;
 547              		.loc 1 344 0
 548 0052 094A     		ldr	r2, .L34+4
 549 0054 6800     		lsls	r0, r5, #1
 550 0056 4119     		adds	r1, r0, r5
 551 0058 8B00     		lsls	r3, r1, #2
 552 005a 1344     		add	r3, r3, r2
 553 005c 4FF0FF31 		mov	r1, #-1
 554 0060 5960     		str	r1, [r3, #4]
 345:Drivers/BSP/STM32746G-Discovery/stm32746g_discovery_lcd.c ****   DrawProp[LayerIndex].TextColor = LCD_COLOR_BLACK; 
 555              		.loc 1 345 0
 556 0062 0649     		ldr	r1, .L34+8
 557 0064 9960     		str	r1, [r3, #8]
 346:Drivers/BSP/STM32746G-Discovery/stm32746g_discovery_lcd.c **** }
 558              		.loc 1 346 0
 559 0066 2844     		add	r0, r0, r5
 560 0068 8300     		lsls	r3, r0, #2
 561 006a 4FF07F41 		mov	r1, #-16777216
 562 006e D150     		str	r1, [r2, r3]
 347:Drivers/BSP/STM32746G-Discovery/stm32746g_discovery_lcd.c **** 
 563              		.loc 1 347 0
 564 0070 0EB0     		add	sp, sp, #56
 565              	.LCFI13:
 566              		.cfi_def_cfa_offset 16
 567              		@ sp needed
 568 0072 70BD     		pop	{r4, r5, r6, pc}
 569              	.LVL36:
 570              	.L35:
 571              		.align	2
 572              	.L34:
 573 0074 00000000 		.word	hLtdcHandler
 574 0078 00000000 		.word	.LANCHOR2
 575 007c 00000000 		.word	.LANCHOR3
 576              		.cfi_endproc
 577              	.LFE145:
 579              		.section	.text.BSP_LCD_SelectLayer,"ax",%progbits
 580              		.align	1
 581              		.global	BSP_LCD_SelectLayer
 582              		.syntax unified
 583              		.thumb
 584              		.thumb_func
 585              		.fpu fpv5-sp-d16
 587              	BSP_LCD_SelectLayer:
 588              	.LFB146:
 355:Drivers/BSP/STM32746G-Discovery/stm32746g_discovery_lcd.c ****   ActiveLayer = LayerIndex;
 589              		.loc 1 355 0
 590              		.cfi_startproc
ARM GAS  C:\Users\milek\AppData\Local\Temp\ccMSPWBt.s 			page 41


 591              		@ args = 0, pretend = 0, frame = 0
 592              		@ frame_needed = 0, uses_anonymous_args = 0
 593              		@ link register save eliminated.
 594              	.LVL37:
 356:Drivers/BSP/STM32746G-Discovery/stm32746g_discovery_lcd.c **** } 
 595              		.loc 1 356 0
 596 0000 014B     		ldr	r3, .L37
 597 0002 1860     		str	r0, [r3]
 357:Drivers/BSP/STM32746G-Discovery/stm32746g_discovery_lcd.c **** 
 598              		.loc 1 357 0
 599 0004 7047     		bx	lr
 600              	.L38:
 601 0006 00BF     		.align	2
 602              	.L37:
 603 0008 00000000 		.word	.LANCHOR1
 604              		.cfi_endproc
 605              	.LFE146:
 607              		.section	.text.BSP_LCD_SetLayerVisible,"ax",%progbits
 608              		.align	1
 609              		.global	BSP_LCD_SetLayerVisible
 610              		.syntax unified
 611              		.thumb
 612              		.thumb_func
 613              		.fpu fpv5-sp-d16
 615              	BSP_LCD_SetLayerVisible:
 616              	.LFB147:
 369:Drivers/BSP/STM32746G-Discovery/stm32746g_discovery_lcd.c ****   if(State == ENABLE)
 617              		.loc 1 369 0
 618              		.cfi_startproc
 619              		@ args = 0, pretend = 0, frame = 0
 620              		@ frame_needed = 0, uses_anonymous_args = 0
 621              		@ link register save eliminated.
 622              	.LVL38:
 370:Drivers/BSP/STM32746G-Discovery/stm32746g_discovery_lcd.c ****   {
 623              		.loc 1 370 0
 624 0000 0129     		cmp	r1, #1
 625 0002 10D0     		beq	.L42
 376:Drivers/BSP/STM32746G-Discovery/stm32746g_discovery_lcd.c ****   }
 626              		.loc 1 376 0
 627 0004 0D4B     		ldr	r3, .L43
 628 0006 1B68     		ldr	r3, [r3]
 629 0008 03EBC010 		add	r0, r3, r0, lsl #7
 630              	.LVL39:
 631 000c D0F88430 		ldr	r3, [r0, #132]
 632 0010 23F00103 		bic	r3, r3, #1
 633 0014 C0F88430 		str	r3, [r0, #132]
 634              	.L41:
 378:Drivers/BSP/STM32746G-Discovery/stm32746g_discovery_lcd.c **** } 
 635              		.loc 1 378 0
 636 0018 084B     		ldr	r3, .L43
 637 001a 1A68     		ldr	r2, [r3]
 638 001c 536A     		ldr	r3, [r2, #36]
 639 001e 43F00103 		orr	r3, r3, #1
 640 0022 5362     		str	r3, [r2, #36]
 379:Drivers/BSP/STM32746G-Discovery/stm32746g_discovery_lcd.c **** 
 641              		.loc 1 379 0
 642 0024 7047     		bx	lr
ARM GAS  C:\Users\milek\AppData\Local\Temp\ccMSPWBt.s 			page 42


 643              	.LVL40:
 644              	.L42:
 372:Drivers/BSP/STM32746G-Discovery/stm32746g_discovery_lcd.c ****   }
 645              		.loc 1 372 0
 646 0026 054B     		ldr	r3, .L43
 647 0028 1B68     		ldr	r3, [r3]
 648 002a 03EBC010 		add	r0, r3, r0, lsl #7
 649              	.LVL41:
 650 002e D0F88430 		ldr	r3, [r0, #132]
 651 0032 43F00103 		orr	r3, r3, #1
 652 0036 C0F88430 		str	r3, [r0, #132]
 653 003a EDE7     		b	.L41
 654              	.L44:
 655              		.align	2
 656              	.L43:
 657 003c 00000000 		.word	hLtdcHandler
 658              		.cfi_endproc
 659              	.LFE147:
 661              		.section	.text.BSP_LCD_SetLayerVisible_NoReload,"ax",%progbits
 662              		.align	1
 663              		.global	BSP_LCD_SetLayerVisible_NoReload
 664              		.syntax unified
 665              		.thumb
 666              		.thumb_func
 667              		.fpu fpv5-sp-d16
 669              	BSP_LCD_SetLayerVisible_NoReload:
 670              	.LFB148:
 391:Drivers/BSP/STM32746G-Discovery/stm32746g_discovery_lcd.c ****   if(State == ENABLE)
 671              		.loc 1 391 0
 672              		.cfi_startproc
 673              		@ args = 0, pretend = 0, frame = 0
 674              		@ frame_needed = 0, uses_anonymous_args = 0
 675              		@ link register save eliminated.
 676              	.LVL42:
 392:Drivers/BSP/STM32746G-Discovery/stm32746g_discovery_lcd.c ****   {
 677              		.loc 1 392 0
 678 0000 0129     		cmp	r1, #1
 679 0002 0AD0     		beq	.L48
 398:Drivers/BSP/STM32746G-Discovery/stm32746g_discovery_lcd.c ****   }
 680              		.loc 1 398 0
 681 0004 0A4B     		ldr	r3, .L49
 682 0006 1B68     		ldr	r3, [r3]
 683 0008 03EBC010 		add	r0, r3, r0, lsl #7
 684              	.LVL43:
 685 000c D0F88430 		ldr	r3, [r0, #132]
 686 0010 23F00103 		bic	r3, r3, #1
 687 0014 C0F88430 		str	r3, [r0, #132]
 401:Drivers/BSP/STM32746G-Discovery/stm32746g_discovery_lcd.c **** 
 688              		.loc 1 401 0
 689 0018 7047     		bx	lr
 690              	.LVL44:
 691              	.L48:
 394:Drivers/BSP/STM32746G-Discovery/stm32746g_discovery_lcd.c ****   }
 692              		.loc 1 394 0
 693 001a 054B     		ldr	r3, .L49
 694 001c 1B68     		ldr	r3, [r3]
 695 001e 03EBC010 		add	r0, r3, r0, lsl #7
ARM GAS  C:\Users\milek\AppData\Local\Temp\ccMSPWBt.s 			page 43


 696              	.LVL45:
 697 0022 D0F88430 		ldr	r3, [r0, #132]
 698 0026 43F00103 		orr	r3, r3, #1
 699 002a C0F88430 		str	r3, [r0, #132]
 700 002e 7047     		bx	lr
 701              	.L50:
 702              		.align	2
 703              	.L49:
 704 0030 00000000 		.word	hLtdcHandler
 705              		.cfi_endproc
 706              	.LFE148:
 708              		.section	.text.BSP_LCD_SetTransparency,"ax",%progbits
 709              		.align	1
 710              		.global	BSP_LCD_SetTransparency
 711              		.syntax unified
 712              		.thumb
 713              		.thumb_func
 714              		.fpu fpv5-sp-d16
 716              	BSP_LCD_SetTransparency:
 717              	.LFB149:
 411:Drivers/BSP/STM32746G-Discovery/stm32746g_discovery_lcd.c ****   HAL_LTDC_SetAlpha(&hLtdcHandler, Transparency, LayerIndex);
 718              		.loc 1 411 0
 719              		.cfi_startproc
 720              		@ args = 0, pretend = 0, frame = 0
 721              		@ frame_needed = 0, uses_anonymous_args = 0
 722              	.LVL46:
 723 0000 08B5     		push	{r3, lr}
 724              	.LCFI14:
 725              		.cfi_def_cfa_offset 8
 726              		.cfi_offset 3, -8
 727              		.cfi_offset 14, -4
 412:Drivers/BSP/STM32746G-Discovery/stm32746g_discovery_lcd.c **** }
 728              		.loc 1 412 0
 729 0002 0246     		mov	r2, r0
 730 0004 0148     		ldr	r0, .L53
 731              	.LVL47:
 732 0006 FFF7FEFF 		bl	HAL_LTDC_SetAlpha
 733              	.LVL48:
 413:Drivers/BSP/STM32746G-Discovery/stm32746g_discovery_lcd.c **** 
 734              		.loc 1 413 0
 735 000a 08BD     		pop	{r3, pc}
 736              	.L54:
 737              		.align	2
 738              	.L53:
 739 000c 00000000 		.word	hLtdcHandler
 740              		.cfi_endproc
 741              	.LFE149:
 743              		.section	.text.BSP_LCD_SetTransparency_NoReload,"ax",%progbits
 744              		.align	1
 745              		.global	BSP_LCD_SetTransparency_NoReload
 746              		.syntax unified
 747              		.thumb
 748              		.thumb_func
 749              		.fpu fpv5-sp-d16
 751              	BSP_LCD_SetTransparency_NoReload:
 752              	.LFB150:
 423:Drivers/BSP/STM32746G-Discovery/stm32746g_discovery_lcd.c ****   HAL_LTDC_SetAlpha_NoReload(&hLtdcHandler, Transparency, LayerIndex);
ARM GAS  C:\Users\milek\AppData\Local\Temp\ccMSPWBt.s 			page 44


 753              		.loc 1 423 0
 754              		.cfi_startproc
 755              		@ args = 0, pretend = 0, frame = 0
 756              		@ frame_needed = 0, uses_anonymous_args = 0
 757              	.LVL49:
 758 0000 08B5     		push	{r3, lr}
 759              	.LCFI15:
 760              		.cfi_def_cfa_offset 8
 761              		.cfi_offset 3, -8
 762              		.cfi_offset 14, -4
 424:Drivers/BSP/STM32746G-Discovery/stm32746g_discovery_lcd.c **** }
 763              		.loc 1 424 0
 764 0002 0246     		mov	r2, r0
 765 0004 0148     		ldr	r0, .L57
 766              	.LVL50:
 767 0006 FFF7FEFF 		bl	HAL_LTDC_SetAlpha_NoReload
 768              	.LVL51:
 425:Drivers/BSP/STM32746G-Discovery/stm32746g_discovery_lcd.c **** 
 769              		.loc 1 425 0
 770 000a 08BD     		pop	{r3, pc}
 771              	.L58:
 772              		.align	2
 773              	.L57:
 774 000c 00000000 		.word	hLtdcHandler
 775              		.cfi_endproc
 776              	.LFE150:
 778              		.section	.text.BSP_LCD_SetLayerAddress,"ax",%progbits
 779              		.align	1
 780              		.global	BSP_LCD_SetLayerAddress
 781              		.syntax unified
 782              		.thumb
 783              		.thumb_func
 784              		.fpu fpv5-sp-d16
 786              	BSP_LCD_SetLayerAddress:
 787              	.LFB151:
 434:Drivers/BSP/STM32746G-Discovery/stm32746g_discovery_lcd.c ****   HAL_LTDC_SetAddress(&hLtdcHandler, Address, LayerIndex);
 788              		.loc 1 434 0
 789              		.cfi_startproc
 790              		@ args = 0, pretend = 0, frame = 0
 791              		@ frame_needed = 0, uses_anonymous_args = 0
 792              	.LVL52:
 793 0000 08B5     		push	{r3, lr}
 794              	.LCFI16:
 795              		.cfi_def_cfa_offset 8
 796              		.cfi_offset 3, -8
 797              		.cfi_offset 14, -4
 435:Drivers/BSP/STM32746G-Discovery/stm32746g_discovery_lcd.c **** }
 798              		.loc 1 435 0
 799 0002 0246     		mov	r2, r0
 800 0004 0148     		ldr	r0, .L61
 801              	.LVL53:
 802 0006 FFF7FEFF 		bl	HAL_LTDC_SetAddress
 803              	.LVL54:
 436:Drivers/BSP/STM32746G-Discovery/stm32746g_discovery_lcd.c **** 
 804              		.loc 1 436 0
 805 000a 08BD     		pop	{r3, pc}
 806              	.L62:
ARM GAS  C:\Users\milek\AppData\Local\Temp\ccMSPWBt.s 			page 45


 807              		.align	2
 808              	.L61:
 809 000c 00000000 		.word	hLtdcHandler
 810              		.cfi_endproc
 811              	.LFE151:
 813              		.section	.text.BSP_LCD_SetLayerAddress_NoReload,"ax",%progbits
 814              		.align	1
 815              		.global	BSP_LCD_SetLayerAddress_NoReload
 816              		.syntax unified
 817              		.thumb
 818              		.thumb_func
 819              		.fpu fpv5-sp-d16
 821              	BSP_LCD_SetLayerAddress_NoReload:
 822              	.LFB152:
 445:Drivers/BSP/STM32746G-Discovery/stm32746g_discovery_lcd.c ****   HAL_LTDC_SetAddress_NoReload(&hLtdcHandler, Address, LayerIndex);
 823              		.loc 1 445 0
 824              		.cfi_startproc
 825              		@ args = 0, pretend = 0, frame = 0
 826              		@ frame_needed = 0, uses_anonymous_args = 0
 827              	.LVL55:
 828 0000 08B5     		push	{r3, lr}
 829              	.LCFI17:
 830              		.cfi_def_cfa_offset 8
 831              		.cfi_offset 3, -8
 832              		.cfi_offset 14, -4
 446:Drivers/BSP/STM32746G-Discovery/stm32746g_discovery_lcd.c **** }
 833              		.loc 1 446 0
 834 0002 0246     		mov	r2, r0
 835 0004 0148     		ldr	r0, .L65
 836              	.LVL56:
 837 0006 FFF7FEFF 		bl	HAL_LTDC_SetAddress_NoReload
 838              	.LVL57:
 447:Drivers/BSP/STM32746G-Discovery/stm32746g_discovery_lcd.c **** 
 839              		.loc 1 447 0
 840 000a 08BD     		pop	{r3, pc}
 841              	.L66:
 842              		.align	2
 843              	.L65:
 844 000c 00000000 		.word	hLtdcHandler
 845              		.cfi_endproc
 846              	.LFE152:
 848              		.section	.text.BSP_LCD_SetLayerWindow,"ax",%progbits
 849              		.align	1
 850              		.global	BSP_LCD_SetLayerWindow
 851              		.syntax unified
 852              		.thumb
 853              		.thumb_func
 854              		.fpu fpv5-sp-d16
 856              	BSP_LCD_SetLayerWindow:
 857              	.LFB153:
 459:Drivers/BSP/STM32746G-Discovery/stm32746g_discovery_lcd.c ****   /* Reconfigure the layer size */
 858              		.loc 1 459 0
 859              		.cfi_startproc
 860              		@ args = 4, pretend = 0, frame = 0
 861              		@ frame_needed = 0, uses_anonymous_args = 0
 862              	.LVL58:
 863 0000 F8B5     		push	{r3, r4, r5, r6, r7, lr}
ARM GAS  C:\Users\milek\AppData\Local\Temp\ccMSPWBt.s 			page 46


 864              	.LCFI18:
 865              		.cfi_def_cfa_offset 24
 866              		.cfi_offset 3, -24
 867              		.cfi_offset 4, -20
 868              		.cfi_offset 5, -16
 869              		.cfi_offset 6, -12
 870              		.cfi_offset 7, -8
 871              		.cfi_offset 14, -4
 872 0002 0546     		mov	r5, r0
 873 0004 0E46     		mov	r6, r1
 874 0006 1746     		mov	r7, r2
 875 0008 1946     		mov	r1, r3
 876              	.LVL59:
 461:Drivers/BSP/STM32746G-Discovery/stm32746g_discovery_lcd.c ****   
 877              		.loc 1 461 0
 878 000a 074C     		ldr	r4, .L69
 879 000c 0346     		mov	r3, r0
 880              	.LVL60:
 881 000e BDF81820 		ldrh	r2, [sp, #24]
 882              	.LVL61:
 883 0012 2046     		mov	r0, r4
 884              	.LVL62:
 885 0014 FFF7FEFF 		bl	HAL_LTDC_SetWindowSize
 886              	.LVL63:
 464:Drivers/BSP/STM32746G-Discovery/stm32746g_discovery_lcd.c **** }
 887              		.loc 1 464 0
 888 0018 2B46     		mov	r3, r5
 889 001a 3A46     		mov	r2, r7
 890 001c 3146     		mov	r1, r6
 891 001e 2046     		mov	r0, r4
 892 0020 FFF7FEFF 		bl	HAL_LTDC_SetWindowPosition
 893              	.LVL64:
 465:Drivers/BSP/STM32746G-Discovery/stm32746g_discovery_lcd.c **** 
 894              		.loc 1 465 0
 895 0024 F8BD     		pop	{r3, r4, r5, r6, r7, pc}
 896              	.LVL65:
 897              	.L70:
 898 0026 00BF     		.align	2
 899              	.L69:
 900 0028 00000000 		.word	hLtdcHandler
 901              		.cfi_endproc
 902              	.LFE153:
 904              		.section	.text.BSP_LCD_SetLayerWindow_NoReload,"ax",%progbits
 905              		.align	1
 906              		.global	BSP_LCD_SetLayerWindow_NoReload
 907              		.syntax unified
 908              		.thumb
 909              		.thumb_func
 910              		.fpu fpv5-sp-d16
 912              	BSP_LCD_SetLayerWindow_NoReload:
 913              	.LFB154:
 477:Drivers/BSP/STM32746G-Discovery/stm32746g_discovery_lcd.c ****   /* Reconfigure the layer size */
 914              		.loc 1 477 0
 915              		.cfi_startproc
 916              		@ args = 4, pretend = 0, frame = 0
 917              		@ frame_needed = 0, uses_anonymous_args = 0
 918              	.LVL66:
ARM GAS  C:\Users\milek\AppData\Local\Temp\ccMSPWBt.s 			page 47


 919 0000 F8B5     		push	{r3, r4, r5, r6, r7, lr}
 920              	.LCFI19:
 921              		.cfi_def_cfa_offset 24
 922              		.cfi_offset 3, -24
 923              		.cfi_offset 4, -20
 924              		.cfi_offset 5, -16
 925              		.cfi_offset 6, -12
 926              		.cfi_offset 7, -8
 927              		.cfi_offset 14, -4
 928 0002 0546     		mov	r5, r0
 929 0004 0E46     		mov	r6, r1
 930 0006 1746     		mov	r7, r2
 931 0008 1946     		mov	r1, r3
 932              	.LVL67:
 479:Drivers/BSP/STM32746G-Discovery/stm32746g_discovery_lcd.c ****   
 933              		.loc 1 479 0
 934 000a 074C     		ldr	r4, .L73
 935 000c 0346     		mov	r3, r0
 936              	.LVL68:
 937 000e BDF81820 		ldrh	r2, [sp, #24]
 938              	.LVL69:
 939 0012 2046     		mov	r0, r4
 940              	.LVL70:
 941 0014 FFF7FEFF 		bl	HAL_LTDC_SetWindowSize_NoReload
 942              	.LVL71:
 482:Drivers/BSP/STM32746G-Discovery/stm32746g_discovery_lcd.c **** }
 943              		.loc 1 482 0
 944 0018 2B46     		mov	r3, r5
 945 001a 3A46     		mov	r2, r7
 946 001c 3146     		mov	r1, r6
 947 001e 2046     		mov	r0, r4
 948 0020 FFF7FEFF 		bl	HAL_LTDC_SetWindowPosition_NoReload
 949              	.LVL72:
 483:Drivers/BSP/STM32746G-Discovery/stm32746g_discovery_lcd.c **** 
 950              		.loc 1 483 0
 951 0024 F8BD     		pop	{r3, r4, r5, r6, r7, pc}
 952              	.LVL73:
 953              	.L74:
 954 0026 00BF     		.align	2
 955              	.L73:
 956 0028 00000000 		.word	hLtdcHandler
 957              		.cfi_endproc
 958              	.LFE154:
 960              		.section	.text.BSP_LCD_SetColorKeying,"ax",%progbits
 961              		.align	1
 962              		.global	BSP_LCD_SetColorKeying
 963              		.syntax unified
 964              		.thumb
 965              		.thumb_func
 966              		.fpu fpv5-sp-d16
 968              	BSP_LCD_SetColorKeying:
 969              	.LFB155:
 492:Drivers/BSP/STM32746G-Discovery/stm32746g_discovery_lcd.c ****   /* Configure and Enable the color Keying for LCD Layer */
 970              		.loc 1 492 0
 971              		.cfi_startproc
 972              		@ args = 0, pretend = 0, frame = 0
 973              		@ frame_needed = 0, uses_anonymous_args = 0
ARM GAS  C:\Users\milek\AppData\Local\Temp\ccMSPWBt.s 			page 48


 974              	.LVL74:
 975 0000 38B5     		push	{r3, r4, r5, lr}
 976              	.LCFI20:
 977              		.cfi_def_cfa_offset 16
 978              		.cfi_offset 3, -16
 979              		.cfi_offset 4, -12
 980              		.cfi_offset 5, -8
 981              		.cfi_offset 14, -4
 982 0002 0546     		mov	r5, r0
 494:Drivers/BSP/STM32746G-Discovery/stm32746g_discovery_lcd.c ****   HAL_LTDC_EnableColorKeying(&hLtdcHandler, LayerIndex);
 983              		.loc 1 494 0
 984 0004 044C     		ldr	r4, .L77
 985 0006 0246     		mov	r2, r0
 986 0008 2046     		mov	r0, r4
 987              	.LVL75:
 988 000a FFF7FEFF 		bl	HAL_LTDC_ConfigColorKeying
 989              	.LVL76:
 495:Drivers/BSP/STM32746G-Discovery/stm32746g_discovery_lcd.c **** }
 990              		.loc 1 495 0
 991 000e 2946     		mov	r1, r5
 992 0010 2046     		mov	r0, r4
 993 0012 FFF7FEFF 		bl	HAL_LTDC_EnableColorKeying
 994              	.LVL77:
 496:Drivers/BSP/STM32746G-Discovery/stm32746g_discovery_lcd.c **** 
 995              		.loc 1 496 0
 996 0016 38BD     		pop	{r3, r4, r5, pc}
 997              	.LVL78:
 998              	.L78:
 999              		.align	2
 1000              	.L77:
 1001 0018 00000000 		.word	hLtdcHandler
 1002              		.cfi_endproc
 1003              	.LFE155:
 1005              		.section	.text.BSP_LCD_SetColorKeying_NoReload,"ax",%progbits
 1006              		.align	1
 1007              		.global	BSP_LCD_SetColorKeying_NoReload
 1008              		.syntax unified
 1009              		.thumb
 1010              		.thumb_func
 1011              		.fpu fpv5-sp-d16
 1013              	BSP_LCD_SetColorKeying_NoReload:
 1014              	.LFB156:
 505:Drivers/BSP/STM32746G-Discovery/stm32746g_discovery_lcd.c ****   /* Configure and Enable the color Keying for LCD Layer */
 1015              		.loc 1 505 0
 1016              		.cfi_startproc
 1017              		@ args = 0, pretend = 0, frame = 0
 1018              		@ frame_needed = 0, uses_anonymous_args = 0
 1019              	.LVL79:
 1020 0000 38B5     		push	{r3, r4, r5, lr}
 1021              	.LCFI21:
 1022              		.cfi_def_cfa_offset 16
 1023              		.cfi_offset 3, -16
 1024              		.cfi_offset 4, -12
 1025              		.cfi_offset 5, -8
 1026              		.cfi_offset 14, -4
 1027 0002 0546     		mov	r5, r0
 507:Drivers/BSP/STM32746G-Discovery/stm32746g_discovery_lcd.c ****   HAL_LTDC_EnableColorKeying_NoReload(&hLtdcHandler, LayerIndex);
ARM GAS  C:\Users\milek\AppData\Local\Temp\ccMSPWBt.s 			page 49


 1028              		.loc 1 507 0
 1029 0004 044C     		ldr	r4, .L81
 1030 0006 0246     		mov	r2, r0
 1031 0008 2046     		mov	r0, r4
 1032              	.LVL80:
 1033 000a FFF7FEFF 		bl	HAL_LTDC_ConfigColorKeying_NoReload
 1034              	.LVL81:
 508:Drivers/BSP/STM32746G-Discovery/stm32746g_discovery_lcd.c **** }
 1035              		.loc 1 508 0
 1036 000e 2946     		mov	r1, r5
 1037 0010 2046     		mov	r0, r4
 1038 0012 FFF7FEFF 		bl	HAL_LTDC_EnableColorKeying_NoReload
 1039              	.LVL82:
 509:Drivers/BSP/STM32746G-Discovery/stm32746g_discovery_lcd.c **** 
 1040              		.loc 1 509 0
 1041 0016 38BD     		pop	{r3, r4, r5, pc}
 1042              	.LVL83:
 1043              	.L82:
 1044              		.align	2
 1045              	.L81:
 1046 0018 00000000 		.word	hLtdcHandler
 1047              		.cfi_endproc
 1048              	.LFE156:
 1050              		.section	.text.BSP_LCD_ResetColorKeying,"ax",%progbits
 1051              		.align	1
 1052              		.global	BSP_LCD_ResetColorKeying
 1053              		.syntax unified
 1054              		.thumb
 1055              		.thumb_func
 1056              		.fpu fpv5-sp-d16
 1058              	BSP_LCD_ResetColorKeying:
 1059              	.LFB157:
 517:Drivers/BSP/STM32746G-Discovery/stm32746g_discovery_lcd.c ****   /* Disable the color Keying for LCD Layer */
 1060              		.loc 1 517 0
 1061              		.cfi_startproc
 1062              		@ args = 0, pretend = 0, frame = 0
 1063              		@ frame_needed = 0, uses_anonymous_args = 0
 1064              	.LVL84:
 1065 0000 08B5     		push	{r3, lr}
 1066              	.LCFI22:
 1067              		.cfi_def_cfa_offset 8
 1068              		.cfi_offset 3, -8
 1069              		.cfi_offset 14, -4
 519:Drivers/BSP/STM32746G-Discovery/stm32746g_discovery_lcd.c **** }
 1070              		.loc 1 519 0
 1071 0002 0146     		mov	r1, r0
 1072 0004 0148     		ldr	r0, .L85
 1073              	.LVL85:
 1074 0006 FFF7FEFF 		bl	HAL_LTDC_DisableColorKeying
 1075              	.LVL86:
 520:Drivers/BSP/STM32746G-Discovery/stm32746g_discovery_lcd.c **** 
 1076              		.loc 1 520 0
 1077 000a 08BD     		pop	{r3, pc}
 1078              	.L86:
 1079              		.align	2
 1080              	.L85:
 1081 000c 00000000 		.word	hLtdcHandler
ARM GAS  C:\Users\milek\AppData\Local\Temp\ccMSPWBt.s 			page 50


 1082              		.cfi_endproc
 1083              	.LFE157:
 1085              		.section	.text.BSP_LCD_ResetColorKeying_NoReload,"ax",%progbits
 1086              		.align	1
 1087              		.global	BSP_LCD_ResetColorKeying_NoReload
 1088              		.syntax unified
 1089              		.thumb
 1090              		.thumb_func
 1091              		.fpu fpv5-sp-d16
 1093              	BSP_LCD_ResetColorKeying_NoReload:
 1094              	.LFB158:
 528:Drivers/BSP/STM32746G-Discovery/stm32746g_discovery_lcd.c ****   /* Disable the color Keying for LCD Layer */
 1095              		.loc 1 528 0
 1096              		.cfi_startproc
 1097              		@ args = 0, pretend = 0, frame = 0
 1098              		@ frame_needed = 0, uses_anonymous_args = 0
 1099              	.LVL87:
 1100 0000 08B5     		push	{r3, lr}
 1101              	.LCFI23:
 1102              		.cfi_def_cfa_offset 8
 1103              		.cfi_offset 3, -8
 1104              		.cfi_offset 14, -4
 530:Drivers/BSP/STM32746G-Discovery/stm32746g_discovery_lcd.c **** }
 1105              		.loc 1 530 0
 1106 0002 0146     		mov	r1, r0
 1107 0004 0148     		ldr	r0, .L89
 1108              	.LVL88:
 1109 0006 FFF7FEFF 		bl	HAL_LTDC_DisableColorKeying_NoReload
 1110              	.LVL89:
 531:Drivers/BSP/STM32746G-Discovery/stm32746g_discovery_lcd.c **** 
 1111              		.loc 1 531 0
 1112 000a 08BD     		pop	{r3, pc}
 1113              	.L90:
 1114              		.align	2
 1115              	.L89:
 1116 000c 00000000 		.word	hLtdcHandler
 1117              		.cfi_endproc
 1118              	.LFE158:
 1120              		.section	.text.BSP_LCD_Reload,"ax",%progbits
 1121              		.align	1
 1122              		.global	BSP_LCD_Reload
 1123              		.syntax unified
 1124              		.thumb
 1125              		.thumb_func
 1126              		.fpu fpv5-sp-d16
 1128              	BSP_LCD_Reload:
 1129              	.LFB159:
 541:Drivers/BSP/STM32746G-Discovery/stm32746g_discovery_lcd.c ****   HAL_LTDC_Reload (&hLtdcHandler, ReloadType);
 1130              		.loc 1 541 0
 1131              		.cfi_startproc
 1132              		@ args = 0, pretend = 0, frame = 0
 1133              		@ frame_needed = 0, uses_anonymous_args = 0
 1134              	.LVL90:
 1135 0000 08B5     		push	{r3, lr}
 1136              	.LCFI24:
 1137              		.cfi_def_cfa_offset 8
 1138              		.cfi_offset 3, -8
ARM GAS  C:\Users\milek\AppData\Local\Temp\ccMSPWBt.s 			page 51


 1139              		.cfi_offset 14, -4
 542:Drivers/BSP/STM32746G-Discovery/stm32746g_discovery_lcd.c **** }
 1140              		.loc 1 542 0
 1141 0002 0146     		mov	r1, r0
 1142 0004 0148     		ldr	r0, .L93
 1143              	.LVL91:
 1144 0006 FFF7FEFF 		bl	HAL_LTDC_Reload
 1145              	.LVL92:
 543:Drivers/BSP/STM32746G-Discovery/stm32746g_discovery_lcd.c **** 
 1146              		.loc 1 543 0
 1147 000a 08BD     		pop	{r3, pc}
 1148              	.L94:
 1149              		.align	2
 1150              	.L93:
 1151 000c 00000000 		.word	hLtdcHandler
 1152              		.cfi_endproc
 1153              	.LFE159:
 1155              		.section	.text.BSP_LCD_SetTextColor,"ax",%progbits
 1156              		.align	1
 1157              		.global	BSP_LCD_SetTextColor
 1158              		.syntax unified
 1159              		.thumb
 1160              		.thumb_func
 1161              		.fpu fpv5-sp-d16
 1163              	BSP_LCD_SetTextColor:
 1164              	.LFB160:
 551:Drivers/BSP/STM32746G-Discovery/stm32746g_discovery_lcd.c ****   DrawProp[ActiveLayer].TextColor = Color;
 1165              		.loc 1 551 0
 1166              		.cfi_startproc
 1167              		@ args = 0, pretend = 0, frame = 0
 1168              		@ frame_needed = 0, uses_anonymous_args = 0
 1169              		@ link register save eliminated.
 1170              	.LVL93:
 552:Drivers/BSP/STM32746G-Discovery/stm32746g_discovery_lcd.c **** }
 1171              		.loc 1 552 0
 1172 0000 034B     		ldr	r3, .L96
 1173 0002 1B68     		ldr	r3, [r3]
 1174 0004 03EB4303 		add	r3, r3, r3, lsl #1
 1175 0008 9A00     		lsls	r2, r3, #2
 1176 000a 024B     		ldr	r3, .L96+4
 1177 000c 9850     		str	r0, [r3, r2]
 553:Drivers/BSP/STM32746G-Discovery/stm32746g_discovery_lcd.c **** 
 1178              		.loc 1 553 0
 1179 000e 7047     		bx	lr
 1180              	.L97:
 1181              		.align	2
 1182              	.L96:
 1183 0010 00000000 		.word	.LANCHOR1
 1184 0014 00000000 		.word	.LANCHOR2
 1185              		.cfi_endproc
 1186              	.LFE160:
 1188              		.section	.text.BSP_LCD_GetTextColor,"ax",%progbits
 1189              		.align	1
 1190              		.global	BSP_LCD_GetTextColor
 1191              		.syntax unified
 1192              		.thumb
 1193              		.thumb_func
ARM GAS  C:\Users\milek\AppData\Local\Temp\ccMSPWBt.s 			page 52


 1194              		.fpu fpv5-sp-d16
 1196              	BSP_LCD_GetTextColor:
 1197              	.LFB161:
 560:Drivers/BSP/STM32746G-Discovery/stm32746g_discovery_lcd.c ****   return DrawProp[ActiveLayer].TextColor;
 1198              		.loc 1 560 0
 1199              		.cfi_startproc
 1200              		@ args = 0, pretend = 0, frame = 0
 1201              		@ frame_needed = 0, uses_anonymous_args = 0
 1202              		@ link register save eliminated.
 561:Drivers/BSP/STM32746G-Discovery/stm32746g_discovery_lcd.c **** }
 1203              		.loc 1 561 0
 1204 0000 034B     		ldr	r3, .L99
 1205 0002 1B68     		ldr	r3, [r3]
 1206 0004 03EB4303 		add	r3, r3, r3, lsl #1
 1207 0008 9A00     		lsls	r2, r3, #2
 562:Drivers/BSP/STM32746G-Discovery/stm32746g_discovery_lcd.c **** 
 1208              		.loc 1 562 0
 1209 000a 024B     		ldr	r3, .L99+4
 1210 000c 9858     		ldr	r0, [r3, r2]
 1211 000e 7047     		bx	lr
 1212              	.L100:
 1213              		.align	2
 1214              	.L99:
 1215 0010 00000000 		.word	.LANCHOR1
 1216 0014 00000000 		.word	.LANCHOR2
 1217              		.cfi_endproc
 1218              	.LFE161:
 1220              		.section	.text.BSP_LCD_SetBackColor,"ax",%progbits
 1221              		.align	1
 1222              		.global	BSP_LCD_SetBackColor
 1223              		.syntax unified
 1224              		.thumb
 1225              		.thumb_func
 1226              		.fpu fpv5-sp-d16
 1228              	BSP_LCD_SetBackColor:
 1229              	.LFB162:
 570:Drivers/BSP/STM32746G-Discovery/stm32746g_discovery_lcd.c ****   DrawProp[ActiveLayer].BackColor = Color;
 1230              		.loc 1 570 0
 1231              		.cfi_startproc
 1232              		@ args = 0, pretend = 0, frame = 0
 1233              		@ frame_needed = 0, uses_anonymous_args = 0
 1234              		@ link register save eliminated.
 1235              	.LVL94:
 571:Drivers/BSP/STM32746G-Discovery/stm32746g_discovery_lcd.c **** }
 1236              		.loc 1 571 0
 1237 0000 044B     		ldr	r3, .L102
 1238 0002 1B68     		ldr	r3, [r3]
 1239 0004 03EB4303 		add	r3, r3, r3, lsl #1
 1240 0008 9A00     		lsls	r2, r3, #2
 1241 000a 034B     		ldr	r3, .L102+4
 1242 000c 1344     		add	r3, r3, r2
 1243 000e 5860     		str	r0, [r3, #4]
 572:Drivers/BSP/STM32746G-Discovery/stm32746g_discovery_lcd.c **** 
 1244              		.loc 1 572 0
 1245 0010 7047     		bx	lr
 1246              	.L103:
 1247 0012 00BF     		.align	2
ARM GAS  C:\Users\milek\AppData\Local\Temp\ccMSPWBt.s 			page 53


 1248              	.L102:
 1249 0014 00000000 		.word	.LANCHOR1
 1250 0018 00000000 		.word	.LANCHOR2
 1251              		.cfi_endproc
 1252              	.LFE162:
 1254              		.section	.text.BSP_LCD_GetBackColor,"ax",%progbits
 1255              		.align	1
 1256              		.global	BSP_LCD_GetBackColor
 1257              		.syntax unified
 1258              		.thumb
 1259              		.thumb_func
 1260              		.fpu fpv5-sp-d16
 1262              	BSP_LCD_GetBackColor:
 1263              	.LFB163:
 579:Drivers/BSP/STM32746G-Discovery/stm32746g_discovery_lcd.c ****   return DrawProp[ActiveLayer].BackColor;
 1264              		.loc 1 579 0
 1265              		.cfi_startproc
 1266              		@ args = 0, pretend = 0, frame = 0
 1267              		@ frame_needed = 0, uses_anonymous_args = 0
 1268              		@ link register save eliminated.
 580:Drivers/BSP/STM32746G-Discovery/stm32746g_discovery_lcd.c **** }
 1269              		.loc 1 580 0
 1270 0000 044B     		ldr	r3, .L105
 1271 0002 1B68     		ldr	r3, [r3]
 1272 0004 03EB4303 		add	r3, r3, r3, lsl #1
 1273 0008 9A00     		lsls	r2, r3, #2
 1274 000a 034B     		ldr	r3, .L105+4
 1275 000c 1344     		add	r3, r3, r2
 581:Drivers/BSP/STM32746G-Discovery/stm32746g_discovery_lcd.c **** 
 1276              		.loc 1 581 0
 1277 000e 5868     		ldr	r0, [r3, #4]
 1278 0010 7047     		bx	lr
 1279              	.L106:
 1280 0012 00BF     		.align	2
 1281              	.L105:
 1282 0014 00000000 		.word	.LANCHOR1
 1283 0018 00000000 		.word	.LANCHOR2
 1284              		.cfi_endproc
 1285              	.LFE163:
 1287              		.section	.text.BSP_LCD_SetFont,"ax",%progbits
 1288              		.align	1
 1289              		.global	BSP_LCD_SetFont
 1290              		.syntax unified
 1291              		.thumb
 1292              		.thumb_func
 1293              		.fpu fpv5-sp-d16
 1295              	BSP_LCD_SetFont:
 1296              	.LFB164:
 589:Drivers/BSP/STM32746G-Discovery/stm32746g_discovery_lcd.c ****   DrawProp[ActiveLayer].pFont = fonts;
 1297              		.loc 1 589 0
 1298              		.cfi_startproc
 1299              		@ args = 0, pretend = 0, frame = 0
 1300              		@ frame_needed = 0, uses_anonymous_args = 0
 1301              		@ link register save eliminated.
 1302              	.LVL95:
 590:Drivers/BSP/STM32746G-Discovery/stm32746g_discovery_lcd.c **** }
 1303              		.loc 1 590 0
ARM GAS  C:\Users\milek\AppData\Local\Temp\ccMSPWBt.s 			page 54


 1304 0000 044B     		ldr	r3, .L108
 1305 0002 1B68     		ldr	r3, [r3]
 1306 0004 03EB4303 		add	r3, r3, r3, lsl #1
 1307 0008 9A00     		lsls	r2, r3, #2
 1308 000a 034B     		ldr	r3, .L108+4
 1309 000c 1344     		add	r3, r3, r2
 1310 000e 9860     		str	r0, [r3, #8]
 591:Drivers/BSP/STM32746G-Discovery/stm32746g_discovery_lcd.c **** 
 1311              		.loc 1 591 0
 1312 0010 7047     		bx	lr
 1313              	.L109:
 1314 0012 00BF     		.align	2
 1315              	.L108:
 1316 0014 00000000 		.word	.LANCHOR1
 1317 0018 00000000 		.word	.LANCHOR2
 1318              		.cfi_endproc
 1319              	.LFE164:
 1321              		.section	.text.BSP_LCD_GetFont,"ax",%progbits
 1322              		.align	1
 1323              		.global	BSP_LCD_GetFont
 1324              		.syntax unified
 1325              		.thumb
 1326              		.thumb_func
 1327              		.fpu fpv5-sp-d16
 1329              	BSP_LCD_GetFont:
 1330              	.LFB165:
 598:Drivers/BSP/STM32746G-Discovery/stm32746g_discovery_lcd.c ****   return DrawProp[ActiveLayer].pFont;
 1331              		.loc 1 598 0
 1332              		.cfi_startproc
 1333              		@ args = 0, pretend = 0, frame = 0
 1334              		@ frame_needed = 0, uses_anonymous_args = 0
 1335              		@ link register save eliminated.
 599:Drivers/BSP/STM32746G-Discovery/stm32746g_discovery_lcd.c **** }
 1336              		.loc 1 599 0
 1337 0000 044B     		ldr	r3, .L111
 1338 0002 1B68     		ldr	r3, [r3]
 1339 0004 03EB4303 		add	r3, r3, r3, lsl #1
 1340 0008 9A00     		lsls	r2, r3, #2
 1341 000a 034B     		ldr	r3, .L111+4
 1342 000c 1344     		add	r3, r3, r2
 600:Drivers/BSP/STM32746G-Discovery/stm32746g_discovery_lcd.c **** 
 1343              		.loc 1 600 0
 1344 000e 9868     		ldr	r0, [r3, #8]
 1345 0010 7047     		bx	lr
 1346              	.L112:
 1347 0012 00BF     		.align	2
 1348              	.L111:
 1349 0014 00000000 		.word	.LANCHOR1
 1350 0018 00000000 		.word	.LANCHOR2
 1351              		.cfi_endproc
 1352              	.LFE165:
 1354              		.section	.text.BSP_LCD_ReadPixel,"ax",%progbits
 1355              		.align	1
 1356              		.global	BSP_LCD_ReadPixel
 1357              		.syntax unified
 1358              		.thumb
 1359              		.thumb_func
ARM GAS  C:\Users\milek\AppData\Local\Temp\ccMSPWBt.s 			page 55


 1360              		.fpu fpv5-sp-d16
 1362              	BSP_LCD_ReadPixel:
 1363              	.LFB166:
 609:Drivers/BSP/STM32746G-Discovery/stm32746g_discovery_lcd.c ****   uint32_t ret = 0;
 1364              		.loc 1 609 0
 1365              		.cfi_startproc
 1366              		@ args = 0, pretend = 0, frame = 0
 1367              		@ frame_needed = 0, uses_anonymous_args = 0
 1368              	.LVL96:
 1369 0000 70B5     		push	{r4, r5, r6, lr}
 1370              	.LCFI25:
 1371              		.cfi_def_cfa_offset 16
 1372              		.cfi_offset 4, -16
 1373              		.cfi_offset 5, -12
 1374              		.cfi_offset 6, -8
 1375              		.cfi_offset 14, -4
 1376 0002 0446     		mov	r4, r0
 1377 0004 0D46     		mov	r5, r1
 1378              	.LVL97:
 612:Drivers/BSP/STM32746G-Discovery/stm32746g_discovery_lcd.c ****   {
 1379              		.loc 1 612 0
 1380 0006 214B     		ldr	r3, .L122
 1381 0008 1A68     		ldr	r2, [r3]
 1382 000a 2149     		ldr	r1, .L122+4
 1383              	.LVL98:
 1384 000c 3423     		movs	r3, #52
 1385 000e 03FB0213 		mla	r3, r3, r2, r1
 1386 0012 9B6C     		ldr	r3, [r3, #72]
 1387 0014 A3B1     		cbz	r3, .L120
 617:Drivers/BSP/STM32746G-Discovery/stm32746g_discovery_lcd.c ****   {
 1388              		.loc 1 617 0
 1389 0016 012B     		cmp	r3, #1
 1390 0018 1DD0     		beq	.L121
 622:Drivers/BSP/STM32746G-Discovery/stm32746g_discovery_lcd.c ****           (hLtdcHandler.LayerCfg[ActiveLayer].PixelFormat == LTDC_PIXEL_FORMAT_ARGB4444) || \
 1391              		.loc 1 622 0
 1392 001a 042B     		cmp	r3, #4
 1393 001c 18BF     		it	ne
 1394 001e 022B     		cmpne	r3, #2
 1395 0020 27D0     		beq	.L117
 623:Drivers/BSP/STM32746G-Discovery/stm32746g_discovery_lcd.c ****           (hLtdcHandler.LayerCfg[ActiveLayer].PixelFormat == LTDC_PIXEL_FORMAT_AL88))  
 1396              		.loc 1 623 0
 1397 0022 072B     		cmp	r3, #7
 1398 0024 25D0     		beq	.L117
 632:Drivers/BSP/STM32746G-Discovery/stm32746g_discovery_lcd.c ****   }
 1399              		.loc 1 632 0
 1400 0026 1A4B     		ldr	r3, .L122+4
 1401 0028 3421     		movs	r1, #52
 1402 002a 01FB0232 		mla	r2, r1, r2, r3
 1403 002e D66D     		ldr	r6, [r2, #92]
 1404 0030 FFF7FEFF 		bl	BSP_LCD_GetXSize
 1405              	.LVL99:
 1406 0034 00FB0540 		mla	r0, r0, r5, r4
 1407 0038 16F81000 		ldrb	r0, [r6, r0, lsl #1]	@ zero_extendqisi2
 1408 003c C0B2     		uxtb	r0, r0
 1409              	.LVL100:
 635:Drivers/BSP/STM32746G-Discovery/stm32746g_discovery_lcd.c **** }
 1410              		.loc 1 635 0
ARM GAS  C:\Users\milek\AppData\Local\Temp\ccMSPWBt.s 			page 56


 1411 003e 09E0     		b	.L113
 1412              	.LVL101:
 1413              	.L120:
 615:Drivers/BSP/STM32746G-Discovery/stm32746g_discovery_lcd.c ****   }
 1414              		.loc 1 615 0
 1415 0040 3423     		movs	r3, #52
 1416 0042 03FB0212 		mla	r2, r3, r2, r1
 1417 0046 D66D     		ldr	r6, [r2, #92]
 1418 0048 FFF7FEFF 		bl	BSP_LCD_GetXSize
 1419              	.LVL102:
 1420 004c 00FB0540 		mla	r0, r0, r5, r4
 1421 0050 56F82000 		ldr	r0, [r6, r0, lsl #2]
 1422              	.LVL103:
 1423              	.L113:
 636:Drivers/BSP/STM32746G-Discovery/stm32746g_discovery_lcd.c **** 
 1424              		.loc 1 636 0
 1425 0054 70BD     		pop	{r4, r5, r6, pc}
 1426              	.LVL104:
 1427              	.L121:
 620:Drivers/BSP/STM32746G-Discovery/stm32746g_discovery_lcd.c ****   }
 1428              		.loc 1 620 0
 1429 0056 0E49     		ldr	r1, .L122+4
 1430 0058 3423     		movs	r3, #52
 1431 005a 03FB0212 		mla	r2, r3, r2, r1
 1432 005e D66D     		ldr	r6, [r2, #92]
 1433 0060 FFF7FEFF 		bl	BSP_LCD_GetXSize
 1434              	.LVL105:
 1435 0064 00FB0540 		mla	r0, r0, r5, r4
 1436 0068 56F82000 		ldr	r0, [r6, r0, lsl #2]
 1437 006c 20F07F40 		bic	r0, r0, #-16777216
 1438              	.LVL106:
 1439 0070 F0E7     		b	.L113
 1440              	.LVL107:
 1441              	.L117:
 627:Drivers/BSP/STM32746G-Discovery/stm32746g_discovery_lcd.c ****   }
 1442              		.loc 1 627 0
 1443 0072 0749     		ldr	r1, .L122+4
 1444 0074 3423     		movs	r3, #52
 1445 0076 03FB0212 		mla	r2, r3, r2, r1
 1446 007a D66D     		ldr	r6, [r2, #92]
 1447 007c FFF7FEFF 		bl	BSP_LCD_GetXSize
 1448              	.LVL108:
 1449 0080 00FB0540 		mla	r0, r0, r5, r4
 1450 0084 36F81000 		ldrh	r0, [r6, r0, lsl #1]
 1451 0088 80B2     		uxth	r0, r0
 1452              	.LVL109:
 1453 008a E3E7     		b	.L113
 1454              	.L123:
 1455              		.align	2
 1456              	.L122:
 1457 008c 00000000 		.word	.LANCHOR1
 1458 0090 00000000 		.word	hLtdcHandler
 1459              		.cfi_endproc
 1460              	.LFE166:
 1462              		.section	.text.BSP_LCD_Clear,"ax",%progbits
 1463              		.align	1
 1464              		.global	BSP_LCD_Clear
ARM GAS  C:\Users\milek\AppData\Local\Temp\ccMSPWBt.s 			page 57


 1465              		.syntax unified
 1466              		.thumb
 1467              		.thumb_func
 1468              		.fpu fpv5-sp-d16
 1470              	BSP_LCD_Clear:
 1471              	.LFB167:
 644:Drivers/BSP/STM32746G-Discovery/stm32746g_discovery_lcd.c ****   /* Clear the LCD */ 
 1472              		.loc 1 644 0
 1473              		.cfi_startproc
 1474              		@ args = 0, pretend = 0, frame = 0
 1475              		@ frame_needed = 0, uses_anonymous_args = 0
 1476              	.LVL110:
 1477 0000 F0B5     		push	{r4, r5, r6, r7, lr}
 1478              	.LCFI26:
 1479              		.cfi_def_cfa_offset 20
 1480              		.cfi_offset 4, -20
 1481              		.cfi_offset 5, -16
 1482              		.cfi_offset 6, -12
 1483              		.cfi_offset 7, -8
 1484              		.cfi_offset 14, -4
 1485 0002 83B0     		sub	sp, sp, #12
 1486              	.LCFI27:
 1487              		.cfi_def_cfa_offset 32
 1488 0004 0746     		mov	r7, r0
 646:Drivers/BSP/STM32746G-Discovery/stm32746g_discovery_lcd.c **** }
 1489              		.loc 1 646 0
 1490 0006 0B4B     		ldr	r3, .L126
 1491 0008 1C68     		ldr	r4, [r3]
 1492 000a 0B4A     		ldr	r2, .L126+4
 1493 000c 3423     		movs	r3, #52
 1494 000e 03FB0423 		mla	r3, r3, r4, r2
 1495 0012 DD6D     		ldr	r5, [r3, #92]
 1496 0014 FFF7FEFF 		bl	BSP_LCD_GetXSize
 1497              	.LVL111:
 1498 0018 0646     		mov	r6, r0
 1499 001a FFF7FEFF 		bl	BSP_LCD_GetYSize
 1500              	.LVL112:
 1501 001e 0197     		str	r7, [sp, #4]
 1502 0020 0023     		movs	r3, #0
 1503 0022 0093     		str	r3, [sp]
 1504 0024 0346     		mov	r3, r0
 1505 0026 3246     		mov	r2, r6
 1506 0028 2946     		mov	r1, r5
 1507 002a 2046     		mov	r0, r4
 1508 002c FFF7FEFF 		bl	LL_FillBuffer
 1509              	.LVL113:
 647:Drivers/BSP/STM32746G-Discovery/stm32746g_discovery_lcd.c **** 
 1510              		.loc 1 647 0
 1511 0030 03B0     		add	sp, sp, #12
 1512              	.LCFI28:
 1513              		.cfi_def_cfa_offset 20
 1514              		@ sp needed
 1515 0032 F0BD     		pop	{r4, r5, r6, r7, pc}
 1516              	.LVL114:
 1517              	.L127:
 1518              		.align	2
 1519              	.L126:
ARM GAS  C:\Users\milek\AppData\Local\Temp\ccMSPWBt.s 			page 58


 1520 0034 00000000 		.word	.LANCHOR1
 1521 0038 00000000 		.word	hLtdcHandler
 1522              		.cfi_endproc
 1523              	.LFE167:
 1525              		.section	.text.BSP_LCD_DrawHLine,"ax",%progbits
 1526              		.align	1
 1527              		.global	BSP_LCD_DrawHLine
 1528              		.syntax unified
 1529              		.thumb
 1530              		.thumb_func
 1531              		.fpu fpv5-sp-d16
 1533              	BSP_LCD_DrawHLine:
 1534              	.LFB172:
 766:Drivers/BSP/STM32746G-Discovery/stm32746g_discovery_lcd.c ****   uint32_t  Xaddress = 0;
 1535              		.loc 1 766 0
 1536              		.cfi_startproc
 1537              		@ args = 0, pretend = 0, frame = 0
 1538              		@ frame_needed = 0, uses_anonymous_args = 0
 1539              	.LVL115:
 1540 0000 2DE9F041 		push	{r4, r5, r6, r7, r8, lr}
 1541              	.LCFI29:
 1542              		.cfi_def_cfa_offset 24
 1543              		.cfi_offset 4, -24
 1544              		.cfi_offset 5, -20
 1545              		.cfi_offset 6, -16
 1546              		.cfi_offset 7, -12
 1547              		.cfi_offset 8, -8
 1548              		.cfi_offset 14, -4
 1549 0004 82B0     		sub	sp, sp, #8
 1550              	.LCFI30:
 1551              		.cfi_def_cfa_offset 32
 1552 0006 8046     		mov	r8, r0
 1553 0008 0E46     		mov	r6, r1
 1554 000a 1746     		mov	r7, r2
 1555              	.LVL116:
 770:Drivers/BSP/STM32746G-Discovery/stm32746g_discovery_lcd.c ****   { /* RGB565 format */
 1556              		.loc 1 770 0
 1557 000c 174B     		ldr	r3, .L133
 1558 000e 1C68     		ldr	r4, [r3]
 1559 0010 174A     		ldr	r2, .L133+4
 1560              	.LVL117:
 1561 0012 3423     		movs	r3, #52
 1562 0014 03FB0423 		mla	r3, r3, r4, r2
 1563 0018 9B6C     		ldr	r3, [r3, #72]
 1564 001a 022B     		cmp	r3, #2
 1565 001c 1AD0     		beq	.L132
 776:Drivers/BSP/STM32746G-Discovery/stm32746g_discovery_lcd.c ****   }
 1566              		.loc 1 776 0
 1567 001e 144A     		ldr	r2, .L133+4
 1568 0020 3423     		movs	r3, #52
 1569 0022 03FB0423 		mla	r3, r3, r4, r2
 1570 0026 DD6D     		ldr	r5, [r3, #92]
 1571 0028 FFF7FEFF 		bl	BSP_LCD_GetXSize
 1572              	.LVL118:
 1573 002c 00FB0680 		mla	r0, r0, r6, r8
 1574 0030 05EB8001 		add	r1, r5, r0, lsl #2
 1575              	.LVL119:
ARM GAS  C:\Users\milek\AppData\Local\Temp\ccMSPWBt.s 			page 59


 1576              	.L130:
 780:Drivers/BSP/STM32746G-Discovery/stm32746g_discovery_lcd.c **** }
 1577              		.loc 1 780 0
 1578 0034 04EB4402 		add	r2, r4, r4, lsl #1
 1579 0038 9300     		lsls	r3, r2, #2
 1580 003a 0E4A     		ldr	r2, .L133+8
 1581 003c D358     		ldr	r3, [r2, r3]
 1582 003e 0193     		str	r3, [sp, #4]
 1583 0040 0023     		movs	r3, #0
 1584 0042 0093     		str	r3, [sp]
 1585 0044 0123     		movs	r3, #1
 1586 0046 3A46     		mov	r2, r7
 1587 0048 2046     		mov	r0, r4
 1588 004a FFF7FEFF 		bl	LL_FillBuffer
 1589              	.LVL120:
 781:Drivers/BSP/STM32746G-Discovery/stm32746g_discovery_lcd.c **** 
 1590              		.loc 1 781 0
 1591 004e 02B0     		add	sp, sp, #8
 1592              	.LCFI31:
 1593              		.cfi_remember_state
 1594              		.cfi_def_cfa_offset 24
 1595              		@ sp needed
 1596 0050 BDE8F081 		pop	{r4, r5, r6, r7, r8, pc}
 1597              	.LVL121:
 1598              	.L132:
 1599              	.LCFI32:
 1600              		.cfi_restore_state
 772:Drivers/BSP/STM32746G-Discovery/stm32746g_discovery_lcd.c ****   }
 1601              		.loc 1 772 0
 1602 0054 3423     		movs	r3, #52
 1603 0056 03FB0423 		mla	r3, r3, r4, r2
 1604 005a DD6D     		ldr	r5, [r3, #92]
 1605 005c FFF7FEFF 		bl	BSP_LCD_GetXSize
 1606              	.LVL122:
 1607 0060 00FB0680 		mla	r0, r0, r6, r8
 1608 0064 05EB4001 		add	r1, r5, r0, lsl #1
 1609              	.LVL123:
 1610 0068 E4E7     		b	.L130
 1611              	.L134:
 1612 006a 00BF     		.align	2
 1613              	.L133:
 1614 006c 00000000 		.word	.LANCHOR1
 1615 0070 00000000 		.word	hLtdcHandler
 1616 0074 00000000 		.word	.LANCHOR2
 1617              		.cfi_endproc
 1618              	.LFE172:
 1620              		.section	.text.BSP_LCD_DrawVLine,"ax",%progbits
 1621              		.align	1
 1622              		.global	BSP_LCD_DrawVLine
 1623              		.syntax unified
 1624              		.thumb
 1625              		.thumb_func
 1626              		.fpu fpv5-sp-d16
 1628              	BSP_LCD_DrawVLine:
 1629              	.LFB173:
 791:Drivers/BSP/STM32746G-Discovery/stm32746g_discovery_lcd.c ****   uint32_t  Xaddress = 0;
 1630              		.loc 1 791 0
ARM GAS  C:\Users\milek\AppData\Local\Temp\ccMSPWBt.s 			page 60


 1631              		.cfi_startproc
 1632              		@ args = 0, pretend = 0, frame = 0
 1633              		@ frame_needed = 0, uses_anonymous_args = 0
 1634              	.LVL124:
 1635 0000 2DE9B043 		push	{r4, r5, r7, r8, r9, lr}
 1636              	.LCFI33:
 1637              		.cfi_def_cfa_offset 24
 1638              		.cfi_offset 4, -24
 1639              		.cfi_offset 5, -20
 1640              		.cfi_offset 7, -16
 1641              		.cfi_offset 8, -12
 1642              		.cfi_offset 9, -8
 1643              		.cfi_offset 14, -4
 1644 0004 82B0     		sub	sp, sp, #8
 1645              	.LCFI34:
 1646              		.cfi_def_cfa_offset 32
 1647 0006 8146     		mov	r9, r0
 1648 0008 0F46     		mov	r7, r1
 1649 000a 9046     		mov	r8, r2
 1650              	.LVL125:
 795:Drivers/BSP/STM32746G-Discovery/stm32746g_discovery_lcd.c ****   { /* RGB565 format */
 1651              		.loc 1 795 0
 1652 000c 184B     		ldr	r3, .L140
 1653 000e 1C68     		ldr	r4, [r3]
 1654 0010 184A     		ldr	r2, .L140+4
 1655              	.LVL126:
 1656 0012 3423     		movs	r3, #52
 1657 0014 03FB0423 		mla	r3, r3, r4, r2
 1658 0018 9B6C     		ldr	r3, [r3, #72]
 1659 001a 022B     		cmp	r3, #2
 1660 001c 1DD0     		beq	.L139
 801:Drivers/BSP/STM32746G-Discovery/stm32746g_discovery_lcd.c ****   }
 1661              		.loc 1 801 0
 1662 001e 154A     		ldr	r2, .L140+4
 1663 0020 3423     		movs	r3, #52
 1664 0022 03FB0423 		mla	r3, r3, r4, r2
 1665 0026 DD6D     		ldr	r5, [r3, #92]
 1666 0028 FFF7FEFF 		bl	BSP_LCD_GetXSize
 1667              	.LVL127:
 1668 002c 00FB0790 		mla	r0, r0, r7, r9
 1669 0030 05EB8005 		add	r5, r5, r0, lsl #2
 1670              	.LVL128:
 1671              	.L137:
 805:Drivers/BSP/STM32746G-Discovery/stm32746g_discovery_lcd.c **** }
 1672              		.loc 1 805 0
 1673 0034 FFF7FEFF 		bl	BSP_LCD_GetXSize
 1674              	.LVL129:
 1675 0038 04EB4402 		add	r2, r4, r4, lsl #1
 1676 003c 9300     		lsls	r3, r2, #2
 1677 003e 0E4A     		ldr	r2, .L140+8
 1678 0040 D358     		ldr	r3, [r2, r3]
 1679 0042 0193     		str	r3, [sp, #4]
 1680 0044 0138     		subs	r0, r0, #1
 1681 0046 0090     		str	r0, [sp]
 1682 0048 4346     		mov	r3, r8
 1683 004a 0122     		movs	r2, #1
 1684 004c 2946     		mov	r1, r5
ARM GAS  C:\Users\milek\AppData\Local\Temp\ccMSPWBt.s 			page 61


 1685 004e 2046     		mov	r0, r4
 1686 0050 FFF7FEFF 		bl	LL_FillBuffer
 1687              	.LVL130:
 806:Drivers/BSP/STM32746G-Discovery/stm32746g_discovery_lcd.c **** 
 1688              		.loc 1 806 0
 1689 0054 02B0     		add	sp, sp, #8
 1690              	.LCFI35:
 1691              		.cfi_remember_state
 1692              		.cfi_def_cfa_offset 24
 1693              		@ sp needed
 1694 0056 BDE8B083 		pop	{r4, r5, r7, r8, r9, pc}
 1695              	.LVL131:
 1696              	.L139:
 1697              	.LCFI36:
 1698              		.cfi_restore_state
 797:Drivers/BSP/STM32746G-Discovery/stm32746g_discovery_lcd.c ****   }
 1699              		.loc 1 797 0
 1700 005a 3423     		movs	r3, #52
 1701 005c 03FB0423 		mla	r3, r3, r4, r2
 1702 0060 DD6D     		ldr	r5, [r3, #92]
 1703 0062 FFF7FEFF 		bl	BSP_LCD_GetXSize
 1704              	.LVL132:
 1705 0066 00FB0790 		mla	r0, r0, r7, r9
 1706 006a 05EB4005 		add	r5, r5, r0, lsl #1
 1707              	.LVL133:
 1708 006e E1E7     		b	.L137
 1709              	.L141:
 1710              		.align	2
 1711              	.L140:
 1712 0070 00000000 		.word	.LANCHOR1
 1713 0074 00000000 		.word	hLtdcHandler
 1714 0078 00000000 		.word	.LANCHOR2
 1715              		.cfi_endproc
 1716              	.LFE173:
 1718              		.section	.text.BSP_LCD_DrawRect,"ax",%progbits
 1719              		.align	1
 1720              		.global	BSP_LCD_DrawRect
 1721              		.syntax unified
 1722              		.thumb
 1723              		.thumb_func
 1724              		.fpu fpv5-sp-d16
 1726              	BSP_LCD_DrawRect:
 1727              	.LFB175:
 892:Drivers/BSP/STM32746G-Discovery/stm32746g_discovery_lcd.c ****   /* Draw horizontal lines */
 1728              		.loc 1 892 0
 1729              		.cfi_startproc
 1730              		@ args = 0, pretend = 0, frame = 0
 1731              		@ frame_needed = 0, uses_anonymous_args = 0
 1732              	.LVL134:
 1733 0000 F8B5     		push	{r3, r4, r5, r6, r7, lr}
 1734              	.LCFI37:
 1735              		.cfi_def_cfa_offset 24
 1736              		.cfi_offset 3, -24
 1737              		.cfi_offset 4, -20
 1738              		.cfi_offset 5, -16
 1739              		.cfi_offset 6, -12
 1740              		.cfi_offset 7, -8
ARM GAS  C:\Users\milek\AppData\Local\Temp\ccMSPWBt.s 			page 62


 1741              		.cfi_offset 14, -4
 1742 0002 0446     		mov	r4, r0
 1743 0004 0D46     		mov	r5, r1
 1744 0006 1746     		mov	r7, r2
 1745 0008 1E46     		mov	r6, r3
 894:Drivers/BSP/STM32746G-Discovery/stm32746g_discovery_lcd.c ****   BSP_LCD_DrawHLine(Xpos, (Ypos+ Height), Width);
 1746              		.loc 1 894 0
 1747 000a FFF7FEFF 		bl	BSP_LCD_DrawHLine
 1748              	.LVL135:
 895:Drivers/BSP/STM32746G-Discovery/stm32746g_discovery_lcd.c ****   
 1749              		.loc 1 895 0
 1750 000e A919     		adds	r1, r5, r6
 1751 0010 3A46     		mov	r2, r7
 1752 0012 89B2     		uxth	r1, r1
 1753 0014 2046     		mov	r0, r4
 1754 0016 FFF7FEFF 		bl	BSP_LCD_DrawHLine
 1755              	.LVL136:
 898:Drivers/BSP/STM32746G-Discovery/stm32746g_discovery_lcd.c ****   BSP_LCD_DrawVLine((Xpos + Width), Ypos, Height);
 1756              		.loc 1 898 0
 1757 001a 3246     		mov	r2, r6
 1758 001c 2946     		mov	r1, r5
 1759 001e 2046     		mov	r0, r4
 1760 0020 FFF7FEFF 		bl	BSP_LCD_DrawVLine
 1761              	.LVL137:
 899:Drivers/BSP/STM32746G-Discovery/stm32746g_discovery_lcd.c **** }
 1762              		.loc 1 899 0
 1763 0024 E019     		adds	r0, r4, r7
 1764 0026 3246     		mov	r2, r6
 1765 0028 2946     		mov	r1, r5
 1766 002a 80B2     		uxth	r0, r0
 1767 002c FFF7FEFF 		bl	BSP_LCD_DrawVLine
 1768              	.LVL138:
 900:Drivers/BSP/STM32746G-Discovery/stm32746g_discovery_lcd.c **** 
 1769              		.loc 1 900 0
 1770 0030 F8BD     		pop	{r3, r4, r5, r6, r7, pc}
 1771              		.cfi_endproc
 1772              	.LFE175:
 1774              		.section	.text.BSP_LCD_DrawPixel,"ax",%progbits
 1775              		.align	1
 1776              		.global	BSP_LCD_DrawPixel
 1777              		.syntax unified
 1778              		.thumb
 1779              		.thumb_func
 1780              		.fpu fpv5-sp-d16
 1782              	BSP_LCD_DrawPixel:
 1783              	.LFB179:
1018:Drivers/BSP/STM32746G-Discovery/stm32746g_discovery_lcd.c ****   /* Write data value to all SDRAM memory */
 1784              		.loc 1 1018 0
 1785              		.cfi_startproc
 1786              		@ args = 0, pretend = 0, frame = 0
 1787              		@ frame_needed = 0, uses_anonymous_args = 0
 1788              	.LVL139:
 1789 0000 F8B5     		push	{r3, r4, r5, r6, r7, lr}
 1790              	.LCFI38:
 1791              		.cfi_def_cfa_offset 24
 1792              		.cfi_offset 3, -24
 1793              		.cfi_offset 4, -20
ARM GAS  C:\Users\milek\AppData\Local\Temp\ccMSPWBt.s 			page 63


 1794              		.cfi_offset 5, -16
 1795              		.cfi_offset 6, -12
 1796              		.cfi_offset 7, -8
 1797              		.cfi_offset 14, -4
 1798 0002 0646     		mov	r6, r0
 1799 0004 0C46     		mov	r4, r1
 1800 0006 1546     		mov	r5, r2
1020:Drivers/BSP/STM32746G-Discovery/stm32746g_discovery_lcd.c ****   { /* RGB565 format */
 1801              		.loc 1 1020 0
 1802 0008 104B     		ldr	r3, .L149
 1803 000a 1B68     		ldr	r3, [r3]
 1804 000c 1049     		ldr	r1, .L149+4
 1805              	.LVL140:
 1806 000e 3422     		movs	r2, #52
 1807              	.LVL141:
 1808 0010 02FB0312 		mla	r2, r2, r3, r1
 1809 0014 926C     		ldr	r2, [r2, #72]
 1810 0016 022A     		cmp	r2, #2
 1811 0018 0BD0     		beq	.L148
1026:Drivers/BSP/STM32746G-Discovery/stm32746g_discovery_lcd.c ****   }
 1812              		.loc 1 1026 0
 1813 001a 0D4A     		ldr	r2, .L149+4
 1814 001c 3421     		movs	r1, #52
 1815 001e 01FB0323 		mla	r3, r1, r3, r2
 1816 0022 DF6D     		ldr	r7, [r3, #92]
 1817 0024 FFF7FEFF 		bl	BSP_LCD_GetXSize
 1818              	.LVL142:
 1819 0028 00FB0460 		mla	r0, r0, r4, r6
 1820 002c 47F82050 		str	r5, [r7, r0, lsl #2]
 1821              	.LVL143:
 1822              	.L144:
1028:Drivers/BSP/STM32746G-Discovery/stm32746g_discovery_lcd.c **** 
 1823              		.loc 1 1028 0
 1824 0030 F8BD     		pop	{r3, r4, r5, r6, r7, pc}
 1825              	.LVL144:
 1826              	.L148:
1022:Drivers/BSP/STM32746G-Discovery/stm32746g_discovery_lcd.c ****   }
 1827              		.loc 1 1022 0
 1828 0032 0A46     		mov	r2, r1
 1829 0034 3421     		movs	r1, #52
 1830 0036 01FB0323 		mla	r3, r1, r3, r2
 1831 003a DF6D     		ldr	r7, [r3, #92]
 1832 003c FFF7FEFF 		bl	BSP_LCD_GetXSize
 1833              	.LVL145:
 1834 0040 00FB0460 		mla	r0, r0, r4, r6
 1835 0044 ADB2     		uxth	r5, r5
 1836              	.LVL146:
 1837 0046 27F81050 		strh	r5, [r7, r0, lsl #1]	@ movhi
 1838 004a F1E7     		b	.L144
 1839              	.L150:
 1840              		.align	2
 1841              	.L149:
 1842 004c 00000000 		.word	.LANCHOR1
 1843 0050 00000000 		.word	hLtdcHandler
 1844              		.cfi_endproc
 1845              	.LFE179:
 1847              		.section	.text.DrawChar,"ax",%progbits
ARM GAS  C:\Users\milek\AppData\Local\Temp\ccMSPWBt.s 			page 64


 1848              		.align	1
 1849              		.syntax unified
 1850              		.thumb
 1851              		.thumb_func
 1852              		.fpu fpv5-sp-d16
 1854              	DrawChar:
 1855              	.LFB190:
1444:Drivers/BSP/STM32746G-Discovery/stm32746g_discovery_lcd.c ****   uint32_t i = 0, j = 0;
 1856              		.loc 1 1444 0
 1857              		.cfi_startproc
 1858              		@ args = 0, pretend = 0, frame = 8
 1859              		@ frame_needed = 0, uses_anonymous_args = 0
 1860              	.LVL147:
 1861 0000 2DE9F04F 		push	{r4, r5, r6, r7, r8, r9, r10, fp, lr}
 1862              	.LCFI39:
 1863              		.cfi_def_cfa_offset 36
 1864              		.cfi_offset 4, -36
 1865              		.cfi_offset 5, -32
 1866              		.cfi_offset 6, -28
 1867              		.cfi_offset 7, -24
 1868              		.cfi_offset 8, -20
 1869              		.cfi_offset 9, -16
 1870              		.cfi_offset 10, -12
 1871              		.cfi_offset 11, -8
 1872              		.cfi_offset 14, -4
 1873 0004 83B0     		sub	sp, sp, #12
 1874              	.LCFI40:
 1875              		.cfi_def_cfa_offset 48
 1876 0006 8146     		mov	r9, r0
 1877 0008 0F46     		mov	r7, r1
 1878 000a 0092     		str	r2, [sp]
 1879              	.LVL148:
1451:Drivers/BSP/STM32746G-Discovery/stm32746g_discovery_lcd.c ****   width  = DrawProp[ActiveLayer].pFont->Width;
 1880              		.loc 1 1451 0
 1881 000c 344B     		ldr	r3, .L167
 1882 000e 1B68     		ldr	r3, [r3]
 1883 0010 03EB4303 		add	r3, r3, r3, lsl #1
 1884 0014 9A00     		lsls	r2, r3, #2
 1885              	.LVL149:
 1886 0016 334B     		ldr	r3, .L167+4
 1887 0018 1344     		add	r3, r3, r2
 1888 001a 9B68     		ldr	r3, [r3, #8]
 1889 001c DA88     		ldrh	r2, [r3, #6]
 1890 001e 0192     		str	r2, [sp, #4]
 1891              	.LVL150:
1452:Drivers/BSP/STM32746G-Discovery/stm32746g_discovery_lcd.c ****   
 1892              		.loc 1 1452 0
 1893 0020 9D88     		ldrh	r5, [r3, #4]
 1894              	.LVL151:
1454:Drivers/BSP/STM32746G-Discovery/stm32746g_discovery_lcd.c ****   
 1895              		.loc 1 1454 0
 1896 0022 05F1070B 		add	fp, r5, #7
 1897 0026 4FEAEB0B 		asr	fp, fp, #3
 1898 002a 4FEACB08 		lsl	r8, fp, #3
 1899 002e 5FFA88F8 		uxtb	r8, r8
 1900 0032 EBB2     		uxtb	r3, r5
 1901 0034 A8EB0308 		sub	r8, r8, r3
ARM GAS  C:\Users\milek\AppData\Local\Temp\ccMSPWBt.s 			page 65


 1902 0038 5FFA88F8 		uxtb	r8, r8
 1903              	.LVL152:
1456:Drivers/BSP/STM32746G-Discovery/stm32746g_discovery_lcd.c ****   {
 1904              		.loc 1 1456 0
 1905 003c 4FF0000A 		mov	r10, #0
 1906 0040 34E0     		b	.L153
 1907              	.LVL153:
 1908              	.L155:
1464:Drivers/BSP/STM32746G-Discovery/stm32746g_discovery_lcd.c ****       break;
 1909              		.loc 1 1464 0
 1910 0042 009A     		ldr	r2, [sp]
 1911              	.LVL154:
 1912 0044 D65C     		ldrb	r6, [r2, r3]	@ zero_extendqisi2
 1913              	.LVL155:
 1914              	.L157:
1477:Drivers/BSP/STM32746G-Discovery/stm32746g_discovery_lcd.c ****     {
 1915              		.loc 1 1477 0
 1916 0046 0024     		movs	r4, #0
 1917 0048 14E0     		b	.L158
 1918              	.LVL156:
 1919              	.L156:
1468:Drivers/BSP/STM32746G-Discovery/stm32746g_discovery_lcd.c ****       break;
 1920              		.loc 1 1468 0
 1921 004a 0099     		ldr	r1, [sp]
 1922 004c CB5C     		ldrb	r3, [r1, r3]	@ zero_extendqisi2
 1923 004e 5678     		ldrb	r6, [r2, #1]	@ zero_extendqisi2
 1924 0050 46EA0326 		orr	r6, r6, r3, lsl #8
 1925              	.LVL157:
1469:Drivers/BSP/STM32746G-Discovery/stm32746g_discovery_lcd.c ****       
 1926              		.loc 1 1469 0
 1927 0054 F7E7     		b	.L157
 1928              	.LVL158:
 1929              	.L159:
1485:Drivers/BSP/STM32746G-Discovery/stm32746g_discovery_lcd.c ****       } 
 1930              		.loc 1 1485 0
 1931 0056 224B     		ldr	r3, .L167
 1932 0058 1B68     		ldr	r3, [r3]
 1933 005a 03EB4303 		add	r3, r3, r3, lsl #1
 1934 005e 9A00     		lsls	r2, r3, #2
 1935 0060 204B     		ldr	r3, .L167+4
 1936 0062 1344     		add	r3, r3, r2
 1937 0064 09EB0400 		add	r0, r9, r4
 1938 0068 5A68     		ldr	r2, [r3, #4]
 1939 006a 3946     		mov	r1, r7
 1940 006c 80B2     		uxth	r0, r0
 1941 006e FFF7FEFF 		bl	BSP_LCD_DrawPixel
 1942              	.LVL159:
 1943              	.L160:
1477:Drivers/BSP/STM32746G-Discovery/stm32746g_discovery_lcd.c ****     {
 1944              		.loc 1 1477 0 discriminator 2
 1945 0072 0134     		adds	r4, r4, #1
 1946              	.LVL160:
 1947              	.L158:
1477:Drivers/BSP/STM32746G-Discovery/stm32746g_discovery_lcd.c ****     {
 1948              		.loc 1 1477 0 is_stmt 0 discriminator 1
 1949 0074 A542     		cmp	r5, r4
 1950 0076 15D9     		bls	.L165
ARM GAS  C:\Users\milek\AppData\Local\Temp\ccMSPWBt.s 			page 66


1479:Drivers/BSP/STM32746G-Discovery/stm32746g_discovery_lcd.c ****       {
 1951              		.loc 1 1479 0 is_stmt 1
 1952 0078 2B1B     		subs	r3, r5, r4
 1953 007a 4344     		add	r3, r3, r8
 1954 007c 013B     		subs	r3, r3, #1
 1955 007e 0122     		movs	r2, #1
 1956 0080 02FA03F3 		lsl	r3, r2, r3
 1957 0084 3342     		tst	r3, r6
 1958 0086 E6D0     		beq	.L159
1481:Drivers/BSP/STM32746G-Discovery/stm32746g_discovery_lcd.c ****       }
 1959              		.loc 1 1481 0
 1960 0088 154B     		ldr	r3, .L167
 1961 008a 1B68     		ldr	r3, [r3]
 1962 008c 03EB4303 		add	r3, r3, r3, lsl #1
 1963 0090 9A00     		lsls	r2, r3, #2
 1964 0092 09EB0400 		add	r0, r9, r4
 1965 0096 134B     		ldr	r3, .L167+4
 1966 0098 9A58     		ldr	r2, [r3, r2]
 1967 009a 3946     		mov	r1, r7
 1968 009c 80B2     		uxth	r0, r0
 1969 009e FFF7FEFF 		bl	BSP_LCD_DrawPixel
 1970              	.LVL161:
 1971 00a2 E6E7     		b	.L160
 1972              	.L165:
1488:Drivers/BSP/STM32746G-Discovery/stm32746g_discovery_lcd.c ****   }
 1973              		.loc 1 1488 0 discriminator 2
 1974 00a4 0137     		adds	r7, r7, #1
 1975              	.LVL162:
 1976 00a6 BFB2     		uxth	r7, r7
 1977              	.LVL163:
1456:Drivers/BSP/STM32746G-Discovery/stm32746g_discovery_lcd.c ****   {
 1978              		.loc 1 1456 0 discriminator 2
 1979 00a8 0AF1010A 		add	r10, r10, #1
 1980              	.LVL164:
 1981              	.L153:
1456:Drivers/BSP/STM32746G-Discovery/stm32746g_discovery_lcd.c ****   {
 1982              		.loc 1 1456 0 is_stmt 0 discriminator 1
 1983 00ac 019B     		ldr	r3, [sp, #4]
 1984 00ae 5345     		cmp	r3, r10
 1985 00b0 12D9     		bls	.L166
1458:Drivers/BSP/STM32746G-Discovery/stm32746g_discovery_lcd.c ****     
 1986              		.loc 1 1458 0 is_stmt 1
 1987 00b2 0AFB0BF3 		mul	r3, r10, fp
 1988 00b6 009A     		ldr	r2, [sp]
 1989 00b8 1A44     		add	r2, r2, r3
 1990              	.LVL165:
1460:Drivers/BSP/STM32746G-Discovery/stm32746g_discovery_lcd.c ****     {
 1991              		.loc 1 1460 0
 1992 00ba BBF1010F 		cmp	fp, #1
 1993 00be C0D0     		beq	.L155
 1994 00c0 BBF1020F 		cmp	fp, #2
 1995 00c4 C1D0     		beq	.L156
1473:Drivers/BSP/STM32746G-Discovery/stm32746g_discovery_lcd.c ****       break;
 1996              		.loc 1 1473 0
 1997 00c6 0099     		ldr	r1, [sp]
 1998 00c8 CB5C     		ldrb	r3, [r1, r3]	@ zero_extendqisi2
 1999 00ca 5678     		ldrb	r6, [r2, #1]	@ zero_extendqisi2
ARM GAS  C:\Users\milek\AppData\Local\Temp\ccMSPWBt.s 			page 67


 2000 00cc 3602     		lsls	r6, r6, #8
 2001 00ce 46EA0346 		orr	r6, r6, r3, lsl #16
 2002 00d2 9378     		ldrb	r3, [r2, #2]	@ zero_extendqisi2
 2003 00d4 1E43     		orrs	r6, r6, r3
 2004              	.LVL166:
1474:Drivers/BSP/STM32746G-Discovery/stm32746g_discovery_lcd.c ****     } 
 2005              		.loc 1 1474 0
 2006 00d6 B6E7     		b	.L157
 2007              	.LVL167:
 2008              	.L166:
1490:Drivers/BSP/STM32746G-Discovery/stm32746g_discovery_lcd.c **** 
 2009              		.loc 1 1490 0
 2010 00d8 03B0     		add	sp, sp, #12
 2011              	.LCFI41:
 2012              		.cfi_def_cfa_offset 36
 2013              	.LVL168:
 2014              		@ sp needed
 2015 00da BDE8F08F 		pop	{r4, r5, r6, r7, r8, r9, r10, fp, pc}
 2016              	.LVL169:
 2017              	.L168:
 2018 00de 00BF     		.align	2
 2019              	.L167:
 2020 00e0 00000000 		.word	.LANCHOR1
 2021 00e4 00000000 		.word	.LANCHOR2
 2022              		.cfi_endproc
 2023              	.LFE190:
 2025              		.section	.text.BSP_LCD_DisplayChar,"ax",%progbits
 2026              		.align	1
 2027              		.global	BSP_LCD_DisplayChar
 2028              		.syntax unified
 2029              		.thumb
 2030              		.thumb_func
 2031              		.fpu fpv5-sp-d16
 2033              	BSP_LCD_DisplayChar:
 2034              	.LFB169:
 675:Drivers/BSP/STM32746G-Discovery/stm32746g_discovery_lcd.c ****   DrawChar(Xpos, Ypos, &DrawProp[ActiveLayer].pFont->table[(Ascii-' ') *\
 2035              		.loc 1 675 0
 2036              		.cfi_startproc
 2037              		@ args = 0, pretend = 0, frame = 0
 2038              		@ frame_needed = 0, uses_anonymous_args = 0
 2039              	.LVL170:
 2040 0000 38B5     		push	{r3, r4, r5, lr}
 2041              	.LCFI42:
 2042              		.cfi_def_cfa_offset 16
 2043              		.cfi_offset 3, -16
 2044              		.cfi_offset 4, -12
 2045              		.cfi_offset 5, -8
 2046              		.cfi_offset 14, -4
 676:Drivers/BSP/STM32746G-Discovery/stm32746g_discovery_lcd.c ****     DrawProp[ActiveLayer].pFont->Height * ((DrawProp[ActiveLayer].pFont->Width + 7) / 8)]);
 2047              		.loc 1 676 0
 2048 0002 0B4B     		ldr	r3, .L172
 2049 0004 1B68     		ldr	r3, [r3]
 2050 0006 03EB4303 		add	r3, r3, r3, lsl #1
 2051 000a 9C00     		lsls	r4, r3, #2
 2052 000c 094B     		ldr	r3, .L172+4
 2053 000e 2344     		add	r3, r3, r4
 2054 0010 9B68     		ldr	r3, [r3, #8]
ARM GAS  C:\Users\milek\AppData\Local\Temp\ccMSPWBt.s 			page 68


 2055 0012 1C68     		ldr	r4, [r3]
 2056 0014 A2F12005 		sub	r5, r2, #32
 677:Drivers/BSP/STM32746G-Discovery/stm32746g_discovery_lcd.c **** }
 2057              		.loc 1 677 0
 2058 0018 DA88     		ldrh	r2, [r3, #6]
 2059              	.LVL171:
 676:Drivers/BSP/STM32746G-Discovery/stm32746g_discovery_lcd.c ****     DrawProp[ActiveLayer].pFont->Height * ((DrawProp[ActiveLayer].pFont->Width + 7) / 8)]);
 2060              		.loc 1 676 0
 2061 001a 02FB05F2 		mul	r2, r2, r5
 677:Drivers/BSP/STM32746G-Discovery/stm32746g_discovery_lcd.c **** }
 2062              		.loc 1 677 0
 2063 001e 9B88     		ldrh	r3, [r3, #4]
 2064 0020 0733     		adds	r3, r3, #7
 2065 0022 DB10     		asrs	r3, r3, #3
 676:Drivers/BSP/STM32746G-Discovery/stm32746g_discovery_lcd.c ****     DrawProp[ActiveLayer].pFont->Height * ((DrawProp[ActiveLayer].pFont->Width + 7) / 8)]);
 2066              		.loc 1 676 0
 2067 0024 03FB0242 		mla	r2, r3, r2, r4
 2068 0028 FFF7FEFF 		bl	DrawChar
 2069              	.LVL172:
 678:Drivers/BSP/STM32746G-Discovery/stm32746g_discovery_lcd.c **** 
 2070              		.loc 1 678 0
 2071 002c 38BD     		pop	{r3, r4, r5, pc}
 2072              	.L173:
 2073 002e 00BF     		.align	2
 2074              	.L172:
 2075 0030 00000000 		.word	.LANCHOR1
 2076 0034 00000000 		.word	.LANCHOR2
 2077              		.cfi_endproc
 2078              	.LFE169:
 2080              		.section	.text.BSP_LCD_DisplayStringAt,"ax",%progbits
 2081              		.align	1
 2082              		.global	BSP_LCD_DisplayStringAt
 2083              		.syntax unified
 2084              		.thumb
 2085              		.thumb_func
 2086              		.fpu fpv5-sp-d16
 2088              	BSP_LCD_DisplayStringAt:
 2089              	.LFB170:
 693:Drivers/BSP/STM32746G-Discovery/stm32746g_discovery_lcd.c ****   uint16_t ref_column = 1, i = 0;
 2090              		.loc 1 693 0
 2091              		.cfi_startproc
 2092              		@ args = 0, pretend = 0, frame = 0
 2093              		@ frame_needed = 0, uses_anonymous_args = 0
 2094              	.LVL173:
 2095 0000 2DE9F041 		push	{r4, r5, r6, r7, r8, lr}
 2096              	.LCFI43:
 2097              		.cfi_def_cfa_offset 24
 2098              		.cfi_offset 4, -24
 2099              		.cfi_offset 5, -20
 2100              		.cfi_offset 6, -16
 2101              		.cfi_offset 7, -12
 2102              		.cfi_offset 8, -8
 2103              		.cfi_offset 14, -4
 2104 0004 0546     		mov	r5, r0
 2105 0006 8846     		mov	r8, r1
 2106 0008 1646     		mov	r6, r2
 2107 000a 1F46     		mov	r7, r3
ARM GAS  C:\Users\milek\AppData\Local\Temp\ccMSPWBt.s 			page 69


 2108              	.LVL174:
 696:Drivers/BSP/STM32746G-Discovery/stm32746g_discovery_lcd.c ****   
 2109              		.loc 1 696 0
 2110 000c 1346     		mov	r3, r2
 2111              	.LVL175:
 695:Drivers/BSP/STM32746G-Discovery/stm32746g_discovery_lcd.c ****   uint8_t  *ptr = Text;
 2112              		.loc 1 695 0
 2113 000e 0024     		movs	r4, #0
 699:Drivers/BSP/STM32746G-Discovery/stm32746g_discovery_lcd.c ****   
 2114              		.loc 1 699 0
 2115 0010 01E0     		b	.L175
 2116              	.LVL176:
 2117              	.L176:
 699:Drivers/BSP/STM32746G-Discovery/stm32746g_discovery_lcd.c ****   
 2118              		.loc 1 699 0 is_stmt 0 discriminator 2
 2119 0012 0134     		adds	r4, r4, #1
 2120              	.LVL177:
 2121 0014 1346     		mov	r3, r2
 2122              	.LVL178:
 2123              	.L175:
 699:Drivers/BSP/STM32746G-Discovery/stm32746g_discovery_lcd.c ****   
 2124              		.loc 1 699 0 discriminator 1
 2125 0016 5A1C     		adds	r2, r3, #1
 2126              	.LVL179:
 2127 0018 1B78     		ldrb	r3, [r3]	@ zero_extendqisi2
 2128 001a 002B     		cmp	r3, #0
 2129 001c F9D1     		bne	.L176
 702:Drivers/BSP/STM32746G-Discovery/stm32746g_discovery_lcd.c ****   
 2130              		.loc 1 702 0 is_stmt 1
 2131 001e FFF7FEFF 		bl	BSP_LCD_GetXSize
 2132              	.LVL180:
 2133 0022 294B     		ldr	r3, .L187
 2134 0024 1B68     		ldr	r3, [r3]
 2135 0026 03EB4303 		add	r3, r3, r3, lsl #1
 2136 002a 9A00     		lsls	r2, r3, #2
 2137 002c 274B     		ldr	r3, .L187+4
 2138 002e 1344     		add	r3, r3, r2
 2139 0030 9B68     		ldr	r3, [r3, #8]
 2140 0032 9A88     		ldrh	r2, [r3, #4]
 2141 0034 B0FBF2F0 		udiv	r0, r0, r2
 2142              	.LVL181:
 704:Drivers/BSP/STM32746G-Discovery/stm32746g_discovery_lcd.c ****   {
 2143              		.loc 1 704 0
 2144 0038 012F     		cmp	r7, #1
 2145 003a 06D0     		beq	.L178
 2146 003c 022F     		cmp	r7, #2
 2147 003e 0CD0     		beq	.L179
 2148              	.LVL182:
 2149              	.L177:
 729:Drivers/BSP/STM32746G-Discovery/stm32746g_discovery_lcd.c ****   {
 2150              		.loc 1 729 0
 2151 0040 2BB2     		sxth	r3, r5
 2152 0042 002B     		cmp	r3, #0
 2153 0044 3DDD     		ble	.L186
 2154              	.LVL183:
 2155              	.L180:
 731:Drivers/BSP/STM32746G-Discovery/stm32746g_discovery_lcd.c ****   }
ARM GAS  C:\Users\milek\AppData\Local\Temp\ccMSPWBt.s 			page 70


 2156              		.loc 1 731 0
 2157 0046 0024     		movs	r4, #0
 2158 0048 21E0     		b	.L182
 2159              	.LVL184:
 2160              	.L178:
 708:Drivers/BSP/STM32746G-Discovery/stm32746g_discovery_lcd.c ****       break;
 2161              		.loc 1 708 0
 2162 004a 041B     		subs	r4, r0, r4
 2163              	.LVL185:
 2164 004c 04FB02F3 		mul	r3, r4, r2
 2165 0050 C3F34F03 		ubfx	r3, r3, #1, #16
 2166 0054 1D44     		add	r5, r5, r3
 2167 0056 ADB2     		uxth	r5, r5
 2168              	.LVL186:
 709:Drivers/BSP/STM32746G-Discovery/stm32746g_discovery_lcd.c ****     }
 2169              		.loc 1 709 0
 2170 0058 F2E7     		b	.L177
 2171              	.LVL187:
 2172              	.L179:
 718:Drivers/BSP/STM32746G-Discovery/stm32746g_discovery_lcd.c ****       break;
 2173              		.loc 1 718 0
 2174 005a 031B     		subs	r3, r0, r4
 2175 005c 13FB02F3 		smulbb	r3, r3, r2
 2176 0060 9BB2     		uxth	r3, r3
 2177 0062 5D1B     		subs	r5, r3, r5
 2178 0064 ADB2     		uxth	r5, r5
 2179              	.LVL188:
 719:Drivers/BSP/STM32746G-Discovery/stm32746g_discovery_lcd.c ****     }    
 2180              		.loc 1 719 0
 2181 0066 EBE7     		b	.L177
 2182              	.LVL189:
 2183              	.L183:
 738:Drivers/BSP/STM32746G-Discovery/stm32746g_discovery_lcd.c ****     /* Decrement the column position by 16 */
 2184              		.loc 1 738 0
 2185 0068 3A46     		mov	r2, r7
 2186 006a 4146     		mov	r1, r8
 2187 006c 2846     		mov	r0, r5
 2188 006e FFF7FEFF 		bl	BSP_LCD_DisplayChar
 2189              	.LVL190:
 740:Drivers/BSP/STM32746G-Discovery/stm32746g_discovery_lcd.c ****     /* Point on the next character */
 2190              		.loc 1 740 0
 2191 0072 154B     		ldr	r3, .L187
 2192 0074 1B68     		ldr	r3, [r3]
 2193 0076 03EB4303 		add	r3, r3, r3, lsl #1
 2194 007a 9A00     		lsls	r2, r3, #2
 2195 007c 134B     		ldr	r3, .L187+4
 2196 007e 1344     		add	r3, r3, r2
 2197 0080 9B68     		ldr	r3, [r3, #8]
 2198 0082 9B88     		ldrh	r3, [r3, #4]
 2199 0084 1D44     		add	r5, r5, r3
 2200              	.LVL191:
 2201 0086 ADB2     		uxth	r5, r5
 2202              	.LVL192:
 742:Drivers/BSP/STM32746G-Discovery/stm32746g_discovery_lcd.c ****     i++;
 2203              		.loc 1 742 0
 2204 0088 0136     		adds	r6, r6, #1
 2205              	.LVL193:
ARM GAS  C:\Users\milek\AppData\Local\Temp\ccMSPWBt.s 			page 71


 743:Drivers/BSP/STM32746G-Discovery/stm32746g_discovery_lcd.c ****   }  
 2206              		.loc 1 743 0
 2207 008a 0134     		adds	r4, r4, #1
 2208              	.LVL194:
 2209 008c A4B2     		uxth	r4, r4
 2210              	.LVL195:
 2211              	.L182:
 735:Drivers/BSP/STM32746G-Discovery/stm32746g_discovery_lcd.c ****   {
 2212              		.loc 1 735 0
 2213 008e 3778     		ldrb	r7, [r6]	@ zero_extendqisi2
 2214 0090 FFF7FEFF 		bl	BSP_LCD_GetXSize
 2215              	.LVL196:
 2216 0094 0C4B     		ldr	r3, .L187
 2217 0096 1B68     		ldr	r3, [r3]
 2218 0098 03EB4303 		add	r3, r3, r3, lsl #1
 2219 009c 9A00     		lsls	r2, r3, #2
 2220 009e 0B4B     		ldr	r3, .L187+4
 2221 00a0 1344     		add	r3, r3, r2
 2222 00a2 9B68     		ldr	r3, [r3, #8]
 2223 00a4 9B88     		ldrh	r3, [r3, #4]
 2224 00a6 03FB1400 		mls	r0, r3, r4, r0
 2225 00aa 80B2     		uxth	r0, r0
 2226 00ac 9842     		cmp	r0, r3
 2227 00ae 34BF     		ite	cc
 2228 00b0 0020     		movcc	r0, #0
 2229 00b2 0120     		movcs	r0, #1
 2230 00b4 002F     		cmp	r7, #0
 2231 00b6 08BF     		it	eq
 2232 00b8 0020     		moveq	r0, #0
 2233 00ba 0028     		cmp	r0, #0
 2234 00bc D4D1     		bne	.L183
 745:Drivers/BSP/STM32746G-Discovery/stm32746g_discovery_lcd.c **** 
 2235              		.loc 1 745 0
 2236 00be BDE8F081 		pop	{r4, r5, r6, r7, r8, pc}
 2237              	.LVL197:
 2238              	.L186:
 731:Drivers/BSP/STM32746G-Discovery/stm32746g_discovery_lcd.c ****   }
 2239              		.loc 1 731 0
 2240 00c2 0125     		movs	r5, #1
 2241              	.LVL198:
 2242 00c4 BFE7     		b	.L180
 2243              	.L188:
 2244 00c6 00BF     		.align	2
 2245              	.L187:
 2246 00c8 00000000 		.word	.LANCHOR1
 2247 00cc 00000000 		.word	.LANCHOR2
 2248              		.cfi_endproc
 2249              	.LFE170:
 2251              		.section	.text.BSP_LCD_DisplayStringAtLine,"ax",%progbits
 2252              		.align	1
 2253              		.global	BSP_LCD_DisplayStringAtLine
 2254              		.syntax unified
 2255              		.thumb
 2256              		.thumb_func
 2257              		.fpu fpv5-sp-d16
 2259              	BSP_LCD_DisplayStringAtLine:
 2260              	.LFB171:
ARM GAS  C:\Users\milek\AppData\Local\Temp\ccMSPWBt.s 			page 72


 754:Drivers/BSP/STM32746G-Discovery/stm32746g_discovery_lcd.c ****   BSP_LCD_DisplayStringAt(0, LINE(Line), ptr, LEFT_MODE);
 2261              		.loc 1 754 0
 2262              		.cfi_startproc
 2263              		@ args = 0, pretend = 0, frame = 0
 2264              		@ frame_needed = 0, uses_anonymous_args = 0
 2265              	.LVL199:
 2266 0000 38B5     		push	{r3, r4, r5, lr}
 2267              	.LCFI44:
 2268              		.cfi_def_cfa_offset 16
 2269              		.cfi_offset 3, -16
 2270              		.cfi_offset 4, -12
 2271              		.cfi_offset 5, -8
 2272              		.cfi_offset 14, -4
 2273 0002 0546     		mov	r5, r0
 2274 0004 0C46     		mov	r4, r1
 755:Drivers/BSP/STM32746G-Discovery/stm32746g_discovery_lcd.c **** }
 2275              		.loc 1 755 0
 2276 0006 FFF7FEFF 		bl	BSP_LCD_GetFont
 2277              	.LVL200:
 2278 000a C188     		ldrh	r1, [r0, #6]
 2279 000c 11FB05F1 		smulbb	r1, r1, r5
 2280 0010 0323     		movs	r3, #3
 2281 0012 2246     		mov	r2, r4
 2282 0014 89B2     		uxth	r1, r1
 2283 0016 0020     		movs	r0, #0
 2284 0018 FFF7FEFF 		bl	BSP_LCD_DisplayStringAt
 2285              	.LVL201:
 756:Drivers/BSP/STM32746G-Discovery/stm32746g_discovery_lcd.c **** 
 2286              		.loc 1 756 0
 2287 001c 38BD     		pop	{r3, r4, r5, pc}
 2288              		.cfi_endproc
 2289              	.LFE171:
 2291              		.section	.text.BSP_LCD_DrawLine,"ax",%progbits
 2292              		.align	1
 2293              		.global	BSP_LCD_DrawLine
 2294              		.syntax unified
 2295              		.thumb
 2296              		.thumb_func
 2297              		.fpu fpv5-sp-d16
 2299              	BSP_LCD_DrawLine:
 2300              	.LFB174:
 817:Drivers/BSP/STM32746G-Discovery/stm32746g_discovery_lcd.c ****   int16_t deltax = 0, deltay = 0, x = 0, y = 0, xinc1 = 0, xinc2 = 0, 
 2301              		.loc 1 817 0
 2302              		.cfi_startproc
 2303              		@ args = 0, pretend = 0, frame = 16
 2304              		@ frame_needed = 0, uses_anonymous_args = 0
 2305              	.LVL202:
 2306 0000 2DE9F04F 		push	{r4, r5, r6, r7, r8, r9, r10, fp, lr}
 2307              	.LCFI45:
 2308              		.cfi_def_cfa_offset 36
 2309              		.cfi_offset 4, -36
 2310              		.cfi_offset 5, -32
 2311              		.cfi_offset 6, -28
 2312              		.cfi_offset 7, -24
 2313              		.cfi_offset 8, -20
 2314              		.cfi_offset 9, -16
 2315              		.cfi_offset 10, -12
ARM GAS  C:\Users\milek\AppData\Local\Temp\ccMSPWBt.s 			page 73


 2316              		.cfi_offset 11, -8
 2317              		.cfi_offset 14, -4
 2318 0004 85B0     		sub	sp, sp, #20
 2319              	.LCFI46:
 2320              		.cfi_def_cfa_offset 56
 2321              	.LVL203:
 822:Drivers/BSP/STM32746G-Discovery/stm32746g_discovery_lcd.c ****   deltay = ABS(y2 - y1);        /* The difference between the y's */
 2322              		.loc 1 822 0
 2323 0006 A2EB000A 		sub	r10, r2, r0
 2324 000a BAF1000F 		cmp	r10, #0
 2325 000e B8BF     		it	lt
 2326 0010 CAF1000A 		rsblt	r10, r10, #0
 2327 0014 0FFA8AFA 		sxth	r10, r10
 2328              	.LVL204:
 823:Drivers/BSP/STM32746G-Discovery/stm32746g_discovery_lcd.c ****   x = x1;                       /* Start x off at the first pixel */
 2329              		.loc 1 823 0
 2330 0018 A3EB010B 		sub	fp, r3, r1
 2331 001c BBF1000F 		cmp	fp, #0
 2332 0020 B8BF     		it	lt
 2333 0022 CBF1000B 		rsblt	fp, fp, #0
 2334 0026 0FFA8BFB 		sxth	fp, fp
 2335              	.LVL205:
 824:Drivers/BSP/STM32746G-Discovery/stm32746g_discovery_lcd.c ****   y = y1;                       /* Start y off at the first pixel */
 2336              		.loc 1 824 0
 2337 002a 05B2     		sxth	r5, r0
 2338              	.LVL206:
 825:Drivers/BSP/STM32746G-Discovery/stm32746g_discovery_lcd.c ****   
 2339              		.loc 1 825 0
 2340 002c 0FB2     		sxth	r7, r1
 2341              	.LVL207:
 827:Drivers/BSP/STM32746G-Discovery/stm32746g_discovery_lcd.c ****   {
 2342              		.loc 1 827 0
 2343 002e 8242     		cmp	r2, r0
 2344 0030 15D3     		bcc	.L201
 829:Drivers/BSP/STM32746G-Discovery/stm32746g_discovery_lcd.c ****     xinc2 = 1;
 2345              		.loc 1 829 0
 2346 0032 0122     		movs	r2, #1
 2347              	.LVL208:
 2348 0034 0292     		str	r2, [sp, #8]
 2349              	.L192:
 2350              	.LVL209:
 838:Drivers/BSP/STM32746G-Discovery/stm32746g_discovery_lcd.c ****   {
 2351              		.loc 1 838 0
 2352 0036 8B42     		cmp	r3, r1
 2353 0038 15D3     		bcc	.L202
 840:Drivers/BSP/STM32746G-Discovery/stm32746g_discovery_lcd.c ****     yinc2 = 1;
 2354              		.loc 1 840 0
 2355 003a 0123     		movs	r3, #1
 2356              	.LVL210:
 2357 003c 0393     		str	r3, [sp, #12]
 2358              	.L193:
 2359              	.LVL211:
 849:Drivers/BSP/STM32746G-Discovery/stm32746g_discovery_lcd.c ****   {
 2360              		.loc 1 849 0
 2361 003e DA45     		cmp	r10, fp
 2362 0040 18DB     		blt	.L194
 2363              	.LVL212:
ARM GAS  C:\Users\milek\AppData\Local\Temp\ccMSPWBt.s 			page 74


 854:Drivers/BSP/STM32746G-Discovery/stm32746g_discovery_lcd.c ****     num_add = deltay;
 2364              		.loc 1 854 0
 2365 0042 5446     		mov	r4, r10
 2366 0044 BAF1000F 		cmp	r10, #0
 2367 0048 11DB     		blt	.L204
 2368              	.L195:
 2369 004a 44F34F04 		sbfx	r4, r4, #1, #16
 2370              	.LVL213:
 2371 004e 029B     		ldr	r3, [sp, #8]
 2372 0050 0093     		str	r3, [sp]
 852:Drivers/BSP/STM32746G-Discovery/stm32746g_discovery_lcd.c ****     den = deltax;
 2373              		.loc 1 852 0
 2374 0052 0023     		movs	r3, #0
 2375 0054 0293     		str	r3, [sp, #8]
 2376              	.LVL214:
 851:Drivers/BSP/STM32746G-Discovery/stm32746g_discovery_lcd.c ****     yinc2 = 0;                  /* Don't change the y for every iteration */
 2377              		.loc 1 851 0
 2378 0056 0193     		str	r3, [sp, #4]
 2379              	.LVL215:
 2380              	.L196:
 868:Drivers/BSP/STM32746G-Discovery/stm32746g_discovery_lcd.c ****   {
 2381              		.loc 1 868 0
 2382 0058 4FF00009 		mov	r9, #0
 2383 005c 26E0     		b	.L198
 2384              	.LVL216:
 2385              	.L201:
 834:Drivers/BSP/STM32746G-Discovery/stm32746g_discovery_lcd.c ****     xinc2 = -1;
 2386              		.loc 1 834 0
 2387 005e 4FF0FF32 		mov	r2, #-1
 2388              	.LVL217:
 2389 0062 0292     		str	r2, [sp, #8]
 2390 0064 E7E7     		b	.L192
 2391              	.LVL218:
 2392              	.L202:
 845:Drivers/BSP/STM32746G-Discovery/stm32746g_discovery_lcd.c ****     yinc2 = -1;
 2393              		.loc 1 845 0
 2394 0066 4FF0FF33 		mov	r3, #-1
 2395              	.LVL219:
 2396 006a 0393     		str	r3, [sp, #12]
 2397 006c E7E7     		b	.L193
 2398              	.LVL220:
 2399              	.L204:
 854:Drivers/BSP/STM32746G-Discovery/stm32746g_discovery_lcd.c ****     num_add = deltay;
 2400              		.loc 1 854 0
 2401 006e 0AF10104 		add	r4, r10, #1
 2402 0072 EAE7     		b	.L195
 2403              	.LVL221:
 2404              	.L194:
 863:Drivers/BSP/STM32746G-Discovery/stm32746g_discovery_lcd.c ****     num_add = deltax;
 2405              		.loc 1 863 0
 2406 0074 5C46     		mov	r4, fp
 2407 0076 BBF1000F 		cmp	fp, #0
 2408 007a 0ADB     		blt	.L205
 2409              	.L197:
 2410 007c 44F34F04 		sbfx	r4, r4, #1, #16
 2411              	.LVL222:
 2412 0080 5346     		mov	r3, r10
ARM GAS  C:\Users\milek\AppData\Local\Temp\ccMSPWBt.s 			page 75


 862:Drivers/BSP/STM32746G-Discovery/stm32746g_discovery_lcd.c ****     num = deltay / 2;
 2413              		.loc 1 862 0
 2414 0082 DA46     		mov	r10, fp
 2415              	.LVL223:
 864:Drivers/BSP/STM32746G-Discovery/stm32746g_discovery_lcd.c ****     num_pixels = deltay;         /* There are more y-values than x-values */
 2416              		.loc 1 864 0
 2417 0084 9B46     		mov	fp, r3
 2418              	.LVL224:
 863:Drivers/BSP/STM32746G-Discovery/stm32746g_discovery_lcd.c ****     num_add = deltax;
 2419              		.loc 1 863 0
 2420 0086 039B     		ldr	r3, [sp, #12]
 2421              	.LVL225:
 2422 0088 0193     		str	r3, [sp, #4]
 861:Drivers/BSP/STM32746G-Discovery/stm32746g_discovery_lcd.c ****     den = deltay;
 2423              		.loc 1 861 0
 2424 008a 0023     		movs	r3, #0
 2425 008c 0393     		str	r3, [sp, #12]
 2426              	.LVL226:
 860:Drivers/BSP/STM32746G-Discovery/stm32746g_discovery_lcd.c ****     yinc1 = 0;                  /* Don't change the y when numerator >= denominator */
 2427              		.loc 1 860 0
 2428 008e 0093     		str	r3, [sp]
 2429 0090 E2E7     		b	.L196
 2430              	.LVL227:
 2431              	.L205:
 863:Drivers/BSP/STM32746G-Discovery/stm32746g_discovery_lcd.c ****     num_add = deltax;
 2432              		.loc 1 863 0
 2433 0092 0BF10104 		add	r4, fp, #1
 2434 0096 F1E7     		b	.L197
 2435              	.LVL228:
 2436              	.L199:
 878:Drivers/BSP/STM32746G-Discovery/stm32746g_discovery_lcd.c ****     y += yinc2;                               /* Change the y as appropriate */
 2437              		.loc 1 878 0 discriminator 2
 2438 0098 009B     		ldr	r3, [sp]
 2439 009a 1D44     		add	r5, r5, r3
 2440              	.LVL229:
 2441 009c 2DB2     		sxth	r5, r5
 2442              	.LVL230:
 879:Drivers/BSP/STM32746G-Discovery/stm32746g_discovery_lcd.c ****   }
 2443              		.loc 1 879 0 discriminator 2
 2444 009e 019B     		ldr	r3, [sp, #4]
 2445 00a0 1F44     		add	r7, r7, r3
 2446              	.LVL231:
 2447 00a2 3FB2     		sxth	r7, r7
 2448              	.LVL232:
 868:Drivers/BSP/STM32746G-Discovery/stm32746g_discovery_lcd.c ****   {
 2449              		.loc 1 868 0 discriminator 2
 2450 00a4 09F10109 		add	r9, r9, #1
 2451              	.LVL233:
 2452 00a8 0FFA89F9 		sxth	r9, r9
 2453              	.LVL234:
 2454              	.L198:
 868:Drivers/BSP/STM32746G-Discovery/stm32746g_discovery_lcd.c ****   {
 2455              		.loc 1 868 0 is_stmt 0 discriminator 1
 2456 00ac CA45     		cmp	r10, r9
 2457 00ae 1DDB     		blt	.L206
 870:Drivers/BSP/STM32746G-Discovery/stm32746g_discovery_lcd.c ****     num += num_add;                            /* Increase the numerator by the top of the fraction
 2458              		.loc 1 870 0 is_stmt 1
ARM GAS  C:\Users\milek\AppData\Local\Temp\ccMSPWBt.s 			page 76


 2459 00b0 1FFA85F8 		uxth	r8, r5
 2460 00b4 BEB2     		uxth	r6, r7
 2461 00b6 0F4B     		ldr	r3, .L207
 2462 00b8 1B68     		ldr	r3, [r3]
 2463 00ba 03EB4303 		add	r3, r3, r3, lsl #1
 2464 00be 9A00     		lsls	r2, r3, #2
 2465 00c0 0D4B     		ldr	r3, .L207+4
 2466 00c2 9A58     		ldr	r2, [r3, r2]
 2467 00c4 3146     		mov	r1, r6
 2468 00c6 4046     		mov	r0, r8
 2469 00c8 FFF7FEFF 		bl	BSP_LCD_DrawPixel
 2470              	.LVL235:
 871:Drivers/BSP/STM32746G-Discovery/stm32746g_discovery_lcd.c ****     if (num >= den)                           /* Check if numerator >= denominator */
 2471              		.loc 1 871 0
 2472 00cc 5C44     		add	r4, r4, fp
 2473              	.LVL236:
 2474 00ce A3B2     		uxth	r3, r4
 2475 00d0 1CB2     		sxth	r4, r3
 2476              	.LVL237:
 872:Drivers/BSP/STM32746G-Discovery/stm32746g_discovery_lcd.c ****     {
 2477              		.loc 1 872 0
 2478 00d2 A245     		cmp	r10, r4
 2479 00d4 E0DC     		bgt	.L199
 874:Drivers/BSP/STM32746G-Discovery/stm32746g_discovery_lcd.c ****       x += xinc1;                             /* Change the x as appropriate */
 2480              		.loc 1 874 0
 2481 00d6 A3EB0A04 		sub	r4, r3, r10
 2482              	.LVL238:
 2483 00da 24B2     		sxth	r4, r4
 2484              	.LVL239:
 875:Drivers/BSP/STM32746G-Discovery/stm32746g_discovery_lcd.c ****       y += yinc1;                             /* Change the y as appropriate */
 2485              		.loc 1 875 0
 2486 00dc 029B     		ldr	r3, [sp, #8]
 2487 00de 08EB0305 		add	r5, r8, r3
 2488              	.LVL240:
 2489 00e2 2DB2     		sxth	r5, r5
 2490              	.LVL241:
 876:Drivers/BSP/STM32746G-Discovery/stm32746g_discovery_lcd.c ****     }
 2491              		.loc 1 876 0
 2492 00e4 039B     		ldr	r3, [sp, #12]
 2493 00e6 F718     		adds	r7, r6, r3
 2494              	.LVL242:
 2495 00e8 3FB2     		sxth	r7, r7
 2496              	.LVL243:
 2497 00ea D5E7     		b	.L199
 2498              	.L206:
 881:Drivers/BSP/STM32746G-Discovery/stm32746g_discovery_lcd.c **** 
 2499              		.loc 1 881 0
 2500 00ec 05B0     		add	sp, sp, #20
 2501              	.LCFI47:
 2502              		.cfi_def_cfa_offset 36
 2503              	.LVL244:
 2504              		@ sp needed
 2505 00ee BDE8F08F 		pop	{r4, r5, r6, r7, r8, r9, r10, fp, pc}
 2506              	.LVL245:
 2507              	.L208:
 2508 00f2 00BF     		.align	2
 2509              	.L207:
ARM GAS  C:\Users\milek\AppData\Local\Temp\ccMSPWBt.s 			page 77


 2510 00f4 00000000 		.word	.LANCHOR1
 2511 00f8 00000000 		.word	.LANCHOR2
 2512              		.cfi_endproc
 2513              	.LFE174:
 2515              		.section	.text.BSP_LCD_DrawPolygon,"ax",%progbits
 2516              		.align	1
 2517              		.global	BSP_LCD_DrawPolygon
 2518              		.syntax unified
 2519              		.thumb
 2520              		.thumb_func
 2521              		.fpu fpv5-sp-d16
 2523              	BSP_LCD_DrawPolygon:
 2524              	.LFB177:
 957:Drivers/BSP/STM32746G-Discovery/stm32746g_discovery_lcd.c ****   int16_t x = 0, y = 0;
 2525              		.loc 1 957 0
 2526              		.cfi_startproc
 2527              		@ args = 0, pretend = 0, frame = 0
 2528              		@ frame_needed = 0, uses_anonymous_args = 0
 2529              	.LVL246:
 960:Drivers/BSP/STM32746G-Discovery/stm32746g_discovery_lcd.c ****   {
 2530              		.loc 1 960 0
 2531 0000 0129     		cmp	r1, #1
 2532 0002 29D9     		bls	.L214
 957:Drivers/BSP/STM32746G-Discovery/stm32746g_discovery_lcd.c ****   int16_t x = 0, y = 0;
 2533              		.loc 1 957 0
 2534 0004 70B5     		push	{r4, r5, r6, lr}
 2535              	.LCFI48:
 2536              		.cfi_def_cfa_offset 16
 2537              		.cfi_offset 4, -16
 2538              		.cfi_offset 5, -12
 2539              		.cfi_offset 6, -8
 2540              		.cfi_offset 14, -4
 2541 0006 0546     		mov	r5, r0
 2542 0008 0C46     		mov	r4, r1
 965:Drivers/BSP/STM32746G-Discovery/stm32746g_discovery_lcd.c ****   
 2543              		.loc 1 965 0
 2544 000a B0F90000 		ldrsh	r0, [r0]
 2545              	.LVL247:
 2546 000e B5F90210 		ldrsh	r1, [r5, #2]
 2547              	.LVL248:
 2548 0012 6FF04043 		mvn	r3, #-1073741824
 2549 0016 2344     		add	r3, r3, r4
 2550 0018 05EB8306 		add	r6, r5, r3, lsl #2
 2551 001c 35F92320 		ldrsh	r2, [r5, r3, lsl #2]
 2552 0020 B6F90230 		ldrsh	r3, [r6, #2]
 2553 0024 9BB2     		uxth	r3, r3
 2554 0026 92B2     		uxth	r2, r2
 2555 0028 89B2     		uxth	r1, r1
 2556 002a 80B2     		uxth	r0, r0
 2557 002c FFF7FEFF 		bl	BSP_LCD_DrawLine
 2558              	.LVL249:
 967:Drivers/BSP/STM32746G-Discovery/stm32746g_discovery_lcd.c ****   {
 2559              		.loc 1 967 0
 2560 0030 0DE0     		b	.L211
 2561              	.LVL250:
 2562              	.L212:
 969:Drivers/BSP/STM32746G-Discovery/stm32746g_discovery_lcd.c ****     y = Points->Y;
ARM GAS  C:\Users\milek\AppData\Local\Temp\ccMSPWBt.s 			page 78


 2563              		.loc 1 969 0
 2564 0032 B5F90000 		ldrsh	r0, [r5]
 2565              	.LVL251:
 970:Drivers/BSP/STM32746G-Discovery/stm32746g_discovery_lcd.c ****     Points++;
 2566              		.loc 1 970 0
 2567 0036 B5F90210 		ldrsh	r1, [r5, #2]
 2568              	.LVL252:
 972:Drivers/BSP/STM32746G-Discovery/stm32746g_discovery_lcd.c ****   }
 2569              		.loc 1 972 0
 2570 003a 35F9042F 		ldrsh	r2, [r5, #4]!
 2571              	.LVL253:
 2572 003e B5F90230 		ldrsh	r3, [r5, #2]
 2573 0042 9BB2     		uxth	r3, r3
 2574 0044 92B2     		uxth	r2, r2
 2575 0046 89B2     		uxth	r1, r1
 2576 0048 80B2     		uxth	r0, r0
 2577 004a FFF7FEFF 		bl	BSP_LCD_DrawLine
 2578              	.LVL254:
 2579              	.L211:
 967:Drivers/BSP/STM32746G-Discovery/stm32746g_discovery_lcd.c ****   {
 2580              		.loc 1 967 0
 2581 004e 013C     		subs	r4, r4, #1
 2582              	.LVL255:
 2583 0050 A4B2     		uxth	r4, r4
 2584              	.LVL256:
 2585 0052 002C     		cmp	r4, #0
 2586 0054 EDD1     		bne	.L212
 974:Drivers/BSP/STM32746G-Discovery/stm32746g_discovery_lcd.c **** 
 2587              		.loc 1 974 0
 2588 0056 70BD     		pop	{r4, r5, r6, pc}
 2589              	.LVL257:
 2590              	.L214:
 2591              	.LCFI49:
 2592              		.cfi_def_cfa_offset 0
 2593              		.cfi_restore 4
 2594              		.cfi_restore 5
 2595              		.cfi_restore 6
 2596              		.cfi_restore 14
 2597 0058 7047     		bx	lr
 2598              		.cfi_endproc
 2599              	.LFE177:
 2601              		.section	.text.FillTriangle,"ax",%progbits
 2602              		.align	1
 2603              		.syntax unified
 2604              		.thumb
 2605              		.thumb_func
 2606              		.fpu fpv5-sp-d16
 2608              	FillTriangle:
 2609              	.LFB191:
1503:Drivers/BSP/STM32746G-Discovery/stm32746g_discovery_lcd.c ****   int16_t deltax = 0, deltay = 0, x = 0, y = 0, xinc1 = 0, xinc2 = 0, 
 2610              		.loc 1 1503 0
 2611              		.cfi_startproc
 2612              		@ args = 8, pretend = 0, frame = 24
 2613              		@ frame_needed = 0, uses_anonymous_args = 0
 2614              	.LVL258:
 2615 0000 2DE9F04F 		push	{r4, r5, r6, r7, r8, r9, r10, fp, lr}
 2616              	.LCFI50:
ARM GAS  C:\Users\milek\AppData\Local\Temp\ccMSPWBt.s 			page 79


 2617              		.cfi_def_cfa_offset 36
 2618              		.cfi_offset 4, -36
 2619              		.cfi_offset 5, -32
 2620              		.cfi_offset 6, -28
 2621              		.cfi_offset 7, -24
 2622              		.cfi_offset 8, -20
 2623              		.cfi_offset 9, -16
 2624              		.cfi_offset 10, -12
 2625              		.cfi_offset 11, -8
 2626              		.cfi_offset 14, -4
 2627 0004 87B0     		sub	sp, sp, #28
 2628              	.LCFI51:
 2629              		.cfi_def_cfa_offset 64
 2630 0006 0292     		str	r2, [sp, #8]
 2631 0008 BDF84020 		ldrh	r2, [sp, #64]
 2632              	.LVL259:
 2633 000c BDF84440 		ldrh	r4, [sp, #68]
 2634 0010 0394     		str	r4, [sp, #12]
 2635              	.LVL260:
1508:Drivers/BSP/STM32746G-Discovery/stm32746g_discovery_lcd.c ****   deltay = ABS(y2 - y1);        /* The difference between the y's */
 2636              		.loc 1 1508 0
 2637 0012 A1EB000A 		sub	r10, r1, r0
 2638 0016 BAF1000F 		cmp	r10, #0
 2639 001a B8BF     		it	lt
 2640 001c CAF1000A 		rsblt	r10, r10, #0
 2641 0020 0FFA8AFA 		sxth	r10, r10
 2642              	.LVL261:
1509:Drivers/BSP/STM32746G-Discovery/stm32746g_discovery_lcd.c ****   x = x1;                       /* Start x off at the first pixel */
 2643              		.loc 1 1509 0
 2644 0024 A2EB030B 		sub	fp, r2, r3
 2645 0028 BBF1000F 		cmp	fp, #0
 2646 002c B8BF     		it	lt
 2647 002e CBF1000B 		rsblt	fp, fp, #0
 2648 0032 0FFA8BFB 		sxth	fp, fp
 2649              	.LVL262:
1510:Drivers/BSP/STM32746G-Discovery/stm32746g_discovery_lcd.c ****   y = y1;                       /* Start y off at the first pixel */
 2650              		.loc 1 1510 0
 2651 0036 05B2     		sxth	r5, r0
 2652              	.LVL263:
1511:Drivers/BSP/STM32746G-Discovery/stm32746g_discovery_lcd.c ****   
 2653              		.loc 1 1511 0
 2654 0038 1FB2     		sxth	r7, r3
 2655              	.LVL264:
1513:Drivers/BSP/STM32746G-Discovery/stm32746g_discovery_lcd.c ****   {
 2656              		.loc 1 1513 0
 2657 003a 8142     		cmp	r1, r0
 2658 003c 15D3     		bcc	.L227
1515:Drivers/BSP/STM32746G-Discovery/stm32746g_discovery_lcd.c ****     xinc2 = 1;
 2659              		.loc 1 1515 0
 2660 003e 0121     		movs	r1, #1
 2661              	.LVL265:
 2662 0040 0491     		str	r1, [sp, #16]
 2663              	.L218:
 2664              	.LVL266:
1524:Drivers/BSP/STM32746G-Discovery/stm32746g_discovery_lcd.c ****   {
 2665              		.loc 1 1524 0
 2666 0042 9A42     		cmp	r2, r3
ARM GAS  C:\Users\milek\AppData\Local\Temp\ccMSPWBt.s 			page 80


 2667 0044 15D3     		bcc	.L228
1526:Drivers/BSP/STM32746G-Discovery/stm32746g_discovery_lcd.c ****     yinc2 = 1;
 2668              		.loc 1 1526 0
 2669 0046 0123     		movs	r3, #1
 2670              	.LVL267:
 2671 0048 0593     		str	r3, [sp, #20]
 2672              	.L219:
 2673              	.LVL268:
1535:Drivers/BSP/STM32746G-Discovery/stm32746g_discovery_lcd.c ****   {
 2674              		.loc 1 1535 0
 2675 004a DA45     		cmp	r10, fp
 2676 004c 18DB     		blt	.L220
 2677              	.LVL269:
1540:Drivers/BSP/STM32746G-Discovery/stm32746g_discovery_lcd.c ****     num_add = deltay;
 2678              		.loc 1 1540 0
 2679 004e 5446     		mov	r4, r10
 2680 0050 BAF1000F 		cmp	r10, #0
 2681 0054 11DB     		blt	.L230
 2682              	.L221:
 2683 0056 44F34F04 		sbfx	r4, r4, #1, #16
 2684              	.LVL270:
 2685 005a 049B     		ldr	r3, [sp, #16]
 2686 005c 0093     		str	r3, [sp]
1538:Drivers/BSP/STM32746G-Discovery/stm32746g_discovery_lcd.c ****     den = deltax;
 2687              		.loc 1 1538 0
 2688 005e 0023     		movs	r3, #0
 2689 0060 0493     		str	r3, [sp, #16]
 2690              	.LVL271:
1537:Drivers/BSP/STM32746G-Discovery/stm32746g_discovery_lcd.c ****     yinc2 = 0;                  /* Don't change the y for every iteration */
 2691              		.loc 1 1537 0
 2692 0062 0193     		str	r3, [sp, #4]
 2693              	.LVL272:
 2694              	.L222:
1554:Drivers/BSP/STM32746G-Discovery/stm32746g_discovery_lcd.c ****   {
 2695              		.loc 1 1554 0
 2696 0064 4FF00009 		mov	r9, #0
 2697 0068 26E0     		b	.L224
 2698              	.LVL273:
 2699              	.L227:
1520:Drivers/BSP/STM32746G-Discovery/stm32746g_discovery_lcd.c ****     xinc2 = -1;
 2700              		.loc 1 1520 0
 2701 006a 4FF0FF31 		mov	r1, #-1
 2702              	.LVL274:
 2703 006e 0491     		str	r1, [sp, #16]
 2704 0070 E7E7     		b	.L218
 2705              	.LVL275:
 2706              	.L228:
1531:Drivers/BSP/STM32746G-Discovery/stm32746g_discovery_lcd.c ****     yinc2 = -1;
 2707              		.loc 1 1531 0
 2708 0072 4FF0FF33 		mov	r3, #-1
 2709              	.LVL276:
 2710 0076 0593     		str	r3, [sp, #20]
 2711 0078 E7E7     		b	.L219
 2712              	.LVL277:
 2713              	.L230:
1540:Drivers/BSP/STM32746G-Discovery/stm32746g_discovery_lcd.c ****     num_add = deltay;
 2714              		.loc 1 1540 0
ARM GAS  C:\Users\milek\AppData\Local\Temp\ccMSPWBt.s 			page 81


 2715 007a 0AF10104 		add	r4, r10, #1
 2716 007e EAE7     		b	.L221
 2717              	.LVL278:
 2718              	.L220:
1549:Drivers/BSP/STM32746G-Discovery/stm32746g_discovery_lcd.c ****     num_add = deltax;
 2719              		.loc 1 1549 0
 2720 0080 5C46     		mov	r4, fp
 2721 0082 BBF1000F 		cmp	fp, #0
 2722 0086 0ADB     		blt	.L231
 2723              	.L223:
 2724 0088 44F34F04 		sbfx	r4, r4, #1, #16
 2725              	.LVL279:
 2726 008c 5346     		mov	r3, r10
1548:Drivers/BSP/STM32746G-Discovery/stm32746g_discovery_lcd.c ****     num = deltay / 2;
 2727              		.loc 1 1548 0
 2728 008e DA46     		mov	r10, fp
 2729              	.LVL280:
1550:Drivers/BSP/STM32746G-Discovery/stm32746g_discovery_lcd.c ****     num_pixels = deltay;         /* There are more y-values than x-values */
 2730              		.loc 1 1550 0
 2731 0090 9B46     		mov	fp, r3
 2732              	.LVL281:
1549:Drivers/BSP/STM32746G-Discovery/stm32746g_discovery_lcd.c ****     num_add = deltax;
 2733              		.loc 1 1549 0
 2734 0092 059B     		ldr	r3, [sp, #20]
 2735              	.LVL282:
 2736 0094 0193     		str	r3, [sp, #4]
1547:Drivers/BSP/STM32746G-Discovery/stm32746g_discovery_lcd.c ****     den = deltay;
 2737              		.loc 1 1547 0
 2738 0096 0023     		movs	r3, #0
 2739 0098 0593     		str	r3, [sp, #20]
 2740              	.LVL283:
1546:Drivers/BSP/STM32746G-Discovery/stm32746g_discovery_lcd.c ****     yinc1 = 0;                  /* Don't change the y when numerator >= denominator */
 2741              		.loc 1 1546 0
 2742 009a 0093     		str	r3, [sp]
 2743 009c E2E7     		b	.L222
 2744              	.LVL284:
 2745              	.L231:
1549:Drivers/BSP/STM32746G-Discovery/stm32746g_discovery_lcd.c ****     num_add = deltax;
 2746              		.loc 1 1549 0
 2747 009e 0BF10104 		add	r4, fp, #1
 2748 00a2 F1E7     		b	.L223
 2749              	.LVL285:
 2750              	.L225:
1565:Drivers/BSP/STM32746G-Discovery/stm32746g_discovery_lcd.c ****     y += yinc2;                 /* Change the y as appropriate */
 2751              		.loc 1 1565 0 discriminator 2
 2752 00a4 009B     		ldr	r3, [sp]
 2753 00a6 1D44     		add	r5, r5, r3
 2754              	.LVL286:
 2755 00a8 2DB2     		sxth	r5, r5
 2756              	.LVL287:
1566:Drivers/BSP/STM32746G-Discovery/stm32746g_discovery_lcd.c ****   } 
 2757              		.loc 1 1566 0 discriminator 2
 2758 00aa 019B     		ldr	r3, [sp, #4]
 2759 00ac 1F44     		add	r7, r7, r3
 2760              	.LVL288:
 2761 00ae 3FB2     		sxth	r7, r7
 2762              	.LVL289:
ARM GAS  C:\Users\milek\AppData\Local\Temp\ccMSPWBt.s 			page 82


1554:Drivers/BSP/STM32746G-Discovery/stm32746g_discovery_lcd.c ****   {
 2763              		.loc 1 1554 0 discriminator 2
 2764 00b0 09F10109 		add	r9, r9, #1
 2765              	.LVL290:
 2766 00b4 0FFA89F9 		sxth	r9, r9
 2767              	.LVL291:
 2768              	.L224:
1554:Drivers/BSP/STM32746G-Discovery/stm32746g_discovery_lcd.c ****   {
 2769              		.loc 1 1554 0 is_stmt 0 discriminator 1
 2770 00b8 CA45     		cmp	r10, r9
 2771 00ba 18DB     		blt	.L232
1556:Drivers/BSP/STM32746G-Discovery/stm32746g_discovery_lcd.c ****     
 2772              		.loc 1 1556 0 is_stmt 1
 2773 00bc 1FFA85F8 		uxth	r8, r5
 2774 00c0 BEB2     		uxth	r6, r7
 2775 00c2 039B     		ldr	r3, [sp, #12]
 2776 00c4 029A     		ldr	r2, [sp, #8]
 2777 00c6 3146     		mov	r1, r6
 2778 00c8 4046     		mov	r0, r8
 2779 00ca FFF7FEFF 		bl	BSP_LCD_DrawLine
 2780              	.LVL292:
1558:Drivers/BSP/STM32746G-Discovery/stm32746g_discovery_lcd.c ****     if (num >= den)             /* Check if numerator >= denominator */
 2781              		.loc 1 1558 0
 2782 00ce 5C44     		add	r4, r4, fp
 2783              	.LVL293:
 2784 00d0 A3B2     		uxth	r3, r4
 2785 00d2 1CB2     		sxth	r4, r3
 2786              	.LVL294:
1559:Drivers/BSP/STM32746G-Discovery/stm32746g_discovery_lcd.c ****     {
 2787              		.loc 1 1559 0
 2788 00d4 A245     		cmp	r10, r4
 2789 00d6 E5DC     		bgt	.L225
1561:Drivers/BSP/STM32746G-Discovery/stm32746g_discovery_lcd.c ****       x += xinc1;               /* Change the x as appropriate */
 2790              		.loc 1 1561 0
 2791 00d8 A3EB0A04 		sub	r4, r3, r10
 2792              	.LVL295:
 2793 00dc 24B2     		sxth	r4, r4
 2794              	.LVL296:
1562:Drivers/BSP/STM32746G-Discovery/stm32746g_discovery_lcd.c ****       y += yinc1;               /* Change the y as appropriate */
 2795              		.loc 1 1562 0
 2796 00de 049B     		ldr	r3, [sp, #16]
 2797 00e0 08EB0305 		add	r5, r8, r3
 2798              	.LVL297:
 2799 00e4 2DB2     		sxth	r5, r5
 2800              	.LVL298:
1563:Drivers/BSP/STM32746G-Discovery/stm32746g_discovery_lcd.c ****     }
 2801              		.loc 1 1563 0
 2802 00e6 059B     		ldr	r3, [sp, #20]
 2803 00e8 F718     		adds	r7, r6, r3
 2804              	.LVL299:
 2805 00ea 3FB2     		sxth	r7, r7
 2806              	.LVL300:
 2807 00ec DAE7     		b	.L225
 2808              	.L232:
1568:Drivers/BSP/STM32746G-Discovery/stm32746g_discovery_lcd.c **** 
 2809              		.loc 1 1568 0
 2810 00ee 07B0     		add	sp, sp, #28
ARM GAS  C:\Users\milek\AppData\Local\Temp\ccMSPWBt.s 			page 83


 2811              	.LCFI52:
 2812              		.cfi_def_cfa_offset 36
 2813              	.LVL301:
 2814              		@ sp needed
 2815 00f0 BDE8F08F 		pop	{r4, r5, r6, r7, r8, r9, r10, fp, pc}
 2816              		.cfi_endproc
 2817              	.LFE191:
 2819              		.section	.text.BSP_LCD_DrawCircle,"ax",%progbits
 2820              		.align	1
 2821              		.global	BSP_LCD_DrawCircle
 2822              		.syntax unified
 2823              		.thumb
 2824              		.thumb_func
 2825              		.fpu fpv5-sp-d16
 2827              	BSP_LCD_DrawCircle:
 2828              	.LFB176:
 910:Drivers/BSP/STM32746G-Discovery/stm32746g_discovery_lcd.c ****   int32_t   decision;    /* Decision Variable */ 
 2829              		.loc 1 910 0
 2830              		.cfi_startproc
 2831              		@ args = 0, pretend = 0, frame = 24
 2832              		@ frame_needed = 0, uses_anonymous_args = 0
 2833              	.LVL302:
 2834 0000 2DE9F04F 		push	{r4, r5, r6, r7, r8, r9, r10, fp, lr}
 2835              	.LCFI53:
 2836              		.cfi_def_cfa_offset 36
 2837              		.cfi_offset 4, -36
 2838              		.cfi_offset 5, -32
 2839              		.cfi_offset 6, -28
 2840              		.cfi_offset 7, -24
 2841              		.cfi_offset 8, -20
 2842              		.cfi_offset 9, -16
 2843              		.cfi_offset 10, -12
 2844              		.cfi_offset 11, -8
 2845              		.cfi_offset 14, -4
 2846 0004 87B0     		sub	sp, sp, #28
 2847              	.LCFI54:
 2848              		.cfi_def_cfa_offset 64
 2849 0006 8246     		mov	r10, r0
 2850 0008 8B46     		mov	fp, r1
 915:Drivers/BSP/STM32746G-Discovery/stm32746g_discovery_lcd.c ****   current_x = 0;
 2851              		.loc 1 915 0
 2852 000a 5300     		lsls	r3, r2, #1
 2853 000c C3F10303 		rsb	r3, r3, #3
 2854 0010 0293     		str	r3, [sp, #8]
 2855              	.LVL303:
 917:Drivers/BSP/STM32746G-Discovery/stm32746g_discovery_lcd.c ****   
 2856              		.loc 1 917 0
 2857 0012 0192     		str	r2, [sp, #4]
 2858              	.LVL304:
 916:Drivers/BSP/STM32746G-Discovery/stm32746g_discovery_lcd.c ****   current_y = Radius;
 2859              		.loc 1 916 0
 2860 0014 4FF00009 		mov	r9, #0
 919:Drivers/BSP/STM32746G-Discovery/stm32746g_discovery_lcd.c ****   {
 2861              		.loc 1 919 0
 2862 0018 05E0     		b	.L234
 2863              	.LVL305:
 2864              	.L240:
ARM GAS  C:\Users\milek\AppData\Local\Temp\ccMSPWBt.s 			page 84


 939:Drivers/BSP/STM32746G-Discovery/stm32746g_discovery_lcd.c ****     }
 2865              		.loc 1 939 0
 2866 001a 03EB8903 		add	r3, r3, r9, lsl #2
 2867 001e 0633     		adds	r3, r3, #6
 2868 0020 0293     		str	r3, [sp, #8]
 2869              	.LVL306:
 2870              	.L236:
 946:Drivers/BSP/STM32746G-Discovery/stm32746g_discovery_lcd.c ****   } 
 2871              		.loc 1 946 0
 2872 0022 09F10109 		add	r9, r9, #1
 2873              	.LVL307:
 2874              	.L234:
 919:Drivers/BSP/STM32746G-Discovery/stm32746g_discovery_lcd.c ****   {
 2875              		.loc 1 919 0
 2876 0026 019B     		ldr	r3, [sp, #4]
 2877 0028 9945     		cmp	r9, r3
 2878 002a 76D8     		bhi	.L239
 921:Drivers/BSP/STM32746G-Discovery/stm32746g_discovery_lcd.c ****     
 2879              		.loc 1 921 0
 2880 002c 1FFA89F4 		uxth	r4, r9
 2881 0030 04EB0A03 		add	r3, r4, r10
 2882 0034 98B2     		uxth	r0, r3
 2883 0036 BDF80450 		ldrh	r5, [sp, #4]
 2884 003a ABEB0508 		sub	r8, fp, r5
 2885 003e 1FFA88F8 		uxth	r8, r8
 2886 0042 374E     		ldr	r6, .L241
 2887 0044 374F     		ldr	r7, .L241+4
 2888 0046 3B68     		ldr	r3, [r7]
 2889 0048 03EB4303 		add	r3, r3, r3, lsl #1
 2890 004c 9A00     		lsls	r2, r3, #2
 2891 004e B258     		ldr	r2, [r6, r2]
 2892 0050 4146     		mov	r1, r8
 2893 0052 0390     		str	r0, [sp, #12]
 2894 0054 FFF7FEFF 		bl	BSP_LCD_DrawPixel
 2895              	.LVL308:
 923:Drivers/BSP/STM32746G-Discovery/stm32746g_discovery_lcd.c ****     
 2896              		.loc 1 923 0
 2897 0058 AAEB0403 		sub	r3, r10, r4
 2898 005c 9BB2     		uxth	r3, r3
 2899 005e 1846     		mov	r0, r3
 2900 0060 3B68     		ldr	r3, [r7]
 2901 0062 03EB4303 		add	r3, r3, r3, lsl #1
 2902 0066 9A00     		lsls	r2, r3, #2
 2903 0068 B258     		ldr	r2, [r6, r2]
 2904 006a 4146     		mov	r1, r8
 2905 006c 0490     		str	r0, [sp, #16]
 2906 006e FFF7FEFF 		bl	BSP_LCD_DrawPixel
 2907              	.LVL309:
 925:Drivers/BSP/STM32746G-Discovery/stm32746g_discovery_lcd.c ****     
 2908              		.loc 1 925 0
 2909 0072 05EB0A03 		add	r3, r5, r10
 2910 0076 9BB2     		uxth	r3, r3
 2911 0078 1846     		mov	r0, r3
 2912 007a ABEB0408 		sub	r8, fp, r4
 2913 007e 1FFA88F8 		uxth	r8, r8
 2914 0082 3B68     		ldr	r3, [r7]
 2915 0084 03EB4303 		add	r3, r3, r3, lsl #1
ARM GAS  C:\Users\milek\AppData\Local\Temp\ccMSPWBt.s 			page 85


 2916 0088 9A00     		lsls	r2, r3, #2
 2917 008a B258     		ldr	r2, [r6, r2]
 2918 008c 4146     		mov	r1, r8
 2919 008e 0590     		str	r0, [sp, #20]
 2920 0090 FFF7FEFF 		bl	BSP_LCD_DrawPixel
 2921              	.LVL310:
 927:Drivers/BSP/STM32746G-Discovery/stm32746g_discovery_lcd.c ****     
 2922              		.loc 1 927 0
 2923 0094 AAEB0503 		sub	r3, r10, r5
 2924 0098 9BB2     		uxth	r3, r3
 2925 009a 1846     		mov	r0, r3
 2926 009c 3B68     		ldr	r3, [r7]
 2927 009e 03EB4303 		add	r3, r3, r3, lsl #1
 2928 00a2 9A00     		lsls	r2, r3, #2
 2929 00a4 B258     		ldr	r2, [r6, r2]
 2930 00a6 4146     		mov	r1, r8
 2931 00a8 8046     		mov	r8, r0
 2932 00aa FFF7FEFF 		bl	BSP_LCD_DrawPixel
 2933              	.LVL311:
 929:Drivers/BSP/STM32746G-Discovery/stm32746g_discovery_lcd.c ****     
 2934              		.loc 1 929 0
 2935 00ae 5D44     		add	r5, r5, fp
 2936 00b0 ADB2     		uxth	r5, r5
 2937 00b2 3B68     		ldr	r3, [r7]
 2938 00b4 03EB4303 		add	r3, r3, r3, lsl #1
 2939 00b8 9A00     		lsls	r2, r3, #2
 2940 00ba B258     		ldr	r2, [r6, r2]
 2941 00bc 2946     		mov	r1, r5
 2942 00be 0398     		ldr	r0, [sp, #12]
 2943 00c0 FFF7FEFF 		bl	BSP_LCD_DrawPixel
 2944              	.LVL312:
 931:Drivers/BSP/STM32746G-Discovery/stm32746g_discovery_lcd.c ****     
 2945              		.loc 1 931 0
 2946 00c4 3B68     		ldr	r3, [r7]
 2947 00c6 03EB4303 		add	r3, r3, r3, lsl #1
 2948 00ca 9A00     		lsls	r2, r3, #2
 2949 00cc B258     		ldr	r2, [r6, r2]
 2950 00ce 2946     		mov	r1, r5
 2951 00d0 0498     		ldr	r0, [sp, #16]
 2952 00d2 FFF7FEFF 		bl	BSP_LCD_DrawPixel
 2953              	.LVL313:
 933:Drivers/BSP/STM32746G-Discovery/stm32746g_discovery_lcd.c ****     
 2954              		.loc 1 933 0
 2955 00d6 5C44     		add	r4, r4, fp
 2956 00d8 A4B2     		uxth	r4, r4
 2957 00da 3B68     		ldr	r3, [r7]
 2958 00dc 03EB4303 		add	r3, r3, r3, lsl #1
 2959 00e0 9A00     		lsls	r2, r3, #2
 2960 00e2 B258     		ldr	r2, [r6, r2]
 2961 00e4 2146     		mov	r1, r4
 2962 00e6 0598     		ldr	r0, [sp, #20]
 2963 00e8 FFF7FEFF 		bl	BSP_LCD_DrawPixel
 2964              	.LVL314:
 935:Drivers/BSP/STM32746G-Discovery/stm32746g_discovery_lcd.c ****     
 2965              		.loc 1 935 0
 2966 00ec 3B68     		ldr	r3, [r7]
 2967 00ee 03EB4303 		add	r3, r3, r3, lsl #1
ARM GAS  C:\Users\milek\AppData\Local\Temp\ccMSPWBt.s 			page 86


 2968 00f2 9A00     		lsls	r2, r3, #2
 2969 00f4 B258     		ldr	r2, [r6, r2]
 2970 00f6 2146     		mov	r1, r4
 2971 00f8 4046     		mov	r0, r8
 2972 00fa FFF7FEFF 		bl	BSP_LCD_DrawPixel
 2973              	.LVL315:
 937:Drivers/BSP/STM32746G-Discovery/stm32746g_discovery_lcd.c ****     { 
 2974              		.loc 1 937 0
 2975 00fe 029B     		ldr	r3, [sp, #8]
 2976 0100 002B     		cmp	r3, #0
 2977 0102 8ADB     		blt	.L240
 943:Drivers/BSP/STM32746G-Discovery/stm32746g_discovery_lcd.c ****       current_y--;
 2978              		.loc 1 943 0
 2979 0104 019A     		ldr	r2, [sp, #4]
 2980 0106 A9EB0203 		sub	r3, r9, r2
 2981 010a 0299     		ldr	r1, [sp, #8]
 2982 010c 01EB8303 		add	r3, r1, r3, lsl #2
 2983 0110 0A33     		adds	r3, r3, #10
 2984 0112 0293     		str	r3, [sp, #8]
 2985              	.LVL316:
 944:Drivers/BSP/STM32746G-Discovery/stm32746g_discovery_lcd.c ****     }
 2986              		.loc 1 944 0
 2987 0114 531E     		subs	r3, r2, #1
 2988              	.LVL317:
 2989 0116 0193     		str	r3, [sp, #4]
 2990              	.LVL318:
 2991 0118 83E7     		b	.L236
 2992              	.L239:
 948:Drivers/BSP/STM32746G-Discovery/stm32746g_discovery_lcd.c **** 
 2993              		.loc 1 948 0
 2994 011a 07B0     		add	sp, sp, #28
 2995              	.LCFI55:
 2996              		.cfi_def_cfa_offset 36
 2997              		@ sp needed
 2998 011c BDE8F08F 		pop	{r4, r5, r6, r7, r8, r9, r10, fp, pc}
 2999              	.LVL319:
 3000              	.L242:
 3001              		.align	2
 3002              	.L241:
 3003 0120 00000000 		.word	.LANCHOR2
 3004 0124 00000000 		.word	.LANCHOR1
 3005              		.cfi_endproc
 3006              	.LFE176:
 3008              		.section	.text.BSP_LCD_DrawEllipse,"ax",%progbits
 3009              		.align	1
 3010              		.global	BSP_LCD_DrawEllipse
 3011              		.syntax unified
 3012              		.thumb
 3013              		.thumb_func
 3014              		.fpu fpv5-sp-d16
 3016              	BSP_LCD_DrawEllipse:
 3017              	.LFB178:
 985:Drivers/BSP/STM32746G-Discovery/stm32746g_discovery_lcd.c ****   int x = 0, y = -YRadius, err = 2-2*XRadius, e2;
 3018              		.loc 1 985 0
 3019              		.cfi_startproc
 3020              		@ args = 0, pretend = 0, frame = 24
 3021              		@ frame_needed = 0, uses_anonymous_args = 0
ARM GAS  C:\Users\milek\AppData\Local\Temp\ccMSPWBt.s 			page 87


 3022              	.LVL320:
 3023 0000 2DE9F04F 		push	{r4, r5, r6, r7, r8, r9, r10, fp, lr}
 3024              	.LCFI56:
 3025              		.cfi_def_cfa_offset 36
 3026              		.cfi_offset 4, -36
 3027              		.cfi_offset 5, -32
 3028              		.cfi_offset 6, -28
 3029              		.cfi_offset 7, -24
 3030              		.cfi_offset 8, -20
 3031              		.cfi_offset 9, -16
 3032              		.cfi_offset 10, -12
 3033              		.cfi_offset 11, -8
 3034              		.cfi_offset 14, -4
 3035 0004 2DED028B 		vpush.64	{d8}
 3036              	.LCFI57:
 3037              		.cfi_def_cfa_offset 44
 3038              		.cfi_offset 80, -44
 3039              		.cfi_offset 81, -40
 3040 0008 87B0     		sub	sp, sp, #28
 3041              	.LCFI58:
 3042              		.cfi_def_cfa_offset 72
 3043 000a 0490     		str	r0, [sp, #16]
 3044 000c 0591     		str	r1, [sp, #20]
 3045              	.LVL321:
 986:Drivers/BSP/STM32746G-Discovery/stm32746g_discovery_lcd.c ****   float k = 0, rad1 = 0, rad2 = 0;
 3046              		.loc 1 986 0
 3047 000e C3F10008 		rsb	r8, r3, #0
 3048              	.LVL322:
 3049 0012 C2F10101 		rsb	r1, r2, #1
 3050              	.LVL323:
 3051 0016 4FEA410B 		lsl	fp, r1, #1
 3052              	.LVL324:
 989:Drivers/BSP/STM32746G-Discovery/stm32746g_discovery_lcd.c ****   rad2 = YRadius;
 3053              		.loc 1 989 0
 3054 001a 07EE902A 		vmov	s15, r2	@ int
 3055 001e F8EEE77A 		vcvt.f32.s32	s15, s15
 3056              	.LVL325:
 990:Drivers/BSP/STM32746G-Discovery/stm32746g_discovery_lcd.c ****   
 3057              		.loc 1 990 0
 3058 0022 07EE103A 		vmov	s14, r3	@ int
 3059 0026 B8EEC77A 		vcvt.f32.s32	s14, s14
 3060              	.LVL326:
 992:Drivers/BSP/STM32746G-Discovery/stm32746g_discovery_lcd.c ****   
 3061              		.loc 1 992 0
 3062 002a 87EE278A 		vdiv.f32	s16, s14, s15
 3063              	.LVL327:
 986:Drivers/BSP/STM32746G-Discovery/stm32746g_discovery_lcd.c ****   float k = 0, rad1 = 0, rad2 = 0;
 3064              		.loc 1 986 0
 3065 002e 0023     		movs	r3, #0
 3066              	.LVL328:
 3067 0030 9946     		mov	r9, r3
 3068 0032 0CE0     		b	.L246
 3069              	.LVL329:
 3070              	.L247:
 3071 0034 5B46     		mov	r3, fp
 3072              	.LVL330:
 3073              	.L244:
ARM GAS  C:\Users\milek\AppData\Local\Temp\ccMSPWBt.s 			page 88


1005:Drivers/BSP/STM32746G-Discovery/stm32746g_discovery_lcd.c ****   }
 3074              		.loc 1 1005 0
 3075 0036 D845     		cmp	r8, fp
 3076 0038 5CDA     		bge	.L249
1005:Drivers/BSP/STM32746G-Discovery/stm32746g_discovery_lcd.c ****   }
 3077              		.loc 1 1005 0 is_stmt 0 discriminator 1
 3078 003a 08F10108 		add	r8, r8, #1
 3079              	.LVL331:
 3080 003e 4FEA480B 		lsl	fp, r8, #1
 3081              	.LVL332:
 3082 0042 0BF1010B 		add	fp, fp, #1
 3083 0046 9B44     		add	fp, fp, r3
 3084              	.LVL333:
 3085              	.L245:
1007:Drivers/BSP/STM32746G-Discovery/stm32746g_discovery_lcd.c **** }
 3086              		.loc 1 1007 0 is_stmt 1
 3087 0048 B8F1000F 		cmp	r8, #0
 3088 004c 54DC     		bgt	.L251
 3089              	.LVL334:
 3090              	.L246:
 995:Drivers/BSP/STM32746G-Discovery/stm32746g_discovery_lcd.c ****     BSP_LCD_DrawPixel((Xpos+(uint16_t)(x/k)), (Ypos+y), DrawProp[ActiveLayer].TextColor);
 3091              		.loc 1 995 0
 3092 004e BDF81040 		ldrh	r4, [sp, #16]
 3093 0052 07EE909A 		vmov	s15, r9	@ int
 3094 0056 B8EEE77A 		vcvt.f32.s32	s14, s15
 3095 005a C7EE087A 		vdiv.f32	s15, s14, s16
 3096 005e FCEEE77A 		vcvt.u32.f32	s15, s15
 3097 0062 17EE903A 		vmov	r3, s15	@ int
 3098 0066 9FB2     		uxth	r7, r3
 3099 0068 E31B     		subs	r3, r4, r7
 3100 006a 98B2     		uxth	r0, r3
 3101 006c BDF81430 		ldrh	r3, [sp, #20]
 3102 0070 1FFA88FA 		uxth	r10, r8
 3103 0074 0293     		str	r3, [sp, #8]
 3104 0076 5344     		add	r3, r3, r10
 3105 0078 99B2     		uxth	r1, r3
 3106 007a 224D     		ldr	r5, .L252
 3107 007c 224E     		ldr	r6, .L252+4
 3108 007e 3368     		ldr	r3, [r6]
 3109 0080 03EB4303 		add	r3, r3, r3, lsl #1
 3110 0084 9A00     		lsls	r2, r3, #2
 3111 0086 AA58     		ldr	r2, [r5, r2]
 3112 0088 0391     		str	r1, [sp, #12]
 3113 008a 0190     		str	r0, [sp, #4]
 3114 008c FFF7FEFF 		bl	BSP_LCD_DrawPixel
 3115              	.LVL335:
 996:Drivers/BSP/STM32746G-Discovery/stm32746g_discovery_lcd.c ****     BSP_LCD_DrawPixel((Xpos+(uint16_t)(x/k)), (Ypos-y), DrawProp[ActiveLayer].TextColor);
 3116              		.loc 1 996 0
 3117 0090 3C44     		add	r4, r4, r7
 3118 0092 A4B2     		uxth	r4, r4
 3119 0094 3368     		ldr	r3, [r6]
 3120 0096 03EB4303 		add	r3, r3, r3, lsl #1
 3121 009a 9A00     		lsls	r2, r3, #2
 3122 009c AA58     		ldr	r2, [r5, r2]
 3123 009e 0399     		ldr	r1, [sp, #12]
 3124 00a0 2046     		mov	r0, r4
 3125 00a2 FFF7FEFF 		bl	BSP_LCD_DrawPixel
ARM GAS  C:\Users\milek\AppData\Local\Temp\ccMSPWBt.s 			page 89


 3126              	.LVL336:
 997:Drivers/BSP/STM32746G-Discovery/stm32746g_discovery_lcd.c ****     BSP_LCD_DrawPixel((Xpos-(uint16_t)(x/k)), (Ypos-y), DrawProp[ActiveLayer].TextColor);      
 3127              		.loc 1 997 0
 3128 00a6 029B     		ldr	r3, [sp, #8]
 3129 00a8 A3EB0A0A 		sub	r10, r3, r10
 3130 00ac 1FFA8AFA 		uxth	r10, r10
 3131 00b0 3368     		ldr	r3, [r6]
 3132 00b2 03EB4303 		add	r3, r3, r3, lsl #1
 3133 00b6 9A00     		lsls	r2, r3, #2
 3134 00b8 AA58     		ldr	r2, [r5, r2]
 3135 00ba 5146     		mov	r1, r10
 3136 00bc 2046     		mov	r0, r4
 3137 00be FFF7FEFF 		bl	BSP_LCD_DrawPixel
 3138              	.LVL337:
 998:Drivers/BSP/STM32746G-Discovery/stm32746g_discovery_lcd.c ****     
 3139              		.loc 1 998 0
 3140 00c2 3368     		ldr	r3, [r6]
 3141 00c4 03EB4303 		add	r3, r3, r3, lsl #1
 3142 00c8 9A00     		lsls	r2, r3, #2
 3143 00ca AA58     		ldr	r2, [r5, r2]
 3144 00cc 5146     		mov	r1, r10
 3145 00ce 0198     		ldr	r0, [sp, #4]
 3146 00d0 FFF7FEFF 		bl	BSP_LCD_DrawPixel
 3147              	.LVL338:
1001:Drivers/BSP/STM32746G-Discovery/stm32746g_discovery_lcd.c ****       err += ++x*2+1;
 3148              		.loc 1 1001 0
 3149 00d4 D945     		cmp	r9, fp
 3150 00d6 ADDB     		blt	.L247
1002:Drivers/BSP/STM32746G-Discovery/stm32746g_discovery_lcd.c ****       if (-y == x && e2 <= y) e2 = 0;
 3151              		.loc 1 1002 0
 3152 00d8 09F10109 		add	r9, r9, #1
 3153              	.LVL339:
 3154 00dc 4FEA4903 		lsl	r3, r9, #1
 3155 00e0 0133     		adds	r3, r3, #1
 3156 00e2 5B44     		add	r3, r3, fp
 3157              	.LVL340:
1003:Drivers/BSP/STM32746G-Discovery/stm32746g_discovery_lcd.c ****     }
 3158              		.loc 1 1003 0
 3159 00e4 19EB080F 		cmn	r9, r8
 3160 00e8 A5D1     		bne	.L244
1003:Drivers/BSP/STM32746G-Discovery/stm32746g_discovery_lcd.c ****     }
 3161              		.loc 1 1003 0 is_stmt 0 discriminator 1
 3162 00ea D845     		cmp	r8, fp
 3163 00ec A3DB     		blt	.L244
1003:Drivers/BSP/STM32746G-Discovery/stm32746g_discovery_lcd.c ****     }
 3164              		.loc 1 1003 0
 3165 00ee 4FF0000B 		mov	fp, #0
 3166              	.LVL341:
 3167 00f2 A0E7     		b	.L244
 3168              	.LVL342:
 3169              	.L249:
 3170 00f4 9B46     		mov	fp, r3
 3171              	.LVL343:
 3172 00f6 A7E7     		b	.L245
 3173              	.LVL344:
 3174              	.L251:
1008:Drivers/BSP/STM32746G-Discovery/stm32746g_discovery_lcd.c **** 
ARM GAS  C:\Users\milek\AppData\Local\Temp\ccMSPWBt.s 			page 90


 3175              		.loc 1 1008 0 is_stmt 1
 3176 00f8 07B0     		add	sp, sp, #28
 3177              	.LCFI59:
 3178              		.cfi_def_cfa_offset 44
 3179              		@ sp needed
 3180 00fa BDEC028B 		vldm	sp!, {d8}
 3181              	.LCFI60:
 3182              		.cfi_restore 80
 3183              		.cfi_restore 81
 3184              		.cfi_def_cfa_offset 36
 3185              	.LVL345:
 3186 00fe BDE8F08F 		pop	{r4, r5, r6, r7, r8, r9, r10, fp, pc}
 3187              	.LVL346:
 3188              	.L253:
 3189 0102 00BF     		.align	2
 3190              	.L252:
 3191 0104 00000000 		.word	.LANCHOR2
 3192 0108 00000000 		.word	.LANCHOR1
 3193              		.cfi_endproc
 3194              	.LFE178:
 3196              		.section	.text.BSP_LCD_DrawBitmap,"ax",%progbits
 3197              		.align	1
 3198              		.global	BSP_LCD_DrawBitmap
 3199              		.syntax unified
 3200              		.thumb
 3201              		.thumb_func
 3202              		.fpu fpv5-sp-d16
 3204              	BSP_LCD_DrawBitmap:
 3205              	.LFB180:
1038:Drivers/BSP/STM32746G-Discovery/stm32746g_discovery_lcd.c ****   uint32_t index = 0, width = 0, height = 0, bit_pixel = 0;
 3206              		.loc 1 1038 0
 3207              		.cfi_startproc
 3208              		@ args = 0, pretend = 0, frame = 0
 3209              		@ frame_needed = 0, uses_anonymous_args = 0
 3210              	.LVL347:
 3211 0000 2DE9F84F 		push	{r3, r4, r5, r6, r7, r8, r9, r10, fp, lr}
 3212              	.LCFI61:
 3213              		.cfi_def_cfa_offset 40
 3214              		.cfi_offset 3, -40
 3215              		.cfi_offset 4, -36
 3216              		.cfi_offset 5, -32
 3217              		.cfi_offset 6, -28
 3218              		.cfi_offset 7, -24
 3219              		.cfi_offset 8, -20
 3220              		.cfi_offset 9, -16
 3221              		.cfi_offset 10, -12
 3222              		.cfi_offset 11, -8
 3223              		.cfi_offset 14, -4
 3224 0004 8346     		mov	fp, r0
 3225 0006 8A46     		mov	r10, r1
 3226 0008 1446     		mov	r4, r2
 3227              	.LVL348:
1044:Drivers/BSP/STM32746G-Discovery/stm32746g_discovery_lcd.c **** 
 3228              		.loc 1 1044 0
 3229 000a 977A     		ldrb	r7, [r2, #10]	@ zero_extendqisi2
 3230 000c D37A     		ldrb	r3, [r2, #11]	@ zero_extendqisi2
 3231 000e 07EB0327 		add	r7, r7, r3, lsl #8
ARM GAS  C:\Users\milek\AppData\Local\Temp\ccMSPWBt.s 			page 91


 3232 0012 137B     		ldrb	r3, [r2, #12]	@ zero_extendqisi2
 3233 0014 07EB0347 		add	r7, r7, r3, lsl #16
 3234 0018 537B     		ldrb	r3, [r2, #13]	@ zero_extendqisi2
 3235 001a 07EB0367 		add	r7, r7, r3, lsl #24
 3236              	.LVL349:
1047:Drivers/BSP/STM32746G-Discovery/stm32746g_discovery_lcd.c **** 
 3237              		.loc 1 1047 0
 3238 001e 967C     		ldrb	r6, [r2, #18]	@ zero_extendqisi2
 3239 0020 D37C     		ldrb	r3, [r2, #19]	@ zero_extendqisi2
 3240 0022 06EB0326 		add	r6, r6, r3, lsl #8
 3241 0026 137D     		ldrb	r3, [r2, #20]	@ zero_extendqisi2
 3242 0028 06EB0346 		add	r6, r6, r3, lsl #16
 3243 002c 537D     		ldrb	r3, [r2, #21]	@ zero_extendqisi2
 3244 002e 06EB0366 		add	r6, r6, r3, lsl #24
 3245              	.LVL350:
1050:Drivers/BSP/STM32746G-Discovery/stm32746g_discovery_lcd.c **** 
 3246              		.loc 1 1050 0
 3247 0032 92F81680 		ldrb	r8, [r2, #22]	@ zero_extendqisi2
 3248 0036 D37D     		ldrb	r3, [r2, #23]	@ zero_extendqisi2
 3249 0038 08EB0328 		add	r8, r8, r3, lsl #8
 3250 003c 137E     		ldrb	r3, [r2, #24]	@ zero_extendqisi2
 3251 003e 08EB0348 		add	r8, r8, r3, lsl #16
 3252 0042 537E     		ldrb	r3, [r2, #25]	@ zero_extendqisi2
 3253 0044 08EB0368 		add	r8, r8, r3, lsl #24
 3254              	.LVL351:
1053:Drivers/BSP/STM32746G-Discovery/stm32746g_discovery_lcd.c ****   
 3255              		.loc 1 1053 0
 3256 0048 92F81C90 		ldrb	r9, [r2, #28]	@ zero_extendqisi2
 3257 004c 537F     		ldrb	r3, [r2, #29]	@ zero_extendqisi2
 3258 004e 09EB0329 		add	r9, r9, r3, lsl #8
 3259              	.LVL352:
1056:Drivers/BSP/STM32746G-Discovery/stm32746g_discovery_lcd.c ****   
 3260              		.loc 1 1056 0
 3261 0052 1C4B     		ldr	r3, .L261
 3262 0054 1B68     		ldr	r3, [r3]
 3263 0056 1C4A     		ldr	r2, .L261+4
 3264              	.LVL353:
 3265 0058 3421     		movs	r1, #52
 3266              	.LVL354:
 3267 005a 01FB0323 		mla	r3, r1, r3, r2
 3268 005e DD6D     		ldr	r5, [r3, #92]
 3269 0060 FFF7FEFF 		bl	BSP_LCD_GetXSize
 3270              	.LVL355:
 3271 0064 0AFB00B0 		mla	r0, r10, r0, fp
 3272 0068 05EB8005 		add	r5, r5, r0, lsl #2
 3273              	.LVL356:
1059:Drivers/BSP/STM32746G-Discovery/stm32746g_discovery_lcd.c ****   {
 3274              		.loc 1 1059 0
 3275 006c A9F12003 		sub	r3, r9, #32
 3276 0070 072B     		cmp	r3, #7
 3277 0072 06D9     		bls	.L258
1063:Drivers/BSP/STM32746G-Discovery/stm32746g_discovery_lcd.c ****   {
 3278              		.loc 1 1063 0
 3279 0074 A9F11003 		sub	r3, r9, #16
 3280 0078 072B     		cmp	r3, #7
 3281 007a 0FD8     		bhi	.L259
1065:Drivers/BSP/STM32746G-Discovery/stm32746g_discovery_lcd.c ****   }
ARM GAS  C:\Users\milek\AppData\Local\Temp\ccMSPWBt.s 			page 92


 3282              		.loc 1 1065 0
 3283 007c 4FF0020A 		mov	r10, #2
 3284              	.LVL357:
 3285 0080 01E0     		b	.L255
 3286              	.LVL358:
 3287              	.L258:
1061:Drivers/BSP/STM32746G-Discovery/stm32746g_discovery_lcd.c ****   }
 3288              		.loc 1 1061 0
 3289 0082 4FF0000A 		mov	r10, #0
 3290              	.LVL359:
 3291              	.L255:
1073:Drivers/BSP/STM32746G-Discovery/stm32746g_discovery_lcd.c ****   
 3292              		.loc 1 1073 0
 3293 0086 08F1FF33 		add	r3, r8, #-1
 3294 008a 06FB03F3 		mul	r3, r6, r3
 3295 008e 4FEAD909 		lsr	r9, r9, #3
 3296              	.LVL360:
 3297 0092 09FB0377 		mla	r7, r9, r3, r7
 3298              	.LVL361:
 3299 0096 3C44     		add	r4, r4, r7
 3300              	.LVL362:
1076:Drivers/BSP/STM32746G-Discovery/stm32746g_discovery_lcd.c ****   {
 3301              		.loc 1 1076 0
 3302 0098 0027     		movs	r7, #0
 3303 009a 0FE0     		b	.L256
 3304              	.LVL363:
 3305              	.L259:
1069:Drivers/BSP/STM32746G-Discovery/stm32746g_discovery_lcd.c ****   }
 3306              		.loc 1 1069 0
 3307 009c 4FF0010A 		mov	r10, #1
 3308              	.LVL364:
 3309 00a0 F1E7     		b	.L255
 3310              	.LVL365:
 3311              	.L257:
1079:Drivers/BSP/STM32746G-Discovery/stm32746g_discovery_lcd.c ****     
 3312              		.loc 1 1079 0 discriminator 3
 3313 00a2 5346     		mov	r3, r10
 3314 00a4 3246     		mov	r2, r6
 3315 00a6 2946     		mov	r1, r5
 3316 00a8 2046     		mov	r0, r4
 3317 00aa FFF7FEFF 		bl	LL_ConvertLineToARGB8888
 3318              	.LVL366:
1082:Drivers/BSP/STM32746G-Discovery/stm32746g_discovery_lcd.c ****     pbmp -= width*(bit_pixel/8);
 3319              		.loc 1 1082 0 discriminator 3
 3320 00ae FFF7FEFF 		bl	BSP_LCD_GetXSize
 3321              	.LVL367:
 3322 00b2 05EB8005 		add	r5, r5, r0, lsl #2
 3323              	.LVL368:
1083:Drivers/BSP/STM32746G-Discovery/stm32746g_discovery_lcd.c ****   } 
 3324              		.loc 1 1083 0 discriminator 3
 3325 00b6 06FB1944 		mls	r4, r6, r9, r4
 3326              	.LVL369:
1076:Drivers/BSP/STM32746G-Discovery/stm32746g_discovery_lcd.c ****   {
 3327              		.loc 1 1076 0 discriminator 3
 3328 00ba 0137     		adds	r7, r7, #1
 3329              	.LVL370:
 3330              	.L256:
ARM GAS  C:\Users\milek\AppData\Local\Temp\ccMSPWBt.s 			page 93


1076:Drivers/BSP/STM32746G-Discovery/stm32746g_discovery_lcd.c ****   {
 3331              		.loc 1 1076 0 is_stmt 0 discriminator 1
 3332 00bc 4745     		cmp	r7, r8
 3333 00be F0D3     		bcc	.L257
1085:Drivers/BSP/STM32746G-Discovery/stm32746g_discovery_lcd.c **** 
 3334              		.loc 1 1085 0 is_stmt 1
 3335 00c0 BDE8F88F 		pop	{r3, r4, r5, r6, r7, r8, r9, r10, fp, pc}
 3336              	.LVL371:
 3337              	.L262:
 3338              		.align	2
 3339              	.L261:
 3340 00c4 00000000 		.word	.LANCHOR1
 3341 00c8 00000000 		.word	hLtdcHandler
 3342              		.cfi_endproc
 3343              	.LFE180:
 3345              		.section	.text.BSP_LCD_FillRect,"ax",%progbits
 3346              		.align	1
 3347              		.global	BSP_LCD_FillRect
 3348              		.syntax unified
 3349              		.thumb
 3350              		.thumb_func
 3351              		.fpu fpv5-sp-d16
 3353              	BSP_LCD_FillRect:
 3354              	.LFB181:
1096:Drivers/BSP/STM32746G-Discovery/stm32746g_discovery_lcd.c ****   uint32_t  x_address = 0;
 3355              		.loc 1 1096 0
 3356              		.cfi_startproc
 3357              		@ args = 0, pretend = 0, frame = 0
 3358              		@ frame_needed = 0, uses_anonymous_args = 0
 3359              	.LVL372:
 3360 0000 2DE9F043 		push	{r4, r5, r6, r7, r8, r9, lr}
 3361              	.LCFI62:
 3362              		.cfi_def_cfa_offset 28
 3363              		.cfi_offset 4, -28
 3364              		.cfi_offset 5, -24
 3365              		.cfi_offset 6, -20
 3366              		.cfi_offset 7, -16
 3367              		.cfi_offset 8, -12
 3368              		.cfi_offset 9, -8
 3369              		.cfi_offset 14, -4
 3370 0004 83B0     		sub	sp, sp, #12
 3371              	.LCFI63:
 3372              		.cfi_def_cfa_offset 40
 3373 0006 8146     		mov	r9, r0
 3374 0008 0E46     		mov	r6, r1
 3375 000a 1746     		mov	r7, r2
 3376 000c 9846     		mov	r8, r3
 3377              	.LVL373:
1100:Drivers/BSP/STM32746G-Discovery/stm32746g_discovery_lcd.c ****   
 3378              		.loc 1 1100 0
 3379 000e 1D4C     		ldr	r4, .L268
 3380 0010 2368     		ldr	r3, [r4]
 3381              	.LVL374:
 3382 0012 03EB4303 		add	r3, r3, r3, lsl #1
 3383 0016 9A00     		lsls	r2, r3, #2
 3384              	.LVL375:
 3385 0018 1B4B     		ldr	r3, .L268+4
ARM GAS  C:\Users\milek\AppData\Local\Temp\ccMSPWBt.s 			page 94


 3386 001a 9858     		ldr	r0, [r3, r2]
 3387              	.LVL376:
 3388 001c FFF7FEFF 		bl	BSP_LCD_SetTextColor
 3389              	.LVL377:
1103:Drivers/BSP/STM32746G-Discovery/stm32746g_discovery_lcd.c ****   { /* RGB565 format */
 3390              		.loc 1 1103 0
 3391 0020 2468     		ldr	r4, [r4]
 3392 0022 1A4A     		ldr	r2, .L268+8
 3393 0024 3423     		movs	r3, #52
 3394 0026 03FB0423 		mla	r3, r3, r4, r2
 3395 002a 9B6C     		ldr	r3, [r3, #72]
 3396 002c 022B     		cmp	r3, #2
 3397 002e 1DD0     		beq	.L267
1109:Drivers/BSP/STM32746G-Discovery/stm32746g_discovery_lcd.c ****   }
 3398              		.loc 1 1109 0
 3399 0030 164A     		ldr	r2, .L268+8
 3400 0032 3423     		movs	r3, #52
 3401 0034 03FB0423 		mla	r3, r3, r4, r2
 3402 0038 DD6D     		ldr	r5, [r3, #92]
 3403 003a FFF7FEFF 		bl	BSP_LCD_GetXSize
 3404              	.LVL378:
 3405 003e 00FB0690 		mla	r0, r0, r6, r9
 3406 0042 05EB8005 		add	r5, r5, r0, lsl #2
 3407              	.LVL379:
 3408              	.L265:
1112:Drivers/BSP/STM32746G-Discovery/stm32746g_discovery_lcd.c **** }
 3409              		.loc 1 1112 0
 3410 0046 FFF7FEFF 		bl	BSP_LCD_GetXSize
 3411              	.LVL380:
 3412 004a 04EB4402 		add	r2, r4, r4, lsl #1
 3413 004e 9300     		lsls	r3, r2, #2
 3414 0050 0D4A     		ldr	r2, .L268+4
 3415 0052 D358     		ldr	r3, [r2, r3]
 3416 0054 0193     		str	r3, [sp, #4]
 3417 0056 C01B     		subs	r0, r0, r7
 3418 0058 0090     		str	r0, [sp]
 3419 005a 4346     		mov	r3, r8
 3420 005c 3A46     		mov	r2, r7
 3421 005e 2946     		mov	r1, r5
 3422 0060 2046     		mov	r0, r4
 3423 0062 FFF7FEFF 		bl	LL_FillBuffer
 3424              	.LVL381:
1113:Drivers/BSP/STM32746G-Discovery/stm32746g_discovery_lcd.c **** 
 3425              		.loc 1 1113 0
 3426 0066 03B0     		add	sp, sp, #12
 3427              	.LCFI64:
 3428              		.cfi_remember_state
 3429              		.cfi_def_cfa_offset 28
 3430              		@ sp needed
 3431 0068 BDE8F083 		pop	{r4, r5, r6, r7, r8, r9, pc}
 3432              	.LVL382:
 3433              	.L267:
 3434              	.LCFI65:
 3435              		.cfi_restore_state
1105:Drivers/BSP/STM32746G-Discovery/stm32746g_discovery_lcd.c ****   }
 3436              		.loc 1 1105 0
 3437 006c 3423     		movs	r3, #52
ARM GAS  C:\Users\milek\AppData\Local\Temp\ccMSPWBt.s 			page 95


 3438 006e 03FB0423 		mla	r3, r3, r4, r2
 3439 0072 DD6D     		ldr	r5, [r3, #92]
 3440 0074 FFF7FEFF 		bl	BSP_LCD_GetXSize
 3441              	.LVL383:
 3442 0078 00FB0690 		mla	r0, r0, r6, r9
 3443 007c 05EB4005 		add	r5, r5, r0, lsl #1
 3444              	.LVL384:
 3445 0080 E1E7     		b	.L265
 3446              	.L269:
 3447 0082 00BF     		.align	2
 3448              	.L268:
 3449 0084 00000000 		.word	.LANCHOR1
 3450 0088 00000000 		.word	.LANCHOR2
 3451 008c 00000000 		.word	hLtdcHandler
 3452              		.cfi_endproc
 3453              	.LFE181:
 3455              		.section	.text.BSP_LCD_ClearStringLine,"ax",%progbits
 3456              		.align	1
 3457              		.global	BSP_LCD_ClearStringLine
 3458              		.syntax unified
 3459              		.thumb
 3460              		.thumb_func
 3461              		.fpu fpv5-sp-d16
 3463              	BSP_LCD_ClearStringLine:
 3464              	.LFB168:
 655:Drivers/BSP/STM32746G-Discovery/stm32746g_discovery_lcd.c ****   uint32_t color_backup = DrawProp[ActiveLayer].TextColor;
 3465              		.loc 1 655 0
 3466              		.cfi_startproc
 3467              		@ args = 0, pretend = 0, frame = 0
 3468              		@ frame_needed = 0, uses_anonymous_args = 0
 3469              	.LVL385:
 3470 0000 2DE9F041 		push	{r4, r5, r6, r7, r8, lr}
 3471              	.LCFI66:
 3472              		.cfi_def_cfa_offset 24
 3473              		.cfi_offset 4, -24
 3474              		.cfi_offset 5, -20
 3475              		.cfi_offset 6, -16
 3476              		.cfi_offset 7, -12
 3477              		.cfi_offset 8, -8
 3478              		.cfi_offset 14, -4
 656:Drivers/BSP/STM32746G-Discovery/stm32746g_discovery_lcd.c ****   DrawProp[ActiveLayer].TextColor = DrawProp[ActiveLayer].BackColor;
 3479              		.loc 1 656 0
 3480 0004 114E     		ldr	r6, .L272
 3481 0006 3168     		ldr	r1, [r6]
 3482 0008 114C     		ldr	r4, .L272+4
 3483 000a 4B00     		lsls	r3, r1, #1
 3484 000c 5D18     		adds	r5, r3, r1
 3485 000e AA00     		lsls	r2, r5, #2
 3486 0010 A718     		adds	r7, r4, r2
 3487 0012 A558     		ldr	r5, [r4, r2]
 3488              	.LVL386:
 657:Drivers/BSP/STM32746G-Discovery/stm32746g_discovery_lcd.c ****   
 3489              		.loc 1 657 0
 3490 0014 7F68     		ldr	r7, [r7, #4]
 3491 0016 A750     		str	r7, [r4, r2]
 660:Drivers/BSP/STM32746G-Discovery/stm32746g_discovery_lcd.c ****   
 3492              		.loc 1 660 0
ARM GAS  C:\Users\milek\AppData\Local\Temp\ccMSPWBt.s 			page 96


 3493 0018 2244     		add	r2, r2, r4
 3494 001a 9368     		ldr	r3, [r2, #8]
 3495 001c B3F80680 		ldrh	r8, [r3, #6]
 3496 0020 10FB08F0 		smulbb	r0, r0, r8
 3497              	.LVL387:
 3498 0024 87B2     		uxth	r7, r0
 3499 0026 FFF7FEFF 		bl	BSP_LCD_GetXSize
 3500              	.LVL388:
 3501 002a 4346     		mov	r3, r8
 3502 002c 82B2     		uxth	r2, r0
 3503 002e 3946     		mov	r1, r7
 3504 0030 0020     		movs	r0, #0
 3505 0032 FFF7FEFF 		bl	BSP_LCD_FillRect
 3506              	.LVL389:
 662:Drivers/BSP/STM32746G-Discovery/stm32746g_discovery_lcd.c ****   BSP_LCD_SetTextColor(DrawProp[ActiveLayer].TextColor);  
 3507              		.loc 1 662 0
 3508 0036 3368     		ldr	r3, [r6]
 3509 0038 03EB4303 		add	r3, r3, r3, lsl #1
 3510 003c 9A00     		lsls	r2, r3, #2
 3511 003e A550     		str	r5, [r4, r2]
 663:Drivers/BSP/STM32746G-Discovery/stm32746g_discovery_lcd.c **** }
 3512              		.loc 1 663 0
 3513 0040 2846     		mov	r0, r5
 3514 0042 FFF7FEFF 		bl	BSP_LCD_SetTextColor
 3515              	.LVL390:
 664:Drivers/BSP/STM32746G-Discovery/stm32746g_discovery_lcd.c **** 
 3516              		.loc 1 664 0
 3517 0046 BDE8F081 		pop	{r4, r5, r6, r7, r8, pc}
 3518              	.LVL391:
 3519              	.L273:
 3520 004a 00BF     		.align	2
 3521              	.L272:
 3522 004c 00000000 		.word	.LANCHOR1
 3523 0050 00000000 		.word	.LANCHOR2
 3524              		.cfi_endproc
 3525              	.LFE168:
 3527              		.section	.text.BSP_LCD_FillCircle,"ax",%progbits
 3528              		.align	1
 3529              		.global	BSP_LCD_FillCircle
 3530              		.syntax unified
 3531              		.thumb
 3532              		.thumb_func
 3533              		.fpu fpv5-sp-d16
 3535              	BSP_LCD_FillCircle:
 3536              	.LFB182:
1123:Drivers/BSP/STM32746G-Discovery/stm32746g_discovery_lcd.c ****   int32_t  decision;     /* Decision Variable */ 
 3537              		.loc 1 1123 0
 3538              		.cfi_startproc
 3539              		@ args = 0, pretend = 0, frame = 8
 3540              		@ frame_needed = 0, uses_anonymous_args = 0
 3541              	.LVL392:
 3542 0000 2DE9F04F 		push	{r4, r5, r6, r7, r8, r9, r10, fp, lr}
 3543              	.LCFI67:
 3544              		.cfi_def_cfa_offset 36
 3545              		.cfi_offset 4, -36
 3546              		.cfi_offset 5, -32
 3547              		.cfi_offset 6, -28
ARM GAS  C:\Users\milek\AppData\Local\Temp\ccMSPWBt.s 			page 97


 3548              		.cfi_offset 7, -24
 3549              		.cfi_offset 8, -20
 3550              		.cfi_offset 9, -16
 3551              		.cfi_offset 10, -12
 3552              		.cfi_offset 11, -8
 3553              		.cfi_offset 14, -4
 3554 0004 83B0     		sub	sp, sp, #12
 3555              	.LCFI68:
 3556              		.cfi_def_cfa_offset 48
 3557 0006 8246     		mov	r10, r0
 3558 0008 8946     		mov	r9, r1
 3559 000a 1546     		mov	r5, r2
 3560 000c 0192     		str	r2, [sp, #4]
1128:Drivers/BSP/STM32746G-Discovery/stm32746g_discovery_lcd.c ****   
 3561              		.loc 1 1128 0
 3562 000e 5600     		lsls	r6, r2, #1
 3563 0010 C6F10306 		rsb	r6, r6, #3
 3564              	.LVL393:
1133:Drivers/BSP/STM32746G-Discovery/stm32746g_discovery_lcd.c ****   
 3565              		.loc 1 1133 0
 3566 0014 2E4B     		ldr	r3, .L286
 3567 0016 1B68     		ldr	r3, [r3]
 3568 0018 03EB4303 		add	r3, r3, r3, lsl #1
 3569 001c 9A00     		lsls	r2, r3, #2
 3570              	.LVL394:
 3571 001e 2D4B     		ldr	r3, .L286+4
 3572 0020 9858     		ldr	r0, [r3, r2]
 3573              	.LVL395:
 3574 0022 FFF7FEFF 		bl	BSP_LCD_SetTextColor
 3575              	.LVL396:
1130:Drivers/BSP/STM32746G-Discovery/stm32746g_discovery_lcd.c ****   current_y = Radius;
 3576              		.loc 1 1130 0
 3577 0026 0024     		movs	r4, #0
1135:Drivers/BSP/STM32746G-Discovery/stm32746g_discovery_lcd.c ****   {
 3578              		.loc 1 1135 0
 3579 0028 33E0     		b	.L275
 3580              	.LVL397:
 3581              	.L283:
1139:Drivers/BSP/STM32746G-Discovery/stm32746g_discovery_lcd.c ****       BSP_LCD_DrawHLine(Xpos - current_y, Ypos - current_x, 2*current_y);
 3582              		.loc 1 1139 0
 3583 002a AFB2     		uxth	r7, r5
 3584 002c AAEB070B 		sub	fp, r10, r7
 3585 0030 1FFA8BFB 		uxth	fp, fp
 3586 0034 1FFA84F8 		uxth	r8, r4
 3587 0038 7F00     		lsls	r7, r7, #1
 3588 003a BFB2     		uxth	r7, r7
 3589 003c 08EB0901 		add	r1, r8, r9
 3590 0040 3A46     		mov	r2, r7
 3591 0042 89B2     		uxth	r1, r1
 3592 0044 5846     		mov	r0, fp
 3593 0046 FFF7FEFF 		bl	BSP_LCD_DrawHLine
 3594              	.LVL398:
1140:Drivers/BSP/STM32746G-Discovery/stm32746g_discovery_lcd.c ****     }
 3595              		.loc 1 1140 0
 3596 004a A9EB0801 		sub	r1, r9, r8
 3597 004e 3A46     		mov	r2, r7
 3598 0050 89B2     		uxth	r1, r1
ARM GAS  C:\Users\milek\AppData\Local\Temp\ccMSPWBt.s 			page 98


 3599 0052 5846     		mov	r0, fp
 3600 0054 FFF7FEFF 		bl	BSP_LCD_DrawHLine
 3601              	.LVL399:
 3602 0058 1FE0     		b	.L276
 3603              	.L284:
1145:Drivers/BSP/STM32746G-Discovery/stm32746g_discovery_lcd.c ****       BSP_LCD_DrawHLine(Xpos - current_x, Ypos + current_y, 2*current_x);
 3604              		.loc 1 1145 0
 3605 005a A7B2     		uxth	r7, r4
 3606 005c AAEB070B 		sub	fp, r10, r7
 3607 0060 1FFA8BFB 		uxth	fp, fp
 3608 0064 1FFA85F8 		uxth	r8, r5
 3609 0068 7F00     		lsls	r7, r7, #1
 3610 006a BFB2     		uxth	r7, r7
 3611 006c A9EB0801 		sub	r1, r9, r8
 3612 0070 3A46     		mov	r2, r7
 3613 0072 89B2     		uxth	r1, r1
 3614 0074 5846     		mov	r0, fp
 3615 0076 FFF7FEFF 		bl	BSP_LCD_DrawHLine
 3616              	.LVL400:
1146:Drivers/BSP/STM32746G-Discovery/stm32746g_discovery_lcd.c ****     }
 3617              		.loc 1 1146 0
 3618 007a 08EB0901 		add	r1, r8, r9
 3619 007e 3A46     		mov	r2, r7
 3620 0080 89B2     		uxth	r1, r1
 3621 0082 5846     		mov	r0, fp
 3622 0084 FFF7FEFF 		bl	BSP_LCD_DrawHLine
 3623              	.LVL401:
 3624 0088 09E0     		b	.L277
 3625              	.L285:
1150:Drivers/BSP/STM32746G-Discovery/stm32746g_discovery_lcd.c ****     }
 3626              		.loc 1 1150 0
 3627 008a 06EB8406 		add	r6, r6, r4, lsl #2
 3628              	.LVL402:
 3629 008e 0636     		adds	r6, r6, #6
 3630              	.LVL403:
 3631              	.L279:
1157:Drivers/BSP/STM32746G-Discovery/stm32746g_discovery_lcd.c ****   }
 3632              		.loc 1 1157 0
 3633 0090 0134     		adds	r4, r4, #1
 3634              	.LVL404:
 3635              	.L275:
1135:Drivers/BSP/STM32746G-Discovery/stm32746g_discovery_lcd.c ****   {
 3636              		.loc 1 1135 0
 3637 0092 AC42     		cmp	r4, r5
 3638 0094 0BD8     		bhi	.L282
1137:Drivers/BSP/STM32746G-Discovery/stm32746g_discovery_lcd.c ****     {
 3639              		.loc 1 1137 0
 3640 0096 002D     		cmp	r5, #0
 3641 0098 C7D1     		bne	.L283
 3642              	.L276:
1143:Drivers/BSP/STM32746G-Discovery/stm32746g_discovery_lcd.c ****     {
 3643              		.loc 1 1143 0
 3644 009a 002C     		cmp	r4, #0
 3645 009c DDD1     		bne	.L284
 3646              	.L277:
1148:Drivers/BSP/STM32746G-Discovery/stm32746g_discovery_lcd.c ****     { 
 3647              		.loc 1 1148 0
ARM GAS  C:\Users\milek\AppData\Local\Temp\ccMSPWBt.s 			page 99


 3648 009e 002E     		cmp	r6, #0
 3649 00a0 F3DB     		blt	.L285
1154:Drivers/BSP/STM32746G-Discovery/stm32746g_discovery_lcd.c ****       current_y--;
 3650              		.loc 1 1154 0
 3651 00a2 631B     		subs	r3, r4, r5
 3652 00a4 06EB8306 		add	r6, r6, r3, lsl #2
 3653              	.LVL405:
 3654 00a8 0A36     		adds	r6, r6, #10
 3655              	.LVL406:
1155:Drivers/BSP/STM32746G-Discovery/stm32746g_discovery_lcd.c ****     }
 3656              		.loc 1 1155 0
 3657 00aa 013D     		subs	r5, r5, #1
 3658              	.LVL407:
 3659 00ac F0E7     		b	.L279
 3660              	.L282:
1160:Drivers/BSP/STM32746G-Discovery/stm32746g_discovery_lcd.c ****   BSP_LCD_DrawCircle(Xpos, Ypos, Radius);
 3661              		.loc 1 1160 0
 3662 00ae 084B     		ldr	r3, .L286
 3663 00b0 1B68     		ldr	r3, [r3]
 3664 00b2 03EB4303 		add	r3, r3, r3, lsl #1
 3665 00b6 9A00     		lsls	r2, r3, #2
 3666 00b8 064B     		ldr	r3, .L286+4
 3667 00ba 9858     		ldr	r0, [r3, r2]
 3668 00bc FFF7FEFF 		bl	BSP_LCD_SetTextColor
 3669              	.LVL408:
1161:Drivers/BSP/STM32746G-Discovery/stm32746g_discovery_lcd.c **** }
 3670              		.loc 1 1161 0
 3671 00c0 019A     		ldr	r2, [sp, #4]
 3672 00c2 4946     		mov	r1, r9
 3673 00c4 5046     		mov	r0, r10
 3674 00c6 FFF7FEFF 		bl	BSP_LCD_DrawCircle
 3675              	.LVL409:
1162:Drivers/BSP/STM32746G-Discovery/stm32746g_discovery_lcd.c **** 
 3676              		.loc 1 1162 0
 3677 00ca 03B0     		add	sp, sp, #12
 3678              	.LCFI69:
 3679              		.cfi_def_cfa_offset 36
 3680              		@ sp needed
 3681 00cc BDE8F08F 		pop	{r4, r5, r6, r7, r8, r9, r10, fp, pc}
 3682              	.LVL410:
 3683              	.L287:
 3684              		.align	2
 3685              	.L286:
 3686 00d0 00000000 		.word	.LANCHOR1
 3687 00d4 00000000 		.word	.LANCHOR2
 3688              		.cfi_endproc
 3689              	.LFE182:
 3691              		.section	.text.BSP_LCD_FillPolygon,"ax",%progbits
 3692              		.align	1
 3693              		.global	BSP_LCD_FillPolygon
 3694              		.syntax unified
 3695              		.thumb
 3696              		.thumb_func
 3697              		.fpu fpv5-sp-d16
 3699              	BSP_LCD_FillPolygon:
 3700              	.LFB183:
1171:Drivers/BSP/STM32746G-Discovery/stm32746g_discovery_lcd.c ****   int16_t X = 0, Y = 0, X2 = 0, Y2 = 0, X_center = 0, Y_center = 0, X_first = 0, Y_first = 0, pixel
ARM GAS  C:\Users\milek\AppData\Local\Temp\ccMSPWBt.s 			page 100


 3701              		.loc 1 1171 0
 3702              		.cfi_startproc
 3703              		@ args = 0, pretend = 0, frame = 24
 3704              		@ frame_needed = 0, uses_anonymous_args = 0
 3705              	.LVL411:
 3706 0000 2DE9F04F 		push	{r4, r5, r6, r7, r8, r9, r10, fp, lr}
 3707              	.LCFI70:
 3708              		.cfi_def_cfa_offset 36
 3709              		.cfi_offset 4, -36
 3710              		.cfi_offset 5, -32
 3711              		.cfi_offset 6, -28
 3712              		.cfi_offset 7, -24
 3713              		.cfi_offset 8, -20
 3714              		.cfi_offset 9, -16
 3715              		.cfi_offset 10, -12
 3716              		.cfi_offset 11, -8
 3717              		.cfi_offset 14, -4
 3718 0004 89B0     		sub	sp, sp, #36
 3719              	.LCFI71:
 3720              		.cfi_def_cfa_offset 72
 3721 0006 0446     		mov	r4, r0
 3722 0008 0D46     		mov	r5, r1
 3723              	.LVL412:
1175:Drivers/BSP/STM32746G-Discovery/stm32746g_discovery_lcd.c ****   image_top= image_bottom = Points->Y;
 3724              		.loc 1 1175 0
 3725 000a B0F90030 		ldrsh	r3, [r0]
 3726 000e 9AB2     		uxth	r2, r3
 3727 0010 0692     		str	r2, [sp, #24]
 3728              	.LVL413:
1176:Drivers/BSP/STM32746G-Discovery/stm32746g_discovery_lcd.c ****   
 3729              		.loc 1 1176 0
 3730 0012 B0F90230 		ldrsh	r3, [r0, #2]
 3731 0016 9BB2     		uxth	r3, r3
 3732 0018 0793     		str	r3, [sp, #28]
 3733              	.LVL414:
 3734 001a 1946     		mov	r1, r3
 3735              	.LVL415:
 3736 001c 1F46     		mov	r7, r3
1175:Drivers/BSP/STM32746G-Discovery/stm32746g_discovery_lcd.c ****   image_top= image_bottom = Points->Y;
 3737              		.loc 1 1175 0
 3738 001e 9446     		mov	ip, r2
 3739 0020 1046     		mov	r0, r2
 3740              	.LVL416:
1178:Drivers/BSP/STM32746G-Discovery/stm32746g_discovery_lcd.c ****   {
 3741              		.loc 1 1178 0
 3742 0022 0123     		movs	r3, #1
 3743              	.LVL417:
 3744 0024 01E0     		b	.L289
 3745              	.LVL418:
 3746              	.L293:
1178:Drivers/BSP/STM32746G-Discovery/stm32746g_discovery_lcd.c ****   {
 3747              		.loc 1 1178 0 is_stmt 0 discriminator 2
 3748 0026 0133     		adds	r3, r3, #1
 3749              	.LVL419:
 3750 0028 1BB2     		sxth	r3, r3
 3751              	.LVL420:
 3752              	.L289:
ARM GAS  C:\Users\milek\AppData\Local\Temp\ccMSPWBt.s 			page 101


1178:Drivers/BSP/STM32746G-Discovery/stm32746g_discovery_lcd.c ****   {
 3753              		.loc 1 1178 0 discriminator 1
 3754 002a AB42     		cmp	r3, r5
 3755 002c 13DA     		bge	.L301
1180:Drivers/BSP/STM32746G-Discovery/stm32746g_discovery_lcd.c ****     if(pixelX < image_left)
 3756              		.loc 1 1180 0 is_stmt 1
 3757 002e 04EB8306 		add	r6, r4, r3, lsl #2
 3758 0032 34F92320 		ldrsh	r2, [r4, r3, lsl #2]
 3759              	.LVL421:
1181:Drivers/BSP/STM32746G-Discovery/stm32746g_discovery_lcd.c ****     {
 3760              		.loc 1 1181 0
 3761 0036 8242     		cmp	r2, r0
 3762 0038 00DA     		bge	.L290
1183:Drivers/BSP/STM32746G-Discovery/stm32746g_discovery_lcd.c ****     }
 3763              		.loc 1 1183 0
 3764 003a 90B2     		uxth	r0, r2
 3765              	.LVL422:
 3766              	.L290:
1185:Drivers/BSP/STM32746G-Discovery/stm32746g_discovery_lcd.c ****     {
 3767              		.loc 1 1185 0
 3768 003c 6245     		cmp	r2, ip
 3769 003e 01DD     		ble	.L291
1187:Drivers/BSP/STM32746G-Discovery/stm32746g_discovery_lcd.c ****     }
 3770              		.loc 1 1187 0
 3771 0040 1FFA82FC 		uxth	ip, r2
 3772              	.LVL423:
 3773              	.L291:
1190:Drivers/BSP/STM32746G-Discovery/stm32746g_discovery_lcd.c ****     if(pixelY < image_top)
 3774              		.loc 1 1190 0
 3775 0044 B6F90220 		ldrsh	r2, [r6, #2]
 3776              	.LVL424:
1191:Drivers/BSP/STM32746G-Discovery/stm32746g_discovery_lcd.c ****     { 
 3777              		.loc 1 1191 0
 3778 0048 BA42     		cmp	r2, r7
 3779 004a 00DA     		bge	.L292
1193:Drivers/BSP/STM32746G-Discovery/stm32746g_discovery_lcd.c ****     }
 3780              		.loc 1 1193 0
 3781 004c 97B2     		uxth	r7, r2
 3782              	.LVL425:
 3783              	.L292:
1195:Drivers/BSP/STM32746G-Discovery/stm32746g_discovery_lcd.c ****     {
 3784              		.loc 1 1195 0
 3785 004e 8A42     		cmp	r2, r1
 3786 0050 E9DD     		ble	.L293
1197:Drivers/BSP/STM32746G-Discovery/stm32746g_discovery_lcd.c ****     }
 3787              		.loc 1 1197 0
 3788 0052 91B2     		uxth	r1, r2
 3789              	.LVL426:
 3790 0054 E7E7     		b	.L293
 3791              	.LVL427:
 3792              	.L301:
1201:Drivers/BSP/STM32746G-Discovery/stm32746g_discovery_lcd.c ****   {
 3793              		.loc 1 1201 0
 3794 0056 012D     		cmp	r5, #1
 3795 0058 64D9     		bls	.L288
1206:Drivers/BSP/STM32746G-Discovery/stm32746g_discovery_lcd.c ****   Y_center = (image_bottom + image_top)/2;
 3796              		.loc 1 1206 0
ARM GAS  C:\Users\milek\AppData\Local\Temp\ccMSPWBt.s 			page 102


 3797 005a 6044     		add	r0, r0, ip
 3798              	.LVL428:
 3799 005c 4310     		asrs	r3, r0, #1
 3800              	.LVL429:
 3801 005e 0293     		str	r3, [sp, #8]
 3802              	.LVL430:
1207:Drivers/BSP/STM32746G-Discovery/stm32746g_discovery_lcd.c ****   
 3803              		.loc 1 1207 0
 3804 0060 3944     		add	r1, r1, r7
 3805              	.LVL431:
 3806 0062 4B10     		asrs	r3, r1, #1
 3807 0064 0393     		str	r3, [sp, #12]
 3808              	.LVL432:
1172:Drivers/BSP/STM32746G-Discovery/stm32746g_discovery_lcd.c ****   uint16_t  image_left = 0, image_right = 0, image_top = 0, image_bottom = 0;
 3809              		.loc 1 1172 0
 3810 0066 0023     		movs	r3, #0
 3811 0068 0593     		str	r3, [sp, #20]
 3812 006a 0493     		str	r3, [sp, #16]
 3813 006c A046     		mov	r8, r4
1212:Drivers/BSP/STM32746G-Discovery/stm32746g_discovery_lcd.c ****   {
 3814              		.loc 1 1212 0
 3815 006e 30E0     		b	.L298
 3816              	.LVL433:
 3817              	.L299:
1214:Drivers/BSP/STM32746G-Discovery/stm32746g_discovery_lcd.c ****     Y = Points->Y;
 3818              		.loc 1 1214 0
 3819 0070 B8F90070 		ldrsh	r7, [r8]
 3820              	.LVL434:
1215:Drivers/BSP/STM32746G-Discovery/stm32746g_discovery_lcd.c ****     Points++;
 3821              		.loc 1 1215 0
 3822 0074 B8F90240 		ldrsh	r4, [r8, #2]
 3823              	.LVL435:
1217:Drivers/BSP/STM32746G-Discovery/stm32746g_discovery_lcd.c ****     Y2 = Points->Y;    
 3824              		.loc 1 1217 0
 3825 0078 38F9043F 		ldrsh	r3, [r8, #4]!
 3826              	.LVL436:
 3827 007c 0493     		str	r3, [sp, #16]
 3828              	.LVL437:
1218:Drivers/BSP/STM32746G-Discovery/stm32746g_discovery_lcd.c ****     
 3829              		.loc 1 1218 0
 3830 007e B8F90220 		ldrsh	r2, [r8, #2]
 3831 0082 0592     		str	r2, [sp, #20]
 3832              	.LVL438:
1220:Drivers/BSP/STM32746G-Discovery/stm32746g_discovery_lcd.c ****     FillTriangle(X, X_center, X2, Y, Y_center, Y2);
 3833              		.loc 1 1220 0
 3834 0084 BFB2     		uxth	r7, r7
 3835 0086 1FFA83F9 		uxth	r9, r3
 3836 008a BDF80860 		ldrh	r6, [sp, #8]
 3837 008e A4B2     		uxth	r4, r4
 3838 0090 1FFA82FB 		uxth	fp, r2
 3839 0094 BDF80CA0 		ldrh	r10, [sp, #12]
 3840 0098 CDF804A0 		str	r10, [sp, #4]
 3841 009c CDF800B0 		str	fp, [sp]
 3842 00a0 2346     		mov	r3, r4
 3843              	.LVL439:
 3844 00a2 3246     		mov	r2, r6
 3845              	.LVL440:
ARM GAS  C:\Users\milek\AppData\Local\Temp\ccMSPWBt.s 			page 103


 3846 00a4 4946     		mov	r1, r9
 3847 00a6 3846     		mov	r0, r7
 3848 00a8 FFF7FEFF 		bl	FillTriangle
 3849              	.LVL441:
1221:Drivers/BSP/STM32746G-Discovery/stm32746g_discovery_lcd.c ****     FillTriangle(X_center, X2, X, Y_center, Y2, Y);   
 3850              		.loc 1 1221 0
 3851 00ac CDF804B0 		str	fp, [sp, #4]
 3852 00b0 CDF800A0 		str	r10, [sp]
 3853 00b4 2346     		mov	r3, r4
 3854 00b6 4A46     		mov	r2, r9
 3855 00b8 3146     		mov	r1, r6
 3856 00ba 3846     		mov	r0, r7
 3857 00bc FFF7FEFF 		bl	FillTriangle
 3858              	.LVL442:
1222:Drivers/BSP/STM32746G-Discovery/stm32746g_discovery_lcd.c ****   }
 3859              		.loc 1 1222 0
 3860 00c0 0194     		str	r4, [sp, #4]
 3861 00c2 CDF800B0 		str	fp, [sp]
 3862 00c6 5346     		mov	r3, r10
 3863 00c8 3A46     		mov	r2, r7
 3864 00ca 4946     		mov	r1, r9
 3865 00cc 3046     		mov	r0, r6
 3866 00ce FFF7FEFF 		bl	FillTriangle
 3867              	.LVL443:
 3868              	.L298:
1212:Drivers/BSP/STM32746G-Discovery/stm32746g_discovery_lcd.c ****   {
 3869              		.loc 1 1212 0
 3870 00d2 013D     		subs	r5, r5, #1
 3871              	.LVL444:
 3872 00d4 ADB2     		uxth	r5, r5
 3873              	.LVL445:
 3874 00d6 002D     		cmp	r5, #0
 3875 00d8 CAD1     		bne	.L299
1225:Drivers/BSP/STM32746G-Discovery/stm32746g_discovery_lcd.c ****   FillTriangle(X_first, X_center, X2, Y_first, Y_center, Y2);
 3876              		.loc 1 1225 0
 3877 00da BDF81060 		ldrh	r6, [sp, #16]
 3878 00de BDF80850 		ldrh	r5, [sp, #8]
 3879              	.LVL446:
 3880 00e2 BDF81440 		ldrh	r4, [sp, #20]
 3881 00e6 BDF80C70 		ldrh	r7, [sp, #12]
 3882 00ea 0197     		str	r7, [sp, #4]
 3883 00ec 0094     		str	r4, [sp]
 3884 00ee DDF81C90 		ldr	r9, [sp, #28]
 3885 00f2 4B46     		mov	r3, r9
 3886 00f4 2A46     		mov	r2, r5
 3887 00f6 3146     		mov	r1, r6
 3888 00f8 DDF81880 		ldr	r8, [sp, #24]
 3889              	.LVL447:
 3890 00fc 4046     		mov	r0, r8
 3891 00fe FFF7FEFF 		bl	FillTriangle
 3892              	.LVL448:
1226:Drivers/BSP/STM32746G-Discovery/stm32746g_discovery_lcd.c ****   FillTriangle(X_center, X2, X_first, Y_center, Y2, Y_first);   
 3893              		.loc 1 1226 0
 3894 0102 0194     		str	r4, [sp, #4]
 3895 0104 0097     		str	r7, [sp]
 3896 0106 4B46     		mov	r3, r9
 3897 0108 3246     		mov	r2, r6
ARM GAS  C:\Users\milek\AppData\Local\Temp\ccMSPWBt.s 			page 104


 3898 010a 2946     		mov	r1, r5
 3899 010c 4046     		mov	r0, r8
 3900 010e FFF7FEFF 		bl	FillTriangle
 3901              	.LVL449:
1227:Drivers/BSP/STM32746G-Discovery/stm32746g_discovery_lcd.c **** }
 3902              		.loc 1 1227 0
 3903 0112 CDF80490 		str	r9, [sp, #4]
 3904 0116 0094     		str	r4, [sp]
 3905 0118 3B46     		mov	r3, r7
 3906 011a 4246     		mov	r2, r8
 3907 011c 3146     		mov	r1, r6
 3908 011e 2846     		mov	r0, r5
 3909 0120 FFF7FEFF 		bl	FillTriangle
 3910              	.LVL450:
 3911              	.L288:
1228:Drivers/BSP/STM32746G-Discovery/stm32746g_discovery_lcd.c **** 
 3912              		.loc 1 1228 0
 3913 0124 09B0     		add	sp, sp, #36
 3914              	.LCFI72:
 3915              		.cfi_def_cfa_offset 36
 3916              		@ sp needed
 3917 0126 BDE8F08F 		pop	{r4, r5, r6, r7, r8, r9, r10, fp, pc}
 3918              		.cfi_endproc
 3919              	.LFE183:
 3921              		.section	.text.BSP_LCD_FillEllipse,"ax",%progbits
 3922              		.align	1
 3923              		.global	BSP_LCD_FillEllipse
 3924              		.syntax unified
 3925              		.thumb
 3926              		.thumb_func
 3927              		.fpu fpv5-sp-d16
 3929              	BSP_LCD_FillEllipse:
 3930              	.LFB184:
1239:Drivers/BSP/STM32746G-Discovery/stm32746g_discovery_lcd.c ****   int x = 0, y = -YRadius, err = 2-2*XRadius, e2;
 3931              		.loc 1 1239 0
 3932              		.cfi_startproc
 3933              		@ args = 0, pretend = 0, frame = 8
 3934              		@ frame_needed = 0, uses_anonymous_args = 0
 3935              	.LVL451:
 3936 0000 2DE9F04F 		push	{r4, r5, r6, r7, r8, r9, r10, fp, lr}
 3937              	.LCFI73:
 3938              		.cfi_def_cfa_offset 36
 3939              		.cfi_offset 4, -36
 3940              		.cfi_offset 5, -32
 3941              		.cfi_offset 6, -28
 3942              		.cfi_offset 7, -24
 3943              		.cfi_offset 8, -20
 3944              		.cfi_offset 9, -16
 3945              		.cfi_offset 10, -12
 3946              		.cfi_offset 11, -8
 3947              		.cfi_offset 14, -4
 3948 0004 2DED028B 		vpush.64	{d8}
 3949              	.LCFI74:
 3950              		.cfi_def_cfa_offset 44
 3951              		.cfi_offset 80, -44
 3952              		.cfi_offset 81, -40
 3953 0008 83B0     		sub	sp, sp, #12
ARM GAS  C:\Users\milek\AppData\Local\Temp\ccMSPWBt.s 			page 105


 3954              	.LCFI75:
 3955              		.cfi_def_cfa_offset 56
 3956 000a 8346     		mov	fp, r0
 3957 000c 0191     		str	r1, [sp, #4]
 3958              	.LVL452:
1240:Drivers/BSP/STM32746G-Discovery/stm32746g_discovery_lcd.c ****   float k = 0, rad1 = 0, rad2 = 0;
 3959              		.loc 1 1240 0
 3960 000e 5F42     		negs	r7, r3
 3961              	.LVL453:
 3962 0010 C2F10106 		rsb	r6, r2, #1
 3963 0014 7600     		lsls	r6, r6, #1
 3964              	.LVL454:
1243:Drivers/BSP/STM32746G-Discovery/stm32746g_discovery_lcd.c ****   rad2 = YRadius;
 3965              		.loc 1 1243 0
 3966 0016 07EE902A 		vmov	s15, r2	@ int
 3967 001a F8EEE77A 		vcvt.f32.s32	s15, s15
 3968              	.LVL455:
1244:Drivers/BSP/STM32746G-Discovery/stm32746g_discovery_lcd.c ****   
 3969              		.loc 1 1244 0
 3970 001e 07EE103A 		vmov	s14, r3	@ int
 3971 0022 B8EEC77A 		vcvt.f32.s32	s14, s14
 3972              	.LVL456:
1246:Drivers/BSP/STM32746G-Discovery/stm32746g_discovery_lcd.c ****   
 3973              		.loc 1 1246 0
 3974 0026 87EE278A 		vdiv.f32	s16, s14, s15
 3975              	.LVL457:
1240:Drivers/BSP/STM32746G-Discovery/stm32746g_discovery_lcd.c ****   float k = 0, rad1 = 0, rad2 = 0;
 3976              		.loc 1 1240 0
 3977 002a 4FF0000A 		mov	r10, #0
 3978 002e 08E0     		b	.L305
 3979              	.LVL458:
 3980              	.L306:
 3981 0030 3346     		mov	r3, r6
 3982              	.LVL459:
 3983              	.L303:
1259:Drivers/BSP/STM32746G-Discovery/stm32746g_discovery_lcd.c ****   }
 3984              		.loc 1 1259 0
 3985 0032 B742     		cmp	r7, r6
 3986 0034 38DA     		bge	.L308
1259:Drivers/BSP/STM32746G-Discovery/stm32746g_discovery_lcd.c ****   }
 3987              		.loc 1 1259 0 is_stmt 0 discriminator 1
 3988 0036 0137     		adds	r7, r7, #1
 3989              	.LVL460:
 3990 0038 7E00     		lsls	r6, r7, #1
 3991              	.LVL461:
 3992 003a 0136     		adds	r6, r6, #1
 3993 003c 1E44     		add	r6, r6, r3
 3994              	.LVL462:
 3995              	.L304:
1261:Drivers/BSP/STM32746G-Discovery/stm32746g_discovery_lcd.c **** }
 3996              		.loc 1 1261 0 is_stmt 1
 3997 003e 002F     		cmp	r7, #0
 3998 0040 34DC     		bgt	.L310
 3999              	.LVL463:
 4000              	.L305:
1250:Drivers/BSP/STM32746G-Discovery/stm32746g_discovery_lcd.c ****     BSP_LCD_DrawHLine((Xpos-(uint16_t)(x/k)), (Ypos-y), (2*(uint16_t)(x/k) + 1));
 4001              		.loc 1 1250 0
ARM GAS  C:\Users\milek\AppData\Local\Temp\ccMSPWBt.s 			page 106


 4002 0042 07EE90AA 		vmov	s15, r10	@ int
 4003 0046 B8EEE77A 		vcvt.f32.s32	s14, s15
 4004 004a C7EE087A 		vdiv.f32	s15, s14, s16
 4005 004e FCEEE77A 		vcvt.u32.f32	s15, s15
 4006 0052 17EE903A 		vmov	r3, s15	@ int
 4007 0056 9CB2     		uxth	r4, r3
 4008 0058 ABEB0408 		sub	r8, fp, r4
 4009 005c 1FFA88F8 		uxth	r8, r8
 4010 0060 BDF80450 		ldrh	r5, [sp, #4]
 4011 0064 1FFA87F9 		uxth	r9, r7
 4012 0068 6400     		lsls	r4, r4, #1
 4013 006a 0134     		adds	r4, r4, #1
 4014 006c A4B2     		uxth	r4, r4
 4015 006e 05EB0901 		add	r1, r5, r9
 4016 0072 2246     		mov	r2, r4
 4017 0074 89B2     		uxth	r1, r1
 4018 0076 4046     		mov	r0, r8
 4019 0078 FFF7FEFF 		bl	BSP_LCD_DrawHLine
 4020              	.LVL464:
1251:Drivers/BSP/STM32746G-Discovery/stm32746g_discovery_lcd.c ****     
 4021              		.loc 1 1251 0
 4022 007c A5EB0901 		sub	r1, r5, r9
 4023 0080 2246     		mov	r2, r4
 4024 0082 89B2     		uxth	r1, r1
 4025 0084 4046     		mov	r0, r8
 4026 0086 FFF7FEFF 		bl	BSP_LCD_DrawHLine
 4027              	.LVL465:
1254:Drivers/BSP/STM32746G-Discovery/stm32746g_discovery_lcd.c ****     {
 4028              		.loc 1 1254 0
 4029 008a B245     		cmp	r10, r6
 4030 008c D0DB     		blt	.L306
1256:Drivers/BSP/STM32746G-Discovery/stm32746g_discovery_lcd.c ****       if (-y == x && e2 <= y) e2 = 0;
 4031              		.loc 1 1256 0
 4032 008e 0AF1010A 		add	r10, r10, #1
 4033              	.LVL466:
 4034 0092 4FEA4A03 		lsl	r3, r10, #1
 4035 0096 0133     		adds	r3, r3, #1
 4036 0098 3344     		add	r3, r3, r6
 4037              	.LVL467:
1257:Drivers/BSP/STM32746G-Discovery/stm32746g_discovery_lcd.c ****     }
 4038              		.loc 1 1257 0
 4039 009a 1AEB070F 		cmn	r10, r7
 4040 009e C8D1     		bne	.L303
1257:Drivers/BSP/STM32746G-Discovery/stm32746g_discovery_lcd.c ****     }
 4041              		.loc 1 1257 0 is_stmt 0 discriminator 1
 4042 00a0 B742     		cmp	r7, r6
 4043 00a2 C6DB     		blt	.L303
1257:Drivers/BSP/STM32746G-Discovery/stm32746g_discovery_lcd.c ****     }
 4044              		.loc 1 1257 0
 4045 00a4 0026     		movs	r6, #0
 4046              	.LVL468:
 4047 00a6 C4E7     		b	.L303
 4048              	.LVL469:
 4049              	.L308:
 4050 00a8 1E46     		mov	r6, r3
 4051              	.LVL470:
 4052 00aa C8E7     		b	.L304
ARM GAS  C:\Users\milek\AppData\Local\Temp\ccMSPWBt.s 			page 107


 4053              	.LVL471:
 4054              	.L310:
1262:Drivers/BSP/STM32746G-Discovery/stm32746g_discovery_lcd.c **** 
 4055              		.loc 1 1262 0 is_stmt 1
 4056 00ac 03B0     		add	sp, sp, #12
 4057              	.LCFI76:
 4058              		.cfi_def_cfa_offset 44
 4059              		@ sp needed
 4060 00ae BDEC028B 		vldm	sp!, {d8}
 4061              	.LCFI77:
 4062              		.cfi_restore 80
 4063              		.cfi_restore 81
 4064              		.cfi_def_cfa_offset 36
 4065              	.LVL472:
 4066 00b2 BDE8F08F 		pop	{r4, r5, r6, r7, r8, r9, r10, fp, pc}
 4067              		.cfi_endproc
 4068              	.LFE184:
 4070              		.section	.text.BSP_LCD_DisplayOn,"ax",%progbits
 4071              		.align	1
 4072              		.global	BSP_LCD_DisplayOn
 4073              		.syntax unified
 4074              		.thumb
 4075              		.thumb_func
 4076              		.fpu fpv5-sp-d16
 4078              	BSP_LCD_DisplayOn:
 4079              	.LFB185:
1269:Drivers/BSP/STM32746G-Discovery/stm32746g_discovery_lcd.c ****   /* Display On */
 4080              		.loc 1 1269 0
 4081              		.cfi_startproc
 4082              		@ args = 0, pretend = 0, frame = 0
 4083              		@ frame_needed = 0, uses_anonymous_args = 0
 4084 0000 08B5     		push	{r3, lr}
 4085              	.LCFI78:
 4086              		.cfi_def_cfa_offset 8
 4087              		.cfi_offset 3, -8
 4088              		.cfi_offset 14, -4
1271:Drivers/BSP/STM32746G-Discovery/stm32746g_discovery_lcd.c ****   HAL_GPIO_WritePin(LCD_DISP_GPIO_PORT, LCD_DISP_PIN, GPIO_PIN_SET);        /* Assert LCD_DISP pin 
 4089              		.loc 1 1271 0
 4090 0002 094B     		ldr	r3, .L313
 4091 0004 1A68     		ldr	r2, [r3]
 4092 0006 9369     		ldr	r3, [r2, #24]
 4093 0008 43F00103 		orr	r3, r3, #1
 4094 000c 9361     		str	r3, [r2, #24]
1272:Drivers/BSP/STM32746G-Discovery/stm32746g_discovery_lcd.c ****   HAL_GPIO_WritePin(LCD_BL_CTRL_GPIO_PORT, LCD_BL_CTRL_PIN, GPIO_PIN_SET);  /* Assert LCD_BL_CTRL p
 4095              		.loc 1 1272 0
 4096 000e 0122     		movs	r2, #1
 4097 0010 4FF48051 		mov	r1, #4096
 4098 0014 0548     		ldr	r0, .L313+4
 4099 0016 FFF7FEFF 		bl	HAL_GPIO_WritePin
 4100              	.LVL473:
1273:Drivers/BSP/STM32746G-Discovery/stm32746g_discovery_lcd.c **** }
 4101              		.loc 1 1273 0
 4102 001a 0122     		movs	r2, #1
 4103 001c 0821     		movs	r1, #8
 4104 001e 0448     		ldr	r0, .L313+8
 4105 0020 FFF7FEFF 		bl	HAL_GPIO_WritePin
 4106              	.LVL474:
ARM GAS  C:\Users\milek\AppData\Local\Temp\ccMSPWBt.s 			page 108


1274:Drivers/BSP/STM32746G-Discovery/stm32746g_discovery_lcd.c **** 
 4107              		.loc 1 1274 0
 4108 0024 08BD     		pop	{r3, pc}
 4109              	.L314:
 4110 0026 00BF     		.align	2
 4111              	.L313:
 4112 0028 00000000 		.word	hLtdcHandler
 4113 002c 00200240 		.word	1073881088
 4114 0030 00280240 		.word	1073883136
 4115              		.cfi_endproc
 4116              	.LFE185:
 4118              		.section	.text.BSP_LCD_DisplayOff,"ax",%progbits
 4119              		.align	1
 4120              		.global	BSP_LCD_DisplayOff
 4121              		.syntax unified
 4122              		.thumb
 4123              		.thumb_func
 4124              		.fpu fpv5-sp-d16
 4126              	BSP_LCD_DisplayOff:
 4127              	.LFB186:
1281:Drivers/BSP/STM32746G-Discovery/stm32746g_discovery_lcd.c ****   /* Display Off */
 4128              		.loc 1 1281 0
 4129              		.cfi_startproc
 4130              		@ args = 0, pretend = 0, frame = 0
 4131              		@ frame_needed = 0, uses_anonymous_args = 0
 4132 0000 08B5     		push	{r3, lr}
 4133              	.LCFI79:
 4134              		.cfi_def_cfa_offset 8
 4135              		.cfi_offset 3, -8
 4136              		.cfi_offset 14, -4
1283:Drivers/BSP/STM32746G-Discovery/stm32746g_discovery_lcd.c ****   HAL_GPIO_WritePin(LCD_DISP_GPIO_PORT, LCD_DISP_PIN, GPIO_PIN_RESET);      /* De-assert LCD_DISP p
 4137              		.loc 1 1283 0
 4138 0002 094B     		ldr	r3, .L317
 4139 0004 1A68     		ldr	r2, [r3]
 4140 0006 9369     		ldr	r3, [r2, #24]
 4141 0008 23F00103 		bic	r3, r3, #1
 4142 000c 9361     		str	r3, [r2, #24]
1284:Drivers/BSP/STM32746G-Discovery/stm32746g_discovery_lcd.c ****   HAL_GPIO_WritePin(LCD_BL_CTRL_GPIO_PORT, LCD_BL_CTRL_PIN, GPIO_PIN_RESET);/* De-assert LCD_BL_CTR
 4143              		.loc 1 1284 0
 4144 000e 0022     		movs	r2, #0
 4145 0010 4FF48051 		mov	r1, #4096
 4146 0014 0548     		ldr	r0, .L317+4
 4147 0016 FFF7FEFF 		bl	HAL_GPIO_WritePin
 4148              	.LVL475:
1285:Drivers/BSP/STM32746G-Discovery/stm32746g_discovery_lcd.c **** }
 4149              		.loc 1 1285 0
 4150 001a 0022     		movs	r2, #0
 4151 001c 0821     		movs	r1, #8
 4152 001e 0448     		ldr	r0, .L317+8
 4153 0020 FFF7FEFF 		bl	HAL_GPIO_WritePin
 4154              	.LVL476:
1286:Drivers/BSP/STM32746G-Discovery/stm32746g_discovery_lcd.c **** 
 4155              		.loc 1 1286 0
 4156 0024 08BD     		pop	{r3, pc}
 4157              	.L318:
 4158 0026 00BF     		.align	2
 4159              	.L317:
ARM GAS  C:\Users\milek\AppData\Local\Temp\ccMSPWBt.s 			page 109


 4160 0028 00000000 		.word	hLtdcHandler
 4161 002c 00200240 		.word	1073881088
 4162 0030 00280240 		.word	1073883136
 4163              		.cfi_endproc
 4164              	.LFE186:
 4166              		.section	.text.BSP_LCD_MspInit,"ax",%progbits
 4167              		.align	1
 4168              		.weak	BSP_LCD_MspInit
 4169              		.syntax unified
 4170              		.thumb
 4171              		.thumb_func
 4172              		.fpu fpv5-sp-d16
 4174              	BSP_LCD_MspInit:
 4175              	.LFB187:
1295:Drivers/BSP/STM32746G-Discovery/stm32746g_discovery_lcd.c ****   GPIO_InitTypeDef gpio_init_structure;
 4176              		.loc 1 1295 0
 4177              		.cfi_startproc
 4178              		@ args = 0, pretend = 0, frame = 56
 4179              		@ frame_needed = 0, uses_anonymous_args = 0
 4180              	.LVL477:
 4181 0000 F0B5     		push	{r4, r5, r6, r7, lr}
 4182              	.LCFI80:
 4183              		.cfi_def_cfa_offset 20
 4184              		.cfi_offset 4, -20
 4185              		.cfi_offset 5, -16
 4186              		.cfi_offset 6, -12
 4187              		.cfi_offset 7, -8
 4188              		.cfi_offset 14, -4
 4189 0002 8FB0     		sub	sp, sp, #60
 4190              	.LCFI81:
 4191              		.cfi_def_cfa_offset 80
 4192              	.LBB2:
1299:Drivers/BSP/STM32746G-Discovery/stm32746g_discovery_lcd.c ****   __HAL_RCC_DMA2D_CLK_ENABLE();
 4193              		.loc 1 1299 0
 4194 0004 4A4B     		ldr	r3, .L321
 4195 0006 5A6C     		ldr	r2, [r3, #68]
 4196 0008 42F08062 		orr	r2, r2, #67108864
 4197 000c 5A64     		str	r2, [r3, #68]
 4198 000e 5A6C     		ldr	r2, [r3, #68]
 4199 0010 02F08062 		and	r2, r2, #67108864
 4200 0014 0092     		str	r2, [sp]
 4201 0016 009A     		ldr	r2, [sp]
 4202              	.LBE2:
 4203              	.LBB3:
1300:Drivers/BSP/STM32746G-Discovery/stm32746g_discovery_lcd.c ****   
 4204              		.loc 1 1300 0
 4205 0018 1A6B     		ldr	r2, [r3, #48]
 4206 001a 42F40002 		orr	r2, r2, #8388608
 4207 001e 1A63     		str	r2, [r3, #48]
 4208 0020 1A6B     		ldr	r2, [r3, #48]
 4209 0022 02F40002 		and	r2, r2, #8388608
 4210 0026 0192     		str	r2, [sp, #4]
 4211 0028 019A     		ldr	r2, [sp, #4]
 4212              	.LBE3:
 4213              	.LBB4:
1303:Drivers/BSP/STM32746G-Discovery/stm32746g_discovery_lcd.c ****   __HAL_RCC_GPIOG_CLK_ENABLE();
 4214              		.loc 1 1303 0
ARM GAS  C:\Users\milek\AppData\Local\Temp\ccMSPWBt.s 			page 110


 4215 002a 1A6B     		ldr	r2, [r3, #48]
 4216 002c 42F01002 		orr	r2, r2, #16
 4217 0030 1A63     		str	r2, [r3, #48]
 4218 0032 1A6B     		ldr	r2, [r3, #48]
 4219 0034 02F01002 		and	r2, r2, #16
 4220 0038 0292     		str	r2, [sp, #8]
 4221 003a 029A     		ldr	r2, [sp, #8]
 4222              	.LBE4:
 4223              	.LBB5:
1304:Drivers/BSP/STM32746G-Discovery/stm32746g_discovery_lcd.c ****   __HAL_RCC_GPIOI_CLK_ENABLE();
 4224              		.loc 1 1304 0
 4225 003c 1A6B     		ldr	r2, [r3, #48]
 4226 003e 42F04002 		orr	r2, r2, #64
 4227 0042 1A63     		str	r2, [r3, #48]
 4228 0044 1A6B     		ldr	r2, [r3, #48]
 4229 0046 02F04002 		and	r2, r2, #64
 4230 004a 0392     		str	r2, [sp, #12]
 4231 004c 039A     		ldr	r2, [sp, #12]
 4232              	.LBE5:
 4233              	.LBB6:
1305:Drivers/BSP/STM32746G-Discovery/stm32746g_discovery_lcd.c ****   __HAL_RCC_GPIOJ_CLK_ENABLE();
 4234              		.loc 1 1305 0
 4235 004e 1A6B     		ldr	r2, [r3, #48]
 4236 0050 42F48072 		orr	r2, r2, #256
 4237 0054 1A63     		str	r2, [r3, #48]
 4238 0056 1A6B     		ldr	r2, [r3, #48]
 4239 0058 02F48072 		and	r2, r2, #256
 4240 005c 0492     		str	r2, [sp, #16]
 4241 005e 049A     		ldr	r2, [sp, #16]
 4242              	.LBE6:
 4243              	.LBB7:
1306:Drivers/BSP/STM32746G-Discovery/stm32746g_discovery_lcd.c ****   __HAL_RCC_GPIOK_CLK_ENABLE();
 4244              		.loc 1 1306 0
 4245 0060 1A6B     		ldr	r2, [r3, #48]
 4246 0062 42F40072 		orr	r2, r2, #512
 4247 0066 1A63     		str	r2, [r3, #48]
 4248 0068 1A6B     		ldr	r2, [r3, #48]
 4249 006a 02F40072 		and	r2, r2, #512
 4250 006e 0592     		str	r2, [sp, #20]
 4251 0070 059A     		ldr	r2, [sp, #20]
 4252              	.LBE7:
 4253              	.LBB8:
1307:Drivers/BSP/STM32746G-Discovery/stm32746g_discovery_lcd.c ****   LCD_DISP_GPIO_CLK_ENABLE();
 4254              		.loc 1 1307 0
 4255 0072 1A6B     		ldr	r2, [r3, #48]
 4256 0074 42F48062 		orr	r2, r2, #1024
 4257 0078 1A63     		str	r2, [r3, #48]
 4258 007a 1A6B     		ldr	r2, [r3, #48]
 4259 007c 02F48062 		and	r2, r2, #1024
 4260 0080 0692     		str	r2, [sp, #24]
 4261 0082 069A     		ldr	r2, [sp, #24]
 4262              	.LBE8:
 4263              	.LBB9:
1308:Drivers/BSP/STM32746G-Discovery/stm32746g_discovery_lcd.c ****   LCD_BL_CTRL_GPIO_CLK_ENABLE();
 4264              		.loc 1 1308 0
 4265 0084 1A6B     		ldr	r2, [r3, #48]
 4266 0086 42F48072 		orr	r2, r2, #256
ARM GAS  C:\Users\milek\AppData\Local\Temp\ccMSPWBt.s 			page 111


 4267 008a 1A63     		str	r2, [r3, #48]
 4268 008c 1A6B     		ldr	r2, [r3, #48]
 4269 008e 02F48072 		and	r2, r2, #256
 4270 0092 0792     		str	r2, [sp, #28]
 4271 0094 079A     		ldr	r2, [sp, #28]
 4272              	.LBE9:
 4273              	.LBB10:
1309:Drivers/BSP/STM32746G-Discovery/stm32746g_discovery_lcd.c **** 
 4274              		.loc 1 1309 0
 4275 0096 1A6B     		ldr	r2, [r3, #48]
 4276 0098 42F48062 		orr	r2, r2, #1024
 4277 009c 1A63     		str	r2, [r3, #48]
 4278 009e 1B6B     		ldr	r3, [r3, #48]
 4279 00a0 03F48063 		and	r3, r3, #1024
 4280 00a4 0893     		str	r3, [sp, #32]
 4281 00a6 089B     		ldr	r3, [sp, #32]
 4282              	.LBE10:
1313:Drivers/BSP/STM32746G-Discovery/stm32746g_discovery_lcd.c ****   gpio_init_structure.Mode      = GPIO_MODE_AF_PP;
 4283              		.loc 1 1313 0
 4284 00a8 1023     		movs	r3, #16
 4285 00aa 0993     		str	r3, [sp, #36]
1314:Drivers/BSP/STM32746G-Discovery/stm32746g_discovery_lcd.c ****   gpio_init_structure.Pull      = GPIO_NOPULL;
 4286              		.loc 1 1314 0
 4287 00ac 0224     		movs	r4, #2
 4288 00ae 0A94     		str	r4, [sp, #40]
1315:Drivers/BSP/STM32746G-Discovery/stm32746g_discovery_lcd.c ****   gpio_init_structure.Speed     = GPIO_SPEED_FAST;
 4289              		.loc 1 1315 0
 4290 00b0 0023     		movs	r3, #0
 4291 00b2 0B93     		str	r3, [sp, #44]
1316:Drivers/BSP/STM32746G-Discovery/stm32746g_discovery_lcd.c ****   gpio_init_structure.Alternate = GPIO_AF14_LTDC;  
 4292              		.loc 1 1316 0
 4293 00b4 0C94     		str	r4, [sp, #48]
1317:Drivers/BSP/STM32746G-Discovery/stm32746g_discovery_lcd.c ****   HAL_GPIO_Init(GPIOE, &gpio_init_structure);
 4294              		.loc 1 1317 0
 4295 00b6 0E25     		movs	r5, #14
 4296 00b8 0D95     		str	r5, [sp, #52]
1318:Drivers/BSP/STM32746G-Discovery/stm32746g_discovery_lcd.c **** 
 4297              		.loc 1 1318 0
 4298 00ba 09A9     		add	r1, sp, #36
 4299              	.LVL478:
 4300 00bc 1D48     		ldr	r0, .L321+4
 4301              	.LVL479:
 4302 00be FFF7FEFF 		bl	HAL_GPIO_Init
 4303              	.LVL480:
1321:Drivers/BSP/STM32746G-Discovery/stm32746g_discovery_lcd.c ****   gpio_init_structure.Mode      = GPIO_MODE_AF_PP;
 4304              		.loc 1 1321 0
 4305 00c2 4FF48057 		mov	r7, #4096
 4306 00c6 0997     		str	r7, [sp, #36]
1322:Drivers/BSP/STM32746G-Discovery/stm32746g_discovery_lcd.c ****   gpio_init_structure.Alternate = GPIO_AF9_LTDC;
 4307              		.loc 1 1322 0
 4308 00c8 0A94     		str	r4, [sp, #40]
1323:Drivers/BSP/STM32746G-Discovery/stm32746g_discovery_lcd.c ****   HAL_GPIO_Init(GPIOG, &gpio_init_structure);
 4309              		.loc 1 1323 0
 4310 00ca 0923     		movs	r3, #9
 4311 00cc 0D93     		str	r3, [sp, #52]
1324:Drivers/BSP/STM32746G-Discovery/stm32746g_discovery_lcd.c **** 
 4312              		.loc 1 1324 0
ARM GAS  C:\Users\milek\AppData\Local\Temp\ccMSPWBt.s 			page 112


 4313 00ce 09A9     		add	r1, sp, #36
 4314 00d0 1948     		ldr	r0, .L321+8
 4315 00d2 FFF7FEFF 		bl	HAL_GPIO_Init
 4316              	.LVL481:
1327:Drivers/BSP/STM32746G-Discovery/stm32746g_discovery_lcd.c ****                                   GPIO_PIN_13 | GPIO_PIN_14 | GPIO_PIN_15;
 4317              		.loc 1 1327 0
 4318 00d6 4FF46643 		mov	r3, #58880
 4319 00da 0993     		str	r3, [sp, #36]
1329:Drivers/BSP/STM32746G-Discovery/stm32746g_discovery_lcd.c ****   gpio_init_structure.Alternate = GPIO_AF14_LTDC;
 4320              		.loc 1 1329 0
 4321 00dc 0A94     		str	r4, [sp, #40]
1330:Drivers/BSP/STM32746G-Discovery/stm32746g_discovery_lcd.c ****   HAL_GPIO_Init(GPIOI, &gpio_init_structure);
 4322              		.loc 1 1330 0
 4323 00de 0D95     		str	r5, [sp, #52]
1331:Drivers/BSP/STM32746G-Discovery/stm32746g_discovery_lcd.c **** 
 4324              		.loc 1 1331 0
 4325 00e0 164E     		ldr	r6, .L321+12
 4326 00e2 09A9     		add	r1, sp, #36
 4327 00e4 3046     		mov	r0, r6
 4328 00e6 FFF7FEFF 		bl	HAL_GPIO_Init
 4329              	.LVL482:
1334:Drivers/BSP/STM32746G-Discovery/stm32746g_discovery_lcd.c ****                                   GPIO_PIN_4 | GPIO_PIN_5 | GPIO_PIN_6 | GPIO_PIN_7 | \
 4330              		.loc 1 1334 0
 4331 00ea 4EF6FF73 		movw	r3, #61439
 4332 00ee 0993     		str	r3, [sp, #36]
1338:Drivers/BSP/STM32746G-Discovery/stm32746g_discovery_lcd.c ****   gpio_init_structure.Alternate = GPIO_AF14_LTDC;
 4333              		.loc 1 1338 0
 4334 00f0 0A94     		str	r4, [sp, #40]
1339:Drivers/BSP/STM32746G-Discovery/stm32746g_discovery_lcd.c ****   HAL_GPIO_Init(GPIOJ, &gpio_init_structure);  
 4335              		.loc 1 1339 0
 4336 00f2 0D95     		str	r5, [sp, #52]
1340:Drivers/BSP/STM32746G-Discovery/stm32746g_discovery_lcd.c **** 
 4337              		.loc 1 1340 0
 4338 00f4 09A9     		add	r1, sp, #36
 4339 00f6 1248     		ldr	r0, .L321+16
 4340 00f8 FFF7FEFF 		bl	HAL_GPIO_Init
 4341              	.LVL483:
1343:Drivers/BSP/STM32746G-Discovery/stm32746g_discovery_lcd.c ****                                   GPIO_PIN_5 | GPIO_PIN_6 | GPIO_PIN_7;
 4342              		.loc 1 1343 0
 4343 00fc F723     		movs	r3, #247
 4344 00fe 0993     		str	r3, [sp, #36]
1345:Drivers/BSP/STM32746G-Discovery/stm32746g_discovery_lcd.c ****   gpio_init_structure.Alternate = GPIO_AF14_LTDC;
 4345              		.loc 1 1345 0
 4346 0100 0A94     		str	r4, [sp, #40]
1346:Drivers/BSP/STM32746G-Discovery/stm32746g_discovery_lcd.c ****   HAL_GPIO_Init(GPIOK, &gpio_init_structure);
 4347              		.loc 1 1346 0
 4348 0102 0D95     		str	r5, [sp, #52]
1347:Drivers/BSP/STM32746G-Discovery/stm32746g_discovery_lcd.c **** 
 4349              		.loc 1 1347 0
 4350 0104 0F4C     		ldr	r4, .L321+20
 4351 0106 09A9     		add	r1, sp, #36
 4352 0108 2046     		mov	r0, r4
 4353 010a FFF7FEFF 		bl	HAL_GPIO_Init
 4354              	.LVL484:
1350:Drivers/BSP/STM32746G-Discovery/stm32746g_discovery_lcd.c ****   gpio_init_structure.Mode      = GPIO_MODE_OUTPUT_PP;
 4355              		.loc 1 1350 0
 4356 010e 0997     		str	r7, [sp, #36]
ARM GAS  C:\Users\milek\AppData\Local\Temp\ccMSPWBt.s 			page 113


1351:Drivers/BSP/STM32746G-Discovery/stm32746g_discovery_lcd.c ****   HAL_GPIO_Init(LCD_DISP_GPIO_PORT, &gpio_init_structure);
 4357              		.loc 1 1351 0
 4358 0110 0125     		movs	r5, #1
 4359 0112 0A95     		str	r5, [sp, #40]
1352:Drivers/BSP/STM32746G-Discovery/stm32746g_discovery_lcd.c **** 
 4360              		.loc 1 1352 0
 4361 0114 09A9     		add	r1, sp, #36
 4362 0116 3046     		mov	r0, r6
 4363 0118 FFF7FEFF 		bl	HAL_GPIO_Init
 4364              	.LVL485:
1355:Drivers/BSP/STM32746G-Discovery/stm32746g_discovery_lcd.c ****   gpio_init_structure.Mode      = GPIO_MODE_OUTPUT_PP;
 4365              		.loc 1 1355 0
 4366 011c 0823     		movs	r3, #8
 4367 011e 0993     		str	r3, [sp, #36]
1356:Drivers/BSP/STM32746G-Discovery/stm32746g_discovery_lcd.c ****   HAL_GPIO_Init(LCD_BL_CTRL_GPIO_PORT, &gpio_init_structure);
 4368              		.loc 1 1356 0
 4369 0120 0A95     		str	r5, [sp, #40]
1357:Drivers/BSP/STM32746G-Discovery/stm32746g_discovery_lcd.c **** }
 4370              		.loc 1 1357 0
 4371 0122 09A9     		add	r1, sp, #36
 4372 0124 2046     		mov	r0, r4
 4373 0126 FFF7FEFF 		bl	HAL_GPIO_Init
 4374              	.LVL486:
1358:Drivers/BSP/STM32746G-Discovery/stm32746g_discovery_lcd.c **** 
 4375              		.loc 1 1358 0
 4376 012a 0FB0     		add	sp, sp, #60
 4377              	.LCFI82:
 4378              		.cfi_def_cfa_offset 20
 4379              		@ sp needed
 4380 012c F0BD     		pop	{r4, r5, r6, r7, pc}
 4381              	.L322:
 4382 012e 00BF     		.align	2
 4383              	.L321:
 4384 0130 00380240 		.word	1073887232
 4385 0134 00100240 		.word	1073876992
 4386 0138 00180240 		.word	1073879040
 4387 013c 00200240 		.word	1073881088
 4388 0140 00240240 		.word	1073882112
 4389 0144 00280240 		.word	1073883136
 4390              		.cfi_endproc
 4391              	.LFE187:
 4393              		.section	.text.BSP_LCD_MspDeInit,"ax",%progbits
 4394              		.align	1
 4395              		.weak	BSP_LCD_MspDeInit
 4396              		.syntax unified
 4397              		.thumb
 4398              		.thumb_func
 4399              		.fpu fpv5-sp-d16
 4401              	BSP_LCD_MspDeInit:
 4402              	.LFB188:
1367:Drivers/BSP/STM32746G-Discovery/stm32746g_discovery_lcd.c ****   GPIO_InitTypeDef  gpio_init_structure;
 4403              		.loc 1 1367 0
 4404              		.cfi_startproc
 4405              		@ args = 0, pretend = 0, frame = 0
 4406              		@ frame_needed = 0, uses_anonymous_args = 0
 4407              	.LVL487:
 4408 0000 08B5     		push	{r3, lr}
ARM GAS  C:\Users\milek\AppData\Local\Temp\ccMSPWBt.s 			page 114


 4409              	.LCFI83:
 4410              		.cfi_def_cfa_offset 8
 4411              		.cfi_offset 3, -8
 4412              		.cfi_offset 14, -4
1371:Drivers/BSP/STM32746G-Discovery/stm32746g_discovery_lcd.c **** 
 4413              		.loc 1 1371 0
 4414 0002 0268     		ldr	r2, [r0]
 4415 0004 9369     		ldr	r3, [r2, #24]
 4416 0006 23F00103 		bic	r3, r3, #1
 4417 000a 9361     		str	r3, [r2, #24]
1377:Drivers/BSP/STM32746G-Discovery/stm32746g_discovery_lcd.c **** 
 4418              		.loc 1 1377 0
 4419 000c 1021     		movs	r1, #16
 4420              	.LVL488:
 4421 000e 0E48     		ldr	r0, .L325
 4422              	.LVL489:
 4423 0010 FFF7FEFF 		bl	HAL_GPIO_DeInit
 4424              	.LVL490:
1381:Drivers/BSP/STM32746G-Discovery/stm32746g_discovery_lcd.c **** 
 4425              		.loc 1 1381 0
 4426 0014 4FF48051 		mov	r1, #4096
 4427 0018 0C48     		ldr	r0, .L325+4
 4428 001a FFF7FEFF 		bl	HAL_GPIO_DeInit
 4429              	.LVL491:
1386:Drivers/BSP/STM32746G-Discovery/stm32746g_discovery_lcd.c **** 
 4430              		.loc 1 1386 0
 4431 001e 4FF47741 		mov	r1, #63232
 4432 0022 0B48     		ldr	r0, .L325+8
 4433 0024 FFF7FEFF 		bl	HAL_GPIO_DeInit
 4434              	.LVL492:
1393:Drivers/BSP/STM32746G-Discovery/stm32746g_discovery_lcd.c **** 
 4435              		.loc 1 1393 0
 4436 0028 4EF6FF71 		movw	r1, #61439
 4437 002c 0948     		ldr	r0, .L325+12
 4438 002e FFF7FEFF 		bl	HAL_GPIO_DeInit
 4439              	.LVL493:
1398:Drivers/BSP/STM32746G-Discovery/stm32746g_discovery_lcd.c **** 
 4440              		.loc 1 1398 0
 4441 0032 F721     		movs	r1, #247
 4442 0034 0848     		ldr	r0, .L325+16
 4443 0036 FFF7FEFF 		bl	HAL_GPIO_DeInit
 4444              	.LVL494:
1401:Drivers/BSP/STM32746G-Discovery/stm32746g_discovery_lcd.c **** 
 4445              		.loc 1 1401 0
 4446 003a 084A     		ldr	r2, .L325+20
 4447 003c 536C     		ldr	r3, [r2, #68]
 4448 003e 23F08063 		bic	r3, r3, #67108864
 4449 0042 5364     		str	r3, [r2, #68]
1405:Drivers/BSP/STM32746G-Discovery/stm32746g_discovery_lcd.c **** 
 4450              		.loc 1 1405 0
 4451 0044 08BD     		pop	{r3, pc}
 4452              	.L326:
 4453 0046 00BF     		.align	2
 4454              	.L325:
 4455 0048 00100240 		.word	1073876992
 4456 004c 00180240 		.word	1073879040
 4457 0050 00200240 		.word	1073881088
ARM GAS  C:\Users\milek\AppData\Local\Temp\ccMSPWBt.s 			page 115


 4458 0054 00240240 		.word	1073882112
 4459 0058 00280240 		.word	1073883136
 4460 005c 00380240 		.word	1073887232
 4461              		.cfi_endproc
 4462              	.LFE188:
 4464              		.section	.text.BSP_LCD_DeInit,"ax",%progbits
 4465              		.align	1
 4466              		.global	BSP_LCD_DeInit
 4467              		.syntax unified
 4468              		.thumb
 4469              		.thumb_func
 4470              		.fpu fpv5-sp-d16
 4472              	BSP_LCD_DeInit:
 4473              	.LFB139:
 227:Drivers/BSP/STM32746G-Discovery/stm32746g_discovery_lcd.c ****   /* Initialize the hLtdcHandler Instance parameter */
 4474              		.loc 1 227 0
 4475              		.cfi_startproc
 4476              		@ args = 0, pretend = 0, frame = 0
 4477              		@ frame_needed = 0, uses_anonymous_args = 0
 4478 0000 10B5     		push	{r4, lr}
 4479              	.LCFI84:
 4480              		.cfi_def_cfa_offset 8
 4481              		.cfi_offset 4, -8
 4482              		.cfi_offset 14, -4
 229:Drivers/BSP/STM32746G-Discovery/stm32746g_discovery_lcd.c **** 
 4483              		.loc 1 229 0
 4484 0002 084C     		ldr	r4, .L329
 4485 0004 084B     		ldr	r3, .L329+4
 4486 0006 2360     		str	r3, [r4]
 232:Drivers/BSP/STM32746G-Discovery/stm32746g_discovery_lcd.c **** 
 4487              		.loc 1 232 0
 4488 0008 9A69     		ldr	r2, [r3, #24]
 4489 000a 22F00102 		bic	r2, r2, #1
 4490 000e 9A61     		str	r2, [r3, #24]
 235:Drivers/BSP/STM32746G-Discovery/stm32746g_discovery_lcd.c **** 
 4491              		.loc 1 235 0
 4492 0010 2046     		mov	r0, r4
 4493 0012 FFF7FEFF 		bl	HAL_LTDC_DeInit
 4494              	.LVL495:
 238:Drivers/BSP/STM32746G-Discovery/stm32746g_discovery_lcd.c **** 
 4495              		.loc 1 238 0
 4496 0016 0021     		movs	r1, #0
 4497 0018 2046     		mov	r0, r4
 4498 001a FFF7FEFF 		bl	BSP_LCD_MspDeInit
 4499              	.LVL496:
 241:Drivers/BSP/STM32746G-Discovery/stm32746g_discovery_lcd.c **** 
 4500              		.loc 1 241 0
 4501 001e 0020     		movs	r0, #0
 4502 0020 10BD     		pop	{r4, pc}
 4503              	.L330:
 4504 0022 00BF     		.align	2
 4505              	.L329:
 4506 0024 00000000 		.word	hLtdcHandler
 4507 0028 00680140 		.word	1073833984
 4508              		.cfi_endproc
 4509              	.LFE139:
 4511              		.section	.text.BSP_LCD_ClockConfig,"ax",%progbits
ARM GAS  C:\Users\milek\AppData\Local\Temp\ccMSPWBt.s 			page 116


 4512              		.align	1
 4513              		.weak	BSP_LCD_ClockConfig
 4514              		.syntax unified
 4515              		.thumb
 4516              		.thumb_func
 4517              		.fpu fpv5-sp-d16
 4519              	BSP_LCD_ClockConfig:
 4520              	.LFB189:
1416:Drivers/BSP/STM32746G-Discovery/stm32746g_discovery_lcd.c ****   static RCC_PeriphCLKInitTypeDef  periph_clk_init_struct;
 4521              		.loc 1 1416 0
 4522              		.cfi_startproc
 4523              		@ args = 0, pretend = 0, frame = 0
 4524              		@ frame_needed = 0, uses_anonymous_args = 0
 4525              	.LVL497:
 4526 0000 08B5     		push	{r3, lr}
 4527              	.LCFI85:
 4528              		.cfi_def_cfa_offset 8
 4529              		.cfi_offset 3, -8
 4530              		.cfi_offset 14, -4
1424:Drivers/BSP/STM32746G-Discovery/stm32746g_discovery_lcd.c ****   periph_clk_init_struct.PLLSAI.PLLSAIN = 192;
 4531              		.loc 1 1424 0
 4532 0002 0648     		ldr	r0, .L333
 4533              	.LVL498:
 4534 0004 0823     		movs	r3, #8
 4535 0006 0360     		str	r3, [r0]
1425:Drivers/BSP/STM32746G-Discovery/stm32746g_discovery_lcd.c ****   periph_clk_init_struct.PLLSAI.PLLSAIR = RK043FN48H_FREQUENCY_DIVIDER;
 4536              		.loc 1 1425 0
 4537 0008 C023     		movs	r3, #192
 4538 000a 4361     		str	r3, [r0, #20]
1426:Drivers/BSP/STM32746G-Discovery/stm32746g_discovery_lcd.c ****   periph_clk_init_struct.PLLSAIDivR = RCC_PLLSAIDIVR_4;
 4539              		.loc 1 1426 0
 4540 000c 0523     		movs	r3, #5
 4541 000e C361     		str	r3, [r0, #28]
1427:Drivers/BSP/STM32746G-Discovery/stm32746g_discovery_lcd.c ****   HAL_RCCEx_PeriphCLKConfig(&periph_clk_init_struct);
 4542              		.loc 1 1427 0
 4543 0010 4FF48033 		mov	r3, #65536
 4544 0014 C362     		str	r3, [r0, #44]
1428:Drivers/BSP/STM32746G-Discovery/stm32746g_discovery_lcd.c **** }
 4545              		.loc 1 1428 0
 4546 0016 FFF7FEFF 		bl	HAL_RCCEx_PeriphCLKConfig
 4547              	.LVL499:
1429:Drivers/BSP/STM32746G-Discovery/stm32746g_discovery_lcd.c **** 
 4548              		.loc 1 1429 0
 4549 001a 08BD     		pop	{r3, pc}
 4550              	.L334:
 4551              		.align	2
 4552              	.L333:
 4553 001c 00000000 		.word	.LANCHOR4
 4554              		.cfi_endproc
 4555              	.LFE189:
 4557              		.section	.text.BSP_LCD_Init,"ax",%progbits
 4558              		.align	1
 4559              		.global	BSP_LCD_Init
 4560              		.syntax unified
 4561              		.thumb
 4562              		.thumb_func
 4563              		.fpu fpv5-sp-d16
ARM GAS  C:\Users\milek\AppData\Local\Temp\ccMSPWBt.s 			page 117


 4565              	BSP_LCD_Init:
 4566              	.LFB138:
 165:Drivers/BSP/STM32746G-Discovery/stm32746g_discovery_lcd.c ****   /* Select the used LCD */
 4567              		.loc 1 165 0
 4568              		.cfi_startproc
 4569              		@ args = 0, pretend = 0, frame = 0
 4570              		@ frame_needed = 0, uses_anonymous_args = 0
 4571 0000 10B5     		push	{r4, lr}
 4572              	.LCFI86:
 4573              		.cfi_def_cfa_offset 8
 4574              		.cfi_offset 4, -8
 4575              		.cfi_offset 14, -4
 170:Drivers/BSP/STM32746G-Discovery/stm32746g_discovery_lcd.c ****   hLtdcHandler.Init.VerticalSync = (RK043FN48H_VSYNC - 1);
 4576              		.loc 1 170 0
 4577 0002 254C     		ldr	r4, .L339
 4578 0004 2823     		movs	r3, #40
 4579 0006 6361     		str	r3, [r4, #20]
 171:Drivers/BSP/STM32746G-Discovery/stm32746g_discovery_lcd.c ****   hLtdcHandler.Init.AccumulatedHBP = (RK043FN48H_HSYNC + RK043FN48H_HBP - 1);
 4580              		.loc 1 171 0
 4581 0008 0923     		movs	r3, #9
 4582 000a A361     		str	r3, [r4, #24]
 172:Drivers/BSP/STM32746G-Discovery/stm32746g_discovery_lcd.c ****   hLtdcHandler.Init.AccumulatedVBP = (RK043FN48H_VSYNC + RK043FN48H_VBP - 1);
 4583              		.loc 1 172 0
 4584 000c 3523     		movs	r3, #53
 4585 000e E361     		str	r3, [r4, #28]
 173:Drivers/BSP/STM32746G-Discovery/stm32746g_discovery_lcd.c ****   hLtdcHandler.Init.AccumulatedActiveH = (RK043FN48H_HEIGHT + RK043FN48H_VSYNC + RK043FN48H_VBP - 1
 4586              		.loc 1 173 0
 4587 0010 0B23     		movs	r3, #11
 4588 0012 2362     		str	r3, [r4, #32]
 174:Drivers/BSP/STM32746G-Discovery/stm32746g_discovery_lcd.c ****   hLtdcHandler.Init.AccumulatedActiveW = (RK043FN48H_WIDTH + RK043FN48H_HSYNC + RK043FN48H_HBP - 1)
 4589              		.loc 1 174 0
 4590 0014 40F21B13 		movw	r3, #283
 4591 0018 A362     		str	r3, [r4, #40]
 175:Drivers/BSP/STM32746G-Discovery/stm32746g_discovery_lcd.c ****   hLtdcHandler.Init.TotalHeigh = (RK043FN48H_HEIGHT + RK043FN48H_VSYNC + RK043FN48H_VBP + RK043FN48
 4592              		.loc 1 175 0
 4593 001a 40F21523 		movw	r3, #533
 4594 001e 6362     		str	r3, [r4, #36]
 176:Drivers/BSP/STM32746G-Discovery/stm32746g_discovery_lcd.c ****   hLtdcHandler.Init.TotalWidth = (RK043FN48H_WIDTH + RK043FN48H_HSYNC + RK043FN48H_HBP + RK043FN48H
 4595              		.loc 1 176 0
 4596 0020 40F21D13 		movw	r3, #285
 4597 0024 2363     		str	r3, [r4, #48]
 177:Drivers/BSP/STM32746G-Discovery/stm32746g_discovery_lcd.c ****   
 4598              		.loc 1 177 0
 4599 0026 40F23523 		movw	r3, #565
 4600 002a E362     		str	r3, [r4, #44]
 180:Drivers/BSP/STM32746G-Discovery/stm32746g_discovery_lcd.c **** 
 4601              		.loc 1 180 0
 4602 002c 0021     		movs	r1, #0
 4603 002e 2046     		mov	r0, r4
 4604 0030 FFF7FEFF 		bl	BSP_LCD_ClockConfig
 4605              	.LVL500:
 183:Drivers/BSP/STM32746G-Discovery/stm32746g_discovery_lcd.c ****   hLtdcHandler.LayerCfg->ImageHeight = RK043FN48H_HEIGHT;
 4606              		.loc 1 183 0
 4607 0034 4FF4F073 		mov	r3, #480
 4608 0038 2366     		str	r3, [r4, #96]
 184:Drivers/BSP/STM32746G-Discovery/stm32746g_discovery_lcd.c **** 
 4609              		.loc 1 184 0
ARM GAS  C:\Users\milek\AppData\Local\Temp\ccMSPWBt.s 			page 118


 4610 003a 4FF48873 		mov	r3, #272
 4611 003e 6366     		str	r3, [r4, #100]
 187:Drivers/BSP/STM32746G-Discovery/stm32746g_discovery_lcd.c ****   hLtdcHandler.Init.Backcolor.Green = 0;
 4612              		.loc 1 187 0
 4613 0040 0023     		movs	r3, #0
 4614 0042 84F83430 		strb	r3, [r4, #52]
 188:Drivers/BSP/STM32746G-Discovery/stm32746g_discovery_lcd.c ****   hLtdcHandler.Init.Backcolor.Red = 0;
 4615              		.loc 1 188 0
 4616 0046 84F83530 		strb	r3, [r4, #53]
 189:Drivers/BSP/STM32746G-Discovery/stm32746g_discovery_lcd.c ****   
 4617              		.loc 1 189 0
 4618 004a 84F83630 		strb	r3, [r4, #54]
 192:Drivers/BSP/STM32746G-Discovery/stm32746g_discovery_lcd.c ****   hLtdcHandler.Init.VSPolarity = LTDC_VSPOLARITY_AL; 
 4619              		.loc 1 192 0
 4620 004e 6360     		str	r3, [r4, #4]
 193:Drivers/BSP/STM32746G-Discovery/stm32746g_discovery_lcd.c ****   hLtdcHandler.Init.DEPolarity = LTDC_DEPOLARITY_AL;  
 4621              		.loc 1 193 0
 4622 0050 A360     		str	r3, [r4, #8]
 194:Drivers/BSP/STM32746G-Discovery/stm32746g_discovery_lcd.c ****   hLtdcHandler.Init.PCPolarity = LTDC_PCPOLARITY_IPC;
 4623              		.loc 1 194 0
 4624 0052 E360     		str	r3, [r4, #12]
 195:Drivers/BSP/STM32746G-Discovery/stm32746g_discovery_lcd.c ****   hLtdcHandler.Instance = LTDC;
 4625              		.loc 1 195 0
 4626 0054 2361     		str	r3, [r4, #16]
 196:Drivers/BSP/STM32746G-Discovery/stm32746g_discovery_lcd.c **** 
 4627              		.loc 1 196 0
 4628 0056 114B     		ldr	r3, .L339+4
 4629 0058 2360     		str	r3, [r4]
 198:Drivers/BSP/STM32746G-Discovery/stm32746g_discovery_lcd.c ****   {
 4630              		.loc 1 198 0
 4631 005a 2046     		mov	r0, r4
 4632 005c FFF7FEFF 		bl	HAL_LTDC_GetState
 4633              	.LVL501:
 4634 0060 A0B1     		cbz	r0, .L338
 4635              	.L336:
 203:Drivers/BSP/STM32746G-Discovery/stm32746g_discovery_lcd.c **** 
 4636              		.loc 1 203 0
 4637 0062 0D48     		ldr	r0, .L339
 4638 0064 FFF7FEFF 		bl	HAL_LTDC_Init
 4639              	.LVL502:
 206:Drivers/BSP/STM32746G-Discovery/stm32746g_discovery_lcd.c **** 
 4640              		.loc 1 206 0
 4641 0068 0122     		movs	r2, #1
 4642 006a 4FF48051 		mov	r1, #4096
 4643 006e 0C48     		ldr	r0, .L339+8
 4644 0070 FFF7FEFF 		bl	HAL_GPIO_WritePin
 4645              	.LVL503:
 209:Drivers/BSP/STM32746G-Discovery/stm32746g_discovery_lcd.c **** 
 4646              		.loc 1 209 0
 4647 0074 0122     		movs	r2, #1
 4648 0076 0821     		movs	r1, #8
 4649 0078 0A48     		ldr	r0, .L339+12
 4650 007a FFF7FEFF 		bl	HAL_GPIO_WritePin
 4651              	.LVL504:
 213:Drivers/BSP/STM32746G-Discovery/stm32746g_discovery_lcd.c **** #endif
 4652              		.loc 1 213 0
 4653 007e FFF7FEFF 		bl	BSP_SDRAM_Init
ARM GAS  C:\Users\milek\AppData\Local\Temp\ccMSPWBt.s 			page 119


 4654              	.LVL505:
 217:Drivers/BSP/STM32746G-Discovery/stm32746g_discovery_lcd.c ****   
 4655              		.loc 1 217 0
 4656 0082 0948     		ldr	r0, .L339+16
 4657 0084 FFF7FEFF 		bl	BSP_LCD_SetFont
 4658              	.LVL506:
 220:Drivers/BSP/STM32746G-Discovery/stm32746g_discovery_lcd.c **** 
 4659              		.loc 1 220 0
 4660 0088 0020     		movs	r0, #0
 4661 008a 10BD     		pop	{r4, pc}
 4662              	.L338:
 201:Drivers/BSP/STM32746G-Discovery/stm32746g_discovery_lcd.c ****   }
 4663              		.loc 1 201 0
 4664 008c 0021     		movs	r1, #0
 4665 008e 2046     		mov	r0, r4
 4666 0090 FFF7FEFF 		bl	BSP_LCD_MspInit
 4667              	.LVL507:
 4668 0094 E5E7     		b	.L336
 4669              	.L340:
 4670 0096 00BF     		.align	2
 4671              	.L339:
 4672 0098 00000000 		.word	hLtdcHandler
 4673 009c 00680140 		.word	1073833984
 4674 00a0 00200240 		.word	1073881088
 4675 00a4 00280240 		.word	1073883136
 4676 00a8 00000000 		.word	.LANCHOR3
 4677              		.cfi_endproc
 4678              	.LFE138:
 4680              		.comm	hLtdcHandler,168,4
 4681              		.global	Font8
 4682              		.global	Font8_Table
 4683              		.global	Font12
 4684              		.global	Font12_Table
 4685              		.global	Font16
 4686              		.global	Font16_Table
 4687              		.global	Font20
 4688              		.global	Font20_Table
 4689              		.global	Font24
 4690              		.global	Font24_Table
 4691              		.section	.bss.ActiveLayer,"aw",%nobits
 4692              		.align	2
 4693              		.set	.LANCHOR1,. + 0
 4696              	ActiveLayer:
 4697 0000 00000000 		.space	4
 4698              		.section	.bss.DrawProp,"aw",%nobits
 4699              		.align	2
 4700              		.set	.LANCHOR2,. + 0
 4703              	DrawProp:
 4704 0000 00000000 		.space	24
 4704      00000000 
 4704      00000000 
 4704      00000000 
 4704      00000000 
 4705              		.section	.bss.hDma2dHandler,"aw",%nobits
 4706              		.align	2
 4707              		.set	.LANCHOR0,. + 0
 4710              	hDma2dHandler:
ARM GAS  C:\Users\milek\AppData\Local\Temp\ccMSPWBt.s 			page 120


 4711 0000 00000000 		.space	64
 4711      00000000 
 4711      00000000 
 4711      00000000 
 4711      00000000 
 4712              		.section	.bss.periph_clk_init_struct.12437,"aw",%nobits
 4713              		.align	2
 4714              		.set	.LANCHOR4,. + 0
 4717              	periph_clk_init_struct.12437:
 4718 0000 00000000 		.space	132
 4718      00000000 
 4718      00000000 
 4718      00000000 
 4718      00000000 
 4719              		.section	.data.Font12,"aw",%progbits
 4720              		.align	2
 4723              	Font12:
 4724 0000 00000000 		.word	Font12_Table
 4725 0004 0700     		.short	7
 4726 0006 0C00     		.short	12
 4727              		.section	.data.Font16,"aw",%progbits
 4728              		.align	2
 4731              	Font16:
 4732 0000 00000000 		.word	Font16_Table
 4733 0004 0B00     		.short	11
 4734 0006 1000     		.short	16
 4735              		.section	.data.Font20,"aw",%progbits
 4736              		.align	2
 4739              	Font20:
 4740 0000 00000000 		.word	Font20_Table
 4741 0004 0E00     		.short	14
 4742 0006 1400     		.short	20
 4743              		.section	.data.Font24,"aw",%progbits
 4744              		.align	2
 4745              		.set	.LANCHOR3,. + 0
 4748              	Font24:
 4749 0000 00000000 		.word	Font24_Table
 4750 0004 1100     		.short	17
 4751 0006 1800     		.short	24
 4752              		.section	.data.Font8,"aw",%progbits
 4753              		.align	2
 4756              	Font8:
 4757 0000 00000000 		.word	Font8_Table
 4758 0004 0500     		.short	5
 4759 0006 0800     		.short	8
 4760              		.section	.rodata.Font12_Table,"a",%progbits
 4761              		.align	2
 4764              	Font12_Table:
 4765 0000 00       		.byte	0
 4766 0001 00       		.byte	0
 4767 0002 00       		.byte	0
 4768 0003 00       		.byte	0
 4769 0004 00       		.byte	0
 4770 0005 00       		.byte	0
 4771 0006 00       		.byte	0
 4772 0007 00       		.byte	0
 4773 0008 00       		.byte	0
ARM GAS  C:\Users\milek\AppData\Local\Temp\ccMSPWBt.s 			page 121


 4774 0009 00       		.byte	0
 4775 000a 00       		.byte	0
 4776 000b 00       		.byte	0
 4777 000c 00       		.byte	0
 4778 000d 10       		.byte	16
 4779 000e 10       		.byte	16
 4780 000f 10       		.byte	16
 4781 0010 10       		.byte	16
 4782 0011 10       		.byte	16
 4783 0012 00       		.byte	0
 4784 0013 00       		.byte	0
 4785 0014 10       		.byte	16
 4786 0015 00       		.byte	0
 4787 0016 00       		.byte	0
 4788 0017 00       		.byte	0
 4789 0018 00       		.byte	0
 4790 0019 6C       		.byte	108
 4791 001a 48       		.byte	72
 4792 001b 48       		.byte	72
 4793 001c 00       		.byte	0
 4794 001d 00       		.byte	0
 4795 001e 00       		.byte	0
 4796 001f 00       		.byte	0
 4797 0020 00       		.byte	0
 4798 0021 00       		.byte	0
 4799 0022 00       		.byte	0
 4800 0023 00       		.byte	0
 4801 0024 00       		.byte	0
 4802 0025 14       		.byte	20
 4803 0026 14       		.byte	20
 4804 0027 28       		.byte	40
 4805 0028 7C       		.byte	124
 4806 0029 28       		.byte	40
 4807 002a 7C       		.byte	124
 4808 002b 28       		.byte	40
 4809 002c 50       		.byte	80
 4810 002d 50       		.byte	80
 4811 002e 00       		.byte	0
 4812 002f 00       		.byte	0
 4813 0030 00       		.byte	0
 4814 0031 10       		.byte	16
 4815 0032 38       		.byte	56
 4816 0033 40       		.byte	64
 4817 0034 40       		.byte	64
 4818 0035 38       		.byte	56
 4819 0036 48       		.byte	72
 4820 0037 70       		.byte	112
 4821 0038 10       		.byte	16
 4822 0039 10       		.byte	16
 4823 003a 00       		.byte	0
 4824 003b 00       		.byte	0
 4825 003c 00       		.byte	0
 4826 003d 20       		.byte	32
 4827 003e 50       		.byte	80
 4828 003f 20       		.byte	32
 4829 0040 0C       		.byte	12
 4830 0041 70       		.byte	112
ARM GAS  C:\Users\milek\AppData\Local\Temp\ccMSPWBt.s 			page 122


 4831 0042 08       		.byte	8
 4832 0043 14       		.byte	20
 4833 0044 08       		.byte	8
 4834 0045 00       		.byte	0
 4835 0046 00       		.byte	0
 4836 0047 00       		.byte	0
 4837 0048 00       		.byte	0
 4838 0049 00       		.byte	0
 4839 004a 00       		.byte	0
 4840 004b 18       		.byte	24
 4841 004c 20       		.byte	32
 4842 004d 20       		.byte	32
 4843 004e 54       		.byte	84
 4844 004f 48       		.byte	72
 4845 0050 34       		.byte	52
 4846 0051 00       		.byte	0
 4847 0052 00       		.byte	0
 4848 0053 00       		.byte	0
 4849 0054 00       		.byte	0
 4850 0055 10       		.byte	16
 4851 0056 10       		.byte	16
 4852 0057 10       		.byte	16
 4853 0058 10       		.byte	16
 4854 0059 00       		.byte	0
 4855 005a 00       		.byte	0
 4856 005b 00       		.byte	0
 4857 005c 00       		.byte	0
 4858 005d 00       		.byte	0
 4859 005e 00       		.byte	0
 4860 005f 00       		.byte	0
 4861 0060 00       		.byte	0
 4862 0061 08       		.byte	8
 4863 0062 08       		.byte	8
 4864 0063 10       		.byte	16
 4865 0064 10       		.byte	16
 4866 0065 10       		.byte	16
 4867 0066 10       		.byte	16
 4868 0067 10       		.byte	16
 4869 0068 10       		.byte	16
 4870 0069 08       		.byte	8
 4871 006a 08       		.byte	8
 4872 006b 00       		.byte	0
 4873 006c 00       		.byte	0
 4874 006d 20       		.byte	32
 4875 006e 20       		.byte	32
 4876 006f 10       		.byte	16
 4877 0070 10       		.byte	16
 4878 0071 10       		.byte	16
 4879 0072 10       		.byte	16
 4880 0073 10       		.byte	16
 4881 0074 10       		.byte	16
 4882 0075 20       		.byte	32
 4883 0076 20       		.byte	32
 4884 0077 00       		.byte	0
 4885 0078 00       		.byte	0
 4886 0079 10       		.byte	16
 4887 007a 7C       		.byte	124
ARM GAS  C:\Users\milek\AppData\Local\Temp\ccMSPWBt.s 			page 123


 4888 007b 10       		.byte	16
 4889 007c 28       		.byte	40
 4890 007d 28       		.byte	40
 4891 007e 00       		.byte	0
 4892 007f 00       		.byte	0
 4893 0080 00       		.byte	0
 4894 0081 00       		.byte	0
 4895 0082 00       		.byte	0
 4896 0083 00       		.byte	0
 4897 0084 00       		.byte	0
 4898 0085 00       		.byte	0
 4899 0086 10       		.byte	16
 4900 0087 10       		.byte	16
 4901 0088 10       		.byte	16
 4902 0089 FE       		.byte	-2
 4903 008a 10       		.byte	16
 4904 008b 10       		.byte	16
 4905 008c 10       		.byte	16
 4906 008d 00       		.byte	0
 4907 008e 00       		.byte	0
 4908 008f 00       		.byte	0
 4909 0090 00       		.byte	0
 4910 0091 00       		.byte	0
 4911 0092 00       		.byte	0
 4912 0093 00       		.byte	0
 4913 0094 00       		.byte	0
 4914 0095 00       		.byte	0
 4915 0096 00       		.byte	0
 4916 0097 18       		.byte	24
 4917 0098 10       		.byte	16
 4918 0099 30       		.byte	48
 4919 009a 20       		.byte	32
 4920 009b 00       		.byte	0
 4921 009c 00       		.byte	0
 4922 009d 00       		.byte	0
 4923 009e 00       		.byte	0
 4924 009f 00       		.byte	0
 4925 00a0 00       		.byte	0
 4926 00a1 7C       		.byte	124
 4927 00a2 00       		.byte	0
 4928 00a3 00       		.byte	0
 4929 00a4 00       		.byte	0
 4930 00a5 00       		.byte	0
 4931 00a6 00       		.byte	0
 4932 00a7 00       		.byte	0
 4933 00a8 00       		.byte	0
 4934 00a9 00       		.byte	0
 4935 00aa 00       		.byte	0
 4936 00ab 00       		.byte	0
 4937 00ac 00       		.byte	0
 4938 00ad 00       		.byte	0
 4939 00ae 00       		.byte	0
 4940 00af 30       		.byte	48
 4941 00b0 30       		.byte	48
 4942 00b1 00       		.byte	0
 4943 00b2 00       		.byte	0
 4944 00b3 00       		.byte	0
ARM GAS  C:\Users\milek\AppData\Local\Temp\ccMSPWBt.s 			page 124


 4945 00b4 00       		.byte	0
 4946 00b5 04       		.byte	4
 4947 00b6 04       		.byte	4
 4948 00b7 08       		.byte	8
 4949 00b8 08       		.byte	8
 4950 00b9 10       		.byte	16
 4951 00ba 10       		.byte	16
 4952 00bb 20       		.byte	32
 4953 00bc 20       		.byte	32
 4954 00bd 40       		.byte	64
 4955 00be 00       		.byte	0
 4956 00bf 00       		.byte	0
 4957 00c0 00       		.byte	0
 4958 00c1 38       		.byte	56
 4959 00c2 44       		.byte	68
 4960 00c3 44       		.byte	68
 4961 00c4 44       		.byte	68
 4962 00c5 44       		.byte	68
 4963 00c6 44       		.byte	68
 4964 00c7 44       		.byte	68
 4965 00c8 38       		.byte	56
 4966 00c9 00       		.byte	0
 4967 00ca 00       		.byte	0
 4968 00cb 00       		.byte	0
 4969 00cc 00       		.byte	0
 4970 00cd 30       		.byte	48
 4971 00ce 10       		.byte	16
 4972 00cf 10       		.byte	16
 4973 00d0 10       		.byte	16
 4974 00d1 10       		.byte	16
 4975 00d2 10       		.byte	16
 4976 00d3 10       		.byte	16
 4977 00d4 7C       		.byte	124
 4978 00d5 00       		.byte	0
 4979 00d6 00       		.byte	0
 4980 00d7 00       		.byte	0
 4981 00d8 00       		.byte	0
 4982 00d9 38       		.byte	56
 4983 00da 44       		.byte	68
 4984 00db 04       		.byte	4
 4985 00dc 08       		.byte	8
 4986 00dd 10       		.byte	16
 4987 00de 20       		.byte	32
 4988 00df 44       		.byte	68
 4989 00e0 7C       		.byte	124
 4990 00e1 00       		.byte	0
 4991 00e2 00       		.byte	0
 4992 00e3 00       		.byte	0
 4993 00e4 00       		.byte	0
 4994 00e5 38       		.byte	56
 4995 00e6 44       		.byte	68
 4996 00e7 04       		.byte	4
 4997 00e8 18       		.byte	24
 4998 00e9 04       		.byte	4
 4999 00ea 04       		.byte	4
 5000 00eb 44       		.byte	68
 5001 00ec 38       		.byte	56
ARM GAS  C:\Users\milek\AppData\Local\Temp\ccMSPWBt.s 			page 125


 5002 00ed 00       		.byte	0
 5003 00ee 00       		.byte	0
 5004 00ef 00       		.byte	0
 5005 00f0 00       		.byte	0
 5006 00f1 0C       		.byte	12
 5007 00f2 14       		.byte	20
 5008 00f3 14       		.byte	20
 5009 00f4 24       		.byte	36
 5010 00f5 44       		.byte	68
 5011 00f6 7E       		.byte	126
 5012 00f7 04       		.byte	4
 5013 00f8 0E       		.byte	14
 5014 00f9 00       		.byte	0
 5015 00fa 00       		.byte	0
 5016 00fb 00       		.byte	0
 5017 00fc 00       		.byte	0
 5018 00fd 3C       		.byte	60
 5019 00fe 20       		.byte	32
 5020 00ff 20       		.byte	32
 5021 0100 38       		.byte	56
 5022 0101 04       		.byte	4
 5023 0102 04       		.byte	4
 5024 0103 44       		.byte	68
 5025 0104 38       		.byte	56
 5026 0105 00       		.byte	0
 5027 0106 00       		.byte	0
 5028 0107 00       		.byte	0
 5029 0108 00       		.byte	0
 5030 0109 1C       		.byte	28
 5031 010a 20       		.byte	32
 5032 010b 40       		.byte	64
 5033 010c 78       		.byte	120
 5034 010d 44       		.byte	68
 5035 010e 44       		.byte	68
 5036 010f 44       		.byte	68
 5037 0110 38       		.byte	56
 5038 0111 00       		.byte	0
 5039 0112 00       		.byte	0
 5040 0113 00       		.byte	0
 5041 0114 00       		.byte	0
 5042 0115 7C       		.byte	124
 5043 0116 44       		.byte	68
 5044 0117 04       		.byte	4
 5045 0118 08       		.byte	8
 5046 0119 08       		.byte	8
 5047 011a 08       		.byte	8
 5048 011b 10       		.byte	16
 5049 011c 10       		.byte	16
 5050 011d 00       		.byte	0
 5051 011e 00       		.byte	0
 5052 011f 00       		.byte	0
 5053 0120 00       		.byte	0
 5054 0121 38       		.byte	56
 5055 0122 44       		.byte	68
 5056 0123 44       		.byte	68
 5057 0124 38       		.byte	56
 5058 0125 44       		.byte	68
ARM GAS  C:\Users\milek\AppData\Local\Temp\ccMSPWBt.s 			page 126


 5059 0126 44       		.byte	68
 5060 0127 44       		.byte	68
 5061 0128 38       		.byte	56
 5062 0129 00       		.byte	0
 5063 012a 00       		.byte	0
 5064 012b 00       		.byte	0
 5065 012c 00       		.byte	0
 5066 012d 38       		.byte	56
 5067 012e 44       		.byte	68
 5068 012f 44       		.byte	68
 5069 0130 44       		.byte	68
 5070 0131 3C       		.byte	60
 5071 0132 04       		.byte	4
 5072 0133 08       		.byte	8
 5073 0134 70       		.byte	112
 5074 0135 00       		.byte	0
 5075 0136 00       		.byte	0
 5076 0137 00       		.byte	0
 5077 0138 00       		.byte	0
 5078 0139 00       		.byte	0
 5079 013a 00       		.byte	0
 5080 013b 30       		.byte	48
 5081 013c 30       		.byte	48
 5082 013d 00       		.byte	0
 5083 013e 00       		.byte	0
 5084 013f 30       		.byte	48
 5085 0140 30       		.byte	48
 5086 0141 00       		.byte	0
 5087 0142 00       		.byte	0
 5088 0143 00       		.byte	0
 5089 0144 00       		.byte	0
 5090 0145 00       		.byte	0
 5091 0146 00       		.byte	0
 5092 0147 18       		.byte	24
 5093 0148 18       		.byte	24
 5094 0149 00       		.byte	0
 5095 014a 00       		.byte	0
 5096 014b 18       		.byte	24
 5097 014c 30       		.byte	48
 5098 014d 20       		.byte	32
 5099 014e 00       		.byte	0
 5100 014f 00       		.byte	0
 5101 0150 00       		.byte	0
 5102 0151 00       		.byte	0
 5103 0152 0C       		.byte	12
 5104 0153 10       		.byte	16
 5105 0154 60       		.byte	96
 5106 0155 80       		.byte	-128
 5107 0156 60       		.byte	96
 5108 0157 10       		.byte	16
 5109 0158 0C       		.byte	12
 5110 0159 00       		.byte	0
 5111 015a 00       		.byte	0
 5112 015b 00       		.byte	0
 5113 015c 00       		.byte	0
 5114 015d 00       		.byte	0
 5115 015e 00       		.byte	0
ARM GAS  C:\Users\milek\AppData\Local\Temp\ccMSPWBt.s 			page 127


 5116 015f 00       		.byte	0
 5117 0160 7C       		.byte	124
 5118 0161 00       		.byte	0
 5119 0162 7C       		.byte	124
 5120 0163 00       		.byte	0
 5121 0164 00       		.byte	0
 5122 0165 00       		.byte	0
 5123 0166 00       		.byte	0
 5124 0167 00       		.byte	0
 5125 0168 00       		.byte	0
 5126 0169 00       		.byte	0
 5127 016a C0       		.byte	-64
 5128 016b 20       		.byte	32
 5129 016c 18       		.byte	24
 5130 016d 04       		.byte	4
 5131 016e 18       		.byte	24
 5132 016f 20       		.byte	32
 5133 0170 C0       		.byte	-64
 5134 0171 00       		.byte	0
 5135 0172 00       		.byte	0
 5136 0173 00       		.byte	0
 5137 0174 00       		.byte	0
 5138 0175 00       		.byte	0
 5139 0176 18       		.byte	24
 5140 0177 24       		.byte	36
 5141 0178 04       		.byte	4
 5142 0179 08       		.byte	8
 5143 017a 10       		.byte	16
 5144 017b 00       		.byte	0
 5145 017c 30       		.byte	48
 5146 017d 00       		.byte	0
 5147 017e 00       		.byte	0
 5148 017f 00       		.byte	0
 5149 0180 38       		.byte	56
 5150 0181 44       		.byte	68
 5151 0182 44       		.byte	68
 5152 0183 4C       		.byte	76
 5153 0184 54       		.byte	84
 5154 0185 54       		.byte	84
 5155 0186 4C       		.byte	76
 5156 0187 40       		.byte	64
 5157 0188 44       		.byte	68
 5158 0189 38       		.byte	56
 5159 018a 00       		.byte	0
 5160 018b 00       		.byte	0
 5161 018c 00       		.byte	0
 5162 018d 30       		.byte	48
 5163 018e 10       		.byte	16
 5164 018f 28       		.byte	40
 5165 0190 28       		.byte	40
 5166 0191 28       		.byte	40
 5167 0192 7C       		.byte	124
 5168 0193 44       		.byte	68
 5169 0194 EE       		.byte	-18
 5170 0195 00       		.byte	0
 5171 0196 00       		.byte	0
 5172 0197 00       		.byte	0
ARM GAS  C:\Users\milek\AppData\Local\Temp\ccMSPWBt.s 			page 128


 5173 0198 00       		.byte	0
 5174 0199 F8       		.byte	-8
 5175 019a 44       		.byte	68
 5176 019b 44       		.byte	68
 5177 019c 78       		.byte	120
 5178 019d 44       		.byte	68
 5179 019e 44       		.byte	68
 5180 019f 44       		.byte	68
 5181 01a0 F8       		.byte	-8
 5182 01a1 00       		.byte	0
 5183 01a2 00       		.byte	0
 5184 01a3 00       		.byte	0
 5185 01a4 00       		.byte	0
 5186 01a5 3C       		.byte	60
 5187 01a6 44       		.byte	68
 5188 01a7 40       		.byte	64
 5189 01a8 40       		.byte	64
 5190 01a9 40       		.byte	64
 5191 01aa 40       		.byte	64
 5192 01ab 44       		.byte	68
 5193 01ac 38       		.byte	56
 5194 01ad 00       		.byte	0
 5195 01ae 00       		.byte	0
 5196 01af 00       		.byte	0
 5197 01b0 00       		.byte	0
 5198 01b1 F0       		.byte	-16
 5199 01b2 48       		.byte	72
 5200 01b3 44       		.byte	68
 5201 01b4 44       		.byte	68
 5202 01b5 44       		.byte	68
 5203 01b6 44       		.byte	68
 5204 01b7 48       		.byte	72
 5205 01b8 F0       		.byte	-16
 5206 01b9 00       		.byte	0
 5207 01ba 00       		.byte	0
 5208 01bb 00       		.byte	0
 5209 01bc 00       		.byte	0
 5210 01bd FC       		.byte	-4
 5211 01be 44       		.byte	68
 5212 01bf 50       		.byte	80
 5213 01c0 70       		.byte	112
 5214 01c1 50       		.byte	80
 5215 01c2 40       		.byte	64
 5216 01c3 44       		.byte	68
 5217 01c4 FC       		.byte	-4
 5218 01c5 00       		.byte	0
 5219 01c6 00       		.byte	0
 5220 01c7 00       		.byte	0
 5221 01c8 00       		.byte	0
 5222 01c9 7E       		.byte	126
 5223 01ca 22       		.byte	34
 5224 01cb 28       		.byte	40
 5225 01cc 38       		.byte	56
 5226 01cd 28       		.byte	40
 5227 01ce 20       		.byte	32
 5228 01cf 20       		.byte	32
 5229 01d0 70       		.byte	112
ARM GAS  C:\Users\milek\AppData\Local\Temp\ccMSPWBt.s 			page 129


 5230 01d1 00       		.byte	0
 5231 01d2 00       		.byte	0
 5232 01d3 00       		.byte	0
 5233 01d4 00       		.byte	0
 5234 01d5 3C       		.byte	60
 5235 01d6 44       		.byte	68
 5236 01d7 40       		.byte	64
 5237 01d8 40       		.byte	64
 5238 01d9 4E       		.byte	78
 5239 01da 44       		.byte	68
 5240 01db 44       		.byte	68
 5241 01dc 38       		.byte	56
 5242 01dd 00       		.byte	0
 5243 01de 00       		.byte	0
 5244 01df 00       		.byte	0
 5245 01e0 00       		.byte	0
 5246 01e1 EE       		.byte	-18
 5247 01e2 44       		.byte	68
 5248 01e3 44       		.byte	68
 5249 01e4 7C       		.byte	124
 5250 01e5 44       		.byte	68
 5251 01e6 44       		.byte	68
 5252 01e7 44       		.byte	68
 5253 01e8 EE       		.byte	-18
 5254 01e9 00       		.byte	0
 5255 01ea 00       		.byte	0
 5256 01eb 00       		.byte	0
 5257 01ec 00       		.byte	0
 5258 01ed 7C       		.byte	124
 5259 01ee 10       		.byte	16
 5260 01ef 10       		.byte	16
 5261 01f0 10       		.byte	16
 5262 01f1 10       		.byte	16
 5263 01f2 10       		.byte	16
 5264 01f3 10       		.byte	16
 5265 01f4 7C       		.byte	124
 5266 01f5 00       		.byte	0
 5267 01f6 00       		.byte	0
 5268 01f7 00       		.byte	0
 5269 01f8 00       		.byte	0
 5270 01f9 3C       		.byte	60
 5271 01fa 08       		.byte	8
 5272 01fb 08       		.byte	8
 5273 01fc 08       		.byte	8
 5274 01fd 48       		.byte	72
 5275 01fe 48       		.byte	72
 5276 01ff 48       		.byte	72
 5277 0200 30       		.byte	48
 5278 0201 00       		.byte	0
 5279 0202 00       		.byte	0
 5280 0203 00       		.byte	0
 5281 0204 00       		.byte	0
 5282 0205 EE       		.byte	-18
 5283 0206 44       		.byte	68
 5284 0207 48       		.byte	72
 5285 0208 50       		.byte	80
 5286 0209 70       		.byte	112
ARM GAS  C:\Users\milek\AppData\Local\Temp\ccMSPWBt.s 			page 130


 5287 020a 48       		.byte	72
 5288 020b 44       		.byte	68
 5289 020c E6       		.byte	-26
 5290 020d 00       		.byte	0
 5291 020e 00       		.byte	0
 5292 020f 00       		.byte	0
 5293 0210 00       		.byte	0
 5294 0211 70       		.byte	112
 5295 0212 20       		.byte	32
 5296 0213 20       		.byte	32
 5297 0214 20       		.byte	32
 5298 0215 20       		.byte	32
 5299 0216 24       		.byte	36
 5300 0217 24       		.byte	36
 5301 0218 7C       		.byte	124
 5302 0219 00       		.byte	0
 5303 021a 00       		.byte	0
 5304 021b 00       		.byte	0
 5305 021c 00       		.byte	0
 5306 021d EE       		.byte	-18
 5307 021e 6C       		.byte	108
 5308 021f 6C       		.byte	108
 5309 0220 54       		.byte	84
 5310 0221 54       		.byte	84
 5311 0222 44       		.byte	68
 5312 0223 44       		.byte	68
 5313 0224 EE       		.byte	-18
 5314 0225 00       		.byte	0
 5315 0226 00       		.byte	0
 5316 0227 00       		.byte	0
 5317 0228 00       		.byte	0
 5318 0229 EE       		.byte	-18
 5319 022a 64       		.byte	100
 5320 022b 64       		.byte	100
 5321 022c 54       		.byte	84
 5322 022d 54       		.byte	84
 5323 022e 54       		.byte	84
 5324 022f 4C       		.byte	76
 5325 0230 EC       		.byte	-20
 5326 0231 00       		.byte	0
 5327 0232 00       		.byte	0
 5328 0233 00       		.byte	0
 5329 0234 00       		.byte	0
 5330 0235 38       		.byte	56
 5331 0236 44       		.byte	68
 5332 0237 44       		.byte	68
 5333 0238 44       		.byte	68
 5334 0239 44       		.byte	68
 5335 023a 44       		.byte	68
 5336 023b 44       		.byte	68
 5337 023c 38       		.byte	56
 5338 023d 00       		.byte	0
 5339 023e 00       		.byte	0
 5340 023f 00       		.byte	0
 5341 0240 00       		.byte	0
 5342 0241 78       		.byte	120
 5343 0242 24       		.byte	36
ARM GAS  C:\Users\milek\AppData\Local\Temp\ccMSPWBt.s 			page 131


 5344 0243 24       		.byte	36
 5345 0244 24       		.byte	36
 5346 0245 38       		.byte	56
 5347 0246 20       		.byte	32
 5348 0247 20       		.byte	32
 5349 0248 70       		.byte	112
 5350 0249 00       		.byte	0
 5351 024a 00       		.byte	0
 5352 024b 00       		.byte	0
 5353 024c 00       		.byte	0
 5354 024d 38       		.byte	56
 5355 024e 44       		.byte	68
 5356 024f 44       		.byte	68
 5357 0250 44       		.byte	68
 5358 0251 44       		.byte	68
 5359 0252 44       		.byte	68
 5360 0253 44       		.byte	68
 5361 0254 38       		.byte	56
 5362 0255 1C       		.byte	28
 5363 0256 00       		.byte	0
 5364 0257 00       		.byte	0
 5365 0258 00       		.byte	0
 5366 0259 F8       		.byte	-8
 5367 025a 44       		.byte	68
 5368 025b 44       		.byte	68
 5369 025c 44       		.byte	68
 5370 025d 78       		.byte	120
 5371 025e 48       		.byte	72
 5372 025f 44       		.byte	68
 5373 0260 E2       		.byte	-30
 5374 0261 00       		.byte	0
 5375 0262 00       		.byte	0
 5376 0263 00       		.byte	0
 5377 0264 00       		.byte	0
 5378 0265 34       		.byte	52
 5379 0266 4C       		.byte	76
 5380 0267 40       		.byte	64
 5381 0268 38       		.byte	56
 5382 0269 04       		.byte	4
 5383 026a 04       		.byte	4
 5384 026b 64       		.byte	100
 5385 026c 58       		.byte	88
 5386 026d 00       		.byte	0
 5387 026e 00       		.byte	0
 5388 026f 00       		.byte	0
 5389 0270 00       		.byte	0
 5390 0271 FE       		.byte	-2
 5391 0272 92       		.byte	-110
 5392 0273 10       		.byte	16
 5393 0274 10       		.byte	16
 5394 0275 10       		.byte	16
 5395 0276 10       		.byte	16
 5396 0277 10       		.byte	16
 5397 0278 38       		.byte	56
 5398 0279 00       		.byte	0
 5399 027a 00       		.byte	0
 5400 027b 00       		.byte	0
ARM GAS  C:\Users\milek\AppData\Local\Temp\ccMSPWBt.s 			page 132


 5401 027c 00       		.byte	0
 5402 027d EE       		.byte	-18
 5403 027e 44       		.byte	68
 5404 027f 44       		.byte	68
 5405 0280 44       		.byte	68
 5406 0281 44       		.byte	68
 5407 0282 44       		.byte	68
 5408 0283 44       		.byte	68
 5409 0284 38       		.byte	56
 5410 0285 00       		.byte	0
 5411 0286 00       		.byte	0
 5412 0287 00       		.byte	0
 5413 0288 00       		.byte	0
 5414 0289 EE       		.byte	-18
 5415 028a 44       		.byte	68
 5416 028b 44       		.byte	68
 5417 028c 28       		.byte	40
 5418 028d 28       		.byte	40
 5419 028e 28       		.byte	40
 5420 028f 10       		.byte	16
 5421 0290 10       		.byte	16
 5422 0291 00       		.byte	0
 5423 0292 00       		.byte	0
 5424 0293 00       		.byte	0
 5425 0294 00       		.byte	0
 5426 0295 EE       		.byte	-18
 5427 0296 44       		.byte	68
 5428 0297 44       		.byte	68
 5429 0298 54       		.byte	84
 5430 0299 54       		.byte	84
 5431 029a 54       		.byte	84
 5432 029b 54       		.byte	84
 5433 029c 28       		.byte	40
 5434 029d 00       		.byte	0
 5435 029e 00       		.byte	0
 5436 029f 00       		.byte	0
 5437 02a0 00       		.byte	0
 5438 02a1 C6       		.byte	-58
 5439 02a2 44       		.byte	68
 5440 02a3 28       		.byte	40
 5441 02a4 10       		.byte	16
 5442 02a5 10       		.byte	16
 5443 02a6 28       		.byte	40
 5444 02a7 44       		.byte	68
 5445 02a8 C6       		.byte	-58
 5446 02a9 00       		.byte	0
 5447 02aa 00       		.byte	0
 5448 02ab 00       		.byte	0
 5449 02ac 00       		.byte	0
 5450 02ad EE       		.byte	-18
 5451 02ae 44       		.byte	68
 5452 02af 28       		.byte	40
 5453 02b0 28       		.byte	40
 5454 02b1 10       		.byte	16
 5455 02b2 10       		.byte	16
 5456 02b3 10       		.byte	16
 5457 02b4 38       		.byte	56
ARM GAS  C:\Users\milek\AppData\Local\Temp\ccMSPWBt.s 			page 133


 5458 02b5 00       		.byte	0
 5459 02b6 00       		.byte	0
 5460 02b7 00       		.byte	0
 5461 02b8 00       		.byte	0
 5462 02b9 7C       		.byte	124
 5463 02ba 44       		.byte	68
 5464 02bb 08       		.byte	8
 5465 02bc 10       		.byte	16
 5466 02bd 10       		.byte	16
 5467 02be 20       		.byte	32
 5468 02bf 44       		.byte	68
 5469 02c0 7C       		.byte	124
 5470 02c1 00       		.byte	0
 5471 02c2 00       		.byte	0
 5472 02c3 00       		.byte	0
 5473 02c4 00       		.byte	0
 5474 02c5 38       		.byte	56
 5475 02c6 20       		.byte	32
 5476 02c7 20       		.byte	32
 5477 02c8 20       		.byte	32
 5478 02c9 20       		.byte	32
 5479 02ca 20       		.byte	32
 5480 02cb 20       		.byte	32
 5481 02cc 20       		.byte	32
 5482 02cd 20       		.byte	32
 5483 02ce 38       		.byte	56
 5484 02cf 00       		.byte	0
 5485 02d0 00       		.byte	0
 5486 02d1 40       		.byte	64
 5487 02d2 20       		.byte	32
 5488 02d3 20       		.byte	32
 5489 02d4 20       		.byte	32
 5490 02d5 10       		.byte	16
 5491 02d6 10       		.byte	16
 5492 02d7 08       		.byte	8
 5493 02d8 08       		.byte	8
 5494 02d9 08       		.byte	8
 5495 02da 00       		.byte	0
 5496 02db 00       		.byte	0
 5497 02dc 00       		.byte	0
 5498 02dd 38       		.byte	56
 5499 02de 08       		.byte	8
 5500 02df 08       		.byte	8
 5501 02e0 08       		.byte	8
 5502 02e1 08       		.byte	8
 5503 02e2 08       		.byte	8
 5504 02e3 08       		.byte	8
 5505 02e4 08       		.byte	8
 5506 02e5 08       		.byte	8
 5507 02e6 38       		.byte	56
 5508 02e7 00       		.byte	0
 5509 02e8 00       		.byte	0
 5510 02e9 10       		.byte	16
 5511 02ea 10       		.byte	16
 5512 02eb 28       		.byte	40
 5513 02ec 44       		.byte	68
 5514 02ed 00       		.byte	0
ARM GAS  C:\Users\milek\AppData\Local\Temp\ccMSPWBt.s 			page 134


 5515 02ee 00       		.byte	0
 5516 02ef 00       		.byte	0
 5517 02f0 00       		.byte	0
 5518 02f1 00       		.byte	0
 5519 02f2 00       		.byte	0
 5520 02f3 00       		.byte	0
 5521 02f4 00       		.byte	0
 5522 02f5 00       		.byte	0
 5523 02f6 00       		.byte	0
 5524 02f7 00       		.byte	0
 5525 02f8 00       		.byte	0
 5526 02f9 00       		.byte	0
 5527 02fa 00       		.byte	0
 5528 02fb 00       		.byte	0
 5529 02fc 00       		.byte	0
 5530 02fd 00       		.byte	0
 5531 02fe 00       		.byte	0
 5532 02ff FE       		.byte	-2
 5533 0300 00       		.byte	0
 5534 0301 10       		.byte	16
 5535 0302 08       		.byte	8
 5536 0303 00       		.byte	0
 5537 0304 00       		.byte	0
 5538 0305 00       		.byte	0
 5539 0306 00       		.byte	0
 5540 0307 00       		.byte	0
 5541 0308 00       		.byte	0
 5542 0309 00       		.byte	0
 5543 030a 00       		.byte	0
 5544 030b 00       		.byte	0
 5545 030c 00       		.byte	0
 5546 030d 00       		.byte	0
 5547 030e 00       		.byte	0
 5548 030f 38       		.byte	56
 5549 0310 44       		.byte	68
 5550 0311 3C       		.byte	60
 5551 0312 44       		.byte	68
 5552 0313 44       		.byte	68
 5553 0314 3E       		.byte	62
 5554 0315 00       		.byte	0
 5555 0316 00       		.byte	0
 5556 0317 00       		.byte	0
 5557 0318 00       		.byte	0
 5558 0319 C0       		.byte	-64
 5559 031a 40       		.byte	64
 5560 031b 58       		.byte	88
 5561 031c 64       		.byte	100
 5562 031d 44       		.byte	68
 5563 031e 44       		.byte	68
 5564 031f 44       		.byte	68
 5565 0320 F8       		.byte	-8
 5566 0321 00       		.byte	0
 5567 0322 00       		.byte	0
 5568 0323 00       		.byte	0
 5569 0324 00       		.byte	0
 5570 0325 00       		.byte	0
 5571 0326 00       		.byte	0
ARM GAS  C:\Users\milek\AppData\Local\Temp\ccMSPWBt.s 			page 135


 5572 0327 3C       		.byte	60
 5573 0328 44       		.byte	68
 5574 0329 40       		.byte	64
 5575 032a 40       		.byte	64
 5576 032b 44       		.byte	68
 5577 032c 38       		.byte	56
 5578 032d 00       		.byte	0
 5579 032e 00       		.byte	0
 5580 032f 00       		.byte	0
 5581 0330 00       		.byte	0
 5582 0331 0C       		.byte	12
 5583 0332 04       		.byte	4
 5584 0333 34       		.byte	52
 5585 0334 4C       		.byte	76
 5586 0335 44       		.byte	68
 5587 0336 44       		.byte	68
 5588 0337 44       		.byte	68
 5589 0338 3E       		.byte	62
 5590 0339 00       		.byte	0
 5591 033a 00       		.byte	0
 5592 033b 00       		.byte	0
 5593 033c 00       		.byte	0
 5594 033d 00       		.byte	0
 5595 033e 00       		.byte	0
 5596 033f 38       		.byte	56
 5597 0340 44       		.byte	68
 5598 0341 7C       		.byte	124
 5599 0342 40       		.byte	64
 5600 0343 40       		.byte	64
 5601 0344 3C       		.byte	60
 5602 0345 00       		.byte	0
 5603 0346 00       		.byte	0
 5604 0347 00       		.byte	0
 5605 0348 00       		.byte	0
 5606 0349 1C       		.byte	28
 5607 034a 20       		.byte	32
 5608 034b 7C       		.byte	124
 5609 034c 20       		.byte	32
 5610 034d 20       		.byte	32
 5611 034e 20       		.byte	32
 5612 034f 20       		.byte	32
 5613 0350 7C       		.byte	124
 5614 0351 00       		.byte	0
 5615 0352 00       		.byte	0
 5616 0353 00       		.byte	0
 5617 0354 00       		.byte	0
 5618 0355 00       		.byte	0
 5619 0356 00       		.byte	0
 5620 0357 36       		.byte	54
 5621 0358 4C       		.byte	76
 5622 0359 44       		.byte	68
 5623 035a 44       		.byte	68
 5624 035b 44       		.byte	68
 5625 035c 3C       		.byte	60
 5626 035d 04       		.byte	4
 5627 035e 38       		.byte	56
 5628 035f 00       		.byte	0
ARM GAS  C:\Users\milek\AppData\Local\Temp\ccMSPWBt.s 			page 136


 5629 0360 00       		.byte	0
 5630 0361 C0       		.byte	-64
 5631 0362 40       		.byte	64
 5632 0363 58       		.byte	88
 5633 0364 64       		.byte	100
 5634 0365 44       		.byte	68
 5635 0366 44       		.byte	68
 5636 0367 44       		.byte	68
 5637 0368 EE       		.byte	-18
 5638 0369 00       		.byte	0
 5639 036a 00       		.byte	0
 5640 036b 00       		.byte	0
 5641 036c 00       		.byte	0
 5642 036d 10       		.byte	16
 5643 036e 00       		.byte	0
 5644 036f 70       		.byte	112
 5645 0370 10       		.byte	16
 5646 0371 10       		.byte	16
 5647 0372 10       		.byte	16
 5648 0373 10       		.byte	16
 5649 0374 7C       		.byte	124
 5650 0375 00       		.byte	0
 5651 0376 00       		.byte	0
 5652 0377 00       		.byte	0
 5653 0378 00       		.byte	0
 5654 0379 10       		.byte	16
 5655 037a 00       		.byte	0
 5656 037b 78       		.byte	120
 5657 037c 08       		.byte	8
 5658 037d 08       		.byte	8
 5659 037e 08       		.byte	8
 5660 037f 08       		.byte	8
 5661 0380 08       		.byte	8
 5662 0381 08       		.byte	8
 5663 0382 70       		.byte	112
 5664 0383 00       		.byte	0
 5665 0384 00       		.byte	0
 5666 0385 C0       		.byte	-64
 5667 0386 40       		.byte	64
 5668 0387 5C       		.byte	92
 5669 0388 48       		.byte	72
 5670 0389 70       		.byte	112
 5671 038a 50       		.byte	80
 5672 038b 48       		.byte	72
 5673 038c DC       		.byte	-36
 5674 038d 00       		.byte	0
 5675 038e 00       		.byte	0
 5676 038f 00       		.byte	0
 5677 0390 00       		.byte	0
 5678 0391 30       		.byte	48
 5679 0392 10       		.byte	16
 5680 0393 10       		.byte	16
 5681 0394 10       		.byte	16
 5682 0395 10       		.byte	16
 5683 0396 10       		.byte	16
 5684 0397 10       		.byte	16
 5685 0398 7C       		.byte	124
ARM GAS  C:\Users\milek\AppData\Local\Temp\ccMSPWBt.s 			page 137


 5686 0399 00       		.byte	0
 5687 039a 00       		.byte	0
 5688 039b 00       		.byte	0
 5689 039c 00       		.byte	0
 5690 039d 00       		.byte	0
 5691 039e 00       		.byte	0
 5692 039f E8       		.byte	-24
 5693 03a0 54       		.byte	84
 5694 03a1 54       		.byte	84
 5695 03a2 54       		.byte	84
 5696 03a3 54       		.byte	84
 5697 03a4 FE       		.byte	-2
 5698 03a5 00       		.byte	0
 5699 03a6 00       		.byte	0
 5700 03a7 00       		.byte	0
 5701 03a8 00       		.byte	0
 5702 03a9 00       		.byte	0
 5703 03aa 00       		.byte	0
 5704 03ab D8       		.byte	-40
 5705 03ac 64       		.byte	100
 5706 03ad 44       		.byte	68
 5707 03ae 44       		.byte	68
 5708 03af 44       		.byte	68
 5709 03b0 EE       		.byte	-18
 5710 03b1 00       		.byte	0
 5711 03b2 00       		.byte	0
 5712 03b3 00       		.byte	0
 5713 03b4 00       		.byte	0
 5714 03b5 00       		.byte	0
 5715 03b6 00       		.byte	0
 5716 03b7 38       		.byte	56
 5717 03b8 44       		.byte	68
 5718 03b9 44       		.byte	68
 5719 03ba 44       		.byte	68
 5720 03bb 44       		.byte	68
 5721 03bc 38       		.byte	56
 5722 03bd 00       		.byte	0
 5723 03be 00       		.byte	0
 5724 03bf 00       		.byte	0
 5725 03c0 00       		.byte	0
 5726 03c1 00       		.byte	0
 5727 03c2 00       		.byte	0
 5728 03c3 D8       		.byte	-40
 5729 03c4 64       		.byte	100
 5730 03c5 44       		.byte	68
 5731 03c6 44       		.byte	68
 5732 03c7 44       		.byte	68
 5733 03c8 78       		.byte	120
 5734 03c9 40       		.byte	64
 5735 03ca E0       		.byte	-32
 5736 03cb 00       		.byte	0
 5737 03cc 00       		.byte	0
 5738 03cd 00       		.byte	0
 5739 03ce 00       		.byte	0
 5740 03cf 36       		.byte	54
 5741 03d0 4C       		.byte	76
 5742 03d1 44       		.byte	68
ARM GAS  C:\Users\milek\AppData\Local\Temp\ccMSPWBt.s 			page 138


 5743 03d2 44       		.byte	68
 5744 03d3 44       		.byte	68
 5745 03d4 3C       		.byte	60
 5746 03d5 04       		.byte	4
 5747 03d6 0E       		.byte	14
 5748 03d7 00       		.byte	0
 5749 03d8 00       		.byte	0
 5750 03d9 00       		.byte	0
 5751 03da 00       		.byte	0
 5752 03db 6C       		.byte	108
 5753 03dc 30       		.byte	48
 5754 03dd 20       		.byte	32
 5755 03de 20       		.byte	32
 5756 03df 20       		.byte	32
 5757 03e0 7C       		.byte	124
 5758 03e1 00       		.byte	0
 5759 03e2 00       		.byte	0
 5760 03e3 00       		.byte	0
 5761 03e4 00       		.byte	0
 5762 03e5 00       		.byte	0
 5763 03e6 00       		.byte	0
 5764 03e7 3C       		.byte	60
 5765 03e8 44       		.byte	68
 5766 03e9 38       		.byte	56
 5767 03ea 04       		.byte	4
 5768 03eb 44       		.byte	68
 5769 03ec 78       		.byte	120
 5770 03ed 00       		.byte	0
 5771 03ee 00       		.byte	0
 5772 03ef 00       		.byte	0
 5773 03f0 00       		.byte	0
 5774 03f1 00       		.byte	0
 5775 03f2 20       		.byte	32
 5776 03f3 7C       		.byte	124
 5777 03f4 20       		.byte	32
 5778 03f5 20       		.byte	32
 5779 03f6 20       		.byte	32
 5780 03f7 22       		.byte	34
 5781 03f8 1C       		.byte	28
 5782 03f9 00       		.byte	0
 5783 03fa 00       		.byte	0
 5784 03fb 00       		.byte	0
 5785 03fc 00       		.byte	0
 5786 03fd 00       		.byte	0
 5787 03fe 00       		.byte	0
 5788 03ff CC       		.byte	-52
 5789 0400 44       		.byte	68
 5790 0401 44       		.byte	68
 5791 0402 44       		.byte	68
 5792 0403 4C       		.byte	76
 5793 0404 36       		.byte	54
 5794 0405 00       		.byte	0
 5795 0406 00       		.byte	0
 5796 0407 00       		.byte	0
 5797 0408 00       		.byte	0
 5798 0409 00       		.byte	0
 5799 040a 00       		.byte	0
ARM GAS  C:\Users\milek\AppData\Local\Temp\ccMSPWBt.s 			page 139


 5800 040b EE       		.byte	-18
 5801 040c 44       		.byte	68
 5802 040d 44       		.byte	68
 5803 040e 28       		.byte	40
 5804 040f 28       		.byte	40
 5805 0410 10       		.byte	16
 5806 0411 00       		.byte	0
 5807 0412 00       		.byte	0
 5808 0413 00       		.byte	0
 5809 0414 00       		.byte	0
 5810 0415 00       		.byte	0
 5811 0416 00       		.byte	0
 5812 0417 EE       		.byte	-18
 5813 0418 44       		.byte	68
 5814 0419 54       		.byte	84
 5815 041a 54       		.byte	84
 5816 041b 54       		.byte	84
 5817 041c 28       		.byte	40
 5818 041d 00       		.byte	0
 5819 041e 00       		.byte	0
 5820 041f 00       		.byte	0
 5821 0420 00       		.byte	0
 5822 0421 00       		.byte	0
 5823 0422 00       		.byte	0
 5824 0423 CC       		.byte	-52
 5825 0424 48       		.byte	72
 5826 0425 30       		.byte	48
 5827 0426 30       		.byte	48
 5828 0427 48       		.byte	72
 5829 0428 CC       		.byte	-52
 5830 0429 00       		.byte	0
 5831 042a 00       		.byte	0
 5832 042b 00       		.byte	0
 5833 042c 00       		.byte	0
 5834 042d 00       		.byte	0
 5835 042e 00       		.byte	0
 5836 042f EE       		.byte	-18
 5837 0430 44       		.byte	68
 5838 0431 24       		.byte	36
 5839 0432 28       		.byte	40
 5840 0433 18       		.byte	24
 5841 0434 10       		.byte	16
 5842 0435 10       		.byte	16
 5843 0436 78       		.byte	120
 5844 0437 00       		.byte	0
 5845 0438 00       		.byte	0
 5846 0439 00       		.byte	0
 5847 043a 00       		.byte	0
 5848 043b 7C       		.byte	124
 5849 043c 48       		.byte	72
 5850 043d 10       		.byte	16
 5851 043e 20       		.byte	32
 5852 043f 44       		.byte	68
 5853 0440 7C       		.byte	124
 5854 0441 00       		.byte	0
 5855 0442 00       		.byte	0
 5856 0443 00       		.byte	0
ARM GAS  C:\Users\milek\AppData\Local\Temp\ccMSPWBt.s 			page 140


 5857 0444 00       		.byte	0
 5858 0445 08       		.byte	8
 5859 0446 10       		.byte	16
 5860 0447 10       		.byte	16
 5861 0448 10       		.byte	16
 5862 0449 10       		.byte	16
 5863 044a 20       		.byte	32
 5864 044b 10       		.byte	16
 5865 044c 10       		.byte	16
 5866 044d 10       		.byte	16
 5867 044e 08       		.byte	8
 5868 044f 00       		.byte	0
 5869 0450 00       		.byte	0
 5870 0451 10       		.byte	16
 5871 0452 10       		.byte	16
 5872 0453 10       		.byte	16
 5873 0454 10       		.byte	16
 5874 0455 10       		.byte	16
 5875 0456 10       		.byte	16
 5876 0457 10       		.byte	16
 5877 0458 10       		.byte	16
 5878 0459 10       		.byte	16
 5879 045a 00       		.byte	0
 5880 045b 00       		.byte	0
 5881 045c 00       		.byte	0
 5882 045d 20       		.byte	32
 5883 045e 10       		.byte	16
 5884 045f 10       		.byte	16
 5885 0460 10       		.byte	16
 5886 0461 10       		.byte	16
 5887 0462 08       		.byte	8
 5888 0463 10       		.byte	16
 5889 0464 10       		.byte	16
 5890 0465 10       		.byte	16
 5891 0466 20       		.byte	32
 5892 0467 00       		.byte	0
 5893 0468 00       		.byte	0
 5894 0469 00       		.byte	0
 5895 046a 00       		.byte	0
 5896 046b 00       		.byte	0
 5897 046c 00       		.byte	0
 5898 046d 24       		.byte	36
 5899 046e 58       		.byte	88
 5900 046f 00       		.byte	0
 5901 0470 00       		.byte	0
 5902 0471 00       		.byte	0
 5903 0472 00       		.byte	0
 5904 0473 00       		.byte	0
 5905              		.section	.rodata.Font16_Table,"a",%progbits
 5906              		.align	2
 5909              	Font16_Table:
 5910 0000 00       		.byte	0
 5911 0001 00       		.byte	0
 5912 0002 00       		.byte	0
 5913 0003 00       		.byte	0
 5914 0004 00       		.byte	0
 5915 0005 00       		.byte	0
ARM GAS  C:\Users\milek\AppData\Local\Temp\ccMSPWBt.s 			page 141


 5916 0006 00       		.byte	0
 5917 0007 00       		.byte	0
 5918 0008 00       		.byte	0
 5919 0009 00       		.byte	0
 5920 000a 00       		.byte	0
 5921 000b 00       		.byte	0
 5922 000c 00       		.byte	0
 5923 000d 00       		.byte	0
 5924 000e 00       		.byte	0
 5925 000f 00       		.byte	0
 5926 0010 00       		.byte	0
 5927 0011 00       		.byte	0
 5928 0012 00       		.byte	0
 5929 0013 00       		.byte	0
 5930 0014 00       		.byte	0
 5931 0015 00       		.byte	0
 5932 0016 00       		.byte	0
 5933 0017 00       		.byte	0
 5934 0018 00       		.byte	0
 5935 0019 00       		.byte	0
 5936 001a 00       		.byte	0
 5937 001b 00       		.byte	0
 5938 001c 00       		.byte	0
 5939 001d 00       		.byte	0
 5940 001e 00       		.byte	0
 5941 001f 00       		.byte	0
 5942 0020 00       		.byte	0
 5943 0021 00       		.byte	0
 5944 0022 0C       		.byte	12
 5945 0023 00       		.byte	0
 5946 0024 0C       		.byte	12
 5947 0025 00       		.byte	0
 5948 0026 0C       		.byte	12
 5949 0027 00       		.byte	0
 5950 0028 0C       		.byte	12
 5951 0029 00       		.byte	0
 5952 002a 0C       		.byte	12
 5953 002b 00       		.byte	0
 5954 002c 0C       		.byte	12
 5955 002d 00       		.byte	0
 5956 002e 0C       		.byte	12
 5957 002f 00       		.byte	0
 5958 0030 0C       		.byte	12
 5959 0031 00       		.byte	0
 5960 0032 00       		.byte	0
 5961 0033 00       		.byte	0
 5962 0034 0C       		.byte	12
 5963 0035 00       		.byte	0
 5964 0036 00       		.byte	0
 5965 0037 00       		.byte	0
 5966 0038 00       		.byte	0
 5967 0039 00       		.byte	0
 5968 003a 00       		.byte	0
 5969 003b 00       		.byte	0
 5970 003c 00       		.byte	0
 5971 003d 00       		.byte	0
 5972 003e 00       		.byte	0
ARM GAS  C:\Users\milek\AppData\Local\Temp\ccMSPWBt.s 			page 142


 5973 003f 00       		.byte	0
 5974 0040 00       		.byte	0
 5975 0041 00       		.byte	0
 5976 0042 00       		.byte	0
 5977 0043 00       		.byte	0
 5978 0044 1D       		.byte	29
 5979 0045 C0       		.byte	-64
 5980 0046 1D       		.byte	29
 5981 0047 C0       		.byte	-64
 5982 0048 08       		.byte	8
 5983 0049 80       		.byte	-128
 5984 004a 08       		.byte	8
 5985 004b 80       		.byte	-128
 5986 004c 08       		.byte	8
 5987 004d 80       		.byte	-128
 5988 004e 00       		.byte	0
 5989 004f 00       		.byte	0
 5990 0050 00       		.byte	0
 5991 0051 00       		.byte	0
 5992 0052 00       		.byte	0
 5993 0053 00       		.byte	0
 5994 0054 00       		.byte	0
 5995 0055 00       		.byte	0
 5996 0056 00       		.byte	0
 5997 0057 00       		.byte	0
 5998 0058 00       		.byte	0
 5999 0059 00       		.byte	0
 6000 005a 00       		.byte	0
 6001 005b 00       		.byte	0
 6002 005c 00       		.byte	0
 6003 005d 00       		.byte	0
 6004 005e 00       		.byte	0
 6005 005f 00       		.byte	0
 6006 0060 00       		.byte	0
 6007 0061 00       		.byte	0
 6008 0062 0D       		.byte	13
 6009 0063 80       		.byte	-128
 6010 0064 0D       		.byte	13
 6011 0065 80       		.byte	-128
 6012 0066 0D       		.byte	13
 6013 0067 80       		.byte	-128
 6014 0068 0D       		.byte	13
 6015 0069 80       		.byte	-128
 6016 006a 3F       		.byte	63
 6017 006b C0       		.byte	-64
 6018 006c 1B       		.byte	27
 6019 006d 00       		.byte	0
 6020 006e 3F       		.byte	63
 6021 006f C0       		.byte	-64
 6022 0070 1B       		.byte	27
 6023 0071 00       		.byte	0
 6024 0072 1B       		.byte	27
 6025 0073 00       		.byte	0
 6026 0074 1B       		.byte	27
 6027 0075 00       		.byte	0
 6028 0076 1B       		.byte	27
 6029 0077 00       		.byte	0
ARM GAS  C:\Users\milek\AppData\Local\Temp\ccMSPWBt.s 			page 143


 6030 0078 00       		.byte	0
 6031 0079 00       		.byte	0
 6032 007a 00       		.byte	0
 6033 007b 00       		.byte	0
 6034 007c 00       		.byte	0
 6035 007d 00       		.byte	0
 6036 007e 00       		.byte	0
 6037 007f 00       		.byte	0
 6038 0080 04       		.byte	4
 6039 0081 00       		.byte	0
 6040 0082 1F       		.byte	31
 6041 0083 80       		.byte	-128
 6042 0084 31       		.byte	49
 6043 0085 80       		.byte	-128
 6044 0086 31       		.byte	49
 6045 0087 80       		.byte	-128
 6046 0088 38       		.byte	56
 6047 0089 00       		.byte	0
 6048 008a 1E       		.byte	30
 6049 008b 00       		.byte	0
 6050 008c 0F       		.byte	15
 6051 008d 00       		.byte	0
 6052 008e 03       		.byte	3
 6053 008f 80       		.byte	-128
 6054 0090 31       		.byte	49
 6055 0091 80       		.byte	-128
 6056 0092 31       		.byte	49
 6057 0093 80       		.byte	-128
 6058 0094 3F       		.byte	63
 6059 0095 00       		.byte	0
 6060 0096 04       		.byte	4
 6061 0097 00       		.byte	0
 6062 0098 04       		.byte	4
 6063 0099 00       		.byte	0
 6064 009a 00       		.byte	0
 6065 009b 00       		.byte	0
 6066 009c 00       		.byte	0
 6067 009d 00       		.byte	0
 6068 009e 00       		.byte	0
 6069 009f 00       		.byte	0
 6070 00a0 00       		.byte	0
 6071 00a1 00       		.byte	0
 6072 00a2 18       		.byte	24
 6073 00a3 00       		.byte	0
 6074 00a4 24       		.byte	36
 6075 00a5 00       		.byte	0
 6076 00a6 24       		.byte	36
 6077 00a7 00       		.byte	0
 6078 00a8 18       		.byte	24
 6079 00a9 C0       		.byte	-64
 6080 00aa 07       		.byte	7
 6081 00ab 80       		.byte	-128
 6082 00ac 1E       		.byte	30
 6083 00ad 00       		.byte	0
 6084 00ae 31       		.byte	49
 6085 00af 80       		.byte	-128
 6086 00b0 02       		.byte	2
ARM GAS  C:\Users\milek\AppData\Local\Temp\ccMSPWBt.s 			page 144


 6087 00b1 40       		.byte	64
 6088 00b2 02       		.byte	2
 6089 00b3 40       		.byte	64
 6090 00b4 01       		.byte	1
 6091 00b5 80       		.byte	-128
 6092 00b6 00       		.byte	0
 6093 00b7 00       		.byte	0
 6094 00b8 00       		.byte	0
 6095 00b9 00       		.byte	0
 6096 00ba 00       		.byte	0
 6097 00bb 00       		.byte	0
 6098 00bc 00       		.byte	0
 6099 00bd 00       		.byte	0
 6100 00be 00       		.byte	0
 6101 00bf 00       		.byte	0
 6102 00c0 00       		.byte	0
 6103 00c1 00       		.byte	0
 6104 00c2 00       		.byte	0
 6105 00c3 00       		.byte	0
 6106 00c4 0F       		.byte	15
 6107 00c5 00       		.byte	0
 6108 00c6 18       		.byte	24
 6109 00c7 00       		.byte	0
 6110 00c8 18       		.byte	24
 6111 00c9 00       		.byte	0
 6112 00ca 18       		.byte	24
 6113 00cb 00       		.byte	0
 6114 00cc 0C       		.byte	12
 6115 00cd 00       		.byte	0
 6116 00ce 1D       		.byte	29
 6117 00cf 80       		.byte	-128
 6118 00d0 37       		.byte	55
 6119 00d1 00       		.byte	0
 6120 00d2 33       		.byte	51
 6121 00d3 00       		.byte	0
 6122 00d4 1D       		.byte	29
 6123 00d5 80       		.byte	-128
 6124 00d6 00       		.byte	0
 6125 00d7 00       		.byte	0
 6126 00d8 00       		.byte	0
 6127 00d9 00       		.byte	0
 6128 00da 00       		.byte	0
 6129 00db 00       		.byte	0
 6130 00dc 00       		.byte	0
 6131 00dd 00       		.byte	0
 6132 00de 00       		.byte	0
 6133 00df 00       		.byte	0
 6134 00e0 00       		.byte	0
 6135 00e1 00       		.byte	0
 6136 00e2 00       		.byte	0
 6137 00e3 00       		.byte	0
 6138 00e4 07       		.byte	7
 6139 00e5 00       		.byte	0
 6140 00e6 07       		.byte	7
 6141 00e7 00       		.byte	0
 6142 00e8 02       		.byte	2
 6143 00e9 00       		.byte	0
ARM GAS  C:\Users\milek\AppData\Local\Temp\ccMSPWBt.s 			page 145


 6144 00ea 02       		.byte	2
 6145 00eb 00       		.byte	0
 6146 00ec 02       		.byte	2
 6147 00ed 00       		.byte	0
 6148 00ee 00       		.byte	0
 6149 00ef 00       		.byte	0
 6150 00f0 00       		.byte	0
 6151 00f1 00       		.byte	0
 6152 00f2 00       		.byte	0
 6153 00f3 00       		.byte	0
 6154 00f4 00       		.byte	0
 6155 00f5 00       		.byte	0
 6156 00f6 00       		.byte	0
 6157 00f7 00       		.byte	0
 6158 00f8 00       		.byte	0
 6159 00f9 00       		.byte	0
 6160 00fa 00       		.byte	0
 6161 00fb 00       		.byte	0
 6162 00fc 00       		.byte	0
 6163 00fd 00       		.byte	0
 6164 00fe 00       		.byte	0
 6165 00ff 00       		.byte	0
 6166 0100 00       		.byte	0
 6167 0101 00       		.byte	0
 6168 0102 03       		.byte	3
 6169 0103 00       		.byte	0
 6170 0104 03       		.byte	3
 6171 0105 00       		.byte	0
 6172 0106 06       		.byte	6
 6173 0107 00       		.byte	0
 6174 0108 0E       		.byte	14
 6175 0109 00       		.byte	0
 6176 010a 0C       		.byte	12
 6177 010b 00       		.byte	0
 6178 010c 0C       		.byte	12
 6179 010d 00       		.byte	0
 6180 010e 0C       		.byte	12
 6181 010f 00       		.byte	0
 6182 0110 0C       		.byte	12
 6183 0111 00       		.byte	0
 6184 0112 0E       		.byte	14
 6185 0113 00       		.byte	0
 6186 0114 06       		.byte	6
 6187 0115 00       		.byte	0
 6188 0116 03       		.byte	3
 6189 0117 00       		.byte	0
 6190 0118 03       		.byte	3
 6191 0119 00       		.byte	0
 6192 011a 00       		.byte	0
 6193 011b 00       		.byte	0
 6194 011c 00       		.byte	0
 6195 011d 00       		.byte	0
 6196 011e 00       		.byte	0
 6197 011f 00       		.byte	0
 6198 0120 00       		.byte	0
 6199 0121 00       		.byte	0
 6200 0122 18       		.byte	24
ARM GAS  C:\Users\milek\AppData\Local\Temp\ccMSPWBt.s 			page 146


 6201 0123 00       		.byte	0
 6202 0124 18       		.byte	24
 6203 0125 00       		.byte	0
 6204 0126 0C       		.byte	12
 6205 0127 00       		.byte	0
 6206 0128 06       		.byte	6
 6207 0129 00       		.byte	0
 6208 012a 06       		.byte	6
 6209 012b 00       		.byte	0
 6210 012c 06       		.byte	6
 6211 012d 00       		.byte	0
 6212 012e 06       		.byte	6
 6213 012f 00       		.byte	0
 6214 0130 06       		.byte	6
 6215 0131 00       		.byte	0
 6216 0132 06       		.byte	6
 6217 0133 00       		.byte	0
 6218 0134 0C       		.byte	12
 6219 0135 00       		.byte	0
 6220 0136 1C       		.byte	28
 6221 0137 00       		.byte	0
 6222 0138 18       		.byte	24
 6223 0139 00       		.byte	0
 6224 013a 00       		.byte	0
 6225 013b 00       		.byte	0
 6226 013c 00       		.byte	0
 6227 013d 00       		.byte	0
 6228 013e 00       		.byte	0
 6229 013f 00       		.byte	0
 6230 0140 00       		.byte	0
 6231 0141 00       		.byte	0
 6232 0142 06       		.byte	6
 6233 0143 00       		.byte	0
 6234 0144 06       		.byte	6
 6235 0145 00       		.byte	0
 6236 0146 3F       		.byte	63
 6237 0147 C0       		.byte	-64
 6238 0148 3F       		.byte	63
 6239 0149 C0       		.byte	-64
 6240 014a 0F       		.byte	15
 6241 014b 00       		.byte	0
 6242 014c 1F       		.byte	31
 6243 014d 80       		.byte	-128
 6244 014e 19       		.byte	25
 6245 014f 80       		.byte	-128
 6246 0150 00       		.byte	0
 6247 0151 00       		.byte	0
 6248 0152 00       		.byte	0
 6249 0153 00       		.byte	0
 6250 0154 00       		.byte	0
 6251 0155 00       		.byte	0
 6252 0156 00       		.byte	0
 6253 0157 00       		.byte	0
 6254 0158 00       		.byte	0
 6255 0159 00       		.byte	0
 6256 015a 00       		.byte	0
 6257 015b 00       		.byte	0
ARM GAS  C:\Users\milek\AppData\Local\Temp\ccMSPWBt.s 			page 147


 6258 015c 00       		.byte	0
 6259 015d 00       		.byte	0
 6260 015e 00       		.byte	0
 6261 015f 00       		.byte	0
 6262 0160 00       		.byte	0
 6263 0161 00       		.byte	0
 6264 0162 00       		.byte	0
 6265 0163 00       		.byte	0
 6266 0164 00       		.byte	0
 6267 0165 00       		.byte	0
 6268 0166 04       		.byte	4
 6269 0167 00       		.byte	0
 6270 0168 04       		.byte	4
 6271 0169 00       		.byte	0
 6272 016a 04       		.byte	4
 6273 016b 00       		.byte	0
 6274 016c 3F       		.byte	63
 6275 016d 80       		.byte	-128
 6276 016e 04       		.byte	4
 6277 016f 00       		.byte	0
 6278 0170 04       		.byte	4
 6279 0171 00       		.byte	0
 6280 0172 04       		.byte	4
 6281 0173 00       		.byte	0
 6282 0174 00       		.byte	0
 6283 0175 00       		.byte	0
 6284 0176 00       		.byte	0
 6285 0177 00       		.byte	0
 6286 0178 00       		.byte	0
 6287 0179 00       		.byte	0
 6288 017a 00       		.byte	0
 6289 017b 00       		.byte	0
 6290 017c 00       		.byte	0
 6291 017d 00       		.byte	0
 6292 017e 00       		.byte	0
 6293 017f 00       		.byte	0
 6294 0180 00       		.byte	0
 6295 0181 00       		.byte	0
 6296 0182 00       		.byte	0
 6297 0183 00       		.byte	0
 6298 0184 00       		.byte	0
 6299 0185 00       		.byte	0
 6300 0186 00       		.byte	0
 6301 0187 00       		.byte	0
 6302 0188 00       		.byte	0
 6303 0189 00       		.byte	0
 6304 018a 00       		.byte	0
 6305 018b 00       		.byte	0
 6306 018c 00       		.byte	0
 6307 018d 00       		.byte	0
 6308 018e 00       		.byte	0
 6309 018f 00       		.byte	0
 6310 0190 00       		.byte	0
 6311 0191 00       		.byte	0
 6312 0192 06       		.byte	6
 6313 0193 00       		.byte	0
 6314 0194 04       		.byte	4
ARM GAS  C:\Users\milek\AppData\Local\Temp\ccMSPWBt.s 			page 148


 6315 0195 00       		.byte	0
 6316 0196 0C       		.byte	12
 6317 0197 00       		.byte	0
 6318 0198 08       		.byte	8
 6319 0199 00       		.byte	0
 6320 019a 08       		.byte	8
 6321 019b 00       		.byte	0
 6322 019c 00       		.byte	0
 6323 019d 00       		.byte	0
 6324 019e 00       		.byte	0
 6325 019f 00       		.byte	0
 6326 01a0 00       		.byte	0
 6327 01a1 00       		.byte	0
 6328 01a2 00       		.byte	0
 6329 01a3 00       		.byte	0
 6330 01a4 00       		.byte	0
 6331 01a5 00       		.byte	0
 6332 01a6 00       		.byte	0
 6333 01a7 00       		.byte	0
 6334 01a8 00       		.byte	0
 6335 01a9 00       		.byte	0
 6336 01aa 00       		.byte	0
 6337 01ab 00       		.byte	0
 6338 01ac 3F       		.byte	63
 6339 01ad 80       		.byte	-128
 6340 01ae 00       		.byte	0
 6341 01af 00       		.byte	0
 6342 01b0 00       		.byte	0
 6343 01b1 00       		.byte	0
 6344 01b2 00       		.byte	0
 6345 01b3 00       		.byte	0
 6346 01b4 00       		.byte	0
 6347 01b5 00       		.byte	0
 6348 01b6 00       		.byte	0
 6349 01b7 00       		.byte	0
 6350 01b8 00       		.byte	0
 6351 01b9 00       		.byte	0
 6352 01ba 00       		.byte	0
 6353 01bb 00       		.byte	0
 6354 01bc 00       		.byte	0
 6355 01bd 00       		.byte	0
 6356 01be 00       		.byte	0
 6357 01bf 00       		.byte	0
 6358 01c0 00       		.byte	0
 6359 01c1 00       		.byte	0
 6360 01c2 00       		.byte	0
 6361 01c3 00       		.byte	0
 6362 01c4 00       		.byte	0
 6363 01c5 00       		.byte	0
 6364 01c6 00       		.byte	0
 6365 01c7 00       		.byte	0
 6366 01c8 00       		.byte	0
 6367 01c9 00       		.byte	0
 6368 01ca 00       		.byte	0
 6369 01cb 00       		.byte	0
 6370 01cc 00       		.byte	0
 6371 01cd 00       		.byte	0
ARM GAS  C:\Users\milek\AppData\Local\Temp\ccMSPWBt.s 			page 149


 6372 01ce 00       		.byte	0
 6373 01cf 00       		.byte	0
 6374 01d0 00       		.byte	0
 6375 01d1 00       		.byte	0
 6376 01d2 0C       		.byte	12
 6377 01d3 00       		.byte	0
 6378 01d4 0C       		.byte	12
 6379 01d5 00       		.byte	0
 6380 01d6 00       		.byte	0
 6381 01d7 00       		.byte	0
 6382 01d8 00       		.byte	0
 6383 01d9 00       		.byte	0
 6384 01da 00       		.byte	0
 6385 01db 00       		.byte	0
 6386 01dc 00       		.byte	0
 6387 01dd 00       		.byte	0
 6388 01de 00       		.byte	0
 6389 01df 00       		.byte	0
 6390 01e0 00       		.byte	0
 6391 01e1 C0       		.byte	-64
 6392 01e2 00       		.byte	0
 6393 01e3 C0       		.byte	-64
 6394 01e4 01       		.byte	1
 6395 01e5 80       		.byte	-128
 6396 01e6 01       		.byte	1
 6397 01e7 80       		.byte	-128
 6398 01e8 03       		.byte	3
 6399 01e9 00       		.byte	0
 6400 01ea 03       		.byte	3
 6401 01eb 00       		.byte	0
 6402 01ec 06       		.byte	6
 6403 01ed 00       		.byte	0
 6404 01ee 0C       		.byte	12
 6405 01ef 00       		.byte	0
 6406 01f0 0C       		.byte	12
 6407 01f1 00       		.byte	0
 6408 01f2 18       		.byte	24
 6409 01f3 00       		.byte	0
 6410 01f4 18       		.byte	24
 6411 01f5 00       		.byte	0
 6412 01f6 30       		.byte	48
 6413 01f7 00       		.byte	0
 6414 01f8 30       		.byte	48
 6415 01f9 00       		.byte	0
 6416 01fa 00       		.byte	0
 6417 01fb 00       		.byte	0
 6418 01fc 00       		.byte	0
 6419 01fd 00       		.byte	0
 6420 01fe 00       		.byte	0
 6421 01ff 00       		.byte	0
 6422 0200 00       		.byte	0
 6423 0201 00       		.byte	0
 6424 0202 0E       		.byte	14
 6425 0203 00       		.byte	0
 6426 0204 1B       		.byte	27
 6427 0205 00       		.byte	0
 6428 0206 31       		.byte	49
ARM GAS  C:\Users\milek\AppData\Local\Temp\ccMSPWBt.s 			page 150


 6429 0207 80       		.byte	-128
 6430 0208 31       		.byte	49
 6431 0209 80       		.byte	-128
 6432 020a 31       		.byte	49
 6433 020b 80       		.byte	-128
 6434 020c 31       		.byte	49
 6435 020d 80       		.byte	-128
 6436 020e 31       		.byte	49
 6437 020f 80       		.byte	-128
 6438 0210 31       		.byte	49
 6439 0211 80       		.byte	-128
 6440 0212 1B       		.byte	27
 6441 0213 00       		.byte	0
 6442 0214 0E       		.byte	14
 6443 0215 00       		.byte	0
 6444 0216 00       		.byte	0
 6445 0217 00       		.byte	0
 6446 0218 00       		.byte	0
 6447 0219 00       		.byte	0
 6448 021a 00       		.byte	0
 6449 021b 00       		.byte	0
 6450 021c 00       		.byte	0
 6451 021d 00       		.byte	0
 6452 021e 00       		.byte	0
 6453 021f 00       		.byte	0
 6454 0220 00       		.byte	0
 6455 0221 00       		.byte	0
 6456 0222 06       		.byte	6
 6457 0223 00       		.byte	0
 6458 0224 3E       		.byte	62
 6459 0225 00       		.byte	0
 6460 0226 06       		.byte	6
 6461 0227 00       		.byte	0
 6462 0228 06       		.byte	6
 6463 0229 00       		.byte	0
 6464 022a 06       		.byte	6
 6465 022b 00       		.byte	0
 6466 022c 06       		.byte	6
 6467 022d 00       		.byte	0
 6468 022e 06       		.byte	6
 6469 022f 00       		.byte	0
 6470 0230 06       		.byte	6
 6471 0231 00       		.byte	0
 6472 0232 06       		.byte	6
 6473 0233 00       		.byte	0
 6474 0234 3F       		.byte	63
 6475 0235 C0       		.byte	-64
 6476 0236 00       		.byte	0
 6477 0237 00       		.byte	0
 6478 0238 00       		.byte	0
 6479 0239 00       		.byte	0
 6480 023a 00       		.byte	0
 6481 023b 00       		.byte	0
 6482 023c 00       		.byte	0
 6483 023d 00       		.byte	0
 6484 023e 00       		.byte	0
 6485 023f 00       		.byte	0
ARM GAS  C:\Users\milek\AppData\Local\Temp\ccMSPWBt.s 			page 151


 6486 0240 00       		.byte	0
 6487 0241 00       		.byte	0
 6488 0242 0F       		.byte	15
 6489 0243 00       		.byte	0
 6490 0244 19       		.byte	25
 6491 0245 80       		.byte	-128
 6492 0246 31       		.byte	49
 6493 0247 80       		.byte	-128
 6494 0248 31       		.byte	49
 6495 0249 80       		.byte	-128
 6496 024a 03       		.byte	3
 6497 024b 00       		.byte	0
 6498 024c 06       		.byte	6
 6499 024d 00       		.byte	0
 6500 024e 0C       		.byte	12
 6501 024f 00       		.byte	0
 6502 0250 18       		.byte	24
 6503 0251 00       		.byte	0
 6504 0252 30       		.byte	48
 6505 0253 00       		.byte	0
 6506 0254 3F       		.byte	63
 6507 0255 80       		.byte	-128
 6508 0256 00       		.byte	0
 6509 0257 00       		.byte	0
 6510 0258 00       		.byte	0
 6511 0259 00       		.byte	0
 6512 025a 00       		.byte	0
 6513 025b 00       		.byte	0
 6514 025c 00       		.byte	0
 6515 025d 00       		.byte	0
 6516 025e 00       		.byte	0
 6517 025f 00       		.byte	0
 6518 0260 00       		.byte	0
 6519 0261 00       		.byte	0
 6520 0262 3F       		.byte	63
 6521 0263 00       		.byte	0
 6522 0264 61       		.byte	97
 6523 0265 80       		.byte	-128
 6524 0266 01       		.byte	1
 6525 0267 80       		.byte	-128
 6526 0268 03       		.byte	3
 6527 0269 00       		.byte	0
 6528 026a 1F       		.byte	31
 6529 026b 00       		.byte	0
 6530 026c 03       		.byte	3
 6531 026d 80       		.byte	-128
 6532 026e 01       		.byte	1
 6533 026f 80       		.byte	-128
 6534 0270 01       		.byte	1
 6535 0271 80       		.byte	-128
 6536 0272 61       		.byte	97
 6537 0273 80       		.byte	-128
 6538 0274 3F       		.byte	63
 6539 0275 00       		.byte	0
 6540 0276 00       		.byte	0
 6541 0277 00       		.byte	0
 6542 0278 00       		.byte	0
ARM GAS  C:\Users\milek\AppData\Local\Temp\ccMSPWBt.s 			page 152


 6543 0279 00       		.byte	0
 6544 027a 00       		.byte	0
 6545 027b 00       		.byte	0
 6546 027c 00       		.byte	0
 6547 027d 00       		.byte	0
 6548 027e 00       		.byte	0
 6549 027f 00       		.byte	0
 6550 0280 00       		.byte	0
 6551 0281 00       		.byte	0
 6552 0282 07       		.byte	7
 6553 0283 00       		.byte	0
 6554 0284 07       		.byte	7
 6555 0285 00       		.byte	0
 6556 0286 0F       		.byte	15
 6557 0287 00       		.byte	0
 6558 0288 0B       		.byte	11
 6559 0289 00       		.byte	0
 6560 028a 1B       		.byte	27
 6561 028b 00       		.byte	0
 6562 028c 13       		.byte	19
 6563 028d 00       		.byte	0
 6564 028e 33       		.byte	51
 6565 028f 00       		.byte	0
 6566 0290 3F       		.byte	63
 6567 0291 80       		.byte	-128
 6568 0292 03       		.byte	3
 6569 0293 00       		.byte	0
 6570 0294 0F       		.byte	15
 6571 0295 80       		.byte	-128
 6572 0296 00       		.byte	0
 6573 0297 00       		.byte	0
 6574 0298 00       		.byte	0
 6575 0299 00       		.byte	0
 6576 029a 00       		.byte	0
 6577 029b 00       		.byte	0
 6578 029c 00       		.byte	0
 6579 029d 00       		.byte	0
 6580 029e 00       		.byte	0
 6581 029f 00       		.byte	0
 6582 02a0 00       		.byte	0
 6583 02a1 00       		.byte	0
 6584 02a2 1F       		.byte	31
 6585 02a3 80       		.byte	-128
 6586 02a4 18       		.byte	24
 6587 02a5 00       		.byte	0
 6588 02a6 18       		.byte	24
 6589 02a7 00       		.byte	0
 6590 02a8 18       		.byte	24
 6591 02a9 00       		.byte	0
 6592 02aa 1F       		.byte	31
 6593 02ab 00       		.byte	0
 6594 02ac 11       		.byte	17
 6595 02ad 80       		.byte	-128
 6596 02ae 01       		.byte	1
 6597 02af 80       		.byte	-128
 6598 02b0 01       		.byte	1
 6599 02b1 80       		.byte	-128
ARM GAS  C:\Users\milek\AppData\Local\Temp\ccMSPWBt.s 			page 153


 6600 02b2 21       		.byte	33
 6601 02b3 80       		.byte	-128
 6602 02b4 1F       		.byte	31
 6603 02b5 00       		.byte	0
 6604 02b6 00       		.byte	0
 6605 02b7 00       		.byte	0
 6606 02b8 00       		.byte	0
 6607 02b9 00       		.byte	0
 6608 02ba 00       		.byte	0
 6609 02bb 00       		.byte	0
 6610 02bc 00       		.byte	0
 6611 02bd 00       		.byte	0
 6612 02be 00       		.byte	0
 6613 02bf 00       		.byte	0
 6614 02c0 00       		.byte	0
 6615 02c1 00       		.byte	0
 6616 02c2 07       		.byte	7
 6617 02c3 80       		.byte	-128
 6618 02c4 1C       		.byte	28
 6619 02c5 00       		.byte	0
 6620 02c6 18       		.byte	24
 6621 02c7 00       		.byte	0
 6622 02c8 30       		.byte	48
 6623 02c9 00       		.byte	0
 6624 02ca 37       		.byte	55
 6625 02cb 00       		.byte	0
 6626 02cc 39       		.byte	57
 6627 02cd 80       		.byte	-128
 6628 02ce 31       		.byte	49
 6629 02cf 80       		.byte	-128
 6630 02d0 31       		.byte	49
 6631 02d1 80       		.byte	-128
 6632 02d2 19       		.byte	25
 6633 02d3 80       		.byte	-128
 6634 02d4 0F       		.byte	15
 6635 02d5 00       		.byte	0
 6636 02d6 00       		.byte	0
 6637 02d7 00       		.byte	0
 6638 02d8 00       		.byte	0
 6639 02d9 00       		.byte	0
 6640 02da 00       		.byte	0
 6641 02db 00       		.byte	0
 6642 02dc 00       		.byte	0
 6643 02dd 00       		.byte	0
 6644 02de 00       		.byte	0
 6645 02df 00       		.byte	0
 6646 02e0 00       		.byte	0
 6647 02e1 00       		.byte	0
 6648 02e2 7F       		.byte	127
 6649 02e3 00       		.byte	0
 6650 02e4 43       		.byte	67
 6651 02e5 00       		.byte	0
 6652 02e6 03       		.byte	3
 6653 02e7 00       		.byte	0
 6654 02e8 06       		.byte	6
 6655 02e9 00       		.byte	0
 6656 02ea 06       		.byte	6
ARM GAS  C:\Users\milek\AppData\Local\Temp\ccMSPWBt.s 			page 154


 6657 02eb 00       		.byte	0
 6658 02ec 06       		.byte	6
 6659 02ed 00       		.byte	0
 6660 02ee 06       		.byte	6
 6661 02ef 00       		.byte	0
 6662 02f0 0C       		.byte	12
 6663 02f1 00       		.byte	0
 6664 02f2 0C       		.byte	12
 6665 02f3 00       		.byte	0
 6666 02f4 0C       		.byte	12
 6667 02f5 00       		.byte	0
 6668 02f6 00       		.byte	0
 6669 02f7 00       		.byte	0
 6670 02f8 00       		.byte	0
 6671 02f9 00       		.byte	0
 6672 02fa 00       		.byte	0
 6673 02fb 00       		.byte	0
 6674 02fc 00       		.byte	0
 6675 02fd 00       		.byte	0
 6676 02fe 00       		.byte	0
 6677 02ff 00       		.byte	0
 6678 0300 00       		.byte	0
 6679 0301 00       		.byte	0
 6680 0302 1F       		.byte	31
 6681 0303 00       		.byte	0
 6682 0304 31       		.byte	49
 6683 0305 80       		.byte	-128
 6684 0306 31       		.byte	49
 6685 0307 80       		.byte	-128
 6686 0308 31       		.byte	49
 6687 0309 80       		.byte	-128
 6688 030a 1F       		.byte	31
 6689 030b 00       		.byte	0
 6690 030c 31       		.byte	49
 6691 030d 80       		.byte	-128
 6692 030e 31       		.byte	49
 6693 030f 80       		.byte	-128
 6694 0310 31       		.byte	49
 6695 0311 80       		.byte	-128
 6696 0312 31       		.byte	49
 6697 0313 80       		.byte	-128
 6698 0314 1F       		.byte	31
 6699 0315 00       		.byte	0
 6700 0316 00       		.byte	0
 6701 0317 00       		.byte	0
 6702 0318 00       		.byte	0
 6703 0319 00       		.byte	0
 6704 031a 00       		.byte	0
 6705 031b 00       		.byte	0
 6706 031c 00       		.byte	0
 6707 031d 00       		.byte	0
 6708 031e 00       		.byte	0
 6709 031f 00       		.byte	0
 6710 0320 00       		.byte	0
 6711 0321 00       		.byte	0
 6712 0322 1E       		.byte	30
 6713 0323 00       		.byte	0
ARM GAS  C:\Users\milek\AppData\Local\Temp\ccMSPWBt.s 			page 155


 6714 0324 33       		.byte	51
 6715 0325 00       		.byte	0
 6716 0326 31       		.byte	49
 6717 0327 80       		.byte	-128
 6718 0328 31       		.byte	49
 6719 0329 80       		.byte	-128
 6720 032a 33       		.byte	51
 6721 032b 80       		.byte	-128
 6722 032c 1D       		.byte	29
 6723 032d 80       		.byte	-128
 6724 032e 01       		.byte	1
 6725 032f 80       		.byte	-128
 6726 0330 03       		.byte	3
 6727 0331 00       		.byte	0
 6728 0332 07       		.byte	7
 6729 0333 00       		.byte	0
 6730 0334 3C       		.byte	60
 6731 0335 00       		.byte	0
 6732 0336 00       		.byte	0
 6733 0337 00       		.byte	0
 6734 0338 00       		.byte	0
 6735 0339 00       		.byte	0
 6736 033a 00       		.byte	0
 6737 033b 00       		.byte	0
 6738 033c 00       		.byte	0
 6739 033d 00       		.byte	0
 6740 033e 00       		.byte	0
 6741 033f 00       		.byte	0
 6742 0340 00       		.byte	0
 6743 0341 00       		.byte	0
 6744 0342 00       		.byte	0
 6745 0343 00       		.byte	0
 6746 0344 00       		.byte	0
 6747 0345 00       		.byte	0
 6748 0346 00       		.byte	0
 6749 0347 00       		.byte	0
 6750 0348 0C       		.byte	12
 6751 0349 00       		.byte	0
 6752 034a 0C       		.byte	12
 6753 034b 00       		.byte	0
 6754 034c 00       		.byte	0
 6755 034d 00       		.byte	0
 6756 034e 00       		.byte	0
 6757 034f 00       		.byte	0
 6758 0350 00       		.byte	0
 6759 0351 00       		.byte	0
 6760 0352 0C       		.byte	12
 6761 0353 00       		.byte	0
 6762 0354 0C       		.byte	12
 6763 0355 00       		.byte	0
 6764 0356 00       		.byte	0
 6765 0357 00       		.byte	0
 6766 0358 00       		.byte	0
 6767 0359 00       		.byte	0
 6768 035a 00       		.byte	0
 6769 035b 00       		.byte	0
 6770 035c 00       		.byte	0
ARM GAS  C:\Users\milek\AppData\Local\Temp\ccMSPWBt.s 			page 156


 6771 035d 00       		.byte	0
 6772 035e 00       		.byte	0
 6773 035f 00       		.byte	0
 6774 0360 00       		.byte	0
 6775 0361 00       		.byte	0
 6776 0362 00       		.byte	0
 6777 0363 00       		.byte	0
 6778 0364 00       		.byte	0
 6779 0365 00       		.byte	0
 6780 0366 00       		.byte	0
 6781 0367 00       		.byte	0
 6782 0368 03       		.byte	3
 6783 0369 00       		.byte	0
 6784 036a 03       		.byte	3
 6785 036b 00       		.byte	0
 6786 036c 00       		.byte	0
 6787 036d 00       		.byte	0
 6788 036e 00       		.byte	0
 6789 036f 00       		.byte	0
 6790 0370 00       		.byte	0
 6791 0371 00       		.byte	0
 6792 0372 06       		.byte	6
 6793 0373 00       		.byte	0
 6794 0374 04       		.byte	4
 6795 0375 00       		.byte	0
 6796 0376 08       		.byte	8
 6797 0377 00       		.byte	0
 6798 0378 08       		.byte	8
 6799 0379 00       		.byte	0
 6800 037a 00       		.byte	0
 6801 037b 00       		.byte	0
 6802 037c 00       		.byte	0
 6803 037d 00       		.byte	0
 6804 037e 00       		.byte	0
 6805 037f 00       		.byte	0
 6806 0380 00       		.byte	0
 6807 0381 00       		.byte	0
 6808 0382 00       		.byte	0
 6809 0383 00       		.byte	0
 6810 0384 00       		.byte	0
 6811 0385 C0       		.byte	-64
 6812 0386 03       		.byte	3
 6813 0387 00       		.byte	0
 6814 0388 04       		.byte	4
 6815 0389 00       		.byte	0
 6816 038a 18       		.byte	24
 6817 038b 00       		.byte	0
 6818 038c 60       		.byte	96
 6819 038d 00       		.byte	0
 6820 038e 18       		.byte	24
 6821 038f 00       		.byte	0
 6822 0390 04       		.byte	4
 6823 0391 00       		.byte	0
 6824 0392 03       		.byte	3
 6825 0393 00       		.byte	0
 6826 0394 00       		.byte	0
 6827 0395 C0       		.byte	-64
ARM GAS  C:\Users\milek\AppData\Local\Temp\ccMSPWBt.s 			page 157


 6828 0396 00       		.byte	0
 6829 0397 00       		.byte	0
 6830 0398 00       		.byte	0
 6831 0399 00       		.byte	0
 6832 039a 00       		.byte	0
 6833 039b 00       		.byte	0
 6834 039c 00       		.byte	0
 6835 039d 00       		.byte	0
 6836 039e 00       		.byte	0
 6837 039f 00       		.byte	0
 6838 03a0 00       		.byte	0
 6839 03a1 00       		.byte	0
 6840 03a2 00       		.byte	0
 6841 03a3 00       		.byte	0
 6842 03a4 00       		.byte	0
 6843 03a5 00       		.byte	0
 6844 03a6 00       		.byte	0
 6845 03a7 00       		.byte	0
 6846 03a8 00       		.byte	0
 6847 03a9 00       		.byte	0
 6848 03aa 7F       		.byte	127
 6849 03ab C0       		.byte	-64
 6850 03ac 00       		.byte	0
 6851 03ad 00       		.byte	0
 6852 03ae 7F       		.byte	127
 6853 03af C0       		.byte	-64
 6854 03b0 00       		.byte	0
 6855 03b1 00       		.byte	0
 6856 03b2 00       		.byte	0
 6857 03b3 00       		.byte	0
 6858 03b4 00       		.byte	0
 6859 03b5 00       		.byte	0
 6860 03b6 00       		.byte	0
 6861 03b7 00       		.byte	0
 6862 03b8 00       		.byte	0
 6863 03b9 00       		.byte	0
 6864 03ba 00       		.byte	0
 6865 03bb 00       		.byte	0
 6866 03bc 00       		.byte	0
 6867 03bd 00       		.byte	0
 6868 03be 00       		.byte	0
 6869 03bf 00       		.byte	0
 6870 03c0 00       		.byte	0
 6871 03c1 00       		.byte	0
 6872 03c2 00       		.byte	0
 6873 03c3 00       		.byte	0
 6874 03c4 60       		.byte	96
 6875 03c5 00       		.byte	0
 6876 03c6 18       		.byte	24
 6877 03c7 00       		.byte	0
 6878 03c8 04       		.byte	4
 6879 03c9 00       		.byte	0
 6880 03ca 03       		.byte	3
 6881 03cb 00       		.byte	0
 6882 03cc 00       		.byte	0
 6883 03cd C0       		.byte	-64
 6884 03ce 03       		.byte	3
ARM GAS  C:\Users\milek\AppData\Local\Temp\ccMSPWBt.s 			page 158


 6885 03cf 00       		.byte	0
 6886 03d0 04       		.byte	4
 6887 03d1 00       		.byte	0
 6888 03d2 18       		.byte	24
 6889 03d3 00       		.byte	0
 6890 03d4 60       		.byte	96
 6891 03d5 00       		.byte	0
 6892 03d6 00       		.byte	0
 6893 03d7 00       		.byte	0
 6894 03d8 00       		.byte	0
 6895 03d9 00       		.byte	0
 6896 03da 00       		.byte	0
 6897 03db 00       		.byte	0
 6898 03dc 00       		.byte	0
 6899 03dd 00       		.byte	0
 6900 03de 00       		.byte	0
 6901 03df 00       		.byte	0
 6902 03e0 00       		.byte	0
 6903 03e1 00       		.byte	0
 6904 03e2 00       		.byte	0
 6905 03e3 00       		.byte	0
 6906 03e4 1F       		.byte	31
 6907 03e5 00       		.byte	0
 6908 03e6 31       		.byte	49
 6909 03e7 80       		.byte	-128
 6910 03e8 31       		.byte	49
 6911 03e9 80       		.byte	-128
 6912 03ea 01       		.byte	1
 6913 03eb 80       		.byte	-128
 6914 03ec 07       		.byte	7
 6915 03ed 00       		.byte	0
 6916 03ee 0C       		.byte	12
 6917 03ef 00       		.byte	0
 6918 03f0 0C       		.byte	12
 6919 03f1 00       		.byte	0
 6920 03f2 00       		.byte	0
 6921 03f3 00       		.byte	0
 6922 03f4 0C       		.byte	12
 6923 03f5 00       		.byte	0
 6924 03f6 00       		.byte	0
 6925 03f7 00       		.byte	0
 6926 03f8 00       		.byte	0
 6927 03f9 00       		.byte	0
 6928 03fa 00       		.byte	0
 6929 03fb 00       		.byte	0
 6930 03fc 00       		.byte	0
 6931 03fd 00       		.byte	0
 6932 03fe 00       		.byte	0
 6933 03ff 00       		.byte	0
 6934 0400 00       		.byte	0
 6935 0401 00       		.byte	0
 6936 0402 0E       		.byte	14
 6937 0403 00       		.byte	0
 6938 0404 11       		.byte	17
 6939 0405 00       		.byte	0
 6940 0406 21       		.byte	33
 6941 0407 00       		.byte	0
ARM GAS  C:\Users\milek\AppData\Local\Temp\ccMSPWBt.s 			page 159


 6942 0408 21       		.byte	33
 6943 0409 00       		.byte	0
 6944 040a 27       		.byte	39
 6945 040b 00       		.byte	0
 6946 040c 29       		.byte	41
 6947 040d 00       		.byte	0
 6948 040e 29       		.byte	41
 6949 040f 00       		.byte	0
 6950 0410 27       		.byte	39
 6951 0411 00       		.byte	0
 6952 0412 20       		.byte	32
 6953 0413 00       		.byte	0
 6954 0414 11       		.byte	17
 6955 0415 00       		.byte	0
 6956 0416 0E       		.byte	14
 6957 0417 00       		.byte	0
 6958 0418 00       		.byte	0
 6959 0419 00       		.byte	0
 6960 041a 00       		.byte	0
 6961 041b 00       		.byte	0
 6962 041c 00       		.byte	0
 6963 041d 00       		.byte	0
 6964 041e 00       		.byte	0
 6965 041f 00       		.byte	0
 6966 0420 00       		.byte	0
 6967 0421 00       		.byte	0
 6968 0422 00       		.byte	0
 6969 0423 00       		.byte	0
 6970 0424 3F       		.byte	63
 6971 0425 00       		.byte	0
 6972 0426 0F       		.byte	15
 6973 0427 00       		.byte	0
 6974 0428 09       		.byte	9
 6975 0429 00       		.byte	0
 6976 042a 19       		.byte	25
 6977 042b 80       		.byte	-128
 6978 042c 19       		.byte	25
 6979 042d 80       		.byte	-128
 6980 042e 1F       		.byte	31
 6981 042f 80       		.byte	-128
 6982 0430 30       		.byte	48
 6983 0431 C0       		.byte	-64
 6984 0432 30       		.byte	48
 6985 0433 C0       		.byte	-64
 6986 0434 79       		.byte	121
 6987 0435 E0       		.byte	-32
 6988 0436 00       		.byte	0
 6989 0437 00       		.byte	0
 6990 0438 00       		.byte	0
 6991 0439 00       		.byte	0
 6992 043a 00       		.byte	0
 6993 043b 00       		.byte	0
 6994 043c 00       		.byte	0
 6995 043d 00       		.byte	0
 6996 043e 00       		.byte	0
 6997 043f 00       		.byte	0
 6998 0440 00       		.byte	0
ARM GAS  C:\Users\milek\AppData\Local\Temp\ccMSPWBt.s 			page 160


 6999 0441 00       		.byte	0
 7000 0442 00       		.byte	0
 7001 0443 00       		.byte	0
 7002 0444 7F       		.byte	127
 7003 0445 00       		.byte	0
 7004 0446 31       		.byte	49
 7005 0447 80       		.byte	-128
 7006 0448 31       		.byte	49
 7007 0449 80       		.byte	-128
 7008 044a 31       		.byte	49
 7009 044b 80       		.byte	-128
 7010 044c 3F       		.byte	63
 7011 044d 00       		.byte	0
 7012 044e 31       		.byte	49
 7013 044f 80       		.byte	-128
 7014 0450 31       		.byte	49
 7015 0451 80       		.byte	-128
 7016 0452 31       		.byte	49
 7017 0453 80       		.byte	-128
 7018 0454 7F       		.byte	127
 7019 0455 00       		.byte	0
 7020 0456 00       		.byte	0
 7021 0457 00       		.byte	0
 7022 0458 00       		.byte	0
 7023 0459 00       		.byte	0
 7024 045a 00       		.byte	0
 7025 045b 00       		.byte	0
 7026 045c 00       		.byte	0
 7027 045d 00       		.byte	0
 7028 045e 00       		.byte	0
 7029 045f 00       		.byte	0
 7030 0460 00       		.byte	0
 7031 0461 00       		.byte	0
 7032 0462 00       		.byte	0
 7033 0463 00       		.byte	0
 7034 0464 1F       		.byte	31
 7035 0465 40       		.byte	64
 7036 0466 30       		.byte	48
 7037 0467 C0       		.byte	-64
 7038 0468 60       		.byte	96
 7039 0469 40       		.byte	64
 7040 046a 60       		.byte	96
 7041 046b 00       		.byte	0
 7042 046c 60       		.byte	96
 7043 046d 00       		.byte	0
 7044 046e 60       		.byte	96
 7045 046f 00       		.byte	0
 7046 0470 60       		.byte	96
 7047 0471 40       		.byte	64
 7048 0472 30       		.byte	48
 7049 0473 80       		.byte	-128
 7050 0474 1F       		.byte	31
 7051 0475 00       		.byte	0
 7052 0476 00       		.byte	0
 7053 0477 00       		.byte	0
 7054 0478 00       		.byte	0
 7055 0479 00       		.byte	0
ARM GAS  C:\Users\milek\AppData\Local\Temp\ccMSPWBt.s 			page 161


 7056 047a 00       		.byte	0
 7057 047b 00       		.byte	0
 7058 047c 00       		.byte	0
 7059 047d 00       		.byte	0
 7060 047e 00       		.byte	0
 7061 047f 00       		.byte	0
 7062 0480 00       		.byte	0
 7063 0481 00       		.byte	0
 7064 0482 00       		.byte	0
 7065 0483 00       		.byte	0
 7066 0484 7F       		.byte	127
 7067 0485 00       		.byte	0
 7068 0486 31       		.byte	49
 7069 0487 80       		.byte	-128
 7070 0488 30       		.byte	48
 7071 0489 C0       		.byte	-64
 7072 048a 30       		.byte	48
 7073 048b C0       		.byte	-64
 7074 048c 30       		.byte	48
 7075 048d C0       		.byte	-64
 7076 048e 30       		.byte	48
 7077 048f C0       		.byte	-64
 7078 0490 30       		.byte	48
 7079 0491 C0       		.byte	-64
 7080 0492 31       		.byte	49
 7081 0493 80       		.byte	-128
 7082 0494 7F       		.byte	127
 7083 0495 00       		.byte	0
 7084 0496 00       		.byte	0
 7085 0497 00       		.byte	0
 7086 0498 00       		.byte	0
 7087 0499 00       		.byte	0
 7088 049a 00       		.byte	0
 7089 049b 00       		.byte	0
 7090 049c 00       		.byte	0
 7091 049d 00       		.byte	0
 7092 049e 00       		.byte	0
 7093 049f 00       		.byte	0
 7094 04a0 00       		.byte	0
 7095 04a1 00       		.byte	0
 7096 04a2 00       		.byte	0
 7097 04a3 00       		.byte	0
 7098 04a4 7F       		.byte	127
 7099 04a5 80       		.byte	-128
 7100 04a6 30       		.byte	48
 7101 04a7 80       		.byte	-128
 7102 04a8 30       		.byte	48
 7103 04a9 80       		.byte	-128
 7104 04aa 32       		.byte	50
 7105 04ab 00       		.byte	0
 7106 04ac 3E       		.byte	62
 7107 04ad 00       		.byte	0
 7108 04ae 32       		.byte	50
 7109 04af 00       		.byte	0
 7110 04b0 30       		.byte	48
 7111 04b1 80       		.byte	-128
 7112 04b2 30       		.byte	48
ARM GAS  C:\Users\milek\AppData\Local\Temp\ccMSPWBt.s 			page 162


 7113 04b3 80       		.byte	-128
 7114 04b4 7F       		.byte	127
 7115 04b5 80       		.byte	-128
 7116 04b6 00       		.byte	0
 7117 04b7 00       		.byte	0
 7118 04b8 00       		.byte	0
 7119 04b9 00       		.byte	0
 7120 04ba 00       		.byte	0
 7121 04bb 00       		.byte	0
 7122 04bc 00       		.byte	0
 7123 04bd 00       		.byte	0
 7124 04be 00       		.byte	0
 7125 04bf 00       		.byte	0
 7126 04c0 00       		.byte	0
 7127 04c1 00       		.byte	0
 7128 04c2 00       		.byte	0
 7129 04c3 00       		.byte	0
 7130 04c4 7F       		.byte	127
 7131 04c5 C0       		.byte	-64
 7132 04c6 30       		.byte	48
 7133 04c7 40       		.byte	64
 7134 04c8 30       		.byte	48
 7135 04c9 40       		.byte	64
 7136 04ca 32       		.byte	50
 7137 04cb 00       		.byte	0
 7138 04cc 3E       		.byte	62
 7139 04cd 00       		.byte	0
 7140 04ce 32       		.byte	50
 7141 04cf 00       		.byte	0
 7142 04d0 30       		.byte	48
 7143 04d1 00       		.byte	0
 7144 04d2 30       		.byte	48
 7145 04d3 00       		.byte	0
 7146 04d4 7C       		.byte	124
 7147 04d5 00       		.byte	0
 7148 04d6 00       		.byte	0
 7149 04d7 00       		.byte	0
 7150 04d8 00       		.byte	0
 7151 04d9 00       		.byte	0
 7152 04da 00       		.byte	0
 7153 04db 00       		.byte	0
 7154 04dc 00       		.byte	0
 7155 04dd 00       		.byte	0
 7156 04de 00       		.byte	0
 7157 04df 00       		.byte	0
 7158 04e0 00       		.byte	0
 7159 04e1 00       		.byte	0
 7160 04e2 00       		.byte	0
 7161 04e3 00       		.byte	0
 7162 04e4 1E       		.byte	30
 7163 04e5 80       		.byte	-128
 7164 04e6 31       		.byte	49
 7165 04e7 80       		.byte	-128
 7166 04e8 60       		.byte	96
 7167 04e9 80       		.byte	-128
 7168 04ea 60       		.byte	96
 7169 04eb 00       		.byte	0
ARM GAS  C:\Users\milek\AppData\Local\Temp\ccMSPWBt.s 			page 163


 7170 04ec 60       		.byte	96
 7171 04ed 00       		.byte	0
 7172 04ee 67       		.byte	103
 7173 04ef C0       		.byte	-64
 7174 04f0 61       		.byte	97
 7175 04f1 80       		.byte	-128
 7176 04f2 31       		.byte	49
 7177 04f3 80       		.byte	-128
 7178 04f4 1F       		.byte	31
 7179 04f5 00       		.byte	0
 7180 04f6 00       		.byte	0
 7181 04f7 00       		.byte	0
 7182 04f8 00       		.byte	0
 7183 04f9 00       		.byte	0
 7184 04fa 00       		.byte	0
 7185 04fb 00       		.byte	0
 7186 04fc 00       		.byte	0
 7187 04fd 00       		.byte	0
 7188 04fe 00       		.byte	0
 7189 04ff 00       		.byte	0
 7190 0500 00       		.byte	0
 7191 0501 00       		.byte	0
 7192 0502 00       		.byte	0
 7193 0503 00       		.byte	0
 7194 0504 7B       		.byte	123
 7195 0505 C0       		.byte	-64
 7196 0506 31       		.byte	49
 7197 0507 80       		.byte	-128
 7198 0508 31       		.byte	49
 7199 0509 80       		.byte	-128
 7200 050a 31       		.byte	49
 7201 050b 80       		.byte	-128
 7202 050c 3F       		.byte	63
 7203 050d 80       		.byte	-128
 7204 050e 31       		.byte	49
 7205 050f 80       		.byte	-128
 7206 0510 31       		.byte	49
 7207 0511 80       		.byte	-128
 7208 0512 31       		.byte	49
 7209 0513 80       		.byte	-128
 7210 0514 7B       		.byte	123
 7211 0515 C0       		.byte	-64
 7212 0516 00       		.byte	0
 7213 0517 00       		.byte	0
 7214 0518 00       		.byte	0
 7215 0519 00       		.byte	0
 7216 051a 00       		.byte	0
 7217 051b 00       		.byte	0
 7218 051c 00       		.byte	0
 7219 051d 00       		.byte	0
 7220 051e 00       		.byte	0
 7221 051f 00       		.byte	0
 7222 0520 00       		.byte	0
 7223 0521 00       		.byte	0
 7224 0522 00       		.byte	0
 7225 0523 00       		.byte	0
 7226 0524 3F       		.byte	63
ARM GAS  C:\Users\milek\AppData\Local\Temp\ccMSPWBt.s 			page 164


 7227 0525 C0       		.byte	-64
 7228 0526 06       		.byte	6
 7229 0527 00       		.byte	0
 7230 0528 06       		.byte	6
 7231 0529 00       		.byte	0
 7232 052a 06       		.byte	6
 7233 052b 00       		.byte	0
 7234 052c 06       		.byte	6
 7235 052d 00       		.byte	0
 7236 052e 06       		.byte	6
 7237 052f 00       		.byte	0
 7238 0530 06       		.byte	6
 7239 0531 00       		.byte	0
 7240 0532 06       		.byte	6
 7241 0533 00       		.byte	0
 7242 0534 3F       		.byte	63
 7243 0535 C0       		.byte	-64
 7244 0536 00       		.byte	0
 7245 0537 00       		.byte	0
 7246 0538 00       		.byte	0
 7247 0539 00       		.byte	0
 7248 053a 00       		.byte	0
 7249 053b 00       		.byte	0
 7250 053c 00       		.byte	0
 7251 053d 00       		.byte	0
 7252 053e 00       		.byte	0
 7253 053f 00       		.byte	0
 7254 0540 00       		.byte	0
 7255 0541 00       		.byte	0
 7256 0542 00       		.byte	0
 7257 0543 00       		.byte	0
 7258 0544 1F       		.byte	31
 7259 0545 C0       		.byte	-64
 7260 0546 03       		.byte	3
 7261 0547 00       		.byte	0
 7262 0548 03       		.byte	3
 7263 0549 00       		.byte	0
 7264 054a 03       		.byte	3
 7265 054b 00       		.byte	0
 7266 054c 03       		.byte	3
 7267 054d 00       		.byte	0
 7268 054e 63       		.byte	99
 7269 054f 00       		.byte	0
 7270 0550 63       		.byte	99
 7271 0551 00       		.byte	0
 7272 0552 63       		.byte	99
 7273 0553 00       		.byte	0
 7274 0554 3E       		.byte	62
 7275 0555 00       		.byte	0
 7276 0556 00       		.byte	0
 7277 0557 00       		.byte	0
 7278 0558 00       		.byte	0
 7279 0559 00       		.byte	0
 7280 055a 00       		.byte	0
 7281 055b 00       		.byte	0
 7282 055c 00       		.byte	0
 7283 055d 00       		.byte	0
ARM GAS  C:\Users\milek\AppData\Local\Temp\ccMSPWBt.s 			page 165


 7284 055e 00       		.byte	0
 7285 055f 00       		.byte	0
 7286 0560 00       		.byte	0
 7287 0561 00       		.byte	0
 7288 0562 00       		.byte	0
 7289 0563 00       		.byte	0
 7290 0564 7B       		.byte	123
 7291 0565 C0       		.byte	-64
 7292 0566 31       		.byte	49
 7293 0567 80       		.byte	-128
 7294 0568 33       		.byte	51
 7295 0569 00       		.byte	0
 7296 056a 36       		.byte	54
 7297 056b 00       		.byte	0
 7298 056c 3C       		.byte	60
 7299 056d 00       		.byte	0
 7300 056e 3E       		.byte	62
 7301 056f 00       		.byte	0
 7302 0570 33       		.byte	51
 7303 0571 00       		.byte	0
 7304 0572 31       		.byte	49
 7305 0573 80       		.byte	-128
 7306 0574 79       		.byte	121
 7307 0575 C0       		.byte	-64
 7308 0576 00       		.byte	0
 7309 0577 00       		.byte	0
 7310 0578 00       		.byte	0
 7311 0579 00       		.byte	0
 7312 057a 00       		.byte	0
 7313 057b 00       		.byte	0
 7314 057c 00       		.byte	0
 7315 057d 00       		.byte	0
 7316 057e 00       		.byte	0
 7317 057f 00       		.byte	0
 7318 0580 00       		.byte	0
 7319 0581 00       		.byte	0
 7320 0582 00       		.byte	0
 7321 0583 00       		.byte	0
 7322 0584 7E       		.byte	126
 7323 0585 00       		.byte	0
 7324 0586 18       		.byte	24
 7325 0587 00       		.byte	0
 7326 0588 18       		.byte	24
 7327 0589 00       		.byte	0
 7328 058a 18       		.byte	24
 7329 058b 00       		.byte	0
 7330 058c 18       		.byte	24
 7331 058d 00       		.byte	0
 7332 058e 18       		.byte	24
 7333 058f 40       		.byte	64
 7334 0590 18       		.byte	24
 7335 0591 40       		.byte	64
 7336 0592 18       		.byte	24
 7337 0593 40       		.byte	64
 7338 0594 7F       		.byte	127
 7339 0595 C0       		.byte	-64
 7340 0596 00       		.byte	0
ARM GAS  C:\Users\milek\AppData\Local\Temp\ccMSPWBt.s 			page 166


 7341 0597 00       		.byte	0
 7342 0598 00       		.byte	0
 7343 0599 00       		.byte	0
 7344 059a 00       		.byte	0
 7345 059b 00       		.byte	0
 7346 059c 00       		.byte	0
 7347 059d 00       		.byte	0
 7348 059e 00       		.byte	0
 7349 059f 00       		.byte	0
 7350 05a0 00       		.byte	0
 7351 05a1 00       		.byte	0
 7352 05a2 00       		.byte	0
 7353 05a3 00       		.byte	0
 7354 05a4 E0       		.byte	-32
 7355 05a5 E0       		.byte	-32
 7356 05a6 60       		.byte	96
 7357 05a7 C0       		.byte	-64
 7358 05a8 71       		.byte	113
 7359 05a9 C0       		.byte	-64
 7360 05aa 7B       		.byte	123
 7361 05ab C0       		.byte	-64
 7362 05ac 6A       		.byte	106
 7363 05ad C0       		.byte	-64
 7364 05ae 6E       		.byte	110
 7365 05af C0       		.byte	-64
 7366 05b0 64       		.byte	100
 7367 05b1 C0       		.byte	-64
 7368 05b2 60       		.byte	96
 7369 05b3 C0       		.byte	-64
 7370 05b4 FB       		.byte	-5
 7371 05b5 E0       		.byte	-32
 7372 05b6 00       		.byte	0
 7373 05b7 00       		.byte	0
 7374 05b8 00       		.byte	0
 7375 05b9 00       		.byte	0
 7376 05ba 00       		.byte	0
 7377 05bb 00       		.byte	0
 7378 05bc 00       		.byte	0
 7379 05bd 00       		.byte	0
 7380 05be 00       		.byte	0
 7381 05bf 00       		.byte	0
 7382 05c0 00       		.byte	0
 7383 05c1 00       		.byte	0
 7384 05c2 00       		.byte	0
 7385 05c3 00       		.byte	0
 7386 05c4 73       		.byte	115
 7387 05c5 C0       		.byte	-64
 7388 05c6 31       		.byte	49
 7389 05c7 80       		.byte	-128
 7390 05c8 39       		.byte	57
 7391 05c9 80       		.byte	-128
 7392 05ca 3D       		.byte	61
 7393 05cb 80       		.byte	-128
 7394 05cc 35       		.byte	53
 7395 05cd 80       		.byte	-128
 7396 05ce 37       		.byte	55
 7397 05cf 80       		.byte	-128
ARM GAS  C:\Users\milek\AppData\Local\Temp\ccMSPWBt.s 			page 167


 7398 05d0 33       		.byte	51
 7399 05d1 80       		.byte	-128
 7400 05d2 31       		.byte	49
 7401 05d3 80       		.byte	-128
 7402 05d4 79       		.byte	121
 7403 05d5 80       		.byte	-128
 7404 05d6 00       		.byte	0
 7405 05d7 00       		.byte	0
 7406 05d8 00       		.byte	0
 7407 05d9 00       		.byte	0
 7408 05da 00       		.byte	0
 7409 05db 00       		.byte	0
 7410 05dc 00       		.byte	0
 7411 05dd 00       		.byte	0
 7412 05de 00       		.byte	0
 7413 05df 00       		.byte	0
 7414 05e0 00       		.byte	0
 7415 05e1 00       		.byte	0
 7416 05e2 00       		.byte	0
 7417 05e3 00       		.byte	0
 7418 05e4 1F       		.byte	31
 7419 05e5 00       		.byte	0
 7420 05e6 31       		.byte	49
 7421 05e7 80       		.byte	-128
 7422 05e8 60       		.byte	96
 7423 05e9 C0       		.byte	-64
 7424 05ea 60       		.byte	96
 7425 05eb C0       		.byte	-64
 7426 05ec 60       		.byte	96
 7427 05ed C0       		.byte	-64
 7428 05ee 60       		.byte	96
 7429 05ef C0       		.byte	-64
 7430 05f0 60       		.byte	96
 7431 05f1 C0       		.byte	-64
 7432 05f2 31       		.byte	49
 7433 05f3 80       		.byte	-128
 7434 05f4 1F       		.byte	31
 7435 05f5 00       		.byte	0
 7436 05f6 00       		.byte	0
 7437 05f7 00       		.byte	0
 7438 05f8 00       		.byte	0
 7439 05f9 00       		.byte	0
 7440 05fa 00       		.byte	0
 7441 05fb 00       		.byte	0
 7442 05fc 00       		.byte	0
 7443 05fd 00       		.byte	0
 7444 05fe 00       		.byte	0
 7445 05ff 00       		.byte	0
 7446 0600 00       		.byte	0
 7447 0601 00       		.byte	0
 7448 0602 00       		.byte	0
 7449 0603 00       		.byte	0
 7450 0604 7F       		.byte	127
 7451 0605 00       		.byte	0
 7452 0606 31       		.byte	49
 7453 0607 80       		.byte	-128
 7454 0608 31       		.byte	49
ARM GAS  C:\Users\milek\AppData\Local\Temp\ccMSPWBt.s 			page 168


 7455 0609 80       		.byte	-128
 7456 060a 31       		.byte	49
 7457 060b 80       		.byte	-128
 7458 060c 31       		.byte	49
 7459 060d 80       		.byte	-128
 7460 060e 3F       		.byte	63
 7461 060f 00       		.byte	0
 7462 0610 30       		.byte	48
 7463 0611 00       		.byte	0
 7464 0612 30       		.byte	48
 7465 0613 00       		.byte	0
 7466 0614 7E       		.byte	126
 7467 0615 00       		.byte	0
 7468 0616 00       		.byte	0
 7469 0617 00       		.byte	0
 7470 0618 00       		.byte	0
 7471 0619 00       		.byte	0
 7472 061a 00       		.byte	0
 7473 061b 00       		.byte	0
 7474 061c 00       		.byte	0
 7475 061d 00       		.byte	0
 7476 061e 00       		.byte	0
 7477 061f 00       		.byte	0
 7478 0620 00       		.byte	0
 7479 0621 00       		.byte	0
 7480 0622 00       		.byte	0
 7481 0623 00       		.byte	0
 7482 0624 1F       		.byte	31
 7483 0625 00       		.byte	0
 7484 0626 31       		.byte	49
 7485 0627 80       		.byte	-128
 7486 0628 60       		.byte	96
 7487 0629 C0       		.byte	-64
 7488 062a 60       		.byte	96
 7489 062b C0       		.byte	-64
 7490 062c 60       		.byte	96
 7491 062d C0       		.byte	-64
 7492 062e 60       		.byte	96
 7493 062f C0       		.byte	-64
 7494 0630 60       		.byte	96
 7495 0631 C0       		.byte	-64
 7496 0632 31       		.byte	49
 7497 0633 80       		.byte	-128
 7498 0634 1F       		.byte	31
 7499 0635 00       		.byte	0
 7500 0636 0C       		.byte	12
 7501 0637 C0       		.byte	-64
 7502 0638 1F       		.byte	31
 7503 0639 80       		.byte	-128
 7504 063a 00       		.byte	0
 7505 063b 00       		.byte	0
 7506 063c 00       		.byte	0
 7507 063d 00       		.byte	0
 7508 063e 00       		.byte	0
 7509 063f 00       		.byte	0
 7510 0640 00       		.byte	0
 7511 0641 00       		.byte	0
ARM GAS  C:\Users\milek\AppData\Local\Temp\ccMSPWBt.s 			page 169


 7512 0642 00       		.byte	0
 7513 0643 00       		.byte	0
 7514 0644 7F       		.byte	127
 7515 0645 00       		.byte	0
 7516 0646 31       		.byte	49
 7517 0647 80       		.byte	-128
 7518 0648 31       		.byte	49
 7519 0649 80       		.byte	-128
 7520 064a 31       		.byte	49
 7521 064b 80       		.byte	-128
 7522 064c 3E       		.byte	62
 7523 064d 00       		.byte	0
 7524 064e 33       		.byte	51
 7525 064f 00       		.byte	0
 7526 0650 31       		.byte	49
 7527 0651 80       		.byte	-128
 7528 0652 31       		.byte	49
 7529 0653 80       		.byte	-128
 7530 0654 7C       		.byte	124
 7531 0655 E0       		.byte	-32
 7532 0656 00       		.byte	0
 7533 0657 00       		.byte	0
 7534 0658 00       		.byte	0
 7535 0659 00       		.byte	0
 7536 065a 00       		.byte	0
 7537 065b 00       		.byte	0
 7538 065c 00       		.byte	0
 7539 065d 00       		.byte	0
 7540 065e 00       		.byte	0
 7541 065f 00       		.byte	0
 7542 0660 00       		.byte	0
 7543 0661 00       		.byte	0
 7544 0662 00       		.byte	0
 7545 0663 00       		.byte	0
 7546 0664 1F       		.byte	31
 7547 0665 80       		.byte	-128
 7548 0666 31       		.byte	49
 7549 0667 80       		.byte	-128
 7550 0668 31       		.byte	49
 7551 0669 80       		.byte	-128
 7552 066a 38       		.byte	56
 7553 066b 00       		.byte	0
 7554 066c 1F       		.byte	31
 7555 066d 00       		.byte	0
 7556 066e 03       		.byte	3
 7557 066f 80       		.byte	-128
 7558 0670 31       		.byte	49
 7559 0671 80       		.byte	-128
 7560 0672 31       		.byte	49
 7561 0673 80       		.byte	-128
 7562 0674 3F       		.byte	63
 7563 0675 00       		.byte	0
 7564 0676 00       		.byte	0
 7565 0677 00       		.byte	0
 7566 0678 00       		.byte	0
 7567 0679 00       		.byte	0
 7568 067a 00       		.byte	0
ARM GAS  C:\Users\milek\AppData\Local\Temp\ccMSPWBt.s 			page 170


 7569 067b 00       		.byte	0
 7570 067c 00       		.byte	0
 7571 067d 00       		.byte	0
 7572 067e 00       		.byte	0
 7573 067f 00       		.byte	0
 7574 0680 00       		.byte	0
 7575 0681 00       		.byte	0
 7576 0682 00       		.byte	0
 7577 0683 00       		.byte	0
 7578 0684 7F       		.byte	127
 7579 0685 80       		.byte	-128
 7580 0686 4C       		.byte	76
 7581 0687 80       		.byte	-128
 7582 0688 4C       		.byte	76
 7583 0689 80       		.byte	-128
 7584 068a 4C       		.byte	76
 7585 068b 80       		.byte	-128
 7586 068c 0C       		.byte	12
 7587 068d 00       		.byte	0
 7588 068e 0C       		.byte	12
 7589 068f 00       		.byte	0
 7590 0690 0C       		.byte	12
 7591 0691 00       		.byte	0
 7592 0692 0C       		.byte	12
 7593 0693 00       		.byte	0
 7594 0694 3F       		.byte	63
 7595 0695 00       		.byte	0
 7596 0696 00       		.byte	0
 7597 0697 00       		.byte	0
 7598 0698 00       		.byte	0
 7599 0699 00       		.byte	0
 7600 069a 00       		.byte	0
 7601 069b 00       		.byte	0
 7602 069c 00       		.byte	0
 7603 069d 00       		.byte	0
 7604 069e 00       		.byte	0
 7605 069f 00       		.byte	0
 7606 06a0 00       		.byte	0
 7607 06a1 00       		.byte	0
 7608 06a2 00       		.byte	0
 7609 06a3 00       		.byte	0
 7610 06a4 7B       		.byte	123
 7611 06a5 C0       		.byte	-64
 7612 06a6 31       		.byte	49
 7613 06a7 80       		.byte	-128
 7614 06a8 31       		.byte	49
 7615 06a9 80       		.byte	-128
 7616 06aa 31       		.byte	49
 7617 06ab 80       		.byte	-128
 7618 06ac 31       		.byte	49
 7619 06ad 80       		.byte	-128
 7620 06ae 31       		.byte	49
 7621 06af 80       		.byte	-128
 7622 06b0 31       		.byte	49
 7623 06b1 80       		.byte	-128
 7624 06b2 31       		.byte	49
 7625 06b3 80       		.byte	-128
ARM GAS  C:\Users\milek\AppData\Local\Temp\ccMSPWBt.s 			page 171


 7626 06b4 1F       		.byte	31
 7627 06b5 00       		.byte	0
 7628 06b6 00       		.byte	0
 7629 06b7 00       		.byte	0
 7630 06b8 00       		.byte	0
 7631 06b9 00       		.byte	0
 7632 06ba 00       		.byte	0
 7633 06bb 00       		.byte	0
 7634 06bc 00       		.byte	0
 7635 06bd 00       		.byte	0
 7636 06be 00       		.byte	0
 7637 06bf 00       		.byte	0
 7638 06c0 00       		.byte	0
 7639 06c1 00       		.byte	0
 7640 06c2 00       		.byte	0
 7641 06c3 00       		.byte	0
 7642 06c4 7B       		.byte	123
 7643 06c5 C0       		.byte	-64
 7644 06c6 31       		.byte	49
 7645 06c7 80       		.byte	-128
 7646 06c8 31       		.byte	49
 7647 06c9 80       		.byte	-128
 7648 06ca 1B       		.byte	27
 7649 06cb 00       		.byte	0
 7650 06cc 1B       		.byte	27
 7651 06cd 00       		.byte	0
 7652 06ce 1B       		.byte	27
 7653 06cf 00       		.byte	0
 7654 06d0 0A       		.byte	10
 7655 06d1 00       		.byte	0
 7656 06d2 0E       		.byte	14
 7657 06d3 00       		.byte	0
 7658 06d4 0E       		.byte	14
 7659 06d5 00       		.byte	0
 7660 06d6 00       		.byte	0
 7661 06d7 00       		.byte	0
 7662 06d8 00       		.byte	0
 7663 06d9 00       		.byte	0
 7664 06da 00       		.byte	0
 7665 06db 00       		.byte	0
 7666 06dc 00       		.byte	0
 7667 06dd 00       		.byte	0
 7668 06de 00       		.byte	0
 7669 06df 00       		.byte	0
 7670 06e0 00       		.byte	0
 7671 06e1 00       		.byte	0
 7672 06e2 00       		.byte	0
 7673 06e3 00       		.byte	0
 7674 06e4 FB       		.byte	-5
 7675 06e5 E0       		.byte	-32
 7676 06e6 60       		.byte	96
 7677 06e7 C0       		.byte	-64
 7678 06e8 64       		.byte	100
 7679 06e9 C0       		.byte	-64
 7680 06ea 6E       		.byte	110
 7681 06eb C0       		.byte	-64
 7682 06ec 6E       		.byte	110
ARM GAS  C:\Users\milek\AppData\Local\Temp\ccMSPWBt.s 			page 172


 7683 06ed C0       		.byte	-64
 7684 06ee 2A       		.byte	42
 7685 06ef 80       		.byte	-128
 7686 06f0 3B       		.byte	59
 7687 06f1 80       		.byte	-128
 7688 06f2 3B       		.byte	59
 7689 06f3 80       		.byte	-128
 7690 06f4 31       		.byte	49
 7691 06f5 80       		.byte	-128
 7692 06f6 00       		.byte	0
 7693 06f7 00       		.byte	0
 7694 06f8 00       		.byte	0
 7695 06f9 00       		.byte	0
 7696 06fa 00       		.byte	0
 7697 06fb 00       		.byte	0
 7698 06fc 00       		.byte	0
 7699 06fd 00       		.byte	0
 7700 06fe 00       		.byte	0
 7701 06ff 00       		.byte	0
 7702 0700 00       		.byte	0
 7703 0701 00       		.byte	0
 7704 0702 00       		.byte	0
 7705 0703 00       		.byte	0
 7706 0704 7B       		.byte	123
 7707 0705 C0       		.byte	-64
 7708 0706 31       		.byte	49
 7709 0707 80       		.byte	-128
 7710 0708 1B       		.byte	27
 7711 0709 00       		.byte	0
 7712 070a 0E       		.byte	14
 7713 070b 00       		.byte	0
 7714 070c 0E       		.byte	14
 7715 070d 00       		.byte	0
 7716 070e 0E       		.byte	14
 7717 070f 00       		.byte	0
 7718 0710 1B       		.byte	27
 7719 0711 00       		.byte	0
 7720 0712 31       		.byte	49
 7721 0713 80       		.byte	-128
 7722 0714 7B       		.byte	123
 7723 0715 C0       		.byte	-64
 7724 0716 00       		.byte	0
 7725 0717 00       		.byte	0
 7726 0718 00       		.byte	0
 7727 0719 00       		.byte	0
 7728 071a 00       		.byte	0
 7729 071b 00       		.byte	0
 7730 071c 00       		.byte	0
 7731 071d 00       		.byte	0
 7732 071e 00       		.byte	0
 7733 071f 00       		.byte	0
 7734 0720 00       		.byte	0
 7735 0721 00       		.byte	0
 7736 0722 00       		.byte	0
 7737 0723 00       		.byte	0
 7738 0724 79       		.byte	121
 7739 0725 E0       		.byte	-32
ARM GAS  C:\Users\milek\AppData\Local\Temp\ccMSPWBt.s 			page 173


 7740 0726 30       		.byte	48
 7741 0727 C0       		.byte	-64
 7742 0728 19       		.byte	25
 7743 0729 80       		.byte	-128
 7744 072a 0F       		.byte	15
 7745 072b 00       		.byte	0
 7746 072c 06       		.byte	6
 7747 072d 00       		.byte	0
 7748 072e 06       		.byte	6
 7749 072f 00       		.byte	0
 7750 0730 06       		.byte	6
 7751 0731 00       		.byte	0
 7752 0732 06       		.byte	6
 7753 0733 00       		.byte	0
 7754 0734 1F       		.byte	31
 7755 0735 80       		.byte	-128
 7756 0736 00       		.byte	0
 7757 0737 00       		.byte	0
 7758 0738 00       		.byte	0
 7759 0739 00       		.byte	0
 7760 073a 00       		.byte	0
 7761 073b 00       		.byte	0
 7762 073c 00       		.byte	0
 7763 073d 00       		.byte	0
 7764 073e 00       		.byte	0
 7765 073f 00       		.byte	0
 7766 0740 00       		.byte	0
 7767 0741 00       		.byte	0
 7768 0742 00       		.byte	0
 7769 0743 00       		.byte	0
 7770 0744 3F       		.byte	63
 7771 0745 80       		.byte	-128
 7772 0746 21       		.byte	33
 7773 0747 80       		.byte	-128
 7774 0748 23       		.byte	35
 7775 0749 00       		.byte	0
 7776 074a 06       		.byte	6
 7777 074b 00       		.byte	0
 7778 074c 04       		.byte	4
 7779 074d 00       		.byte	0
 7780 074e 0C       		.byte	12
 7781 074f 00       		.byte	0
 7782 0750 18       		.byte	24
 7783 0751 80       		.byte	-128
 7784 0752 30       		.byte	48
 7785 0753 80       		.byte	-128
 7786 0754 3F       		.byte	63
 7787 0755 80       		.byte	-128
 7788 0756 00       		.byte	0
 7789 0757 00       		.byte	0
 7790 0758 00       		.byte	0
 7791 0759 00       		.byte	0
 7792 075a 00       		.byte	0
 7793 075b 00       		.byte	0
 7794 075c 00       		.byte	0
 7795 075d 00       		.byte	0
 7796 075e 00       		.byte	0
ARM GAS  C:\Users\milek\AppData\Local\Temp\ccMSPWBt.s 			page 174


 7797 075f 00       		.byte	0
 7798 0760 00       		.byte	0
 7799 0761 00       		.byte	0
 7800 0762 07       		.byte	7
 7801 0763 80       		.byte	-128
 7802 0764 06       		.byte	6
 7803 0765 00       		.byte	0
 7804 0766 06       		.byte	6
 7805 0767 00       		.byte	0
 7806 0768 06       		.byte	6
 7807 0769 00       		.byte	0
 7808 076a 06       		.byte	6
 7809 076b 00       		.byte	0
 7810 076c 06       		.byte	6
 7811 076d 00       		.byte	0
 7812 076e 06       		.byte	6
 7813 076f 00       		.byte	0
 7814 0770 06       		.byte	6
 7815 0771 00       		.byte	0
 7816 0772 06       		.byte	6
 7817 0773 00       		.byte	0
 7818 0774 06       		.byte	6
 7819 0775 00       		.byte	0
 7820 0776 06       		.byte	6
 7821 0777 00       		.byte	0
 7822 0778 07       		.byte	7
 7823 0779 80       		.byte	-128
 7824 077a 00       		.byte	0
 7825 077b 00       		.byte	0
 7826 077c 00       		.byte	0
 7827 077d 00       		.byte	0
 7828 077e 00       		.byte	0
 7829 077f 00       		.byte	0
 7830 0780 30       		.byte	48
 7831 0781 00       		.byte	0
 7832 0782 30       		.byte	48
 7833 0783 00       		.byte	0
 7834 0784 18       		.byte	24
 7835 0785 00       		.byte	0
 7836 0786 18       		.byte	24
 7837 0787 00       		.byte	0
 7838 0788 0C       		.byte	12
 7839 0789 00       		.byte	0
 7840 078a 0C       		.byte	12
 7841 078b 00       		.byte	0
 7842 078c 06       		.byte	6
 7843 078d 00       		.byte	0
 7844 078e 03       		.byte	3
 7845 078f 00       		.byte	0
 7846 0790 03       		.byte	3
 7847 0791 00       		.byte	0
 7848 0792 01       		.byte	1
 7849 0793 80       		.byte	-128
 7850 0794 01       		.byte	1
 7851 0795 80       		.byte	-128
 7852 0796 00       		.byte	0
 7853 0797 C0       		.byte	-64
ARM GAS  C:\Users\milek\AppData\Local\Temp\ccMSPWBt.s 			page 175


 7854 0798 00       		.byte	0
 7855 0799 C0       		.byte	-64
 7856 079a 00       		.byte	0
 7857 079b 00       		.byte	0
 7858 079c 00       		.byte	0
 7859 079d 00       		.byte	0
 7860 079e 00       		.byte	0
 7861 079f 00       		.byte	0
 7862 07a0 00       		.byte	0
 7863 07a1 00       		.byte	0
 7864 07a2 1E       		.byte	30
 7865 07a3 00       		.byte	0
 7866 07a4 06       		.byte	6
 7867 07a5 00       		.byte	0
 7868 07a6 06       		.byte	6
 7869 07a7 00       		.byte	0
 7870 07a8 06       		.byte	6
 7871 07a9 00       		.byte	0
 7872 07aa 06       		.byte	6
 7873 07ab 00       		.byte	0
 7874 07ac 06       		.byte	6
 7875 07ad 00       		.byte	0
 7876 07ae 06       		.byte	6
 7877 07af 00       		.byte	0
 7878 07b0 06       		.byte	6
 7879 07b1 00       		.byte	0
 7880 07b2 06       		.byte	6
 7881 07b3 00       		.byte	0
 7882 07b4 06       		.byte	6
 7883 07b5 00       		.byte	0
 7884 07b6 06       		.byte	6
 7885 07b7 00       		.byte	0
 7886 07b8 1E       		.byte	30
 7887 07b9 00       		.byte	0
 7888 07ba 00       		.byte	0
 7889 07bb 00       		.byte	0
 7890 07bc 00       		.byte	0
 7891 07bd 00       		.byte	0
 7892 07be 00       		.byte	0
 7893 07bf 00       		.byte	0
 7894 07c0 04       		.byte	4
 7895 07c1 00       		.byte	0
 7896 07c2 0A       		.byte	10
 7897 07c3 00       		.byte	0
 7898 07c4 0A       		.byte	10
 7899 07c5 00       		.byte	0
 7900 07c6 11       		.byte	17
 7901 07c7 00       		.byte	0
 7902 07c8 20       		.byte	32
 7903 07c9 80       		.byte	-128
 7904 07ca 20       		.byte	32
 7905 07cb 80       		.byte	-128
 7906 07cc 00       		.byte	0
 7907 07cd 00       		.byte	0
 7908 07ce 00       		.byte	0
 7909 07cf 00       		.byte	0
 7910 07d0 00       		.byte	0
ARM GAS  C:\Users\milek\AppData\Local\Temp\ccMSPWBt.s 			page 176


 7911 07d1 00       		.byte	0
 7912 07d2 00       		.byte	0
 7913 07d3 00       		.byte	0
 7914 07d4 00       		.byte	0
 7915 07d5 00       		.byte	0
 7916 07d6 00       		.byte	0
 7917 07d7 00       		.byte	0
 7918 07d8 00       		.byte	0
 7919 07d9 00       		.byte	0
 7920 07da 00       		.byte	0
 7921 07db 00       		.byte	0
 7922 07dc 00       		.byte	0
 7923 07dd 00       		.byte	0
 7924 07de 00       		.byte	0
 7925 07df 00       		.byte	0
 7926 07e0 00       		.byte	0
 7927 07e1 00       		.byte	0
 7928 07e2 00       		.byte	0
 7929 07e3 00       		.byte	0
 7930 07e4 00       		.byte	0
 7931 07e5 00       		.byte	0
 7932 07e6 00       		.byte	0
 7933 07e7 00       		.byte	0
 7934 07e8 00       		.byte	0
 7935 07e9 00       		.byte	0
 7936 07ea 00       		.byte	0
 7937 07eb 00       		.byte	0
 7938 07ec 00       		.byte	0
 7939 07ed 00       		.byte	0
 7940 07ee 00       		.byte	0
 7941 07ef 00       		.byte	0
 7942 07f0 00       		.byte	0
 7943 07f1 00       		.byte	0
 7944 07f2 00       		.byte	0
 7945 07f3 00       		.byte	0
 7946 07f4 00       		.byte	0
 7947 07f5 00       		.byte	0
 7948 07f6 00       		.byte	0
 7949 07f7 00       		.byte	0
 7950 07f8 00       		.byte	0
 7951 07f9 00       		.byte	0
 7952 07fa 00       		.byte	0
 7953 07fb 00       		.byte	0
 7954 07fc 00       		.byte	0
 7955 07fd 00       		.byte	0
 7956 07fe FF       		.byte	-1
 7957 07ff E0       		.byte	-32
 7958 0800 08       		.byte	8
 7959 0801 00       		.byte	0
 7960 0802 04       		.byte	4
 7961 0803 00       		.byte	0
 7962 0804 02       		.byte	2
 7963 0805 00       		.byte	0
 7964 0806 00       		.byte	0
 7965 0807 00       		.byte	0
 7966 0808 00       		.byte	0
 7967 0809 00       		.byte	0
ARM GAS  C:\Users\milek\AppData\Local\Temp\ccMSPWBt.s 			page 177


 7968 080a 00       		.byte	0
 7969 080b 00       		.byte	0
 7970 080c 00       		.byte	0
 7971 080d 00       		.byte	0
 7972 080e 00       		.byte	0
 7973 080f 00       		.byte	0
 7974 0810 00       		.byte	0
 7975 0811 00       		.byte	0
 7976 0812 00       		.byte	0
 7977 0813 00       		.byte	0
 7978 0814 00       		.byte	0
 7979 0815 00       		.byte	0
 7980 0816 00       		.byte	0
 7981 0817 00       		.byte	0
 7982 0818 00       		.byte	0
 7983 0819 00       		.byte	0
 7984 081a 00       		.byte	0
 7985 081b 00       		.byte	0
 7986 081c 00       		.byte	0
 7987 081d 00       		.byte	0
 7988 081e 00       		.byte	0
 7989 081f 00       		.byte	0
 7990 0820 00       		.byte	0
 7991 0821 00       		.byte	0
 7992 0822 00       		.byte	0
 7993 0823 00       		.byte	0
 7994 0824 00       		.byte	0
 7995 0825 00       		.byte	0
 7996 0826 00       		.byte	0
 7997 0827 00       		.byte	0
 7998 0828 1F       		.byte	31
 7999 0829 00       		.byte	0
 8000 082a 01       		.byte	1
 8001 082b 80       		.byte	-128
 8002 082c 01       		.byte	1
 8003 082d 80       		.byte	-128
 8004 082e 1F       		.byte	31
 8005 082f 80       		.byte	-128
 8006 0830 31       		.byte	49
 8007 0831 80       		.byte	-128
 8008 0832 33       		.byte	51
 8009 0833 80       		.byte	-128
 8010 0834 1D       		.byte	29
 8011 0835 C0       		.byte	-64
 8012 0836 00       		.byte	0
 8013 0837 00       		.byte	0
 8014 0838 00       		.byte	0
 8015 0839 00       		.byte	0
 8016 083a 00       		.byte	0
 8017 083b 00       		.byte	0
 8018 083c 00       		.byte	0
 8019 083d 00       		.byte	0
 8020 083e 00       		.byte	0
 8021 083f 00       		.byte	0
 8022 0840 00       		.byte	0
 8023 0841 00       		.byte	0
 8024 0842 70       		.byte	112
ARM GAS  C:\Users\milek\AppData\Local\Temp\ccMSPWBt.s 			page 178


 8025 0843 00       		.byte	0
 8026 0844 30       		.byte	48
 8027 0845 00       		.byte	0
 8028 0846 30       		.byte	48
 8029 0847 00       		.byte	0
 8030 0848 37       		.byte	55
 8031 0849 00       		.byte	0
 8032 084a 39       		.byte	57
 8033 084b 80       		.byte	-128
 8034 084c 30       		.byte	48
 8035 084d C0       		.byte	-64
 8036 084e 30       		.byte	48
 8037 084f C0       		.byte	-64
 8038 0850 30       		.byte	48
 8039 0851 C0       		.byte	-64
 8040 0852 39       		.byte	57
 8041 0853 80       		.byte	-128
 8042 0854 77       		.byte	119
 8043 0855 00       		.byte	0
 8044 0856 00       		.byte	0
 8045 0857 00       		.byte	0
 8046 0858 00       		.byte	0
 8047 0859 00       		.byte	0
 8048 085a 00       		.byte	0
 8049 085b 00       		.byte	0
 8050 085c 00       		.byte	0
 8051 085d 00       		.byte	0
 8052 085e 00       		.byte	0
 8053 085f 00       		.byte	0
 8054 0860 00       		.byte	0
 8055 0861 00       		.byte	0
 8056 0862 00       		.byte	0
 8057 0863 00       		.byte	0
 8058 0864 00       		.byte	0
 8059 0865 00       		.byte	0
 8060 0866 00       		.byte	0
 8061 0867 00       		.byte	0
 8062 0868 1E       		.byte	30
 8063 0869 80       		.byte	-128
 8064 086a 31       		.byte	49
 8065 086b 80       		.byte	-128
 8066 086c 60       		.byte	96
 8067 086d 80       		.byte	-128
 8068 086e 60       		.byte	96
 8069 086f 00       		.byte	0
 8070 0870 60       		.byte	96
 8071 0871 80       		.byte	-128
 8072 0872 31       		.byte	49
 8073 0873 80       		.byte	-128
 8074 0874 1F       		.byte	31
 8075 0875 00       		.byte	0
 8076 0876 00       		.byte	0
 8077 0877 00       		.byte	0
 8078 0878 00       		.byte	0
 8079 0879 00       		.byte	0
 8080 087a 00       		.byte	0
 8081 087b 00       		.byte	0
ARM GAS  C:\Users\milek\AppData\Local\Temp\ccMSPWBt.s 			page 179


 8082 087c 00       		.byte	0
 8083 087d 00       		.byte	0
 8084 087e 00       		.byte	0
 8085 087f 00       		.byte	0
 8086 0880 00       		.byte	0
 8087 0881 00       		.byte	0
 8088 0882 03       		.byte	3
 8089 0883 80       		.byte	-128
 8090 0884 01       		.byte	1
 8091 0885 80       		.byte	-128
 8092 0886 01       		.byte	1
 8093 0887 80       		.byte	-128
 8094 0888 1D       		.byte	29
 8095 0889 80       		.byte	-128
 8096 088a 33       		.byte	51
 8097 088b 80       		.byte	-128
 8098 088c 61       		.byte	97
 8099 088d 80       		.byte	-128
 8100 088e 61       		.byte	97
 8101 088f 80       		.byte	-128
 8102 0890 61       		.byte	97
 8103 0891 80       		.byte	-128
 8104 0892 33       		.byte	51
 8105 0893 80       		.byte	-128
 8106 0894 1D       		.byte	29
 8107 0895 C0       		.byte	-64
 8108 0896 00       		.byte	0
 8109 0897 00       		.byte	0
 8110 0898 00       		.byte	0
 8111 0899 00       		.byte	0
 8112 089a 00       		.byte	0
 8113 089b 00       		.byte	0
 8114 089c 00       		.byte	0
 8115 089d 00       		.byte	0
 8116 089e 00       		.byte	0
 8117 089f 00       		.byte	0
 8118 08a0 00       		.byte	0
 8119 08a1 00       		.byte	0
 8120 08a2 00       		.byte	0
 8121 08a3 00       		.byte	0
 8122 08a4 00       		.byte	0
 8123 08a5 00       		.byte	0
 8124 08a6 00       		.byte	0
 8125 08a7 00       		.byte	0
 8126 08a8 1F       		.byte	31
 8127 08a9 00       		.byte	0
 8128 08aa 31       		.byte	49
 8129 08ab 80       		.byte	-128
 8130 08ac 60       		.byte	96
 8131 08ad C0       		.byte	-64
 8132 08ae 7F       		.byte	127
 8133 08af C0       		.byte	-64
 8134 08b0 60       		.byte	96
 8135 08b1 00       		.byte	0
 8136 08b2 30       		.byte	48
 8137 08b3 C0       		.byte	-64
 8138 08b4 1F       		.byte	31
ARM GAS  C:\Users\milek\AppData\Local\Temp\ccMSPWBt.s 			page 180


 8139 08b5 80       		.byte	-128
 8140 08b6 00       		.byte	0
 8141 08b7 00       		.byte	0
 8142 08b8 00       		.byte	0
 8143 08b9 00       		.byte	0
 8144 08ba 00       		.byte	0
 8145 08bb 00       		.byte	0
 8146 08bc 00       		.byte	0
 8147 08bd 00       		.byte	0
 8148 08be 00       		.byte	0
 8149 08bf 00       		.byte	0
 8150 08c0 00       		.byte	0
 8151 08c1 00       		.byte	0
 8152 08c2 07       		.byte	7
 8153 08c3 E0       		.byte	-32
 8154 08c4 0C       		.byte	12
 8155 08c5 00       		.byte	0
 8156 08c6 0C       		.byte	12
 8157 08c7 00       		.byte	0
 8158 08c8 3F       		.byte	63
 8159 08c9 80       		.byte	-128
 8160 08ca 0C       		.byte	12
 8161 08cb 00       		.byte	0
 8162 08cc 0C       		.byte	12
 8163 08cd 00       		.byte	0
 8164 08ce 0C       		.byte	12
 8165 08cf 00       		.byte	0
 8166 08d0 0C       		.byte	12
 8167 08d1 00       		.byte	0
 8168 08d2 0C       		.byte	12
 8169 08d3 00       		.byte	0
 8170 08d4 3F       		.byte	63
 8171 08d5 80       		.byte	-128
 8172 08d6 00       		.byte	0
 8173 08d7 00       		.byte	0
 8174 08d8 00       		.byte	0
 8175 08d9 00       		.byte	0
 8176 08da 00       		.byte	0
 8177 08db 00       		.byte	0
 8178 08dc 00       		.byte	0
 8179 08dd 00       		.byte	0
 8180 08de 00       		.byte	0
 8181 08df 00       		.byte	0
 8182 08e0 00       		.byte	0
 8183 08e1 00       		.byte	0
 8184 08e2 00       		.byte	0
 8185 08e3 00       		.byte	0
 8186 08e4 00       		.byte	0
 8187 08e5 00       		.byte	0
 8188 08e6 00       		.byte	0
 8189 08e7 00       		.byte	0
 8190 08e8 1D       		.byte	29
 8191 08e9 C0       		.byte	-64
 8192 08ea 33       		.byte	51
 8193 08eb 80       		.byte	-128
 8194 08ec 61       		.byte	97
 8195 08ed 80       		.byte	-128
ARM GAS  C:\Users\milek\AppData\Local\Temp\ccMSPWBt.s 			page 181


 8196 08ee 61       		.byte	97
 8197 08ef 80       		.byte	-128
 8198 08f0 61       		.byte	97
 8199 08f1 80       		.byte	-128
 8200 08f2 33       		.byte	51
 8201 08f3 80       		.byte	-128
 8202 08f4 1D       		.byte	29
 8203 08f5 80       		.byte	-128
 8204 08f6 01       		.byte	1
 8205 08f7 80       		.byte	-128
 8206 08f8 01       		.byte	1
 8207 08f9 80       		.byte	-128
 8208 08fa 1F       		.byte	31
 8209 08fb 00       		.byte	0
 8210 08fc 00       		.byte	0
 8211 08fd 00       		.byte	0
 8212 08fe 00       		.byte	0
 8213 08ff 00       		.byte	0
 8214 0900 00       		.byte	0
 8215 0901 00       		.byte	0
 8216 0902 70       		.byte	112
 8217 0903 00       		.byte	0
 8218 0904 30       		.byte	48
 8219 0905 00       		.byte	0
 8220 0906 30       		.byte	48
 8221 0907 00       		.byte	0
 8222 0908 37       		.byte	55
 8223 0909 00       		.byte	0
 8224 090a 39       		.byte	57
 8225 090b 80       		.byte	-128
 8226 090c 31       		.byte	49
 8227 090d 80       		.byte	-128
 8228 090e 31       		.byte	49
 8229 090f 80       		.byte	-128
 8230 0910 31       		.byte	49
 8231 0911 80       		.byte	-128
 8232 0912 31       		.byte	49
 8233 0913 80       		.byte	-128
 8234 0914 7B       		.byte	123
 8235 0915 C0       		.byte	-64
 8236 0916 00       		.byte	0
 8237 0917 00       		.byte	0
 8238 0918 00       		.byte	0
 8239 0919 00       		.byte	0
 8240 091a 00       		.byte	0
 8241 091b 00       		.byte	0
 8242 091c 00       		.byte	0
 8243 091d 00       		.byte	0
 8244 091e 00       		.byte	0
 8245 091f 00       		.byte	0
 8246 0920 00       		.byte	0
 8247 0921 00       		.byte	0
 8248 0922 06       		.byte	6
 8249 0923 00       		.byte	0
 8250 0924 06       		.byte	6
 8251 0925 00       		.byte	0
 8252 0926 00       		.byte	0
ARM GAS  C:\Users\milek\AppData\Local\Temp\ccMSPWBt.s 			page 182


 8253 0927 00       		.byte	0
 8254 0928 1E       		.byte	30
 8255 0929 00       		.byte	0
 8256 092a 06       		.byte	6
 8257 092b 00       		.byte	0
 8258 092c 06       		.byte	6
 8259 092d 00       		.byte	0
 8260 092e 06       		.byte	6
 8261 092f 00       		.byte	0
 8262 0930 06       		.byte	6
 8263 0931 00       		.byte	0
 8264 0932 06       		.byte	6
 8265 0933 00       		.byte	0
 8266 0934 3F       		.byte	63
 8267 0935 C0       		.byte	-64
 8268 0936 00       		.byte	0
 8269 0937 00       		.byte	0
 8270 0938 00       		.byte	0
 8271 0939 00       		.byte	0
 8272 093a 00       		.byte	0
 8273 093b 00       		.byte	0
 8274 093c 00       		.byte	0
 8275 093d 00       		.byte	0
 8276 093e 00       		.byte	0
 8277 093f 00       		.byte	0
 8278 0940 00       		.byte	0
 8279 0941 00       		.byte	0
 8280 0942 06       		.byte	6
 8281 0943 00       		.byte	0
 8282 0944 06       		.byte	6
 8283 0945 00       		.byte	0
 8284 0946 00       		.byte	0
 8285 0947 00       		.byte	0
 8286 0948 3F       		.byte	63
 8287 0949 00       		.byte	0
 8288 094a 03       		.byte	3
 8289 094b 00       		.byte	0
 8290 094c 03       		.byte	3
 8291 094d 00       		.byte	0
 8292 094e 03       		.byte	3
 8293 094f 00       		.byte	0
 8294 0950 03       		.byte	3
 8295 0951 00       		.byte	0
 8296 0952 03       		.byte	3
 8297 0953 00       		.byte	0
 8298 0954 03       		.byte	3
 8299 0955 00       		.byte	0
 8300 0956 03       		.byte	3
 8301 0957 00       		.byte	0
 8302 0958 03       		.byte	3
 8303 0959 00       		.byte	0
 8304 095a 3E       		.byte	62
 8305 095b 00       		.byte	0
 8306 095c 00       		.byte	0
 8307 095d 00       		.byte	0
 8308 095e 00       		.byte	0
 8309 095f 00       		.byte	0
ARM GAS  C:\Users\milek\AppData\Local\Temp\ccMSPWBt.s 			page 183


 8310 0960 00       		.byte	0
 8311 0961 00       		.byte	0
 8312 0962 70       		.byte	112
 8313 0963 00       		.byte	0
 8314 0964 30       		.byte	48
 8315 0965 00       		.byte	0
 8316 0966 30       		.byte	48
 8317 0967 00       		.byte	0
 8318 0968 37       		.byte	55
 8319 0969 80       		.byte	-128
 8320 096a 36       		.byte	54
 8321 096b 00       		.byte	0
 8322 096c 3C       		.byte	60
 8323 096d 00       		.byte	0
 8324 096e 3C       		.byte	60
 8325 096f 00       		.byte	0
 8326 0970 36       		.byte	54
 8327 0971 00       		.byte	0
 8328 0972 33       		.byte	51
 8329 0973 00       		.byte	0
 8330 0974 77       		.byte	119
 8331 0975 C0       		.byte	-64
 8332 0976 00       		.byte	0
 8333 0977 00       		.byte	0
 8334 0978 00       		.byte	0
 8335 0979 00       		.byte	0
 8336 097a 00       		.byte	0
 8337 097b 00       		.byte	0
 8338 097c 00       		.byte	0
 8339 097d 00       		.byte	0
 8340 097e 00       		.byte	0
 8341 097f 00       		.byte	0
 8342 0980 00       		.byte	0
 8343 0981 00       		.byte	0
 8344 0982 1E       		.byte	30
 8345 0983 00       		.byte	0
 8346 0984 06       		.byte	6
 8347 0985 00       		.byte	0
 8348 0986 06       		.byte	6
 8349 0987 00       		.byte	0
 8350 0988 06       		.byte	6
 8351 0989 00       		.byte	0
 8352 098a 06       		.byte	6
 8353 098b 00       		.byte	0
 8354 098c 06       		.byte	6
 8355 098d 00       		.byte	0
 8356 098e 06       		.byte	6
 8357 098f 00       		.byte	0
 8358 0990 06       		.byte	6
 8359 0991 00       		.byte	0
 8360 0992 06       		.byte	6
 8361 0993 00       		.byte	0
 8362 0994 3F       		.byte	63
 8363 0995 C0       		.byte	-64
 8364 0996 00       		.byte	0
 8365 0997 00       		.byte	0
 8366 0998 00       		.byte	0
ARM GAS  C:\Users\milek\AppData\Local\Temp\ccMSPWBt.s 			page 184


 8367 0999 00       		.byte	0
 8368 099a 00       		.byte	0
 8369 099b 00       		.byte	0
 8370 099c 00       		.byte	0
 8371 099d 00       		.byte	0
 8372 099e 00       		.byte	0
 8373 099f 00       		.byte	0
 8374 09a0 00       		.byte	0
 8375 09a1 00       		.byte	0
 8376 09a2 00       		.byte	0
 8377 09a3 00       		.byte	0
 8378 09a4 00       		.byte	0
 8379 09a5 00       		.byte	0
 8380 09a6 00       		.byte	0
 8381 09a7 00       		.byte	0
 8382 09a8 7F       		.byte	127
 8383 09a9 80       		.byte	-128
 8384 09aa 36       		.byte	54
 8385 09ab C0       		.byte	-64
 8386 09ac 36       		.byte	54
 8387 09ad C0       		.byte	-64
 8388 09ae 36       		.byte	54
 8389 09af C0       		.byte	-64
 8390 09b0 36       		.byte	54
 8391 09b1 C0       		.byte	-64
 8392 09b2 36       		.byte	54
 8393 09b3 C0       		.byte	-64
 8394 09b4 76       		.byte	118
 8395 09b5 E0       		.byte	-32
 8396 09b6 00       		.byte	0
 8397 09b7 00       		.byte	0
 8398 09b8 00       		.byte	0
 8399 09b9 00       		.byte	0
 8400 09ba 00       		.byte	0
 8401 09bb 00       		.byte	0
 8402 09bc 00       		.byte	0
 8403 09bd 00       		.byte	0
 8404 09be 00       		.byte	0
 8405 09bf 00       		.byte	0
 8406 09c0 00       		.byte	0
 8407 09c1 00       		.byte	0
 8408 09c2 00       		.byte	0
 8409 09c3 00       		.byte	0
 8410 09c4 00       		.byte	0
 8411 09c5 00       		.byte	0
 8412 09c6 00       		.byte	0
 8413 09c7 00       		.byte	0
 8414 09c8 77       		.byte	119
 8415 09c9 00       		.byte	0
 8416 09ca 39       		.byte	57
 8417 09cb 80       		.byte	-128
 8418 09cc 31       		.byte	49
 8419 09cd 80       		.byte	-128
 8420 09ce 31       		.byte	49
 8421 09cf 80       		.byte	-128
 8422 09d0 31       		.byte	49
 8423 09d1 80       		.byte	-128
ARM GAS  C:\Users\milek\AppData\Local\Temp\ccMSPWBt.s 			page 185


 8424 09d2 31       		.byte	49
 8425 09d3 80       		.byte	-128
 8426 09d4 7B       		.byte	123
 8427 09d5 C0       		.byte	-64
 8428 09d6 00       		.byte	0
 8429 09d7 00       		.byte	0
 8430 09d8 00       		.byte	0
 8431 09d9 00       		.byte	0
 8432 09da 00       		.byte	0
 8433 09db 00       		.byte	0
 8434 09dc 00       		.byte	0
 8435 09dd 00       		.byte	0
 8436 09de 00       		.byte	0
 8437 09df 00       		.byte	0
 8438 09e0 00       		.byte	0
 8439 09e1 00       		.byte	0
 8440 09e2 00       		.byte	0
 8441 09e3 00       		.byte	0
 8442 09e4 00       		.byte	0
 8443 09e5 00       		.byte	0
 8444 09e6 00       		.byte	0
 8445 09e7 00       		.byte	0
 8446 09e8 1F       		.byte	31
 8447 09e9 00       		.byte	0
 8448 09ea 31       		.byte	49
 8449 09eb 80       		.byte	-128
 8450 09ec 60       		.byte	96
 8451 09ed C0       		.byte	-64
 8452 09ee 60       		.byte	96
 8453 09ef C0       		.byte	-64
 8454 09f0 60       		.byte	96
 8455 09f1 C0       		.byte	-64
 8456 09f2 31       		.byte	49
 8457 09f3 80       		.byte	-128
 8458 09f4 1F       		.byte	31
 8459 09f5 00       		.byte	0
 8460 09f6 00       		.byte	0
 8461 09f7 00       		.byte	0
 8462 09f8 00       		.byte	0
 8463 09f9 00       		.byte	0
 8464 09fa 00       		.byte	0
 8465 09fb 00       		.byte	0
 8466 09fc 00       		.byte	0
 8467 09fd 00       		.byte	0
 8468 09fe 00       		.byte	0
 8469 09ff 00       		.byte	0
 8470 0a00 00       		.byte	0
 8471 0a01 00       		.byte	0
 8472 0a02 00       		.byte	0
 8473 0a03 00       		.byte	0
 8474 0a04 00       		.byte	0
 8475 0a05 00       		.byte	0
 8476 0a06 00       		.byte	0
 8477 0a07 00       		.byte	0
 8478 0a08 77       		.byte	119
 8479 0a09 00       		.byte	0
 8480 0a0a 39       		.byte	57
ARM GAS  C:\Users\milek\AppData\Local\Temp\ccMSPWBt.s 			page 186


 8481 0a0b 80       		.byte	-128
 8482 0a0c 30       		.byte	48
 8483 0a0d C0       		.byte	-64
 8484 0a0e 30       		.byte	48
 8485 0a0f C0       		.byte	-64
 8486 0a10 30       		.byte	48
 8487 0a11 C0       		.byte	-64
 8488 0a12 39       		.byte	57
 8489 0a13 80       		.byte	-128
 8490 0a14 37       		.byte	55
 8491 0a15 00       		.byte	0
 8492 0a16 30       		.byte	48
 8493 0a17 00       		.byte	0
 8494 0a18 30       		.byte	48
 8495 0a19 00       		.byte	0
 8496 0a1a 7C       		.byte	124
 8497 0a1b 00       		.byte	0
 8498 0a1c 00       		.byte	0
 8499 0a1d 00       		.byte	0
 8500 0a1e 00       		.byte	0
 8501 0a1f 00       		.byte	0
 8502 0a20 00       		.byte	0
 8503 0a21 00       		.byte	0
 8504 0a22 00       		.byte	0
 8505 0a23 00       		.byte	0
 8506 0a24 00       		.byte	0
 8507 0a25 00       		.byte	0
 8508 0a26 00       		.byte	0
 8509 0a27 00       		.byte	0
 8510 0a28 1D       		.byte	29
 8511 0a29 C0       		.byte	-64
 8512 0a2a 33       		.byte	51
 8513 0a2b 80       		.byte	-128
 8514 0a2c 61       		.byte	97
 8515 0a2d 80       		.byte	-128
 8516 0a2e 61       		.byte	97
 8517 0a2f 80       		.byte	-128
 8518 0a30 61       		.byte	97
 8519 0a31 80       		.byte	-128
 8520 0a32 33       		.byte	51
 8521 0a33 80       		.byte	-128
 8522 0a34 1D       		.byte	29
 8523 0a35 80       		.byte	-128
 8524 0a36 01       		.byte	1
 8525 0a37 80       		.byte	-128
 8526 0a38 01       		.byte	1
 8527 0a39 80       		.byte	-128
 8528 0a3a 07       		.byte	7
 8529 0a3b C0       		.byte	-64
 8530 0a3c 00       		.byte	0
 8531 0a3d 00       		.byte	0
 8532 0a3e 00       		.byte	0
 8533 0a3f 00       		.byte	0
 8534 0a40 00       		.byte	0
 8535 0a41 00       		.byte	0
 8536 0a42 00       		.byte	0
 8537 0a43 00       		.byte	0
ARM GAS  C:\Users\milek\AppData\Local\Temp\ccMSPWBt.s 			page 187


 8538 0a44 00       		.byte	0
 8539 0a45 00       		.byte	0
 8540 0a46 00       		.byte	0
 8541 0a47 00       		.byte	0
 8542 0a48 7B       		.byte	123
 8543 0a49 80       		.byte	-128
 8544 0a4a 1C       		.byte	28
 8545 0a4b C0       		.byte	-64
 8546 0a4c 18       		.byte	24
 8547 0a4d 00       		.byte	0
 8548 0a4e 18       		.byte	24
 8549 0a4f 00       		.byte	0
 8550 0a50 18       		.byte	24
 8551 0a51 00       		.byte	0
 8552 0a52 18       		.byte	24
 8553 0a53 00       		.byte	0
 8554 0a54 7F       		.byte	127
 8555 0a55 00       		.byte	0
 8556 0a56 00       		.byte	0
 8557 0a57 00       		.byte	0
 8558 0a58 00       		.byte	0
 8559 0a59 00       		.byte	0
 8560 0a5a 00       		.byte	0
 8561 0a5b 00       		.byte	0
 8562 0a5c 00       		.byte	0
 8563 0a5d 00       		.byte	0
 8564 0a5e 00       		.byte	0
 8565 0a5f 00       		.byte	0
 8566 0a60 00       		.byte	0
 8567 0a61 00       		.byte	0
 8568 0a62 00       		.byte	0
 8569 0a63 00       		.byte	0
 8570 0a64 00       		.byte	0
 8571 0a65 00       		.byte	0
 8572 0a66 00       		.byte	0
 8573 0a67 00       		.byte	0
 8574 0a68 1F       		.byte	31
 8575 0a69 80       		.byte	-128
 8576 0a6a 31       		.byte	49
 8577 0a6b 80       		.byte	-128
 8578 0a6c 3C       		.byte	60
 8579 0a6d 00       		.byte	0
 8580 0a6e 1F       		.byte	31
 8581 0a6f 00       		.byte	0
 8582 0a70 03       		.byte	3
 8583 0a71 80       		.byte	-128
 8584 0a72 31       		.byte	49
 8585 0a73 80       		.byte	-128
 8586 0a74 3F       		.byte	63
 8587 0a75 00       		.byte	0
 8588 0a76 00       		.byte	0
 8589 0a77 00       		.byte	0
 8590 0a78 00       		.byte	0
 8591 0a79 00       		.byte	0
 8592 0a7a 00       		.byte	0
 8593 0a7b 00       		.byte	0
 8594 0a7c 00       		.byte	0
ARM GAS  C:\Users\milek\AppData\Local\Temp\ccMSPWBt.s 			page 188


 8595 0a7d 00       		.byte	0
 8596 0a7e 00       		.byte	0
 8597 0a7f 00       		.byte	0
 8598 0a80 00       		.byte	0
 8599 0a81 00       		.byte	0
 8600 0a82 18       		.byte	24
 8601 0a83 00       		.byte	0
 8602 0a84 18       		.byte	24
 8603 0a85 00       		.byte	0
 8604 0a86 18       		.byte	24
 8605 0a87 00       		.byte	0
 8606 0a88 7F       		.byte	127
 8607 0a89 00       		.byte	0
 8608 0a8a 18       		.byte	24
 8609 0a8b 00       		.byte	0
 8610 0a8c 18       		.byte	24
 8611 0a8d 00       		.byte	0
 8612 0a8e 18       		.byte	24
 8613 0a8f 00       		.byte	0
 8614 0a90 18       		.byte	24
 8615 0a91 00       		.byte	0
 8616 0a92 18       		.byte	24
 8617 0a93 80       		.byte	-128
 8618 0a94 0F       		.byte	15
 8619 0a95 00       		.byte	0
 8620 0a96 00       		.byte	0
 8621 0a97 00       		.byte	0
 8622 0a98 00       		.byte	0
 8623 0a99 00       		.byte	0
 8624 0a9a 00       		.byte	0
 8625 0a9b 00       		.byte	0
 8626 0a9c 00       		.byte	0
 8627 0a9d 00       		.byte	0
 8628 0a9e 00       		.byte	0
 8629 0a9f 00       		.byte	0
 8630 0aa0 00       		.byte	0
 8631 0aa1 00       		.byte	0
 8632 0aa2 00       		.byte	0
 8633 0aa3 00       		.byte	0
 8634 0aa4 00       		.byte	0
 8635 0aa5 00       		.byte	0
 8636 0aa6 00       		.byte	0
 8637 0aa7 00       		.byte	0
 8638 0aa8 73       		.byte	115
 8639 0aa9 80       		.byte	-128
 8640 0aaa 31       		.byte	49
 8641 0aab 80       		.byte	-128
 8642 0aac 31       		.byte	49
 8643 0aad 80       		.byte	-128
 8644 0aae 31       		.byte	49
 8645 0aaf 80       		.byte	-128
 8646 0ab0 31       		.byte	49
 8647 0ab1 80       		.byte	-128
 8648 0ab2 33       		.byte	51
 8649 0ab3 80       		.byte	-128
 8650 0ab4 1D       		.byte	29
 8651 0ab5 C0       		.byte	-64
ARM GAS  C:\Users\milek\AppData\Local\Temp\ccMSPWBt.s 			page 189


 8652 0ab6 00       		.byte	0
 8653 0ab7 00       		.byte	0
 8654 0ab8 00       		.byte	0
 8655 0ab9 00       		.byte	0
 8656 0aba 00       		.byte	0
 8657 0abb 00       		.byte	0
 8658 0abc 00       		.byte	0
 8659 0abd 00       		.byte	0
 8660 0abe 00       		.byte	0
 8661 0abf 00       		.byte	0
 8662 0ac0 00       		.byte	0
 8663 0ac1 00       		.byte	0
 8664 0ac2 00       		.byte	0
 8665 0ac3 00       		.byte	0
 8666 0ac4 00       		.byte	0
 8667 0ac5 00       		.byte	0
 8668 0ac6 00       		.byte	0
 8669 0ac7 00       		.byte	0
 8670 0ac8 7B       		.byte	123
 8671 0ac9 C0       		.byte	-64
 8672 0aca 31       		.byte	49
 8673 0acb 80       		.byte	-128
 8674 0acc 31       		.byte	49
 8675 0acd 80       		.byte	-128
 8676 0ace 1B       		.byte	27
 8677 0acf 00       		.byte	0
 8678 0ad0 1B       		.byte	27
 8679 0ad1 00       		.byte	0
 8680 0ad2 0E       		.byte	14
 8681 0ad3 00       		.byte	0
 8682 0ad4 0E       		.byte	14
 8683 0ad5 00       		.byte	0
 8684 0ad6 00       		.byte	0
 8685 0ad7 00       		.byte	0
 8686 0ad8 00       		.byte	0
 8687 0ad9 00       		.byte	0
 8688 0ada 00       		.byte	0
 8689 0adb 00       		.byte	0
 8690 0adc 00       		.byte	0
 8691 0add 00       		.byte	0
 8692 0ade 00       		.byte	0
 8693 0adf 00       		.byte	0
 8694 0ae0 00       		.byte	0
 8695 0ae1 00       		.byte	0
 8696 0ae2 00       		.byte	0
 8697 0ae3 00       		.byte	0
 8698 0ae4 00       		.byte	0
 8699 0ae5 00       		.byte	0
 8700 0ae6 00       		.byte	0
 8701 0ae7 00       		.byte	0
 8702 0ae8 F1       		.byte	-15
 8703 0ae9 E0       		.byte	-32
 8704 0aea 60       		.byte	96
 8705 0aeb C0       		.byte	-64
 8706 0aec 64       		.byte	100
 8707 0aed C0       		.byte	-64
 8708 0aee 6E       		.byte	110
ARM GAS  C:\Users\milek\AppData\Local\Temp\ccMSPWBt.s 			page 190


 8709 0aef C0       		.byte	-64
 8710 0af0 3B       		.byte	59
 8711 0af1 80       		.byte	-128
 8712 0af2 3B       		.byte	59
 8713 0af3 80       		.byte	-128
 8714 0af4 31       		.byte	49
 8715 0af5 80       		.byte	-128
 8716 0af6 00       		.byte	0
 8717 0af7 00       		.byte	0
 8718 0af8 00       		.byte	0
 8719 0af9 00       		.byte	0
 8720 0afa 00       		.byte	0
 8721 0afb 00       		.byte	0
 8722 0afc 00       		.byte	0
 8723 0afd 00       		.byte	0
 8724 0afe 00       		.byte	0
 8725 0aff 00       		.byte	0
 8726 0b00 00       		.byte	0
 8727 0b01 00       		.byte	0
 8728 0b02 00       		.byte	0
 8729 0b03 00       		.byte	0
 8730 0b04 00       		.byte	0
 8731 0b05 00       		.byte	0
 8732 0b06 00       		.byte	0
 8733 0b07 00       		.byte	0
 8734 0b08 7B       		.byte	123
 8735 0b09 C0       		.byte	-64
 8736 0b0a 1B       		.byte	27
 8737 0b0b 00       		.byte	0
 8738 0b0c 0E       		.byte	14
 8739 0b0d 00       		.byte	0
 8740 0b0e 0E       		.byte	14
 8741 0b0f 00       		.byte	0
 8742 0b10 0E       		.byte	14
 8743 0b11 00       		.byte	0
 8744 0b12 1B       		.byte	27
 8745 0b13 00       		.byte	0
 8746 0b14 7B       		.byte	123
 8747 0b15 C0       		.byte	-64
 8748 0b16 00       		.byte	0
 8749 0b17 00       		.byte	0
 8750 0b18 00       		.byte	0
 8751 0b19 00       		.byte	0
 8752 0b1a 00       		.byte	0
 8753 0b1b 00       		.byte	0
 8754 0b1c 00       		.byte	0
 8755 0b1d 00       		.byte	0
 8756 0b1e 00       		.byte	0
 8757 0b1f 00       		.byte	0
 8758 0b20 00       		.byte	0
 8759 0b21 00       		.byte	0
 8760 0b22 00       		.byte	0
 8761 0b23 00       		.byte	0
 8762 0b24 00       		.byte	0
 8763 0b25 00       		.byte	0
 8764 0b26 00       		.byte	0
 8765 0b27 00       		.byte	0
ARM GAS  C:\Users\milek\AppData\Local\Temp\ccMSPWBt.s 			page 191


 8766 0b28 79       		.byte	121
 8767 0b29 E0       		.byte	-32
 8768 0b2a 30       		.byte	48
 8769 0b2b C0       		.byte	-64
 8770 0b2c 19       		.byte	25
 8771 0b2d 80       		.byte	-128
 8772 0b2e 19       		.byte	25
 8773 0b2f 80       		.byte	-128
 8774 0b30 0B       		.byte	11
 8775 0b31 00       		.byte	0
 8776 0b32 0F       		.byte	15
 8777 0b33 00       		.byte	0
 8778 0b34 06       		.byte	6
 8779 0b35 00       		.byte	0
 8780 0b36 06       		.byte	6
 8781 0b37 00       		.byte	0
 8782 0b38 0C       		.byte	12
 8783 0b39 00       		.byte	0
 8784 0b3a 3E       		.byte	62
 8785 0b3b 00       		.byte	0
 8786 0b3c 00       		.byte	0
 8787 0b3d 00       		.byte	0
 8788 0b3e 00       		.byte	0
 8789 0b3f 00       		.byte	0
 8790 0b40 00       		.byte	0
 8791 0b41 00       		.byte	0
 8792 0b42 00       		.byte	0
 8793 0b43 00       		.byte	0
 8794 0b44 00       		.byte	0
 8795 0b45 00       		.byte	0
 8796 0b46 00       		.byte	0
 8797 0b47 00       		.byte	0
 8798 0b48 3F       		.byte	63
 8799 0b49 80       		.byte	-128
 8800 0b4a 21       		.byte	33
 8801 0b4b 80       		.byte	-128
 8802 0b4c 03       		.byte	3
 8803 0b4d 00       		.byte	0
 8804 0b4e 0E       		.byte	14
 8805 0b4f 00       		.byte	0
 8806 0b50 18       		.byte	24
 8807 0b51 00       		.byte	0
 8808 0b52 30       		.byte	48
 8809 0b53 80       		.byte	-128
 8810 0b54 3F       		.byte	63
 8811 0b55 80       		.byte	-128
 8812 0b56 00       		.byte	0
 8813 0b57 00       		.byte	0
 8814 0b58 00       		.byte	0
 8815 0b59 00       		.byte	0
 8816 0b5a 00       		.byte	0
 8817 0b5b 00       		.byte	0
 8818 0b5c 00       		.byte	0
 8819 0b5d 00       		.byte	0
 8820 0b5e 00       		.byte	0
 8821 0b5f 00       		.byte	0
 8822 0b60 00       		.byte	0
ARM GAS  C:\Users\milek\AppData\Local\Temp\ccMSPWBt.s 			page 192


 8823 0b61 00       		.byte	0
 8824 0b62 06       		.byte	6
 8825 0b63 00       		.byte	0
 8826 0b64 0C       		.byte	12
 8827 0b65 00       		.byte	0
 8828 0b66 0C       		.byte	12
 8829 0b67 00       		.byte	0
 8830 0b68 0C       		.byte	12
 8831 0b69 00       		.byte	0
 8832 0b6a 0C       		.byte	12
 8833 0b6b 00       		.byte	0
 8834 0b6c 0C       		.byte	12
 8835 0b6d 00       		.byte	0
 8836 0b6e 18       		.byte	24
 8837 0b6f 00       		.byte	0
 8838 0b70 0C       		.byte	12
 8839 0b71 00       		.byte	0
 8840 0b72 0C       		.byte	12
 8841 0b73 00       		.byte	0
 8842 0b74 0C       		.byte	12
 8843 0b75 00       		.byte	0
 8844 0b76 0C       		.byte	12
 8845 0b77 00       		.byte	0
 8846 0b78 06       		.byte	6
 8847 0b79 00       		.byte	0
 8848 0b7a 00       		.byte	0
 8849 0b7b 00       		.byte	0
 8850 0b7c 00       		.byte	0
 8851 0b7d 00       		.byte	0
 8852 0b7e 00       		.byte	0
 8853 0b7f 00       		.byte	0
 8854 0b80 00       		.byte	0
 8855 0b81 00       		.byte	0
 8856 0b82 06       		.byte	6
 8857 0b83 00       		.byte	0
 8858 0b84 06       		.byte	6
 8859 0b85 00       		.byte	0
 8860 0b86 06       		.byte	6
 8861 0b87 00       		.byte	0
 8862 0b88 06       		.byte	6
 8863 0b89 00       		.byte	0
 8864 0b8a 06       		.byte	6
 8865 0b8b 00       		.byte	0
 8866 0b8c 06       		.byte	6
 8867 0b8d 00       		.byte	0
 8868 0b8e 06       		.byte	6
 8869 0b8f 00       		.byte	0
 8870 0b90 06       		.byte	6
 8871 0b91 00       		.byte	0
 8872 0b92 06       		.byte	6
 8873 0b93 00       		.byte	0
 8874 0b94 06       		.byte	6
 8875 0b95 00       		.byte	0
 8876 0b96 06       		.byte	6
 8877 0b97 00       		.byte	0
 8878 0b98 06       		.byte	6
 8879 0b99 00       		.byte	0
ARM GAS  C:\Users\milek\AppData\Local\Temp\ccMSPWBt.s 			page 193


 8880 0b9a 00       		.byte	0
 8881 0b9b 00       		.byte	0
 8882 0b9c 00       		.byte	0
 8883 0b9d 00       		.byte	0
 8884 0b9e 00       		.byte	0
 8885 0b9f 00       		.byte	0
 8886 0ba0 00       		.byte	0
 8887 0ba1 00       		.byte	0
 8888 0ba2 0C       		.byte	12
 8889 0ba3 00       		.byte	0
 8890 0ba4 06       		.byte	6
 8891 0ba5 00       		.byte	0
 8892 0ba6 06       		.byte	6
 8893 0ba7 00       		.byte	0
 8894 0ba8 06       		.byte	6
 8895 0ba9 00       		.byte	0
 8896 0baa 06       		.byte	6
 8897 0bab 00       		.byte	0
 8898 0bac 06       		.byte	6
 8899 0bad 00       		.byte	0
 8900 0bae 03       		.byte	3
 8901 0baf 00       		.byte	0
 8902 0bb0 06       		.byte	6
 8903 0bb1 00       		.byte	0
 8904 0bb2 06       		.byte	6
 8905 0bb3 00       		.byte	0
 8906 0bb4 06       		.byte	6
 8907 0bb5 00       		.byte	0
 8908 0bb6 06       		.byte	6
 8909 0bb7 00       		.byte	0
 8910 0bb8 0C       		.byte	12
 8911 0bb9 00       		.byte	0
 8912 0bba 00       		.byte	0
 8913 0bbb 00       		.byte	0
 8914 0bbc 00       		.byte	0
 8915 0bbd 00       		.byte	0
 8916 0bbe 00       		.byte	0
 8917 0bbf 00       		.byte	0
 8918 0bc0 00       		.byte	0
 8919 0bc1 00       		.byte	0
 8920 0bc2 00       		.byte	0
 8921 0bc3 00       		.byte	0
 8922 0bc4 00       		.byte	0
 8923 0bc5 00       		.byte	0
 8924 0bc6 00       		.byte	0
 8925 0bc7 00       		.byte	0
 8926 0bc8 00       		.byte	0
 8927 0bc9 00       		.byte	0
 8928 0bca 18       		.byte	24
 8929 0bcb 00       		.byte	0
 8930 0bcc 24       		.byte	36
 8931 0bcd 80       		.byte	-128
 8932 0bce 03       		.byte	3
 8933 0bcf 00       		.byte	0
 8934 0bd0 00       		.byte	0
 8935 0bd1 00       		.byte	0
 8936 0bd2 00       		.byte	0
ARM GAS  C:\Users\milek\AppData\Local\Temp\ccMSPWBt.s 			page 194


 8937 0bd3 00       		.byte	0
 8938 0bd4 00       		.byte	0
 8939 0bd5 00       		.byte	0
 8940 0bd6 00       		.byte	0
 8941 0bd7 00       		.byte	0
 8942 0bd8 00       		.byte	0
 8943 0bd9 00       		.byte	0
 8944 0bda 00       		.byte	0
 8945 0bdb 00       		.byte	0
 8946 0bdc 00       		.byte	0
 8947 0bdd 00       		.byte	0
 8948 0bde 00       		.byte	0
 8949 0bdf 00       		.byte	0
 8950              		.section	.rodata.Font20_Table,"a",%progbits
 8951              		.align	2
 8954              	Font20_Table:
 8955 0000 00       		.byte	0
 8956 0001 00       		.byte	0
 8957 0002 00       		.byte	0
 8958 0003 00       		.byte	0
 8959 0004 00       		.byte	0
 8960 0005 00       		.byte	0
 8961 0006 00       		.byte	0
 8962 0007 00       		.byte	0
 8963 0008 00       		.byte	0
 8964 0009 00       		.byte	0
 8965 000a 00       		.byte	0
 8966 000b 00       		.byte	0
 8967 000c 00       		.byte	0
 8968 000d 00       		.byte	0
 8969 000e 00       		.byte	0
 8970 000f 00       		.byte	0
 8971 0010 00       		.byte	0
 8972 0011 00       		.byte	0
 8973 0012 00       		.byte	0
 8974 0013 00       		.byte	0
 8975 0014 00       		.byte	0
 8976 0015 00       		.byte	0
 8977 0016 00       		.byte	0
 8978 0017 00       		.byte	0
 8979 0018 00       		.byte	0
 8980 0019 00       		.byte	0
 8981 001a 00       		.byte	0
 8982 001b 00       		.byte	0
 8983 001c 00       		.byte	0
 8984 001d 00       		.byte	0
 8985 001e 00       		.byte	0
 8986 001f 00       		.byte	0
 8987 0020 00       		.byte	0
 8988 0021 00       		.byte	0
 8989 0022 00       		.byte	0
 8990 0023 00       		.byte	0
 8991 0024 00       		.byte	0
 8992 0025 00       		.byte	0
 8993 0026 00       		.byte	0
 8994 0027 00       		.byte	0
 8995 0028 00       		.byte	0
ARM GAS  C:\Users\milek\AppData\Local\Temp\ccMSPWBt.s 			page 195


 8996 0029 00       		.byte	0
 8997 002a 07       		.byte	7
 8998 002b 00       		.byte	0
 8999 002c 07       		.byte	7
 9000 002d 00       		.byte	0
 9001 002e 07       		.byte	7
 9002 002f 00       		.byte	0
 9003 0030 07       		.byte	7
 9004 0031 00       		.byte	0
 9005 0032 07       		.byte	7
 9006 0033 00       		.byte	0
 9007 0034 07       		.byte	7
 9008 0035 00       		.byte	0
 9009 0036 07       		.byte	7
 9010 0037 00       		.byte	0
 9011 0038 02       		.byte	2
 9012 0039 00       		.byte	0
 9013 003a 02       		.byte	2
 9014 003b 00       		.byte	0
 9015 003c 00       		.byte	0
 9016 003d 00       		.byte	0
 9017 003e 00       		.byte	0
 9018 003f 00       		.byte	0
 9019 0040 07       		.byte	7
 9020 0041 00       		.byte	0
 9021 0042 07       		.byte	7
 9022 0043 00       		.byte	0
 9023 0044 00       		.byte	0
 9024 0045 00       		.byte	0
 9025 0046 00       		.byte	0
 9026 0047 00       		.byte	0
 9027 0048 00       		.byte	0
 9028 0049 00       		.byte	0
 9029 004a 00       		.byte	0
 9030 004b 00       		.byte	0
 9031 004c 00       		.byte	0
 9032 004d 00       		.byte	0
 9033 004e 00       		.byte	0
 9034 004f 00       		.byte	0
 9035 0050 00       		.byte	0
 9036 0051 00       		.byte	0
 9037 0052 00       		.byte	0
 9038 0053 00       		.byte	0
 9039 0054 1C       		.byte	28
 9040 0055 E0       		.byte	-32
 9041 0056 1C       		.byte	28
 9042 0057 E0       		.byte	-32
 9043 0058 1C       		.byte	28
 9044 0059 E0       		.byte	-32
 9045 005a 08       		.byte	8
 9046 005b 40       		.byte	64
 9047 005c 08       		.byte	8
 9048 005d 40       		.byte	64
 9049 005e 08       		.byte	8
 9050 005f 40       		.byte	64
 9051 0060 00       		.byte	0
 9052 0061 00       		.byte	0
ARM GAS  C:\Users\milek\AppData\Local\Temp\ccMSPWBt.s 			page 196


 9053 0062 00       		.byte	0
 9054 0063 00       		.byte	0
 9055 0064 00       		.byte	0
 9056 0065 00       		.byte	0
 9057 0066 00       		.byte	0
 9058 0067 00       		.byte	0
 9059 0068 00       		.byte	0
 9060 0069 00       		.byte	0
 9061 006a 00       		.byte	0
 9062 006b 00       		.byte	0
 9063 006c 00       		.byte	0
 9064 006d 00       		.byte	0
 9065 006e 00       		.byte	0
 9066 006f 00       		.byte	0
 9067 0070 00       		.byte	0
 9068 0071 00       		.byte	0
 9069 0072 00       		.byte	0
 9070 0073 00       		.byte	0
 9071 0074 00       		.byte	0
 9072 0075 00       		.byte	0
 9073 0076 00       		.byte	0
 9074 0077 00       		.byte	0
 9075 0078 0C       		.byte	12
 9076 0079 C0       		.byte	-64
 9077 007a 0C       		.byte	12
 9078 007b C0       		.byte	-64
 9079 007c 0C       		.byte	12
 9080 007d C0       		.byte	-64
 9081 007e 0C       		.byte	12
 9082 007f C0       		.byte	-64
 9083 0080 0C       		.byte	12
 9084 0081 C0       		.byte	-64
 9085 0082 3F       		.byte	63
 9086 0083 F0       		.byte	-16
 9087 0084 3F       		.byte	63
 9088 0085 F0       		.byte	-16
 9089 0086 0C       		.byte	12
 9090 0087 C0       		.byte	-64
 9091 0088 0C       		.byte	12
 9092 0089 C0       		.byte	-64
 9093 008a 3F       		.byte	63
 9094 008b F0       		.byte	-16
 9095 008c 3F       		.byte	63
 9096 008d F0       		.byte	-16
 9097 008e 0C       		.byte	12
 9098 008f C0       		.byte	-64
 9099 0090 0C       		.byte	12
 9100 0091 C0       		.byte	-64
 9101 0092 0C       		.byte	12
 9102 0093 C0       		.byte	-64
 9103 0094 0C       		.byte	12
 9104 0095 C0       		.byte	-64
 9105 0096 0C       		.byte	12
 9106 0097 C0       		.byte	-64
 9107 0098 00       		.byte	0
 9108 0099 00       		.byte	0
 9109 009a 00       		.byte	0
ARM GAS  C:\Users\milek\AppData\Local\Temp\ccMSPWBt.s 			page 197


 9110 009b 00       		.byte	0
 9111 009c 00       		.byte	0
 9112 009d 00       		.byte	0
 9113 009e 00       		.byte	0
 9114 009f 00       		.byte	0
 9115 00a0 03       		.byte	3
 9116 00a1 00       		.byte	0
 9117 00a2 03       		.byte	3
 9118 00a3 00       		.byte	0
 9119 00a4 07       		.byte	7
 9120 00a5 E0       		.byte	-32
 9121 00a6 0F       		.byte	15
 9122 00a7 E0       		.byte	-32
 9123 00a8 18       		.byte	24
 9124 00a9 60       		.byte	96
 9125 00aa 18       		.byte	24
 9126 00ab 00       		.byte	0
 9127 00ac 1F       		.byte	31
 9128 00ad 00       		.byte	0
 9129 00ae 0F       		.byte	15
 9130 00af C0       		.byte	-64
 9131 00b0 00       		.byte	0
 9132 00b1 E0       		.byte	-32
 9133 00b2 18       		.byte	24
 9134 00b3 60       		.byte	96
 9135 00b4 18       		.byte	24
 9136 00b5 60       		.byte	96
 9137 00b6 1F       		.byte	31
 9138 00b7 C0       		.byte	-64
 9139 00b8 1F       		.byte	31
 9140 00b9 80       		.byte	-128
 9141 00ba 03       		.byte	3
 9142 00bb 00       		.byte	0
 9143 00bc 03       		.byte	3
 9144 00bd 00       		.byte	0
 9145 00be 03       		.byte	3
 9146 00bf 00       		.byte	0
 9147 00c0 00       		.byte	0
 9148 00c1 00       		.byte	0
 9149 00c2 00       		.byte	0
 9150 00c3 00       		.byte	0
 9151 00c4 00       		.byte	0
 9152 00c5 00       		.byte	0
 9153 00c6 00       		.byte	0
 9154 00c7 00       		.byte	0
 9155 00c8 00       		.byte	0
 9156 00c9 00       		.byte	0
 9157 00ca 1C       		.byte	28
 9158 00cb 00       		.byte	0
 9159 00cc 22       		.byte	34
 9160 00cd 00       		.byte	0
 9161 00ce 22       		.byte	34
 9162 00cf 00       		.byte	0
 9163 00d0 22       		.byte	34
 9164 00d1 00       		.byte	0
 9165 00d2 1C       		.byte	28
 9166 00d3 60       		.byte	96
ARM GAS  C:\Users\milek\AppData\Local\Temp\ccMSPWBt.s 			page 198


 9167 00d4 01       		.byte	1
 9168 00d5 E0       		.byte	-32
 9169 00d6 0F       		.byte	15
 9170 00d7 80       		.byte	-128
 9171 00d8 3C       		.byte	60
 9172 00d9 00       		.byte	0
 9173 00da 31       		.byte	49
 9174 00db C0       		.byte	-64
 9175 00dc 02       		.byte	2
 9176 00dd 20       		.byte	32
 9177 00de 02       		.byte	2
 9178 00df 20       		.byte	32
 9179 00e0 02       		.byte	2
 9180 00e1 20       		.byte	32
 9181 00e2 01       		.byte	1
 9182 00e3 C0       		.byte	-64
 9183 00e4 00       		.byte	0
 9184 00e5 00       		.byte	0
 9185 00e6 00       		.byte	0
 9186 00e7 00       		.byte	0
 9187 00e8 00       		.byte	0
 9188 00e9 00       		.byte	0
 9189 00ea 00       		.byte	0
 9190 00eb 00       		.byte	0
 9191 00ec 00       		.byte	0
 9192 00ed 00       		.byte	0
 9193 00ee 00       		.byte	0
 9194 00ef 00       		.byte	0
 9195 00f0 00       		.byte	0
 9196 00f1 00       		.byte	0
 9197 00f2 00       		.byte	0
 9198 00f3 00       		.byte	0
 9199 00f4 00       		.byte	0
 9200 00f5 00       		.byte	0
 9201 00f6 03       		.byte	3
 9202 00f7 E0       		.byte	-32
 9203 00f8 0F       		.byte	15
 9204 00f9 E0       		.byte	-32
 9205 00fa 0C       		.byte	12
 9206 00fb 00       		.byte	0
 9207 00fc 0C       		.byte	12
 9208 00fd 00       		.byte	0
 9209 00fe 06       		.byte	6
 9210 00ff 00       		.byte	0
 9211 0100 0F       		.byte	15
 9212 0101 30       		.byte	48
 9213 0102 1F       		.byte	31
 9214 0103 F0       		.byte	-16
 9215 0104 19       		.byte	25
 9216 0105 E0       		.byte	-32
 9217 0106 18       		.byte	24
 9218 0107 C0       		.byte	-64
 9219 0108 1F       		.byte	31
 9220 0109 F0       		.byte	-16
 9221 010a 07       		.byte	7
 9222 010b B0       		.byte	-80
 9223 010c 00       		.byte	0
ARM GAS  C:\Users\milek\AppData\Local\Temp\ccMSPWBt.s 			page 199


 9224 010d 00       		.byte	0
 9225 010e 00       		.byte	0
 9226 010f 00       		.byte	0
 9227 0110 00       		.byte	0
 9228 0111 00       		.byte	0
 9229 0112 00       		.byte	0
 9230 0113 00       		.byte	0
 9231 0114 00       		.byte	0
 9232 0115 00       		.byte	0
 9233 0116 00       		.byte	0
 9234 0117 00       		.byte	0
 9235 0118 00       		.byte	0
 9236 0119 00       		.byte	0
 9237 011a 00       		.byte	0
 9238 011b 00       		.byte	0
 9239 011c 03       		.byte	3
 9240 011d 80       		.byte	-128
 9241 011e 03       		.byte	3
 9242 011f 80       		.byte	-128
 9243 0120 03       		.byte	3
 9244 0121 80       		.byte	-128
 9245 0122 01       		.byte	1
 9246 0123 00       		.byte	0
 9247 0124 01       		.byte	1
 9248 0125 00       		.byte	0
 9249 0126 01       		.byte	1
 9250 0127 00       		.byte	0
 9251 0128 00       		.byte	0
 9252 0129 00       		.byte	0
 9253 012a 00       		.byte	0
 9254 012b 00       		.byte	0
 9255 012c 00       		.byte	0
 9256 012d 00       		.byte	0
 9257 012e 00       		.byte	0
 9258 012f 00       		.byte	0
 9259 0130 00       		.byte	0
 9260 0131 00       		.byte	0
 9261 0132 00       		.byte	0
 9262 0133 00       		.byte	0
 9263 0134 00       		.byte	0
 9264 0135 00       		.byte	0
 9265 0136 00       		.byte	0
 9266 0137 00       		.byte	0
 9267 0138 00       		.byte	0
 9268 0139 00       		.byte	0
 9269 013a 00       		.byte	0
 9270 013b 00       		.byte	0
 9271 013c 00       		.byte	0
 9272 013d 00       		.byte	0
 9273 013e 00       		.byte	0
 9274 013f 00       		.byte	0
 9275 0140 00       		.byte	0
 9276 0141 00       		.byte	0
 9277 0142 00       		.byte	0
 9278 0143 C0       		.byte	-64
 9279 0144 00       		.byte	0
 9280 0145 C0       		.byte	-64
ARM GAS  C:\Users\milek\AppData\Local\Temp\ccMSPWBt.s 			page 200


 9281 0146 01       		.byte	1
 9282 0147 80       		.byte	-128
 9283 0148 01       		.byte	1
 9284 0149 80       		.byte	-128
 9285 014a 01       		.byte	1
 9286 014b 80       		.byte	-128
 9287 014c 03       		.byte	3
 9288 014d 00       		.byte	0
 9289 014e 03       		.byte	3
 9290 014f 00       		.byte	0
 9291 0150 03       		.byte	3
 9292 0151 00       		.byte	0
 9293 0152 03       		.byte	3
 9294 0153 00       		.byte	0
 9295 0154 03       		.byte	3
 9296 0155 00       		.byte	0
 9297 0156 03       		.byte	3
 9298 0157 00       		.byte	0
 9299 0158 01       		.byte	1
 9300 0159 80       		.byte	-128
 9301 015a 01       		.byte	1
 9302 015b 80       		.byte	-128
 9303 015c 01       		.byte	1
 9304 015d 80       		.byte	-128
 9305 015e 00       		.byte	0
 9306 015f C0       		.byte	-64
 9307 0160 00       		.byte	0
 9308 0161 C0       		.byte	-64
 9309 0162 00       		.byte	0
 9310 0163 00       		.byte	0
 9311 0164 00       		.byte	0
 9312 0165 00       		.byte	0
 9313 0166 00       		.byte	0
 9314 0167 00       		.byte	0
 9315 0168 00       		.byte	0
 9316 0169 00       		.byte	0
 9317 016a 0C       		.byte	12
 9318 016b 00       		.byte	0
 9319 016c 0C       		.byte	12
 9320 016d 00       		.byte	0
 9321 016e 06       		.byte	6
 9322 016f 00       		.byte	0
 9323 0170 06       		.byte	6
 9324 0171 00       		.byte	0
 9325 0172 06       		.byte	6
 9326 0173 00       		.byte	0
 9327 0174 03       		.byte	3
 9328 0175 00       		.byte	0
 9329 0176 03       		.byte	3
 9330 0177 00       		.byte	0
 9331 0178 03       		.byte	3
 9332 0179 00       		.byte	0
 9333 017a 03       		.byte	3
 9334 017b 00       		.byte	0
 9335 017c 03       		.byte	3
 9336 017d 00       		.byte	0
 9337 017e 03       		.byte	3
ARM GAS  C:\Users\milek\AppData\Local\Temp\ccMSPWBt.s 			page 201


 9338 017f 00       		.byte	0
 9339 0180 06       		.byte	6
 9340 0181 00       		.byte	0
 9341 0182 06       		.byte	6
 9342 0183 00       		.byte	0
 9343 0184 06       		.byte	6
 9344 0185 00       		.byte	0
 9345 0186 0C       		.byte	12
 9346 0187 00       		.byte	0
 9347 0188 0C       		.byte	12
 9348 0189 00       		.byte	0
 9349 018a 00       		.byte	0
 9350 018b 00       		.byte	0
 9351 018c 00       		.byte	0
 9352 018d 00       		.byte	0
 9353 018e 00       		.byte	0
 9354 018f 00       		.byte	0
 9355 0190 00       		.byte	0
 9356 0191 00       		.byte	0
 9357 0192 03       		.byte	3
 9358 0193 00       		.byte	0
 9359 0194 03       		.byte	3
 9360 0195 00       		.byte	0
 9361 0196 03       		.byte	3
 9362 0197 00       		.byte	0
 9363 0198 1B       		.byte	27
 9364 0199 60       		.byte	96
 9365 019a 1F       		.byte	31
 9366 019b E0       		.byte	-32
 9367 019c 07       		.byte	7
 9368 019d 80       		.byte	-128
 9369 019e 07       		.byte	7
 9370 019f 80       		.byte	-128
 9371 01a0 0F       		.byte	15
 9372 01a1 C0       		.byte	-64
 9373 01a2 0C       		.byte	12
 9374 01a3 C0       		.byte	-64
 9375 01a4 00       		.byte	0
 9376 01a5 00       		.byte	0
 9377 01a6 00       		.byte	0
 9378 01a7 00       		.byte	0
 9379 01a8 00       		.byte	0
 9380 01a9 00       		.byte	0
 9381 01aa 00       		.byte	0
 9382 01ab 00       		.byte	0
 9383 01ac 00       		.byte	0
 9384 01ad 00       		.byte	0
 9385 01ae 00       		.byte	0
 9386 01af 00       		.byte	0
 9387 01b0 00       		.byte	0
 9388 01b1 00       		.byte	0
 9389 01b2 00       		.byte	0
 9390 01b3 00       		.byte	0
 9391 01b4 00       		.byte	0
 9392 01b5 00       		.byte	0
 9393 01b6 00       		.byte	0
 9394 01b7 00       		.byte	0
ARM GAS  C:\Users\milek\AppData\Local\Temp\ccMSPWBt.s 			page 202


 9395 01b8 00       		.byte	0
 9396 01b9 00       		.byte	0
 9397 01ba 00       		.byte	0
 9398 01bb 00       		.byte	0
 9399 01bc 00       		.byte	0
 9400 01bd 00       		.byte	0
 9401 01be 03       		.byte	3
 9402 01bf 00       		.byte	0
 9403 01c0 03       		.byte	3
 9404 01c1 00       		.byte	0
 9405 01c2 03       		.byte	3
 9406 01c3 00       		.byte	0
 9407 01c4 03       		.byte	3
 9408 01c5 00       		.byte	0
 9409 01c6 3F       		.byte	63
 9410 01c7 F0       		.byte	-16
 9411 01c8 3F       		.byte	63
 9412 01c9 F0       		.byte	-16
 9413 01ca 03       		.byte	3
 9414 01cb 00       		.byte	0
 9415 01cc 03       		.byte	3
 9416 01cd 00       		.byte	0
 9417 01ce 03       		.byte	3
 9418 01cf 00       		.byte	0
 9419 01d0 03       		.byte	3
 9420 01d1 00       		.byte	0
 9421 01d2 00       		.byte	0
 9422 01d3 00       		.byte	0
 9423 01d4 00       		.byte	0
 9424 01d5 00       		.byte	0
 9425 01d6 00       		.byte	0
 9426 01d7 00       		.byte	0
 9427 01d8 00       		.byte	0
 9428 01d9 00       		.byte	0
 9429 01da 00       		.byte	0
 9430 01db 00       		.byte	0
 9431 01dc 00       		.byte	0
 9432 01dd 00       		.byte	0
 9433 01de 00       		.byte	0
 9434 01df 00       		.byte	0
 9435 01e0 00       		.byte	0
 9436 01e1 00       		.byte	0
 9437 01e2 00       		.byte	0
 9438 01e3 00       		.byte	0
 9439 01e4 00       		.byte	0
 9440 01e5 00       		.byte	0
 9441 01e6 00       		.byte	0
 9442 01e7 00       		.byte	0
 9443 01e8 00       		.byte	0
 9444 01e9 00       		.byte	0
 9445 01ea 00       		.byte	0
 9446 01eb 00       		.byte	0
 9447 01ec 00       		.byte	0
 9448 01ed 00       		.byte	0
 9449 01ee 00       		.byte	0
 9450 01ef 00       		.byte	0
 9451 01f0 00       		.byte	0
ARM GAS  C:\Users\milek\AppData\Local\Temp\ccMSPWBt.s 			page 203


 9452 01f1 00       		.byte	0
 9453 01f2 00       		.byte	0
 9454 01f3 00       		.byte	0
 9455 01f4 00       		.byte	0
 9456 01f5 00       		.byte	0
 9457 01f6 03       		.byte	3
 9458 01f7 80       		.byte	-128
 9459 01f8 03       		.byte	3
 9460 01f9 00       		.byte	0
 9461 01fa 03       		.byte	3
 9462 01fb 00       		.byte	0
 9463 01fc 06       		.byte	6
 9464 01fd 00       		.byte	0
 9465 01fe 06       		.byte	6
 9466 01ff 00       		.byte	0
 9467 0200 04       		.byte	4
 9468 0201 00       		.byte	0
 9469 0202 00       		.byte	0
 9470 0203 00       		.byte	0
 9471 0204 00       		.byte	0
 9472 0205 00       		.byte	0
 9473 0206 00       		.byte	0
 9474 0207 00       		.byte	0
 9475 0208 00       		.byte	0
 9476 0209 00       		.byte	0
 9477 020a 00       		.byte	0
 9478 020b 00       		.byte	0
 9479 020c 00       		.byte	0
 9480 020d 00       		.byte	0
 9481 020e 00       		.byte	0
 9482 020f 00       		.byte	0
 9483 0210 00       		.byte	0
 9484 0211 00       		.byte	0
 9485 0212 00       		.byte	0
 9486 0213 00       		.byte	0
 9487 0214 00       		.byte	0
 9488 0215 00       		.byte	0
 9489 0216 3F       		.byte	63
 9490 0217 E0       		.byte	-32
 9491 0218 3F       		.byte	63
 9492 0219 E0       		.byte	-32
 9493 021a 00       		.byte	0
 9494 021b 00       		.byte	0
 9495 021c 00       		.byte	0
 9496 021d 00       		.byte	0
 9497 021e 00       		.byte	0
 9498 021f 00       		.byte	0
 9499 0220 00       		.byte	0
 9500 0221 00       		.byte	0
 9501 0222 00       		.byte	0
 9502 0223 00       		.byte	0
 9503 0224 00       		.byte	0
 9504 0225 00       		.byte	0
 9505 0226 00       		.byte	0
 9506 0227 00       		.byte	0
 9507 0228 00       		.byte	0
 9508 0229 00       		.byte	0
ARM GAS  C:\Users\milek\AppData\Local\Temp\ccMSPWBt.s 			page 204


 9509 022a 00       		.byte	0
 9510 022b 00       		.byte	0
 9511 022c 00       		.byte	0
 9512 022d 00       		.byte	0
 9513 022e 00       		.byte	0
 9514 022f 00       		.byte	0
 9515 0230 00       		.byte	0
 9516 0231 00       		.byte	0
 9517 0232 00       		.byte	0
 9518 0233 00       		.byte	0
 9519 0234 00       		.byte	0
 9520 0235 00       		.byte	0
 9521 0236 00       		.byte	0
 9522 0237 00       		.byte	0
 9523 0238 00       		.byte	0
 9524 0239 00       		.byte	0
 9525 023a 00       		.byte	0
 9526 023b 00       		.byte	0
 9527 023c 00       		.byte	0
 9528 023d 00       		.byte	0
 9529 023e 00       		.byte	0
 9530 023f 00       		.byte	0
 9531 0240 00       		.byte	0
 9532 0241 00       		.byte	0
 9533 0242 00       		.byte	0
 9534 0243 00       		.byte	0
 9535 0244 00       		.byte	0
 9536 0245 00       		.byte	0
 9537 0246 03       		.byte	3
 9538 0247 80       		.byte	-128
 9539 0248 03       		.byte	3
 9540 0249 80       		.byte	-128
 9541 024a 03       		.byte	3
 9542 024b 80       		.byte	-128
 9543 024c 00       		.byte	0
 9544 024d 00       		.byte	0
 9545 024e 00       		.byte	0
 9546 024f 00       		.byte	0
 9547 0250 00       		.byte	0
 9548 0251 00       		.byte	0
 9549 0252 00       		.byte	0
 9550 0253 00       		.byte	0
 9551 0254 00       		.byte	0
 9552 0255 00       		.byte	0
 9553 0256 00       		.byte	0
 9554 0257 00       		.byte	0
 9555 0258 00       		.byte	0
 9556 0259 60       		.byte	96
 9557 025a 00       		.byte	0
 9558 025b 60       		.byte	96
 9559 025c 00       		.byte	0
 9560 025d C0       		.byte	-64
 9561 025e 00       		.byte	0
 9562 025f C0       		.byte	-64
 9563 0260 00       		.byte	0
 9564 0261 C0       		.byte	-64
 9565 0262 01       		.byte	1
ARM GAS  C:\Users\milek\AppData\Local\Temp\ccMSPWBt.s 			page 205


 9566 0263 80       		.byte	-128
 9567 0264 01       		.byte	1
 9568 0265 80       		.byte	-128
 9569 0266 03       		.byte	3
 9570 0267 00       		.byte	0
 9571 0268 03       		.byte	3
 9572 0269 00       		.byte	0
 9573 026a 06       		.byte	6
 9574 026b 00       		.byte	0
 9575 026c 06       		.byte	6
 9576 026d 00       		.byte	0
 9577 026e 0C       		.byte	12
 9578 026f 00       		.byte	0
 9579 0270 0C       		.byte	12
 9580 0271 00       		.byte	0
 9581 0272 0C       		.byte	12
 9582 0273 00       		.byte	0
 9583 0274 18       		.byte	24
 9584 0275 00       		.byte	0
 9585 0276 18       		.byte	24
 9586 0277 00       		.byte	0
 9587 0278 00       		.byte	0
 9588 0279 00       		.byte	0
 9589 027a 00       		.byte	0
 9590 027b 00       		.byte	0
 9591 027c 00       		.byte	0
 9592 027d 00       		.byte	0
 9593 027e 00       		.byte	0
 9594 027f 00       		.byte	0
 9595 0280 00       		.byte	0
 9596 0281 00       		.byte	0
 9597 0282 0F       		.byte	15
 9598 0283 80       		.byte	-128
 9599 0284 1F       		.byte	31
 9600 0285 C0       		.byte	-64
 9601 0286 18       		.byte	24
 9602 0287 C0       		.byte	-64
 9603 0288 30       		.byte	48
 9604 0289 60       		.byte	96
 9605 028a 30       		.byte	48
 9606 028b 60       		.byte	96
 9607 028c 30       		.byte	48
 9608 028d 60       		.byte	96
 9609 028e 30       		.byte	48
 9610 028f 60       		.byte	96
 9611 0290 30       		.byte	48
 9612 0291 60       		.byte	96
 9613 0292 30       		.byte	48
 9614 0293 60       		.byte	96
 9615 0294 30       		.byte	48
 9616 0295 60       		.byte	96
 9617 0296 18       		.byte	24
 9618 0297 C0       		.byte	-64
 9619 0298 1F       		.byte	31
 9620 0299 C0       		.byte	-64
 9621 029a 0F       		.byte	15
 9622 029b 80       		.byte	-128
ARM GAS  C:\Users\milek\AppData\Local\Temp\ccMSPWBt.s 			page 206


 9623 029c 00       		.byte	0
 9624 029d 00       		.byte	0
 9625 029e 00       		.byte	0
 9626 029f 00       		.byte	0
 9627 02a0 00       		.byte	0
 9628 02a1 00       		.byte	0
 9629 02a2 00       		.byte	0
 9630 02a3 00       		.byte	0
 9631 02a4 00       		.byte	0
 9632 02a5 00       		.byte	0
 9633 02a6 00       		.byte	0
 9634 02a7 00       		.byte	0
 9635 02a8 00       		.byte	0
 9636 02a9 00       		.byte	0
 9637 02aa 03       		.byte	3
 9638 02ab 00       		.byte	0
 9639 02ac 1F       		.byte	31
 9640 02ad 00       		.byte	0
 9641 02ae 1F       		.byte	31
 9642 02af 00       		.byte	0
 9643 02b0 03       		.byte	3
 9644 02b1 00       		.byte	0
 9645 02b2 03       		.byte	3
 9646 02b3 00       		.byte	0
 9647 02b4 03       		.byte	3
 9648 02b5 00       		.byte	0
 9649 02b6 03       		.byte	3
 9650 02b7 00       		.byte	0
 9651 02b8 03       		.byte	3
 9652 02b9 00       		.byte	0
 9653 02ba 03       		.byte	3
 9654 02bb 00       		.byte	0
 9655 02bc 03       		.byte	3
 9656 02bd 00       		.byte	0
 9657 02be 03       		.byte	3
 9658 02bf 00       		.byte	0
 9659 02c0 1F       		.byte	31
 9660 02c1 E0       		.byte	-32
 9661 02c2 1F       		.byte	31
 9662 02c3 E0       		.byte	-32
 9663 02c4 00       		.byte	0
 9664 02c5 00       		.byte	0
 9665 02c6 00       		.byte	0
 9666 02c7 00       		.byte	0
 9667 02c8 00       		.byte	0
 9668 02c9 00       		.byte	0
 9669 02ca 00       		.byte	0
 9670 02cb 00       		.byte	0
 9671 02cc 00       		.byte	0
 9672 02cd 00       		.byte	0
 9673 02ce 00       		.byte	0
 9674 02cf 00       		.byte	0
 9675 02d0 00       		.byte	0
 9676 02d1 00       		.byte	0
 9677 02d2 0F       		.byte	15
 9678 02d3 80       		.byte	-128
 9679 02d4 1F       		.byte	31
ARM GAS  C:\Users\milek\AppData\Local\Temp\ccMSPWBt.s 			page 207


 9680 02d5 C0       		.byte	-64
 9681 02d6 38       		.byte	56
 9682 02d7 E0       		.byte	-32
 9683 02d8 30       		.byte	48
 9684 02d9 60       		.byte	96
 9685 02da 00       		.byte	0
 9686 02db 60       		.byte	96
 9687 02dc 00       		.byte	0
 9688 02dd C0       		.byte	-64
 9689 02de 01       		.byte	1
 9690 02df 80       		.byte	-128
 9691 02e0 03       		.byte	3
 9692 02e1 00       		.byte	0
 9693 02e2 06       		.byte	6
 9694 02e3 00       		.byte	0
 9695 02e4 0C       		.byte	12
 9696 02e5 00       		.byte	0
 9697 02e6 18       		.byte	24
 9698 02e7 00       		.byte	0
 9699 02e8 3F       		.byte	63
 9700 02e9 E0       		.byte	-32
 9701 02ea 3F       		.byte	63
 9702 02eb E0       		.byte	-32
 9703 02ec 00       		.byte	0
 9704 02ed 00       		.byte	0
 9705 02ee 00       		.byte	0
 9706 02ef 00       		.byte	0
 9707 02f0 00       		.byte	0
 9708 02f1 00       		.byte	0
 9709 02f2 00       		.byte	0
 9710 02f3 00       		.byte	0
 9711 02f4 00       		.byte	0
 9712 02f5 00       		.byte	0
 9713 02f6 00       		.byte	0
 9714 02f7 00       		.byte	0
 9715 02f8 00       		.byte	0
 9716 02f9 00       		.byte	0
 9717 02fa 0F       		.byte	15
 9718 02fb 80       		.byte	-128
 9719 02fc 3F       		.byte	63
 9720 02fd C0       		.byte	-64
 9721 02fe 30       		.byte	48
 9722 02ff E0       		.byte	-32
 9723 0300 00       		.byte	0
 9724 0301 60       		.byte	96
 9725 0302 00       		.byte	0
 9726 0303 E0       		.byte	-32
 9727 0304 07       		.byte	7
 9728 0305 C0       		.byte	-64
 9729 0306 07       		.byte	7
 9730 0307 C0       		.byte	-64
 9731 0308 00       		.byte	0
 9732 0309 E0       		.byte	-32
 9733 030a 00       		.byte	0
 9734 030b 60       		.byte	96
 9735 030c 00       		.byte	0
 9736 030d 60       		.byte	96
ARM GAS  C:\Users\milek\AppData\Local\Temp\ccMSPWBt.s 			page 208


 9737 030e 60       		.byte	96
 9738 030f E0       		.byte	-32
 9739 0310 7F       		.byte	127
 9740 0311 C0       		.byte	-64
 9741 0312 3F       		.byte	63
 9742 0313 80       		.byte	-128
 9743 0314 00       		.byte	0
 9744 0315 00       		.byte	0
 9745 0316 00       		.byte	0
 9746 0317 00       		.byte	0
 9747 0318 00       		.byte	0
 9748 0319 00       		.byte	0
 9749 031a 00       		.byte	0
 9750 031b 00       		.byte	0
 9751 031c 00       		.byte	0
 9752 031d 00       		.byte	0
 9753 031e 00       		.byte	0
 9754 031f 00       		.byte	0
 9755 0320 00       		.byte	0
 9756 0321 00       		.byte	0
 9757 0322 01       		.byte	1
 9758 0323 C0       		.byte	-64
 9759 0324 03       		.byte	3
 9760 0325 C0       		.byte	-64
 9761 0326 03       		.byte	3
 9762 0327 C0       		.byte	-64
 9763 0328 06       		.byte	6
 9764 0329 C0       		.byte	-64
 9765 032a 0C       		.byte	12
 9766 032b C0       		.byte	-64
 9767 032c 0C       		.byte	12
 9768 032d C0       		.byte	-64
 9769 032e 18       		.byte	24
 9770 032f C0       		.byte	-64
 9771 0330 30       		.byte	48
 9772 0331 C0       		.byte	-64
 9773 0332 3F       		.byte	63
 9774 0333 E0       		.byte	-32
 9775 0334 3F       		.byte	63
 9776 0335 E0       		.byte	-32
 9777 0336 00       		.byte	0
 9778 0337 C0       		.byte	-64
 9779 0338 03       		.byte	3
 9780 0339 E0       		.byte	-32
 9781 033a 03       		.byte	3
 9782 033b E0       		.byte	-32
 9783 033c 00       		.byte	0
 9784 033d 00       		.byte	0
 9785 033e 00       		.byte	0
 9786 033f 00       		.byte	0
 9787 0340 00       		.byte	0
 9788 0341 00       		.byte	0
 9789 0342 00       		.byte	0
 9790 0343 00       		.byte	0
 9791 0344 00       		.byte	0
 9792 0345 00       		.byte	0
 9793 0346 00       		.byte	0
ARM GAS  C:\Users\milek\AppData\Local\Temp\ccMSPWBt.s 			page 209


 9794 0347 00       		.byte	0
 9795 0348 00       		.byte	0
 9796 0349 00       		.byte	0
 9797 034a 1F       		.byte	31
 9798 034b C0       		.byte	-64
 9799 034c 1F       		.byte	31
 9800 034d C0       		.byte	-64
 9801 034e 18       		.byte	24
 9802 034f 00       		.byte	0
 9803 0350 18       		.byte	24
 9804 0351 00       		.byte	0
 9805 0352 1F       		.byte	31
 9806 0353 80       		.byte	-128
 9807 0354 1F       		.byte	31
 9808 0355 C0       		.byte	-64
 9809 0356 18       		.byte	24
 9810 0357 E0       		.byte	-32
 9811 0358 00       		.byte	0
 9812 0359 60       		.byte	96
 9813 035a 00       		.byte	0
 9814 035b 60       		.byte	96
 9815 035c 00       		.byte	0
 9816 035d 60       		.byte	96
 9817 035e 30       		.byte	48
 9818 035f E0       		.byte	-32
 9819 0360 3F       		.byte	63
 9820 0361 C0       		.byte	-64
 9821 0362 1F       		.byte	31
 9822 0363 80       		.byte	-128
 9823 0364 00       		.byte	0
 9824 0365 00       		.byte	0
 9825 0366 00       		.byte	0
 9826 0367 00       		.byte	0
 9827 0368 00       		.byte	0
 9828 0369 00       		.byte	0
 9829 036a 00       		.byte	0
 9830 036b 00       		.byte	0
 9831 036c 00       		.byte	0
 9832 036d 00       		.byte	0
 9833 036e 00       		.byte	0
 9834 036f 00       		.byte	0
 9835 0370 00       		.byte	0
 9836 0371 00       		.byte	0
 9837 0372 03       		.byte	3
 9838 0373 E0       		.byte	-32
 9839 0374 0F       		.byte	15
 9840 0375 E0       		.byte	-32
 9841 0376 1E       		.byte	30
 9842 0377 00       		.byte	0
 9843 0378 18       		.byte	24
 9844 0379 00       		.byte	0
 9845 037a 38       		.byte	56
 9846 037b 00       		.byte	0
 9847 037c 37       		.byte	55
 9848 037d 80       		.byte	-128
 9849 037e 3F       		.byte	63
 9850 037f C0       		.byte	-64
ARM GAS  C:\Users\milek\AppData\Local\Temp\ccMSPWBt.s 			page 210


 9851 0380 38       		.byte	56
 9852 0381 E0       		.byte	-32
 9853 0382 30       		.byte	48
 9854 0383 60       		.byte	96
 9855 0384 30       		.byte	48
 9856 0385 60       		.byte	96
 9857 0386 18       		.byte	24
 9858 0387 E0       		.byte	-32
 9859 0388 1F       		.byte	31
 9860 0389 C0       		.byte	-64
 9861 038a 07       		.byte	7
 9862 038b 80       		.byte	-128
 9863 038c 00       		.byte	0
 9864 038d 00       		.byte	0
 9865 038e 00       		.byte	0
 9866 038f 00       		.byte	0
 9867 0390 00       		.byte	0
 9868 0391 00       		.byte	0
 9869 0392 00       		.byte	0
 9870 0393 00       		.byte	0
 9871 0394 00       		.byte	0
 9872 0395 00       		.byte	0
 9873 0396 00       		.byte	0
 9874 0397 00       		.byte	0
 9875 0398 00       		.byte	0
 9876 0399 00       		.byte	0
 9877 039a 3F       		.byte	63
 9878 039b E0       		.byte	-32
 9879 039c 3F       		.byte	63
 9880 039d E0       		.byte	-32
 9881 039e 30       		.byte	48
 9882 039f 60       		.byte	96
 9883 03a0 00       		.byte	0
 9884 03a1 60       		.byte	96
 9885 03a2 00       		.byte	0
 9886 03a3 C0       		.byte	-64
 9887 03a4 00       		.byte	0
 9888 03a5 C0       		.byte	-64
 9889 03a6 00       		.byte	0
 9890 03a7 C0       		.byte	-64
 9891 03a8 01       		.byte	1
 9892 03a9 80       		.byte	-128
 9893 03aa 01       		.byte	1
 9894 03ab 80       		.byte	-128
 9895 03ac 01       		.byte	1
 9896 03ad 80       		.byte	-128
 9897 03ae 03       		.byte	3
 9898 03af 00       		.byte	0
 9899 03b0 03       		.byte	3
 9900 03b1 00       		.byte	0
 9901 03b2 03       		.byte	3
 9902 03b3 00       		.byte	0
 9903 03b4 00       		.byte	0
 9904 03b5 00       		.byte	0
 9905 03b6 00       		.byte	0
 9906 03b7 00       		.byte	0
 9907 03b8 00       		.byte	0
ARM GAS  C:\Users\milek\AppData\Local\Temp\ccMSPWBt.s 			page 211


 9908 03b9 00       		.byte	0
 9909 03ba 00       		.byte	0
 9910 03bb 00       		.byte	0
 9911 03bc 00       		.byte	0
 9912 03bd 00       		.byte	0
 9913 03be 00       		.byte	0
 9914 03bf 00       		.byte	0
 9915 03c0 00       		.byte	0
 9916 03c1 00       		.byte	0
 9917 03c2 0F       		.byte	15
 9918 03c3 80       		.byte	-128
 9919 03c4 1F       		.byte	31
 9920 03c5 C0       		.byte	-64
 9921 03c6 38       		.byte	56
 9922 03c7 E0       		.byte	-32
 9923 03c8 30       		.byte	48
 9924 03c9 60       		.byte	96
 9925 03ca 38       		.byte	56
 9926 03cb E0       		.byte	-32
 9927 03cc 1F       		.byte	31
 9928 03cd C0       		.byte	-64
 9929 03ce 1F       		.byte	31
 9930 03cf C0       		.byte	-64
 9931 03d0 38       		.byte	56
 9932 03d1 E0       		.byte	-32
 9933 03d2 30       		.byte	48
 9934 03d3 60       		.byte	96
 9935 03d4 30       		.byte	48
 9936 03d5 60       		.byte	96
 9937 03d6 38       		.byte	56
 9938 03d7 E0       		.byte	-32
 9939 03d8 1F       		.byte	31
 9940 03d9 C0       		.byte	-64
 9941 03da 0F       		.byte	15
 9942 03db 80       		.byte	-128
 9943 03dc 00       		.byte	0
 9944 03dd 00       		.byte	0
 9945 03de 00       		.byte	0
 9946 03df 00       		.byte	0
 9947 03e0 00       		.byte	0
 9948 03e1 00       		.byte	0
 9949 03e2 00       		.byte	0
 9950 03e3 00       		.byte	0
 9951 03e4 00       		.byte	0
 9952 03e5 00       		.byte	0
 9953 03e6 00       		.byte	0
 9954 03e7 00       		.byte	0
 9955 03e8 00       		.byte	0
 9956 03e9 00       		.byte	0
 9957 03ea 0F       		.byte	15
 9958 03eb 00       		.byte	0
 9959 03ec 1F       		.byte	31
 9960 03ed C0       		.byte	-64
 9961 03ee 38       		.byte	56
 9962 03ef C0       		.byte	-64
 9963 03f0 30       		.byte	48
 9964 03f1 60       		.byte	96
ARM GAS  C:\Users\milek\AppData\Local\Temp\ccMSPWBt.s 			page 212


 9965 03f2 30       		.byte	48
 9966 03f3 60       		.byte	96
 9967 03f4 38       		.byte	56
 9968 03f5 E0       		.byte	-32
 9969 03f6 1F       		.byte	31
 9970 03f7 E0       		.byte	-32
 9971 03f8 0F       		.byte	15
 9972 03f9 60       		.byte	96
 9973 03fa 00       		.byte	0
 9974 03fb E0       		.byte	-32
 9975 03fc 00       		.byte	0
 9976 03fd C0       		.byte	-64
 9977 03fe 03       		.byte	3
 9978 03ff C0       		.byte	-64
 9979 0400 3F       		.byte	63
 9980 0401 80       		.byte	-128
 9981 0402 3E       		.byte	62
 9982 0403 00       		.byte	0
 9983 0404 00       		.byte	0
 9984 0405 00       		.byte	0
 9985 0406 00       		.byte	0
 9986 0407 00       		.byte	0
 9987 0408 00       		.byte	0
 9988 0409 00       		.byte	0
 9989 040a 00       		.byte	0
 9990 040b 00       		.byte	0
 9991 040c 00       		.byte	0
 9992 040d 00       		.byte	0
 9993 040e 00       		.byte	0
 9994 040f 00       		.byte	0
 9995 0410 00       		.byte	0
 9996 0411 00       		.byte	0
 9997 0412 00       		.byte	0
 9998 0413 00       		.byte	0
 9999 0414 00       		.byte	0
 10000 0415 00       		.byte	0
 10001 0416 00       		.byte	0
 10002 0417 00       		.byte	0
 10003 0418 00       		.byte	0
 10004 0419 00       		.byte	0
 10005 041a 03       		.byte	3
 10006 041b 80       		.byte	-128
 10007 041c 03       		.byte	3
 10008 041d 80       		.byte	-128
 10009 041e 03       		.byte	3
 10010 041f 80       		.byte	-128
 10011 0420 00       		.byte	0
 10012 0421 00       		.byte	0
 10013 0422 00       		.byte	0
 10014 0423 00       		.byte	0
 10015 0424 00       		.byte	0
 10016 0425 00       		.byte	0
 10017 0426 03       		.byte	3
 10018 0427 80       		.byte	-128
 10019 0428 03       		.byte	3
 10020 0429 80       		.byte	-128
 10021 042a 03       		.byte	3
ARM GAS  C:\Users\milek\AppData\Local\Temp\ccMSPWBt.s 			page 213


 10022 042b 80       		.byte	-128
 10023 042c 00       		.byte	0
 10024 042d 00       		.byte	0
 10025 042e 00       		.byte	0
 10026 042f 00       		.byte	0
 10027 0430 00       		.byte	0
 10028 0431 00       		.byte	0
 10029 0432 00       		.byte	0
 10030 0433 00       		.byte	0
 10031 0434 00       		.byte	0
 10032 0435 00       		.byte	0
 10033 0436 00       		.byte	0
 10034 0437 00       		.byte	0
 10035 0438 00       		.byte	0
 10036 0439 00       		.byte	0
 10037 043a 00       		.byte	0
 10038 043b 00       		.byte	0
 10039 043c 00       		.byte	0
 10040 043d 00       		.byte	0
 10041 043e 00       		.byte	0
 10042 043f 00       		.byte	0
 10043 0440 00       		.byte	0
 10044 0441 00       		.byte	0
 10045 0442 01       		.byte	1
 10046 0443 C0       		.byte	-64
 10047 0444 01       		.byte	1
 10048 0445 C0       		.byte	-64
 10049 0446 01       		.byte	1
 10050 0447 C0       		.byte	-64
 10051 0448 00       		.byte	0
 10052 0449 00       		.byte	0
 10053 044a 00       		.byte	0
 10054 044b 00       		.byte	0
 10055 044c 00       		.byte	0
 10056 044d 00       		.byte	0
 10057 044e 03       		.byte	3
 10058 044f 80       		.byte	-128
 10059 0450 03       		.byte	3
 10060 0451 00       		.byte	0
 10061 0452 06       		.byte	6
 10062 0453 00       		.byte	0
 10063 0454 06       		.byte	6
 10064 0455 00       		.byte	0
 10065 0456 04       		.byte	4
 10066 0457 00       		.byte	0
 10067 0458 00       		.byte	0
 10068 0459 00       		.byte	0
 10069 045a 00       		.byte	0
 10070 045b 00       		.byte	0
 10071 045c 00       		.byte	0
 10072 045d 00       		.byte	0
 10073 045e 00       		.byte	0
 10074 045f 00       		.byte	0
 10075 0460 00       		.byte	0
 10076 0461 00       		.byte	0
 10077 0462 00       		.byte	0
 10078 0463 00       		.byte	0
ARM GAS  C:\Users\milek\AppData\Local\Temp\ccMSPWBt.s 			page 214


 10079 0464 00       		.byte	0
 10080 0465 00       		.byte	0
 10081 0466 00       		.byte	0
 10082 0467 30       		.byte	48
 10083 0468 00       		.byte	0
 10084 0469 F0       		.byte	-16
 10085 046a 03       		.byte	3
 10086 046b C0       		.byte	-64
 10087 046c 07       		.byte	7
 10088 046d 00       		.byte	0
 10089 046e 1C       		.byte	28
 10090 046f 00       		.byte	0
 10091 0470 78       		.byte	120
 10092 0471 00       		.byte	0
 10093 0472 1C       		.byte	28
 10094 0473 00       		.byte	0
 10095 0474 07       		.byte	7
 10096 0475 00       		.byte	0
 10097 0476 03       		.byte	3
 10098 0477 C0       		.byte	-64
 10099 0478 00       		.byte	0
 10100 0479 F0       		.byte	-16
 10101 047a 00       		.byte	0
 10102 047b 30       		.byte	48
 10103 047c 00       		.byte	0
 10104 047d 00       		.byte	0
 10105 047e 00       		.byte	0
 10106 047f 00       		.byte	0
 10107 0480 00       		.byte	0
 10108 0481 00       		.byte	0
 10109 0482 00       		.byte	0
 10110 0483 00       		.byte	0
 10111 0484 00       		.byte	0
 10112 0485 00       		.byte	0
 10113 0486 00       		.byte	0
 10114 0487 00       		.byte	0
 10115 0488 00       		.byte	0
 10116 0489 00       		.byte	0
 10117 048a 00       		.byte	0
 10118 048b 00       		.byte	0
 10119 048c 00       		.byte	0
 10120 048d 00       		.byte	0
 10121 048e 00       		.byte	0
 10122 048f 00       		.byte	0
 10123 0490 00       		.byte	0
 10124 0491 00       		.byte	0
 10125 0492 7F       		.byte	127
 10126 0493 F0       		.byte	-16
 10127 0494 7F       		.byte	127
 10128 0495 F0       		.byte	-16
 10129 0496 00       		.byte	0
 10130 0497 00       		.byte	0
 10131 0498 00       		.byte	0
 10132 0499 00       		.byte	0
 10133 049a 7F       		.byte	127
 10134 049b F0       		.byte	-16
 10135 049c 7F       		.byte	127
ARM GAS  C:\Users\milek\AppData\Local\Temp\ccMSPWBt.s 			page 215


 10136 049d F0       		.byte	-16
 10137 049e 00       		.byte	0
 10138 049f 00       		.byte	0
 10139 04a0 00       		.byte	0
 10140 04a1 00       		.byte	0
 10141 04a2 00       		.byte	0
 10142 04a3 00       		.byte	0
 10143 04a4 00       		.byte	0
 10144 04a5 00       		.byte	0
 10145 04a6 00       		.byte	0
 10146 04a7 00       		.byte	0
 10147 04a8 00       		.byte	0
 10148 04a9 00       		.byte	0
 10149 04aa 00       		.byte	0
 10150 04ab 00       		.byte	0
 10151 04ac 00       		.byte	0
 10152 04ad 00       		.byte	0
 10153 04ae 00       		.byte	0
 10154 04af 00       		.byte	0
 10155 04b0 00       		.byte	0
 10156 04b1 00       		.byte	0
 10157 04b2 00       		.byte	0
 10158 04b3 00       		.byte	0
 10159 04b4 00       		.byte	0
 10160 04b5 00       		.byte	0
 10161 04b6 30       		.byte	48
 10162 04b7 00       		.byte	0
 10163 04b8 3C       		.byte	60
 10164 04b9 00       		.byte	0
 10165 04ba 0F       		.byte	15
 10166 04bb 00       		.byte	0
 10167 04bc 03       		.byte	3
 10168 04bd 80       		.byte	-128
 10169 04be 00       		.byte	0
 10170 04bf E0       		.byte	-32
 10171 04c0 00       		.byte	0
 10172 04c1 78       		.byte	120
 10173 04c2 00       		.byte	0
 10174 04c3 E0       		.byte	-32
 10175 04c4 03       		.byte	3
 10176 04c5 80       		.byte	-128
 10177 04c6 0F       		.byte	15
 10178 04c7 00       		.byte	0
 10179 04c8 3C       		.byte	60
 10180 04c9 00       		.byte	0
 10181 04ca 30       		.byte	48
 10182 04cb 00       		.byte	0
 10183 04cc 00       		.byte	0
 10184 04cd 00       		.byte	0
 10185 04ce 00       		.byte	0
 10186 04cf 00       		.byte	0
 10187 04d0 00       		.byte	0
 10188 04d1 00       		.byte	0
 10189 04d2 00       		.byte	0
 10190 04d3 00       		.byte	0
 10191 04d4 00       		.byte	0
 10192 04d5 00       		.byte	0
ARM GAS  C:\Users\milek\AppData\Local\Temp\ccMSPWBt.s 			page 216


 10193 04d6 00       		.byte	0
 10194 04d7 00       		.byte	0
 10195 04d8 00       		.byte	0
 10196 04d9 00       		.byte	0
 10197 04da 00       		.byte	0
 10198 04db 00       		.byte	0
 10199 04dc 0F       		.byte	15
 10200 04dd 80       		.byte	-128
 10201 04de 1F       		.byte	31
 10202 04df C0       		.byte	-64
 10203 04e0 18       		.byte	24
 10204 04e1 60       		.byte	96
 10205 04e2 18       		.byte	24
 10206 04e3 60       		.byte	96
 10207 04e4 00       		.byte	0
 10208 04e5 60       		.byte	96
 10209 04e6 01       		.byte	1
 10210 04e7 C0       		.byte	-64
 10211 04e8 03       		.byte	3
 10212 04e9 80       		.byte	-128
 10213 04ea 03       		.byte	3
 10214 04eb 00       		.byte	0
 10215 04ec 00       		.byte	0
 10216 04ed 00       		.byte	0
 10217 04ee 00       		.byte	0
 10218 04ef 00       		.byte	0
 10219 04f0 07       		.byte	7
 10220 04f1 00       		.byte	0
 10221 04f2 07       		.byte	7
 10222 04f3 00       		.byte	0
 10223 04f4 00       		.byte	0
 10224 04f5 00       		.byte	0
 10225 04f6 00       		.byte	0
 10226 04f7 00       		.byte	0
 10227 04f8 00       		.byte	0
 10228 04f9 00       		.byte	0
 10229 04fa 00       		.byte	0
 10230 04fb 00       		.byte	0
 10231 04fc 00       		.byte	0
 10232 04fd 00       		.byte	0
 10233 04fe 00       		.byte	0
 10234 04ff 00       		.byte	0
 10235 0500 00       		.byte	0
 10236 0501 00       		.byte	0
 10237 0502 03       		.byte	3
 10238 0503 80       		.byte	-128
 10239 0504 0C       		.byte	12
 10240 0505 80       		.byte	-128
 10241 0506 08       		.byte	8
 10242 0507 40       		.byte	64
 10243 0508 10       		.byte	16
 10244 0509 40       		.byte	64
 10245 050a 10       		.byte	16
 10246 050b 40       		.byte	64
 10247 050c 11       		.byte	17
 10248 050d C0       		.byte	-64
 10249 050e 12       		.byte	18
ARM GAS  C:\Users\milek\AppData\Local\Temp\ccMSPWBt.s 			page 217


 10250 050f 40       		.byte	64
 10251 0510 12       		.byte	18
 10252 0511 40       		.byte	64
 10253 0512 12       		.byte	18
 10254 0513 40       		.byte	64
 10255 0514 11       		.byte	17
 10256 0515 C0       		.byte	-64
 10257 0516 10       		.byte	16
 10258 0517 00       		.byte	0
 10259 0518 08       		.byte	8
 10260 0519 00       		.byte	0
 10261 051a 08       		.byte	8
 10262 051b 40       		.byte	64
 10263 051c 07       		.byte	7
 10264 051d 80       		.byte	-128
 10265 051e 00       		.byte	0
 10266 051f 00       		.byte	0
 10267 0520 00       		.byte	0
 10268 0521 00       		.byte	0
 10269 0522 00       		.byte	0
 10270 0523 00       		.byte	0
 10271 0524 00       		.byte	0
 10272 0525 00       		.byte	0
 10273 0526 00       		.byte	0
 10274 0527 00       		.byte	0
 10275 0528 00       		.byte	0
 10276 0529 00       		.byte	0
 10277 052a 00       		.byte	0
 10278 052b 00       		.byte	0
 10279 052c 1F       		.byte	31
 10280 052d 80       		.byte	-128
 10281 052e 1F       		.byte	31
 10282 052f 80       		.byte	-128
 10283 0530 03       		.byte	3
 10284 0531 80       		.byte	-128
 10285 0532 06       		.byte	6
 10286 0533 C0       		.byte	-64
 10287 0534 06       		.byte	6
 10288 0535 C0       		.byte	-64
 10289 0536 0C       		.byte	12
 10290 0537 C0       		.byte	-64
 10291 0538 0C       		.byte	12
 10292 0539 60       		.byte	96
 10293 053a 1F       		.byte	31
 10294 053b E0       		.byte	-32
 10295 053c 1F       		.byte	31
 10296 053d E0       		.byte	-32
 10297 053e 30       		.byte	48
 10298 053f 30       		.byte	48
 10299 0540 78       		.byte	120
 10300 0541 78       		.byte	120
 10301 0542 78       		.byte	120
 10302 0543 78       		.byte	120
 10303 0544 00       		.byte	0
 10304 0545 00       		.byte	0
 10305 0546 00       		.byte	0
 10306 0547 00       		.byte	0
ARM GAS  C:\Users\milek\AppData\Local\Temp\ccMSPWBt.s 			page 218


 10307 0548 00       		.byte	0
 10308 0549 00       		.byte	0
 10309 054a 00       		.byte	0
 10310 054b 00       		.byte	0
 10311 054c 00       		.byte	0
 10312 054d 00       		.byte	0
 10313 054e 00       		.byte	0
 10314 054f 00       		.byte	0
 10315 0550 00       		.byte	0
 10316 0551 00       		.byte	0
 10317 0552 00       		.byte	0
 10318 0553 00       		.byte	0
 10319 0554 3F       		.byte	63
 10320 0555 80       		.byte	-128
 10321 0556 3F       		.byte	63
 10322 0557 C0       		.byte	-64
 10323 0558 18       		.byte	24
 10324 0559 60       		.byte	96
 10325 055a 18       		.byte	24
 10326 055b 60       		.byte	96
 10327 055c 18       		.byte	24
 10328 055d E0       		.byte	-32
 10329 055e 1F       		.byte	31
 10330 055f C0       		.byte	-64
 10331 0560 1F       		.byte	31
 10332 0561 E0       		.byte	-32
 10333 0562 18       		.byte	24
 10334 0563 70       		.byte	112
 10335 0564 18       		.byte	24
 10336 0565 30       		.byte	48
 10337 0566 18       		.byte	24
 10338 0567 30       		.byte	48
 10339 0568 3F       		.byte	63
 10340 0569 F0       		.byte	-16
 10341 056a 3F       		.byte	63
 10342 056b E0       		.byte	-32
 10343 056c 00       		.byte	0
 10344 056d 00       		.byte	0
 10345 056e 00       		.byte	0
 10346 056f 00       		.byte	0
 10347 0570 00       		.byte	0
 10348 0571 00       		.byte	0
 10349 0572 00       		.byte	0
 10350 0573 00       		.byte	0
 10351 0574 00       		.byte	0
 10352 0575 00       		.byte	0
 10353 0576 00       		.byte	0
 10354 0577 00       		.byte	0
 10355 0578 00       		.byte	0
 10356 0579 00       		.byte	0
 10357 057a 00       		.byte	0
 10358 057b 00       		.byte	0
 10359 057c 07       		.byte	7
 10360 057d B0       		.byte	-80
 10361 057e 0F       		.byte	15
 10362 057f F0       		.byte	-16
 10363 0580 1C       		.byte	28
ARM GAS  C:\Users\milek\AppData\Local\Temp\ccMSPWBt.s 			page 219


 10364 0581 70       		.byte	112
 10365 0582 38       		.byte	56
 10366 0583 30       		.byte	48
 10367 0584 30       		.byte	48
 10368 0585 00       		.byte	0
 10369 0586 30       		.byte	48
 10370 0587 00       		.byte	0
 10371 0588 30       		.byte	48
 10372 0589 00       		.byte	0
 10373 058a 30       		.byte	48
 10374 058b 00       		.byte	0
 10375 058c 38       		.byte	56
 10376 058d 30       		.byte	48
 10377 058e 1C       		.byte	28
 10378 058f 70       		.byte	112
 10379 0590 0F       		.byte	15
 10380 0591 E0       		.byte	-32
 10381 0592 07       		.byte	7
 10382 0593 C0       		.byte	-64
 10383 0594 00       		.byte	0
 10384 0595 00       		.byte	0
 10385 0596 00       		.byte	0
 10386 0597 00       		.byte	0
 10387 0598 00       		.byte	0
 10388 0599 00       		.byte	0
 10389 059a 00       		.byte	0
 10390 059b 00       		.byte	0
 10391 059c 00       		.byte	0
 10392 059d 00       		.byte	0
 10393 059e 00       		.byte	0
 10394 059f 00       		.byte	0
 10395 05a0 00       		.byte	0
 10396 05a1 00       		.byte	0
 10397 05a2 00       		.byte	0
 10398 05a3 00       		.byte	0
 10399 05a4 7F       		.byte	127
 10400 05a5 80       		.byte	-128
 10401 05a6 7F       		.byte	127
 10402 05a7 C0       		.byte	-64
 10403 05a8 30       		.byte	48
 10404 05a9 E0       		.byte	-32
 10405 05aa 30       		.byte	48
 10406 05ab 70       		.byte	112
 10407 05ac 30       		.byte	48
 10408 05ad 30       		.byte	48
 10409 05ae 30       		.byte	48
 10410 05af 30       		.byte	48
 10411 05b0 30       		.byte	48
 10412 05b1 30       		.byte	48
 10413 05b2 30       		.byte	48
 10414 05b3 30       		.byte	48
 10415 05b4 30       		.byte	48
 10416 05b5 70       		.byte	112
 10417 05b6 30       		.byte	48
 10418 05b7 E0       		.byte	-32
 10419 05b8 7F       		.byte	127
 10420 05b9 C0       		.byte	-64
ARM GAS  C:\Users\milek\AppData\Local\Temp\ccMSPWBt.s 			page 220


 10421 05ba 7F       		.byte	127
 10422 05bb 80       		.byte	-128
 10423 05bc 00       		.byte	0
 10424 05bd 00       		.byte	0
 10425 05be 00       		.byte	0
 10426 05bf 00       		.byte	0
 10427 05c0 00       		.byte	0
 10428 05c1 00       		.byte	0
 10429 05c2 00       		.byte	0
 10430 05c3 00       		.byte	0
 10431 05c4 00       		.byte	0
 10432 05c5 00       		.byte	0
 10433 05c6 00       		.byte	0
 10434 05c7 00       		.byte	0
 10435 05c8 00       		.byte	0
 10436 05c9 00       		.byte	0
 10437 05ca 00       		.byte	0
 10438 05cb 00       		.byte	0
 10439 05cc 3F       		.byte	63
 10440 05cd F0       		.byte	-16
 10441 05ce 3F       		.byte	63
 10442 05cf F0       		.byte	-16
 10443 05d0 18       		.byte	24
 10444 05d1 30       		.byte	48
 10445 05d2 18       		.byte	24
 10446 05d3 30       		.byte	48
 10447 05d4 19       		.byte	25
 10448 05d5 80       		.byte	-128
 10449 05d6 1F       		.byte	31
 10450 05d7 80       		.byte	-128
 10451 05d8 1F       		.byte	31
 10452 05d9 80       		.byte	-128
 10453 05da 19       		.byte	25
 10454 05db 80       		.byte	-128
 10455 05dc 18       		.byte	24
 10456 05dd 30       		.byte	48
 10457 05de 18       		.byte	24
 10458 05df 30       		.byte	48
 10459 05e0 3F       		.byte	63
 10460 05e1 F0       		.byte	-16
 10461 05e2 3F       		.byte	63
 10462 05e3 F0       		.byte	-16
 10463 05e4 00       		.byte	0
 10464 05e5 00       		.byte	0
 10465 05e6 00       		.byte	0
 10466 05e7 00       		.byte	0
 10467 05e8 00       		.byte	0
 10468 05e9 00       		.byte	0
 10469 05ea 00       		.byte	0
 10470 05eb 00       		.byte	0
 10471 05ec 00       		.byte	0
 10472 05ed 00       		.byte	0
 10473 05ee 00       		.byte	0
 10474 05ef 00       		.byte	0
 10475 05f0 00       		.byte	0
 10476 05f1 00       		.byte	0
 10477 05f2 00       		.byte	0
ARM GAS  C:\Users\milek\AppData\Local\Temp\ccMSPWBt.s 			page 221


 10478 05f3 00       		.byte	0
 10479 05f4 3F       		.byte	63
 10480 05f5 F0       		.byte	-16
 10481 05f6 3F       		.byte	63
 10482 05f7 F0       		.byte	-16
 10483 05f8 18       		.byte	24
 10484 05f9 30       		.byte	48
 10485 05fa 18       		.byte	24
 10486 05fb 30       		.byte	48
 10487 05fc 19       		.byte	25
 10488 05fd 80       		.byte	-128
 10489 05fe 1F       		.byte	31
 10490 05ff 80       		.byte	-128
 10491 0600 1F       		.byte	31
 10492 0601 80       		.byte	-128
 10493 0602 19       		.byte	25
 10494 0603 80       		.byte	-128
 10495 0604 18       		.byte	24
 10496 0605 00       		.byte	0
 10497 0606 18       		.byte	24
 10498 0607 00       		.byte	0
 10499 0608 3F       		.byte	63
 10500 0609 00       		.byte	0
 10501 060a 3F       		.byte	63
 10502 060b 00       		.byte	0
 10503 060c 00       		.byte	0
 10504 060d 00       		.byte	0
 10505 060e 00       		.byte	0
 10506 060f 00       		.byte	0
 10507 0610 00       		.byte	0
 10508 0611 00       		.byte	0
 10509 0612 00       		.byte	0
 10510 0613 00       		.byte	0
 10511 0614 00       		.byte	0
 10512 0615 00       		.byte	0
 10513 0616 00       		.byte	0
 10514 0617 00       		.byte	0
 10515 0618 00       		.byte	0
 10516 0619 00       		.byte	0
 10517 061a 00       		.byte	0
 10518 061b 00       		.byte	0
 10519 061c 07       		.byte	7
 10520 061d B0       		.byte	-80
 10521 061e 1F       		.byte	31
 10522 061f F0       		.byte	-16
 10523 0620 18       		.byte	24
 10524 0621 70       		.byte	112
 10525 0622 30       		.byte	48
 10526 0623 30       		.byte	48
 10527 0624 30       		.byte	48
 10528 0625 00       		.byte	0
 10529 0626 30       		.byte	48
 10530 0627 00       		.byte	0
 10531 0628 31       		.byte	49
 10532 0629 F8       		.byte	-8
 10533 062a 31       		.byte	49
 10534 062b F8       		.byte	-8
ARM GAS  C:\Users\milek\AppData\Local\Temp\ccMSPWBt.s 			page 222


 10535 062c 30       		.byte	48
 10536 062d 30       		.byte	48
 10537 062e 18       		.byte	24
 10538 062f 30       		.byte	48
 10539 0630 1F       		.byte	31
 10540 0631 F0       		.byte	-16
 10541 0632 07       		.byte	7
 10542 0633 C0       		.byte	-64
 10543 0634 00       		.byte	0
 10544 0635 00       		.byte	0
 10545 0636 00       		.byte	0
 10546 0637 00       		.byte	0
 10547 0638 00       		.byte	0
 10548 0639 00       		.byte	0
 10549 063a 00       		.byte	0
 10550 063b 00       		.byte	0
 10551 063c 00       		.byte	0
 10552 063d 00       		.byte	0
 10553 063e 00       		.byte	0
 10554 063f 00       		.byte	0
 10555 0640 00       		.byte	0
 10556 0641 00       		.byte	0
 10557 0642 00       		.byte	0
 10558 0643 00       		.byte	0
 10559 0644 3C       		.byte	60
 10560 0645 F0       		.byte	-16
 10561 0646 3C       		.byte	60
 10562 0647 F0       		.byte	-16
 10563 0648 18       		.byte	24
 10564 0649 60       		.byte	96
 10565 064a 18       		.byte	24
 10566 064b 60       		.byte	96
 10567 064c 18       		.byte	24
 10568 064d 60       		.byte	96
 10569 064e 1F       		.byte	31
 10570 064f E0       		.byte	-32
 10571 0650 1F       		.byte	31
 10572 0651 E0       		.byte	-32
 10573 0652 18       		.byte	24
 10574 0653 60       		.byte	96
 10575 0654 18       		.byte	24
 10576 0655 60       		.byte	96
 10577 0656 18       		.byte	24
 10578 0657 60       		.byte	96
 10579 0658 3C       		.byte	60
 10580 0659 F0       		.byte	-16
 10581 065a 3C       		.byte	60
 10582 065b F0       		.byte	-16
 10583 065c 00       		.byte	0
 10584 065d 00       		.byte	0
 10585 065e 00       		.byte	0
 10586 065f 00       		.byte	0
 10587 0660 00       		.byte	0
 10588 0661 00       		.byte	0
 10589 0662 00       		.byte	0
 10590 0663 00       		.byte	0
 10591 0664 00       		.byte	0
ARM GAS  C:\Users\milek\AppData\Local\Temp\ccMSPWBt.s 			page 223


 10592 0665 00       		.byte	0
 10593 0666 00       		.byte	0
 10594 0667 00       		.byte	0
 10595 0668 00       		.byte	0
 10596 0669 00       		.byte	0
 10597 066a 00       		.byte	0
 10598 066b 00       		.byte	0
 10599 066c 1F       		.byte	31
 10600 066d E0       		.byte	-32
 10601 066e 1F       		.byte	31
 10602 066f E0       		.byte	-32
 10603 0670 03       		.byte	3
 10604 0671 00       		.byte	0
 10605 0672 03       		.byte	3
 10606 0673 00       		.byte	0
 10607 0674 03       		.byte	3
 10608 0675 00       		.byte	0
 10609 0676 03       		.byte	3
 10610 0677 00       		.byte	0
 10611 0678 03       		.byte	3
 10612 0679 00       		.byte	0
 10613 067a 03       		.byte	3
 10614 067b 00       		.byte	0
 10615 067c 03       		.byte	3
 10616 067d 00       		.byte	0
 10617 067e 03       		.byte	3
 10618 067f 00       		.byte	0
 10619 0680 1F       		.byte	31
 10620 0681 E0       		.byte	-32
 10621 0682 1F       		.byte	31
 10622 0683 E0       		.byte	-32
 10623 0684 00       		.byte	0
 10624 0685 00       		.byte	0
 10625 0686 00       		.byte	0
 10626 0687 00       		.byte	0
 10627 0688 00       		.byte	0
 10628 0689 00       		.byte	0
 10629 068a 00       		.byte	0
 10630 068b 00       		.byte	0
 10631 068c 00       		.byte	0
 10632 068d 00       		.byte	0
 10633 068e 00       		.byte	0
 10634 068f 00       		.byte	0
 10635 0690 00       		.byte	0
 10636 0691 00       		.byte	0
 10637 0692 00       		.byte	0
 10638 0693 00       		.byte	0
 10639 0694 03       		.byte	3
 10640 0695 F8       		.byte	-8
 10641 0696 03       		.byte	3
 10642 0697 F8       		.byte	-8
 10643 0698 00       		.byte	0
 10644 0699 60       		.byte	96
 10645 069a 00       		.byte	0
 10646 069b 60       		.byte	96
 10647 069c 00       		.byte	0
 10648 069d 60       		.byte	96
ARM GAS  C:\Users\milek\AppData\Local\Temp\ccMSPWBt.s 			page 224


 10649 069e 00       		.byte	0
 10650 069f 60       		.byte	96
 10651 06a0 30       		.byte	48
 10652 06a1 60       		.byte	96
 10653 06a2 30       		.byte	48
 10654 06a3 60       		.byte	96
 10655 06a4 30       		.byte	48
 10656 06a5 60       		.byte	96
 10657 06a6 30       		.byte	48
 10658 06a7 E0       		.byte	-32
 10659 06a8 3F       		.byte	63
 10660 06a9 C0       		.byte	-64
 10661 06aa 0F       		.byte	15
 10662 06ab 80       		.byte	-128
 10663 06ac 00       		.byte	0
 10664 06ad 00       		.byte	0
 10665 06ae 00       		.byte	0
 10666 06af 00       		.byte	0
 10667 06b0 00       		.byte	0
 10668 06b1 00       		.byte	0
 10669 06b2 00       		.byte	0
 10670 06b3 00       		.byte	0
 10671 06b4 00       		.byte	0
 10672 06b5 00       		.byte	0
 10673 06b6 00       		.byte	0
 10674 06b7 00       		.byte	0
 10675 06b8 00       		.byte	0
 10676 06b9 00       		.byte	0
 10677 06ba 00       		.byte	0
 10678 06bb 00       		.byte	0
 10679 06bc 3E       		.byte	62
 10680 06bd F8       		.byte	-8
 10681 06be 3E       		.byte	62
 10682 06bf F8       		.byte	-8
 10683 06c0 18       		.byte	24
 10684 06c1 E0       		.byte	-32
 10685 06c2 19       		.byte	25
 10686 06c3 80       		.byte	-128
 10687 06c4 1B       		.byte	27
 10688 06c5 00       		.byte	0
 10689 06c6 1F       		.byte	31
 10690 06c7 00       		.byte	0
 10691 06c8 1D       		.byte	29
 10692 06c9 80       		.byte	-128
 10693 06ca 18       		.byte	24
 10694 06cb C0       		.byte	-64
 10695 06cc 18       		.byte	24
 10696 06cd C0       		.byte	-64
 10697 06ce 18       		.byte	24
 10698 06cf 60       		.byte	96
 10699 06d0 3E       		.byte	62
 10700 06d1 78       		.byte	120
 10701 06d2 3E       		.byte	62
 10702 06d3 38       		.byte	56
 10703 06d4 00       		.byte	0
 10704 06d5 00       		.byte	0
 10705 06d6 00       		.byte	0
ARM GAS  C:\Users\milek\AppData\Local\Temp\ccMSPWBt.s 			page 225


 10706 06d7 00       		.byte	0
 10707 06d8 00       		.byte	0
 10708 06d9 00       		.byte	0
 10709 06da 00       		.byte	0
 10710 06db 00       		.byte	0
 10711 06dc 00       		.byte	0
 10712 06dd 00       		.byte	0
 10713 06de 00       		.byte	0
 10714 06df 00       		.byte	0
 10715 06e0 00       		.byte	0
 10716 06e1 00       		.byte	0
 10717 06e2 00       		.byte	0
 10718 06e3 00       		.byte	0
 10719 06e4 3F       		.byte	63
 10720 06e5 00       		.byte	0
 10721 06e6 3F       		.byte	63
 10722 06e7 00       		.byte	0
 10723 06e8 0C       		.byte	12
 10724 06e9 00       		.byte	0
 10725 06ea 0C       		.byte	12
 10726 06eb 00       		.byte	0
 10727 06ec 0C       		.byte	12
 10728 06ed 00       		.byte	0
 10729 06ee 0C       		.byte	12
 10730 06ef 00       		.byte	0
 10731 06f0 0C       		.byte	12
 10732 06f1 00       		.byte	0
 10733 06f2 0C       		.byte	12
 10734 06f3 30       		.byte	48
 10735 06f4 0C       		.byte	12
 10736 06f5 30       		.byte	48
 10737 06f6 0C       		.byte	12
 10738 06f7 30       		.byte	48
 10739 06f8 3F       		.byte	63
 10740 06f9 F0       		.byte	-16
 10741 06fa 3F       		.byte	63
 10742 06fb F0       		.byte	-16
 10743 06fc 00       		.byte	0
 10744 06fd 00       		.byte	0
 10745 06fe 00       		.byte	0
 10746 06ff 00       		.byte	0
 10747 0700 00       		.byte	0
 10748 0701 00       		.byte	0
 10749 0702 00       		.byte	0
 10750 0703 00       		.byte	0
 10751 0704 00       		.byte	0
 10752 0705 00       		.byte	0
 10753 0706 00       		.byte	0
 10754 0707 00       		.byte	0
 10755 0708 00       		.byte	0
 10756 0709 00       		.byte	0
 10757 070a 00       		.byte	0
 10758 070b 00       		.byte	0
 10759 070c 78       		.byte	120
 10760 070d 78       		.byte	120
 10761 070e 78       		.byte	120
 10762 070f 78       		.byte	120
ARM GAS  C:\Users\milek\AppData\Local\Temp\ccMSPWBt.s 			page 226


 10763 0710 38       		.byte	56
 10764 0711 70       		.byte	112
 10765 0712 3C       		.byte	60
 10766 0713 F0       		.byte	-16
 10767 0714 34       		.byte	52
 10768 0715 B0       		.byte	-80
 10769 0716 37       		.byte	55
 10770 0717 B0       		.byte	-80
 10771 0718 37       		.byte	55
 10772 0719 B0       		.byte	-80
 10773 071a 33       		.byte	51
 10774 071b 30       		.byte	48
 10775 071c 33       		.byte	51
 10776 071d 30       		.byte	48
 10777 071e 30       		.byte	48
 10778 071f 30       		.byte	48
 10779 0720 7C       		.byte	124
 10780 0721 F8       		.byte	-8
 10781 0722 7C       		.byte	124
 10782 0723 F8       		.byte	-8
 10783 0724 00       		.byte	0
 10784 0725 00       		.byte	0
 10785 0726 00       		.byte	0
 10786 0727 00       		.byte	0
 10787 0728 00       		.byte	0
 10788 0729 00       		.byte	0
 10789 072a 00       		.byte	0
 10790 072b 00       		.byte	0
 10791 072c 00       		.byte	0
 10792 072d 00       		.byte	0
 10793 072e 00       		.byte	0
 10794 072f 00       		.byte	0
 10795 0730 00       		.byte	0
 10796 0731 00       		.byte	0
 10797 0732 00       		.byte	0
 10798 0733 00       		.byte	0
 10799 0734 39       		.byte	57
 10800 0735 F0       		.byte	-16
 10801 0736 3D       		.byte	61
 10802 0737 F0       		.byte	-16
 10803 0738 1C       		.byte	28
 10804 0739 60       		.byte	96
 10805 073a 1E       		.byte	30
 10806 073b 60       		.byte	96
 10807 073c 1E       		.byte	30
 10808 073d 60       		.byte	96
 10809 073e 1B       		.byte	27
 10810 073f 60       		.byte	96
 10811 0740 1B       		.byte	27
 10812 0741 60       		.byte	96
 10813 0742 19       		.byte	25
 10814 0743 E0       		.byte	-32
 10815 0744 19       		.byte	25
 10816 0745 E0       		.byte	-32
 10817 0746 18       		.byte	24
 10818 0747 E0       		.byte	-32
 10819 0748 3E       		.byte	62
ARM GAS  C:\Users\milek\AppData\Local\Temp\ccMSPWBt.s 			page 227


 10820 0749 E0       		.byte	-32
 10821 074a 3E       		.byte	62
 10822 074b 60       		.byte	96
 10823 074c 00       		.byte	0
 10824 074d 00       		.byte	0
 10825 074e 00       		.byte	0
 10826 074f 00       		.byte	0
 10827 0750 00       		.byte	0
 10828 0751 00       		.byte	0
 10829 0752 00       		.byte	0
 10830 0753 00       		.byte	0
 10831 0754 00       		.byte	0
 10832 0755 00       		.byte	0
 10833 0756 00       		.byte	0
 10834 0757 00       		.byte	0
 10835 0758 00       		.byte	0
 10836 0759 00       		.byte	0
 10837 075a 00       		.byte	0
 10838 075b 00       		.byte	0
 10839 075c 07       		.byte	7
 10840 075d 80       		.byte	-128
 10841 075e 0F       		.byte	15
 10842 075f C0       		.byte	-64
 10843 0760 1C       		.byte	28
 10844 0761 E0       		.byte	-32
 10845 0762 38       		.byte	56
 10846 0763 70       		.byte	112
 10847 0764 30       		.byte	48
 10848 0765 30       		.byte	48
 10849 0766 30       		.byte	48
 10850 0767 30       		.byte	48
 10851 0768 30       		.byte	48
 10852 0769 30       		.byte	48
 10853 076a 30       		.byte	48
 10854 076b 30       		.byte	48
 10855 076c 38       		.byte	56
 10856 076d 70       		.byte	112
 10857 076e 1C       		.byte	28
 10858 076f E0       		.byte	-32
 10859 0770 0F       		.byte	15
 10860 0771 C0       		.byte	-64
 10861 0772 07       		.byte	7
 10862 0773 80       		.byte	-128
 10863 0774 00       		.byte	0
 10864 0775 00       		.byte	0
 10865 0776 00       		.byte	0
 10866 0777 00       		.byte	0
 10867 0778 00       		.byte	0
 10868 0779 00       		.byte	0
 10869 077a 00       		.byte	0
 10870 077b 00       		.byte	0
 10871 077c 00       		.byte	0
 10872 077d 00       		.byte	0
 10873 077e 00       		.byte	0
 10874 077f 00       		.byte	0
 10875 0780 00       		.byte	0
 10876 0781 00       		.byte	0
ARM GAS  C:\Users\milek\AppData\Local\Temp\ccMSPWBt.s 			page 228


 10877 0782 00       		.byte	0
 10878 0783 00       		.byte	0
 10879 0784 3F       		.byte	63
 10880 0785 C0       		.byte	-64
 10881 0786 3F       		.byte	63
 10882 0787 E0       		.byte	-32
 10883 0788 18       		.byte	24
 10884 0789 70       		.byte	112
 10885 078a 18       		.byte	24
 10886 078b 30       		.byte	48
 10887 078c 18       		.byte	24
 10888 078d 30       		.byte	48
 10889 078e 18       		.byte	24
 10890 078f 70       		.byte	112
 10891 0790 1F       		.byte	31
 10892 0791 E0       		.byte	-32
 10893 0792 1F       		.byte	31
 10894 0793 C0       		.byte	-64
 10895 0794 18       		.byte	24
 10896 0795 00       		.byte	0
 10897 0796 18       		.byte	24
 10898 0797 00       		.byte	0
 10899 0798 3F       		.byte	63
 10900 0799 00       		.byte	0
 10901 079a 3F       		.byte	63
 10902 079b 00       		.byte	0
 10903 079c 00       		.byte	0
 10904 079d 00       		.byte	0
 10905 079e 00       		.byte	0
 10906 079f 00       		.byte	0
 10907 07a0 00       		.byte	0
 10908 07a1 00       		.byte	0
 10909 07a2 00       		.byte	0
 10910 07a3 00       		.byte	0
 10911 07a4 00       		.byte	0
 10912 07a5 00       		.byte	0
 10913 07a6 00       		.byte	0
 10914 07a7 00       		.byte	0
 10915 07a8 00       		.byte	0
 10916 07a9 00       		.byte	0
 10917 07aa 00       		.byte	0
 10918 07ab 00       		.byte	0
 10919 07ac 07       		.byte	7
 10920 07ad 80       		.byte	-128
 10921 07ae 0F       		.byte	15
 10922 07af C0       		.byte	-64
 10923 07b0 1C       		.byte	28
 10924 07b1 E0       		.byte	-32
 10925 07b2 38       		.byte	56
 10926 07b3 70       		.byte	112
 10927 07b4 30       		.byte	48
 10928 07b5 30       		.byte	48
 10929 07b6 30       		.byte	48
 10930 07b7 30       		.byte	48
 10931 07b8 30       		.byte	48
 10932 07b9 30       		.byte	48
 10933 07ba 30       		.byte	48
ARM GAS  C:\Users\milek\AppData\Local\Temp\ccMSPWBt.s 			page 229


 10934 07bb 30       		.byte	48
 10935 07bc 38       		.byte	56
 10936 07bd 70       		.byte	112
 10937 07be 1C       		.byte	28
 10938 07bf E0       		.byte	-32
 10939 07c0 0F       		.byte	15
 10940 07c1 C0       		.byte	-64
 10941 07c2 07       		.byte	7
 10942 07c3 80       		.byte	-128
 10943 07c4 07       		.byte	7
 10944 07c5 B0       		.byte	-80
 10945 07c6 0F       		.byte	15
 10946 07c7 F0       		.byte	-16
 10947 07c8 0C       		.byte	12
 10948 07c9 E0       		.byte	-32
 10949 07ca 00       		.byte	0
 10950 07cb 00       		.byte	0
 10951 07cc 00       		.byte	0
 10952 07cd 00       		.byte	0
 10953 07ce 00       		.byte	0
 10954 07cf 00       		.byte	0
 10955 07d0 00       		.byte	0
 10956 07d1 00       		.byte	0
 10957 07d2 00       		.byte	0
 10958 07d3 00       		.byte	0
 10959 07d4 3F       		.byte	63
 10960 07d5 C0       		.byte	-64
 10961 07d6 3F       		.byte	63
 10962 07d7 E0       		.byte	-32
 10963 07d8 18       		.byte	24
 10964 07d9 70       		.byte	112
 10965 07da 18       		.byte	24
 10966 07db 30       		.byte	48
 10967 07dc 18       		.byte	24
 10968 07dd 70       		.byte	112
 10969 07de 1F       		.byte	31
 10970 07df E0       		.byte	-32
 10971 07e0 1F       		.byte	31
 10972 07e1 C0       		.byte	-64
 10973 07e2 18       		.byte	24
 10974 07e3 E0       		.byte	-32
 10975 07e4 18       		.byte	24
 10976 07e5 60       		.byte	96
 10977 07e6 18       		.byte	24
 10978 07e7 70       		.byte	112
 10979 07e8 3E       		.byte	62
 10980 07e9 38       		.byte	56
 10981 07ea 3E       		.byte	62
 10982 07eb 18       		.byte	24
 10983 07ec 00       		.byte	0
 10984 07ed 00       		.byte	0
 10985 07ee 00       		.byte	0
 10986 07ef 00       		.byte	0
 10987 07f0 00       		.byte	0
 10988 07f1 00       		.byte	0
 10989 07f2 00       		.byte	0
 10990 07f3 00       		.byte	0
ARM GAS  C:\Users\milek\AppData\Local\Temp\ccMSPWBt.s 			page 230


 10991 07f4 00       		.byte	0
 10992 07f5 00       		.byte	0
 10993 07f6 00       		.byte	0
 10994 07f7 00       		.byte	0
 10995 07f8 00       		.byte	0
 10996 07f9 00       		.byte	0
 10997 07fa 00       		.byte	0
 10998 07fb 00       		.byte	0
 10999 07fc 0F       		.byte	15
 11000 07fd B0       		.byte	-80
 11001 07fe 1F       		.byte	31
 11002 07ff F0       		.byte	-16
 11003 0800 38       		.byte	56
 11004 0801 70       		.byte	112
 11005 0802 30       		.byte	48
 11006 0803 30       		.byte	48
 11007 0804 38       		.byte	56
 11008 0805 00       		.byte	0
 11009 0806 1F       		.byte	31
 11010 0807 80       		.byte	-128
 11011 0808 07       		.byte	7
 11012 0809 E0       		.byte	-32
 11013 080a 00       		.byte	0
 11014 080b 70       		.byte	112
 11015 080c 30       		.byte	48
 11016 080d 30       		.byte	48
 11017 080e 38       		.byte	56
 11018 080f 70       		.byte	112
 11019 0810 3F       		.byte	63
 11020 0811 E0       		.byte	-32
 11021 0812 37       		.byte	55
 11022 0813 C0       		.byte	-64
 11023 0814 00       		.byte	0
 11024 0815 00       		.byte	0
 11025 0816 00       		.byte	0
 11026 0817 00       		.byte	0
 11027 0818 00       		.byte	0
 11028 0819 00       		.byte	0
 11029 081a 00       		.byte	0
 11030 081b 00       		.byte	0
 11031 081c 00       		.byte	0
 11032 081d 00       		.byte	0
 11033 081e 00       		.byte	0
 11034 081f 00       		.byte	0
 11035 0820 00       		.byte	0
 11036 0821 00       		.byte	0
 11037 0822 00       		.byte	0
 11038 0823 00       		.byte	0
 11039 0824 3F       		.byte	63
 11040 0825 F0       		.byte	-16
 11041 0826 3F       		.byte	63
 11042 0827 F0       		.byte	-16
 11043 0828 33       		.byte	51
 11044 0829 30       		.byte	48
 11045 082a 33       		.byte	51
 11046 082b 30       		.byte	48
 11047 082c 33       		.byte	51
ARM GAS  C:\Users\milek\AppData\Local\Temp\ccMSPWBt.s 			page 231


 11048 082d 30       		.byte	48
 11049 082e 03       		.byte	3
 11050 082f 00       		.byte	0
 11051 0830 03       		.byte	3
 11052 0831 00       		.byte	0
 11053 0832 03       		.byte	3
 11054 0833 00       		.byte	0
 11055 0834 03       		.byte	3
 11056 0835 00       		.byte	0
 11057 0836 03       		.byte	3
 11058 0837 00       		.byte	0
 11059 0838 0F       		.byte	15
 11060 0839 C0       		.byte	-64
 11061 083a 0F       		.byte	15
 11062 083b C0       		.byte	-64
 11063 083c 00       		.byte	0
 11064 083d 00       		.byte	0
 11065 083e 00       		.byte	0
 11066 083f 00       		.byte	0
 11067 0840 00       		.byte	0
 11068 0841 00       		.byte	0
 11069 0842 00       		.byte	0
 11070 0843 00       		.byte	0
 11071 0844 00       		.byte	0
 11072 0845 00       		.byte	0
 11073 0846 00       		.byte	0
 11074 0847 00       		.byte	0
 11075 0848 00       		.byte	0
 11076 0849 00       		.byte	0
 11077 084a 00       		.byte	0
 11078 084b 00       		.byte	0
 11079 084c 3C       		.byte	60
 11080 084d F0       		.byte	-16
 11081 084e 3C       		.byte	60
 11082 084f F0       		.byte	-16
 11083 0850 18       		.byte	24
 11084 0851 60       		.byte	96
 11085 0852 18       		.byte	24
 11086 0853 60       		.byte	96
 11087 0854 18       		.byte	24
 11088 0855 60       		.byte	96
 11089 0856 18       		.byte	24
 11090 0857 60       		.byte	96
 11091 0858 18       		.byte	24
 11092 0859 60       		.byte	96
 11093 085a 18       		.byte	24
 11094 085b 60       		.byte	96
 11095 085c 18       		.byte	24
 11096 085d 60       		.byte	96
 11097 085e 1C       		.byte	28
 11098 085f E0       		.byte	-32
 11099 0860 0F       		.byte	15
 11100 0861 C0       		.byte	-64
 11101 0862 07       		.byte	7
 11102 0863 80       		.byte	-128
 11103 0864 00       		.byte	0
 11104 0865 00       		.byte	0
ARM GAS  C:\Users\milek\AppData\Local\Temp\ccMSPWBt.s 			page 232


 11105 0866 00       		.byte	0
 11106 0867 00       		.byte	0
 11107 0868 00       		.byte	0
 11108 0869 00       		.byte	0
 11109 086a 00       		.byte	0
 11110 086b 00       		.byte	0
 11111 086c 00       		.byte	0
 11112 086d 00       		.byte	0
 11113 086e 00       		.byte	0
 11114 086f 00       		.byte	0
 11115 0870 00       		.byte	0
 11116 0871 00       		.byte	0
 11117 0872 00       		.byte	0
 11118 0873 00       		.byte	0
 11119 0874 78       		.byte	120
 11120 0875 F0       		.byte	-16
 11121 0876 78       		.byte	120
 11122 0877 F0       		.byte	-16
 11123 0878 30       		.byte	48
 11124 0879 60       		.byte	96
 11125 087a 30       		.byte	48
 11126 087b 60       		.byte	96
 11127 087c 18       		.byte	24
 11128 087d C0       		.byte	-64
 11129 087e 18       		.byte	24
 11130 087f C0       		.byte	-64
 11131 0880 0D       		.byte	13
 11132 0881 80       		.byte	-128
 11133 0882 0D       		.byte	13
 11134 0883 80       		.byte	-128
 11135 0884 0D       		.byte	13
 11136 0885 80       		.byte	-128
 11137 0886 07       		.byte	7
 11138 0887 00       		.byte	0
 11139 0888 07       		.byte	7
 11140 0889 00       		.byte	0
 11141 088a 07       		.byte	7
 11142 088b 00       		.byte	0
 11143 088c 00       		.byte	0
 11144 088d 00       		.byte	0
 11145 088e 00       		.byte	0
 11146 088f 00       		.byte	0
 11147 0890 00       		.byte	0
 11148 0891 00       		.byte	0
 11149 0892 00       		.byte	0
 11150 0893 00       		.byte	0
 11151 0894 00       		.byte	0
 11152 0895 00       		.byte	0
 11153 0896 00       		.byte	0
 11154 0897 00       		.byte	0
 11155 0898 00       		.byte	0
 11156 0899 00       		.byte	0
 11157 089a 00       		.byte	0
 11158 089b 00       		.byte	0
 11159 089c 7C       		.byte	124
 11160 089d 7C       		.byte	124
 11161 089e 7C       		.byte	124
ARM GAS  C:\Users\milek\AppData\Local\Temp\ccMSPWBt.s 			page 233


 11162 089f 7C       		.byte	124
 11163 08a0 30       		.byte	48
 11164 08a1 18       		.byte	24
 11165 08a2 33       		.byte	51
 11166 08a3 98       		.byte	-104
 11167 08a4 33       		.byte	51
 11168 08a5 98       		.byte	-104
 11169 08a6 33       		.byte	51
 11170 08a7 98       		.byte	-104
 11171 08a8 36       		.byte	54
 11172 08a9 D8       		.byte	-40
 11173 08aa 16       		.byte	22
 11174 08ab D0       		.byte	-48
 11175 08ac 1C       		.byte	28
 11176 08ad 70       		.byte	112
 11177 08ae 1C       		.byte	28
 11178 08af 70       		.byte	112
 11179 08b0 1C       		.byte	28
 11180 08b1 70       		.byte	112
 11181 08b2 18       		.byte	24
 11182 08b3 30       		.byte	48
 11183 08b4 00       		.byte	0
 11184 08b5 00       		.byte	0
 11185 08b6 00       		.byte	0
 11186 08b7 00       		.byte	0
 11187 08b8 00       		.byte	0
 11188 08b9 00       		.byte	0
 11189 08ba 00       		.byte	0
 11190 08bb 00       		.byte	0
 11191 08bc 00       		.byte	0
 11192 08bd 00       		.byte	0
 11193 08be 00       		.byte	0
 11194 08bf 00       		.byte	0
 11195 08c0 00       		.byte	0
 11196 08c1 00       		.byte	0
 11197 08c2 00       		.byte	0
 11198 08c3 00       		.byte	0
 11199 08c4 78       		.byte	120
 11200 08c5 F0       		.byte	-16
 11201 08c6 78       		.byte	120
 11202 08c7 F0       		.byte	-16
 11203 08c8 30       		.byte	48
 11204 08c9 60       		.byte	96
 11205 08ca 18       		.byte	24
 11206 08cb C0       		.byte	-64
 11207 08cc 0D       		.byte	13
 11208 08cd 80       		.byte	-128
 11209 08ce 07       		.byte	7
 11210 08cf 00       		.byte	0
 11211 08d0 07       		.byte	7
 11212 08d1 00       		.byte	0
 11213 08d2 0D       		.byte	13
 11214 08d3 80       		.byte	-128
 11215 08d4 18       		.byte	24
 11216 08d5 C0       		.byte	-64
 11217 08d6 30       		.byte	48
 11218 08d7 60       		.byte	96
ARM GAS  C:\Users\milek\AppData\Local\Temp\ccMSPWBt.s 			page 234


 11219 08d8 78       		.byte	120
 11220 08d9 F0       		.byte	-16
 11221 08da 78       		.byte	120
 11222 08db F0       		.byte	-16
 11223 08dc 00       		.byte	0
 11224 08dd 00       		.byte	0
 11225 08de 00       		.byte	0
 11226 08df 00       		.byte	0
 11227 08e0 00       		.byte	0
 11228 08e1 00       		.byte	0
 11229 08e2 00       		.byte	0
 11230 08e3 00       		.byte	0
 11231 08e4 00       		.byte	0
 11232 08e5 00       		.byte	0
 11233 08e6 00       		.byte	0
 11234 08e7 00       		.byte	0
 11235 08e8 00       		.byte	0
 11236 08e9 00       		.byte	0
 11237 08ea 00       		.byte	0
 11238 08eb 00       		.byte	0
 11239 08ec 3C       		.byte	60
 11240 08ed F0       		.byte	-16
 11241 08ee 3C       		.byte	60
 11242 08ef F0       		.byte	-16
 11243 08f0 18       		.byte	24
 11244 08f1 60       		.byte	96
 11245 08f2 0C       		.byte	12
 11246 08f3 C0       		.byte	-64
 11247 08f4 07       		.byte	7
 11248 08f5 80       		.byte	-128
 11249 08f6 07       		.byte	7
 11250 08f7 80       		.byte	-128
 11251 08f8 03       		.byte	3
 11252 08f9 00       		.byte	0
 11253 08fa 03       		.byte	3
 11254 08fb 00       		.byte	0
 11255 08fc 03       		.byte	3
 11256 08fd 00       		.byte	0
 11257 08fe 03       		.byte	3
 11258 08ff 00       		.byte	0
 11259 0900 0F       		.byte	15
 11260 0901 C0       		.byte	-64
 11261 0902 0F       		.byte	15
 11262 0903 C0       		.byte	-64
 11263 0904 00       		.byte	0
 11264 0905 00       		.byte	0
 11265 0906 00       		.byte	0
 11266 0907 00       		.byte	0
 11267 0908 00       		.byte	0
 11268 0909 00       		.byte	0
 11269 090a 00       		.byte	0
 11270 090b 00       		.byte	0
 11271 090c 00       		.byte	0
 11272 090d 00       		.byte	0
 11273 090e 00       		.byte	0
 11274 090f 00       		.byte	0
 11275 0910 00       		.byte	0
ARM GAS  C:\Users\milek\AppData\Local\Temp\ccMSPWBt.s 			page 235


 11276 0911 00       		.byte	0
 11277 0912 00       		.byte	0
 11278 0913 00       		.byte	0
 11279 0914 1F       		.byte	31
 11280 0915 E0       		.byte	-32
 11281 0916 1F       		.byte	31
 11282 0917 E0       		.byte	-32
 11283 0918 18       		.byte	24
 11284 0919 60       		.byte	96
 11285 091a 18       		.byte	24
 11286 091b C0       		.byte	-64
 11287 091c 01       		.byte	1
 11288 091d 80       		.byte	-128
 11289 091e 03       		.byte	3
 11290 091f 00       		.byte	0
 11291 0920 03       		.byte	3
 11292 0921 00       		.byte	0
 11293 0922 06       		.byte	6
 11294 0923 00       		.byte	0
 11295 0924 0C       		.byte	12
 11296 0925 60       		.byte	96
 11297 0926 18       		.byte	24
 11298 0927 60       		.byte	96
 11299 0928 1F       		.byte	31
 11300 0929 E0       		.byte	-32
 11301 092a 1F       		.byte	31
 11302 092b E0       		.byte	-32
 11303 092c 00       		.byte	0
 11304 092d 00       		.byte	0
 11305 092e 00       		.byte	0
 11306 092f 00       		.byte	0
 11307 0930 00       		.byte	0
 11308 0931 00       		.byte	0
 11309 0932 00       		.byte	0
 11310 0933 00       		.byte	0
 11311 0934 00       		.byte	0
 11312 0935 00       		.byte	0
 11313 0936 00       		.byte	0
 11314 0937 00       		.byte	0
 11315 0938 00       		.byte	0
 11316 0939 00       		.byte	0
 11317 093a 03       		.byte	3
 11318 093b C0       		.byte	-64
 11319 093c 03       		.byte	3
 11320 093d C0       		.byte	-64
 11321 093e 03       		.byte	3
 11322 093f 00       		.byte	0
 11323 0940 03       		.byte	3
 11324 0941 00       		.byte	0
 11325 0942 03       		.byte	3
 11326 0943 00       		.byte	0
 11327 0944 03       		.byte	3
 11328 0945 00       		.byte	0
 11329 0946 03       		.byte	3
 11330 0947 00       		.byte	0
 11331 0948 03       		.byte	3
 11332 0949 00       		.byte	0
ARM GAS  C:\Users\milek\AppData\Local\Temp\ccMSPWBt.s 			page 236


 11333 094a 03       		.byte	3
 11334 094b 00       		.byte	0
 11335 094c 03       		.byte	3
 11336 094d 00       		.byte	0
 11337 094e 03       		.byte	3
 11338 094f 00       		.byte	0
 11339 0950 03       		.byte	3
 11340 0951 00       		.byte	0
 11341 0952 03       		.byte	3
 11342 0953 00       		.byte	0
 11343 0954 03       		.byte	3
 11344 0955 00       		.byte	0
 11345 0956 03       		.byte	3
 11346 0957 C0       		.byte	-64
 11347 0958 03       		.byte	3
 11348 0959 C0       		.byte	-64
 11349 095a 00       		.byte	0
 11350 095b 00       		.byte	0
 11351 095c 00       		.byte	0
 11352 095d 00       		.byte	0
 11353 095e 00       		.byte	0
 11354 095f 00       		.byte	0
 11355 0960 18       		.byte	24
 11356 0961 00       		.byte	0
 11357 0962 18       		.byte	24
 11358 0963 00       		.byte	0
 11359 0964 0C       		.byte	12
 11360 0965 00       		.byte	0
 11361 0966 0C       		.byte	12
 11362 0967 00       		.byte	0
 11363 0968 0C       		.byte	12
 11364 0969 00       		.byte	0
 11365 096a 06       		.byte	6
 11366 096b 00       		.byte	0
 11367 096c 06       		.byte	6
 11368 096d 00       		.byte	0
 11369 096e 03       		.byte	3
 11370 096f 00       		.byte	0
 11371 0970 03       		.byte	3
 11372 0971 00       		.byte	0
 11373 0972 01       		.byte	1
 11374 0973 80       		.byte	-128
 11375 0974 01       		.byte	1
 11376 0975 80       		.byte	-128
 11377 0976 00       		.byte	0
 11378 0977 C0       		.byte	-64
 11379 0978 00       		.byte	0
 11380 0979 C0       		.byte	-64
 11381 097a 00       		.byte	0
 11382 097b C0       		.byte	-64
 11383 097c 00       		.byte	0
 11384 097d 60       		.byte	96
 11385 097e 00       		.byte	0
 11386 097f 60       		.byte	96
 11387 0980 00       		.byte	0
 11388 0981 00       		.byte	0
 11389 0982 00       		.byte	0
ARM GAS  C:\Users\milek\AppData\Local\Temp\ccMSPWBt.s 			page 237


 11390 0983 00       		.byte	0
 11391 0984 00       		.byte	0
 11392 0985 00       		.byte	0
 11393 0986 00       		.byte	0
 11394 0987 00       		.byte	0
 11395 0988 00       		.byte	0
 11396 0989 00       		.byte	0
 11397 098a 0F       		.byte	15
 11398 098b 00       		.byte	0
 11399 098c 0F       		.byte	15
 11400 098d 00       		.byte	0
 11401 098e 03       		.byte	3
 11402 098f 00       		.byte	0
 11403 0990 03       		.byte	3
 11404 0991 00       		.byte	0
 11405 0992 03       		.byte	3
 11406 0993 00       		.byte	0
 11407 0994 03       		.byte	3
 11408 0995 00       		.byte	0
 11409 0996 03       		.byte	3
 11410 0997 00       		.byte	0
 11411 0998 03       		.byte	3
 11412 0999 00       		.byte	0
 11413 099a 03       		.byte	3
 11414 099b 00       		.byte	0
 11415 099c 03       		.byte	3
 11416 099d 00       		.byte	0
 11417 099e 03       		.byte	3
 11418 099f 00       		.byte	0
 11419 09a0 03       		.byte	3
 11420 09a1 00       		.byte	0
 11421 09a2 03       		.byte	3
 11422 09a3 00       		.byte	0
 11423 09a4 03       		.byte	3
 11424 09a5 00       		.byte	0
 11425 09a6 0F       		.byte	15
 11426 09a7 00       		.byte	0
 11427 09a8 0F       		.byte	15
 11428 09a9 00       		.byte	0
 11429 09aa 00       		.byte	0
 11430 09ab 00       		.byte	0
 11431 09ac 00       		.byte	0
 11432 09ad 00       		.byte	0
 11433 09ae 00       		.byte	0
 11434 09af 00       		.byte	0
 11435 09b0 00       		.byte	0
 11436 09b1 00       		.byte	0
 11437 09b2 02       		.byte	2
 11438 09b3 00       		.byte	0
 11439 09b4 07       		.byte	7
 11440 09b5 00       		.byte	0
 11441 09b6 0D       		.byte	13
 11442 09b7 80       		.byte	-128
 11443 09b8 18       		.byte	24
 11444 09b9 C0       		.byte	-64
 11445 09ba 30       		.byte	48
 11446 09bb 60       		.byte	96
ARM GAS  C:\Users\milek\AppData\Local\Temp\ccMSPWBt.s 			page 238


 11447 09bc 20       		.byte	32
 11448 09bd 20       		.byte	32
 11449 09be 00       		.byte	0
 11450 09bf 00       		.byte	0
 11451 09c0 00       		.byte	0
 11452 09c1 00       		.byte	0
 11453 09c2 00       		.byte	0
 11454 09c3 00       		.byte	0
 11455 09c4 00       		.byte	0
 11456 09c5 00       		.byte	0
 11457 09c6 00       		.byte	0
 11458 09c7 00       		.byte	0
 11459 09c8 00       		.byte	0
 11460 09c9 00       		.byte	0
 11461 09ca 00       		.byte	0
 11462 09cb 00       		.byte	0
 11463 09cc 00       		.byte	0
 11464 09cd 00       		.byte	0
 11465 09ce 00       		.byte	0
 11466 09cf 00       		.byte	0
 11467 09d0 00       		.byte	0
 11468 09d1 00       		.byte	0
 11469 09d2 00       		.byte	0
 11470 09d3 00       		.byte	0
 11471 09d4 00       		.byte	0
 11472 09d5 00       		.byte	0
 11473 09d6 00       		.byte	0
 11474 09d7 00       		.byte	0
 11475 09d8 00       		.byte	0
 11476 09d9 00       		.byte	0
 11477 09da 00       		.byte	0
 11478 09db 00       		.byte	0
 11479 09dc 00       		.byte	0
 11480 09dd 00       		.byte	0
 11481 09de 00       		.byte	0
 11482 09df 00       		.byte	0
 11483 09e0 00       		.byte	0
 11484 09e1 00       		.byte	0
 11485 09e2 00       		.byte	0
 11486 09e3 00       		.byte	0
 11487 09e4 00       		.byte	0
 11488 09e5 00       		.byte	0
 11489 09e6 00       		.byte	0
 11490 09e7 00       		.byte	0
 11491 09e8 00       		.byte	0
 11492 09e9 00       		.byte	0
 11493 09ea 00       		.byte	0
 11494 09eb 00       		.byte	0
 11495 09ec 00       		.byte	0
 11496 09ed 00       		.byte	0
 11497 09ee 00       		.byte	0
 11498 09ef 00       		.byte	0
 11499 09f0 00       		.byte	0
 11500 09f1 00       		.byte	0
 11501 09f2 00       		.byte	0
 11502 09f3 00       		.byte	0
 11503 09f4 00       		.byte	0
ARM GAS  C:\Users\milek\AppData\Local\Temp\ccMSPWBt.s 			page 239


 11504 09f5 00       		.byte	0
 11505 09f6 00       		.byte	0
 11506 09f7 00       		.byte	0
 11507 09f8 00       		.byte	0
 11508 09f9 00       		.byte	0
 11509 09fa 00       		.byte	0
 11510 09fb 00       		.byte	0
 11511 09fc FF       		.byte	-1
 11512 09fd FC       		.byte	-4
 11513 09fe FF       		.byte	-1
 11514 09ff FC       		.byte	-4
 11515 0a00 00       		.byte	0
 11516 0a01 00       		.byte	0
 11517 0a02 04       		.byte	4
 11518 0a03 00       		.byte	0
 11519 0a04 03       		.byte	3
 11520 0a05 00       		.byte	0
 11521 0a06 00       		.byte	0
 11522 0a07 80       		.byte	-128
 11523 0a08 00       		.byte	0
 11524 0a09 00       		.byte	0
 11525 0a0a 00       		.byte	0
 11526 0a0b 00       		.byte	0
 11527 0a0c 00       		.byte	0
 11528 0a0d 00       		.byte	0
 11529 0a0e 00       		.byte	0
 11530 0a0f 00       		.byte	0
 11531 0a10 00       		.byte	0
 11532 0a11 00       		.byte	0
 11533 0a12 00       		.byte	0
 11534 0a13 00       		.byte	0
 11535 0a14 00       		.byte	0
 11536 0a15 00       		.byte	0
 11537 0a16 00       		.byte	0
 11538 0a17 00       		.byte	0
 11539 0a18 00       		.byte	0
 11540 0a19 00       		.byte	0
 11541 0a1a 00       		.byte	0
 11542 0a1b 00       		.byte	0
 11543 0a1c 00       		.byte	0
 11544 0a1d 00       		.byte	0
 11545 0a1e 00       		.byte	0
 11546 0a1f 00       		.byte	0
 11547 0a20 00       		.byte	0
 11548 0a21 00       		.byte	0
 11549 0a22 00       		.byte	0
 11550 0a23 00       		.byte	0
 11551 0a24 00       		.byte	0
 11552 0a25 00       		.byte	0
 11553 0a26 00       		.byte	0
 11554 0a27 00       		.byte	0
 11555 0a28 00       		.byte	0
 11556 0a29 00       		.byte	0
 11557 0a2a 00       		.byte	0
 11558 0a2b 00       		.byte	0
 11559 0a2c 00       		.byte	0
 11560 0a2d 00       		.byte	0
ARM GAS  C:\Users\milek\AppData\Local\Temp\ccMSPWBt.s 			page 240


 11561 0a2e 00       		.byte	0
 11562 0a2f 00       		.byte	0
 11563 0a30 00       		.byte	0
 11564 0a31 00       		.byte	0
 11565 0a32 0F       		.byte	15
 11566 0a33 C0       		.byte	-64
 11567 0a34 1F       		.byte	31
 11568 0a35 E0       		.byte	-32
 11569 0a36 00       		.byte	0
 11570 0a37 60       		.byte	96
 11571 0a38 0F       		.byte	15
 11572 0a39 E0       		.byte	-32
 11573 0a3a 1F       		.byte	31
 11574 0a3b E0       		.byte	-32
 11575 0a3c 38       		.byte	56
 11576 0a3d 60       		.byte	96
 11577 0a3e 30       		.byte	48
 11578 0a3f E0       		.byte	-32
 11579 0a40 3F       		.byte	63
 11580 0a41 F0       		.byte	-16
 11581 0a42 1F       		.byte	31
 11582 0a43 70       		.byte	112
 11583 0a44 00       		.byte	0
 11584 0a45 00       		.byte	0
 11585 0a46 00       		.byte	0
 11586 0a47 00       		.byte	0
 11587 0a48 00       		.byte	0
 11588 0a49 00       		.byte	0
 11589 0a4a 00       		.byte	0
 11590 0a4b 00       		.byte	0
 11591 0a4c 00       		.byte	0
 11592 0a4d 00       		.byte	0
 11593 0a4e 00       		.byte	0
 11594 0a4f 00       		.byte	0
 11595 0a50 00       		.byte	0
 11596 0a51 00       		.byte	0
 11597 0a52 70       		.byte	112
 11598 0a53 00       		.byte	0
 11599 0a54 70       		.byte	112
 11600 0a55 00       		.byte	0
 11601 0a56 30       		.byte	48
 11602 0a57 00       		.byte	0
 11603 0a58 30       		.byte	48
 11604 0a59 00       		.byte	0
 11605 0a5a 37       		.byte	55
 11606 0a5b 80       		.byte	-128
 11607 0a5c 3F       		.byte	63
 11608 0a5d E0       		.byte	-32
 11609 0a5e 38       		.byte	56
 11610 0a5f 60       		.byte	96
 11611 0a60 30       		.byte	48
 11612 0a61 30       		.byte	48
 11613 0a62 30       		.byte	48
 11614 0a63 30       		.byte	48
 11615 0a64 30       		.byte	48
 11616 0a65 30       		.byte	48
 11617 0a66 38       		.byte	56
ARM GAS  C:\Users\milek\AppData\Local\Temp\ccMSPWBt.s 			page 241


 11618 0a67 60       		.byte	96
 11619 0a68 7F       		.byte	127
 11620 0a69 E0       		.byte	-32
 11621 0a6a 77       		.byte	119
 11622 0a6b 80       		.byte	-128
 11623 0a6c 00       		.byte	0
 11624 0a6d 00       		.byte	0
 11625 0a6e 00       		.byte	0
 11626 0a6f 00       		.byte	0
 11627 0a70 00       		.byte	0
 11628 0a71 00       		.byte	0
 11629 0a72 00       		.byte	0
 11630 0a73 00       		.byte	0
 11631 0a74 00       		.byte	0
 11632 0a75 00       		.byte	0
 11633 0a76 00       		.byte	0
 11634 0a77 00       		.byte	0
 11635 0a78 00       		.byte	0
 11636 0a79 00       		.byte	0
 11637 0a7a 00       		.byte	0
 11638 0a7b 00       		.byte	0
 11639 0a7c 00       		.byte	0
 11640 0a7d 00       		.byte	0
 11641 0a7e 00       		.byte	0
 11642 0a7f 00       		.byte	0
 11643 0a80 00       		.byte	0
 11644 0a81 00       		.byte	0
 11645 0a82 07       		.byte	7
 11646 0a83 B0       		.byte	-80
 11647 0a84 1F       		.byte	31
 11648 0a85 F0       		.byte	-16
 11649 0a86 18       		.byte	24
 11650 0a87 30       		.byte	48
 11651 0a88 30       		.byte	48
 11652 0a89 30       		.byte	48
 11653 0a8a 30       		.byte	48
 11654 0a8b 00       		.byte	0
 11655 0a8c 30       		.byte	48
 11656 0a8d 00       		.byte	0
 11657 0a8e 38       		.byte	56
 11658 0a8f 30       		.byte	48
 11659 0a90 1F       		.byte	31
 11660 0a91 F0       		.byte	-16
 11661 0a92 0F       		.byte	15
 11662 0a93 C0       		.byte	-64
 11663 0a94 00       		.byte	0
 11664 0a95 00       		.byte	0
 11665 0a96 00       		.byte	0
 11666 0a97 00       		.byte	0
 11667 0a98 00       		.byte	0
 11668 0a99 00       		.byte	0
 11669 0a9a 00       		.byte	0
 11670 0a9b 00       		.byte	0
 11671 0a9c 00       		.byte	0
 11672 0a9d 00       		.byte	0
 11673 0a9e 00       		.byte	0
 11674 0a9f 00       		.byte	0
ARM GAS  C:\Users\milek\AppData\Local\Temp\ccMSPWBt.s 			page 242


 11675 0aa0 00       		.byte	0
 11676 0aa1 00       		.byte	0
 11677 0aa2 00       		.byte	0
 11678 0aa3 70       		.byte	112
 11679 0aa4 00       		.byte	0
 11680 0aa5 70       		.byte	112
 11681 0aa6 00       		.byte	0
 11682 0aa7 30       		.byte	48
 11683 0aa8 00       		.byte	0
 11684 0aa9 30       		.byte	48
 11685 0aaa 07       		.byte	7
 11686 0aab B0       		.byte	-80
 11687 0aac 1F       		.byte	31
 11688 0aad F0       		.byte	-16
 11689 0aae 18       		.byte	24
 11690 0aaf 70       		.byte	112
 11691 0ab0 30       		.byte	48
 11692 0ab1 30       		.byte	48
 11693 0ab2 30       		.byte	48
 11694 0ab3 30       		.byte	48
 11695 0ab4 30       		.byte	48
 11696 0ab5 30       		.byte	48
 11697 0ab6 38       		.byte	56
 11698 0ab7 70       		.byte	112
 11699 0ab8 1F       		.byte	31
 11700 0ab9 F8       		.byte	-8
 11701 0aba 07       		.byte	7
 11702 0abb B8       		.byte	-72
 11703 0abc 00       		.byte	0
 11704 0abd 00       		.byte	0
 11705 0abe 00       		.byte	0
 11706 0abf 00       		.byte	0
 11707 0ac0 00       		.byte	0
 11708 0ac1 00       		.byte	0
 11709 0ac2 00       		.byte	0
 11710 0ac3 00       		.byte	0
 11711 0ac4 00       		.byte	0
 11712 0ac5 00       		.byte	0
 11713 0ac6 00       		.byte	0
 11714 0ac7 00       		.byte	0
 11715 0ac8 00       		.byte	0
 11716 0ac9 00       		.byte	0
 11717 0aca 00       		.byte	0
 11718 0acb 00       		.byte	0
 11719 0acc 00       		.byte	0
 11720 0acd 00       		.byte	0
 11721 0ace 00       		.byte	0
 11722 0acf 00       		.byte	0
 11723 0ad0 00       		.byte	0
 11724 0ad1 00       		.byte	0
 11725 0ad2 07       		.byte	7
 11726 0ad3 80       		.byte	-128
 11727 0ad4 1F       		.byte	31
 11728 0ad5 E0       		.byte	-32
 11729 0ad6 18       		.byte	24
 11730 0ad7 60       		.byte	96
 11731 0ad8 3F       		.byte	63
ARM GAS  C:\Users\milek\AppData\Local\Temp\ccMSPWBt.s 			page 243


 11732 0ad9 F0       		.byte	-16
 11733 0ada 3F       		.byte	63
 11734 0adb F0       		.byte	-16
 11735 0adc 30       		.byte	48
 11736 0add 00       		.byte	0
 11737 0ade 18       		.byte	24
 11738 0adf 30       		.byte	48
 11739 0ae0 1F       		.byte	31
 11740 0ae1 F0       		.byte	-16
 11741 0ae2 07       		.byte	7
 11742 0ae3 C0       		.byte	-64
 11743 0ae4 00       		.byte	0
 11744 0ae5 00       		.byte	0
 11745 0ae6 00       		.byte	0
 11746 0ae7 00       		.byte	0
 11747 0ae8 00       		.byte	0
 11748 0ae9 00       		.byte	0
 11749 0aea 00       		.byte	0
 11750 0aeb 00       		.byte	0
 11751 0aec 00       		.byte	0
 11752 0aed 00       		.byte	0
 11753 0aee 00       		.byte	0
 11754 0aef 00       		.byte	0
 11755 0af0 00       		.byte	0
 11756 0af1 00       		.byte	0
 11757 0af2 03       		.byte	3
 11758 0af3 F0       		.byte	-16
 11759 0af4 07       		.byte	7
 11760 0af5 F0       		.byte	-16
 11761 0af6 06       		.byte	6
 11762 0af7 00       		.byte	0
 11763 0af8 06       		.byte	6
 11764 0af9 00       		.byte	0
 11765 0afa 1F       		.byte	31
 11766 0afb E0       		.byte	-32
 11767 0afc 1F       		.byte	31
 11768 0afd E0       		.byte	-32
 11769 0afe 06       		.byte	6
 11770 0aff 00       		.byte	0
 11771 0b00 06       		.byte	6
 11772 0b01 00       		.byte	0
 11773 0b02 06       		.byte	6
 11774 0b03 00       		.byte	0
 11775 0b04 06       		.byte	6
 11776 0b05 00       		.byte	0
 11777 0b06 06       		.byte	6
 11778 0b07 00       		.byte	0
 11779 0b08 1F       		.byte	31
 11780 0b09 E0       		.byte	-32
 11781 0b0a 1F       		.byte	31
 11782 0b0b E0       		.byte	-32
 11783 0b0c 00       		.byte	0
 11784 0b0d 00       		.byte	0
 11785 0b0e 00       		.byte	0
 11786 0b0f 00       		.byte	0
 11787 0b10 00       		.byte	0
 11788 0b11 00       		.byte	0
ARM GAS  C:\Users\milek\AppData\Local\Temp\ccMSPWBt.s 			page 244


 11789 0b12 00       		.byte	0
 11790 0b13 00       		.byte	0
 11791 0b14 00       		.byte	0
 11792 0b15 00       		.byte	0
 11793 0b16 00       		.byte	0
 11794 0b17 00       		.byte	0
 11795 0b18 00       		.byte	0
 11796 0b19 00       		.byte	0
 11797 0b1a 00       		.byte	0
 11798 0b1b 00       		.byte	0
 11799 0b1c 00       		.byte	0
 11800 0b1d 00       		.byte	0
 11801 0b1e 00       		.byte	0
 11802 0b1f 00       		.byte	0
 11803 0b20 00       		.byte	0
 11804 0b21 00       		.byte	0
 11805 0b22 07       		.byte	7
 11806 0b23 B8       		.byte	-72
 11807 0b24 1F       		.byte	31
 11808 0b25 F8       		.byte	-8
 11809 0b26 18       		.byte	24
 11810 0b27 70       		.byte	112
 11811 0b28 30       		.byte	48
 11812 0b29 30       		.byte	48
 11813 0b2a 30       		.byte	48
 11814 0b2b 30       		.byte	48
 11815 0b2c 30       		.byte	48
 11816 0b2d 30       		.byte	48
 11817 0b2e 18       		.byte	24
 11818 0b2f 70       		.byte	112
 11819 0b30 1F       		.byte	31
 11820 0b31 F0       		.byte	-16
 11821 0b32 07       		.byte	7
 11822 0b33 B0       		.byte	-80
 11823 0b34 00       		.byte	0
 11824 0b35 30       		.byte	48
 11825 0b36 00       		.byte	0
 11826 0b37 70       		.byte	112
 11827 0b38 0F       		.byte	15
 11828 0b39 E0       		.byte	-32
 11829 0b3a 0F       		.byte	15
 11830 0b3b C0       		.byte	-64
 11831 0b3c 00       		.byte	0
 11832 0b3d 00       		.byte	0
 11833 0b3e 00       		.byte	0
 11834 0b3f 00       		.byte	0
 11835 0b40 00       		.byte	0
 11836 0b41 00       		.byte	0
 11837 0b42 38       		.byte	56
 11838 0b43 00       		.byte	0
 11839 0b44 38       		.byte	56
 11840 0b45 00       		.byte	0
 11841 0b46 18       		.byte	24
 11842 0b47 00       		.byte	0
 11843 0b48 18       		.byte	24
 11844 0b49 00       		.byte	0
 11845 0b4a 1B       		.byte	27
ARM GAS  C:\Users\milek\AppData\Local\Temp\ccMSPWBt.s 			page 245


 11846 0b4b C0       		.byte	-64
 11847 0b4c 1F       		.byte	31
 11848 0b4d E0       		.byte	-32
 11849 0b4e 1C       		.byte	28
 11850 0b4f 60       		.byte	96
 11851 0b50 18       		.byte	24
 11852 0b51 60       		.byte	96
 11853 0b52 18       		.byte	24
 11854 0b53 60       		.byte	96
 11855 0b54 18       		.byte	24
 11856 0b55 60       		.byte	96
 11857 0b56 18       		.byte	24
 11858 0b57 60       		.byte	96
 11859 0b58 3C       		.byte	60
 11860 0b59 F0       		.byte	-16
 11861 0b5a 3C       		.byte	60
 11862 0b5b F0       		.byte	-16
 11863 0b5c 00       		.byte	0
 11864 0b5d 00       		.byte	0
 11865 0b5e 00       		.byte	0
 11866 0b5f 00       		.byte	0
 11867 0b60 00       		.byte	0
 11868 0b61 00       		.byte	0
 11869 0b62 00       		.byte	0
 11870 0b63 00       		.byte	0
 11871 0b64 00       		.byte	0
 11872 0b65 00       		.byte	0
 11873 0b66 00       		.byte	0
 11874 0b67 00       		.byte	0
 11875 0b68 00       		.byte	0
 11876 0b69 00       		.byte	0
 11877 0b6a 03       		.byte	3
 11878 0b6b 00       		.byte	0
 11879 0b6c 03       		.byte	3
 11880 0b6d 00       		.byte	0
 11881 0b6e 00       		.byte	0
 11882 0b6f 00       		.byte	0
 11883 0b70 00       		.byte	0
 11884 0b71 00       		.byte	0
 11885 0b72 1F       		.byte	31
 11886 0b73 00       		.byte	0
 11887 0b74 1F       		.byte	31
 11888 0b75 00       		.byte	0
 11889 0b76 03       		.byte	3
 11890 0b77 00       		.byte	0
 11891 0b78 03       		.byte	3
 11892 0b79 00       		.byte	0
 11893 0b7a 03       		.byte	3
 11894 0b7b 00       		.byte	0
 11895 0b7c 03       		.byte	3
 11896 0b7d 00       		.byte	0
 11897 0b7e 03       		.byte	3
 11898 0b7f 00       		.byte	0
 11899 0b80 1F       		.byte	31
 11900 0b81 E0       		.byte	-32
 11901 0b82 1F       		.byte	31
 11902 0b83 E0       		.byte	-32
ARM GAS  C:\Users\milek\AppData\Local\Temp\ccMSPWBt.s 			page 246


 11903 0b84 00       		.byte	0
 11904 0b85 00       		.byte	0
 11905 0b86 00       		.byte	0
 11906 0b87 00       		.byte	0
 11907 0b88 00       		.byte	0
 11908 0b89 00       		.byte	0
 11909 0b8a 00       		.byte	0
 11910 0b8b 00       		.byte	0
 11911 0b8c 00       		.byte	0
 11912 0b8d 00       		.byte	0
 11913 0b8e 00       		.byte	0
 11914 0b8f 00       		.byte	0
 11915 0b90 00       		.byte	0
 11916 0b91 00       		.byte	0
 11917 0b92 03       		.byte	3
 11918 0b93 00       		.byte	0
 11919 0b94 03       		.byte	3
 11920 0b95 00       		.byte	0
 11921 0b96 00       		.byte	0
 11922 0b97 00       		.byte	0
 11923 0b98 00       		.byte	0
 11924 0b99 00       		.byte	0
 11925 0b9a 1F       		.byte	31
 11926 0b9b C0       		.byte	-64
 11927 0b9c 1F       		.byte	31
 11928 0b9d C0       		.byte	-64
 11929 0b9e 00       		.byte	0
 11930 0b9f C0       		.byte	-64
 11931 0ba0 00       		.byte	0
 11932 0ba1 C0       		.byte	-64
 11933 0ba2 00       		.byte	0
 11934 0ba3 C0       		.byte	-64
 11935 0ba4 00       		.byte	0
 11936 0ba5 C0       		.byte	-64
 11937 0ba6 00       		.byte	0
 11938 0ba7 C0       		.byte	-64
 11939 0ba8 00       		.byte	0
 11940 0ba9 C0       		.byte	-64
 11941 0baa 00       		.byte	0
 11942 0bab C0       		.byte	-64
 11943 0bac 00       		.byte	0
 11944 0bad C0       		.byte	-64
 11945 0bae 01       		.byte	1
 11946 0baf C0       		.byte	-64
 11947 0bb0 3F       		.byte	63
 11948 0bb1 80       		.byte	-128
 11949 0bb2 3F       		.byte	63
 11950 0bb3 00       		.byte	0
 11951 0bb4 00       		.byte	0
 11952 0bb5 00       		.byte	0
 11953 0bb6 00       		.byte	0
 11954 0bb7 00       		.byte	0
 11955 0bb8 00       		.byte	0
 11956 0bb9 00       		.byte	0
 11957 0bba 38       		.byte	56
 11958 0bbb 00       		.byte	0
 11959 0bbc 38       		.byte	56
ARM GAS  C:\Users\milek\AppData\Local\Temp\ccMSPWBt.s 			page 247


 11960 0bbd 00       		.byte	0
 11961 0bbe 18       		.byte	24
 11962 0bbf 00       		.byte	0
 11963 0bc0 18       		.byte	24
 11964 0bc1 00       		.byte	0
 11965 0bc2 1B       		.byte	27
 11966 0bc3 E0       		.byte	-32
 11967 0bc4 1B       		.byte	27
 11968 0bc5 E0       		.byte	-32
 11969 0bc6 1B       		.byte	27
 11970 0bc7 00       		.byte	0
 11971 0bc8 1E       		.byte	30
 11972 0bc9 00       		.byte	0
 11973 0bca 1E       		.byte	30
 11974 0bcb 00       		.byte	0
 11975 0bcc 1B       		.byte	27
 11976 0bcd 00       		.byte	0
 11977 0bce 19       		.byte	25
 11978 0bcf 80       		.byte	-128
 11979 0bd0 39       		.byte	57
 11980 0bd1 F0       		.byte	-16
 11981 0bd2 39       		.byte	57
 11982 0bd3 F0       		.byte	-16
 11983 0bd4 00       		.byte	0
 11984 0bd5 00       		.byte	0
 11985 0bd6 00       		.byte	0
 11986 0bd7 00       		.byte	0
 11987 0bd8 00       		.byte	0
 11988 0bd9 00       		.byte	0
 11989 0bda 00       		.byte	0
 11990 0bdb 00       		.byte	0
 11991 0bdc 00       		.byte	0
 11992 0bdd 00       		.byte	0
 11993 0bde 00       		.byte	0
 11994 0bdf 00       		.byte	0
 11995 0be0 00       		.byte	0
 11996 0be1 00       		.byte	0
 11997 0be2 1F       		.byte	31
 11998 0be3 00       		.byte	0
 11999 0be4 1F       		.byte	31
 12000 0be5 00       		.byte	0
 12001 0be6 03       		.byte	3
 12002 0be7 00       		.byte	0
 12003 0be8 03       		.byte	3
 12004 0be9 00       		.byte	0
 12005 0bea 03       		.byte	3
 12006 0beb 00       		.byte	0
 12007 0bec 03       		.byte	3
 12008 0bed 00       		.byte	0
 12009 0bee 03       		.byte	3
 12010 0bef 00       		.byte	0
 12011 0bf0 03       		.byte	3
 12012 0bf1 00       		.byte	0
 12013 0bf2 03       		.byte	3
 12014 0bf3 00       		.byte	0
 12015 0bf4 03       		.byte	3
 12016 0bf5 00       		.byte	0
ARM GAS  C:\Users\milek\AppData\Local\Temp\ccMSPWBt.s 			page 248


 12017 0bf6 03       		.byte	3
 12018 0bf7 00       		.byte	0
 12019 0bf8 1F       		.byte	31
 12020 0bf9 E0       		.byte	-32
 12021 0bfa 1F       		.byte	31
 12022 0bfb E0       		.byte	-32
 12023 0bfc 00       		.byte	0
 12024 0bfd 00       		.byte	0
 12025 0bfe 00       		.byte	0
 12026 0bff 00       		.byte	0
 12027 0c00 00       		.byte	0
 12028 0c01 00       		.byte	0
 12029 0c02 00       		.byte	0
 12030 0c03 00       		.byte	0
 12031 0c04 00       		.byte	0
 12032 0c05 00       		.byte	0
 12033 0c06 00       		.byte	0
 12034 0c07 00       		.byte	0
 12035 0c08 00       		.byte	0
 12036 0c09 00       		.byte	0
 12037 0c0a 00       		.byte	0
 12038 0c0b 00       		.byte	0
 12039 0c0c 00       		.byte	0
 12040 0c0d 00       		.byte	0
 12041 0c0e 00       		.byte	0
 12042 0c0f 00       		.byte	0
 12043 0c10 00       		.byte	0
 12044 0c11 00       		.byte	0
 12045 0c12 7E       		.byte	126
 12046 0c13 E0       		.byte	-32
 12047 0c14 7F       		.byte	127
 12048 0c15 F0       		.byte	-16
 12049 0c16 33       		.byte	51
 12050 0c17 30       		.byte	48
 12051 0c18 33       		.byte	51
 12052 0c19 30       		.byte	48
 12053 0c1a 33       		.byte	51
 12054 0c1b 30       		.byte	48
 12055 0c1c 33       		.byte	51
 12056 0c1d 30       		.byte	48
 12057 0c1e 33       		.byte	51
 12058 0c1f 30       		.byte	48
 12059 0c20 7B       		.byte	123
 12060 0c21 B8       		.byte	-72
 12061 0c22 7B       		.byte	123
 12062 0c23 B8       		.byte	-72
 12063 0c24 00       		.byte	0
 12064 0c25 00       		.byte	0
 12065 0c26 00       		.byte	0
 12066 0c27 00       		.byte	0
 12067 0c28 00       		.byte	0
 12068 0c29 00       		.byte	0
 12069 0c2a 00       		.byte	0
 12070 0c2b 00       		.byte	0
 12071 0c2c 00       		.byte	0
 12072 0c2d 00       		.byte	0
 12073 0c2e 00       		.byte	0
ARM GAS  C:\Users\milek\AppData\Local\Temp\ccMSPWBt.s 			page 249


 12074 0c2f 00       		.byte	0
 12075 0c30 00       		.byte	0
 12076 0c31 00       		.byte	0
 12077 0c32 00       		.byte	0
 12078 0c33 00       		.byte	0
 12079 0c34 00       		.byte	0
 12080 0c35 00       		.byte	0
 12081 0c36 00       		.byte	0
 12082 0c37 00       		.byte	0
 12083 0c38 00       		.byte	0
 12084 0c39 00       		.byte	0
 12085 0c3a 3B       		.byte	59
 12086 0c3b C0       		.byte	-64
 12087 0c3c 3F       		.byte	63
 12088 0c3d E0       		.byte	-32
 12089 0c3e 1C       		.byte	28
 12090 0c3f 60       		.byte	96
 12091 0c40 18       		.byte	24
 12092 0c41 60       		.byte	96
 12093 0c42 18       		.byte	24
 12094 0c43 60       		.byte	96
 12095 0c44 18       		.byte	24
 12096 0c45 60       		.byte	96
 12097 0c46 18       		.byte	24
 12098 0c47 60       		.byte	96
 12099 0c48 3C       		.byte	60
 12100 0c49 F0       		.byte	-16
 12101 0c4a 3C       		.byte	60
 12102 0c4b F0       		.byte	-16
 12103 0c4c 00       		.byte	0
 12104 0c4d 00       		.byte	0
 12105 0c4e 00       		.byte	0
 12106 0c4f 00       		.byte	0
 12107 0c50 00       		.byte	0
 12108 0c51 00       		.byte	0
 12109 0c52 00       		.byte	0
 12110 0c53 00       		.byte	0
 12111 0c54 00       		.byte	0
 12112 0c55 00       		.byte	0
 12113 0c56 00       		.byte	0
 12114 0c57 00       		.byte	0
 12115 0c58 00       		.byte	0
 12116 0c59 00       		.byte	0
 12117 0c5a 00       		.byte	0
 12118 0c5b 00       		.byte	0
 12119 0c5c 00       		.byte	0
 12120 0c5d 00       		.byte	0
 12121 0c5e 00       		.byte	0
 12122 0c5f 00       		.byte	0
 12123 0c60 00       		.byte	0
 12124 0c61 00       		.byte	0
 12125 0c62 07       		.byte	7
 12126 0c63 80       		.byte	-128
 12127 0c64 1F       		.byte	31
 12128 0c65 E0       		.byte	-32
 12129 0c66 18       		.byte	24
 12130 0c67 60       		.byte	96
ARM GAS  C:\Users\milek\AppData\Local\Temp\ccMSPWBt.s 			page 250


 12131 0c68 30       		.byte	48
 12132 0c69 30       		.byte	48
 12133 0c6a 30       		.byte	48
 12134 0c6b 30       		.byte	48
 12135 0c6c 30       		.byte	48
 12136 0c6d 30       		.byte	48
 12137 0c6e 18       		.byte	24
 12138 0c6f 60       		.byte	96
 12139 0c70 1F       		.byte	31
 12140 0c71 E0       		.byte	-32
 12141 0c72 07       		.byte	7
 12142 0c73 80       		.byte	-128
 12143 0c74 00       		.byte	0
 12144 0c75 00       		.byte	0
 12145 0c76 00       		.byte	0
 12146 0c77 00       		.byte	0
 12147 0c78 00       		.byte	0
 12148 0c79 00       		.byte	0
 12149 0c7a 00       		.byte	0
 12150 0c7b 00       		.byte	0
 12151 0c7c 00       		.byte	0
 12152 0c7d 00       		.byte	0
 12153 0c7e 00       		.byte	0
 12154 0c7f 00       		.byte	0
 12155 0c80 00       		.byte	0
 12156 0c81 00       		.byte	0
 12157 0c82 00       		.byte	0
 12158 0c83 00       		.byte	0
 12159 0c84 00       		.byte	0
 12160 0c85 00       		.byte	0
 12161 0c86 00       		.byte	0
 12162 0c87 00       		.byte	0
 12163 0c88 00       		.byte	0
 12164 0c89 00       		.byte	0
 12165 0c8a 77       		.byte	119
 12166 0c8b 80       		.byte	-128
 12167 0c8c 7F       		.byte	127
 12168 0c8d E0       		.byte	-32
 12169 0c8e 38       		.byte	56
 12170 0c8f 60       		.byte	96
 12171 0c90 30       		.byte	48
 12172 0c91 30       		.byte	48
 12173 0c92 30       		.byte	48
 12174 0c93 30       		.byte	48
 12175 0c94 30       		.byte	48
 12176 0c95 30       		.byte	48
 12177 0c96 38       		.byte	56
 12178 0c97 60       		.byte	96
 12179 0c98 3F       		.byte	63
 12180 0c99 E0       		.byte	-32
 12181 0c9a 37       		.byte	55
 12182 0c9b 80       		.byte	-128
 12183 0c9c 30       		.byte	48
 12184 0c9d 00       		.byte	0
 12185 0c9e 30       		.byte	48
 12186 0c9f 00       		.byte	0
 12187 0ca0 7C       		.byte	124
ARM GAS  C:\Users\milek\AppData\Local\Temp\ccMSPWBt.s 			page 251


 12188 0ca1 00       		.byte	0
 12189 0ca2 7C       		.byte	124
 12190 0ca3 00       		.byte	0
 12191 0ca4 00       		.byte	0
 12192 0ca5 00       		.byte	0
 12193 0ca6 00       		.byte	0
 12194 0ca7 00       		.byte	0
 12195 0ca8 00       		.byte	0
 12196 0ca9 00       		.byte	0
 12197 0caa 00       		.byte	0
 12198 0cab 00       		.byte	0
 12199 0cac 00       		.byte	0
 12200 0cad 00       		.byte	0
 12201 0cae 00       		.byte	0
 12202 0caf 00       		.byte	0
 12203 0cb0 00       		.byte	0
 12204 0cb1 00       		.byte	0
 12205 0cb2 07       		.byte	7
 12206 0cb3 B8       		.byte	-72
 12207 0cb4 1F       		.byte	31
 12208 0cb5 F8       		.byte	-8
 12209 0cb6 18       		.byte	24
 12210 0cb7 70       		.byte	112
 12211 0cb8 30       		.byte	48
 12212 0cb9 30       		.byte	48
 12213 0cba 30       		.byte	48
 12214 0cbb 30       		.byte	48
 12215 0cbc 30       		.byte	48
 12216 0cbd 30       		.byte	48
 12217 0cbe 18       		.byte	24
 12218 0cbf 70       		.byte	112
 12219 0cc0 1F       		.byte	31
 12220 0cc1 F0       		.byte	-16
 12221 0cc2 07       		.byte	7
 12222 0cc3 B0       		.byte	-80
 12223 0cc4 00       		.byte	0
 12224 0cc5 30       		.byte	48
 12225 0cc6 00       		.byte	0
 12226 0cc7 30       		.byte	48
 12227 0cc8 00       		.byte	0
 12228 0cc9 F8       		.byte	-8
 12229 0cca 00       		.byte	0
 12230 0ccb F8       		.byte	-8
 12231 0ccc 00       		.byte	0
 12232 0ccd 00       		.byte	0
 12233 0cce 00       		.byte	0
 12234 0ccf 00       		.byte	0
 12235 0cd0 00       		.byte	0
 12236 0cd1 00       		.byte	0
 12237 0cd2 00       		.byte	0
 12238 0cd3 00       		.byte	0
 12239 0cd4 00       		.byte	0
 12240 0cd5 00       		.byte	0
 12241 0cd6 00       		.byte	0
 12242 0cd7 00       		.byte	0
 12243 0cd8 00       		.byte	0
 12244 0cd9 00       		.byte	0
ARM GAS  C:\Users\milek\AppData\Local\Temp\ccMSPWBt.s 			page 252


 12245 0cda 3C       		.byte	60
 12246 0cdb E0       		.byte	-32
 12247 0cdc 3D       		.byte	61
 12248 0cdd F0       		.byte	-16
 12249 0cde 0F       		.byte	15
 12250 0cdf 30       		.byte	48
 12251 0ce0 0E       		.byte	14
 12252 0ce1 00       		.byte	0
 12253 0ce2 0C       		.byte	12
 12254 0ce3 00       		.byte	0
 12255 0ce4 0C       		.byte	12
 12256 0ce5 00       		.byte	0
 12257 0ce6 0C       		.byte	12
 12258 0ce7 00       		.byte	0
 12259 0ce8 3F       		.byte	63
 12260 0ce9 C0       		.byte	-64
 12261 0cea 3F       		.byte	63
 12262 0ceb C0       		.byte	-64
 12263 0cec 00       		.byte	0
 12264 0ced 00       		.byte	0
 12265 0cee 00       		.byte	0
 12266 0cef 00       		.byte	0
 12267 0cf0 00       		.byte	0
 12268 0cf1 00       		.byte	0
 12269 0cf2 00       		.byte	0
 12270 0cf3 00       		.byte	0
 12271 0cf4 00       		.byte	0
 12272 0cf5 00       		.byte	0
 12273 0cf6 00       		.byte	0
 12274 0cf7 00       		.byte	0
 12275 0cf8 00       		.byte	0
 12276 0cf9 00       		.byte	0
 12277 0cfa 00       		.byte	0
 12278 0cfb 00       		.byte	0
 12279 0cfc 00       		.byte	0
 12280 0cfd 00       		.byte	0
 12281 0cfe 00       		.byte	0
 12282 0cff 00       		.byte	0
 12283 0d00 00       		.byte	0
 12284 0d01 00       		.byte	0
 12285 0d02 07       		.byte	7
 12286 0d03 E0       		.byte	-32
 12287 0d04 1F       		.byte	31
 12288 0d05 E0       		.byte	-32
 12289 0d06 18       		.byte	24
 12290 0d07 60       		.byte	96
 12291 0d08 1E       		.byte	30
 12292 0d09 00       		.byte	0
 12293 0d0a 0F       		.byte	15
 12294 0d0b C0       		.byte	-64
 12295 0d0c 01       		.byte	1
 12296 0d0d E0       		.byte	-32
 12297 0d0e 18       		.byte	24
 12298 0d0f 60       		.byte	96
 12299 0d10 1F       		.byte	31
 12300 0d11 E0       		.byte	-32
 12301 0d12 1F       		.byte	31
ARM GAS  C:\Users\milek\AppData\Local\Temp\ccMSPWBt.s 			page 253


 12302 0d13 80       		.byte	-128
 12303 0d14 00       		.byte	0
 12304 0d15 00       		.byte	0
 12305 0d16 00       		.byte	0
 12306 0d17 00       		.byte	0
 12307 0d18 00       		.byte	0
 12308 0d19 00       		.byte	0
 12309 0d1a 00       		.byte	0
 12310 0d1b 00       		.byte	0
 12311 0d1c 00       		.byte	0
 12312 0d1d 00       		.byte	0
 12313 0d1e 00       		.byte	0
 12314 0d1f 00       		.byte	0
 12315 0d20 00       		.byte	0
 12316 0d21 00       		.byte	0
 12317 0d22 00       		.byte	0
 12318 0d23 00       		.byte	0
 12319 0d24 0C       		.byte	12
 12320 0d25 00       		.byte	0
 12321 0d26 0C       		.byte	12
 12322 0d27 00       		.byte	0
 12323 0d28 0C       		.byte	12
 12324 0d29 00       		.byte	0
 12325 0d2a 3F       		.byte	63
 12326 0d2b E0       		.byte	-32
 12327 0d2c 3F       		.byte	63
 12328 0d2d E0       		.byte	-32
 12329 0d2e 0C       		.byte	12
 12330 0d2f 00       		.byte	0
 12331 0d30 0C       		.byte	12
 12332 0d31 00       		.byte	0
 12333 0d32 0C       		.byte	12
 12334 0d33 00       		.byte	0
 12335 0d34 0C       		.byte	12
 12336 0d35 00       		.byte	0
 12337 0d36 0C       		.byte	12
 12338 0d37 30       		.byte	48
 12339 0d38 0F       		.byte	15
 12340 0d39 F0       		.byte	-16
 12341 0d3a 07       		.byte	7
 12342 0d3b C0       		.byte	-64
 12343 0d3c 00       		.byte	0
 12344 0d3d 00       		.byte	0
 12345 0d3e 00       		.byte	0
 12346 0d3f 00       		.byte	0
 12347 0d40 00       		.byte	0
 12348 0d41 00       		.byte	0
 12349 0d42 00       		.byte	0
 12350 0d43 00       		.byte	0
 12351 0d44 00       		.byte	0
 12352 0d45 00       		.byte	0
 12353 0d46 00       		.byte	0
 12354 0d47 00       		.byte	0
 12355 0d48 00       		.byte	0
 12356 0d49 00       		.byte	0
 12357 0d4a 00       		.byte	0
 12358 0d4b 00       		.byte	0
ARM GAS  C:\Users\milek\AppData\Local\Temp\ccMSPWBt.s 			page 254


 12359 0d4c 00       		.byte	0
 12360 0d4d 00       		.byte	0
 12361 0d4e 00       		.byte	0
 12362 0d4f 00       		.byte	0
 12363 0d50 00       		.byte	0
 12364 0d51 00       		.byte	0
 12365 0d52 38       		.byte	56
 12366 0d53 E0       		.byte	-32
 12367 0d54 38       		.byte	56
 12368 0d55 E0       		.byte	-32
 12369 0d56 18       		.byte	24
 12370 0d57 60       		.byte	96
 12371 0d58 18       		.byte	24
 12372 0d59 60       		.byte	96
 12373 0d5a 18       		.byte	24
 12374 0d5b 60       		.byte	96
 12375 0d5c 18       		.byte	24
 12376 0d5d 60       		.byte	96
 12377 0d5e 18       		.byte	24
 12378 0d5f E0       		.byte	-32
 12379 0d60 1F       		.byte	31
 12380 0d61 F0       		.byte	-16
 12381 0d62 0F       		.byte	15
 12382 0d63 70       		.byte	112
 12383 0d64 00       		.byte	0
 12384 0d65 00       		.byte	0
 12385 0d66 00       		.byte	0
 12386 0d67 00       		.byte	0
 12387 0d68 00       		.byte	0
 12388 0d69 00       		.byte	0
 12389 0d6a 00       		.byte	0
 12390 0d6b 00       		.byte	0
 12391 0d6c 00       		.byte	0
 12392 0d6d 00       		.byte	0
 12393 0d6e 00       		.byte	0
 12394 0d6f 00       		.byte	0
 12395 0d70 00       		.byte	0
 12396 0d71 00       		.byte	0
 12397 0d72 00       		.byte	0
 12398 0d73 00       		.byte	0
 12399 0d74 00       		.byte	0
 12400 0d75 00       		.byte	0
 12401 0d76 00       		.byte	0
 12402 0d77 00       		.byte	0
 12403 0d78 00       		.byte	0
 12404 0d79 00       		.byte	0
 12405 0d7a 78       		.byte	120
 12406 0d7b F0       		.byte	-16
 12407 0d7c 78       		.byte	120
 12408 0d7d F0       		.byte	-16
 12409 0d7e 30       		.byte	48
 12410 0d7f 60       		.byte	96
 12411 0d80 18       		.byte	24
 12412 0d81 C0       		.byte	-64
 12413 0d82 18       		.byte	24
 12414 0d83 C0       		.byte	-64
 12415 0d84 0D       		.byte	13
ARM GAS  C:\Users\milek\AppData\Local\Temp\ccMSPWBt.s 			page 255


 12416 0d85 80       		.byte	-128
 12417 0d86 0D       		.byte	13
 12418 0d87 80       		.byte	-128
 12419 0d88 07       		.byte	7
 12420 0d89 00       		.byte	0
 12421 0d8a 07       		.byte	7
 12422 0d8b 00       		.byte	0
 12423 0d8c 00       		.byte	0
 12424 0d8d 00       		.byte	0
 12425 0d8e 00       		.byte	0
 12426 0d8f 00       		.byte	0
 12427 0d90 00       		.byte	0
 12428 0d91 00       		.byte	0
 12429 0d92 00       		.byte	0
 12430 0d93 00       		.byte	0
 12431 0d94 00       		.byte	0
 12432 0d95 00       		.byte	0
 12433 0d96 00       		.byte	0
 12434 0d97 00       		.byte	0
 12435 0d98 00       		.byte	0
 12436 0d99 00       		.byte	0
 12437 0d9a 00       		.byte	0
 12438 0d9b 00       		.byte	0
 12439 0d9c 00       		.byte	0
 12440 0d9d 00       		.byte	0
 12441 0d9e 00       		.byte	0
 12442 0d9f 00       		.byte	0
 12443 0da0 00       		.byte	0
 12444 0da1 00       		.byte	0
 12445 0da2 78       		.byte	120
 12446 0da3 F0       		.byte	-16
 12447 0da4 78       		.byte	120
 12448 0da5 F0       		.byte	-16
 12449 0da6 32       		.byte	50
 12450 0da7 60       		.byte	96
 12451 0da8 32       		.byte	50
 12452 0da9 60       		.byte	96
 12453 0daa 37       		.byte	55
 12454 0dab E0       		.byte	-32
 12455 0dac 1D       		.byte	29
 12456 0dad C0       		.byte	-64
 12457 0dae 1D       		.byte	29
 12458 0daf C0       		.byte	-64
 12459 0db0 18       		.byte	24
 12460 0db1 C0       		.byte	-64
 12461 0db2 18       		.byte	24
 12462 0db3 C0       		.byte	-64
 12463 0db4 00       		.byte	0
 12464 0db5 00       		.byte	0
 12465 0db6 00       		.byte	0
 12466 0db7 00       		.byte	0
 12467 0db8 00       		.byte	0
 12468 0db9 00       		.byte	0
 12469 0dba 00       		.byte	0
 12470 0dbb 00       		.byte	0
 12471 0dbc 00       		.byte	0
 12472 0dbd 00       		.byte	0
ARM GAS  C:\Users\milek\AppData\Local\Temp\ccMSPWBt.s 			page 256


 12473 0dbe 00       		.byte	0
 12474 0dbf 00       		.byte	0
 12475 0dc0 00       		.byte	0
 12476 0dc1 00       		.byte	0
 12477 0dc2 00       		.byte	0
 12478 0dc3 00       		.byte	0
 12479 0dc4 00       		.byte	0
 12480 0dc5 00       		.byte	0
 12481 0dc6 00       		.byte	0
 12482 0dc7 00       		.byte	0
 12483 0dc8 00       		.byte	0
 12484 0dc9 00       		.byte	0
 12485 0dca 3C       		.byte	60
 12486 0dcb F0       		.byte	-16
 12487 0dcc 3C       		.byte	60
 12488 0dcd F0       		.byte	-16
 12489 0dce 0C       		.byte	12
 12490 0dcf C0       		.byte	-64
 12491 0dd0 07       		.byte	7
 12492 0dd1 80       		.byte	-128
 12493 0dd2 03       		.byte	3
 12494 0dd3 00       		.byte	0
 12495 0dd4 07       		.byte	7
 12496 0dd5 80       		.byte	-128
 12497 0dd6 0C       		.byte	12
 12498 0dd7 C0       		.byte	-64
 12499 0dd8 3C       		.byte	60
 12500 0dd9 F0       		.byte	-16
 12501 0dda 3C       		.byte	60
 12502 0ddb F0       		.byte	-16
 12503 0ddc 00       		.byte	0
 12504 0ddd 00       		.byte	0
 12505 0dde 00       		.byte	0
 12506 0ddf 00       		.byte	0
 12507 0de0 00       		.byte	0
 12508 0de1 00       		.byte	0
 12509 0de2 00       		.byte	0
 12510 0de3 00       		.byte	0
 12511 0de4 00       		.byte	0
 12512 0de5 00       		.byte	0
 12513 0de6 00       		.byte	0
 12514 0de7 00       		.byte	0
 12515 0de8 00       		.byte	0
 12516 0de9 00       		.byte	0
 12517 0dea 00       		.byte	0
 12518 0deb 00       		.byte	0
 12519 0dec 00       		.byte	0
 12520 0ded 00       		.byte	0
 12521 0dee 00       		.byte	0
 12522 0def 00       		.byte	0
 12523 0df0 00       		.byte	0
 12524 0df1 00       		.byte	0
 12525 0df2 78       		.byte	120
 12526 0df3 F0       		.byte	-16
 12527 0df4 78       		.byte	120
 12528 0df5 F0       		.byte	-16
 12529 0df6 30       		.byte	48
ARM GAS  C:\Users\milek\AppData\Local\Temp\ccMSPWBt.s 			page 257


 12530 0df7 60       		.byte	96
 12531 0df8 18       		.byte	24
 12532 0df9 C0       		.byte	-64
 12533 0dfa 18       		.byte	24
 12534 0dfb C0       		.byte	-64
 12535 0dfc 0D       		.byte	13
 12536 0dfd 80       		.byte	-128
 12537 0dfe 0F       		.byte	15
 12538 0dff 80       		.byte	-128
 12539 0e00 07       		.byte	7
 12540 0e01 00       		.byte	0
 12541 0e02 06       		.byte	6
 12542 0e03 00       		.byte	0
 12543 0e04 06       		.byte	6
 12544 0e05 00       		.byte	0
 12545 0e06 0C       		.byte	12
 12546 0e07 00       		.byte	0
 12547 0e08 7F       		.byte	127
 12548 0e09 00       		.byte	0
 12549 0e0a 7F       		.byte	127
 12550 0e0b 00       		.byte	0
 12551 0e0c 00       		.byte	0
 12552 0e0d 00       		.byte	0
 12553 0e0e 00       		.byte	0
 12554 0e0f 00       		.byte	0
 12555 0e10 00       		.byte	0
 12556 0e11 00       		.byte	0
 12557 0e12 00       		.byte	0
 12558 0e13 00       		.byte	0
 12559 0e14 00       		.byte	0
 12560 0e15 00       		.byte	0
 12561 0e16 00       		.byte	0
 12562 0e17 00       		.byte	0
 12563 0e18 00       		.byte	0
 12564 0e19 00       		.byte	0
 12565 0e1a 1F       		.byte	31
 12566 0e1b E0       		.byte	-32
 12567 0e1c 1F       		.byte	31
 12568 0e1d E0       		.byte	-32
 12569 0e1e 18       		.byte	24
 12570 0e1f C0       		.byte	-64
 12571 0e20 01       		.byte	1
 12572 0e21 80       		.byte	-128
 12573 0e22 03       		.byte	3
 12574 0e23 00       		.byte	0
 12575 0e24 06       		.byte	6
 12576 0e25 00       		.byte	0
 12577 0e26 0C       		.byte	12
 12578 0e27 60       		.byte	96
 12579 0e28 1F       		.byte	31
 12580 0e29 E0       		.byte	-32
 12581 0e2a 1F       		.byte	31
 12582 0e2b E0       		.byte	-32
 12583 0e2c 00       		.byte	0
 12584 0e2d 00       		.byte	0
 12585 0e2e 00       		.byte	0
 12586 0e2f 00       		.byte	0
ARM GAS  C:\Users\milek\AppData\Local\Temp\ccMSPWBt.s 			page 258


 12587 0e30 00       		.byte	0
 12588 0e31 00       		.byte	0
 12589 0e32 00       		.byte	0
 12590 0e33 00       		.byte	0
 12591 0e34 00       		.byte	0
 12592 0e35 00       		.byte	0
 12593 0e36 00       		.byte	0
 12594 0e37 00       		.byte	0
 12595 0e38 00       		.byte	0
 12596 0e39 00       		.byte	0
 12597 0e3a 01       		.byte	1
 12598 0e3b C0       		.byte	-64
 12599 0e3c 03       		.byte	3
 12600 0e3d C0       		.byte	-64
 12601 0e3e 03       		.byte	3
 12602 0e3f 00       		.byte	0
 12603 0e40 03       		.byte	3
 12604 0e41 00       		.byte	0
 12605 0e42 03       		.byte	3
 12606 0e43 00       		.byte	0
 12607 0e44 03       		.byte	3
 12608 0e45 00       		.byte	0
 12609 0e46 03       		.byte	3
 12610 0e47 00       		.byte	0
 12611 0e48 07       		.byte	7
 12612 0e49 00       		.byte	0
 12613 0e4a 0E       		.byte	14
 12614 0e4b 00       		.byte	0
 12615 0e4c 07       		.byte	7
 12616 0e4d 00       		.byte	0
 12617 0e4e 03       		.byte	3
 12618 0e4f 00       		.byte	0
 12619 0e50 03       		.byte	3
 12620 0e51 00       		.byte	0
 12621 0e52 03       		.byte	3
 12622 0e53 00       		.byte	0
 12623 0e54 03       		.byte	3
 12624 0e55 00       		.byte	0
 12625 0e56 03       		.byte	3
 12626 0e57 C0       		.byte	-64
 12627 0e58 01       		.byte	1
 12628 0e59 C0       		.byte	-64
 12629 0e5a 00       		.byte	0
 12630 0e5b 00       		.byte	0
 12631 0e5c 00       		.byte	0
 12632 0e5d 00       		.byte	0
 12633 0e5e 00       		.byte	0
 12634 0e5f 00       		.byte	0
 12635 0e60 00       		.byte	0
 12636 0e61 00       		.byte	0
 12637 0e62 03       		.byte	3
 12638 0e63 00       		.byte	0
 12639 0e64 03       		.byte	3
 12640 0e65 00       		.byte	0
 12641 0e66 03       		.byte	3
 12642 0e67 00       		.byte	0
 12643 0e68 03       		.byte	3
ARM GAS  C:\Users\milek\AppData\Local\Temp\ccMSPWBt.s 			page 259


 12644 0e69 00       		.byte	0
 12645 0e6a 03       		.byte	3
 12646 0e6b 00       		.byte	0
 12647 0e6c 03       		.byte	3
 12648 0e6d 00       		.byte	0
 12649 0e6e 03       		.byte	3
 12650 0e6f 00       		.byte	0
 12651 0e70 03       		.byte	3
 12652 0e71 00       		.byte	0
 12653 0e72 03       		.byte	3
 12654 0e73 00       		.byte	0
 12655 0e74 03       		.byte	3
 12656 0e75 00       		.byte	0
 12657 0e76 03       		.byte	3
 12658 0e77 00       		.byte	0
 12659 0e78 03       		.byte	3
 12660 0e79 00       		.byte	0
 12661 0e7a 03       		.byte	3
 12662 0e7b 00       		.byte	0
 12663 0e7c 03       		.byte	3
 12664 0e7d 00       		.byte	0
 12665 0e7e 03       		.byte	3
 12666 0e7f 00       		.byte	0
 12667 0e80 03       		.byte	3
 12668 0e81 00       		.byte	0
 12669 0e82 00       		.byte	0
 12670 0e83 00       		.byte	0
 12671 0e84 00       		.byte	0
 12672 0e85 00       		.byte	0
 12673 0e86 00       		.byte	0
 12674 0e87 00       		.byte	0
 12675 0e88 00       		.byte	0
 12676 0e89 00       		.byte	0
 12677 0e8a 1C       		.byte	28
 12678 0e8b 00       		.byte	0
 12679 0e8c 1E       		.byte	30
 12680 0e8d 00       		.byte	0
 12681 0e8e 06       		.byte	6
 12682 0e8f 00       		.byte	0
 12683 0e90 06       		.byte	6
 12684 0e91 00       		.byte	0
 12685 0e92 06       		.byte	6
 12686 0e93 00       		.byte	0
 12687 0e94 06       		.byte	6
 12688 0e95 00       		.byte	0
 12689 0e96 06       		.byte	6
 12690 0e97 00       		.byte	0
 12691 0e98 07       		.byte	7
 12692 0e99 00       		.byte	0
 12693 0e9a 03       		.byte	3
 12694 0e9b 80       		.byte	-128
 12695 0e9c 07       		.byte	7
 12696 0e9d 00       		.byte	0
 12697 0e9e 06       		.byte	6
 12698 0e9f 00       		.byte	0
 12699 0ea0 06       		.byte	6
 12700 0ea1 00       		.byte	0
ARM GAS  C:\Users\milek\AppData\Local\Temp\ccMSPWBt.s 			page 260


 12701 0ea2 06       		.byte	6
 12702 0ea3 00       		.byte	0
 12703 0ea4 06       		.byte	6
 12704 0ea5 00       		.byte	0
 12705 0ea6 1E       		.byte	30
 12706 0ea7 00       		.byte	0
 12707 0ea8 1C       		.byte	28
 12708 0ea9 00       		.byte	0
 12709 0eaa 00       		.byte	0
 12710 0eab 00       		.byte	0
 12711 0eac 00       		.byte	0
 12712 0ead 00       		.byte	0
 12713 0eae 00       		.byte	0
 12714 0eaf 00       		.byte	0
 12715 0eb0 00       		.byte	0
 12716 0eb1 00       		.byte	0
 12717 0eb2 00       		.byte	0
 12718 0eb3 00       		.byte	0
 12719 0eb4 00       		.byte	0
 12720 0eb5 00       		.byte	0
 12721 0eb6 00       		.byte	0
 12722 0eb7 00       		.byte	0
 12723 0eb8 00       		.byte	0
 12724 0eb9 00       		.byte	0
 12725 0eba 00       		.byte	0
 12726 0ebb 00       		.byte	0
 12727 0ebc 0E       		.byte	14
 12728 0ebd 00       		.byte	0
 12729 0ebe 3F       		.byte	63
 12730 0ebf 30       		.byte	48
 12731 0ec0 33       		.byte	51
 12732 0ec1 F0       		.byte	-16
 12733 0ec2 01       		.byte	1
 12734 0ec3 E0       		.byte	-32
 12735 0ec4 00       		.byte	0
 12736 0ec5 00       		.byte	0
 12737 0ec6 00       		.byte	0
 12738 0ec7 00       		.byte	0
 12739 0ec8 00       		.byte	0
 12740 0ec9 00       		.byte	0
 12741 0eca 00       		.byte	0
 12742 0ecb 00       		.byte	0
 12743 0ecc 00       		.byte	0
 12744 0ecd 00       		.byte	0
 12745 0ece 00       		.byte	0
 12746 0ecf 00       		.byte	0
 12747 0ed0 00       		.byte	0
 12748 0ed1 00       		.byte	0
 12749 0ed2 00       		.byte	0
 12750 0ed3 00       		.byte	0
 12751 0ed4 00       		.byte	0
 12752 0ed5 00       		.byte	0
 12753 0ed6 00       		.byte	0
 12754 0ed7 00       		.byte	0
 12755              		.section	.rodata.Font24_Table,"a",%progbits
 12756              		.align	2
 12759              	Font24_Table:
ARM GAS  C:\Users\milek\AppData\Local\Temp\ccMSPWBt.s 			page 261


 12760 0000 00       		.byte	0
 12761 0001 00       		.byte	0
 12762 0002 00       		.byte	0
 12763 0003 00       		.byte	0
 12764 0004 00       		.byte	0
 12765 0005 00       		.byte	0
 12766 0006 00       		.byte	0
 12767 0007 00       		.byte	0
 12768 0008 00       		.byte	0
 12769 0009 00       		.byte	0
 12770 000a 00       		.byte	0
 12771 000b 00       		.byte	0
 12772 000c 00       		.byte	0
 12773 000d 00       		.byte	0
 12774 000e 00       		.byte	0
 12775 000f 00       		.byte	0
 12776 0010 00       		.byte	0
 12777 0011 00       		.byte	0
 12778 0012 00       		.byte	0
 12779 0013 00       		.byte	0
 12780 0014 00       		.byte	0
 12781 0015 00       		.byte	0
 12782 0016 00       		.byte	0
 12783 0017 00       		.byte	0
 12784 0018 00       		.byte	0
 12785 0019 00       		.byte	0
 12786 001a 00       		.byte	0
 12787 001b 00       		.byte	0
 12788 001c 00       		.byte	0
 12789 001d 00       		.byte	0
 12790 001e 00       		.byte	0
 12791 001f 00       		.byte	0
 12792 0020 00       		.byte	0
 12793 0021 00       		.byte	0
 12794 0022 00       		.byte	0
 12795 0023 00       		.byte	0
 12796 0024 00       		.byte	0
 12797 0025 00       		.byte	0
 12798 0026 00       		.byte	0
 12799 0027 00       		.byte	0
 12800 0028 00       		.byte	0
 12801 0029 00       		.byte	0
 12802 002a 00       		.byte	0
 12803 002b 00       		.byte	0
 12804 002c 00       		.byte	0
 12805 002d 00       		.byte	0
 12806 002e 00       		.byte	0
 12807 002f 00       		.byte	0
 12808 0030 00       		.byte	0
 12809 0031 00       		.byte	0
 12810 0032 00       		.byte	0
 12811 0033 00       		.byte	0
 12812 0034 00       		.byte	0
 12813 0035 00       		.byte	0
 12814 0036 00       		.byte	0
 12815 0037 00       		.byte	0
 12816 0038 00       		.byte	0
ARM GAS  C:\Users\milek\AppData\Local\Temp\ccMSPWBt.s 			page 262


 12817 0039 00       		.byte	0
 12818 003a 00       		.byte	0
 12819 003b 00       		.byte	0
 12820 003c 00       		.byte	0
 12821 003d 00       		.byte	0
 12822 003e 00       		.byte	0
 12823 003f 00       		.byte	0
 12824 0040 00       		.byte	0
 12825 0041 00       		.byte	0
 12826 0042 00       		.byte	0
 12827 0043 00       		.byte	0
 12828 0044 00       		.byte	0
 12829 0045 00       		.byte	0
 12830 0046 00       		.byte	0
 12831 0047 00       		.byte	0
 12832 0048 00       		.byte	0
 12833 0049 00       		.byte	0
 12834 004a 00       		.byte	0
 12835 004b 00       		.byte	0
 12836 004c 00       		.byte	0
 12837 004d 00       		.byte	0
 12838 004e 03       		.byte	3
 12839 004f 80       		.byte	-128
 12840 0050 00       		.byte	0
 12841 0051 03       		.byte	3
 12842 0052 80       		.byte	-128
 12843 0053 00       		.byte	0
 12844 0054 03       		.byte	3
 12845 0055 80       		.byte	-128
 12846 0056 00       		.byte	0
 12847 0057 03       		.byte	3
 12848 0058 80       		.byte	-128
 12849 0059 00       		.byte	0
 12850 005a 03       		.byte	3
 12851 005b 80       		.byte	-128
 12852 005c 00       		.byte	0
 12853 005d 03       		.byte	3
 12854 005e 80       		.byte	-128
 12855 005f 00       		.byte	0
 12856 0060 03       		.byte	3
 12857 0061 80       		.byte	-128
 12858 0062 00       		.byte	0
 12859 0063 03       		.byte	3
 12860 0064 80       		.byte	-128
 12861 0065 00       		.byte	0
 12862 0066 03       		.byte	3
 12863 0067 80       		.byte	-128
 12864 0068 00       		.byte	0
 12865 0069 01       		.byte	1
 12866 006a 00       		.byte	0
 12867 006b 00       		.byte	0
 12868 006c 01       		.byte	1
 12869 006d 00       		.byte	0
 12870 006e 00       		.byte	0
 12871 006f 00       		.byte	0
 12872 0070 00       		.byte	0
 12873 0071 00       		.byte	0
ARM GAS  C:\Users\milek\AppData\Local\Temp\ccMSPWBt.s 			page 263


 12874 0072 00       		.byte	0
 12875 0073 00       		.byte	0
 12876 0074 00       		.byte	0
 12877 0075 03       		.byte	3
 12878 0076 80       		.byte	-128
 12879 0077 00       		.byte	0
 12880 0078 03       		.byte	3
 12881 0079 80       		.byte	-128
 12882 007a 00       		.byte	0
 12883 007b 00       		.byte	0
 12884 007c 00       		.byte	0
 12885 007d 00       		.byte	0
 12886 007e 00       		.byte	0
 12887 007f 00       		.byte	0
 12888 0080 00       		.byte	0
 12889 0081 00       		.byte	0
 12890 0082 00       		.byte	0
 12891 0083 00       		.byte	0
 12892 0084 00       		.byte	0
 12893 0085 00       		.byte	0
 12894 0086 00       		.byte	0
 12895 0087 00       		.byte	0
 12896 0088 00       		.byte	0
 12897 0089 00       		.byte	0
 12898 008a 00       		.byte	0
 12899 008b 00       		.byte	0
 12900 008c 00       		.byte	0
 12901 008d 00       		.byte	0
 12902 008e 00       		.byte	0
 12903 008f 00       		.byte	0
 12904 0090 00       		.byte	0
 12905 0091 00       		.byte	0
 12906 0092 00       		.byte	0
 12907 0093 00       		.byte	0
 12908 0094 00       		.byte	0
 12909 0095 00       		.byte	0
 12910 0096 00       		.byte	0
 12911 0097 00       		.byte	0
 12912 0098 00       		.byte	0
 12913 0099 0E       		.byte	14
 12914 009a 70       		.byte	112
 12915 009b 00       		.byte	0
 12916 009c 0E       		.byte	14
 12917 009d 70       		.byte	112
 12918 009e 00       		.byte	0
 12919 009f 0E       		.byte	14
 12920 00a0 70       		.byte	112
 12921 00a1 00       		.byte	0
 12922 00a2 04       		.byte	4
 12923 00a3 20       		.byte	32
 12924 00a4 00       		.byte	0
 12925 00a5 04       		.byte	4
 12926 00a6 20       		.byte	32
 12927 00a7 00       		.byte	0
 12928 00a8 04       		.byte	4
 12929 00a9 20       		.byte	32
 12930 00aa 00       		.byte	0
ARM GAS  C:\Users\milek\AppData\Local\Temp\ccMSPWBt.s 			page 264


 12931 00ab 04       		.byte	4
 12932 00ac 20       		.byte	32
 12933 00ad 00       		.byte	0
 12934 00ae 00       		.byte	0
 12935 00af 00       		.byte	0
 12936 00b0 00       		.byte	0
 12937 00b1 00       		.byte	0
 12938 00b2 00       		.byte	0
 12939 00b3 00       		.byte	0
 12940 00b4 00       		.byte	0
 12941 00b5 00       		.byte	0
 12942 00b6 00       		.byte	0
 12943 00b7 00       		.byte	0
 12944 00b8 00       		.byte	0
 12945 00b9 00       		.byte	0
 12946 00ba 00       		.byte	0
 12947 00bb 00       		.byte	0
 12948 00bc 00       		.byte	0
 12949 00bd 00       		.byte	0
 12950 00be 00       		.byte	0
 12951 00bf 00       		.byte	0
 12952 00c0 00       		.byte	0
 12953 00c1 00       		.byte	0
 12954 00c2 00       		.byte	0
 12955 00c3 00       		.byte	0
 12956 00c4 00       		.byte	0
 12957 00c5 00       		.byte	0
 12958 00c6 00       		.byte	0
 12959 00c7 00       		.byte	0
 12960 00c8 00       		.byte	0
 12961 00c9 00       		.byte	0
 12962 00ca 00       		.byte	0
 12963 00cb 00       		.byte	0
 12964 00cc 00       		.byte	0
 12965 00cd 00       		.byte	0
 12966 00ce 00       		.byte	0
 12967 00cf 00       		.byte	0
 12968 00d0 00       		.byte	0
 12969 00d1 00       		.byte	0
 12970 00d2 00       		.byte	0
 12971 00d3 00       		.byte	0
 12972 00d4 00       		.byte	0
 12973 00d5 00       		.byte	0
 12974 00d6 00       		.byte	0
 12975 00d7 00       		.byte	0
 12976 00d8 00       		.byte	0
 12977 00d9 00       		.byte	0
 12978 00da 00       		.byte	0
 12979 00db 00       		.byte	0
 12980 00dc 00       		.byte	0
 12981 00dd 00       		.byte	0
 12982 00de 06       		.byte	6
 12983 00df 60       		.byte	96
 12984 00e0 00       		.byte	0
 12985 00e1 06       		.byte	6
 12986 00e2 60       		.byte	96
 12987 00e3 00       		.byte	0
ARM GAS  C:\Users\milek\AppData\Local\Temp\ccMSPWBt.s 			page 265


 12988 00e4 06       		.byte	6
 12989 00e5 60       		.byte	96
 12990 00e6 00       		.byte	0
 12991 00e7 06       		.byte	6
 12992 00e8 60       		.byte	96
 12993 00e9 00       		.byte	0
 12994 00ea 06       		.byte	6
 12995 00eb 60       		.byte	96
 12996 00ec 00       		.byte	0
 12997 00ed 3F       		.byte	63
 12998 00ee F8       		.byte	-8
 12999 00ef 00       		.byte	0
 13000 00f0 3F       		.byte	63
 13001 00f1 F8       		.byte	-8
 13002 00f2 00       		.byte	0
 13003 00f3 06       		.byte	6
 13004 00f4 60       		.byte	96
 13005 00f5 00       		.byte	0
 13006 00f6 0C       		.byte	12
 13007 00f7 C0       		.byte	-64
 13008 00f8 00       		.byte	0
 13009 00f9 3F       		.byte	63
 13010 00fa F8       		.byte	-8
 13011 00fb 00       		.byte	0
 13012 00fc 3F       		.byte	63
 13013 00fd F8       		.byte	-8
 13014 00fe 00       		.byte	0
 13015 00ff 0C       		.byte	12
 13016 0100 C0       		.byte	-64
 13017 0101 00       		.byte	0
 13018 0102 0C       		.byte	12
 13019 0103 C0       		.byte	-64
 13020 0104 00       		.byte	0
 13021 0105 0C       		.byte	12
 13022 0106 C0       		.byte	-64
 13023 0107 00       		.byte	0
 13024 0108 0C       		.byte	12
 13025 0109 C0       		.byte	-64
 13026 010a 00       		.byte	0
 13027 010b 0C       		.byte	12
 13028 010c C0       		.byte	-64
 13029 010d 00       		.byte	0
 13030 010e 00       		.byte	0
 13031 010f 00       		.byte	0
 13032 0110 00       		.byte	0
 13033 0111 00       		.byte	0
 13034 0112 00       		.byte	0
 13035 0113 00       		.byte	0
 13036 0114 00       		.byte	0
 13037 0115 00       		.byte	0
 13038 0116 00       		.byte	0
 13039 0117 00       		.byte	0
 13040 0118 00       		.byte	0
 13041 0119 00       		.byte	0
 13042 011a 00       		.byte	0
 13043 011b 00       		.byte	0
 13044 011c 00       		.byte	0
ARM GAS  C:\Users\milek\AppData\Local\Temp\ccMSPWBt.s 			page 266


 13045 011d 00       		.byte	0
 13046 011e 00       		.byte	0
 13047 011f 00       		.byte	0
 13048 0120 00       		.byte	0
 13049 0121 00       		.byte	0
 13050 0122 00       		.byte	0
 13051 0123 01       		.byte	1
 13052 0124 80       		.byte	-128
 13053 0125 00       		.byte	0
 13054 0126 01       		.byte	1
 13055 0127 80       		.byte	-128
 13056 0128 00       		.byte	0
 13057 0129 07       		.byte	7
 13058 012a B0       		.byte	-80
 13059 012b 00       		.byte	0
 13060 012c 0F       		.byte	15
 13061 012d F0       		.byte	-16
 13062 012e 00       		.byte	0
 13063 012f 18       		.byte	24
 13064 0130 70       		.byte	112
 13065 0131 00       		.byte	0
 13066 0132 18       		.byte	24
 13067 0133 70       		.byte	112
 13068 0134 00       		.byte	0
 13069 0135 1C       		.byte	28
 13070 0136 00       		.byte	0
 13071 0137 00       		.byte	0
 13072 0138 0F       		.byte	15
 13073 0139 80       		.byte	-128
 13074 013a 00       		.byte	0
 13075 013b 07       		.byte	7
 13076 013c E0       		.byte	-32
 13077 013d 00       		.byte	0
 13078 013e 00       		.byte	0
 13079 013f F0       		.byte	-16
 13080 0140 00       		.byte	0
 13081 0141 18       		.byte	24
 13082 0142 30       		.byte	48
 13083 0143 00       		.byte	0
 13084 0144 1C       		.byte	28
 13085 0145 30       		.byte	48
 13086 0146 00       		.byte	0
 13087 0147 1C       		.byte	28
 13088 0148 70       		.byte	112
 13089 0149 00       		.byte	0
 13090 014a 1F       		.byte	31
 13091 014b E0       		.byte	-32
 13092 014c 00       		.byte	0
 13093 014d 1B       		.byte	27
 13094 014e C0       		.byte	-64
 13095 014f 00       		.byte	0
 13096 0150 01       		.byte	1
 13097 0151 80       		.byte	-128
 13098 0152 00       		.byte	0
 13099 0153 01       		.byte	1
 13100 0154 80       		.byte	-128
 13101 0155 00       		.byte	0
ARM GAS  C:\Users\milek\AppData\Local\Temp\ccMSPWBt.s 			page 267


 13102 0156 01       		.byte	1
 13103 0157 80       		.byte	-128
 13104 0158 00       		.byte	0
 13105 0159 01       		.byte	1
 13106 015a 80       		.byte	-128
 13107 015b 00       		.byte	0
 13108 015c 00       		.byte	0
 13109 015d 00       		.byte	0
 13110 015e 00       		.byte	0
 13111 015f 00       		.byte	0
 13112 0160 00       		.byte	0
 13113 0161 00       		.byte	0
 13114 0162 00       		.byte	0
 13115 0163 00       		.byte	0
 13116 0164 00       		.byte	0
 13117 0165 00       		.byte	0
 13118 0166 00       		.byte	0
 13119 0167 00       		.byte	0
 13120 0168 00       		.byte	0
 13121 0169 00       		.byte	0
 13122 016a 00       		.byte	0
 13123 016b 00       		.byte	0
 13124 016c 00       		.byte	0
 13125 016d 00       		.byte	0
 13126 016e 07       		.byte	7
 13127 016f 80       		.byte	-128
 13128 0170 00       		.byte	0
 13129 0171 0F       		.byte	15
 13130 0172 C0       		.byte	-64
 13131 0173 00       		.byte	0
 13132 0174 1C       		.byte	28
 13133 0175 E0       		.byte	-32
 13134 0176 00       		.byte	0
 13135 0177 18       		.byte	24
 13136 0178 60       		.byte	96
 13137 0179 00       		.byte	0
 13138 017a 18       		.byte	24
 13139 017b 60       		.byte	96
 13140 017c 00       		.byte	0
 13141 017d 1C       		.byte	28
 13142 017e E0       		.byte	-32
 13143 017f 00       		.byte	0
 13144 0180 0F       		.byte	15
 13145 0181 F8       		.byte	-8
 13146 0182 00       		.byte	0
 13147 0183 07       		.byte	7
 13148 0184 E0       		.byte	-32
 13149 0185 00       		.byte	0
 13150 0186 1F       		.byte	31
 13151 0187 F0       		.byte	-16
 13152 0188 00       		.byte	0
 13153 0189 07       		.byte	7
 13154 018a 38       		.byte	56
 13155 018b 00       		.byte	0
 13156 018c 06       		.byte	6
 13157 018d 18       		.byte	24
 13158 018e 00       		.byte	0
ARM GAS  C:\Users\milek\AppData\Local\Temp\ccMSPWBt.s 			page 268


 13159 018f 06       		.byte	6
 13160 0190 18       		.byte	24
 13161 0191 00       		.byte	0
 13162 0192 07       		.byte	7
 13163 0193 38       		.byte	56
 13164 0194 00       		.byte	0
 13165 0195 03       		.byte	3
 13166 0196 F0       		.byte	-16
 13167 0197 00       		.byte	0
 13168 0198 01       		.byte	1
 13169 0199 E0       		.byte	-32
 13170 019a 00       		.byte	0
 13171 019b 00       		.byte	0
 13172 019c 00       		.byte	0
 13173 019d 00       		.byte	0
 13174 019e 00       		.byte	0
 13175 019f 00       		.byte	0
 13176 01a0 00       		.byte	0
 13177 01a1 00       		.byte	0
 13178 01a2 00       		.byte	0
 13179 01a3 00       		.byte	0
 13180 01a4 00       		.byte	0
 13181 01a5 00       		.byte	0
 13182 01a6 00       		.byte	0
 13183 01a7 00       		.byte	0
 13184 01a8 00       		.byte	0
 13185 01a9 00       		.byte	0
 13186 01aa 00       		.byte	0
 13187 01ab 00       		.byte	0
 13188 01ac 00       		.byte	0
 13189 01ad 00       		.byte	0
 13190 01ae 00       		.byte	0
 13191 01af 00       		.byte	0
 13192 01b0 00       		.byte	0
 13193 01b1 00       		.byte	0
 13194 01b2 00       		.byte	0
 13195 01b3 00       		.byte	0
 13196 01b4 00       		.byte	0
 13197 01b5 00       		.byte	0
 13198 01b6 00       		.byte	0
 13199 01b7 00       		.byte	0
 13200 01b8 00       		.byte	0
 13201 01b9 00       		.byte	0
 13202 01ba 00       		.byte	0
 13203 01bb 00       		.byte	0
 13204 01bc 03       		.byte	3
 13205 01bd F0       		.byte	-16
 13206 01be 00       		.byte	0
 13207 01bf 07       		.byte	7
 13208 01c0 F0       		.byte	-16
 13209 01c1 00       		.byte	0
 13210 01c2 0C       		.byte	12
 13211 01c3 60       		.byte	96
 13212 01c4 00       		.byte	0
 13213 01c5 0C       		.byte	12
 13214 01c6 00       		.byte	0
 13215 01c7 00       		.byte	0
ARM GAS  C:\Users\milek\AppData\Local\Temp\ccMSPWBt.s 			page 269


 13216 01c8 0C       		.byte	12
 13217 01c9 00       		.byte	0
 13218 01ca 00       		.byte	0
 13219 01cb 06       		.byte	6
 13220 01cc 00       		.byte	0
 13221 01cd 00       		.byte	0
 13222 01ce 07       		.byte	7
 13223 01cf 00       		.byte	0
 13224 01d0 00       		.byte	0
 13225 01d1 0F       		.byte	15
 13226 01d2 9C       		.byte	-100
 13227 01d3 00       		.byte	0
 13228 01d4 1D       		.byte	29
 13229 01d5 FC       		.byte	-4
 13230 01d6 00       		.byte	0
 13231 01d7 18       		.byte	24
 13232 01d8 F0       		.byte	-16
 13233 01d9 00       		.byte	0
 13234 01da 18       		.byte	24
 13235 01db 70       		.byte	112
 13236 01dc 00       		.byte	0
 13237 01dd 0F       		.byte	15
 13238 01de FC       		.byte	-4
 13239 01df 00       		.byte	0
 13240 01e0 07       		.byte	7
 13241 01e1 DC       		.byte	-36
 13242 01e2 00       		.byte	0
 13243 01e3 00       		.byte	0
 13244 01e4 00       		.byte	0
 13245 01e5 00       		.byte	0
 13246 01e6 00       		.byte	0
 13247 01e7 00       		.byte	0
 13248 01e8 00       		.byte	0
 13249 01e9 00       		.byte	0
 13250 01ea 00       		.byte	0
 13251 01eb 00       		.byte	0
 13252 01ec 00       		.byte	0
 13253 01ed 00       		.byte	0
 13254 01ee 00       		.byte	0
 13255 01ef 00       		.byte	0
 13256 01f0 00       		.byte	0
 13257 01f1 00       		.byte	0
 13258 01f2 00       		.byte	0
 13259 01f3 00       		.byte	0
 13260 01f4 00       		.byte	0
 13261 01f5 00       		.byte	0
 13262 01f6 00       		.byte	0
 13263 01f7 00       		.byte	0
 13264 01f8 00       		.byte	0
 13265 01f9 00       		.byte	0
 13266 01fa 00       		.byte	0
 13267 01fb 00       		.byte	0
 13268 01fc 00       		.byte	0
 13269 01fd 00       		.byte	0
 13270 01fe 00       		.byte	0
 13271 01ff 00       		.byte	0
 13272 0200 00       		.byte	0
ARM GAS  C:\Users\milek\AppData\Local\Temp\ccMSPWBt.s 			page 270


 13273 0201 03       		.byte	3
 13274 0202 80       		.byte	-128
 13275 0203 00       		.byte	0
 13276 0204 03       		.byte	3
 13277 0205 80       		.byte	-128
 13278 0206 00       		.byte	0
 13279 0207 03       		.byte	3
 13280 0208 80       		.byte	-128
 13281 0209 00       		.byte	0
 13282 020a 01       		.byte	1
 13283 020b 00       		.byte	0
 13284 020c 00       		.byte	0
 13285 020d 01       		.byte	1
 13286 020e 00       		.byte	0
 13287 020f 00       		.byte	0
 13288 0210 01       		.byte	1
 13289 0211 00       		.byte	0
 13290 0212 00       		.byte	0
 13291 0213 01       		.byte	1
 13292 0214 00       		.byte	0
 13293 0215 00       		.byte	0
 13294 0216 00       		.byte	0
 13295 0217 00       		.byte	0
 13296 0218 00       		.byte	0
 13297 0219 00       		.byte	0
 13298 021a 00       		.byte	0
 13299 021b 00       		.byte	0
 13300 021c 00       		.byte	0
 13301 021d 00       		.byte	0
 13302 021e 00       		.byte	0
 13303 021f 00       		.byte	0
 13304 0220 00       		.byte	0
 13305 0221 00       		.byte	0
 13306 0222 00       		.byte	0
 13307 0223 00       		.byte	0
 13308 0224 00       		.byte	0
 13309 0225 00       		.byte	0
 13310 0226 00       		.byte	0
 13311 0227 00       		.byte	0
 13312 0228 00       		.byte	0
 13313 0229 00       		.byte	0
 13314 022a 00       		.byte	0
 13315 022b 00       		.byte	0
 13316 022c 00       		.byte	0
 13317 022d 00       		.byte	0
 13318 022e 00       		.byte	0
 13319 022f 00       		.byte	0
 13320 0230 00       		.byte	0
 13321 0231 00       		.byte	0
 13322 0232 00       		.byte	0
 13323 0233 00       		.byte	0
 13324 0234 00       		.byte	0
 13325 0235 00       		.byte	0
 13326 0236 00       		.byte	0
 13327 0237 00       		.byte	0
 13328 0238 00       		.byte	0
 13329 0239 00       		.byte	0
ARM GAS  C:\Users\milek\AppData\Local\Temp\ccMSPWBt.s 			page 271


 13330 023a 00       		.byte	0
 13331 023b 00       		.byte	0
 13332 023c 00       		.byte	0
 13333 023d 00       		.byte	0
 13334 023e 00       		.byte	0
 13335 023f 00       		.byte	0
 13336 0240 00       		.byte	0
 13337 0241 00       		.byte	0
 13338 0242 00       		.byte	0
 13339 0243 00       		.byte	0
 13340 0244 00       		.byte	0
 13341 0245 00       		.byte	0
 13342 0246 00       		.byte	0
 13343 0247 18       		.byte	24
 13344 0248 00       		.byte	0
 13345 0249 00       		.byte	0
 13346 024a 38       		.byte	56
 13347 024b 00       		.byte	0
 13348 024c 00       		.byte	0
 13349 024d 70       		.byte	112
 13350 024e 00       		.byte	0
 13351 024f 00       		.byte	0
 13352 0250 F0       		.byte	-16
 13353 0251 00       		.byte	0
 13354 0252 00       		.byte	0
 13355 0253 E0       		.byte	-32
 13356 0254 00       		.byte	0
 13357 0255 00       		.byte	0
 13358 0256 E0       		.byte	-32
 13359 0257 00       		.byte	0
 13360 0258 01       		.byte	1
 13361 0259 C0       		.byte	-64
 13362 025a 00       		.byte	0
 13363 025b 01       		.byte	1
 13364 025c C0       		.byte	-64
 13365 025d 00       		.byte	0
 13366 025e 01       		.byte	1
 13367 025f C0       		.byte	-64
 13368 0260 00       		.byte	0
 13369 0261 01       		.byte	1
 13370 0262 C0       		.byte	-64
 13371 0263 00       		.byte	0
 13372 0264 01       		.byte	1
 13373 0265 C0       		.byte	-64
 13374 0266 00       		.byte	0
 13375 0267 01       		.byte	1
 13376 0268 C0       		.byte	-64
 13377 0269 00       		.byte	0
 13378 026a 00       		.byte	0
 13379 026b E0       		.byte	-32
 13380 026c 00       		.byte	0
 13381 026d 00       		.byte	0
 13382 026e E0       		.byte	-32
 13383 026f 00       		.byte	0
 13384 0270 00       		.byte	0
 13385 0271 70       		.byte	112
 13386 0272 00       		.byte	0
ARM GAS  C:\Users\milek\AppData\Local\Temp\ccMSPWBt.s 			page 272


 13387 0273 00       		.byte	0
 13388 0274 70       		.byte	112
 13389 0275 00       		.byte	0
 13390 0276 00       		.byte	0
 13391 0277 38       		.byte	56
 13392 0278 00       		.byte	0
 13393 0279 00       		.byte	0
 13394 027a 18       		.byte	24
 13395 027b 00       		.byte	0
 13396 027c 00       		.byte	0
 13397 027d 00       		.byte	0
 13398 027e 00       		.byte	0
 13399 027f 00       		.byte	0
 13400 0280 00       		.byte	0
 13401 0281 00       		.byte	0
 13402 0282 00       		.byte	0
 13403 0283 00       		.byte	0
 13404 0284 00       		.byte	0
 13405 0285 00       		.byte	0
 13406 0286 00       		.byte	0
 13407 0287 00       		.byte	0
 13408 0288 00       		.byte	0
 13409 0289 00       		.byte	0
 13410 028a 00       		.byte	0
 13411 028b 00       		.byte	0
 13412 028c 00       		.byte	0
 13413 028d 00       		.byte	0
 13414 028e 18       		.byte	24
 13415 028f 00       		.byte	0
 13416 0290 00       		.byte	0
 13417 0291 1C       		.byte	28
 13418 0292 00       		.byte	0
 13419 0293 00       		.byte	0
 13420 0294 0E       		.byte	14
 13421 0295 00       		.byte	0
 13422 0296 00       		.byte	0
 13423 0297 0E       		.byte	14
 13424 0298 00       		.byte	0
 13425 0299 00       		.byte	0
 13426 029a 07       		.byte	7
 13427 029b 00       		.byte	0
 13428 029c 00       		.byte	0
 13429 029d 07       		.byte	7
 13430 029e 00       		.byte	0
 13431 029f 00       		.byte	0
 13432 02a0 03       		.byte	3
 13433 02a1 80       		.byte	-128
 13434 02a2 00       		.byte	0
 13435 02a3 03       		.byte	3
 13436 02a4 80       		.byte	-128
 13437 02a5 00       		.byte	0
 13438 02a6 03       		.byte	3
 13439 02a7 80       		.byte	-128
 13440 02a8 00       		.byte	0
 13441 02a9 03       		.byte	3
 13442 02aa 80       		.byte	-128
 13443 02ab 00       		.byte	0
ARM GAS  C:\Users\milek\AppData\Local\Temp\ccMSPWBt.s 			page 273


 13444 02ac 03       		.byte	3
 13445 02ad 80       		.byte	-128
 13446 02ae 00       		.byte	0
 13447 02af 03       		.byte	3
 13448 02b0 80       		.byte	-128
 13449 02b1 00       		.byte	0
 13450 02b2 07       		.byte	7
 13451 02b3 00       		.byte	0
 13452 02b4 00       		.byte	0
 13453 02b5 07       		.byte	7
 13454 02b6 00       		.byte	0
 13455 02b7 00       		.byte	0
 13456 02b8 0F       		.byte	15
 13457 02b9 00       		.byte	0
 13458 02ba 00       		.byte	0
 13459 02bb 0E       		.byte	14
 13460 02bc 00       		.byte	0
 13461 02bd 00       		.byte	0
 13462 02be 1C       		.byte	28
 13463 02bf 00       		.byte	0
 13464 02c0 00       		.byte	0
 13465 02c1 18       		.byte	24
 13466 02c2 00       		.byte	0
 13467 02c3 00       		.byte	0
 13468 02c4 00       		.byte	0
 13469 02c5 00       		.byte	0
 13470 02c6 00       		.byte	0
 13471 02c7 00       		.byte	0
 13472 02c8 00       		.byte	0
 13473 02c9 00       		.byte	0
 13474 02ca 00       		.byte	0
 13475 02cb 00       		.byte	0
 13476 02cc 00       		.byte	0
 13477 02cd 00       		.byte	0
 13478 02ce 00       		.byte	0
 13479 02cf 00       		.byte	0
 13480 02d0 00       		.byte	0
 13481 02d1 00       		.byte	0
 13482 02d2 00       		.byte	0
 13483 02d3 00       		.byte	0
 13484 02d4 00       		.byte	0
 13485 02d5 00       		.byte	0
 13486 02d6 01       		.byte	1
 13487 02d7 80       		.byte	-128
 13488 02d8 00       		.byte	0
 13489 02d9 01       		.byte	1
 13490 02da 80       		.byte	-128
 13491 02db 00       		.byte	0
 13492 02dc 01       		.byte	1
 13493 02dd 80       		.byte	-128
 13494 02de 00       		.byte	0
 13495 02df 1D       		.byte	29
 13496 02e0 B8       		.byte	-72
 13497 02e1 00       		.byte	0
 13498 02e2 1F       		.byte	31
 13499 02e3 F8       		.byte	-8
 13500 02e4 00       		.byte	0
ARM GAS  C:\Users\milek\AppData\Local\Temp\ccMSPWBt.s 			page 274


 13501 02e5 07       		.byte	7
 13502 02e6 E0       		.byte	-32
 13503 02e7 00       		.byte	0
 13504 02e8 03       		.byte	3
 13505 02e9 C0       		.byte	-64
 13506 02ea 00       		.byte	0
 13507 02eb 03       		.byte	3
 13508 02ec C0       		.byte	-64
 13509 02ed 00       		.byte	0
 13510 02ee 06       		.byte	6
 13511 02ef 60       		.byte	96
 13512 02f0 00       		.byte	0
 13513 02f1 06       		.byte	6
 13514 02f2 60       		.byte	96
 13515 02f3 00       		.byte	0
 13516 02f4 00       		.byte	0
 13517 02f5 00       		.byte	0
 13518 02f6 00       		.byte	0
 13519 02f7 00       		.byte	0
 13520 02f8 00       		.byte	0
 13521 02f9 00       		.byte	0
 13522 02fa 00       		.byte	0
 13523 02fb 00       		.byte	0
 13524 02fc 00       		.byte	0
 13525 02fd 00       		.byte	0
 13526 02fe 00       		.byte	0
 13527 02ff 00       		.byte	0
 13528 0300 00       		.byte	0
 13529 0301 00       		.byte	0
 13530 0302 00       		.byte	0
 13531 0303 00       		.byte	0
 13532 0304 00       		.byte	0
 13533 0305 00       		.byte	0
 13534 0306 00       		.byte	0
 13535 0307 00       		.byte	0
 13536 0308 00       		.byte	0
 13537 0309 00       		.byte	0
 13538 030a 00       		.byte	0
 13539 030b 00       		.byte	0
 13540 030c 00       		.byte	0
 13541 030d 00       		.byte	0
 13542 030e 00       		.byte	0
 13543 030f 00       		.byte	0
 13544 0310 00       		.byte	0
 13545 0311 00       		.byte	0
 13546 0312 00       		.byte	0
 13547 0313 00       		.byte	0
 13548 0314 00       		.byte	0
 13549 0315 00       		.byte	0
 13550 0316 00       		.byte	0
 13551 0317 00       		.byte	0
 13552 0318 00       		.byte	0
 13553 0319 00       		.byte	0
 13554 031a 00       		.byte	0
 13555 031b 00       		.byte	0
 13556 031c 00       		.byte	0
 13557 031d 00       		.byte	0
ARM GAS  C:\Users\milek\AppData\Local\Temp\ccMSPWBt.s 			page 275


 13558 031e 00       		.byte	0
 13559 031f 00       		.byte	0
 13560 0320 00       		.byte	0
 13561 0321 00       		.byte	0
 13562 0322 00       		.byte	0
 13563 0323 00       		.byte	0
 13564 0324 01       		.byte	1
 13565 0325 80       		.byte	-128
 13566 0326 00       		.byte	0
 13567 0327 01       		.byte	1
 13568 0328 80       		.byte	-128
 13569 0329 00       		.byte	0
 13570 032a 01       		.byte	1
 13571 032b 80       		.byte	-128
 13572 032c 00       		.byte	0
 13573 032d 01       		.byte	1
 13574 032e 80       		.byte	-128
 13575 032f 00       		.byte	0
 13576 0330 01       		.byte	1
 13577 0331 80       		.byte	-128
 13578 0332 00       		.byte	0
 13579 0333 3F       		.byte	63
 13580 0334 FC       		.byte	-4
 13581 0335 00       		.byte	0
 13582 0336 3F       		.byte	63
 13583 0337 FC       		.byte	-4
 13584 0338 00       		.byte	0
 13585 0339 01       		.byte	1
 13586 033a 80       		.byte	-128
 13587 033b 00       		.byte	0
 13588 033c 01       		.byte	1
 13589 033d 80       		.byte	-128
 13590 033e 00       		.byte	0
 13591 033f 01       		.byte	1
 13592 0340 80       		.byte	-128
 13593 0341 00       		.byte	0
 13594 0342 01       		.byte	1
 13595 0343 80       		.byte	-128
 13596 0344 00       		.byte	0
 13597 0345 01       		.byte	1
 13598 0346 80       		.byte	-128
 13599 0347 00       		.byte	0
 13600 0348 00       		.byte	0
 13601 0349 00       		.byte	0
 13602 034a 00       		.byte	0
 13603 034b 00       		.byte	0
 13604 034c 00       		.byte	0
 13605 034d 00       		.byte	0
 13606 034e 00       		.byte	0
 13607 034f 00       		.byte	0
 13608 0350 00       		.byte	0
 13609 0351 00       		.byte	0
 13610 0352 00       		.byte	0
 13611 0353 00       		.byte	0
 13612 0354 00       		.byte	0
 13613 0355 00       		.byte	0
 13614 0356 00       		.byte	0
ARM GAS  C:\Users\milek\AppData\Local\Temp\ccMSPWBt.s 			page 276


 13615 0357 00       		.byte	0
 13616 0358 00       		.byte	0
 13617 0359 00       		.byte	0
 13618 035a 00       		.byte	0
 13619 035b 00       		.byte	0
 13620 035c 00       		.byte	0
 13621 035d 00       		.byte	0
 13622 035e 00       		.byte	0
 13623 035f 00       		.byte	0
 13624 0360 00       		.byte	0
 13625 0361 00       		.byte	0
 13626 0362 00       		.byte	0
 13627 0363 00       		.byte	0
 13628 0364 00       		.byte	0
 13629 0365 00       		.byte	0
 13630 0366 00       		.byte	0
 13631 0367 00       		.byte	0
 13632 0368 00       		.byte	0
 13633 0369 00       		.byte	0
 13634 036a 00       		.byte	0
 13635 036b 00       		.byte	0
 13636 036c 00       		.byte	0
 13637 036d 00       		.byte	0
 13638 036e 00       		.byte	0
 13639 036f 00       		.byte	0
 13640 0370 00       		.byte	0
 13641 0371 00       		.byte	0
 13642 0372 00       		.byte	0
 13643 0373 00       		.byte	0
 13644 0374 00       		.byte	0
 13645 0375 00       		.byte	0
 13646 0376 00       		.byte	0
 13647 0377 00       		.byte	0
 13648 0378 00       		.byte	0
 13649 0379 00       		.byte	0
 13650 037a 00       		.byte	0
 13651 037b 00       		.byte	0
 13652 037c 00       		.byte	0
 13653 037d 00       		.byte	0
 13654 037e 00       		.byte	0
 13655 037f 00       		.byte	0
 13656 0380 00       		.byte	0
 13657 0381 00       		.byte	0
 13658 0382 00       		.byte	0
 13659 0383 00       		.byte	0
 13660 0384 00       		.byte	0
 13661 0385 00       		.byte	0
 13662 0386 00       		.byte	0
 13663 0387 00       		.byte	0
 13664 0388 00       		.byte	0
 13665 0389 00       		.byte	0
 13666 038a 00       		.byte	0
 13667 038b E0       		.byte	-32
 13668 038c 00       		.byte	0
 13669 038d 00       		.byte	0
 13670 038e C0       		.byte	-64
 13671 038f 00       		.byte	0
ARM GAS  C:\Users\milek\AppData\Local\Temp\ccMSPWBt.s 			page 277


 13672 0390 01       		.byte	1
 13673 0391 C0       		.byte	-64
 13674 0392 00       		.byte	0
 13675 0393 01       		.byte	1
 13676 0394 80       		.byte	-128
 13677 0395 00       		.byte	0
 13678 0396 01       		.byte	1
 13679 0397 80       		.byte	-128
 13680 0398 00       		.byte	0
 13681 0399 03       		.byte	3
 13682 039a 00       		.byte	0
 13683 039b 00       		.byte	0
 13684 039c 03       		.byte	3
 13685 039d 00       		.byte	0
 13686 039e 00       		.byte	0
 13687 039f 00       		.byte	0
 13688 03a0 00       		.byte	0
 13689 03a1 00       		.byte	0
 13690 03a2 00       		.byte	0
 13691 03a3 00       		.byte	0
 13692 03a4 00       		.byte	0
 13693 03a5 00       		.byte	0
 13694 03a6 00       		.byte	0
 13695 03a7 00       		.byte	0
 13696 03a8 00       		.byte	0
 13697 03a9 00       		.byte	0
 13698 03aa 00       		.byte	0
 13699 03ab 00       		.byte	0
 13700 03ac 00       		.byte	0
 13701 03ad 00       		.byte	0
 13702 03ae 00       		.byte	0
 13703 03af 00       		.byte	0
 13704 03b0 00       		.byte	0
 13705 03b1 00       		.byte	0
 13706 03b2 00       		.byte	0
 13707 03b3 00       		.byte	0
 13708 03b4 00       		.byte	0
 13709 03b5 00       		.byte	0
 13710 03b6 00       		.byte	0
 13711 03b7 00       		.byte	0
 13712 03b8 00       		.byte	0
 13713 03b9 00       		.byte	0
 13714 03ba 00       		.byte	0
 13715 03bb 00       		.byte	0
 13716 03bc 00       		.byte	0
 13717 03bd 00       		.byte	0
 13718 03be 00       		.byte	0
 13719 03bf 00       		.byte	0
 13720 03c0 00       		.byte	0
 13721 03c1 00       		.byte	0
 13722 03c2 00       		.byte	0
 13723 03c3 1F       		.byte	31
 13724 03c4 F8       		.byte	-8
 13725 03c5 00       		.byte	0
 13726 03c6 1F       		.byte	31
 13727 03c7 F8       		.byte	-8
 13728 03c8 00       		.byte	0
ARM GAS  C:\Users\milek\AppData\Local\Temp\ccMSPWBt.s 			page 278


 13729 03c9 00       		.byte	0
 13730 03ca 00       		.byte	0
 13731 03cb 00       		.byte	0
 13732 03cc 00       		.byte	0
 13733 03cd 00       		.byte	0
 13734 03ce 00       		.byte	0
 13735 03cf 00       		.byte	0
 13736 03d0 00       		.byte	0
 13737 03d1 00       		.byte	0
 13738 03d2 00       		.byte	0
 13739 03d3 00       		.byte	0
 13740 03d4 00       		.byte	0
 13741 03d5 00       		.byte	0
 13742 03d6 00       		.byte	0
 13743 03d7 00       		.byte	0
 13744 03d8 00       		.byte	0
 13745 03d9 00       		.byte	0
 13746 03da 00       		.byte	0
 13747 03db 00       		.byte	0
 13748 03dc 00       		.byte	0
 13749 03dd 00       		.byte	0
 13750 03de 00       		.byte	0
 13751 03df 00       		.byte	0
 13752 03e0 00       		.byte	0
 13753 03e1 00       		.byte	0
 13754 03e2 00       		.byte	0
 13755 03e3 00       		.byte	0
 13756 03e4 00       		.byte	0
 13757 03e5 00       		.byte	0
 13758 03e6 00       		.byte	0
 13759 03e7 00       		.byte	0
 13760 03e8 00       		.byte	0
 13761 03e9 00       		.byte	0
 13762 03ea 00       		.byte	0
 13763 03eb 00       		.byte	0
 13764 03ec 00       		.byte	0
 13765 03ed 00       		.byte	0
 13766 03ee 00       		.byte	0
 13767 03ef 00       		.byte	0
 13768 03f0 00       		.byte	0
 13769 03f1 00       		.byte	0
 13770 03f2 00       		.byte	0
 13771 03f3 00       		.byte	0
 13772 03f4 00       		.byte	0
 13773 03f5 00       		.byte	0
 13774 03f6 00       		.byte	0
 13775 03f7 00       		.byte	0
 13776 03f8 00       		.byte	0
 13777 03f9 00       		.byte	0
 13778 03fa 00       		.byte	0
 13779 03fb 00       		.byte	0
 13780 03fc 00       		.byte	0
 13781 03fd 00       		.byte	0
 13782 03fe 00       		.byte	0
 13783 03ff 00       		.byte	0
 13784 0400 00       		.byte	0
 13785 0401 00       		.byte	0
ARM GAS  C:\Users\milek\AppData\Local\Temp\ccMSPWBt.s 			page 279


 13786 0402 00       		.byte	0
 13787 0403 00       		.byte	0
 13788 0404 00       		.byte	0
 13789 0405 00       		.byte	0
 13790 0406 00       		.byte	0
 13791 0407 00       		.byte	0
 13792 0408 00       		.byte	0
 13793 0409 00       		.byte	0
 13794 040a 00       		.byte	0
 13795 040b 00       		.byte	0
 13796 040c 00       		.byte	0
 13797 040d 00       		.byte	0
 13798 040e 00       		.byte	0
 13799 040f 00       		.byte	0
 13800 0410 00       		.byte	0
 13801 0411 00       		.byte	0
 13802 0412 00       		.byte	0
 13803 0413 00       		.byte	0
 13804 0414 00       		.byte	0
 13805 0415 00       		.byte	0
 13806 0416 00       		.byte	0
 13807 0417 00       		.byte	0
 13808 0418 00       		.byte	0
 13809 0419 00       		.byte	0
 13810 041a 03       		.byte	3
 13811 041b C0       		.byte	-64
 13812 041c 00       		.byte	0
 13813 041d 03       		.byte	3
 13814 041e C0       		.byte	-64
 13815 041f 00       		.byte	0
 13816 0420 03       		.byte	3
 13817 0421 C0       		.byte	-64
 13818 0422 00       		.byte	0
 13819 0423 00       		.byte	0
 13820 0424 00       		.byte	0
 13821 0425 00       		.byte	0
 13822 0426 00       		.byte	0
 13823 0427 00       		.byte	0
 13824 0428 00       		.byte	0
 13825 0429 00       		.byte	0
 13826 042a 00       		.byte	0
 13827 042b 00       		.byte	0
 13828 042c 00       		.byte	0
 13829 042d 00       		.byte	0
 13830 042e 00       		.byte	0
 13831 042f 00       		.byte	0
 13832 0430 00       		.byte	0
 13833 0431 00       		.byte	0
 13834 0432 00       		.byte	0
 13835 0433 00       		.byte	0
 13836 0434 00       		.byte	0
 13837 0435 00       		.byte	0
 13838 0436 00       		.byte	0
 13839 0437 00       		.byte	0
 13840 0438 00       		.byte	0
 13841 0439 18       		.byte	24
 13842 043a 00       		.byte	0
ARM GAS  C:\Users\milek\AppData\Local\Temp\ccMSPWBt.s 			page 280


 13843 043b 00       		.byte	0
 13844 043c 18       		.byte	24
 13845 043d 00       		.byte	0
 13846 043e 00       		.byte	0
 13847 043f 38       		.byte	56
 13848 0440 00       		.byte	0
 13849 0441 00       		.byte	0
 13850 0442 30       		.byte	48
 13851 0443 00       		.byte	0
 13852 0444 00       		.byte	0
 13853 0445 70       		.byte	112
 13854 0446 00       		.byte	0
 13855 0447 00       		.byte	0
 13856 0448 60       		.byte	96
 13857 0449 00       		.byte	0
 13858 044a 00       		.byte	0
 13859 044b 60       		.byte	96
 13860 044c 00       		.byte	0
 13861 044d 00       		.byte	0
 13862 044e C0       		.byte	-64
 13863 044f 00       		.byte	0
 13864 0450 00       		.byte	0
 13865 0451 C0       		.byte	-64
 13866 0452 00       		.byte	0
 13867 0453 01       		.byte	1
 13868 0454 80       		.byte	-128
 13869 0455 00       		.byte	0
 13870 0456 01       		.byte	1
 13871 0457 80       		.byte	-128
 13872 0458 00       		.byte	0
 13873 0459 03       		.byte	3
 13874 045a 00       		.byte	0
 13875 045b 00       		.byte	0
 13876 045c 03       		.byte	3
 13877 045d 00       		.byte	0
 13878 045e 00       		.byte	0
 13879 045f 06       		.byte	6
 13880 0460 00       		.byte	0
 13881 0461 00       		.byte	0
 13882 0462 06       		.byte	6
 13883 0463 00       		.byte	0
 13884 0464 00       		.byte	0
 13885 0465 0E       		.byte	14
 13886 0466 00       		.byte	0
 13887 0467 00       		.byte	0
 13888 0468 0C       		.byte	12
 13889 0469 00       		.byte	0
 13890 046a 00       		.byte	0
 13891 046b 1C       		.byte	28
 13892 046c 00       		.byte	0
 13893 046d 00       		.byte	0
 13894 046e 18       		.byte	24
 13895 046f 00       		.byte	0
 13896 0470 00       		.byte	0
 13897 0471 18       		.byte	24
 13898 0472 00       		.byte	0
 13899 0473 00       		.byte	0
ARM GAS  C:\Users\milek\AppData\Local\Temp\ccMSPWBt.s 			page 281


 13900 0474 00       		.byte	0
 13901 0475 00       		.byte	0
 13902 0476 00       		.byte	0
 13903 0477 00       		.byte	0
 13904 0478 00       		.byte	0
 13905 0479 00       		.byte	0
 13906 047a 00       		.byte	0
 13907 047b 00       		.byte	0
 13908 047c 00       		.byte	0
 13909 047d 00       		.byte	0
 13910 047e 00       		.byte	0
 13911 047f 00       		.byte	0
 13912 0480 00       		.byte	0
 13913 0481 00       		.byte	0
 13914 0482 00       		.byte	0
 13915 0483 00       		.byte	0
 13916 0484 00       		.byte	0
 13917 0485 00       		.byte	0
 13918 0486 03       		.byte	3
 13919 0487 C0       		.byte	-64
 13920 0488 00       		.byte	0
 13921 0489 07       		.byte	7
 13922 048a E0       		.byte	-32
 13923 048b 00       		.byte	0
 13924 048c 0C       		.byte	12
 13925 048d 30       		.byte	48
 13926 048e 00       		.byte	0
 13927 048f 0C       		.byte	12
 13928 0490 30       		.byte	48
 13929 0491 00       		.byte	0
 13930 0492 18       		.byte	24
 13931 0493 18       		.byte	24
 13932 0494 00       		.byte	0
 13933 0495 18       		.byte	24
 13934 0496 18       		.byte	24
 13935 0497 00       		.byte	0
 13936 0498 18       		.byte	24
 13937 0499 18       		.byte	24
 13938 049a 00       		.byte	0
 13939 049b 18       		.byte	24
 13940 049c 18       		.byte	24
 13941 049d 00       		.byte	0
 13942 049e 18       		.byte	24
 13943 049f 18       		.byte	24
 13944 04a0 00       		.byte	0
 13945 04a1 18       		.byte	24
 13946 04a2 18       		.byte	24
 13947 04a3 00       		.byte	0
 13948 04a4 18       		.byte	24
 13949 04a5 18       		.byte	24
 13950 04a6 00       		.byte	0
 13951 04a7 0C       		.byte	12
 13952 04a8 30       		.byte	48
 13953 04a9 00       		.byte	0
 13954 04aa 0C       		.byte	12
 13955 04ab 30       		.byte	48
 13956 04ac 00       		.byte	0
ARM GAS  C:\Users\milek\AppData\Local\Temp\ccMSPWBt.s 			page 282


 13957 04ad 07       		.byte	7
 13958 04ae E0       		.byte	-32
 13959 04af 00       		.byte	0
 13960 04b0 03       		.byte	3
 13961 04b1 C0       		.byte	-64
 13962 04b2 00       		.byte	0
 13963 04b3 00       		.byte	0
 13964 04b4 00       		.byte	0
 13965 04b5 00       		.byte	0
 13966 04b6 00       		.byte	0
 13967 04b7 00       		.byte	0
 13968 04b8 00       		.byte	0
 13969 04b9 00       		.byte	0
 13970 04ba 00       		.byte	0
 13971 04bb 00       		.byte	0
 13972 04bc 00       		.byte	0
 13973 04bd 00       		.byte	0
 13974 04be 00       		.byte	0
 13975 04bf 00       		.byte	0
 13976 04c0 00       		.byte	0
 13977 04c1 00       		.byte	0
 13978 04c2 00       		.byte	0
 13979 04c3 00       		.byte	0
 13980 04c4 00       		.byte	0
 13981 04c5 00       		.byte	0
 13982 04c6 00       		.byte	0
 13983 04c7 00       		.byte	0
 13984 04c8 00       		.byte	0
 13985 04c9 00       		.byte	0
 13986 04ca 00       		.byte	0
 13987 04cb 00       		.byte	0
 13988 04cc 00       		.byte	0
 13989 04cd 00       		.byte	0
 13990 04ce 00       		.byte	0
 13991 04cf 80       		.byte	-128
 13992 04d0 00       		.byte	0
 13993 04d1 07       		.byte	7
 13994 04d2 80       		.byte	-128
 13995 04d3 00       		.byte	0
 13996 04d4 1F       		.byte	31
 13997 04d5 80       		.byte	-128
 13998 04d6 00       		.byte	0
 13999 04d7 1D       		.byte	29
 14000 04d8 80       		.byte	-128
 14001 04d9 00       		.byte	0
 14002 04da 01       		.byte	1
 14003 04db 80       		.byte	-128
 14004 04dc 00       		.byte	0
 14005 04dd 01       		.byte	1
 14006 04de 80       		.byte	-128
 14007 04df 00       		.byte	0
 14008 04e0 01       		.byte	1
 14009 04e1 80       		.byte	-128
 14010 04e2 00       		.byte	0
 14011 04e3 01       		.byte	1
 14012 04e4 80       		.byte	-128
 14013 04e5 00       		.byte	0
ARM GAS  C:\Users\milek\AppData\Local\Temp\ccMSPWBt.s 			page 283


 14014 04e6 01       		.byte	1
 14015 04e7 80       		.byte	-128
 14016 04e8 00       		.byte	0
 14017 04e9 01       		.byte	1
 14018 04ea 80       		.byte	-128
 14019 04eb 00       		.byte	0
 14020 04ec 01       		.byte	1
 14021 04ed 80       		.byte	-128
 14022 04ee 00       		.byte	0
 14023 04ef 01       		.byte	1
 14024 04f0 80       		.byte	-128
 14025 04f1 00       		.byte	0
 14026 04f2 01       		.byte	1
 14027 04f3 80       		.byte	-128
 14028 04f4 00       		.byte	0
 14029 04f5 1F       		.byte	31
 14030 04f6 F8       		.byte	-8
 14031 04f7 00       		.byte	0
 14032 04f8 1F       		.byte	31
 14033 04f9 F8       		.byte	-8
 14034 04fa 00       		.byte	0
 14035 04fb 00       		.byte	0
 14036 04fc 00       		.byte	0
 14037 04fd 00       		.byte	0
 14038 04fe 00       		.byte	0
 14039 04ff 00       		.byte	0
 14040 0500 00       		.byte	0
 14041 0501 00       		.byte	0
 14042 0502 00       		.byte	0
 14043 0503 00       		.byte	0
 14044 0504 00       		.byte	0
 14045 0505 00       		.byte	0
 14046 0506 00       		.byte	0
 14047 0507 00       		.byte	0
 14048 0508 00       		.byte	0
 14049 0509 00       		.byte	0
 14050 050a 00       		.byte	0
 14051 050b 00       		.byte	0
 14052 050c 00       		.byte	0
 14053 050d 00       		.byte	0
 14054 050e 00       		.byte	0
 14055 050f 00       		.byte	0
 14056 0510 00       		.byte	0
 14057 0511 00       		.byte	0
 14058 0512 00       		.byte	0
 14059 0513 00       		.byte	0
 14060 0514 00       		.byte	0
 14061 0515 00       		.byte	0
 14062 0516 07       		.byte	7
 14063 0517 C0       		.byte	-64
 14064 0518 00       		.byte	0
 14065 0519 1F       		.byte	31
 14066 051a F0       		.byte	-16
 14067 051b 00       		.byte	0
 14068 051c 38       		.byte	56
 14069 051d 30       		.byte	48
 14070 051e 00       		.byte	0
ARM GAS  C:\Users\milek\AppData\Local\Temp\ccMSPWBt.s 			page 284


 14071 051f 30       		.byte	48
 14072 0520 18       		.byte	24
 14073 0521 00       		.byte	0
 14074 0522 30       		.byte	48
 14075 0523 18       		.byte	24
 14076 0524 00       		.byte	0
 14077 0525 00       		.byte	0
 14078 0526 18       		.byte	24
 14079 0527 00       		.byte	0
 14080 0528 00       		.byte	0
 14081 0529 30       		.byte	48
 14082 052a 00       		.byte	0
 14083 052b 00       		.byte	0
 14084 052c 60       		.byte	96
 14085 052d 00       		.byte	0
 14086 052e 01       		.byte	1
 14087 052f C0       		.byte	-64
 14088 0530 00       		.byte	0
 14089 0531 03       		.byte	3
 14090 0532 80       		.byte	-128
 14091 0533 00       		.byte	0
 14092 0534 06       		.byte	6
 14093 0535 00       		.byte	0
 14094 0536 00       		.byte	0
 14095 0537 0C       		.byte	12
 14096 0538 00       		.byte	0
 14097 0539 00       		.byte	0
 14098 053a 18       		.byte	24
 14099 053b 00       		.byte	0
 14100 053c 00       		.byte	0
 14101 053d 3F       		.byte	63
 14102 053e F8       		.byte	-8
 14103 053f 00       		.byte	0
 14104 0540 3F       		.byte	63
 14105 0541 F8       		.byte	-8
 14106 0542 00       		.byte	0
 14107 0543 00       		.byte	0
 14108 0544 00       		.byte	0
 14109 0545 00       		.byte	0
 14110 0546 00       		.byte	0
 14111 0547 00       		.byte	0
 14112 0548 00       		.byte	0
 14113 0549 00       		.byte	0
 14114 054a 00       		.byte	0
 14115 054b 00       		.byte	0
 14116 054c 00       		.byte	0
 14117 054d 00       		.byte	0
 14118 054e 00       		.byte	0
 14119 054f 00       		.byte	0
 14120 0550 00       		.byte	0
 14121 0551 00       		.byte	0
 14122 0552 00       		.byte	0
 14123 0553 00       		.byte	0
 14124 0554 00       		.byte	0
 14125 0555 00       		.byte	0
 14126 0556 00       		.byte	0
 14127 0557 00       		.byte	0
ARM GAS  C:\Users\milek\AppData\Local\Temp\ccMSPWBt.s 			page 285


 14128 0558 00       		.byte	0
 14129 0559 00       		.byte	0
 14130 055a 00       		.byte	0
 14131 055b 00       		.byte	0
 14132 055c 00       		.byte	0
 14133 055d 00       		.byte	0
 14134 055e 03       		.byte	3
 14135 055f C0       		.byte	-64
 14136 0560 00       		.byte	0
 14137 0561 0F       		.byte	15
 14138 0562 E0       		.byte	-32
 14139 0563 00       		.byte	0
 14140 0564 0C       		.byte	12
 14141 0565 70       		.byte	112
 14142 0566 00       		.byte	0
 14143 0567 00       		.byte	0
 14144 0568 30       		.byte	48
 14145 0569 00       		.byte	0
 14146 056a 00       		.byte	0
 14147 056b 30       		.byte	48
 14148 056c 00       		.byte	0
 14149 056d 00       		.byte	0
 14150 056e 60       		.byte	96
 14151 056f 00       		.byte	0
 14152 0570 03       		.byte	3
 14153 0571 C0       		.byte	-64
 14154 0572 00       		.byte	0
 14155 0573 03       		.byte	3
 14156 0574 E0       		.byte	-32
 14157 0575 00       		.byte	0
 14158 0576 00       		.byte	0
 14159 0577 70       		.byte	112
 14160 0578 00       		.byte	0
 14161 0579 00       		.byte	0
 14162 057a 18       		.byte	24
 14163 057b 00       		.byte	0
 14164 057c 00       		.byte	0
 14165 057d 18       		.byte	24
 14166 057e 00       		.byte	0
 14167 057f 00       		.byte	0
 14168 0580 18       		.byte	24
 14169 0581 00       		.byte	0
 14170 0582 18       		.byte	24
 14171 0583 38       		.byte	56
 14172 0584 00       		.byte	0
 14173 0585 1F       		.byte	31
 14174 0586 F0       		.byte	-16
 14175 0587 00       		.byte	0
 14176 0588 0F       		.byte	15
 14177 0589 C0       		.byte	-64
 14178 058a 00       		.byte	0
 14179 058b 00       		.byte	0
 14180 058c 00       		.byte	0
 14181 058d 00       		.byte	0
 14182 058e 00       		.byte	0
 14183 058f 00       		.byte	0
 14184 0590 00       		.byte	0
ARM GAS  C:\Users\milek\AppData\Local\Temp\ccMSPWBt.s 			page 286


 14185 0591 00       		.byte	0
 14186 0592 00       		.byte	0
 14187 0593 00       		.byte	0
 14188 0594 00       		.byte	0
 14189 0595 00       		.byte	0
 14190 0596 00       		.byte	0
 14191 0597 00       		.byte	0
 14192 0598 00       		.byte	0
 14193 0599 00       		.byte	0
 14194 059a 00       		.byte	0
 14195 059b 00       		.byte	0
 14196 059c 00       		.byte	0
 14197 059d 00       		.byte	0
 14198 059e 00       		.byte	0
 14199 059f 00       		.byte	0
 14200 05a0 00       		.byte	0
 14201 05a1 00       		.byte	0
 14202 05a2 00       		.byte	0
 14203 05a3 00       		.byte	0
 14204 05a4 00       		.byte	0
 14205 05a5 00       		.byte	0
 14206 05a6 00       		.byte	0
 14207 05a7 E0       		.byte	-32
 14208 05a8 00       		.byte	0
 14209 05a9 01       		.byte	1
 14210 05aa E0       		.byte	-32
 14211 05ab 00       		.byte	0
 14212 05ac 01       		.byte	1
 14213 05ad E0       		.byte	-32
 14214 05ae 00       		.byte	0
 14215 05af 03       		.byte	3
 14216 05b0 60       		.byte	96
 14217 05b1 00       		.byte	0
 14218 05b2 06       		.byte	6
 14219 05b3 60       		.byte	96
 14220 05b4 00       		.byte	0
 14221 05b5 06       		.byte	6
 14222 05b6 60       		.byte	96
 14223 05b7 00       		.byte	0
 14224 05b8 0C       		.byte	12
 14225 05b9 60       		.byte	96
 14226 05ba 00       		.byte	0
 14227 05bb 0C       		.byte	12
 14228 05bc 60       		.byte	96
 14229 05bd 00       		.byte	0
 14230 05be 18       		.byte	24
 14231 05bf 60       		.byte	96
 14232 05c0 00       		.byte	0
 14233 05c1 30       		.byte	48
 14234 05c2 60       		.byte	96
 14235 05c3 00       		.byte	0
 14236 05c4 3F       		.byte	63
 14237 05c5 F8       		.byte	-8
 14238 05c6 00       		.byte	0
 14239 05c7 3F       		.byte	63
 14240 05c8 F8       		.byte	-8
 14241 05c9 00       		.byte	0
ARM GAS  C:\Users\milek\AppData\Local\Temp\ccMSPWBt.s 			page 287


 14242 05ca 00       		.byte	0
 14243 05cb 60       		.byte	96
 14244 05cc 00       		.byte	0
 14245 05cd 03       		.byte	3
 14246 05ce F8       		.byte	-8
 14247 05cf 00       		.byte	0
 14248 05d0 03       		.byte	3
 14249 05d1 F8       		.byte	-8
 14250 05d2 00       		.byte	0
 14251 05d3 00       		.byte	0
 14252 05d4 00       		.byte	0
 14253 05d5 00       		.byte	0
 14254 05d6 00       		.byte	0
 14255 05d7 00       		.byte	0
 14256 05d8 00       		.byte	0
 14257 05d9 00       		.byte	0
 14258 05da 00       		.byte	0
 14259 05db 00       		.byte	0
 14260 05dc 00       		.byte	0
 14261 05dd 00       		.byte	0
 14262 05de 00       		.byte	0
 14263 05df 00       		.byte	0
 14264 05e0 00       		.byte	0
 14265 05e1 00       		.byte	0
 14266 05e2 00       		.byte	0
 14267 05e3 00       		.byte	0
 14268 05e4 00       		.byte	0
 14269 05e5 00       		.byte	0
 14270 05e6 00       		.byte	0
 14271 05e7 00       		.byte	0
 14272 05e8 00       		.byte	0
 14273 05e9 00       		.byte	0
 14274 05ea 00       		.byte	0
 14275 05eb 00       		.byte	0
 14276 05ec 00       		.byte	0
 14277 05ed 00       		.byte	0
 14278 05ee 1F       		.byte	31
 14279 05ef F0       		.byte	-16
 14280 05f0 00       		.byte	0
 14281 05f1 1F       		.byte	31
 14282 05f2 F0       		.byte	-16
 14283 05f3 00       		.byte	0
 14284 05f4 18       		.byte	24
 14285 05f5 00       		.byte	0
 14286 05f6 00       		.byte	0
 14287 05f7 18       		.byte	24
 14288 05f8 00       		.byte	0
 14289 05f9 00       		.byte	0
 14290 05fa 18       		.byte	24
 14291 05fb 00       		.byte	0
 14292 05fc 00       		.byte	0
 14293 05fd 1B       		.byte	27
 14294 05fe C0       		.byte	-64
 14295 05ff 00       		.byte	0
 14296 0600 1F       		.byte	31
 14297 0601 F0       		.byte	-16
 14298 0602 00       		.byte	0
ARM GAS  C:\Users\milek\AppData\Local\Temp\ccMSPWBt.s 			page 288


 14299 0603 1C       		.byte	28
 14300 0604 30       		.byte	48
 14301 0605 00       		.byte	0
 14302 0606 00       		.byte	0
 14303 0607 18       		.byte	24
 14304 0608 00       		.byte	0
 14305 0609 00       		.byte	0
 14306 060a 18       		.byte	24
 14307 060b 00       		.byte	0
 14308 060c 00       		.byte	0
 14309 060d 18       		.byte	24
 14310 060e 00       		.byte	0
 14311 060f 00       		.byte	0
 14312 0610 18       		.byte	24
 14313 0611 00       		.byte	0
 14314 0612 30       		.byte	48
 14315 0613 30       		.byte	48
 14316 0614 00       		.byte	0
 14317 0615 3F       		.byte	63
 14318 0616 F0       		.byte	-16
 14319 0617 00       		.byte	0
 14320 0618 0F       		.byte	15
 14321 0619 C0       		.byte	-64
 14322 061a 00       		.byte	0
 14323 061b 00       		.byte	0
 14324 061c 00       		.byte	0
 14325 061d 00       		.byte	0
 14326 061e 00       		.byte	0
 14327 061f 00       		.byte	0
 14328 0620 00       		.byte	0
 14329 0621 00       		.byte	0
 14330 0622 00       		.byte	0
 14331 0623 00       		.byte	0
 14332 0624 00       		.byte	0
 14333 0625 00       		.byte	0
 14334 0626 00       		.byte	0
 14335 0627 00       		.byte	0
 14336 0628 00       		.byte	0
 14337 0629 00       		.byte	0
 14338 062a 00       		.byte	0
 14339 062b 00       		.byte	0
 14340 062c 00       		.byte	0
 14341 062d 00       		.byte	0
 14342 062e 00       		.byte	0
 14343 062f 00       		.byte	0
 14344 0630 00       		.byte	0
 14345 0631 00       		.byte	0
 14346 0632 00       		.byte	0
 14347 0633 00       		.byte	0
 14348 0634 00       		.byte	0
 14349 0635 00       		.byte	0
 14350 0636 00       		.byte	0
 14351 0637 F8       		.byte	-8
 14352 0638 00       		.byte	0
 14353 0639 03       		.byte	3
 14354 063a F8       		.byte	-8
 14355 063b 00       		.byte	0
ARM GAS  C:\Users\milek\AppData\Local\Temp\ccMSPWBt.s 			page 289


 14356 063c 07       		.byte	7
 14357 063d 00       		.byte	0
 14358 063e 00       		.byte	0
 14359 063f 0E       		.byte	14
 14360 0640 00       		.byte	0
 14361 0641 00       		.byte	0
 14362 0642 0C       		.byte	12
 14363 0643 00       		.byte	0
 14364 0644 00       		.byte	0
 14365 0645 18       		.byte	24
 14366 0646 00       		.byte	0
 14367 0647 00       		.byte	0
 14368 0648 1B       		.byte	27
 14369 0649 C0       		.byte	-64
 14370 064a 00       		.byte	0
 14371 064b 1F       		.byte	31
 14372 064c F0       		.byte	-16
 14373 064d 00       		.byte	0
 14374 064e 1C       		.byte	28
 14375 064f 30       		.byte	48
 14376 0650 00       		.byte	0
 14377 0651 18       		.byte	24
 14378 0652 18       		.byte	24
 14379 0653 00       		.byte	0
 14380 0654 18       		.byte	24
 14381 0655 18       		.byte	24
 14382 0656 00       		.byte	0
 14383 0657 18       		.byte	24
 14384 0658 18       		.byte	24
 14385 0659 00       		.byte	0
 14386 065a 0C       		.byte	12
 14387 065b 38       		.byte	56
 14388 065c 00       		.byte	0
 14389 065d 0F       		.byte	15
 14390 065e F0       		.byte	-16
 14391 065f 00       		.byte	0
 14392 0660 03       		.byte	3
 14393 0661 E0       		.byte	-32
 14394 0662 00       		.byte	0
 14395 0663 00       		.byte	0
 14396 0664 00       		.byte	0
 14397 0665 00       		.byte	0
 14398 0666 00       		.byte	0
 14399 0667 00       		.byte	0
 14400 0668 00       		.byte	0
 14401 0669 00       		.byte	0
 14402 066a 00       		.byte	0
 14403 066b 00       		.byte	0
 14404 066c 00       		.byte	0
 14405 066d 00       		.byte	0
 14406 066e 00       		.byte	0
 14407 066f 00       		.byte	0
 14408 0670 00       		.byte	0
 14409 0671 00       		.byte	0
 14410 0672 00       		.byte	0
 14411 0673 00       		.byte	0
 14412 0674 00       		.byte	0
ARM GAS  C:\Users\milek\AppData\Local\Temp\ccMSPWBt.s 			page 290


 14413 0675 00       		.byte	0
 14414 0676 00       		.byte	0
 14415 0677 00       		.byte	0
 14416 0678 00       		.byte	0
 14417 0679 00       		.byte	0
 14418 067a 00       		.byte	0
 14419 067b 00       		.byte	0
 14420 067c 00       		.byte	0
 14421 067d 00       		.byte	0
 14422 067e 1F       		.byte	31
 14423 067f F8       		.byte	-8
 14424 0680 00       		.byte	0
 14425 0681 1F       		.byte	31
 14426 0682 F8       		.byte	-8
 14427 0683 00       		.byte	0
 14428 0684 18       		.byte	24
 14429 0685 18       		.byte	24
 14430 0686 00       		.byte	0
 14431 0687 18       		.byte	24
 14432 0688 38       		.byte	56
 14433 0689 00       		.byte	0
 14434 068a 00       		.byte	0
 14435 068b 30       		.byte	48
 14436 068c 00       		.byte	0
 14437 068d 00       		.byte	0
 14438 068e 30       		.byte	48
 14439 068f 00       		.byte	0
 14440 0690 00       		.byte	0
 14441 0691 70       		.byte	112
 14442 0692 00       		.byte	0
 14443 0693 00       		.byte	0
 14444 0694 60       		.byte	96
 14445 0695 00       		.byte	0
 14446 0696 00       		.byte	0
 14447 0697 60       		.byte	96
 14448 0698 00       		.byte	0
 14449 0699 00       		.byte	0
 14450 069a E0       		.byte	-32
 14451 069b 00       		.byte	0
 14452 069c 00       		.byte	0
 14453 069d C0       		.byte	-64
 14454 069e 00       		.byte	0
 14455 069f 00       		.byte	0
 14456 06a0 C0       		.byte	-64
 14457 06a1 00       		.byte	0
 14458 06a2 01       		.byte	1
 14459 06a3 C0       		.byte	-64
 14460 06a4 00       		.byte	0
 14461 06a5 01       		.byte	1
 14462 06a6 80       		.byte	-128
 14463 06a7 00       		.byte	0
 14464 06a8 01       		.byte	1
 14465 06a9 80       		.byte	-128
 14466 06aa 00       		.byte	0
 14467 06ab 00       		.byte	0
 14468 06ac 00       		.byte	0
 14469 06ad 00       		.byte	0
ARM GAS  C:\Users\milek\AppData\Local\Temp\ccMSPWBt.s 			page 291


 14470 06ae 00       		.byte	0
 14471 06af 00       		.byte	0
 14472 06b0 00       		.byte	0
 14473 06b1 00       		.byte	0
 14474 06b2 00       		.byte	0
 14475 06b3 00       		.byte	0
 14476 06b4 00       		.byte	0
 14477 06b5 00       		.byte	0
 14478 06b6 00       		.byte	0
 14479 06b7 00       		.byte	0
 14480 06b8 00       		.byte	0
 14481 06b9 00       		.byte	0
 14482 06ba 00       		.byte	0
 14483 06bb 00       		.byte	0
 14484 06bc 00       		.byte	0
 14485 06bd 00       		.byte	0
 14486 06be 00       		.byte	0
 14487 06bf 00       		.byte	0
 14488 06c0 00       		.byte	0
 14489 06c1 00       		.byte	0
 14490 06c2 00       		.byte	0
 14491 06c3 00       		.byte	0
 14492 06c4 00       		.byte	0
 14493 06c5 00       		.byte	0
 14494 06c6 07       		.byte	7
 14495 06c7 E0       		.byte	-32
 14496 06c8 00       		.byte	0
 14497 06c9 0F       		.byte	15
 14498 06ca F0       		.byte	-16
 14499 06cb 00       		.byte	0
 14500 06cc 1C       		.byte	28
 14501 06cd 38       		.byte	56
 14502 06ce 00       		.byte	0
 14503 06cf 18       		.byte	24
 14504 06d0 18       		.byte	24
 14505 06d1 00       		.byte	0
 14506 06d2 18       		.byte	24
 14507 06d3 18       		.byte	24
 14508 06d4 00       		.byte	0
 14509 06d5 0C       		.byte	12
 14510 06d6 30       		.byte	48
 14511 06d7 00       		.byte	0
 14512 06d8 07       		.byte	7
 14513 06d9 E0       		.byte	-32
 14514 06da 00       		.byte	0
 14515 06db 07       		.byte	7
 14516 06dc E0       		.byte	-32
 14517 06dd 00       		.byte	0
 14518 06de 0C       		.byte	12
 14519 06df 30       		.byte	48
 14520 06e0 00       		.byte	0
 14521 06e1 18       		.byte	24
 14522 06e2 18       		.byte	24
 14523 06e3 00       		.byte	0
 14524 06e4 18       		.byte	24
 14525 06e5 18       		.byte	24
 14526 06e6 00       		.byte	0
ARM GAS  C:\Users\milek\AppData\Local\Temp\ccMSPWBt.s 			page 292


 14527 06e7 18       		.byte	24
 14528 06e8 18       		.byte	24
 14529 06e9 00       		.byte	0
 14530 06ea 1C       		.byte	28
 14531 06eb 38       		.byte	56
 14532 06ec 00       		.byte	0
 14533 06ed 0F       		.byte	15
 14534 06ee F0       		.byte	-16
 14535 06ef 00       		.byte	0
 14536 06f0 07       		.byte	7
 14537 06f1 E0       		.byte	-32
 14538 06f2 00       		.byte	0
 14539 06f3 00       		.byte	0
 14540 06f4 00       		.byte	0
 14541 06f5 00       		.byte	0
 14542 06f6 00       		.byte	0
 14543 06f7 00       		.byte	0
 14544 06f8 00       		.byte	0
 14545 06f9 00       		.byte	0
 14546 06fa 00       		.byte	0
 14547 06fb 00       		.byte	0
 14548 06fc 00       		.byte	0
 14549 06fd 00       		.byte	0
 14550 06fe 00       		.byte	0
 14551 06ff 00       		.byte	0
 14552 0700 00       		.byte	0
 14553 0701 00       		.byte	0
 14554 0702 00       		.byte	0
 14555 0703 00       		.byte	0
 14556 0704 00       		.byte	0
 14557 0705 00       		.byte	0
 14558 0706 00       		.byte	0
 14559 0707 00       		.byte	0
 14560 0708 00       		.byte	0
 14561 0709 00       		.byte	0
 14562 070a 00       		.byte	0
 14563 070b 00       		.byte	0
 14564 070c 00       		.byte	0
 14565 070d 00       		.byte	0
 14566 070e 07       		.byte	7
 14567 070f C0       		.byte	-64
 14568 0710 00       		.byte	0
 14569 0711 0F       		.byte	15
 14570 0712 F0       		.byte	-16
 14571 0713 00       		.byte	0
 14572 0714 1C       		.byte	28
 14573 0715 30       		.byte	48
 14574 0716 00       		.byte	0
 14575 0717 18       		.byte	24
 14576 0718 18       		.byte	24
 14577 0719 00       		.byte	0
 14578 071a 18       		.byte	24
 14579 071b 18       		.byte	24
 14580 071c 00       		.byte	0
 14581 071d 18       		.byte	24
 14582 071e 18       		.byte	24
 14583 071f 00       		.byte	0
ARM GAS  C:\Users\milek\AppData\Local\Temp\ccMSPWBt.s 			page 293


 14584 0720 0C       		.byte	12
 14585 0721 38       		.byte	56
 14586 0722 00       		.byte	0
 14587 0723 0F       		.byte	15
 14588 0724 F8       		.byte	-8
 14589 0725 00       		.byte	0
 14590 0726 03       		.byte	3
 14591 0727 D8       		.byte	-40
 14592 0728 00       		.byte	0
 14593 0729 00       		.byte	0
 14594 072a 18       		.byte	24
 14595 072b 00       		.byte	0
 14596 072c 00       		.byte	0
 14597 072d 30       		.byte	48
 14598 072e 00       		.byte	0
 14599 072f 00       		.byte	0
 14600 0730 70       		.byte	112
 14601 0731 00       		.byte	0
 14602 0732 00       		.byte	0
 14603 0733 E0       		.byte	-32
 14604 0734 00       		.byte	0
 14605 0735 1F       		.byte	31
 14606 0736 C0       		.byte	-64
 14607 0737 00       		.byte	0
 14608 0738 1F       		.byte	31
 14609 0739 00       		.byte	0
 14610 073a 00       		.byte	0
 14611 073b 00       		.byte	0
 14612 073c 00       		.byte	0
 14613 073d 00       		.byte	0
 14614 073e 00       		.byte	0
 14615 073f 00       		.byte	0
 14616 0740 00       		.byte	0
 14617 0741 00       		.byte	0
 14618 0742 00       		.byte	0
 14619 0743 00       		.byte	0
 14620 0744 00       		.byte	0
 14621 0745 00       		.byte	0
 14622 0746 00       		.byte	0
 14623 0747 00       		.byte	0
 14624 0748 00       		.byte	0
 14625 0749 00       		.byte	0
 14626 074a 00       		.byte	0
 14627 074b 00       		.byte	0
 14628 074c 00       		.byte	0
 14629 074d 00       		.byte	0
 14630 074e 00       		.byte	0
 14631 074f 00       		.byte	0
 14632 0750 00       		.byte	0
 14633 0751 00       		.byte	0
 14634 0752 00       		.byte	0
 14635 0753 00       		.byte	0
 14636 0754 00       		.byte	0
 14637 0755 00       		.byte	0
 14638 0756 00       		.byte	0
 14639 0757 00       		.byte	0
 14640 0758 00       		.byte	0
ARM GAS  C:\Users\milek\AppData\Local\Temp\ccMSPWBt.s 			page 294


 14641 0759 00       		.byte	0
 14642 075a 00       		.byte	0
 14643 075b 00       		.byte	0
 14644 075c 00       		.byte	0
 14645 075d 00       		.byte	0
 14646 075e 00       		.byte	0
 14647 075f 00       		.byte	0
 14648 0760 00       		.byte	0
 14649 0761 00       		.byte	0
 14650 0762 03       		.byte	3
 14651 0763 C0       		.byte	-64
 14652 0764 00       		.byte	0
 14653 0765 03       		.byte	3
 14654 0766 C0       		.byte	-64
 14655 0767 00       		.byte	0
 14656 0768 03       		.byte	3
 14657 0769 C0       		.byte	-64
 14658 076a 00       		.byte	0
 14659 076b 00       		.byte	0
 14660 076c 00       		.byte	0
 14661 076d 00       		.byte	0
 14662 076e 00       		.byte	0
 14663 076f 00       		.byte	0
 14664 0770 00       		.byte	0
 14665 0771 00       		.byte	0
 14666 0772 00       		.byte	0
 14667 0773 00       		.byte	0
 14668 0774 00       		.byte	0
 14669 0775 00       		.byte	0
 14670 0776 00       		.byte	0
 14671 0777 00       		.byte	0
 14672 0778 00       		.byte	0
 14673 0779 00       		.byte	0
 14674 077a 03       		.byte	3
 14675 077b C0       		.byte	-64
 14676 077c 00       		.byte	0
 14677 077d 03       		.byte	3
 14678 077e C0       		.byte	-64
 14679 077f 00       		.byte	0
 14680 0780 03       		.byte	3
 14681 0781 C0       		.byte	-64
 14682 0782 00       		.byte	0
 14683 0783 00       		.byte	0
 14684 0784 00       		.byte	0
 14685 0785 00       		.byte	0
 14686 0786 00       		.byte	0
 14687 0787 00       		.byte	0
 14688 0788 00       		.byte	0
 14689 0789 00       		.byte	0
 14690 078a 00       		.byte	0
 14691 078b 00       		.byte	0
 14692 078c 00       		.byte	0
 14693 078d 00       		.byte	0
 14694 078e 00       		.byte	0
 14695 078f 00       		.byte	0
 14696 0790 00       		.byte	0
 14697 0791 00       		.byte	0
ARM GAS  C:\Users\milek\AppData\Local\Temp\ccMSPWBt.s 			page 295


 14698 0792 00       		.byte	0
 14699 0793 00       		.byte	0
 14700 0794 00       		.byte	0
 14701 0795 00       		.byte	0
 14702 0796 00       		.byte	0
 14703 0797 00       		.byte	0
 14704 0798 00       		.byte	0
 14705 0799 00       		.byte	0
 14706 079a 00       		.byte	0
 14707 079b 00       		.byte	0
 14708 079c 00       		.byte	0
 14709 079d 00       		.byte	0
 14710 079e 00       		.byte	0
 14711 079f 00       		.byte	0
 14712 07a0 00       		.byte	0
 14713 07a1 00       		.byte	0
 14714 07a2 00       		.byte	0
 14715 07a3 00       		.byte	0
 14716 07a4 00       		.byte	0
 14717 07a5 00       		.byte	0
 14718 07a6 00       		.byte	0
 14719 07a7 00       		.byte	0
 14720 07a8 00       		.byte	0
 14721 07a9 00       		.byte	0
 14722 07aa 00       		.byte	0
 14723 07ab F0       		.byte	-16
 14724 07ac 00       		.byte	0
 14725 07ad 00       		.byte	0
 14726 07ae F0       		.byte	-16
 14727 07af 00       		.byte	0
 14728 07b0 00       		.byte	0
 14729 07b1 F0       		.byte	-16
 14730 07b2 00       		.byte	0
 14731 07b3 00       		.byte	0
 14732 07b4 00       		.byte	0
 14733 07b5 00       		.byte	0
 14734 07b6 00       		.byte	0
 14735 07b7 00       		.byte	0
 14736 07b8 00       		.byte	0
 14737 07b9 00       		.byte	0
 14738 07ba 00       		.byte	0
 14739 07bb 00       		.byte	0
 14740 07bc 00       		.byte	0
 14741 07bd 00       		.byte	0
 14742 07be 00       		.byte	0
 14743 07bf 00       		.byte	0
 14744 07c0 E0       		.byte	-32
 14745 07c1 00       		.byte	0
 14746 07c2 01       		.byte	1
 14747 07c3 C0       		.byte	-64
 14748 07c4 00       		.byte	0
 14749 07c5 01       		.byte	1
 14750 07c6 80       		.byte	-128
 14751 07c7 00       		.byte	0
 14752 07c8 01       		.byte	1
 14753 07c9 80       		.byte	-128
 14754 07ca 00       		.byte	0
ARM GAS  C:\Users\milek\AppData\Local\Temp\ccMSPWBt.s 			page 296


 14755 07cb 03       		.byte	3
 14756 07cc 00       		.byte	0
 14757 07cd 00       		.byte	0
 14758 07ce 02       		.byte	2
 14759 07cf 00       		.byte	0
 14760 07d0 00       		.byte	0
 14761 07d1 00       		.byte	0
 14762 07d2 00       		.byte	0
 14763 07d3 00       		.byte	0
 14764 07d4 00       		.byte	0
 14765 07d5 00       		.byte	0
 14766 07d6 00       		.byte	0
 14767 07d7 00       		.byte	0
 14768 07d8 00       		.byte	0
 14769 07d9 00       		.byte	0
 14770 07da 00       		.byte	0
 14771 07db 00       		.byte	0
 14772 07dc 00       		.byte	0
 14773 07dd 00       		.byte	0
 14774 07de 00       		.byte	0
 14775 07df 00       		.byte	0
 14776 07e0 00       		.byte	0
 14777 07e1 00       		.byte	0
 14778 07e2 00       		.byte	0
 14779 07e3 00       		.byte	0
 14780 07e4 00       		.byte	0
 14781 07e5 00       		.byte	0
 14782 07e6 00       		.byte	0
 14783 07e7 00       		.byte	0
 14784 07e8 00       		.byte	0
 14785 07e9 00       		.byte	0
 14786 07ea 00       		.byte	0
 14787 07eb 00       		.byte	0
 14788 07ec 00       		.byte	0
 14789 07ed 1C       		.byte	28
 14790 07ee 00       		.byte	0
 14791 07ef 00       		.byte	0
 14792 07f0 3C       		.byte	60
 14793 07f1 00       		.byte	0
 14794 07f2 00       		.byte	0
 14795 07f3 F0       		.byte	-16
 14796 07f4 00       		.byte	0
 14797 07f5 03       		.byte	3
 14798 07f6 C0       		.byte	-64
 14799 07f7 00       		.byte	0
 14800 07f8 0F       		.byte	15
 14801 07f9 00       		.byte	0
 14802 07fa 00       		.byte	0
 14803 07fb 3C       		.byte	60
 14804 07fc 00       		.byte	0
 14805 07fd 00       		.byte	0
 14806 07fe F0       		.byte	-16
 14807 07ff 00       		.byte	0
 14808 0800 00       		.byte	0
 14809 0801 3C       		.byte	60
 14810 0802 00       		.byte	0
 14811 0803 00       		.byte	0
ARM GAS  C:\Users\milek\AppData\Local\Temp\ccMSPWBt.s 			page 297


 14812 0804 0F       		.byte	15
 14813 0805 00       		.byte	0
 14814 0806 00       		.byte	0
 14815 0807 03       		.byte	3
 14816 0808 C0       		.byte	-64
 14817 0809 00       		.byte	0
 14818 080a 00       		.byte	0
 14819 080b F0       		.byte	-16
 14820 080c 00       		.byte	0
 14821 080d 00       		.byte	0
 14822 080e 3C       		.byte	60
 14823 080f 00       		.byte	0
 14824 0810 00       		.byte	0
 14825 0811 1C       		.byte	28
 14826 0812 00       		.byte	0
 14827 0813 00       		.byte	0
 14828 0814 00       		.byte	0
 14829 0815 00       		.byte	0
 14830 0816 00       		.byte	0
 14831 0817 00       		.byte	0
 14832 0818 00       		.byte	0
 14833 0819 00       		.byte	0
 14834 081a 00       		.byte	0
 14835 081b 00       		.byte	0
 14836 081c 00       		.byte	0
 14837 081d 00       		.byte	0
 14838 081e 00       		.byte	0
 14839 081f 00       		.byte	0
 14840 0820 00       		.byte	0
 14841 0821 00       		.byte	0
 14842 0822 00       		.byte	0
 14843 0823 00       		.byte	0
 14844 0824 00       		.byte	0
 14845 0825 00       		.byte	0
 14846 0826 00       		.byte	0
 14847 0827 00       		.byte	0
 14848 0828 00       		.byte	0
 14849 0829 00       		.byte	0
 14850 082a 00       		.byte	0
 14851 082b 00       		.byte	0
 14852 082c 00       		.byte	0
 14853 082d 00       		.byte	0
 14854 082e 00       		.byte	0
 14855 082f 00       		.byte	0
 14856 0830 00       		.byte	0
 14857 0831 00       		.byte	0
 14858 0832 00       		.byte	0
 14859 0833 00       		.byte	0
 14860 0834 00       		.byte	0
 14861 0835 00       		.byte	0
 14862 0836 00       		.byte	0
 14863 0837 00       		.byte	0
 14864 0838 00       		.byte	0
 14865 0839 00       		.byte	0
 14866 083a 00       		.byte	0
 14867 083b 00       		.byte	0
 14868 083c 00       		.byte	0
ARM GAS  C:\Users\milek\AppData\Local\Temp\ccMSPWBt.s 			page 298


 14869 083d 7F       		.byte	127
 14870 083e FC       		.byte	-4
 14871 083f 00       		.byte	0
 14872 0840 7F       		.byte	127
 14873 0841 FC       		.byte	-4
 14874 0842 00       		.byte	0
 14875 0843 00       		.byte	0
 14876 0844 00       		.byte	0
 14877 0845 00       		.byte	0
 14878 0846 00       		.byte	0
 14879 0847 00       		.byte	0
 14880 0848 00       		.byte	0
 14881 0849 7F       		.byte	127
 14882 084a FC       		.byte	-4
 14883 084b 00       		.byte	0
 14884 084c 7F       		.byte	127
 14885 084d FC       		.byte	-4
 14886 084e 00       		.byte	0
 14887 084f 00       		.byte	0
 14888 0850 00       		.byte	0
 14889 0851 00       		.byte	0
 14890 0852 00       		.byte	0
 14891 0853 00       		.byte	0
 14892 0854 00       		.byte	0
 14893 0855 00       		.byte	0
 14894 0856 00       		.byte	0
 14895 0857 00       		.byte	0
 14896 0858 00       		.byte	0
 14897 0859 00       		.byte	0
 14898 085a 00       		.byte	0
 14899 085b 00       		.byte	0
 14900 085c 00       		.byte	0
 14901 085d 00       		.byte	0
 14902 085e 00       		.byte	0
 14903 085f 00       		.byte	0
 14904 0860 00       		.byte	0
 14905 0861 00       		.byte	0
 14906 0862 00       		.byte	0
 14907 0863 00       		.byte	0
 14908 0864 00       		.byte	0
 14909 0865 00       		.byte	0
 14910 0866 00       		.byte	0
 14911 0867 00       		.byte	0
 14912 0868 00       		.byte	0
 14913 0869 00       		.byte	0
 14914 086a 00       		.byte	0
 14915 086b 00       		.byte	0
 14916 086c 00       		.byte	0
 14917 086d 00       		.byte	0
 14918 086e 00       		.byte	0
 14919 086f 00       		.byte	0
 14920 0870 00       		.byte	0
 14921 0871 00       		.byte	0
 14922 0872 00       		.byte	0
 14923 0873 00       		.byte	0
 14924 0874 00       		.byte	0
 14925 0875 00       		.byte	0
ARM GAS  C:\Users\milek\AppData\Local\Temp\ccMSPWBt.s 			page 299


 14926 0876 00       		.byte	0
 14927 0877 00       		.byte	0
 14928 0878 00       		.byte	0
 14929 0879 00       		.byte	0
 14930 087a 00       		.byte	0
 14931 087b 00       		.byte	0
 14932 087c 70       		.byte	112
 14933 087d 00       		.byte	0
 14934 087e 00       		.byte	0
 14935 087f 78       		.byte	120
 14936 0880 00       		.byte	0
 14937 0881 00       		.byte	0
 14938 0882 1E       		.byte	30
 14939 0883 00       		.byte	0
 14940 0884 00       		.byte	0
 14941 0885 07       		.byte	7
 14942 0886 80       		.byte	-128
 14943 0887 00       		.byte	0
 14944 0888 01       		.byte	1
 14945 0889 E0       		.byte	-32
 14946 088a 00       		.byte	0
 14947 088b 00       		.byte	0
 14948 088c 78       		.byte	120
 14949 088d 00       		.byte	0
 14950 088e 00       		.byte	0
 14951 088f 1E       		.byte	30
 14952 0890 00       		.byte	0
 14953 0891 00       		.byte	0
 14954 0892 78       		.byte	120
 14955 0893 00       		.byte	0
 14956 0894 01       		.byte	1
 14957 0895 E0       		.byte	-32
 14958 0896 00       		.byte	0
 14959 0897 07       		.byte	7
 14960 0898 80       		.byte	-128
 14961 0899 00       		.byte	0
 14962 089a 1E       		.byte	30
 14963 089b 00       		.byte	0
 14964 089c 00       		.byte	0
 14965 089d 78       		.byte	120
 14966 089e 00       		.byte	0
 14967 089f 00       		.byte	0
 14968 08a0 70       		.byte	112
 14969 08a1 00       		.byte	0
 14970 08a2 00       		.byte	0
 14971 08a3 00       		.byte	0
 14972 08a4 00       		.byte	0
 14973 08a5 00       		.byte	0
 14974 08a6 00       		.byte	0
 14975 08a7 00       		.byte	0
 14976 08a8 00       		.byte	0
 14977 08a9 00       		.byte	0
 14978 08aa 00       		.byte	0
 14979 08ab 00       		.byte	0
 14980 08ac 00       		.byte	0
 14981 08ad 00       		.byte	0
 14982 08ae 00       		.byte	0
ARM GAS  C:\Users\milek\AppData\Local\Temp\ccMSPWBt.s 			page 300


 14983 08af 00       		.byte	0
 14984 08b0 00       		.byte	0
 14985 08b1 00       		.byte	0
 14986 08b2 00       		.byte	0
 14987 08b3 00       		.byte	0
 14988 08b4 00       		.byte	0
 14989 08b5 00       		.byte	0
 14990 08b6 00       		.byte	0
 14991 08b7 00       		.byte	0
 14992 08b8 00       		.byte	0
 14993 08b9 00       		.byte	0
 14994 08ba 00       		.byte	0
 14995 08bb 00       		.byte	0
 14996 08bc 00       		.byte	0
 14997 08bd 00       		.byte	0
 14998 08be 00       		.byte	0
 14999 08bf 00       		.byte	0
 15000 08c0 00       		.byte	0
 15001 08c1 07       		.byte	7
 15002 08c2 C0       		.byte	-64
 15003 08c3 00       		.byte	0
 15004 08c4 0F       		.byte	15
 15005 08c5 E0       		.byte	-32
 15006 08c6 00       		.byte	0
 15007 08c7 18       		.byte	24
 15008 08c8 70       		.byte	112
 15009 08c9 00       		.byte	0
 15010 08ca 18       		.byte	24
 15011 08cb 30       		.byte	48
 15012 08cc 00       		.byte	0
 15013 08cd 18       		.byte	24
 15014 08ce 30       		.byte	48
 15015 08cf 00       		.byte	0
 15016 08d0 00       		.byte	0
 15017 08d1 70       		.byte	112
 15018 08d2 00       		.byte	0
 15019 08d3 00       		.byte	0
 15020 08d4 E0       		.byte	-32
 15021 08d5 00       		.byte	0
 15022 08d6 03       		.byte	3
 15023 08d7 C0       		.byte	-64
 15024 08d8 00       		.byte	0
 15025 08d9 03       		.byte	3
 15026 08da 80       		.byte	-128
 15027 08db 00       		.byte	0
 15028 08dc 03       		.byte	3
 15029 08dd 00       		.byte	0
 15030 08de 00       		.byte	0
 15031 08df 00       		.byte	0
 15032 08e0 00       		.byte	0
 15033 08e1 00       		.byte	0
 15034 08e2 00       		.byte	0
 15035 08e3 00       		.byte	0
 15036 08e4 00       		.byte	0
 15037 08e5 07       		.byte	7
 15038 08e6 00       		.byte	0
 15039 08e7 00       		.byte	0
ARM GAS  C:\Users\milek\AppData\Local\Temp\ccMSPWBt.s 			page 301


 15040 08e8 07       		.byte	7
 15041 08e9 00       		.byte	0
 15042 08ea 00       		.byte	0
 15043 08eb 00       		.byte	0
 15044 08ec 00       		.byte	0
 15045 08ed 00       		.byte	0
 15046 08ee 00       		.byte	0
 15047 08ef 00       		.byte	0
 15048 08f0 00       		.byte	0
 15049 08f1 00       		.byte	0
 15050 08f2 00       		.byte	0
 15051 08f3 00       		.byte	0
 15052 08f4 00       		.byte	0
 15053 08f5 00       		.byte	0
 15054 08f6 00       		.byte	0
 15055 08f7 00       		.byte	0
 15056 08f8 00       		.byte	0
 15057 08f9 00       		.byte	0
 15058 08fa 00       		.byte	0
 15059 08fb 00       		.byte	0
 15060 08fc 00       		.byte	0
 15061 08fd 00       		.byte	0
 15062 08fe 00       		.byte	0
 15063 08ff 00       		.byte	0
 15064 0900 00       		.byte	0
 15065 0901 00       		.byte	0
 15066 0902 00       		.byte	0
 15067 0903 00       		.byte	0
 15068 0904 00       		.byte	0
 15069 0905 00       		.byte	0
 15070 0906 03       		.byte	3
 15071 0907 E0       		.byte	-32
 15072 0908 00       		.byte	0
 15073 0909 07       		.byte	7
 15074 090a F0       		.byte	-16
 15075 090b 00       		.byte	0
 15076 090c 0E       		.byte	14
 15077 090d 38       		.byte	56
 15078 090e 00       		.byte	0
 15079 090f 0C       		.byte	12
 15080 0910 18       		.byte	24
 15081 0911 00       		.byte	0
 15082 0912 18       		.byte	24
 15083 0913 78       		.byte	120
 15084 0914 00       		.byte	0
 15085 0915 18       		.byte	24
 15086 0916 F8       		.byte	-8
 15087 0917 00       		.byte	0
 15088 0918 19       		.byte	25
 15089 0919 D8       		.byte	-40
 15090 091a 00       		.byte	0
 15091 091b 19       		.byte	25
 15092 091c 98       		.byte	-104
 15093 091d 00       		.byte	0
 15094 091e 19       		.byte	25
 15095 091f 98       		.byte	-104
 15096 0920 00       		.byte	0
ARM GAS  C:\Users\milek\AppData\Local\Temp\ccMSPWBt.s 			page 302


 15097 0921 19       		.byte	25
 15098 0922 98       		.byte	-104
 15099 0923 00       		.byte	0
 15100 0924 18       		.byte	24
 15101 0925 F8       		.byte	-8
 15102 0926 00       		.byte	0
 15103 0927 18       		.byte	24
 15104 0928 78       		.byte	120
 15105 0929 00       		.byte	0
 15106 092a 18       		.byte	24
 15107 092b 00       		.byte	0
 15108 092c 00       		.byte	0
 15109 092d 0C       		.byte	12
 15110 092e 00       		.byte	0
 15111 092f 00       		.byte	0
 15112 0930 0E       		.byte	14
 15113 0931 18       		.byte	24
 15114 0932 00       		.byte	0
 15115 0933 07       		.byte	7
 15116 0934 F8       		.byte	-8
 15117 0935 00       		.byte	0
 15118 0936 03       		.byte	3
 15119 0937 E0       		.byte	-32
 15120 0938 00       		.byte	0
 15121 0939 00       		.byte	0
 15122 093a 00       		.byte	0
 15123 093b 00       		.byte	0
 15124 093c 00       		.byte	0
 15125 093d 00       		.byte	0
 15126 093e 00       		.byte	0
 15127 093f 00       		.byte	0
 15128 0940 00       		.byte	0
 15129 0941 00       		.byte	0
 15130 0942 00       		.byte	0
 15131 0943 00       		.byte	0
 15132 0944 00       		.byte	0
 15133 0945 00       		.byte	0
 15134 0946 00       		.byte	0
 15135 0947 00       		.byte	0
 15136 0948 00       		.byte	0
 15137 0949 00       		.byte	0
 15138 094a 00       		.byte	0
 15139 094b 00       		.byte	0
 15140 094c 00       		.byte	0
 15141 094d 00       		.byte	0
 15142 094e 00       		.byte	0
 15143 094f 00       		.byte	0
 15144 0950 00       		.byte	0
 15145 0951 1F       		.byte	31
 15146 0952 80       		.byte	-128
 15147 0953 00       		.byte	0
 15148 0954 1F       		.byte	31
 15149 0955 C0       		.byte	-64
 15150 0956 00       		.byte	0
 15151 0957 01       		.byte	1
 15152 0958 C0       		.byte	-64
 15153 0959 00       		.byte	0
ARM GAS  C:\Users\milek\AppData\Local\Temp\ccMSPWBt.s 			page 303


 15154 095a 03       		.byte	3
 15155 095b 60       		.byte	96
 15156 095c 00       		.byte	0
 15157 095d 03       		.byte	3
 15158 095e 60       		.byte	96
 15159 095f 00       		.byte	0
 15160 0960 06       		.byte	6
 15161 0961 30       		.byte	48
 15162 0962 00       		.byte	0
 15163 0963 06       		.byte	6
 15164 0964 30       		.byte	48
 15165 0965 00       		.byte	0
 15166 0966 0C       		.byte	12
 15167 0967 30       		.byte	48
 15168 0968 00       		.byte	0
 15169 0969 0F       		.byte	15
 15170 096a F8       		.byte	-8
 15171 096b 00       		.byte	0
 15172 096c 1F       		.byte	31
 15173 096d F8       		.byte	-8
 15174 096e 00       		.byte	0
 15175 096f 18       		.byte	24
 15176 0970 0C       		.byte	12
 15177 0971 00       		.byte	0
 15178 0972 30       		.byte	48
 15179 0973 0C       		.byte	12
 15180 0974 00       		.byte	0
 15181 0975 FC       		.byte	-4
 15182 0976 7F       		.byte	127
 15183 0977 00       		.byte	0
 15184 0978 FC       		.byte	-4
 15185 0979 7F       		.byte	127
 15186 097a 00       		.byte	0
 15187 097b 00       		.byte	0
 15188 097c 00       		.byte	0
 15189 097d 00       		.byte	0
 15190 097e 00       		.byte	0
 15191 097f 00       		.byte	0
 15192 0980 00       		.byte	0
 15193 0981 00       		.byte	0
 15194 0982 00       		.byte	0
 15195 0983 00       		.byte	0
 15196 0984 00       		.byte	0
 15197 0985 00       		.byte	0
 15198 0986 00       		.byte	0
 15199 0987 00       		.byte	0
 15200 0988 00       		.byte	0
 15201 0989 00       		.byte	0
 15202 098a 00       		.byte	0
 15203 098b 00       		.byte	0
 15204 098c 00       		.byte	0
 15205 098d 00       		.byte	0
 15206 098e 00       		.byte	0
 15207 098f 00       		.byte	0
 15208 0990 00       		.byte	0
 15209 0991 00       		.byte	0
 15210 0992 00       		.byte	0
ARM GAS  C:\Users\milek\AppData\Local\Temp\ccMSPWBt.s 			page 304


 15211 0993 00       		.byte	0
 15212 0994 00       		.byte	0
 15213 0995 00       		.byte	0
 15214 0996 00       		.byte	0
 15215 0997 00       		.byte	0
 15216 0998 00       		.byte	0
 15217 0999 7F       		.byte	127
 15218 099a E0       		.byte	-32
 15219 099b 00       		.byte	0
 15220 099c 7F       		.byte	127
 15221 099d F0       		.byte	-16
 15222 099e 00       		.byte	0
 15223 099f 18       		.byte	24
 15224 09a0 38       		.byte	56
 15225 09a1 00       		.byte	0
 15226 09a2 18       		.byte	24
 15227 09a3 18       		.byte	24
 15228 09a4 00       		.byte	0
 15229 09a5 18       		.byte	24
 15230 09a6 18       		.byte	24
 15231 09a7 00       		.byte	0
 15232 09a8 18       		.byte	24
 15233 09a9 38       		.byte	56
 15234 09aa 00       		.byte	0
 15235 09ab 1F       		.byte	31
 15236 09ac F0       		.byte	-16
 15237 09ad 00       		.byte	0
 15238 09ae 1F       		.byte	31
 15239 09af F8       		.byte	-8
 15240 09b0 00       		.byte	0
 15241 09b1 18       		.byte	24
 15242 09b2 1C       		.byte	28
 15243 09b3 00       		.byte	0
 15244 09b4 18       		.byte	24
 15245 09b5 0C       		.byte	12
 15246 09b6 00       		.byte	0
 15247 09b7 18       		.byte	24
 15248 09b8 0C       		.byte	12
 15249 09b9 00       		.byte	0
 15250 09ba 18       		.byte	24
 15251 09bb 0C       		.byte	12
 15252 09bc 00       		.byte	0
 15253 09bd 7F       		.byte	127
 15254 09be F8       		.byte	-8
 15255 09bf 00       		.byte	0
 15256 09c0 7F       		.byte	127
 15257 09c1 F0       		.byte	-16
 15258 09c2 00       		.byte	0
 15259 09c3 00       		.byte	0
 15260 09c4 00       		.byte	0
 15261 09c5 00       		.byte	0
 15262 09c6 00       		.byte	0
 15263 09c7 00       		.byte	0
 15264 09c8 00       		.byte	0
 15265 09c9 00       		.byte	0
 15266 09ca 00       		.byte	0
 15267 09cb 00       		.byte	0
ARM GAS  C:\Users\milek\AppData\Local\Temp\ccMSPWBt.s 			page 305


 15268 09cc 00       		.byte	0
 15269 09cd 00       		.byte	0
 15270 09ce 00       		.byte	0
 15271 09cf 00       		.byte	0
 15272 09d0 00       		.byte	0
 15273 09d1 00       		.byte	0
 15274 09d2 00       		.byte	0
 15275 09d3 00       		.byte	0
 15276 09d4 00       		.byte	0
 15277 09d5 00       		.byte	0
 15278 09d6 00       		.byte	0
 15279 09d7 00       		.byte	0
 15280 09d8 00       		.byte	0
 15281 09d9 00       		.byte	0
 15282 09da 00       		.byte	0
 15283 09db 00       		.byte	0
 15284 09dc 00       		.byte	0
 15285 09dd 00       		.byte	0
 15286 09de 00       		.byte	0
 15287 09df 00       		.byte	0
 15288 09e0 00       		.byte	0
 15289 09e1 03       		.byte	3
 15290 09e2 EC       		.byte	-20
 15291 09e3 00       		.byte	0
 15292 09e4 0F       		.byte	15
 15293 09e5 FC       		.byte	-4
 15294 09e6 00       		.byte	0
 15295 09e7 1C       		.byte	28
 15296 09e8 1C       		.byte	28
 15297 09e9 00       		.byte	0
 15298 09ea 18       		.byte	24
 15299 09eb 0C       		.byte	12
 15300 09ec 00       		.byte	0
 15301 09ed 30       		.byte	48
 15302 09ee 0C       		.byte	12
 15303 09ef 00       		.byte	0
 15304 09f0 30       		.byte	48
 15305 09f1 00       		.byte	0
 15306 09f2 00       		.byte	0
 15307 09f3 30       		.byte	48
 15308 09f4 00       		.byte	0
 15309 09f5 00       		.byte	0
 15310 09f6 30       		.byte	48
 15311 09f7 00       		.byte	0
 15312 09f8 00       		.byte	0
 15313 09f9 30       		.byte	48
 15314 09fa 00       		.byte	0
 15315 09fb 00       		.byte	0
 15316 09fc 30       		.byte	48
 15317 09fd 00       		.byte	0
 15318 09fe 00       		.byte	0
 15319 09ff 18       		.byte	24
 15320 0a00 0C       		.byte	12
 15321 0a01 00       		.byte	0
 15322 0a02 1C       		.byte	28
 15323 0a03 1C       		.byte	28
 15324 0a04 00       		.byte	0
ARM GAS  C:\Users\milek\AppData\Local\Temp\ccMSPWBt.s 			page 306


 15325 0a05 0F       		.byte	15
 15326 0a06 F8       		.byte	-8
 15327 0a07 00       		.byte	0
 15328 0a08 03       		.byte	3
 15329 0a09 F0       		.byte	-16
 15330 0a0a 00       		.byte	0
 15331 0a0b 00       		.byte	0
 15332 0a0c 00       		.byte	0
 15333 0a0d 00       		.byte	0
 15334 0a0e 00       		.byte	0
 15335 0a0f 00       		.byte	0
 15336 0a10 00       		.byte	0
 15337 0a11 00       		.byte	0
 15338 0a12 00       		.byte	0
 15339 0a13 00       		.byte	0
 15340 0a14 00       		.byte	0
 15341 0a15 00       		.byte	0
 15342 0a16 00       		.byte	0
 15343 0a17 00       		.byte	0
 15344 0a18 00       		.byte	0
 15345 0a19 00       		.byte	0
 15346 0a1a 00       		.byte	0
 15347 0a1b 00       		.byte	0
 15348 0a1c 00       		.byte	0
 15349 0a1d 00       		.byte	0
 15350 0a1e 00       		.byte	0
 15351 0a1f 00       		.byte	0
 15352 0a20 00       		.byte	0
 15353 0a21 00       		.byte	0
 15354 0a22 00       		.byte	0
 15355 0a23 00       		.byte	0
 15356 0a24 00       		.byte	0
 15357 0a25 00       		.byte	0
 15358 0a26 00       		.byte	0
 15359 0a27 00       		.byte	0
 15360 0a28 00       		.byte	0
 15361 0a29 7F       		.byte	127
 15362 0a2a C0       		.byte	-64
 15363 0a2b 00       		.byte	0
 15364 0a2c 7F       		.byte	127
 15365 0a2d F0       		.byte	-16
 15366 0a2e 00       		.byte	0
 15367 0a2f 18       		.byte	24
 15368 0a30 38       		.byte	56
 15369 0a31 00       		.byte	0
 15370 0a32 18       		.byte	24
 15371 0a33 18       		.byte	24
 15372 0a34 00       		.byte	0
 15373 0a35 18       		.byte	24
 15374 0a36 0C       		.byte	12
 15375 0a37 00       		.byte	0
 15376 0a38 18       		.byte	24
 15377 0a39 0C       		.byte	12
 15378 0a3a 00       		.byte	0
 15379 0a3b 18       		.byte	24
 15380 0a3c 0C       		.byte	12
 15381 0a3d 00       		.byte	0
ARM GAS  C:\Users\milek\AppData\Local\Temp\ccMSPWBt.s 			page 307


 15382 0a3e 18       		.byte	24
 15383 0a3f 0C       		.byte	12
 15384 0a40 00       		.byte	0
 15385 0a41 18       		.byte	24
 15386 0a42 0C       		.byte	12
 15387 0a43 00       		.byte	0
 15388 0a44 18       		.byte	24
 15389 0a45 0C       		.byte	12
 15390 0a46 00       		.byte	0
 15391 0a47 18       		.byte	24
 15392 0a48 18       		.byte	24
 15393 0a49 00       		.byte	0
 15394 0a4a 18       		.byte	24
 15395 0a4b 38       		.byte	56
 15396 0a4c 00       		.byte	0
 15397 0a4d 7F       		.byte	127
 15398 0a4e F0       		.byte	-16
 15399 0a4f 00       		.byte	0
 15400 0a50 7F       		.byte	127
 15401 0a51 E0       		.byte	-32
 15402 0a52 00       		.byte	0
 15403 0a53 00       		.byte	0
 15404 0a54 00       		.byte	0
 15405 0a55 00       		.byte	0
 15406 0a56 00       		.byte	0
 15407 0a57 00       		.byte	0
 15408 0a58 00       		.byte	0
 15409 0a59 00       		.byte	0
 15410 0a5a 00       		.byte	0
 15411 0a5b 00       		.byte	0
 15412 0a5c 00       		.byte	0
 15413 0a5d 00       		.byte	0
 15414 0a5e 00       		.byte	0
 15415 0a5f 00       		.byte	0
 15416 0a60 00       		.byte	0
 15417 0a61 00       		.byte	0
 15418 0a62 00       		.byte	0
 15419 0a63 00       		.byte	0
 15420 0a64 00       		.byte	0
 15421 0a65 00       		.byte	0
 15422 0a66 00       		.byte	0
 15423 0a67 00       		.byte	0
 15424 0a68 00       		.byte	0
 15425 0a69 00       		.byte	0
 15426 0a6a 00       		.byte	0
 15427 0a6b 00       		.byte	0
 15428 0a6c 00       		.byte	0
 15429 0a6d 00       		.byte	0
 15430 0a6e 00       		.byte	0
 15431 0a6f 00       		.byte	0
 15432 0a70 00       		.byte	0
 15433 0a71 7F       		.byte	127
 15434 0a72 F8       		.byte	-8
 15435 0a73 00       		.byte	0
 15436 0a74 7F       		.byte	127
 15437 0a75 F8       		.byte	-8
 15438 0a76 00       		.byte	0
ARM GAS  C:\Users\milek\AppData\Local\Temp\ccMSPWBt.s 			page 308


 15439 0a77 18       		.byte	24
 15440 0a78 18       		.byte	24
 15441 0a79 00       		.byte	0
 15442 0a7a 18       		.byte	24
 15443 0a7b 18       		.byte	24
 15444 0a7c 00       		.byte	0
 15445 0a7d 19       		.byte	25
 15446 0a7e 98       		.byte	-104
 15447 0a7f 00       		.byte	0
 15448 0a80 19       		.byte	25
 15449 0a81 80       		.byte	-128
 15450 0a82 00       		.byte	0
 15451 0a83 1F       		.byte	31
 15452 0a84 80       		.byte	-128
 15453 0a85 00       		.byte	0
 15454 0a86 1F       		.byte	31
 15455 0a87 80       		.byte	-128
 15456 0a88 00       		.byte	0
 15457 0a89 19       		.byte	25
 15458 0a8a 80       		.byte	-128
 15459 0a8b 00       		.byte	0
 15460 0a8c 19       		.byte	25
 15461 0a8d 98       		.byte	-104
 15462 0a8e 00       		.byte	0
 15463 0a8f 18       		.byte	24
 15464 0a90 18       		.byte	24
 15465 0a91 00       		.byte	0
 15466 0a92 18       		.byte	24
 15467 0a93 18       		.byte	24
 15468 0a94 00       		.byte	0
 15469 0a95 7F       		.byte	127
 15470 0a96 F8       		.byte	-8
 15471 0a97 00       		.byte	0
 15472 0a98 7F       		.byte	127
 15473 0a99 F8       		.byte	-8
 15474 0a9a 00       		.byte	0
 15475 0a9b 00       		.byte	0
 15476 0a9c 00       		.byte	0
 15477 0a9d 00       		.byte	0
 15478 0a9e 00       		.byte	0
 15479 0a9f 00       		.byte	0
 15480 0aa0 00       		.byte	0
 15481 0aa1 00       		.byte	0
 15482 0aa2 00       		.byte	0
 15483 0aa3 00       		.byte	0
 15484 0aa4 00       		.byte	0
 15485 0aa5 00       		.byte	0
 15486 0aa6 00       		.byte	0
 15487 0aa7 00       		.byte	0
 15488 0aa8 00       		.byte	0
 15489 0aa9 00       		.byte	0
 15490 0aaa 00       		.byte	0
 15491 0aab 00       		.byte	0
 15492 0aac 00       		.byte	0
 15493 0aad 00       		.byte	0
 15494 0aae 00       		.byte	0
 15495 0aaf 00       		.byte	0
ARM GAS  C:\Users\milek\AppData\Local\Temp\ccMSPWBt.s 			page 309


 15496 0ab0 00       		.byte	0
 15497 0ab1 00       		.byte	0
 15498 0ab2 00       		.byte	0
 15499 0ab3 00       		.byte	0
 15500 0ab4 00       		.byte	0
 15501 0ab5 00       		.byte	0
 15502 0ab6 00       		.byte	0
 15503 0ab7 00       		.byte	0
 15504 0ab8 00       		.byte	0
 15505 0ab9 3F       		.byte	63
 15506 0aba FC       		.byte	-4
 15507 0abb 00       		.byte	0
 15508 0abc 3F       		.byte	63
 15509 0abd FC       		.byte	-4
 15510 0abe 00       		.byte	0
 15511 0abf 0C       		.byte	12
 15512 0ac0 0C       		.byte	12
 15513 0ac1 00       		.byte	0
 15514 0ac2 0C       		.byte	12
 15515 0ac3 0C       		.byte	12
 15516 0ac4 00       		.byte	0
 15517 0ac5 0C       		.byte	12
 15518 0ac6 CC       		.byte	-52
 15519 0ac7 00       		.byte	0
 15520 0ac8 0C       		.byte	12
 15521 0ac9 C0       		.byte	-64
 15522 0aca 00       		.byte	0
 15523 0acb 0F       		.byte	15
 15524 0acc C0       		.byte	-64
 15525 0acd 00       		.byte	0
 15526 0ace 0F       		.byte	15
 15527 0acf C0       		.byte	-64
 15528 0ad0 00       		.byte	0
 15529 0ad1 0C       		.byte	12
 15530 0ad2 C0       		.byte	-64
 15531 0ad3 00       		.byte	0
 15532 0ad4 0C       		.byte	12
 15533 0ad5 C0       		.byte	-64
 15534 0ad6 00       		.byte	0
 15535 0ad7 0C       		.byte	12
 15536 0ad8 00       		.byte	0
 15537 0ad9 00       		.byte	0
 15538 0ada 0C       		.byte	12
 15539 0adb 00       		.byte	0
 15540 0adc 00       		.byte	0
 15541 0add 3F       		.byte	63
 15542 0ade C0       		.byte	-64
 15543 0adf 00       		.byte	0
 15544 0ae0 3F       		.byte	63
 15545 0ae1 C0       		.byte	-64
 15546 0ae2 00       		.byte	0
 15547 0ae3 00       		.byte	0
 15548 0ae4 00       		.byte	0
 15549 0ae5 00       		.byte	0
 15550 0ae6 00       		.byte	0
 15551 0ae7 00       		.byte	0
 15552 0ae8 00       		.byte	0
ARM GAS  C:\Users\milek\AppData\Local\Temp\ccMSPWBt.s 			page 310


 15553 0ae9 00       		.byte	0
 15554 0aea 00       		.byte	0
 15555 0aeb 00       		.byte	0
 15556 0aec 00       		.byte	0
 15557 0aed 00       		.byte	0
 15558 0aee 00       		.byte	0
 15559 0aef 00       		.byte	0
 15560 0af0 00       		.byte	0
 15561 0af1 00       		.byte	0
 15562 0af2 00       		.byte	0
 15563 0af3 00       		.byte	0
 15564 0af4 00       		.byte	0
 15565 0af5 00       		.byte	0
 15566 0af6 00       		.byte	0
 15567 0af7 00       		.byte	0
 15568 0af8 00       		.byte	0
 15569 0af9 00       		.byte	0
 15570 0afa 00       		.byte	0
 15571 0afb 00       		.byte	0
 15572 0afc 00       		.byte	0
 15573 0afd 00       		.byte	0
 15574 0afe 00       		.byte	0
 15575 0aff 00       		.byte	0
 15576 0b00 00       		.byte	0
 15577 0b01 03       		.byte	3
 15578 0b02 EC       		.byte	-20
 15579 0b03 00       		.byte	0
 15580 0b04 0F       		.byte	15
 15581 0b05 FC       		.byte	-4
 15582 0b06 00       		.byte	0
 15583 0b07 1C       		.byte	28
 15584 0b08 1C       		.byte	28
 15585 0b09 00       		.byte	0
 15586 0b0a 18       		.byte	24
 15587 0b0b 0C       		.byte	12
 15588 0b0c 00       		.byte	0
 15589 0b0d 30       		.byte	48
 15590 0b0e 0C       		.byte	12
 15591 0b0f 00       		.byte	0
 15592 0b10 30       		.byte	48
 15593 0b11 00       		.byte	0
 15594 0b12 00       		.byte	0
 15595 0b13 30       		.byte	48
 15596 0b14 00       		.byte	0
 15597 0b15 00       		.byte	0
 15598 0b16 30       		.byte	48
 15599 0b17 FE       		.byte	-2
 15600 0b18 00       		.byte	0
 15601 0b19 30       		.byte	48
 15602 0b1a FE       		.byte	-2
 15603 0b1b 00       		.byte	0
 15604 0b1c 30       		.byte	48
 15605 0b1d 0C       		.byte	12
 15606 0b1e 00       		.byte	0
 15607 0b1f 38       		.byte	56
 15608 0b20 0C       		.byte	12
 15609 0b21 00       		.byte	0
ARM GAS  C:\Users\milek\AppData\Local\Temp\ccMSPWBt.s 			page 311


 15610 0b22 1C       		.byte	28
 15611 0b23 1C       		.byte	28
 15612 0b24 00       		.byte	0
 15613 0b25 0F       		.byte	15
 15614 0b26 FC       		.byte	-4
 15615 0b27 00       		.byte	0
 15616 0b28 03       		.byte	3
 15617 0b29 F0       		.byte	-16
 15618 0b2a 00       		.byte	0
 15619 0b2b 00       		.byte	0
 15620 0b2c 00       		.byte	0
 15621 0b2d 00       		.byte	0
 15622 0b2e 00       		.byte	0
 15623 0b2f 00       		.byte	0
 15624 0b30 00       		.byte	0
 15625 0b31 00       		.byte	0
 15626 0b32 00       		.byte	0
 15627 0b33 00       		.byte	0
 15628 0b34 00       		.byte	0
 15629 0b35 00       		.byte	0
 15630 0b36 00       		.byte	0
 15631 0b37 00       		.byte	0
 15632 0b38 00       		.byte	0
 15633 0b39 00       		.byte	0
 15634 0b3a 00       		.byte	0
 15635 0b3b 00       		.byte	0
 15636 0b3c 00       		.byte	0
 15637 0b3d 00       		.byte	0
 15638 0b3e 00       		.byte	0
 15639 0b3f 00       		.byte	0
 15640 0b40 00       		.byte	0
 15641 0b41 00       		.byte	0
 15642 0b42 00       		.byte	0
 15643 0b43 00       		.byte	0
 15644 0b44 00       		.byte	0
 15645 0b45 00       		.byte	0
 15646 0b46 00       		.byte	0
 15647 0b47 00       		.byte	0
 15648 0b48 00       		.byte	0
 15649 0b49 7E       		.byte	126
 15650 0b4a 7E       		.byte	126
 15651 0b4b 00       		.byte	0
 15652 0b4c 7E       		.byte	126
 15653 0b4d 7E       		.byte	126
 15654 0b4e 00       		.byte	0
 15655 0b4f 18       		.byte	24
 15656 0b50 18       		.byte	24
 15657 0b51 00       		.byte	0
 15658 0b52 18       		.byte	24
 15659 0b53 18       		.byte	24
 15660 0b54 00       		.byte	0
 15661 0b55 18       		.byte	24
 15662 0b56 18       		.byte	24
 15663 0b57 00       		.byte	0
 15664 0b58 18       		.byte	24
 15665 0b59 18       		.byte	24
 15666 0b5a 00       		.byte	0
ARM GAS  C:\Users\milek\AppData\Local\Temp\ccMSPWBt.s 			page 312


 15667 0b5b 1F       		.byte	31
 15668 0b5c F8       		.byte	-8
 15669 0b5d 00       		.byte	0
 15670 0b5e 1F       		.byte	31
 15671 0b5f F8       		.byte	-8
 15672 0b60 00       		.byte	0
 15673 0b61 18       		.byte	24
 15674 0b62 18       		.byte	24
 15675 0b63 00       		.byte	0
 15676 0b64 18       		.byte	24
 15677 0b65 18       		.byte	24
 15678 0b66 00       		.byte	0
 15679 0b67 18       		.byte	24
 15680 0b68 18       		.byte	24
 15681 0b69 00       		.byte	0
 15682 0b6a 18       		.byte	24
 15683 0b6b 18       		.byte	24
 15684 0b6c 00       		.byte	0
 15685 0b6d 7E       		.byte	126
 15686 0b6e 7E       		.byte	126
 15687 0b6f 00       		.byte	0
 15688 0b70 7E       		.byte	126
 15689 0b71 7E       		.byte	126
 15690 0b72 00       		.byte	0
 15691 0b73 00       		.byte	0
 15692 0b74 00       		.byte	0
 15693 0b75 00       		.byte	0
 15694 0b76 00       		.byte	0
 15695 0b77 00       		.byte	0
 15696 0b78 00       		.byte	0
 15697 0b79 00       		.byte	0
 15698 0b7a 00       		.byte	0
 15699 0b7b 00       		.byte	0
 15700 0b7c 00       		.byte	0
 15701 0b7d 00       		.byte	0
 15702 0b7e 00       		.byte	0
 15703 0b7f 00       		.byte	0
 15704 0b80 00       		.byte	0
 15705 0b81 00       		.byte	0
 15706 0b82 00       		.byte	0
 15707 0b83 00       		.byte	0
 15708 0b84 00       		.byte	0
 15709 0b85 00       		.byte	0
 15710 0b86 00       		.byte	0
 15711 0b87 00       		.byte	0
 15712 0b88 00       		.byte	0
 15713 0b89 00       		.byte	0
 15714 0b8a 00       		.byte	0
 15715 0b8b 00       		.byte	0
 15716 0b8c 00       		.byte	0
 15717 0b8d 00       		.byte	0
 15718 0b8e 00       		.byte	0
 15719 0b8f 00       		.byte	0
 15720 0b90 00       		.byte	0
 15721 0b91 1F       		.byte	31
 15722 0b92 F8       		.byte	-8
 15723 0b93 00       		.byte	0
ARM GAS  C:\Users\milek\AppData\Local\Temp\ccMSPWBt.s 			page 313


 15724 0b94 1F       		.byte	31
 15725 0b95 F8       		.byte	-8
 15726 0b96 00       		.byte	0
 15727 0b97 01       		.byte	1
 15728 0b98 80       		.byte	-128
 15729 0b99 00       		.byte	0
 15730 0b9a 01       		.byte	1
 15731 0b9b 80       		.byte	-128
 15732 0b9c 00       		.byte	0
 15733 0b9d 01       		.byte	1
 15734 0b9e 80       		.byte	-128
 15735 0b9f 00       		.byte	0
 15736 0ba0 01       		.byte	1
 15737 0ba1 80       		.byte	-128
 15738 0ba2 00       		.byte	0
 15739 0ba3 01       		.byte	1
 15740 0ba4 80       		.byte	-128
 15741 0ba5 00       		.byte	0
 15742 0ba6 01       		.byte	1
 15743 0ba7 80       		.byte	-128
 15744 0ba8 00       		.byte	0
 15745 0ba9 01       		.byte	1
 15746 0baa 80       		.byte	-128
 15747 0bab 00       		.byte	0
 15748 0bac 01       		.byte	1
 15749 0bad 80       		.byte	-128
 15750 0bae 00       		.byte	0
 15751 0baf 01       		.byte	1
 15752 0bb0 80       		.byte	-128
 15753 0bb1 00       		.byte	0
 15754 0bb2 01       		.byte	1
 15755 0bb3 80       		.byte	-128
 15756 0bb4 00       		.byte	0
 15757 0bb5 1F       		.byte	31
 15758 0bb6 F8       		.byte	-8
 15759 0bb7 00       		.byte	0
 15760 0bb8 1F       		.byte	31
 15761 0bb9 F8       		.byte	-8
 15762 0bba 00       		.byte	0
 15763 0bbb 00       		.byte	0
 15764 0bbc 00       		.byte	0
 15765 0bbd 00       		.byte	0
 15766 0bbe 00       		.byte	0
 15767 0bbf 00       		.byte	0
 15768 0bc0 00       		.byte	0
 15769 0bc1 00       		.byte	0
 15770 0bc2 00       		.byte	0
 15771 0bc3 00       		.byte	0
 15772 0bc4 00       		.byte	0
 15773 0bc5 00       		.byte	0
 15774 0bc6 00       		.byte	0
 15775 0bc7 00       		.byte	0
 15776 0bc8 00       		.byte	0
 15777 0bc9 00       		.byte	0
 15778 0bca 00       		.byte	0
 15779 0bcb 00       		.byte	0
 15780 0bcc 00       		.byte	0
ARM GAS  C:\Users\milek\AppData\Local\Temp\ccMSPWBt.s 			page 314


 15781 0bcd 00       		.byte	0
 15782 0bce 00       		.byte	0
 15783 0bcf 00       		.byte	0
 15784 0bd0 00       		.byte	0
 15785 0bd1 00       		.byte	0
 15786 0bd2 00       		.byte	0
 15787 0bd3 00       		.byte	0
 15788 0bd4 00       		.byte	0
 15789 0bd5 00       		.byte	0
 15790 0bd6 00       		.byte	0
 15791 0bd7 00       		.byte	0
 15792 0bd8 00       		.byte	0
 15793 0bd9 07       		.byte	7
 15794 0bda FE       		.byte	-2
 15795 0bdb 00       		.byte	0
 15796 0bdc 07       		.byte	7
 15797 0bdd FE       		.byte	-2
 15798 0bde 00       		.byte	0
 15799 0bdf 00       		.byte	0
 15800 0be0 30       		.byte	48
 15801 0be1 00       		.byte	0
 15802 0be2 00       		.byte	0
 15803 0be3 30       		.byte	48
 15804 0be4 00       		.byte	0
 15805 0be5 00       		.byte	0
 15806 0be6 30       		.byte	48
 15807 0be7 00       		.byte	0
 15808 0be8 00       		.byte	0
 15809 0be9 30       		.byte	48
 15810 0bea 00       		.byte	0
 15811 0beb 00       		.byte	0
 15812 0bec 30       		.byte	48
 15813 0bed 00       		.byte	0
 15814 0bee 30       		.byte	48
 15815 0bef 30       		.byte	48
 15816 0bf0 00       		.byte	0
 15817 0bf1 30       		.byte	48
 15818 0bf2 30       		.byte	48
 15819 0bf3 00       		.byte	0
 15820 0bf4 30       		.byte	48
 15821 0bf5 30       		.byte	48
 15822 0bf6 00       		.byte	0
 15823 0bf7 30       		.byte	48
 15824 0bf8 30       		.byte	48
 15825 0bf9 00       		.byte	0
 15826 0bfa 30       		.byte	48
 15827 0bfb 60       		.byte	96
 15828 0bfc 00       		.byte	0
 15829 0bfd 3F       		.byte	63
 15830 0bfe E0       		.byte	-32
 15831 0bff 00       		.byte	0
 15832 0c00 0F       		.byte	15
 15833 0c01 80       		.byte	-128
 15834 0c02 00       		.byte	0
 15835 0c03 00       		.byte	0
 15836 0c04 00       		.byte	0
 15837 0c05 00       		.byte	0
ARM GAS  C:\Users\milek\AppData\Local\Temp\ccMSPWBt.s 			page 315


 15838 0c06 00       		.byte	0
 15839 0c07 00       		.byte	0
 15840 0c08 00       		.byte	0
 15841 0c09 00       		.byte	0
 15842 0c0a 00       		.byte	0
 15843 0c0b 00       		.byte	0
 15844 0c0c 00       		.byte	0
 15845 0c0d 00       		.byte	0
 15846 0c0e 00       		.byte	0
 15847 0c0f 00       		.byte	0
 15848 0c10 00       		.byte	0
 15849 0c11 00       		.byte	0
 15850 0c12 00       		.byte	0
 15851 0c13 00       		.byte	0
 15852 0c14 00       		.byte	0
 15853 0c15 00       		.byte	0
 15854 0c16 00       		.byte	0
 15855 0c17 00       		.byte	0
 15856 0c18 00       		.byte	0
 15857 0c19 00       		.byte	0
 15858 0c1a 00       		.byte	0
 15859 0c1b 00       		.byte	0
 15860 0c1c 00       		.byte	0
 15861 0c1d 00       		.byte	0
 15862 0c1e 00       		.byte	0
 15863 0c1f 00       		.byte	0
 15864 0c20 00       		.byte	0
 15865 0c21 7F       		.byte	127
 15866 0c22 3E       		.byte	62
 15867 0c23 00       		.byte	0
 15868 0c24 7F       		.byte	127
 15869 0c25 3E       		.byte	62
 15870 0c26 00       		.byte	0
 15871 0c27 18       		.byte	24
 15872 0c28 30       		.byte	48
 15873 0c29 00       		.byte	0
 15874 0c2a 18       		.byte	24
 15875 0c2b 60       		.byte	96
 15876 0c2c 00       		.byte	0
 15877 0c2d 18       		.byte	24
 15878 0c2e C0       		.byte	-64
 15879 0c2f 00       		.byte	0
 15880 0c30 19       		.byte	25
 15881 0c31 80       		.byte	-128
 15882 0c32 00       		.byte	0
 15883 0c33 1B       		.byte	27
 15884 0c34 80       		.byte	-128
 15885 0c35 00       		.byte	0
 15886 0c36 1F       		.byte	31
 15887 0c37 C0       		.byte	-64
 15888 0c38 00       		.byte	0
 15889 0c39 1C       		.byte	28
 15890 0c3a E0       		.byte	-32
 15891 0c3b 00       		.byte	0
 15892 0c3c 18       		.byte	24
 15893 0c3d 70       		.byte	112
 15894 0c3e 00       		.byte	0
ARM GAS  C:\Users\milek\AppData\Local\Temp\ccMSPWBt.s 			page 316


 15895 0c3f 18       		.byte	24
 15896 0c40 30       		.byte	48
 15897 0c41 00       		.byte	0
 15898 0c42 18       		.byte	24
 15899 0c43 38       		.byte	56
 15900 0c44 00       		.byte	0
 15901 0c45 7F       		.byte	127
 15902 0c46 1F       		.byte	31
 15903 0c47 00       		.byte	0
 15904 0c48 7F       		.byte	127
 15905 0c49 1F       		.byte	31
 15906 0c4a 00       		.byte	0
 15907 0c4b 00       		.byte	0
 15908 0c4c 00       		.byte	0
 15909 0c4d 00       		.byte	0
 15910 0c4e 00       		.byte	0
 15911 0c4f 00       		.byte	0
 15912 0c50 00       		.byte	0
 15913 0c51 00       		.byte	0
 15914 0c52 00       		.byte	0
 15915 0c53 00       		.byte	0
 15916 0c54 00       		.byte	0
 15917 0c55 00       		.byte	0
 15918 0c56 00       		.byte	0
 15919 0c57 00       		.byte	0
 15920 0c58 00       		.byte	0
 15921 0c59 00       		.byte	0
 15922 0c5a 00       		.byte	0
 15923 0c5b 00       		.byte	0
 15924 0c5c 00       		.byte	0
 15925 0c5d 00       		.byte	0
 15926 0c5e 00       		.byte	0
 15927 0c5f 00       		.byte	0
 15928 0c60 00       		.byte	0
 15929 0c61 00       		.byte	0
 15930 0c62 00       		.byte	0
 15931 0c63 00       		.byte	0
 15932 0c64 00       		.byte	0
 15933 0c65 00       		.byte	0
 15934 0c66 00       		.byte	0
 15935 0c67 00       		.byte	0
 15936 0c68 00       		.byte	0
 15937 0c69 7F       		.byte	127
 15938 0c6a 80       		.byte	-128
 15939 0c6b 00       		.byte	0
 15940 0c6c 7F       		.byte	127
 15941 0c6d 80       		.byte	-128
 15942 0c6e 00       		.byte	0
 15943 0c6f 0C       		.byte	12
 15944 0c70 00       		.byte	0
 15945 0c71 00       		.byte	0
 15946 0c72 0C       		.byte	12
 15947 0c73 00       		.byte	0
 15948 0c74 00       		.byte	0
 15949 0c75 0C       		.byte	12
 15950 0c76 00       		.byte	0
 15951 0c77 00       		.byte	0
ARM GAS  C:\Users\milek\AppData\Local\Temp\ccMSPWBt.s 			page 317


 15952 0c78 0C       		.byte	12
 15953 0c79 00       		.byte	0
 15954 0c7a 00       		.byte	0
 15955 0c7b 0C       		.byte	12
 15956 0c7c 00       		.byte	0
 15957 0c7d 00       		.byte	0
 15958 0c7e 0C       		.byte	12
 15959 0c7f 00       		.byte	0
 15960 0c80 00       		.byte	0
 15961 0c81 0C       		.byte	12
 15962 0c82 0C       		.byte	12
 15963 0c83 00       		.byte	0
 15964 0c84 0C       		.byte	12
 15965 0c85 0C       		.byte	12
 15966 0c86 00       		.byte	0
 15967 0c87 0C       		.byte	12
 15968 0c88 0C       		.byte	12
 15969 0c89 00       		.byte	0
 15970 0c8a 0C       		.byte	12
 15971 0c8b 0C       		.byte	12
 15972 0c8c 00       		.byte	0
 15973 0c8d 7F       		.byte	127
 15974 0c8e FC       		.byte	-4
 15975 0c8f 00       		.byte	0
 15976 0c90 7F       		.byte	127
 15977 0c91 FC       		.byte	-4
 15978 0c92 00       		.byte	0
 15979 0c93 00       		.byte	0
 15980 0c94 00       		.byte	0
 15981 0c95 00       		.byte	0
 15982 0c96 00       		.byte	0
 15983 0c97 00       		.byte	0
 15984 0c98 00       		.byte	0
 15985 0c99 00       		.byte	0
 15986 0c9a 00       		.byte	0
 15987 0c9b 00       		.byte	0
 15988 0c9c 00       		.byte	0
 15989 0c9d 00       		.byte	0
 15990 0c9e 00       		.byte	0
 15991 0c9f 00       		.byte	0
 15992 0ca0 00       		.byte	0
 15993 0ca1 00       		.byte	0
 15994 0ca2 00       		.byte	0
 15995 0ca3 00       		.byte	0
 15996 0ca4 00       		.byte	0
 15997 0ca5 00       		.byte	0
 15998 0ca6 00       		.byte	0
 15999 0ca7 00       		.byte	0
 16000 0ca8 00       		.byte	0
 16001 0ca9 00       		.byte	0
 16002 0caa 00       		.byte	0
 16003 0cab 00       		.byte	0
 16004 0cac 00       		.byte	0
 16005 0cad 00       		.byte	0
 16006 0cae 00       		.byte	0
 16007 0caf 00       		.byte	0
 16008 0cb0 00       		.byte	0
ARM GAS  C:\Users\milek\AppData\Local\Temp\ccMSPWBt.s 			page 318


 16009 0cb1 F0       		.byte	-16
 16010 0cb2 0F       		.byte	15
 16011 0cb3 00       		.byte	0
 16012 0cb4 F8       		.byte	-8
 16013 0cb5 1F       		.byte	31
 16014 0cb6 00       		.byte	0
 16015 0cb7 38       		.byte	56
 16016 0cb8 1C       		.byte	28
 16017 0cb9 00       		.byte	0
 16018 0cba 3C       		.byte	60
 16019 0cbb 3C       		.byte	60
 16020 0cbc 00       		.byte	0
 16021 0cbd 3C       		.byte	60
 16022 0cbe 3C       		.byte	60
 16023 0cbf 00       		.byte	0
 16024 0cc0 36       		.byte	54
 16025 0cc1 6C       		.byte	108
 16026 0cc2 00       		.byte	0
 16027 0cc3 36       		.byte	54
 16028 0cc4 6C       		.byte	108
 16029 0cc5 00       		.byte	0
 16030 0cc6 33       		.byte	51
 16031 0cc7 CC       		.byte	-52
 16032 0cc8 00       		.byte	0
 16033 0cc9 33       		.byte	51
 16034 0cca CC       		.byte	-52
 16035 0ccb 00       		.byte	0
 16036 0ccc 31       		.byte	49
 16037 0ccd 8C       		.byte	-116
 16038 0cce 00       		.byte	0
 16039 0ccf 30       		.byte	48
 16040 0cd0 0C       		.byte	12
 16041 0cd1 00       		.byte	0
 16042 0cd2 30       		.byte	48
 16043 0cd3 0C       		.byte	12
 16044 0cd4 00       		.byte	0
 16045 0cd5 FE       		.byte	-2
 16046 0cd6 7F       		.byte	127
 16047 0cd7 00       		.byte	0
 16048 0cd8 FE       		.byte	-2
 16049 0cd9 7F       		.byte	127
 16050 0cda 00       		.byte	0
 16051 0cdb 00       		.byte	0
 16052 0cdc 00       		.byte	0
 16053 0cdd 00       		.byte	0
 16054 0cde 00       		.byte	0
 16055 0cdf 00       		.byte	0
 16056 0ce0 00       		.byte	0
 16057 0ce1 00       		.byte	0
 16058 0ce2 00       		.byte	0
 16059 0ce3 00       		.byte	0
 16060 0ce4 00       		.byte	0
 16061 0ce5 00       		.byte	0
 16062 0ce6 00       		.byte	0
 16063 0ce7 00       		.byte	0
 16064 0ce8 00       		.byte	0
 16065 0ce9 00       		.byte	0
ARM GAS  C:\Users\milek\AppData\Local\Temp\ccMSPWBt.s 			page 319


 16066 0cea 00       		.byte	0
 16067 0ceb 00       		.byte	0
 16068 0cec 00       		.byte	0
 16069 0ced 00       		.byte	0
 16070 0cee 00       		.byte	0
 16071 0cef 00       		.byte	0
 16072 0cf0 00       		.byte	0
 16073 0cf1 00       		.byte	0
 16074 0cf2 00       		.byte	0
 16075 0cf3 00       		.byte	0
 16076 0cf4 00       		.byte	0
 16077 0cf5 00       		.byte	0
 16078 0cf6 00       		.byte	0
 16079 0cf7 00       		.byte	0
 16080 0cf8 00       		.byte	0
 16081 0cf9 78       		.byte	120
 16082 0cfa FE       		.byte	-2
 16083 0cfb 00       		.byte	0
 16084 0cfc 78       		.byte	120
 16085 0cfd FE       		.byte	-2
 16086 0cfe 00       		.byte	0
 16087 0cff 1C       		.byte	28
 16088 0d00 18       		.byte	24
 16089 0d01 00       		.byte	0
 16090 0d02 1E       		.byte	30
 16091 0d03 18       		.byte	24
 16092 0d04 00       		.byte	0
 16093 0d05 1F       		.byte	31
 16094 0d06 18       		.byte	24
 16095 0d07 00       		.byte	0
 16096 0d08 1B       		.byte	27
 16097 0d09 18       		.byte	24
 16098 0d0a 00       		.byte	0
 16099 0d0b 1B       		.byte	27
 16100 0d0c 98       		.byte	-104
 16101 0d0d 00       		.byte	0
 16102 0d0e 19       		.byte	25
 16103 0d0f D8       		.byte	-40
 16104 0d10 00       		.byte	0
 16105 0d11 18       		.byte	24
 16106 0d12 D8       		.byte	-40
 16107 0d13 00       		.byte	0
 16108 0d14 18       		.byte	24
 16109 0d15 F8       		.byte	-8
 16110 0d16 00       		.byte	0
 16111 0d17 18       		.byte	24
 16112 0d18 78       		.byte	120
 16113 0d19 00       		.byte	0
 16114 0d1a 18       		.byte	24
 16115 0d1b 38       		.byte	56
 16116 0d1c 00       		.byte	0
 16117 0d1d 7F       		.byte	127
 16118 0d1e 18       		.byte	24
 16119 0d1f 00       		.byte	0
 16120 0d20 7F       		.byte	127
 16121 0d21 18       		.byte	24
 16122 0d22 00       		.byte	0
ARM GAS  C:\Users\milek\AppData\Local\Temp\ccMSPWBt.s 			page 320


 16123 0d23 00       		.byte	0
 16124 0d24 00       		.byte	0
 16125 0d25 00       		.byte	0
 16126 0d26 00       		.byte	0
 16127 0d27 00       		.byte	0
 16128 0d28 00       		.byte	0
 16129 0d29 00       		.byte	0
 16130 0d2a 00       		.byte	0
 16131 0d2b 00       		.byte	0
 16132 0d2c 00       		.byte	0
 16133 0d2d 00       		.byte	0
 16134 0d2e 00       		.byte	0
 16135 0d2f 00       		.byte	0
 16136 0d30 00       		.byte	0
 16137 0d31 00       		.byte	0
 16138 0d32 00       		.byte	0
 16139 0d33 00       		.byte	0
 16140 0d34 00       		.byte	0
 16141 0d35 00       		.byte	0
 16142 0d36 00       		.byte	0
 16143 0d37 00       		.byte	0
 16144 0d38 00       		.byte	0
 16145 0d39 00       		.byte	0
 16146 0d3a 00       		.byte	0
 16147 0d3b 00       		.byte	0
 16148 0d3c 00       		.byte	0
 16149 0d3d 00       		.byte	0
 16150 0d3e 00       		.byte	0
 16151 0d3f 00       		.byte	0
 16152 0d40 00       		.byte	0
 16153 0d41 03       		.byte	3
 16154 0d42 C0       		.byte	-64
 16155 0d43 00       		.byte	0
 16156 0d44 0F       		.byte	15
 16157 0d45 F0       		.byte	-16
 16158 0d46 00       		.byte	0
 16159 0d47 1C       		.byte	28
 16160 0d48 38       		.byte	56
 16161 0d49 00       		.byte	0
 16162 0d4a 18       		.byte	24
 16163 0d4b 18       		.byte	24
 16164 0d4c 00       		.byte	0
 16165 0d4d 38       		.byte	56
 16166 0d4e 1C       		.byte	28
 16167 0d4f 00       		.byte	0
 16168 0d50 30       		.byte	48
 16169 0d51 0C       		.byte	12
 16170 0d52 00       		.byte	0
 16171 0d53 30       		.byte	48
 16172 0d54 0C       		.byte	12
 16173 0d55 00       		.byte	0
 16174 0d56 30       		.byte	48
 16175 0d57 0C       		.byte	12
 16176 0d58 00       		.byte	0
 16177 0d59 30       		.byte	48
 16178 0d5a 0C       		.byte	12
 16179 0d5b 00       		.byte	0
ARM GAS  C:\Users\milek\AppData\Local\Temp\ccMSPWBt.s 			page 321


 16180 0d5c 38       		.byte	56
 16181 0d5d 1C       		.byte	28
 16182 0d5e 00       		.byte	0
 16183 0d5f 18       		.byte	24
 16184 0d60 18       		.byte	24
 16185 0d61 00       		.byte	0
 16186 0d62 1C       		.byte	28
 16187 0d63 38       		.byte	56
 16188 0d64 00       		.byte	0
 16189 0d65 0F       		.byte	15
 16190 0d66 F0       		.byte	-16
 16191 0d67 00       		.byte	0
 16192 0d68 03       		.byte	3
 16193 0d69 C0       		.byte	-64
 16194 0d6a 00       		.byte	0
 16195 0d6b 00       		.byte	0
 16196 0d6c 00       		.byte	0
 16197 0d6d 00       		.byte	0
 16198 0d6e 00       		.byte	0
 16199 0d6f 00       		.byte	0
 16200 0d70 00       		.byte	0
 16201 0d71 00       		.byte	0
 16202 0d72 00       		.byte	0
 16203 0d73 00       		.byte	0
 16204 0d74 00       		.byte	0
 16205 0d75 00       		.byte	0
 16206 0d76 00       		.byte	0
 16207 0d77 00       		.byte	0
 16208 0d78 00       		.byte	0
 16209 0d79 00       		.byte	0
 16210 0d7a 00       		.byte	0
 16211 0d7b 00       		.byte	0
 16212 0d7c 00       		.byte	0
 16213 0d7d 00       		.byte	0
 16214 0d7e 00       		.byte	0
 16215 0d7f 00       		.byte	0
 16216 0d80 00       		.byte	0
 16217 0d81 00       		.byte	0
 16218 0d82 00       		.byte	0
 16219 0d83 00       		.byte	0
 16220 0d84 00       		.byte	0
 16221 0d85 00       		.byte	0
 16222 0d86 00       		.byte	0
 16223 0d87 00       		.byte	0
 16224 0d88 00       		.byte	0
 16225 0d89 3F       		.byte	63
 16226 0d8a F0       		.byte	-16
 16227 0d8b 00       		.byte	0
 16228 0d8c 3F       		.byte	63
 16229 0d8d F8       		.byte	-8
 16230 0d8e 00       		.byte	0
 16231 0d8f 0C       		.byte	12
 16232 0d90 1C       		.byte	28
 16233 0d91 00       		.byte	0
 16234 0d92 0C       		.byte	12
 16235 0d93 0C       		.byte	12
 16236 0d94 00       		.byte	0
ARM GAS  C:\Users\milek\AppData\Local\Temp\ccMSPWBt.s 			page 322


 16237 0d95 0C       		.byte	12
 16238 0d96 0C       		.byte	12
 16239 0d97 00       		.byte	0
 16240 0d98 0C       		.byte	12
 16241 0d99 0C       		.byte	12
 16242 0d9a 00       		.byte	0
 16243 0d9b 0C       		.byte	12
 16244 0d9c 18       		.byte	24
 16245 0d9d 00       		.byte	0
 16246 0d9e 0F       		.byte	15
 16247 0d9f F8       		.byte	-8
 16248 0da0 00       		.byte	0
 16249 0da1 0F       		.byte	15
 16250 0da2 E0       		.byte	-32
 16251 0da3 00       		.byte	0
 16252 0da4 0C       		.byte	12
 16253 0da5 00       		.byte	0
 16254 0da6 00       		.byte	0
 16255 0da7 0C       		.byte	12
 16256 0da8 00       		.byte	0
 16257 0da9 00       		.byte	0
 16258 0daa 0C       		.byte	12
 16259 0dab 00       		.byte	0
 16260 0dac 00       		.byte	0
 16261 0dad 3F       		.byte	63
 16262 0dae C0       		.byte	-64
 16263 0daf 00       		.byte	0
 16264 0db0 3F       		.byte	63
 16265 0db1 C0       		.byte	-64
 16266 0db2 00       		.byte	0
 16267 0db3 00       		.byte	0
 16268 0db4 00       		.byte	0
 16269 0db5 00       		.byte	0
 16270 0db6 00       		.byte	0
 16271 0db7 00       		.byte	0
 16272 0db8 00       		.byte	0
 16273 0db9 00       		.byte	0
 16274 0dba 00       		.byte	0
 16275 0dbb 00       		.byte	0
 16276 0dbc 00       		.byte	0
 16277 0dbd 00       		.byte	0
 16278 0dbe 00       		.byte	0
 16279 0dbf 00       		.byte	0
 16280 0dc0 00       		.byte	0
 16281 0dc1 00       		.byte	0
 16282 0dc2 00       		.byte	0
 16283 0dc3 00       		.byte	0
 16284 0dc4 00       		.byte	0
 16285 0dc5 00       		.byte	0
 16286 0dc6 00       		.byte	0
 16287 0dc7 00       		.byte	0
 16288 0dc8 00       		.byte	0
 16289 0dc9 00       		.byte	0
 16290 0dca 00       		.byte	0
 16291 0dcb 00       		.byte	0
 16292 0dcc 00       		.byte	0
 16293 0dcd 00       		.byte	0
ARM GAS  C:\Users\milek\AppData\Local\Temp\ccMSPWBt.s 			page 323


 16294 0dce 00       		.byte	0
 16295 0dcf 00       		.byte	0
 16296 0dd0 00       		.byte	0
 16297 0dd1 03       		.byte	3
 16298 0dd2 C0       		.byte	-64
 16299 0dd3 00       		.byte	0
 16300 0dd4 0F       		.byte	15
 16301 0dd5 F0       		.byte	-16
 16302 0dd6 00       		.byte	0
 16303 0dd7 1C       		.byte	28
 16304 0dd8 38       		.byte	56
 16305 0dd9 00       		.byte	0
 16306 0dda 18       		.byte	24
 16307 0ddb 18       		.byte	24
 16308 0ddc 00       		.byte	0
 16309 0ddd 38       		.byte	56
 16310 0dde 1C       		.byte	28
 16311 0ddf 00       		.byte	0
 16312 0de0 30       		.byte	48
 16313 0de1 0C       		.byte	12
 16314 0de2 00       		.byte	0
 16315 0de3 30       		.byte	48
 16316 0de4 0C       		.byte	12
 16317 0de5 00       		.byte	0
 16318 0de6 30       		.byte	48
 16319 0de7 0C       		.byte	12
 16320 0de8 00       		.byte	0
 16321 0de9 30       		.byte	48
 16322 0dea 0C       		.byte	12
 16323 0deb 00       		.byte	0
 16324 0dec 38       		.byte	56
 16325 0ded 1C       		.byte	28
 16326 0dee 00       		.byte	0
 16327 0def 18       		.byte	24
 16328 0df0 18       		.byte	24
 16329 0df1 00       		.byte	0
 16330 0df2 1C       		.byte	28
 16331 0df3 38       		.byte	56
 16332 0df4 00       		.byte	0
 16333 0df5 0F       		.byte	15
 16334 0df6 F0       		.byte	-16
 16335 0df7 00       		.byte	0
 16336 0df8 07       		.byte	7
 16337 0df9 C0       		.byte	-64
 16338 0dfa 00       		.byte	0
 16339 0dfb 07       		.byte	7
 16340 0dfc CC       		.byte	-52
 16341 0dfd 00       		.byte	0
 16342 0dfe 0F       		.byte	15
 16343 0dff FC       		.byte	-4
 16344 0e00 00       		.byte	0
 16345 0e01 0C       		.byte	12
 16346 0e02 38       		.byte	56
 16347 0e03 00       		.byte	0
 16348 0e04 00       		.byte	0
 16349 0e05 00       		.byte	0
 16350 0e06 00       		.byte	0
ARM GAS  C:\Users\milek\AppData\Local\Temp\ccMSPWBt.s 			page 324


 16351 0e07 00       		.byte	0
 16352 0e08 00       		.byte	0
 16353 0e09 00       		.byte	0
 16354 0e0a 00       		.byte	0
 16355 0e0b 00       		.byte	0
 16356 0e0c 00       		.byte	0
 16357 0e0d 00       		.byte	0
 16358 0e0e 00       		.byte	0
 16359 0e0f 00       		.byte	0
 16360 0e10 00       		.byte	0
 16361 0e11 00       		.byte	0
 16362 0e12 00       		.byte	0
 16363 0e13 00       		.byte	0
 16364 0e14 00       		.byte	0
 16365 0e15 00       		.byte	0
 16366 0e16 00       		.byte	0
 16367 0e17 00       		.byte	0
 16368 0e18 00       		.byte	0
 16369 0e19 7F       		.byte	127
 16370 0e1a E0       		.byte	-32
 16371 0e1b 00       		.byte	0
 16372 0e1c 7F       		.byte	127
 16373 0e1d F0       		.byte	-16
 16374 0e1e 00       		.byte	0
 16375 0e1f 18       		.byte	24
 16376 0e20 38       		.byte	56
 16377 0e21 00       		.byte	0
 16378 0e22 18       		.byte	24
 16379 0e23 18       		.byte	24
 16380 0e24 00       		.byte	0
 16381 0e25 18       		.byte	24
 16382 0e26 18       		.byte	24
 16383 0e27 00       		.byte	0
 16384 0e28 18       		.byte	24
 16385 0e29 38       		.byte	56
 16386 0e2a 00       		.byte	0
 16387 0e2b 1F       		.byte	31
 16388 0e2c F0       		.byte	-16
 16389 0e2d 00       		.byte	0
 16390 0e2e 1F       		.byte	31
 16391 0e2f C0       		.byte	-64
 16392 0e30 00       		.byte	0
 16393 0e31 18       		.byte	24
 16394 0e32 E0       		.byte	-32
 16395 0e33 00       		.byte	0
 16396 0e34 18       		.byte	24
 16397 0e35 70       		.byte	112
 16398 0e36 00       		.byte	0
 16399 0e37 18       		.byte	24
 16400 0e38 30       		.byte	48
 16401 0e39 00       		.byte	0
 16402 0e3a 18       		.byte	24
 16403 0e3b 38       		.byte	56
 16404 0e3c 00       		.byte	0
 16405 0e3d 7F       		.byte	127
 16406 0e3e 1E       		.byte	30
 16407 0e3f 00       		.byte	0
ARM GAS  C:\Users\milek\AppData\Local\Temp\ccMSPWBt.s 			page 325


 16408 0e40 7F       		.byte	127
 16409 0e41 0E       		.byte	14
 16410 0e42 00       		.byte	0
 16411 0e43 00       		.byte	0
 16412 0e44 00       		.byte	0
 16413 0e45 00       		.byte	0
 16414 0e46 00       		.byte	0
 16415 0e47 00       		.byte	0
 16416 0e48 00       		.byte	0
 16417 0e49 00       		.byte	0
 16418 0e4a 00       		.byte	0
 16419 0e4b 00       		.byte	0
 16420 0e4c 00       		.byte	0
 16421 0e4d 00       		.byte	0
 16422 0e4e 00       		.byte	0
 16423 0e4f 00       		.byte	0
 16424 0e50 00       		.byte	0
 16425 0e51 00       		.byte	0
 16426 0e52 00       		.byte	0
 16427 0e53 00       		.byte	0
 16428 0e54 00       		.byte	0
 16429 0e55 00       		.byte	0
 16430 0e56 00       		.byte	0
 16431 0e57 00       		.byte	0
 16432 0e58 00       		.byte	0
 16433 0e59 00       		.byte	0
 16434 0e5a 00       		.byte	0
 16435 0e5b 00       		.byte	0
 16436 0e5c 00       		.byte	0
 16437 0e5d 00       		.byte	0
 16438 0e5e 00       		.byte	0
 16439 0e5f 00       		.byte	0
 16440 0e60 00       		.byte	0
 16441 0e61 07       		.byte	7
 16442 0e62 D8       		.byte	-40
 16443 0e63 00       		.byte	0
 16444 0e64 0F       		.byte	15
 16445 0e65 F8       		.byte	-8
 16446 0e66 00       		.byte	0
 16447 0e67 1C       		.byte	28
 16448 0e68 38       		.byte	56
 16449 0e69 00       		.byte	0
 16450 0e6a 18       		.byte	24
 16451 0e6b 18       		.byte	24
 16452 0e6c 00       		.byte	0
 16453 0e6d 18       		.byte	24
 16454 0e6e 18       		.byte	24
 16455 0e6f 00       		.byte	0
 16456 0e70 1E       		.byte	30
 16457 0e71 00       		.byte	0
 16458 0e72 00       		.byte	0
 16459 0e73 0F       		.byte	15
 16460 0e74 C0       		.byte	-64
 16461 0e75 00       		.byte	0
 16462 0e76 03       		.byte	3
 16463 0e77 F0       		.byte	-16
 16464 0e78 00       		.byte	0
ARM GAS  C:\Users\milek\AppData\Local\Temp\ccMSPWBt.s 			page 326


 16465 0e79 00       		.byte	0
 16466 0e7a 78       		.byte	120
 16467 0e7b 00       		.byte	0
 16468 0e7c 18       		.byte	24
 16469 0e7d 18       		.byte	24
 16470 0e7e 00       		.byte	0
 16471 0e7f 18       		.byte	24
 16472 0e80 18       		.byte	24
 16473 0e81 00       		.byte	0
 16474 0e82 1C       		.byte	28
 16475 0e83 38       		.byte	56
 16476 0e84 00       		.byte	0
 16477 0e85 1F       		.byte	31
 16478 0e86 F0       		.byte	-16
 16479 0e87 00       		.byte	0
 16480 0e88 1B       		.byte	27
 16481 0e89 E0       		.byte	-32
 16482 0e8a 00       		.byte	0
 16483 0e8b 00       		.byte	0
 16484 0e8c 00       		.byte	0
 16485 0e8d 00       		.byte	0
 16486 0e8e 00       		.byte	0
 16487 0e8f 00       		.byte	0
 16488 0e90 00       		.byte	0
 16489 0e91 00       		.byte	0
 16490 0e92 00       		.byte	0
 16491 0e93 00       		.byte	0
 16492 0e94 00       		.byte	0
 16493 0e95 00       		.byte	0
 16494 0e96 00       		.byte	0
 16495 0e97 00       		.byte	0
 16496 0e98 00       		.byte	0
 16497 0e99 00       		.byte	0
 16498 0e9a 00       		.byte	0
 16499 0e9b 00       		.byte	0
 16500 0e9c 00       		.byte	0
 16501 0e9d 00       		.byte	0
 16502 0e9e 00       		.byte	0
 16503 0e9f 00       		.byte	0
 16504 0ea0 00       		.byte	0
 16505 0ea1 00       		.byte	0
 16506 0ea2 00       		.byte	0
 16507 0ea3 00       		.byte	0
 16508 0ea4 00       		.byte	0
 16509 0ea5 00       		.byte	0
 16510 0ea6 00       		.byte	0
 16511 0ea7 00       		.byte	0
 16512 0ea8 00       		.byte	0
 16513 0ea9 3F       		.byte	63
 16514 0eaa FC       		.byte	-4
 16515 0eab 00       		.byte	0
 16516 0eac 3F       		.byte	63
 16517 0ead FC       		.byte	-4
 16518 0eae 00       		.byte	0
 16519 0eaf 31       		.byte	49
 16520 0eb0 8C       		.byte	-116
 16521 0eb1 00       		.byte	0
ARM GAS  C:\Users\milek\AppData\Local\Temp\ccMSPWBt.s 			page 327


 16522 0eb2 31       		.byte	49
 16523 0eb3 8C       		.byte	-116
 16524 0eb4 00       		.byte	0
 16525 0eb5 31       		.byte	49
 16526 0eb6 8C       		.byte	-116
 16527 0eb7 00       		.byte	0
 16528 0eb8 31       		.byte	49
 16529 0eb9 8C       		.byte	-116
 16530 0eba 00       		.byte	0
 16531 0ebb 01       		.byte	1
 16532 0ebc 80       		.byte	-128
 16533 0ebd 00       		.byte	0
 16534 0ebe 01       		.byte	1
 16535 0ebf 80       		.byte	-128
 16536 0ec0 00       		.byte	0
 16537 0ec1 01       		.byte	1
 16538 0ec2 80       		.byte	-128
 16539 0ec3 00       		.byte	0
 16540 0ec4 01       		.byte	1
 16541 0ec5 80       		.byte	-128
 16542 0ec6 00       		.byte	0
 16543 0ec7 01       		.byte	1
 16544 0ec8 80       		.byte	-128
 16545 0ec9 00       		.byte	0
 16546 0eca 01       		.byte	1
 16547 0ecb 80       		.byte	-128
 16548 0ecc 00       		.byte	0
 16549 0ecd 0F       		.byte	15
 16550 0ece F0       		.byte	-16
 16551 0ecf 00       		.byte	0
 16552 0ed0 0F       		.byte	15
 16553 0ed1 F0       		.byte	-16
 16554 0ed2 00       		.byte	0
 16555 0ed3 00       		.byte	0
 16556 0ed4 00       		.byte	0
 16557 0ed5 00       		.byte	0
 16558 0ed6 00       		.byte	0
 16559 0ed7 00       		.byte	0
 16560 0ed8 00       		.byte	0
 16561 0ed9 00       		.byte	0
 16562 0eda 00       		.byte	0
 16563 0edb 00       		.byte	0
 16564 0edc 00       		.byte	0
 16565 0edd 00       		.byte	0
 16566 0ede 00       		.byte	0
 16567 0edf 00       		.byte	0
 16568 0ee0 00       		.byte	0
 16569 0ee1 00       		.byte	0
 16570 0ee2 00       		.byte	0
 16571 0ee3 00       		.byte	0
 16572 0ee4 00       		.byte	0
 16573 0ee5 00       		.byte	0
 16574 0ee6 00       		.byte	0
 16575 0ee7 00       		.byte	0
 16576 0ee8 00       		.byte	0
 16577 0ee9 00       		.byte	0
 16578 0eea 00       		.byte	0
ARM GAS  C:\Users\milek\AppData\Local\Temp\ccMSPWBt.s 			page 328


 16579 0eeb 00       		.byte	0
 16580 0eec 00       		.byte	0
 16581 0eed 00       		.byte	0
 16582 0eee 00       		.byte	0
 16583 0eef 00       		.byte	0
 16584 0ef0 00       		.byte	0
 16585 0ef1 7E       		.byte	126
 16586 0ef2 7E       		.byte	126
 16587 0ef3 00       		.byte	0
 16588 0ef4 7E       		.byte	126
 16589 0ef5 7E       		.byte	126
 16590 0ef6 00       		.byte	0
 16591 0ef7 18       		.byte	24
 16592 0ef8 18       		.byte	24
 16593 0ef9 00       		.byte	0
 16594 0efa 18       		.byte	24
 16595 0efb 18       		.byte	24
 16596 0efc 00       		.byte	0
 16597 0efd 18       		.byte	24
 16598 0efe 18       		.byte	24
 16599 0eff 00       		.byte	0
 16600 0f00 18       		.byte	24
 16601 0f01 18       		.byte	24
 16602 0f02 00       		.byte	0
 16603 0f03 18       		.byte	24
 16604 0f04 18       		.byte	24
 16605 0f05 00       		.byte	0
 16606 0f06 18       		.byte	24
 16607 0f07 18       		.byte	24
 16608 0f08 00       		.byte	0
 16609 0f09 18       		.byte	24
 16610 0f0a 18       		.byte	24
 16611 0f0b 00       		.byte	0
 16612 0f0c 18       		.byte	24
 16613 0f0d 18       		.byte	24
 16614 0f0e 00       		.byte	0
 16615 0f0f 18       		.byte	24
 16616 0f10 18       		.byte	24
 16617 0f11 00       		.byte	0
 16618 0f12 0C       		.byte	12
 16619 0f13 30       		.byte	48
 16620 0f14 00       		.byte	0
 16621 0f15 0F       		.byte	15
 16622 0f16 F0       		.byte	-16
 16623 0f17 00       		.byte	0
 16624 0f18 03       		.byte	3
 16625 0f19 C0       		.byte	-64
 16626 0f1a 00       		.byte	0
 16627 0f1b 00       		.byte	0
 16628 0f1c 00       		.byte	0
 16629 0f1d 00       		.byte	0
 16630 0f1e 00       		.byte	0
 16631 0f1f 00       		.byte	0
 16632 0f20 00       		.byte	0
 16633 0f21 00       		.byte	0
 16634 0f22 00       		.byte	0
 16635 0f23 00       		.byte	0
ARM GAS  C:\Users\milek\AppData\Local\Temp\ccMSPWBt.s 			page 329


 16636 0f24 00       		.byte	0
 16637 0f25 00       		.byte	0
 16638 0f26 00       		.byte	0
 16639 0f27 00       		.byte	0
 16640 0f28 00       		.byte	0
 16641 0f29 00       		.byte	0
 16642 0f2a 00       		.byte	0
 16643 0f2b 00       		.byte	0
 16644 0f2c 00       		.byte	0
 16645 0f2d 00       		.byte	0
 16646 0f2e 00       		.byte	0
 16647 0f2f 00       		.byte	0
 16648 0f30 00       		.byte	0
 16649 0f31 00       		.byte	0
 16650 0f32 00       		.byte	0
 16651 0f33 00       		.byte	0
 16652 0f34 00       		.byte	0
 16653 0f35 00       		.byte	0
 16654 0f36 00       		.byte	0
 16655 0f37 00       		.byte	0
 16656 0f38 00       		.byte	0
 16657 0f39 7F       		.byte	127
 16658 0f3a 7F       		.byte	127
 16659 0f3b 00       		.byte	0
 16660 0f3c 7F       		.byte	127
 16661 0f3d 7F       		.byte	127
 16662 0f3e 00       		.byte	0
 16663 0f3f 18       		.byte	24
 16664 0f40 0C       		.byte	12
 16665 0f41 00       		.byte	0
 16666 0f42 0C       		.byte	12
 16667 0f43 18       		.byte	24
 16668 0f44 00       		.byte	0
 16669 0f45 0C       		.byte	12
 16670 0f46 18       		.byte	24
 16671 0f47 00       		.byte	0
 16672 0f48 0C       		.byte	12
 16673 0f49 18       		.byte	24
 16674 0f4a 00       		.byte	0
 16675 0f4b 06       		.byte	6
 16676 0f4c 30       		.byte	48
 16677 0f4d 00       		.byte	0
 16678 0f4e 06       		.byte	6
 16679 0f4f 30       		.byte	48
 16680 0f50 00       		.byte	0
 16681 0f51 03       		.byte	3
 16682 0f52 60       		.byte	96
 16683 0f53 00       		.byte	0
 16684 0f54 03       		.byte	3
 16685 0f55 60       		.byte	96
 16686 0f56 00       		.byte	0
 16687 0f57 03       		.byte	3
 16688 0f58 60       		.byte	96
 16689 0f59 00       		.byte	0
 16690 0f5a 01       		.byte	1
 16691 0f5b C0       		.byte	-64
 16692 0f5c 00       		.byte	0
ARM GAS  C:\Users\milek\AppData\Local\Temp\ccMSPWBt.s 			page 330


 16693 0f5d 01       		.byte	1
 16694 0f5e C0       		.byte	-64
 16695 0f5f 00       		.byte	0
 16696 0f60 00       		.byte	0
 16697 0f61 80       		.byte	-128
 16698 0f62 00       		.byte	0
 16699 0f63 00       		.byte	0
 16700 0f64 00       		.byte	0
 16701 0f65 00       		.byte	0
 16702 0f66 00       		.byte	0
 16703 0f67 00       		.byte	0
 16704 0f68 00       		.byte	0
 16705 0f69 00       		.byte	0
 16706 0f6a 00       		.byte	0
 16707 0f6b 00       		.byte	0
 16708 0f6c 00       		.byte	0
 16709 0f6d 00       		.byte	0
 16710 0f6e 00       		.byte	0
 16711 0f6f 00       		.byte	0
 16712 0f70 00       		.byte	0
 16713 0f71 00       		.byte	0
 16714 0f72 00       		.byte	0
 16715 0f73 00       		.byte	0
 16716 0f74 00       		.byte	0
 16717 0f75 00       		.byte	0
 16718 0f76 00       		.byte	0
 16719 0f77 00       		.byte	0
 16720 0f78 00       		.byte	0
 16721 0f79 00       		.byte	0
 16722 0f7a 00       		.byte	0
 16723 0f7b 00       		.byte	0
 16724 0f7c 00       		.byte	0
 16725 0f7d 00       		.byte	0
 16726 0f7e 00       		.byte	0
 16727 0f7f 00       		.byte	0
 16728 0f80 00       		.byte	0
 16729 0f81 FE       		.byte	-2
 16730 0f82 3F       		.byte	63
 16731 0f83 80       		.byte	-128
 16732 0f84 FE       		.byte	-2
 16733 0f85 3F       		.byte	63
 16734 0f86 80       		.byte	-128
 16735 0f87 30       		.byte	48
 16736 0f88 06       		.byte	6
 16737 0f89 00       		.byte	0
 16738 0f8a 30       		.byte	48
 16739 0f8b 06       		.byte	6
 16740 0f8c 00       		.byte	0
 16741 0f8d 30       		.byte	48
 16742 0f8e 86       		.byte	-122
 16743 0f8f 00       		.byte	0
 16744 0f90 19       		.byte	25
 16745 0f91 CC       		.byte	-52
 16746 0f92 00       		.byte	0
 16747 0f93 19       		.byte	25
 16748 0f94 CC       		.byte	-52
 16749 0f95 00       		.byte	0
ARM GAS  C:\Users\milek\AppData\Local\Temp\ccMSPWBt.s 			page 331


 16750 0f96 1B       		.byte	27
 16751 0f97 6C       		.byte	108
 16752 0f98 00       		.byte	0
 16753 0f99 1B       		.byte	27
 16754 0f9a 6C       		.byte	108
 16755 0f9b 00       		.byte	0
 16756 0f9c 1E       		.byte	30
 16757 0f9d 7C       		.byte	124
 16758 0f9e 00       		.byte	0
 16759 0f9f 0E       		.byte	14
 16760 0fa0 38       		.byte	56
 16761 0fa1 00       		.byte	0
 16762 0fa2 0E       		.byte	14
 16763 0fa3 38       		.byte	56
 16764 0fa4 00       		.byte	0
 16765 0fa5 0C       		.byte	12
 16766 0fa6 18       		.byte	24
 16767 0fa7 00       		.byte	0
 16768 0fa8 0C       		.byte	12
 16769 0fa9 18       		.byte	24
 16770 0faa 00       		.byte	0
 16771 0fab 00       		.byte	0
 16772 0fac 00       		.byte	0
 16773 0fad 00       		.byte	0
 16774 0fae 00       		.byte	0
 16775 0faf 00       		.byte	0
 16776 0fb0 00       		.byte	0
 16777 0fb1 00       		.byte	0
 16778 0fb2 00       		.byte	0
 16779 0fb3 00       		.byte	0
 16780 0fb4 00       		.byte	0
 16781 0fb5 00       		.byte	0
 16782 0fb6 00       		.byte	0
 16783 0fb7 00       		.byte	0
 16784 0fb8 00       		.byte	0
 16785 0fb9 00       		.byte	0
 16786 0fba 00       		.byte	0
 16787 0fbb 00       		.byte	0
 16788 0fbc 00       		.byte	0
 16789 0fbd 00       		.byte	0
 16790 0fbe 00       		.byte	0
 16791 0fbf 00       		.byte	0
 16792 0fc0 00       		.byte	0
 16793 0fc1 00       		.byte	0
 16794 0fc2 00       		.byte	0
 16795 0fc3 00       		.byte	0
 16796 0fc4 00       		.byte	0
 16797 0fc5 00       		.byte	0
 16798 0fc6 00       		.byte	0
 16799 0fc7 00       		.byte	0
 16800 0fc8 00       		.byte	0
 16801 0fc9 7E       		.byte	126
 16802 0fca 7E       		.byte	126
 16803 0fcb 00       		.byte	0
 16804 0fcc 7E       		.byte	126
 16805 0fcd 7E       		.byte	126
 16806 0fce 00       		.byte	0
ARM GAS  C:\Users\milek\AppData\Local\Temp\ccMSPWBt.s 			page 332


 16807 0fcf 18       		.byte	24
 16808 0fd0 18       		.byte	24
 16809 0fd1 00       		.byte	0
 16810 0fd2 0C       		.byte	12
 16811 0fd3 30       		.byte	48
 16812 0fd4 00       		.byte	0
 16813 0fd5 06       		.byte	6
 16814 0fd6 60       		.byte	96
 16815 0fd7 00       		.byte	0
 16816 0fd8 03       		.byte	3
 16817 0fd9 C0       		.byte	-64
 16818 0fda 00       		.byte	0
 16819 0fdb 01       		.byte	1
 16820 0fdc 80       		.byte	-128
 16821 0fdd 00       		.byte	0
 16822 0fde 01       		.byte	1
 16823 0fdf 80       		.byte	-128
 16824 0fe0 00       		.byte	0
 16825 0fe1 03       		.byte	3
 16826 0fe2 C0       		.byte	-64
 16827 0fe3 00       		.byte	0
 16828 0fe4 06       		.byte	6
 16829 0fe5 60       		.byte	96
 16830 0fe6 00       		.byte	0
 16831 0fe7 0C       		.byte	12
 16832 0fe8 30       		.byte	48
 16833 0fe9 00       		.byte	0
 16834 0fea 18       		.byte	24
 16835 0feb 18       		.byte	24
 16836 0fec 00       		.byte	0
 16837 0fed 7E       		.byte	126
 16838 0fee 7E       		.byte	126
 16839 0fef 00       		.byte	0
 16840 0ff0 7E       		.byte	126
 16841 0ff1 7E       		.byte	126
 16842 0ff2 00       		.byte	0
 16843 0ff3 00       		.byte	0
 16844 0ff4 00       		.byte	0
 16845 0ff5 00       		.byte	0
 16846 0ff6 00       		.byte	0
 16847 0ff7 00       		.byte	0
 16848 0ff8 00       		.byte	0
 16849 0ff9 00       		.byte	0
 16850 0ffa 00       		.byte	0
 16851 0ffb 00       		.byte	0
 16852 0ffc 00       		.byte	0
 16853 0ffd 00       		.byte	0
 16854 0ffe 00       		.byte	0
 16855 0fff 00       		.byte	0
 16856 1000 00       		.byte	0
 16857 1001 00       		.byte	0
 16858 1002 00       		.byte	0
 16859 1003 00       		.byte	0
 16860 1004 00       		.byte	0
 16861 1005 00       		.byte	0
 16862 1006 00       		.byte	0
 16863 1007 00       		.byte	0
ARM GAS  C:\Users\milek\AppData\Local\Temp\ccMSPWBt.s 			page 333


 16864 1008 00       		.byte	0
 16865 1009 00       		.byte	0
 16866 100a 00       		.byte	0
 16867 100b 00       		.byte	0
 16868 100c 00       		.byte	0
 16869 100d 00       		.byte	0
 16870 100e 00       		.byte	0
 16871 100f 00       		.byte	0
 16872 1010 00       		.byte	0
 16873 1011 7C       		.byte	124
 16874 1012 7E       		.byte	126
 16875 1013 00       		.byte	0
 16876 1014 7C       		.byte	124
 16877 1015 7E       		.byte	126
 16878 1016 00       		.byte	0
 16879 1017 18       		.byte	24
 16880 1018 18       		.byte	24
 16881 1019 00       		.byte	0
 16882 101a 0C       		.byte	12
 16883 101b 30       		.byte	48
 16884 101c 00       		.byte	0
 16885 101d 06       		.byte	6
 16886 101e 60       		.byte	96
 16887 101f 00       		.byte	0
 16888 1020 06       		.byte	6
 16889 1021 60       		.byte	96
 16890 1022 00       		.byte	0
 16891 1023 03       		.byte	3
 16892 1024 C0       		.byte	-64
 16893 1025 00       		.byte	0
 16894 1026 01       		.byte	1
 16895 1027 80       		.byte	-128
 16896 1028 00       		.byte	0
 16897 1029 01       		.byte	1
 16898 102a 80       		.byte	-128
 16899 102b 00       		.byte	0
 16900 102c 01       		.byte	1
 16901 102d 80       		.byte	-128
 16902 102e 00       		.byte	0
 16903 102f 01       		.byte	1
 16904 1030 80       		.byte	-128
 16905 1031 00       		.byte	0
 16906 1032 01       		.byte	1
 16907 1033 80       		.byte	-128
 16908 1034 00       		.byte	0
 16909 1035 0F       		.byte	15
 16910 1036 F0       		.byte	-16
 16911 1037 00       		.byte	0
 16912 1038 0F       		.byte	15
 16913 1039 F0       		.byte	-16
 16914 103a 00       		.byte	0
 16915 103b 00       		.byte	0
 16916 103c 00       		.byte	0
 16917 103d 00       		.byte	0
 16918 103e 00       		.byte	0
 16919 103f 00       		.byte	0
 16920 1040 00       		.byte	0
ARM GAS  C:\Users\milek\AppData\Local\Temp\ccMSPWBt.s 			page 334


 16921 1041 00       		.byte	0
 16922 1042 00       		.byte	0
 16923 1043 00       		.byte	0
 16924 1044 00       		.byte	0
 16925 1045 00       		.byte	0
 16926 1046 00       		.byte	0
 16927 1047 00       		.byte	0
 16928 1048 00       		.byte	0
 16929 1049 00       		.byte	0
 16930 104a 00       		.byte	0
 16931 104b 00       		.byte	0
 16932 104c 00       		.byte	0
 16933 104d 00       		.byte	0
 16934 104e 00       		.byte	0
 16935 104f 00       		.byte	0
 16936 1050 00       		.byte	0
 16937 1051 00       		.byte	0
 16938 1052 00       		.byte	0
 16939 1053 00       		.byte	0
 16940 1054 00       		.byte	0
 16941 1055 00       		.byte	0
 16942 1056 00       		.byte	0
 16943 1057 00       		.byte	0
 16944 1058 00       		.byte	0
 16945 1059 1F       		.byte	31
 16946 105a F8       		.byte	-8
 16947 105b 00       		.byte	0
 16948 105c 1F       		.byte	31
 16949 105d F8       		.byte	-8
 16950 105e 00       		.byte	0
 16951 105f 18       		.byte	24
 16952 1060 18       		.byte	24
 16953 1061 00       		.byte	0
 16954 1062 18       		.byte	24
 16955 1063 30       		.byte	48
 16956 1064 00       		.byte	0
 16957 1065 18       		.byte	24
 16958 1066 60       		.byte	96
 16959 1067 00       		.byte	0
 16960 1068 18       		.byte	24
 16961 1069 C0       		.byte	-64
 16962 106a 00       		.byte	0
 16963 106b 01       		.byte	1
 16964 106c 80       		.byte	-128
 16965 106d 00       		.byte	0
 16966 106e 03       		.byte	3
 16967 106f 00       		.byte	0
 16968 1070 00       		.byte	0
 16969 1071 06       		.byte	6
 16970 1072 18       		.byte	24
 16971 1073 00       		.byte	0
 16972 1074 0C       		.byte	12
 16973 1075 18       		.byte	24
 16974 1076 00       		.byte	0
 16975 1077 18       		.byte	24
 16976 1078 18       		.byte	24
 16977 1079 00       		.byte	0
ARM GAS  C:\Users\milek\AppData\Local\Temp\ccMSPWBt.s 			page 335


 16978 107a 30       		.byte	48
 16979 107b 18       		.byte	24
 16980 107c 00       		.byte	0
 16981 107d 3F       		.byte	63
 16982 107e F8       		.byte	-8
 16983 107f 00       		.byte	0
 16984 1080 3F       		.byte	63
 16985 1081 F8       		.byte	-8
 16986 1082 00       		.byte	0
 16987 1083 00       		.byte	0
 16988 1084 00       		.byte	0
 16989 1085 00       		.byte	0
 16990 1086 00       		.byte	0
 16991 1087 00       		.byte	0
 16992 1088 00       		.byte	0
 16993 1089 00       		.byte	0
 16994 108a 00       		.byte	0
 16995 108b 00       		.byte	0
 16996 108c 00       		.byte	0
 16997 108d 00       		.byte	0
 16998 108e 00       		.byte	0
 16999 108f 00       		.byte	0
 17000 1090 00       		.byte	0
 17001 1091 00       		.byte	0
 17002 1092 00       		.byte	0
 17003 1093 00       		.byte	0
 17004 1094 00       		.byte	0
 17005 1095 00       		.byte	0
 17006 1096 00       		.byte	0
 17007 1097 00       		.byte	0
 17008 1098 00       		.byte	0
 17009 1099 00       		.byte	0
 17010 109a 00       		.byte	0
 17011 109b 00       		.byte	0
 17012 109c 00       		.byte	0
 17013 109d 00       		.byte	0
 17014 109e 01       		.byte	1
 17015 109f F0       		.byte	-16
 17016 10a0 00       		.byte	0
 17017 10a1 01       		.byte	1
 17018 10a2 F0       		.byte	-16
 17019 10a3 00       		.byte	0
 17020 10a4 01       		.byte	1
 17021 10a5 80       		.byte	-128
 17022 10a6 00       		.byte	0
 17023 10a7 01       		.byte	1
 17024 10a8 80       		.byte	-128
 17025 10a9 00       		.byte	0
 17026 10aa 01       		.byte	1
 17027 10ab 80       		.byte	-128
 17028 10ac 00       		.byte	0
 17029 10ad 01       		.byte	1
 17030 10ae 80       		.byte	-128
 17031 10af 00       		.byte	0
 17032 10b0 01       		.byte	1
 17033 10b1 80       		.byte	-128
 17034 10b2 00       		.byte	0
ARM GAS  C:\Users\milek\AppData\Local\Temp\ccMSPWBt.s 			page 336


 17035 10b3 01       		.byte	1
 17036 10b4 80       		.byte	-128
 17037 10b5 00       		.byte	0
 17038 10b6 01       		.byte	1
 17039 10b7 80       		.byte	-128
 17040 10b8 00       		.byte	0
 17041 10b9 01       		.byte	1
 17042 10ba 80       		.byte	-128
 17043 10bb 00       		.byte	0
 17044 10bc 01       		.byte	1
 17045 10bd 80       		.byte	-128
 17046 10be 00       		.byte	0
 17047 10bf 01       		.byte	1
 17048 10c0 80       		.byte	-128
 17049 10c1 00       		.byte	0
 17050 10c2 01       		.byte	1
 17051 10c3 80       		.byte	-128
 17052 10c4 00       		.byte	0
 17053 10c5 01       		.byte	1
 17054 10c6 80       		.byte	-128
 17055 10c7 00       		.byte	0
 17056 10c8 01       		.byte	1
 17057 10c9 80       		.byte	-128
 17058 10ca 00       		.byte	0
 17059 10cb 01       		.byte	1
 17060 10cc 80       		.byte	-128
 17061 10cd 00       		.byte	0
 17062 10ce 01       		.byte	1
 17063 10cf F0       		.byte	-16
 17064 10d0 00       		.byte	0
 17065 10d1 01       		.byte	1
 17066 10d2 F0       		.byte	-16
 17067 10d3 00       		.byte	0
 17068 10d4 00       		.byte	0
 17069 10d5 00       		.byte	0
 17070 10d6 00       		.byte	0
 17071 10d7 00       		.byte	0
 17072 10d8 00       		.byte	0
 17073 10d9 00       		.byte	0
 17074 10da 00       		.byte	0
 17075 10db 00       		.byte	0
 17076 10dc 00       		.byte	0
 17077 10dd 00       		.byte	0
 17078 10de 00       		.byte	0
 17079 10df 00       		.byte	0
 17080 10e0 18       		.byte	24
 17081 10e1 00       		.byte	0
 17082 10e2 00       		.byte	0
 17083 10e3 18       		.byte	24
 17084 10e4 00       		.byte	0
 17085 10e5 00       		.byte	0
 17086 10e6 1C       		.byte	28
 17087 10e7 00       		.byte	0
 17088 10e8 00       		.byte	0
 17089 10e9 0C       		.byte	12
 17090 10ea 00       		.byte	0
 17091 10eb 00       		.byte	0
ARM GAS  C:\Users\milek\AppData\Local\Temp\ccMSPWBt.s 			page 337


 17092 10ec 0E       		.byte	14
 17093 10ed 00       		.byte	0
 17094 10ee 00       		.byte	0
 17095 10ef 06       		.byte	6
 17096 10f0 00       		.byte	0
 17097 10f1 00       		.byte	0
 17098 10f2 06       		.byte	6
 17099 10f3 00       		.byte	0
 17100 10f4 00       		.byte	0
 17101 10f5 03       		.byte	3
 17102 10f6 00       		.byte	0
 17103 10f7 00       		.byte	0
 17104 10f8 03       		.byte	3
 17105 10f9 00       		.byte	0
 17106 10fa 00       		.byte	0
 17107 10fb 01       		.byte	1
 17108 10fc 80       		.byte	-128
 17109 10fd 00       		.byte	0
 17110 10fe 01       		.byte	1
 17111 10ff 80       		.byte	-128
 17112 1100 00       		.byte	0
 17113 1101 00       		.byte	0
 17114 1102 C0       		.byte	-64
 17115 1103 00       		.byte	0
 17116 1104 00       		.byte	0
 17117 1105 C0       		.byte	-64
 17118 1106 00       		.byte	0
 17119 1107 00       		.byte	0
 17120 1108 60       		.byte	96
 17121 1109 00       		.byte	0
 17122 110a 00       		.byte	0
 17123 110b 60       		.byte	96
 17124 110c 00       		.byte	0
 17125 110d 00       		.byte	0
 17126 110e 70       		.byte	112
 17127 110f 00       		.byte	0
 17128 1110 00       		.byte	0
 17129 1111 30       		.byte	48
 17130 1112 00       		.byte	0
 17131 1113 00       		.byte	0
 17132 1114 38       		.byte	56
 17133 1115 00       		.byte	0
 17134 1116 00       		.byte	0
 17135 1117 18       		.byte	24
 17136 1118 00       		.byte	0
 17137 1119 00       		.byte	0
 17138 111a 18       		.byte	24
 17139 111b 00       		.byte	0
 17140 111c 00       		.byte	0
 17141 111d 00       		.byte	0
 17142 111e 00       		.byte	0
 17143 111f 00       		.byte	0
 17144 1120 00       		.byte	0
 17145 1121 00       		.byte	0
 17146 1122 00       		.byte	0
 17147 1123 00       		.byte	0
 17148 1124 00       		.byte	0
ARM GAS  C:\Users\milek\AppData\Local\Temp\ccMSPWBt.s 			page 338


 17149 1125 00       		.byte	0
 17150 1126 00       		.byte	0
 17151 1127 00       		.byte	0
 17152 1128 00       		.byte	0
 17153 1129 00       		.byte	0
 17154 112a 00       		.byte	0
 17155 112b 00       		.byte	0
 17156 112c 00       		.byte	0
 17157 112d 00       		.byte	0
 17158 112e 0F       		.byte	15
 17159 112f 80       		.byte	-128
 17160 1130 00       		.byte	0
 17161 1131 0F       		.byte	15
 17162 1132 80       		.byte	-128
 17163 1133 00       		.byte	0
 17164 1134 01       		.byte	1
 17165 1135 80       		.byte	-128
 17166 1136 00       		.byte	0
 17167 1137 01       		.byte	1
 17168 1138 80       		.byte	-128
 17169 1139 00       		.byte	0
 17170 113a 01       		.byte	1
 17171 113b 80       		.byte	-128
 17172 113c 00       		.byte	0
 17173 113d 01       		.byte	1
 17174 113e 80       		.byte	-128
 17175 113f 00       		.byte	0
 17176 1140 01       		.byte	1
 17177 1141 80       		.byte	-128
 17178 1142 00       		.byte	0
 17179 1143 01       		.byte	1
 17180 1144 80       		.byte	-128
 17181 1145 00       		.byte	0
 17182 1146 01       		.byte	1
 17183 1147 80       		.byte	-128
 17184 1148 00       		.byte	0
 17185 1149 01       		.byte	1
 17186 114a 80       		.byte	-128
 17187 114b 00       		.byte	0
 17188 114c 01       		.byte	1
 17189 114d 80       		.byte	-128
 17190 114e 00       		.byte	0
 17191 114f 01       		.byte	1
 17192 1150 80       		.byte	-128
 17193 1151 00       		.byte	0
 17194 1152 01       		.byte	1
 17195 1153 80       		.byte	-128
 17196 1154 00       		.byte	0
 17197 1155 01       		.byte	1
 17198 1156 80       		.byte	-128
 17199 1157 00       		.byte	0
 17200 1158 01       		.byte	1
 17201 1159 80       		.byte	-128
 17202 115a 00       		.byte	0
 17203 115b 01       		.byte	1
 17204 115c 80       		.byte	-128
 17205 115d 00       		.byte	0
ARM GAS  C:\Users\milek\AppData\Local\Temp\ccMSPWBt.s 			page 339


 17206 115e 0F       		.byte	15
 17207 115f 80       		.byte	-128
 17208 1160 00       		.byte	0
 17209 1161 0F       		.byte	15
 17210 1162 80       		.byte	-128
 17211 1163 00       		.byte	0
 17212 1164 00       		.byte	0
 17213 1165 00       		.byte	0
 17214 1166 00       		.byte	0
 17215 1167 00       		.byte	0
 17216 1168 00       		.byte	0
 17217 1169 00       		.byte	0
 17218 116a 00       		.byte	0
 17219 116b 00       		.byte	0
 17220 116c 00       		.byte	0
 17221 116d 00       		.byte	0
 17222 116e 00       		.byte	0
 17223 116f 00       		.byte	0
 17224 1170 00       		.byte	0
 17225 1171 00       		.byte	0
 17226 1172 00       		.byte	0
 17227 1173 00       		.byte	0
 17228 1174 80       		.byte	-128
 17229 1175 00       		.byte	0
 17230 1176 01       		.byte	1
 17231 1177 C0       		.byte	-64
 17232 1178 00       		.byte	0
 17233 1179 03       		.byte	3
 17234 117a E0       		.byte	-32
 17235 117b 00       		.byte	0
 17236 117c 07       		.byte	7
 17237 117d 70       		.byte	112
 17238 117e 00       		.byte	0
 17239 117f 06       		.byte	6
 17240 1180 30       		.byte	48
 17241 1181 00       		.byte	0
 17242 1182 0C       		.byte	12
 17243 1183 18       		.byte	24
 17244 1184 00       		.byte	0
 17245 1185 18       		.byte	24
 17246 1186 0C       		.byte	12
 17247 1187 00       		.byte	0
 17248 1188 10       		.byte	16
 17249 1189 04       		.byte	4
 17250 118a 00       		.byte	0
 17251 118b 00       		.byte	0
 17252 118c 00       		.byte	0
 17253 118d 00       		.byte	0
 17254 118e 00       		.byte	0
 17255 118f 00       		.byte	0
 17256 1190 00       		.byte	0
 17257 1191 00       		.byte	0
 17258 1192 00       		.byte	0
 17259 1193 00       		.byte	0
 17260 1194 00       		.byte	0
 17261 1195 00       		.byte	0
 17262 1196 00       		.byte	0
ARM GAS  C:\Users\milek\AppData\Local\Temp\ccMSPWBt.s 			page 340


 17263 1197 00       		.byte	0
 17264 1198 00       		.byte	0
 17265 1199 00       		.byte	0
 17266 119a 00       		.byte	0
 17267 119b 00       		.byte	0
 17268 119c 00       		.byte	0
 17269 119d 00       		.byte	0
 17270 119e 00       		.byte	0
 17271 119f 00       		.byte	0
 17272 11a0 00       		.byte	0
 17273 11a1 00       		.byte	0
 17274 11a2 00       		.byte	0
 17275 11a3 00       		.byte	0
 17276 11a4 00       		.byte	0
 17277 11a5 00       		.byte	0
 17278 11a6 00       		.byte	0
 17279 11a7 00       		.byte	0
 17280 11a8 00       		.byte	0
 17281 11a9 00       		.byte	0
 17282 11aa 00       		.byte	0
 17283 11ab 00       		.byte	0
 17284 11ac 00       		.byte	0
 17285 11ad 00       		.byte	0
 17286 11ae 00       		.byte	0
 17287 11af 00       		.byte	0
 17288 11b0 00       		.byte	0
 17289 11b1 00       		.byte	0
 17290 11b2 00       		.byte	0
 17291 11b3 00       		.byte	0
 17292 11b4 00       		.byte	0
 17293 11b5 00       		.byte	0
 17294 11b6 00       		.byte	0
 17295 11b7 00       		.byte	0
 17296 11b8 00       		.byte	0
 17297 11b9 00       		.byte	0
 17298 11ba 00       		.byte	0
 17299 11bb 00       		.byte	0
 17300 11bc 00       		.byte	0
 17301 11bd 00       		.byte	0
 17302 11be 00       		.byte	0
 17303 11bf 00       		.byte	0
 17304 11c0 00       		.byte	0
 17305 11c1 00       		.byte	0
 17306 11c2 00       		.byte	0
 17307 11c3 00       		.byte	0
 17308 11c4 00       		.byte	0
 17309 11c5 00       		.byte	0
 17310 11c6 00       		.byte	0
 17311 11c7 00       		.byte	0
 17312 11c8 00       		.byte	0
 17313 11c9 00       		.byte	0
 17314 11ca 00       		.byte	0
 17315 11cb 00       		.byte	0
 17316 11cc 00       		.byte	0
 17317 11cd 00       		.byte	0
 17318 11ce 00       		.byte	0
 17319 11cf 00       		.byte	0
ARM GAS  C:\Users\milek\AppData\Local\Temp\ccMSPWBt.s 			page 341


 17320 11d0 00       		.byte	0
 17321 11d1 00       		.byte	0
 17322 11d2 00       		.byte	0
 17323 11d3 00       		.byte	0
 17324 11d4 00       		.byte	0
 17325 11d5 00       		.byte	0
 17326 11d6 00       		.byte	0
 17327 11d7 00       		.byte	0
 17328 11d8 00       		.byte	0
 17329 11d9 00       		.byte	0
 17330 11da 00       		.byte	0
 17331 11db 00       		.byte	0
 17332 11dc 00       		.byte	0
 17333 11dd 00       		.byte	0
 17334 11de 00       		.byte	0
 17335 11df 00       		.byte	0
 17336 11e0 00       		.byte	0
 17337 11e1 00       		.byte	0
 17338 11e2 00       		.byte	0
 17339 11e3 00       		.byte	0
 17340 11e4 00       		.byte	0
 17341 11e5 00       		.byte	0
 17342 11e6 00       		.byte	0
 17343 11e7 00       		.byte	0
 17344 11e8 00       		.byte	0
 17345 11e9 00       		.byte	0
 17346 11ea 00       		.byte	0
 17347 11eb 00       		.byte	0
 17348 11ec 00       		.byte	0
 17349 11ed 00       		.byte	0
 17350 11ee 00       		.byte	0
 17351 11ef 00       		.byte	0
 17352 11f0 00       		.byte	0
 17353 11f1 00       		.byte	0
 17354 11f2 00       		.byte	0
 17355 11f3 00       		.byte	0
 17356 11f4 00       		.byte	0
 17357 11f5 00       		.byte	0
 17358 11f6 00       		.byte	0
 17359 11f7 00       		.byte	0
 17360 11f8 00       		.byte	0
 17361 11f9 00       		.byte	0
 17362 11fa FF       		.byte	-1
 17363 11fb FF       		.byte	-1
 17364 11fc 00       		.byte	0
 17365 11fd FF       		.byte	-1
 17366 11fe FF       		.byte	-1
 17367 11ff 00       		.byte	0
 17368 1200 00       		.byte	0
 17369 1201 00       		.byte	0
 17370 1202 00       		.byte	0
 17371 1203 03       		.byte	3
 17372 1204 00       		.byte	0
 17373 1205 00       		.byte	0
 17374 1206 03       		.byte	3
 17375 1207 80       		.byte	-128
 17376 1208 00       		.byte	0
ARM GAS  C:\Users\milek\AppData\Local\Temp\ccMSPWBt.s 			page 342


 17377 1209 00       		.byte	0
 17378 120a E0       		.byte	-32
 17379 120b 00       		.byte	0
 17380 120c 00       		.byte	0
 17381 120d 60       		.byte	96
 17382 120e 00       		.byte	0
 17383 120f 00       		.byte	0
 17384 1210 00       		.byte	0
 17385 1211 00       		.byte	0
 17386 1212 00       		.byte	0
 17387 1213 00       		.byte	0
 17388 1214 00       		.byte	0
 17389 1215 00       		.byte	0
 17390 1216 00       		.byte	0
 17391 1217 00       		.byte	0
 17392 1218 00       		.byte	0
 17393 1219 00       		.byte	0
 17394 121a 00       		.byte	0
 17395 121b 00       		.byte	0
 17396 121c 00       		.byte	0
 17397 121d 00       		.byte	0
 17398 121e 00       		.byte	0
 17399 121f 00       		.byte	0
 17400 1220 00       		.byte	0
 17401 1221 00       		.byte	0
 17402 1222 00       		.byte	0
 17403 1223 00       		.byte	0
 17404 1224 00       		.byte	0
 17405 1225 00       		.byte	0
 17406 1226 00       		.byte	0
 17407 1227 00       		.byte	0
 17408 1228 00       		.byte	0
 17409 1229 00       		.byte	0
 17410 122a 00       		.byte	0
 17411 122b 00       		.byte	0
 17412 122c 00       		.byte	0
 17413 122d 00       		.byte	0
 17414 122e 00       		.byte	0
 17415 122f 00       		.byte	0
 17416 1230 00       		.byte	0
 17417 1231 00       		.byte	0
 17418 1232 00       		.byte	0
 17419 1233 00       		.byte	0
 17420 1234 00       		.byte	0
 17421 1235 00       		.byte	0
 17422 1236 00       		.byte	0
 17423 1237 00       		.byte	0
 17424 1238 00       		.byte	0
 17425 1239 00       		.byte	0
 17426 123a 00       		.byte	0
 17427 123b 00       		.byte	0
 17428 123c 00       		.byte	0
 17429 123d 00       		.byte	0
 17430 123e 00       		.byte	0
 17431 123f 00       		.byte	0
 17432 1240 00       		.byte	0
 17433 1241 00       		.byte	0
ARM GAS  C:\Users\milek\AppData\Local\Temp\ccMSPWBt.s 			page 343


 17434 1242 00       		.byte	0
 17435 1243 00       		.byte	0
 17436 1244 00       		.byte	0
 17437 1245 00       		.byte	0
 17438 1246 00       		.byte	0
 17439 1247 00       		.byte	0
 17440 1248 00       		.byte	0
 17441 1249 00       		.byte	0
 17442 124a 00       		.byte	0
 17443 124b 00       		.byte	0
 17444 124c 00       		.byte	0
 17445 124d 00       		.byte	0
 17446 124e 00       		.byte	0
 17447 124f 00       		.byte	0
 17448 1250 00       		.byte	0
 17449 1251 00       		.byte	0
 17450 1252 00       		.byte	0
 17451 1253 00       		.byte	0
 17452 1254 00       		.byte	0
 17453 1255 00       		.byte	0
 17454 1256 00       		.byte	0
 17455 1257 00       		.byte	0
 17456 1258 00       		.byte	0
 17457 1259 00       		.byte	0
 17458 125a 0F       		.byte	15
 17459 125b C0       		.byte	-64
 17460 125c 00       		.byte	0
 17461 125d 1F       		.byte	31
 17462 125e E0       		.byte	-32
 17463 125f 00       		.byte	0
 17464 1260 00       		.byte	0
 17465 1261 30       		.byte	48
 17466 1262 00       		.byte	0
 17467 1263 00       		.byte	0
 17468 1264 30       		.byte	48
 17469 1265 00       		.byte	0
 17470 1266 07       		.byte	7
 17471 1267 F0       		.byte	-16
 17472 1268 00       		.byte	0
 17473 1269 1F       		.byte	31
 17474 126a F0       		.byte	-16
 17475 126b 00       		.byte	0
 17476 126c 38       		.byte	56
 17477 126d 30       		.byte	48
 17478 126e 00       		.byte	0
 17479 126f 30       		.byte	48
 17480 1270 30       		.byte	48
 17481 1271 00       		.byte	0
 17482 1272 30       		.byte	48
 17483 1273 70       		.byte	112
 17484 1274 00       		.byte	0
 17485 1275 1F       		.byte	31
 17486 1276 FC       		.byte	-4
 17487 1277 00       		.byte	0
 17488 1278 0F       		.byte	15
 17489 1279 BC       		.byte	-68
 17490 127a 00       		.byte	0
ARM GAS  C:\Users\milek\AppData\Local\Temp\ccMSPWBt.s 			page 344


 17491 127b 00       		.byte	0
 17492 127c 00       		.byte	0
 17493 127d 00       		.byte	0
 17494 127e 00       		.byte	0
 17495 127f 00       		.byte	0
 17496 1280 00       		.byte	0
 17497 1281 00       		.byte	0
 17498 1282 00       		.byte	0
 17499 1283 00       		.byte	0
 17500 1284 00       		.byte	0
 17501 1285 00       		.byte	0
 17502 1286 00       		.byte	0
 17503 1287 00       		.byte	0
 17504 1288 00       		.byte	0
 17505 1289 00       		.byte	0
 17506 128a 00       		.byte	0
 17507 128b 00       		.byte	0
 17508 128c 00       		.byte	0
 17509 128d 00       		.byte	0
 17510 128e 00       		.byte	0
 17511 128f 00       		.byte	0
 17512 1290 00       		.byte	0
 17513 1291 00       		.byte	0
 17514 1292 00       		.byte	0
 17515 1293 00       		.byte	0
 17516 1294 00       		.byte	0
 17517 1295 00       		.byte	0
 17518 1296 78       		.byte	120
 17519 1297 00       		.byte	0
 17520 1298 00       		.byte	0
 17521 1299 78       		.byte	120
 17522 129a 00       		.byte	0
 17523 129b 00       		.byte	0
 17524 129c 18       		.byte	24
 17525 129d 00       		.byte	0
 17526 129e 00       		.byte	0
 17527 129f 18       		.byte	24
 17528 12a0 00       		.byte	0
 17529 12a1 00       		.byte	0
 17530 12a2 1B       		.byte	27
 17531 12a3 E0       		.byte	-32
 17532 12a4 00       		.byte	0
 17533 12a5 1F       		.byte	31
 17534 12a6 F8       		.byte	-8
 17535 12a7 00       		.byte	0
 17536 12a8 1C       		.byte	28
 17537 12a9 18       		.byte	24
 17538 12aa 00       		.byte	0
 17539 12ab 18       		.byte	24
 17540 12ac 0C       		.byte	12
 17541 12ad 00       		.byte	0
 17542 12ae 18       		.byte	24
 17543 12af 0C       		.byte	12
 17544 12b0 00       		.byte	0
 17545 12b1 18       		.byte	24
 17546 12b2 0C       		.byte	12
 17547 12b3 00       		.byte	0
ARM GAS  C:\Users\milek\AppData\Local\Temp\ccMSPWBt.s 			page 345


 17548 12b4 18       		.byte	24
 17549 12b5 0C       		.byte	12
 17550 12b6 00       		.byte	0
 17551 12b7 18       		.byte	24
 17552 12b8 0C       		.byte	12
 17553 12b9 00       		.byte	0
 17554 12ba 1C       		.byte	28
 17555 12bb 18       		.byte	24
 17556 12bc 00       		.byte	0
 17557 12bd 7F       		.byte	127
 17558 12be F8       		.byte	-8
 17559 12bf 00       		.byte	0
 17560 12c0 7B       		.byte	123
 17561 12c1 E0       		.byte	-32
 17562 12c2 00       		.byte	0
 17563 12c3 00       		.byte	0
 17564 12c4 00       		.byte	0
 17565 12c5 00       		.byte	0
 17566 12c6 00       		.byte	0
 17567 12c7 00       		.byte	0
 17568 12c8 00       		.byte	0
 17569 12c9 00       		.byte	0
 17570 12ca 00       		.byte	0
 17571 12cb 00       		.byte	0
 17572 12cc 00       		.byte	0
 17573 12cd 00       		.byte	0
 17574 12ce 00       		.byte	0
 17575 12cf 00       		.byte	0
 17576 12d0 00       		.byte	0
 17577 12d1 00       		.byte	0
 17578 12d2 00       		.byte	0
 17579 12d3 00       		.byte	0
 17580 12d4 00       		.byte	0
 17581 12d5 00       		.byte	0
 17582 12d6 00       		.byte	0
 17583 12d7 00       		.byte	0
 17584 12d8 00       		.byte	0
 17585 12d9 00       		.byte	0
 17586 12da 00       		.byte	0
 17587 12db 00       		.byte	0
 17588 12dc 00       		.byte	0
 17589 12dd 00       		.byte	0
 17590 12de 00       		.byte	0
 17591 12df 00       		.byte	0
 17592 12e0 00       		.byte	0
 17593 12e1 00       		.byte	0
 17594 12e2 00       		.byte	0
 17595 12e3 00       		.byte	0
 17596 12e4 00       		.byte	0
 17597 12e5 00       		.byte	0
 17598 12e6 00       		.byte	0
 17599 12e7 00       		.byte	0
 17600 12e8 00       		.byte	0
 17601 12e9 00       		.byte	0
 17602 12ea 03       		.byte	3
 17603 12eb EC       		.byte	-20
 17604 12ec 00       		.byte	0
ARM GAS  C:\Users\milek\AppData\Local\Temp\ccMSPWBt.s 			page 346


 17605 12ed 0F       		.byte	15
 17606 12ee FC       		.byte	-4
 17607 12ef 00       		.byte	0
 17608 12f0 1C       		.byte	28
 17609 12f1 1C       		.byte	28
 17610 12f2 00       		.byte	0
 17611 12f3 38       		.byte	56
 17612 12f4 0C       		.byte	12
 17613 12f5 00       		.byte	0
 17614 12f6 30       		.byte	48
 17615 12f7 0C       		.byte	12
 17616 12f8 00       		.byte	0
 17617 12f9 30       		.byte	48
 17618 12fa 00       		.byte	0
 17619 12fb 00       		.byte	0
 17620 12fc 30       		.byte	48
 17621 12fd 00       		.byte	0
 17622 12fe 00       		.byte	0
 17623 12ff 38       		.byte	56
 17624 1300 0C       		.byte	12
 17625 1301 00       		.byte	0
 17626 1302 1C       		.byte	28
 17627 1303 1C       		.byte	28
 17628 1304 00       		.byte	0
 17629 1305 0F       		.byte	15
 17630 1306 F8       		.byte	-8
 17631 1307 00       		.byte	0
 17632 1308 03       		.byte	3
 17633 1309 F0       		.byte	-16
 17634 130a 00       		.byte	0
 17635 130b 00       		.byte	0
 17636 130c 00       		.byte	0
 17637 130d 00       		.byte	0
 17638 130e 00       		.byte	0
 17639 130f 00       		.byte	0
 17640 1310 00       		.byte	0
 17641 1311 00       		.byte	0
 17642 1312 00       		.byte	0
 17643 1313 00       		.byte	0
 17644 1314 00       		.byte	0
 17645 1315 00       		.byte	0
 17646 1316 00       		.byte	0
 17647 1317 00       		.byte	0
 17648 1318 00       		.byte	0
 17649 1319 00       		.byte	0
 17650 131a 00       		.byte	0
 17651 131b 00       		.byte	0
 17652 131c 00       		.byte	0
 17653 131d 00       		.byte	0
 17654 131e 00       		.byte	0
 17655 131f 00       		.byte	0
 17656 1320 00       		.byte	0
 17657 1321 00       		.byte	0
 17658 1322 00       		.byte	0
 17659 1323 00       		.byte	0
 17660 1324 00       		.byte	0
 17661 1325 00       		.byte	0
ARM GAS  C:\Users\milek\AppData\Local\Temp\ccMSPWBt.s 			page 347


 17662 1326 00       		.byte	0
 17663 1327 78       		.byte	120
 17664 1328 00       		.byte	0
 17665 1329 00       		.byte	0
 17666 132a 78       		.byte	120
 17667 132b 00       		.byte	0
 17668 132c 00       		.byte	0
 17669 132d 18       		.byte	24
 17670 132e 00       		.byte	0
 17671 132f 00       		.byte	0
 17672 1330 18       		.byte	24
 17673 1331 00       		.byte	0
 17674 1332 07       		.byte	7
 17675 1333 D8       		.byte	-40
 17676 1334 00       		.byte	0
 17677 1335 1F       		.byte	31
 17678 1336 F8       		.byte	-8
 17679 1337 00       		.byte	0
 17680 1338 18       		.byte	24
 17681 1339 38       		.byte	56
 17682 133a 00       		.byte	0
 17683 133b 30       		.byte	48
 17684 133c 18       		.byte	24
 17685 133d 00       		.byte	0
 17686 133e 30       		.byte	48
 17687 133f 18       		.byte	24
 17688 1340 00       		.byte	0
 17689 1341 30       		.byte	48
 17690 1342 18       		.byte	24
 17691 1343 00       		.byte	0
 17692 1344 30       		.byte	48
 17693 1345 18       		.byte	24
 17694 1346 00       		.byte	0
 17695 1347 30       		.byte	48
 17696 1348 18       		.byte	24
 17697 1349 00       		.byte	0
 17698 134a 18       		.byte	24
 17699 134b 38       		.byte	56
 17700 134c 00       		.byte	0
 17701 134d 1F       		.byte	31
 17702 134e FE       		.byte	-2
 17703 134f 00       		.byte	0
 17704 1350 07       		.byte	7
 17705 1351 DE       		.byte	-34
 17706 1352 00       		.byte	0
 17707 1353 00       		.byte	0
 17708 1354 00       		.byte	0
 17709 1355 00       		.byte	0
 17710 1356 00       		.byte	0
 17711 1357 00       		.byte	0
 17712 1358 00       		.byte	0
 17713 1359 00       		.byte	0
 17714 135a 00       		.byte	0
 17715 135b 00       		.byte	0
 17716 135c 00       		.byte	0
 17717 135d 00       		.byte	0
 17718 135e 00       		.byte	0
ARM GAS  C:\Users\milek\AppData\Local\Temp\ccMSPWBt.s 			page 348


 17719 135f 00       		.byte	0
 17720 1360 00       		.byte	0
 17721 1361 00       		.byte	0
 17722 1362 00       		.byte	0
 17723 1363 00       		.byte	0
 17724 1364 00       		.byte	0
 17725 1365 00       		.byte	0
 17726 1366 00       		.byte	0
 17727 1367 00       		.byte	0
 17728 1368 00       		.byte	0
 17729 1369 00       		.byte	0
 17730 136a 00       		.byte	0
 17731 136b 00       		.byte	0
 17732 136c 00       		.byte	0
 17733 136d 00       		.byte	0
 17734 136e 00       		.byte	0
 17735 136f 00       		.byte	0
 17736 1370 00       		.byte	0
 17737 1371 00       		.byte	0
 17738 1372 00       		.byte	0
 17739 1373 00       		.byte	0
 17740 1374 00       		.byte	0
 17741 1375 00       		.byte	0
 17742 1376 00       		.byte	0
 17743 1377 00       		.byte	0
 17744 1378 00       		.byte	0
 17745 1379 00       		.byte	0
 17746 137a 07       		.byte	7
 17747 137b E0       		.byte	-32
 17748 137c 00       		.byte	0
 17749 137d 1F       		.byte	31
 17750 137e F8       		.byte	-8
 17751 137f 00       		.byte	0
 17752 1380 18       		.byte	24
 17753 1381 18       		.byte	24
 17754 1382 00       		.byte	0
 17755 1383 30       		.byte	48
 17756 1384 0C       		.byte	12
 17757 1385 00       		.byte	0
 17758 1386 3F       		.byte	63
 17759 1387 FC       		.byte	-4
 17760 1388 00       		.byte	0
 17761 1389 3F       		.byte	63
 17762 138a FC       		.byte	-4
 17763 138b 00       		.byte	0
 17764 138c 30       		.byte	48
 17765 138d 00       		.byte	0
 17766 138e 00       		.byte	0
 17767 138f 30       		.byte	48
 17768 1390 00       		.byte	0
 17769 1391 00       		.byte	0
 17770 1392 18       		.byte	24
 17771 1393 0C       		.byte	12
 17772 1394 00       		.byte	0
 17773 1395 1F       		.byte	31
 17774 1396 FC       		.byte	-4
 17775 1397 00       		.byte	0
ARM GAS  C:\Users\milek\AppData\Local\Temp\ccMSPWBt.s 			page 349


 17776 1398 07       		.byte	7
 17777 1399 F0       		.byte	-16
 17778 139a 00       		.byte	0
 17779 139b 00       		.byte	0
 17780 139c 00       		.byte	0
 17781 139d 00       		.byte	0
 17782 139e 00       		.byte	0
 17783 139f 00       		.byte	0
 17784 13a0 00       		.byte	0
 17785 13a1 00       		.byte	0
 17786 13a2 00       		.byte	0
 17787 13a3 00       		.byte	0
 17788 13a4 00       		.byte	0
 17789 13a5 00       		.byte	0
 17790 13a6 00       		.byte	0
 17791 13a7 00       		.byte	0
 17792 13a8 00       		.byte	0
 17793 13a9 00       		.byte	0
 17794 13aa 00       		.byte	0
 17795 13ab 00       		.byte	0
 17796 13ac 00       		.byte	0
 17797 13ad 00       		.byte	0
 17798 13ae 00       		.byte	0
 17799 13af 00       		.byte	0
 17800 13b0 00       		.byte	0
 17801 13b1 00       		.byte	0
 17802 13b2 00       		.byte	0
 17803 13b3 00       		.byte	0
 17804 13b4 00       		.byte	0
 17805 13b5 00       		.byte	0
 17806 13b6 01       		.byte	1
 17807 13b7 FC       		.byte	-4
 17808 13b8 00       		.byte	0
 17809 13b9 03       		.byte	3
 17810 13ba FC       		.byte	-4
 17811 13bb 00       		.byte	0
 17812 13bc 06       		.byte	6
 17813 13bd 00       		.byte	0
 17814 13be 00       		.byte	0
 17815 13bf 06       		.byte	6
 17816 13c0 00       		.byte	0
 17817 13c1 00       		.byte	0
 17818 13c2 3F       		.byte	63
 17819 13c3 F8       		.byte	-8
 17820 13c4 00       		.byte	0
 17821 13c5 3F       		.byte	63
 17822 13c6 F8       		.byte	-8
 17823 13c7 00       		.byte	0
 17824 13c8 06       		.byte	6
 17825 13c9 00       		.byte	0
 17826 13ca 00       		.byte	0
 17827 13cb 06       		.byte	6
 17828 13cc 00       		.byte	0
 17829 13cd 00       		.byte	0
 17830 13ce 06       		.byte	6
 17831 13cf 00       		.byte	0
 17832 13d0 00       		.byte	0
ARM GAS  C:\Users\milek\AppData\Local\Temp\ccMSPWBt.s 			page 350


 17833 13d1 06       		.byte	6
 17834 13d2 00       		.byte	0
 17835 13d3 00       		.byte	0
 17836 13d4 06       		.byte	6
 17837 13d5 00       		.byte	0
 17838 13d6 00       		.byte	0
 17839 13d7 06       		.byte	6
 17840 13d8 00       		.byte	0
 17841 13d9 00       		.byte	0
 17842 13da 06       		.byte	6
 17843 13db 00       		.byte	0
 17844 13dc 00       		.byte	0
 17845 13dd 3F       		.byte	63
 17846 13de F0       		.byte	-16
 17847 13df 00       		.byte	0
 17848 13e0 3F       		.byte	63
 17849 13e1 F0       		.byte	-16
 17850 13e2 00       		.byte	0
 17851 13e3 00       		.byte	0
 17852 13e4 00       		.byte	0
 17853 13e5 00       		.byte	0
 17854 13e6 00       		.byte	0
 17855 13e7 00       		.byte	0
 17856 13e8 00       		.byte	0
 17857 13e9 00       		.byte	0
 17858 13ea 00       		.byte	0
 17859 13eb 00       		.byte	0
 17860 13ec 00       		.byte	0
 17861 13ed 00       		.byte	0
 17862 13ee 00       		.byte	0
 17863 13ef 00       		.byte	0
 17864 13f0 00       		.byte	0
 17865 13f1 00       		.byte	0
 17866 13f2 00       		.byte	0
 17867 13f3 00       		.byte	0
 17868 13f4 00       		.byte	0
 17869 13f5 00       		.byte	0
 17870 13f6 00       		.byte	0
 17871 13f7 00       		.byte	0
 17872 13f8 00       		.byte	0
 17873 13f9 00       		.byte	0
 17874 13fa 00       		.byte	0
 17875 13fb 00       		.byte	0
 17876 13fc 00       		.byte	0
 17877 13fd 00       		.byte	0
 17878 13fe 00       		.byte	0
 17879 13ff 00       		.byte	0
 17880 1400 00       		.byte	0
 17881 1401 00       		.byte	0
 17882 1402 00       		.byte	0
 17883 1403 00       		.byte	0
 17884 1404 00       		.byte	0
 17885 1405 00       		.byte	0
 17886 1406 00       		.byte	0
 17887 1407 00       		.byte	0
 17888 1408 00       		.byte	0
 17889 1409 00       		.byte	0
ARM GAS  C:\Users\milek\AppData\Local\Temp\ccMSPWBt.s 			page 351


 17890 140a 07       		.byte	7
 17891 140b DE       		.byte	-34
 17892 140c 00       		.byte	0
 17893 140d 1F       		.byte	31
 17894 140e FE       		.byte	-2
 17895 140f 00       		.byte	0
 17896 1410 18       		.byte	24
 17897 1411 38       		.byte	56
 17898 1412 00       		.byte	0
 17899 1413 30       		.byte	48
 17900 1414 18       		.byte	24
 17901 1415 00       		.byte	0
 17902 1416 30       		.byte	48
 17903 1417 18       		.byte	24
 17904 1418 00       		.byte	0
 17905 1419 30       		.byte	48
 17906 141a 18       		.byte	24
 17907 141b 00       		.byte	0
 17908 141c 30       		.byte	48
 17909 141d 18       		.byte	24
 17910 141e 00       		.byte	0
 17911 141f 30       		.byte	48
 17912 1420 18       		.byte	24
 17913 1421 00       		.byte	0
 17914 1422 18       		.byte	24
 17915 1423 38       		.byte	56
 17916 1424 00       		.byte	0
 17917 1425 1F       		.byte	31
 17918 1426 F8       		.byte	-8
 17919 1427 00       		.byte	0
 17920 1428 07       		.byte	7
 17921 1429 D8       		.byte	-40
 17922 142a 00       		.byte	0
 17923 142b 00       		.byte	0
 17924 142c 18       		.byte	24
 17925 142d 00       		.byte	0
 17926 142e 00       		.byte	0
 17927 142f 18       		.byte	24
 17928 1430 00       		.byte	0
 17929 1431 00       		.byte	0
 17930 1432 38       		.byte	56
 17931 1433 00       		.byte	0
 17932 1434 0F       		.byte	15
 17933 1435 F0       		.byte	-16
 17934 1436 00       		.byte	0
 17935 1437 0F       		.byte	15
 17936 1438 C0       		.byte	-64
 17937 1439 00       		.byte	0
 17938 143a 00       		.byte	0
 17939 143b 00       		.byte	0
 17940 143c 00       		.byte	0
 17941 143d 00       		.byte	0
 17942 143e 00       		.byte	0
 17943 143f 00       		.byte	0
 17944 1440 00       		.byte	0
 17945 1441 00       		.byte	0
 17946 1442 00       		.byte	0
ARM GAS  C:\Users\milek\AppData\Local\Temp\ccMSPWBt.s 			page 352


 17947 1443 00       		.byte	0
 17948 1444 00       		.byte	0
 17949 1445 00       		.byte	0
 17950 1446 78       		.byte	120
 17951 1447 00       		.byte	0
 17952 1448 00       		.byte	0
 17953 1449 78       		.byte	120
 17954 144a 00       		.byte	0
 17955 144b 00       		.byte	0
 17956 144c 18       		.byte	24
 17957 144d 00       		.byte	0
 17958 144e 00       		.byte	0
 17959 144f 18       		.byte	24
 17960 1450 00       		.byte	0
 17961 1451 00       		.byte	0
 17962 1452 1B       		.byte	27
 17963 1453 E0       		.byte	-32
 17964 1454 00       		.byte	0
 17965 1455 1F       		.byte	31
 17966 1456 F0       		.byte	-16
 17967 1457 00       		.byte	0
 17968 1458 1C       		.byte	28
 17969 1459 38       		.byte	56
 17970 145a 00       		.byte	0
 17971 145b 18       		.byte	24
 17972 145c 18       		.byte	24
 17973 145d 00       		.byte	0
 17974 145e 18       		.byte	24
 17975 145f 18       		.byte	24
 17976 1460 00       		.byte	0
 17977 1461 18       		.byte	24
 17978 1462 18       		.byte	24
 17979 1463 00       		.byte	0
 17980 1464 18       		.byte	24
 17981 1465 18       		.byte	24
 17982 1466 00       		.byte	0
 17983 1467 18       		.byte	24
 17984 1468 18       		.byte	24
 17985 1469 00       		.byte	0
 17986 146a 18       		.byte	24
 17987 146b 18       		.byte	24
 17988 146c 00       		.byte	0
 17989 146d 7E       		.byte	126
 17990 146e 7E       		.byte	126
 17991 146f 00       		.byte	0
 17992 1470 7E       		.byte	126
 17993 1471 7E       		.byte	126
 17994 1472 00       		.byte	0
 17995 1473 00       		.byte	0
 17996 1474 00       		.byte	0
 17997 1475 00       		.byte	0
 17998 1476 00       		.byte	0
 17999 1477 00       		.byte	0
 18000 1478 00       		.byte	0
 18001 1479 00       		.byte	0
 18002 147a 00       		.byte	0
 18003 147b 00       		.byte	0
ARM GAS  C:\Users\milek\AppData\Local\Temp\ccMSPWBt.s 			page 353


 18004 147c 00       		.byte	0
 18005 147d 00       		.byte	0
 18006 147e 00       		.byte	0
 18007 147f 00       		.byte	0
 18008 1480 00       		.byte	0
 18009 1481 00       		.byte	0
 18010 1482 00       		.byte	0
 18011 1483 00       		.byte	0
 18012 1484 00       		.byte	0
 18013 1485 00       		.byte	0
 18014 1486 00       		.byte	0
 18015 1487 00       		.byte	0
 18016 1488 00       		.byte	0
 18017 1489 00       		.byte	0
 18018 148a 00       		.byte	0
 18019 148b 00       		.byte	0
 18020 148c 00       		.byte	0
 18021 148d 00       		.byte	0
 18022 148e 01       		.byte	1
 18023 148f 80       		.byte	-128
 18024 1490 00       		.byte	0
 18025 1491 01       		.byte	1
 18026 1492 80       		.byte	-128
 18027 1493 00       		.byte	0
 18028 1494 00       		.byte	0
 18029 1495 00       		.byte	0
 18030 1496 00       		.byte	0
 18031 1497 00       		.byte	0
 18032 1498 00       		.byte	0
 18033 1499 00       		.byte	0
 18034 149a 1F       		.byte	31
 18035 149b 80       		.byte	-128
 18036 149c 00       		.byte	0
 18037 149d 1F       		.byte	31
 18038 149e 80       		.byte	-128
 18039 149f 00       		.byte	0
 18040 14a0 01       		.byte	1
 18041 14a1 80       		.byte	-128
 18042 14a2 00       		.byte	0
 18043 14a3 01       		.byte	1
 18044 14a4 80       		.byte	-128
 18045 14a5 00       		.byte	0
 18046 14a6 01       		.byte	1
 18047 14a7 80       		.byte	-128
 18048 14a8 00       		.byte	0
 18049 14a9 01       		.byte	1
 18050 14aa 80       		.byte	-128
 18051 14ab 00       		.byte	0
 18052 14ac 01       		.byte	1
 18053 14ad 80       		.byte	-128
 18054 14ae 00       		.byte	0
 18055 14af 01       		.byte	1
 18056 14b0 80       		.byte	-128
 18057 14b1 00       		.byte	0
 18058 14b2 01       		.byte	1
 18059 14b3 80       		.byte	-128
 18060 14b4 00       		.byte	0
ARM GAS  C:\Users\milek\AppData\Local\Temp\ccMSPWBt.s 			page 354


 18061 14b5 3F       		.byte	63
 18062 14b6 FC       		.byte	-4
 18063 14b7 00       		.byte	0
 18064 14b8 3F       		.byte	63
 18065 14b9 FC       		.byte	-4
 18066 14ba 00       		.byte	0
 18067 14bb 00       		.byte	0
 18068 14bc 00       		.byte	0
 18069 14bd 00       		.byte	0
 18070 14be 00       		.byte	0
 18071 14bf 00       		.byte	0
 18072 14c0 00       		.byte	0
 18073 14c1 00       		.byte	0
 18074 14c2 00       		.byte	0
 18075 14c3 00       		.byte	0
 18076 14c4 00       		.byte	0
 18077 14c5 00       		.byte	0
 18078 14c6 00       		.byte	0
 18079 14c7 00       		.byte	0
 18080 14c8 00       		.byte	0
 18081 14c9 00       		.byte	0
 18082 14ca 00       		.byte	0
 18083 14cb 00       		.byte	0
 18084 14cc 00       		.byte	0
 18085 14cd 00       		.byte	0
 18086 14ce 00       		.byte	0
 18087 14cf 00       		.byte	0
 18088 14d0 00       		.byte	0
 18089 14d1 00       		.byte	0
 18090 14d2 00       		.byte	0
 18091 14d3 00       		.byte	0
 18092 14d4 00       		.byte	0
 18093 14d5 00       		.byte	0
 18094 14d6 00       		.byte	0
 18095 14d7 C0       		.byte	-64
 18096 14d8 00       		.byte	0
 18097 14d9 00       		.byte	0
 18098 14da C0       		.byte	-64
 18099 14db 00       		.byte	0
 18100 14dc 00       		.byte	0
 18101 14dd 00       		.byte	0
 18102 14de 00       		.byte	0
 18103 14df 00       		.byte	0
 18104 14e0 00       		.byte	0
 18105 14e1 00       		.byte	0
 18106 14e2 1F       		.byte	31
 18107 14e3 F0       		.byte	-16
 18108 14e4 00       		.byte	0
 18109 14e5 1F       		.byte	31
 18110 14e6 F0       		.byte	-16
 18111 14e7 00       		.byte	0
 18112 14e8 00       		.byte	0
 18113 14e9 30       		.byte	48
 18114 14ea 00       		.byte	0
 18115 14eb 00       		.byte	0
 18116 14ec 30       		.byte	48
 18117 14ed 00       		.byte	0
ARM GAS  C:\Users\milek\AppData\Local\Temp\ccMSPWBt.s 			page 355


 18118 14ee 00       		.byte	0
 18119 14ef 30       		.byte	48
 18120 14f0 00       		.byte	0
 18121 14f1 00       		.byte	0
 18122 14f2 30       		.byte	48
 18123 14f3 00       		.byte	0
 18124 14f4 00       		.byte	0
 18125 14f5 30       		.byte	48
 18126 14f6 00       		.byte	0
 18127 14f7 00       		.byte	0
 18128 14f8 30       		.byte	48
 18129 14f9 00       		.byte	0
 18130 14fa 00       		.byte	0
 18131 14fb 30       		.byte	48
 18132 14fc 00       		.byte	0
 18133 14fd 00       		.byte	0
 18134 14fe 30       		.byte	48
 18135 14ff 00       		.byte	0
 18136 1500 00       		.byte	0
 18137 1501 30       		.byte	48
 18138 1502 00       		.byte	0
 18139 1503 00       		.byte	0
 18140 1504 30       		.byte	48
 18141 1505 00       		.byte	0
 18142 1506 00       		.byte	0
 18143 1507 30       		.byte	48
 18144 1508 00       		.byte	0
 18145 1509 00       		.byte	0
 18146 150a 70       		.byte	112
 18147 150b 00       		.byte	0
 18148 150c 1F       		.byte	31
 18149 150d E0       		.byte	-32
 18150 150e 00       		.byte	0
 18151 150f 1F       		.byte	31
 18152 1510 80       		.byte	-128
 18153 1511 00       		.byte	0
 18154 1512 00       		.byte	0
 18155 1513 00       		.byte	0
 18156 1514 00       		.byte	0
 18157 1515 00       		.byte	0
 18158 1516 00       		.byte	0
 18159 1517 00       		.byte	0
 18160 1518 00       		.byte	0
 18161 1519 00       		.byte	0
 18162 151a 00       		.byte	0
 18163 151b 00       		.byte	0
 18164 151c 00       		.byte	0
 18165 151d 00       		.byte	0
 18166 151e 3C       		.byte	60
 18167 151f 00       		.byte	0
 18168 1520 00       		.byte	0
 18169 1521 3C       		.byte	60
 18170 1522 00       		.byte	0
 18171 1523 00       		.byte	0
 18172 1524 0C       		.byte	12
 18173 1525 00       		.byte	0
 18174 1526 00       		.byte	0
ARM GAS  C:\Users\milek\AppData\Local\Temp\ccMSPWBt.s 			page 356


 18175 1527 0C       		.byte	12
 18176 1528 00       		.byte	0
 18177 1529 00       		.byte	0
 18178 152a 0C       		.byte	12
 18179 152b F8       		.byte	-8
 18180 152c 00       		.byte	0
 18181 152d 0C       		.byte	12
 18182 152e F8       		.byte	-8
 18183 152f 00       		.byte	0
 18184 1530 0C       		.byte	12
 18185 1531 C0       		.byte	-64
 18186 1532 00       		.byte	0
 18187 1533 0D       		.byte	13
 18188 1534 80       		.byte	-128
 18189 1535 00       		.byte	0
 18190 1536 0F       		.byte	15
 18191 1537 80       		.byte	-128
 18192 1538 00       		.byte	0
 18193 1539 0F       		.byte	15
 18194 153a 00       		.byte	0
 18195 153b 00       		.byte	0
 18196 153c 0F       		.byte	15
 18197 153d 80       		.byte	-128
 18198 153e 00       		.byte	0
 18199 153f 0D       		.byte	13
 18200 1540 C0       		.byte	-64
 18201 1541 00       		.byte	0
 18202 1542 0C       		.byte	12
 18203 1543 E0       		.byte	-32
 18204 1544 00       		.byte	0
 18205 1545 3C       		.byte	60
 18206 1546 7C       		.byte	124
 18207 1547 00       		.byte	0
 18208 1548 3C       		.byte	60
 18209 1549 7C       		.byte	124
 18210 154a 00       		.byte	0
 18211 154b 00       		.byte	0
 18212 154c 00       		.byte	0
 18213 154d 00       		.byte	0
 18214 154e 00       		.byte	0
 18215 154f 00       		.byte	0
 18216 1550 00       		.byte	0
 18217 1551 00       		.byte	0
 18218 1552 00       		.byte	0
 18219 1553 00       		.byte	0
 18220 1554 00       		.byte	0
 18221 1555 00       		.byte	0
 18222 1556 00       		.byte	0
 18223 1557 00       		.byte	0
 18224 1558 00       		.byte	0
 18225 1559 00       		.byte	0
 18226 155a 00       		.byte	0
 18227 155b 00       		.byte	0
 18228 155c 00       		.byte	0
 18229 155d 00       		.byte	0
 18230 155e 00       		.byte	0
 18231 155f 00       		.byte	0
ARM GAS  C:\Users\milek\AppData\Local\Temp\ccMSPWBt.s 			page 357


 18232 1560 00       		.byte	0
 18233 1561 00       		.byte	0
 18234 1562 00       		.byte	0
 18235 1563 00       		.byte	0
 18236 1564 00       		.byte	0
 18237 1565 00       		.byte	0
 18238 1566 1F       		.byte	31
 18239 1567 80       		.byte	-128
 18240 1568 00       		.byte	0
 18241 1569 1F       		.byte	31
 18242 156a 80       		.byte	-128
 18243 156b 00       		.byte	0
 18244 156c 01       		.byte	1
 18245 156d 80       		.byte	-128
 18246 156e 00       		.byte	0
 18247 156f 01       		.byte	1
 18248 1570 80       		.byte	-128
 18249 1571 00       		.byte	0
 18250 1572 01       		.byte	1
 18251 1573 80       		.byte	-128
 18252 1574 00       		.byte	0
 18253 1575 01       		.byte	1
 18254 1576 80       		.byte	-128
 18255 1577 00       		.byte	0
 18256 1578 01       		.byte	1
 18257 1579 80       		.byte	-128
 18258 157a 00       		.byte	0
 18259 157b 01       		.byte	1
 18260 157c 80       		.byte	-128
 18261 157d 00       		.byte	0
 18262 157e 01       		.byte	1
 18263 157f 80       		.byte	-128
 18264 1580 00       		.byte	0
 18265 1581 01       		.byte	1
 18266 1582 80       		.byte	-128
 18267 1583 00       		.byte	0
 18268 1584 01       		.byte	1
 18269 1585 80       		.byte	-128
 18270 1586 00       		.byte	0
 18271 1587 01       		.byte	1
 18272 1588 80       		.byte	-128
 18273 1589 00       		.byte	0
 18274 158a 01       		.byte	1
 18275 158b 80       		.byte	-128
 18276 158c 00       		.byte	0
 18277 158d 3F       		.byte	63
 18278 158e FC       		.byte	-4
 18279 158f 00       		.byte	0
 18280 1590 3F       		.byte	63
 18281 1591 FC       		.byte	-4
 18282 1592 00       		.byte	0
 18283 1593 00       		.byte	0
 18284 1594 00       		.byte	0
 18285 1595 00       		.byte	0
 18286 1596 00       		.byte	0
 18287 1597 00       		.byte	0
 18288 1598 00       		.byte	0
ARM GAS  C:\Users\milek\AppData\Local\Temp\ccMSPWBt.s 			page 358


 18289 1599 00       		.byte	0
 18290 159a 00       		.byte	0
 18291 159b 00       		.byte	0
 18292 159c 00       		.byte	0
 18293 159d 00       		.byte	0
 18294 159e 00       		.byte	0
 18295 159f 00       		.byte	0
 18296 15a0 00       		.byte	0
 18297 15a1 00       		.byte	0
 18298 15a2 00       		.byte	0
 18299 15a3 00       		.byte	0
 18300 15a4 00       		.byte	0
 18301 15a5 00       		.byte	0
 18302 15a6 00       		.byte	0
 18303 15a7 00       		.byte	0
 18304 15a8 00       		.byte	0
 18305 15a9 00       		.byte	0
 18306 15aa 00       		.byte	0
 18307 15ab 00       		.byte	0
 18308 15ac 00       		.byte	0
 18309 15ad 00       		.byte	0
 18310 15ae 00       		.byte	0
 18311 15af 00       		.byte	0
 18312 15b0 00       		.byte	0
 18313 15b1 00       		.byte	0
 18314 15b2 00       		.byte	0
 18315 15b3 00       		.byte	0
 18316 15b4 00       		.byte	0
 18317 15b5 00       		.byte	0
 18318 15b6 00       		.byte	0
 18319 15b7 00       		.byte	0
 18320 15b8 00       		.byte	0
 18321 15b9 00       		.byte	0
 18322 15ba F7       		.byte	-9
 18323 15bb 78       		.byte	120
 18324 15bc 00       		.byte	0
 18325 15bd FF       		.byte	-1
 18326 15be FC       		.byte	-4
 18327 15bf 00       		.byte	0
 18328 15c0 39       		.byte	57
 18329 15c1 CC       		.byte	-52
 18330 15c2 00       		.byte	0
 18331 15c3 31       		.byte	49
 18332 15c4 8C       		.byte	-116
 18333 15c5 00       		.byte	0
 18334 15c6 31       		.byte	49
 18335 15c7 8C       		.byte	-116
 18336 15c8 00       		.byte	0
 18337 15c9 31       		.byte	49
 18338 15ca 8C       		.byte	-116
 18339 15cb 00       		.byte	0
 18340 15cc 31       		.byte	49
 18341 15cd 8C       		.byte	-116
 18342 15ce 00       		.byte	0
 18343 15cf 31       		.byte	49
 18344 15d0 8C       		.byte	-116
 18345 15d1 00       		.byte	0
ARM GAS  C:\Users\milek\AppData\Local\Temp\ccMSPWBt.s 			page 359


 18346 15d2 31       		.byte	49
 18347 15d3 8C       		.byte	-116
 18348 15d4 00       		.byte	0
 18349 15d5 FD       		.byte	-3
 18350 15d6 EF       		.byte	-17
 18351 15d7 00       		.byte	0
 18352 15d8 FD       		.byte	-3
 18353 15d9 EF       		.byte	-17
 18354 15da 00       		.byte	0
 18355 15db 00       		.byte	0
 18356 15dc 00       		.byte	0
 18357 15dd 00       		.byte	0
 18358 15de 00       		.byte	0
 18359 15df 00       		.byte	0
 18360 15e0 00       		.byte	0
 18361 15e1 00       		.byte	0
 18362 15e2 00       		.byte	0
 18363 15e3 00       		.byte	0
 18364 15e4 00       		.byte	0
 18365 15e5 00       		.byte	0
 18366 15e6 00       		.byte	0
 18367 15e7 00       		.byte	0
 18368 15e8 00       		.byte	0
 18369 15e9 00       		.byte	0
 18370 15ea 00       		.byte	0
 18371 15eb 00       		.byte	0
 18372 15ec 00       		.byte	0
 18373 15ed 00       		.byte	0
 18374 15ee 00       		.byte	0
 18375 15ef 00       		.byte	0
 18376 15f0 00       		.byte	0
 18377 15f1 00       		.byte	0
 18378 15f2 00       		.byte	0
 18379 15f3 00       		.byte	0
 18380 15f4 00       		.byte	0
 18381 15f5 00       		.byte	0
 18382 15f6 00       		.byte	0
 18383 15f7 00       		.byte	0
 18384 15f8 00       		.byte	0
 18385 15f9 00       		.byte	0
 18386 15fa 00       		.byte	0
 18387 15fb 00       		.byte	0
 18388 15fc 00       		.byte	0
 18389 15fd 00       		.byte	0
 18390 15fe 00       		.byte	0
 18391 15ff 00       		.byte	0
 18392 1600 00       		.byte	0
 18393 1601 00       		.byte	0
 18394 1602 7B       		.byte	123
 18395 1603 E0       		.byte	-32
 18396 1604 00       		.byte	0
 18397 1605 7F       		.byte	127
 18398 1606 F0       		.byte	-16
 18399 1607 00       		.byte	0
 18400 1608 1C       		.byte	28
 18401 1609 38       		.byte	56
 18402 160a 00       		.byte	0
ARM GAS  C:\Users\milek\AppData\Local\Temp\ccMSPWBt.s 			page 360


 18403 160b 18       		.byte	24
 18404 160c 18       		.byte	24
 18405 160d 00       		.byte	0
 18406 160e 18       		.byte	24
 18407 160f 18       		.byte	24
 18408 1610 00       		.byte	0
 18409 1611 18       		.byte	24
 18410 1612 18       		.byte	24
 18411 1613 00       		.byte	0
 18412 1614 18       		.byte	24
 18413 1615 18       		.byte	24
 18414 1616 00       		.byte	0
 18415 1617 18       		.byte	24
 18416 1618 18       		.byte	24
 18417 1619 00       		.byte	0
 18418 161a 18       		.byte	24
 18419 161b 18       		.byte	24
 18420 161c 00       		.byte	0
 18421 161d 7E       		.byte	126
 18422 161e 7E       		.byte	126
 18423 161f 00       		.byte	0
 18424 1620 7E       		.byte	126
 18425 1621 7E       		.byte	126
 18426 1622 00       		.byte	0
 18427 1623 00       		.byte	0
 18428 1624 00       		.byte	0
 18429 1625 00       		.byte	0
 18430 1626 00       		.byte	0
 18431 1627 00       		.byte	0
 18432 1628 00       		.byte	0
 18433 1629 00       		.byte	0
 18434 162a 00       		.byte	0
 18435 162b 00       		.byte	0
 18436 162c 00       		.byte	0
 18437 162d 00       		.byte	0
 18438 162e 00       		.byte	0
 18439 162f 00       		.byte	0
 18440 1630 00       		.byte	0
 18441 1631 00       		.byte	0
 18442 1632 00       		.byte	0
 18443 1633 00       		.byte	0
 18444 1634 00       		.byte	0
 18445 1635 00       		.byte	0
 18446 1636 00       		.byte	0
 18447 1637 00       		.byte	0
 18448 1638 00       		.byte	0
 18449 1639 00       		.byte	0
 18450 163a 00       		.byte	0
 18451 163b 00       		.byte	0
 18452 163c 00       		.byte	0
 18453 163d 00       		.byte	0
 18454 163e 00       		.byte	0
 18455 163f 00       		.byte	0
 18456 1640 00       		.byte	0
 18457 1641 00       		.byte	0
 18458 1642 00       		.byte	0
 18459 1643 00       		.byte	0
ARM GAS  C:\Users\milek\AppData\Local\Temp\ccMSPWBt.s 			page 361


 18460 1644 00       		.byte	0
 18461 1645 00       		.byte	0
 18462 1646 00       		.byte	0
 18463 1647 00       		.byte	0
 18464 1648 00       		.byte	0
 18465 1649 00       		.byte	0
 18466 164a 03       		.byte	3
 18467 164b C0       		.byte	-64
 18468 164c 00       		.byte	0
 18469 164d 0F       		.byte	15
 18470 164e F0       		.byte	-16
 18471 164f 00       		.byte	0
 18472 1650 1C       		.byte	28
 18473 1651 38       		.byte	56
 18474 1652 00       		.byte	0
 18475 1653 38       		.byte	56
 18476 1654 1C       		.byte	28
 18477 1655 00       		.byte	0
 18478 1656 30       		.byte	48
 18479 1657 0C       		.byte	12
 18480 1658 00       		.byte	0
 18481 1659 30       		.byte	48
 18482 165a 0C       		.byte	12
 18483 165b 00       		.byte	0
 18484 165c 30       		.byte	48
 18485 165d 0C       		.byte	12
 18486 165e 00       		.byte	0
 18487 165f 38       		.byte	56
 18488 1660 1C       		.byte	28
 18489 1661 00       		.byte	0
 18490 1662 1C       		.byte	28
 18491 1663 38       		.byte	56
 18492 1664 00       		.byte	0
 18493 1665 0F       		.byte	15
 18494 1666 F0       		.byte	-16
 18495 1667 00       		.byte	0
 18496 1668 03       		.byte	3
 18497 1669 C0       		.byte	-64
 18498 166a 00       		.byte	0
 18499 166b 00       		.byte	0
 18500 166c 00       		.byte	0
 18501 166d 00       		.byte	0
 18502 166e 00       		.byte	0
 18503 166f 00       		.byte	0
 18504 1670 00       		.byte	0
 18505 1671 00       		.byte	0
 18506 1672 00       		.byte	0
 18507 1673 00       		.byte	0
 18508 1674 00       		.byte	0
 18509 1675 00       		.byte	0
 18510 1676 00       		.byte	0
 18511 1677 00       		.byte	0
 18512 1678 00       		.byte	0
 18513 1679 00       		.byte	0
 18514 167a 00       		.byte	0
 18515 167b 00       		.byte	0
 18516 167c 00       		.byte	0
ARM GAS  C:\Users\milek\AppData\Local\Temp\ccMSPWBt.s 			page 362


 18517 167d 00       		.byte	0
 18518 167e 00       		.byte	0
 18519 167f 00       		.byte	0
 18520 1680 00       		.byte	0
 18521 1681 00       		.byte	0
 18522 1682 00       		.byte	0
 18523 1683 00       		.byte	0
 18524 1684 00       		.byte	0
 18525 1685 00       		.byte	0
 18526 1686 00       		.byte	0
 18527 1687 00       		.byte	0
 18528 1688 00       		.byte	0
 18529 1689 00       		.byte	0
 18530 168a 00       		.byte	0
 18531 168b 00       		.byte	0
 18532 168c 00       		.byte	0
 18533 168d 00       		.byte	0
 18534 168e 00       		.byte	0
 18535 168f 00       		.byte	0
 18536 1690 00       		.byte	0
 18537 1691 00       		.byte	0
 18538 1692 7B       		.byte	123
 18539 1693 E0       		.byte	-32
 18540 1694 00       		.byte	0
 18541 1695 7F       		.byte	127
 18542 1696 F8       		.byte	-8
 18543 1697 00       		.byte	0
 18544 1698 1C       		.byte	28
 18545 1699 18       		.byte	24
 18546 169a 00       		.byte	0
 18547 169b 18       		.byte	24
 18548 169c 0C       		.byte	12
 18549 169d 00       		.byte	0
 18550 169e 18       		.byte	24
 18551 169f 0C       		.byte	12
 18552 16a0 00       		.byte	0
 18553 16a1 18       		.byte	24
 18554 16a2 0C       		.byte	12
 18555 16a3 00       		.byte	0
 18556 16a4 18       		.byte	24
 18557 16a5 0C       		.byte	12
 18558 16a6 00       		.byte	0
 18559 16a7 18       		.byte	24
 18560 16a8 0C       		.byte	12
 18561 16a9 00       		.byte	0
 18562 16aa 1C       		.byte	28
 18563 16ab 18       		.byte	24
 18564 16ac 00       		.byte	0
 18565 16ad 1F       		.byte	31
 18566 16ae F8       		.byte	-8
 18567 16af 00       		.byte	0
 18568 16b0 1B       		.byte	27
 18569 16b1 E0       		.byte	-32
 18570 16b2 00       		.byte	0
 18571 16b3 18       		.byte	24
 18572 16b4 00       		.byte	0
 18573 16b5 00       		.byte	0
ARM GAS  C:\Users\milek\AppData\Local\Temp\ccMSPWBt.s 			page 363


 18574 16b6 18       		.byte	24
 18575 16b7 00       		.byte	0
 18576 16b8 00       		.byte	0
 18577 16b9 18       		.byte	24
 18578 16ba 00       		.byte	0
 18579 16bb 00       		.byte	0
 18580 16bc 7F       		.byte	127
 18581 16bd 00       		.byte	0
 18582 16be 00       		.byte	0
 18583 16bf 7F       		.byte	127
 18584 16c0 00       		.byte	0
 18585 16c1 00       		.byte	0
 18586 16c2 00       		.byte	0
 18587 16c3 00       		.byte	0
 18588 16c4 00       		.byte	0
 18589 16c5 00       		.byte	0
 18590 16c6 00       		.byte	0
 18591 16c7 00       		.byte	0
 18592 16c8 00       		.byte	0
 18593 16c9 00       		.byte	0
 18594 16ca 00       		.byte	0
 18595 16cb 00       		.byte	0
 18596 16cc 00       		.byte	0
 18597 16cd 00       		.byte	0
 18598 16ce 00       		.byte	0
 18599 16cf 00       		.byte	0
 18600 16d0 00       		.byte	0
 18601 16d1 00       		.byte	0
 18602 16d2 00       		.byte	0
 18603 16d3 00       		.byte	0
 18604 16d4 00       		.byte	0
 18605 16d5 00       		.byte	0
 18606 16d6 00       		.byte	0
 18607 16d7 00       		.byte	0
 18608 16d8 00       		.byte	0
 18609 16d9 00       		.byte	0
 18610 16da 07       		.byte	7
 18611 16db DE       		.byte	-34
 18612 16dc 00       		.byte	0
 18613 16dd 1F       		.byte	31
 18614 16de FE       		.byte	-2
 18615 16df 00       		.byte	0
 18616 16e0 18       		.byte	24
 18617 16e1 38       		.byte	56
 18618 16e2 00       		.byte	0
 18619 16e3 30       		.byte	48
 18620 16e4 18       		.byte	24
 18621 16e5 00       		.byte	0
 18622 16e6 30       		.byte	48
 18623 16e7 18       		.byte	24
 18624 16e8 00       		.byte	0
 18625 16e9 30       		.byte	48
 18626 16ea 18       		.byte	24
 18627 16eb 00       		.byte	0
 18628 16ec 30       		.byte	48
 18629 16ed 18       		.byte	24
 18630 16ee 00       		.byte	0
ARM GAS  C:\Users\milek\AppData\Local\Temp\ccMSPWBt.s 			page 364


 18631 16ef 30       		.byte	48
 18632 16f0 18       		.byte	24
 18633 16f1 00       		.byte	0
 18634 16f2 18       		.byte	24
 18635 16f3 38       		.byte	56
 18636 16f4 00       		.byte	0
 18637 16f5 1F       		.byte	31
 18638 16f6 F8       		.byte	-8
 18639 16f7 00       		.byte	0
 18640 16f8 07       		.byte	7
 18641 16f9 D8       		.byte	-40
 18642 16fa 00       		.byte	0
 18643 16fb 00       		.byte	0
 18644 16fc 18       		.byte	24
 18645 16fd 00       		.byte	0
 18646 16fe 00       		.byte	0
 18647 16ff 18       		.byte	24
 18648 1700 00       		.byte	0
 18649 1701 00       		.byte	0
 18650 1702 18       		.byte	24
 18651 1703 00       		.byte	0
 18652 1704 00       		.byte	0
 18653 1705 FE       		.byte	-2
 18654 1706 00       		.byte	0
 18655 1707 00       		.byte	0
 18656 1708 FE       		.byte	-2
 18657 1709 00       		.byte	0
 18658 170a 00       		.byte	0
 18659 170b 00       		.byte	0
 18660 170c 00       		.byte	0
 18661 170d 00       		.byte	0
 18662 170e 00       		.byte	0
 18663 170f 00       		.byte	0
 18664 1710 00       		.byte	0
 18665 1711 00       		.byte	0
 18666 1712 00       		.byte	0
 18667 1713 00       		.byte	0
 18668 1714 00       		.byte	0
 18669 1715 00       		.byte	0
 18670 1716 00       		.byte	0
 18671 1717 00       		.byte	0
 18672 1718 00       		.byte	0
 18673 1719 00       		.byte	0
 18674 171a 00       		.byte	0
 18675 171b 00       		.byte	0
 18676 171c 00       		.byte	0
 18677 171d 00       		.byte	0
 18678 171e 00       		.byte	0
 18679 171f 00       		.byte	0
 18680 1720 00       		.byte	0
 18681 1721 00       		.byte	0
 18682 1722 3E       		.byte	62
 18683 1723 78       		.byte	120
 18684 1724 00       		.byte	0
 18685 1725 3E       		.byte	62
 18686 1726 FC       		.byte	-4
 18687 1727 00       		.byte	0
ARM GAS  C:\Users\milek\AppData\Local\Temp\ccMSPWBt.s 			page 365


 18688 1728 07       		.byte	7
 18689 1729 CC       		.byte	-52
 18690 172a 00       		.byte	0
 18691 172b 07       		.byte	7
 18692 172c 00       		.byte	0
 18693 172d 00       		.byte	0
 18694 172e 06       		.byte	6
 18695 172f 00       		.byte	0
 18696 1730 00       		.byte	0
 18697 1731 06       		.byte	6
 18698 1732 00       		.byte	0
 18699 1733 00       		.byte	0
 18700 1734 06       		.byte	6
 18701 1735 00       		.byte	0
 18702 1736 00       		.byte	0
 18703 1737 06       		.byte	6
 18704 1738 00       		.byte	0
 18705 1739 00       		.byte	0
 18706 173a 06       		.byte	6
 18707 173b 00       		.byte	0
 18708 173c 00       		.byte	0
 18709 173d 3F       		.byte	63
 18710 173e F0       		.byte	-16
 18711 173f 00       		.byte	0
 18712 1740 3F       		.byte	63
 18713 1741 F0       		.byte	-16
 18714 1742 00       		.byte	0
 18715 1743 00       		.byte	0
 18716 1744 00       		.byte	0
 18717 1745 00       		.byte	0
 18718 1746 00       		.byte	0
 18719 1747 00       		.byte	0
 18720 1748 00       		.byte	0
 18721 1749 00       		.byte	0
 18722 174a 00       		.byte	0
 18723 174b 00       		.byte	0
 18724 174c 00       		.byte	0
 18725 174d 00       		.byte	0
 18726 174e 00       		.byte	0
 18727 174f 00       		.byte	0
 18728 1750 00       		.byte	0
 18729 1751 00       		.byte	0
 18730 1752 00       		.byte	0
 18731 1753 00       		.byte	0
 18732 1754 00       		.byte	0
 18733 1755 00       		.byte	0
 18734 1756 00       		.byte	0
 18735 1757 00       		.byte	0
 18736 1758 00       		.byte	0
 18737 1759 00       		.byte	0
 18738 175a 00       		.byte	0
 18739 175b 00       		.byte	0
 18740 175c 00       		.byte	0
 18741 175d 00       		.byte	0
 18742 175e 00       		.byte	0
 18743 175f 00       		.byte	0
 18744 1760 00       		.byte	0
ARM GAS  C:\Users\milek\AppData\Local\Temp\ccMSPWBt.s 			page 366


 18745 1761 00       		.byte	0
 18746 1762 00       		.byte	0
 18747 1763 00       		.byte	0
 18748 1764 00       		.byte	0
 18749 1765 00       		.byte	0
 18750 1766 00       		.byte	0
 18751 1767 00       		.byte	0
 18752 1768 00       		.byte	0
 18753 1769 00       		.byte	0
 18754 176a 07       		.byte	7
 18755 176b F8       		.byte	-8
 18756 176c 00       		.byte	0
 18757 176d 0F       		.byte	15
 18758 176e F8       		.byte	-8
 18759 176f 00       		.byte	0
 18760 1770 18       		.byte	24
 18761 1771 18       		.byte	24
 18762 1772 00       		.byte	0
 18763 1773 18       		.byte	24
 18764 1774 18       		.byte	24
 18765 1775 00       		.byte	0
 18766 1776 1F       		.byte	31
 18767 1777 80       		.byte	-128
 18768 1778 00       		.byte	0
 18769 1779 0F       		.byte	15
 18770 177a F0       		.byte	-16
 18771 177b 00       		.byte	0
 18772 177c 00       		.byte	0
 18773 177d F8       		.byte	-8
 18774 177e 00       		.byte	0
 18775 177f 18       		.byte	24
 18776 1780 18       		.byte	24
 18777 1781 00       		.byte	0
 18778 1782 18       		.byte	24
 18779 1783 38       		.byte	56
 18780 1784 00       		.byte	0
 18781 1785 1F       		.byte	31
 18782 1786 F0       		.byte	-16
 18783 1787 00       		.byte	0
 18784 1788 1F       		.byte	31
 18785 1789 E0       		.byte	-32
 18786 178a 00       		.byte	0
 18787 178b 00       		.byte	0
 18788 178c 00       		.byte	0
 18789 178d 00       		.byte	0
 18790 178e 00       		.byte	0
 18791 178f 00       		.byte	0
 18792 1790 00       		.byte	0
 18793 1791 00       		.byte	0
 18794 1792 00       		.byte	0
 18795 1793 00       		.byte	0
 18796 1794 00       		.byte	0
 18797 1795 00       		.byte	0
 18798 1796 00       		.byte	0
 18799 1797 00       		.byte	0
 18800 1798 00       		.byte	0
 18801 1799 00       		.byte	0
ARM GAS  C:\Users\milek\AppData\Local\Temp\ccMSPWBt.s 			page 367


 18802 179a 00       		.byte	0
 18803 179b 00       		.byte	0
 18804 179c 00       		.byte	0
 18805 179d 00       		.byte	0
 18806 179e 00       		.byte	0
 18807 179f 00       		.byte	0
 18808 17a0 00       		.byte	0
 18809 17a1 00       		.byte	0
 18810 17a2 00       		.byte	0
 18811 17a3 00       		.byte	0
 18812 17a4 00       		.byte	0
 18813 17a5 00       		.byte	0
 18814 17a6 0C       		.byte	12
 18815 17a7 00       		.byte	0
 18816 17a8 00       		.byte	0
 18817 17a9 0C       		.byte	12
 18818 17aa 00       		.byte	0
 18819 17ab 00       		.byte	0
 18820 17ac 0C       		.byte	12
 18821 17ad 00       		.byte	0
 18822 17ae 00       		.byte	0
 18823 17af 0C       		.byte	12
 18824 17b0 00       		.byte	0
 18825 17b1 00       		.byte	0
 18826 17b2 3F       		.byte	63
 18827 17b3 F0       		.byte	-16
 18828 17b4 00       		.byte	0
 18829 17b5 3F       		.byte	63
 18830 17b6 F0       		.byte	-16
 18831 17b7 00       		.byte	0
 18832 17b8 0C       		.byte	12
 18833 17b9 00       		.byte	0
 18834 17ba 00       		.byte	0
 18835 17bb 0C       		.byte	12
 18836 17bc 00       		.byte	0
 18837 17bd 00       		.byte	0
 18838 17be 0C       		.byte	12
 18839 17bf 00       		.byte	0
 18840 17c0 00       		.byte	0
 18841 17c1 0C       		.byte	12
 18842 17c2 00       		.byte	0
 18843 17c3 00       		.byte	0
 18844 17c4 0C       		.byte	12
 18845 17c5 00       		.byte	0
 18846 17c6 00       		.byte	0
 18847 17c7 0C       		.byte	12
 18848 17c8 00       		.byte	0
 18849 17c9 00       		.byte	0
 18850 17ca 0C       		.byte	12
 18851 17cb 1C       		.byte	28
 18852 17cc 00       		.byte	0
 18853 17cd 07       		.byte	7
 18854 17ce FC       		.byte	-4
 18855 17cf 00       		.byte	0
 18856 17d0 03       		.byte	3
 18857 17d1 F0       		.byte	-16
 18858 17d2 00       		.byte	0
ARM GAS  C:\Users\milek\AppData\Local\Temp\ccMSPWBt.s 			page 368


 18859 17d3 00       		.byte	0
 18860 17d4 00       		.byte	0
 18861 17d5 00       		.byte	0
 18862 17d6 00       		.byte	0
 18863 17d7 00       		.byte	0
 18864 17d8 00       		.byte	0
 18865 17d9 00       		.byte	0
 18866 17da 00       		.byte	0
 18867 17db 00       		.byte	0
 18868 17dc 00       		.byte	0
 18869 17dd 00       		.byte	0
 18870 17de 00       		.byte	0
 18871 17df 00       		.byte	0
 18872 17e0 00       		.byte	0
 18873 17e1 00       		.byte	0
 18874 17e2 00       		.byte	0
 18875 17e3 00       		.byte	0
 18876 17e4 00       		.byte	0
 18877 17e5 00       		.byte	0
 18878 17e6 00       		.byte	0
 18879 17e7 00       		.byte	0
 18880 17e8 00       		.byte	0
 18881 17e9 00       		.byte	0
 18882 17ea 00       		.byte	0
 18883 17eb 00       		.byte	0
 18884 17ec 00       		.byte	0
 18885 17ed 00       		.byte	0
 18886 17ee 00       		.byte	0
 18887 17ef 00       		.byte	0
 18888 17f0 00       		.byte	0
 18889 17f1 00       		.byte	0
 18890 17f2 00       		.byte	0
 18891 17f3 00       		.byte	0
 18892 17f4 00       		.byte	0
 18893 17f5 00       		.byte	0
 18894 17f6 00       		.byte	0
 18895 17f7 00       		.byte	0
 18896 17f8 00       		.byte	0
 18897 17f9 00       		.byte	0
 18898 17fa 78       		.byte	120
 18899 17fb 78       		.byte	120
 18900 17fc 00       		.byte	0
 18901 17fd 78       		.byte	120
 18902 17fe 78       		.byte	120
 18903 17ff 00       		.byte	0
 18904 1800 18       		.byte	24
 18905 1801 18       		.byte	24
 18906 1802 00       		.byte	0
 18907 1803 18       		.byte	24
 18908 1804 18       		.byte	24
 18909 1805 00       		.byte	0
 18910 1806 18       		.byte	24
 18911 1807 18       		.byte	24
 18912 1808 00       		.byte	0
 18913 1809 18       		.byte	24
 18914 180a 18       		.byte	24
 18915 180b 00       		.byte	0
ARM GAS  C:\Users\milek\AppData\Local\Temp\ccMSPWBt.s 			page 369


 18916 180c 18       		.byte	24
 18917 180d 18       		.byte	24
 18918 180e 00       		.byte	0
 18919 180f 18       		.byte	24
 18920 1810 18       		.byte	24
 18921 1811 00       		.byte	0
 18922 1812 18       		.byte	24
 18923 1813 38       		.byte	56
 18924 1814 00       		.byte	0
 18925 1815 0F       		.byte	15
 18926 1816 FE       		.byte	-2
 18927 1817 00       		.byte	0
 18928 1818 07       		.byte	7
 18929 1819 DE       		.byte	-34
 18930 181a 00       		.byte	0
 18931 181b 00       		.byte	0
 18932 181c 00       		.byte	0
 18933 181d 00       		.byte	0
 18934 181e 00       		.byte	0
 18935 181f 00       		.byte	0
 18936 1820 00       		.byte	0
 18937 1821 00       		.byte	0
 18938 1822 00       		.byte	0
 18939 1823 00       		.byte	0
 18940 1824 00       		.byte	0
 18941 1825 00       		.byte	0
 18942 1826 00       		.byte	0
 18943 1827 00       		.byte	0
 18944 1828 00       		.byte	0
 18945 1829 00       		.byte	0
 18946 182a 00       		.byte	0
 18947 182b 00       		.byte	0
 18948 182c 00       		.byte	0
 18949 182d 00       		.byte	0
 18950 182e 00       		.byte	0
 18951 182f 00       		.byte	0
 18952 1830 00       		.byte	0
 18953 1831 00       		.byte	0
 18954 1832 00       		.byte	0
 18955 1833 00       		.byte	0
 18956 1834 00       		.byte	0
 18957 1835 00       		.byte	0
 18958 1836 00       		.byte	0
 18959 1837 00       		.byte	0
 18960 1838 00       		.byte	0
 18961 1839 00       		.byte	0
 18962 183a 00       		.byte	0
 18963 183b 00       		.byte	0
 18964 183c 00       		.byte	0
 18965 183d 00       		.byte	0
 18966 183e 00       		.byte	0
 18967 183f 00       		.byte	0
 18968 1840 00       		.byte	0
 18969 1841 00       		.byte	0
 18970 1842 7C       		.byte	124
 18971 1843 3E       		.byte	62
 18972 1844 00       		.byte	0
ARM GAS  C:\Users\milek\AppData\Local\Temp\ccMSPWBt.s 			page 370


 18973 1845 7C       		.byte	124
 18974 1846 3E       		.byte	62
 18975 1847 00       		.byte	0
 18976 1848 18       		.byte	24
 18977 1849 18       		.byte	24
 18978 184a 00       		.byte	0
 18979 184b 18       		.byte	24
 18980 184c 18       		.byte	24
 18981 184d 00       		.byte	0
 18982 184e 0C       		.byte	12
 18983 184f 30       		.byte	48
 18984 1850 00       		.byte	0
 18985 1851 0C       		.byte	12
 18986 1852 30       		.byte	48
 18987 1853 00       		.byte	0
 18988 1854 06       		.byte	6
 18989 1855 60       		.byte	96
 18990 1856 00       		.byte	0
 18991 1857 06       		.byte	6
 18992 1858 60       		.byte	96
 18993 1859 00       		.byte	0
 18994 185a 07       		.byte	7
 18995 185b E0       		.byte	-32
 18996 185c 00       		.byte	0
 18997 185d 03       		.byte	3
 18998 185e C0       		.byte	-64
 18999 185f 00       		.byte	0
 19000 1860 03       		.byte	3
 19001 1861 C0       		.byte	-64
 19002 1862 00       		.byte	0
 19003 1863 00       		.byte	0
 19004 1864 00       		.byte	0
 19005 1865 00       		.byte	0
 19006 1866 00       		.byte	0
 19007 1867 00       		.byte	0
 19008 1868 00       		.byte	0
 19009 1869 00       		.byte	0
 19010 186a 00       		.byte	0
 19011 186b 00       		.byte	0
 19012 186c 00       		.byte	0
 19013 186d 00       		.byte	0
 19014 186e 00       		.byte	0
 19015 186f 00       		.byte	0
 19016 1870 00       		.byte	0
 19017 1871 00       		.byte	0
 19018 1872 00       		.byte	0
 19019 1873 00       		.byte	0
 19020 1874 00       		.byte	0
 19021 1875 00       		.byte	0
 19022 1876 00       		.byte	0
 19023 1877 00       		.byte	0
 19024 1878 00       		.byte	0
 19025 1879 00       		.byte	0
 19026 187a 00       		.byte	0
 19027 187b 00       		.byte	0
 19028 187c 00       		.byte	0
 19029 187d 00       		.byte	0
ARM GAS  C:\Users\milek\AppData\Local\Temp\ccMSPWBt.s 			page 371


 19030 187e 00       		.byte	0
 19031 187f 00       		.byte	0
 19032 1880 00       		.byte	0
 19033 1881 00       		.byte	0
 19034 1882 00       		.byte	0
 19035 1883 00       		.byte	0
 19036 1884 00       		.byte	0
 19037 1885 00       		.byte	0
 19038 1886 00       		.byte	0
 19039 1887 00       		.byte	0
 19040 1888 00       		.byte	0
 19041 1889 00       		.byte	0
 19042 188a 78       		.byte	120
 19043 188b 3C       		.byte	60
 19044 188c 00       		.byte	0
 19045 188d 78       		.byte	120
 19046 188e 3C       		.byte	60
 19047 188f 00       		.byte	0
 19048 1890 31       		.byte	49
 19049 1891 18       		.byte	24
 19050 1892 00       		.byte	0
 19051 1893 33       		.byte	51
 19052 1894 98       		.byte	-104
 19053 1895 00       		.byte	0
 19054 1896 33       		.byte	51
 19055 1897 98       		.byte	-104
 19056 1898 00       		.byte	0
 19057 1899 1A       		.byte	26
 19058 189a B0       		.byte	-80
 19059 189b 00       		.byte	0
 19060 189c 1E       		.byte	30
 19061 189d F0       		.byte	-16
 19062 189e 00       		.byte	0
 19063 189f 1E       		.byte	30
 19064 18a0 F0       		.byte	-16
 19065 18a1 00       		.byte	0
 19066 18a2 1C       		.byte	28
 19067 18a3 60       		.byte	96
 19068 18a4 00       		.byte	0
 19069 18a5 0C       		.byte	12
 19070 18a6 60       		.byte	96
 19071 18a7 00       		.byte	0
 19072 18a8 0C       		.byte	12
 19073 18a9 60       		.byte	96
 19074 18aa 00       		.byte	0
 19075 18ab 00       		.byte	0
 19076 18ac 00       		.byte	0
 19077 18ad 00       		.byte	0
 19078 18ae 00       		.byte	0
 19079 18af 00       		.byte	0
 19080 18b0 00       		.byte	0
 19081 18b1 00       		.byte	0
 19082 18b2 00       		.byte	0
 19083 18b3 00       		.byte	0
 19084 18b4 00       		.byte	0
 19085 18b5 00       		.byte	0
 19086 18b6 00       		.byte	0
ARM GAS  C:\Users\milek\AppData\Local\Temp\ccMSPWBt.s 			page 372


 19087 18b7 00       		.byte	0
 19088 18b8 00       		.byte	0
 19089 18b9 00       		.byte	0
 19090 18ba 00       		.byte	0
 19091 18bb 00       		.byte	0
 19092 18bc 00       		.byte	0
 19093 18bd 00       		.byte	0
 19094 18be 00       		.byte	0
 19095 18bf 00       		.byte	0
 19096 18c0 00       		.byte	0
 19097 18c1 00       		.byte	0
 19098 18c2 00       		.byte	0
 19099 18c3 00       		.byte	0
 19100 18c4 00       		.byte	0
 19101 18c5 00       		.byte	0
 19102 18c6 00       		.byte	0
 19103 18c7 00       		.byte	0
 19104 18c8 00       		.byte	0
 19105 18c9 00       		.byte	0
 19106 18ca 00       		.byte	0
 19107 18cb 00       		.byte	0
 19108 18cc 00       		.byte	0
 19109 18cd 00       		.byte	0
 19110 18ce 00       		.byte	0
 19111 18cf 00       		.byte	0
 19112 18d0 00       		.byte	0
 19113 18d1 00       		.byte	0
 19114 18d2 3E       		.byte	62
 19115 18d3 7C       		.byte	124
 19116 18d4 00       		.byte	0
 19117 18d5 3E       		.byte	62
 19118 18d6 7C       		.byte	124
 19119 18d7 00       		.byte	0
 19120 18d8 0C       		.byte	12
 19121 18d9 30       		.byte	48
 19122 18da 00       		.byte	0
 19123 18db 06       		.byte	6
 19124 18dc 60       		.byte	96
 19125 18dd 00       		.byte	0
 19126 18de 03       		.byte	3
 19127 18df C0       		.byte	-64
 19128 18e0 00       		.byte	0
 19129 18e1 01       		.byte	1
 19130 18e2 80       		.byte	-128
 19131 18e3 00       		.byte	0
 19132 18e4 03       		.byte	3
 19133 18e5 C0       		.byte	-64
 19134 18e6 00       		.byte	0
 19135 18e7 06       		.byte	6
 19136 18e8 60       		.byte	96
 19137 18e9 00       		.byte	0
 19138 18ea 0C       		.byte	12
 19139 18eb 30       		.byte	48
 19140 18ec 00       		.byte	0
 19141 18ed 3E       		.byte	62
 19142 18ee 7C       		.byte	124
 19143 18ef 00       		.byte	0
ARM GAS  C:\Users\milek\AppData\Local\Temp\ccMSPWBt.s 			page 373


 19144 18f0 3E       		.byte	62
 19145 18f1 7C       		.byte	124
 19146 18f2 00       		.byte	0
 19147 18f3 00       		.byte	0
 19148 18f4 00       		.byte	0
 19149 18f5 00       		.byte	0
 19150 18f6 00       		.byte	0
 19151 18f7 00       		.byte	0
 19152 18f8 00       		.byte	0
 19153 18f9 00       		.byte	0
 19154 18fa 00       		.byte	0
 19155 18fb 00       		.byte	0
 19156 18fc 00       		.byte	0
 19157 18fd 00       		.byte	0
 19158 18fe 00       		.byte	0
 19159 18ff 00       		.byte	0
 19160 1900 00       		.byte	0
 19161 1901 00       		.byte	0
 19162 1902 00       		.byte	0
 19163 1903 00       		.byte	0
 19164 1904 00       		.byte	0
 19165 1905 00       		.byte	0
 19166 1906 00       		.byte	0
 19167 1907 00       		.byte	0
 19168 1908 00       		.byte	0
 19169 1909 00       		.byte	0
 19170 190a 00       		.byte	0
 19171 190b 00       		.byte	0
 19172 190c 00       		.byte	0
 19173 190d 00       		.byte	0
 19174 190e 00       		.byte	0
 19175 190f 00       		.byte	0
 19176 1910 00       		.byte	0
 19177 1911 00       		.byte	0
 19178 1912 00       		.byte	0
 19179 1913 00       		.byte	0
 19180 1914 00       		.byte	0
 19181 1915 00       		.byte	0
 19182 1916 00       		.byte	0
 19183 1917 00       		.byte	0
 19184 1918 00       		.byte	0
 19185 1919 00       		.byte	0
 19186 191a 7E       		.byte	126
 19187 191b 1F       		.byte	31
 19188 191c 00       		.byte	0
 19189 191d 7E       		.byte	126
 19190 191e 1F       		.byte	31
 19191 191f 00       		.byte	0
 19192 1920 18       		.byte	24
 19193 1921 0C       		.byte	12
 19194 1922 00       		.byte	0
 19195 1923 0C       		.byte	12
 19196 1924 18       		.byte	24
 19197 1925 00       		.byte	0
 19198 1926 0C       		.byte	12
 19199 1927 18       		.byte	24
 19200 1928 00       		.byte	0
ARM GAS  C:\Users\milek\AppData\Local\Temp\ccMSPWBt.s 			page 374


 19201 1929 06       		.byte	6
 19202 192a 30       		.byte	48
 19203 192b 00       		.byte	0
 19204 192c 06       		.byte	6
 19205 192d 30       		.byte	48
 19206 192e 00       		.byte	0
 19207 192f 03       		.byte	3
 19208 1930 60       		.byte	96
 19209 1931 00       		.byte	0
 19210 1932 03       		.byte	3
 19211 1933 E0       		.byte	-32
 19212 1934 00       		.byte	0
 19213 1935 01       		.byte	1
 19214 1936 C0       		.byte	-64
 19215 1937 00       		.byte	0
 19216 1938 00       		.byte	0
 19217 1939 C0       		.byte	-64
 19218 193a 00       		.byte	0
 19219 193b 01       		.byte	1
 19220 193c 80       		.byte	-128
 19221 193d 00       		.byte	0
 19222 193e 01       		.byte	1
 19223 193f 80       		.byte	-128
 19224 1940 00       		.byte	0
 19225 1941 03       		.byte	3
 19226 1942 00       		.byte	0
 19227 1943 00       		.byte	0
 19228 1944 3F       		.byte	63
 19229 1945 C0       		.byte	-64
 19230 1946 00       		.byte	0
 19231 1947 3F       		.byte	63
 19232 1948 C0       		.byte	-64
 19233 1949 00       		.byte	0
 19234 194a 00       		.byte	0
 19235 194b 00       		.byte	0
 19236 194c 00       		.byte	0
 19237 194d 00       		.byte	0
 19238 194e 00       		.byte	0
 19239 194f 00       		.byte	0
 19240 1950 00       		.byte	0
 19241 1951 00       		.byte	0
 19242 1952 00       		.byte	0
 19243 1953 00       		.byte	0
 19244 1954 00       		.byte	0
 19245 1955 00       		.byte	0
 19246 1956 00       		.byte	0
 19247 1957 00       		.byte	0
 19248 1958 00       		.byte	0
 19249 1959 00       		.byte	0
 19250 195a 00       		.byte	0
 19251 195b 00       		.byte	0
 19252 195c 00       		.byte	0
 19253 195d 00       		.byte	0
 19254 195e 00       		.byte	0
 19255 195f 00       		.byte	0
 19256 1960 00       		.byte	0
 19257 1961 00       		.byte	0
ARM GAS  C:\Users\milek\AppData\Local\Temp\ccMSPWBt.s 			page 375


 19258 1962 1F       		.byte	31
 19259 1963 F8       		.byte	-8
 19260 1964 00       		.byte	0
 19261 1965 1F       		.byte	31
 19262 1966 F8       		.byte	-8
 19263 1967 00       		.byte	0
 19264 1968 18       		.byte	24
 19265 1969 30       		.byte	48
 19266 196a 00       		.byte	0
 19267 196b 18       		.byte	24
 19268 196c 60       		.byte	96
 19269 196d 00       		.byte	0
 19270 196e 00       		.byte	0
 19271 196f C0       		.byte	-64
 19272 1970 00       		.byte	0
 19273 1971 01       		.byte	1
 19274 1972 80       		.byte	-128
 19275 1973 00       		.byte	0
 19276 1974 03       		.byte	3
 19277 1975 00       		.byte	0
 19278 1976 00       		.byte	0
 19279 1977 06       		.byte	6
 19280 1978 18       		.byte	24
 19281 1979 00       		.byte	0
 19282 197a 0C       		.byte	12
 19283 197b 18       		.byte	24
 19284 197c 00       		.byte	0
 19285 197d 1F       		.byte	31
 19286 197e F8       		.byte	-8
 19287 197f 00       		.byte	0
 19288 1980 1F       		.byte	31
 19289 1981 F8       		.byte	-8
 19290 1982 00       		.byte	0
 19291 1983 00       		.byte	0
 19292 1984 00       		.byte	0
 19293 1985 00       		.byte	0
 19294 1986 00       		.byte	0
 19295 1987 00       		.byte	0
 19296 1988 00       		.byte	0
 19297 1989 00       		.byte	0
 19298 198a 00       		.byte	0
 19299 198b 00       		.byte	0
 19300 198c 00       		.byte	0
 19301 198d 00       		.byte	0
 19302 198e 00       		.byte	0
 19303 198f 00       		.byte	0
 19304 1990 00       		.byte	0
 19305 1991 00       		.byte	0
 19306 1992 00       		.byte	0
 19307 1993 00       		.byte	0
 19308 1994 00       		.byte	0
 19309 1995 00       		.byte	0
 19310 1996 00       		.byte	0
 19311 1997 00       		.byte	0
 19312 1998 00       		.byte	0
 19313 1999 00       		.byte	0
 19314 199a 00       		.byte	0
ARM GAS  C:\Users\milek\AppData\Local\Temp\ccMSPWBt.s 			page 376


 19315 199b 00       		.byte	0
 19316 199c 00       		.byte	0
 19317 199d 00       		.byte	0
 19318 199e 00       		.byte	0
 19319 199f E0       		.byte	-32
 19320 19a0 00       		.byte	0
 19321 19a1 01       		.byte	1
 19322 19a2 E0       		.byte	-32
 19323 19a3 00       		.byte	0
 19324 19a4 01       		.byte	1
 19325 19a5 80       		.byte	-128
 19326 19a6 00       		.byte	0
 19327 19a7 01       		.byte	1
 19328 19a8 80       		.byte	-128
 19329 19a9 00       		.byte	0
 19330 19aa 01       		.byte	1
 19331 19ab 80       		.byte	-128
 19332 19ac 00       		.byte	0
 19333 19ad 01       		.byte	1
 19334 19ae 80       		.byte	-128
 19335 19af 00       		.byte	0
 19336 19b0 01       		.byte	1
 19337 19b1 80       		.byte	-128
 19338 19b2 00       		.byte	0
 19339 19b3 01       		.byte	1
 19340 19b4 80       		.byte	-128
 19341 19b5 00       		.byte	0
 19342 19b6 03       		.byte	3
 19343 19b7 80       		.byte	-128
 19344 19b8 00       		.byte	0
 19345 19b9 07       		.byte	7
 19346 19ba 00       		.byte	0
 19347 19bb 00       		.byte	0
 19348 19bc 03       		.byte	3
 19349 19bd 80       		.byte	-128
 19350 19be 00       		.byte	0
 19351 19bf 01       		.byte	1
 19352 19c0 80       		.byte	-128
 19353 19c1 00       		.byte	0
 19354 19c2 01       		.byte	1
 19355 19c3 80       		.byte	-128
 19356 19c4 00       		.byte	0
 19357 19c5 01       		.byte	1
 19358 19c6 80       		.byte	-128
 19359 19c7 00       		.byte	0
 19360 19c8 01       		.byte	1
 19361 19c9 80       		.byte	-128
 19362 19ca 00       		.byte	0
 19363 19cb 01       		.byte	1
 19364 19cc 80       		.byte	-128
 19365 19cd 00       		.byte	0
 19366 19ce 01       		.byte	1
 19367 19cf E0       		.byte	-32
 19368 19d0 00       		.byte	0
 19369 19d1 00       		.byte	0
 19370 19d2 E0       		.byte	-32
 19371 19d3 00       		.byte	0
ARM GAS  C:\Users\milek\AppData\Local\Temp\ccMSPWBt.s 			page 377


 19372 19d4 00       		.byte	0
 19373 19d5 00       		.byte	0
 19374 19d6 00       		.byte	0
 19375 19d7 00       		.byte	0
 19376 19d8 00       		.byte	0
 19377 19d9 00       		.byte	0
 19378 19da 00       		.byte	0
 19379 19db 00       		.byte	0
 19380 19dc 00       		.byte	0
 19381 19dd 00       		.byte	0
 19382 19de 00       		.byte	0
 19383 19df 00       		.byte	0
 19384 19e0 00       		.byte	0
 19385 19e1 00       		.byte	0
 19386 19e2 00       		.byte	0
 19387 19e3 00       		.byte	0
 19388 19e4 00       		.byte	0
 19389 19e5 00       		.byte	0
 19390 19e6 01       		.byte	1
 19391 19e7 80       		.byte	-128
 19392 19e8 00       		.byte	0
 19393 19e9 01       		.byte	1
 19394 19ea 80       		.byte	-128
 19395 19eb 00       		.byte	0
 19396 19ec 01       		.byte	1
 19397 19ed 80       		.byte	-128
 19398 19ee 00       		.byte	0
 19399 19ef 01       		.byte	1
 19400 19f0 80       		.byte	-128
 19401 19f1 00       		.byte	0
 19402 19f2 01       		.byte	1
 19403 19f3 80       		.byte	-128
 19404 19f4 00       		.byte	0
 19405 19f5 01       		.byte	1
 19406 19f6 80       		.byte	-128
 19407 19f7 00       		.byte	0
 19408 19f8 01       		.byte	1
 19409 19f9 80       		.byte	-128
 19410 19fa 00       		.byte	0
 19411 19fb 01       		.byte	1
 19412 19fc 80       		.byte	-128
 19413 19fd 00       		.byte	0
 19414 19fe 01       		.byte	1
 19415 19ff 80       		.byte	-128
 19416 1a00 00       		.byte	0
 19417 1a01 01       		.byte	1
 19418 1a02 80       		.byte	-128
 19419 1a03 00       		.byte	0
 19420 1a04 01       		.byte	1
 19421 1a05 80       		.byte	-128
 19422 1a06 00       		.byte	0
 19423 1a07 01       		.byte	1
 19424 1a08 80       		.byte	-128
 19425 1a09 00       		.byte	0
 19426 1a0a 01       		.byte	1
 19427 1a0b 80       		.byte	-128
 19428 1a0c 00       		.byte	0
ARM GAS  C:\Users\milek\AppData\Local\Temp\ccMSPWBt.s 			page 378


 19429 1a0d 01       		.byte	1
 19430 1a0e 80       		.byte	-128
 19431 1a0f 00       		.byte	0
 19432 1a10 01       		.byte	1
 19433 1a11 80       		.byte	-128
 19434 1a12 00       		.byte	0
 19435 1a13 01       		.byte	1
 19436 1a14 80       		.byte	-128
 19437 1a15 00       		.byte	0
 19438 1a16 01       		.byte	1
 19439 1a17 80       		.byte	-128
 19440 1a18 00       		.byte	0
 19441 1a19 01       		.byte	1
 19442 1a1a 80       		.byte	-128
 19443 1a1b 00       		.byte	0
 19444 1a1c 00       		.byte	0
 19445 1a1d 00       		.byte	0
 19446 1a1e 00       		.byte	0
 19447 1a1f 00       		.byte	0
 19448 1a20 00       		.byte	0
 19449 1a21 00       		.byte	0
 19450 1a22 00       		.byte	0
 19451 1a23 00       		.byte	0
 19452 1a24 00       		.byte	0
 19453 1a25 00       		.byte	0
 19454 1a26 00       		.byte	0
 19455 1a27 00       		.byte	0
 19456 1a28 00       		.byte	0
 19457 1a29 00       		.byte	0
 19458 1a2a 00       		.byte	0
 19459 1a2b 00       		.byte	0
 19460 1a2c 00       		.byte	0
 19461 1a2d 00       		.byte	0
 19462 1a2e 07       		.byte	7
 19463 1a2f 00       		.byte	0
 19464 1a30 00       		.byte	0
 19465 1a31 07       		.byte	7
 19466 1a32 80       		.byte	-128
 19467 1a33 00       		.byte	0
 19468 1a34 01       		.byte	1
 19469 1a35 80       		.byte	-128
 19470 1a36 00       		.byte	0
 19471 1a37 01       		.byte	1
 19472 1a38 80       		.byte	-128
 19473 1a39 00       		.byte	0
 19474 1a3a 01       		.byte	1
 19475 1a3b 80       		.byte	-128
 19476 1a3c 00       		.byte	0
 19477 1a3d 01       		.byte	1
 19478 1a3e 80       		.byte	-128
 19479 1a3f 00       		.byte	0
 19480 1a40 01       		.byte	1
 19481 1a41 80       		.byte	-128
 19482 1a42 00       		.byte	0
 19483 1a43 01       		.byte	1
 19484 1a44 80       		.byte	-128
 19485 1a45 00       		.byte	0
ARM GAS  C:\Users\milek\AppData\Local\Temp\ccMSPWBt.s 			page 379


 19486 1a46 01       		.byte	1
 19487 1a47 C0       		.byte	-64
 19488 1a48 00       		.byte	0
 19489 1a49 00       		.byte	0
 19490 1a4a E0       		.byte	-32
 19491 1a4b 00       		.byte	0
 19492 1a4c 01       		.byte	1
 19493 1a4d C0       		.byte	-64
 19494 1a4e 00       		.byte	0
 19495 1a4f 01       		.byte	1
 19496 1a50 80       		.byte	-128
 19497 1a51 00       		.byte	0
 19498 1a52 01       		.byte	1
 19499 1a53 80       		.byte	-128
 19500 1a54 00       		.byte	0
 19501 1a55 01       		.byte	1
 19502 1a56 80       		.byte	-128
 19503 1a57 00       		.byte	0
 19504 1a58 01       		.byte	1
 19505 1a59 80       		.byte	-128
 19506 1a5a 00       		.byte	0
 19507 1a5b 01       		.byte	1
 19508 1a5c 80       		.byte	-128
 19509 1a5d 00       		.byte	0
 19510 1a5e 07       		.byte	7
 19511 1a5f 80       		.byte	-128
 19512 1a60 00       		.byte	0
 19513 1a61 07       		.byte	7
 19514 1a62 00       		.byte	0
 19515 1a63 00       		.byte	0
 19516 1a64 00       		.byte	0
 19517 1a65 00       		.byte	0
 19518 1a66 00       		.byte	0
 19519 1a67 00       		.byte	0
 19520 1a68 00       		.byte	0
 19521 1a69 00       		.byte	0
 19522 1a6a 00       		.byte	0
 19523 1a6b 00       		.byte	0
 19524 1a6c 00       		.byte	0
 19525 1a6d 00       		.byte	0
 19526 1a6e 00       		.byte	0
 19527 1a6f 00       		.byte	0
 19528 1a70 00       		.byte	0
 19529 1a71 00       		.byte	0
 19530 1a72 00       		.byte	0
 19531 1a73 00       		.byte	0
 19532 1a74 00       		.byte	0
 19533 1a75 00       		.byte	0
 19534 1a76 00       		.byte	0
 19535 1a77 00       		.byte	0
 19536 1a78 00       		.byte	0
 19537 1a79 00       		.byte	0
 19538 1a7a 00       		.byte	0
 19539 1a7b 00       		.byte	0
 19540 1a7c 00       		.byte	0
 19541 1a7d 00       		.byte	0
 19542 1a7e 00       		.byte	0
ARM GAS  C:\Users\milek\AppData\Local\Temp\ccMSPWBt.s 			page 380


 19543 1a7f 00       		.byte	0
 19544 1a80 00       		.byte	0
 19545 1a81 00       		.byte	0
 19546 1a82 00       		.byte	0
 19547 1a83 00       		.byte	0
 19548 1a84 00       		.byte	0
 19549 1a85 00       		.byte	0
 19550 1a86 00       		.byte	0
 19551 1a87 00       		.byte	0
 19552 1a88 0E       		.byte	14
 19553 1a89 00       		.byte	0
 19554 1a8a 00       		.byte	0
 19555 1a8b 1F       		.byte	31
 19556 1a8c 18       		.byte	24
 19557 1a8d 00       		.byte	0
 19558 1a8e 3B       		.byte	59
 19559 1a8f B8       		.byte	-72
 19560 1a90 00       		.byte	0
 19561 1a91 31       		.byte	49
 19562 1a92 F0       		.byte	-16
 19563 1a93 00       		.byte	0
 19564 1a94 00       		.byte	0
 19565 1a95 E0       		.byte	-32
 19566 1a96 00       		.byte	0
 19567 1a97 00       		.byte	0
 19568 1a98 00       		.byte	0
 19569 1a99 00       		.byte	0
 19570 1a9a 00       		.byte	0
 19571 1a9b 00       		.byte	0
 19572 1a9c 00       		.byte	0
 19573 1a9d 00       		.byte	0
 19574 1a9e 00       		.byte	0
 19575 1a9f 00       		.byte	0
 19576 1aa0 00       		.byte	0
 19577 1aa1 00       		.byte	0
 19578 1aa2 00       		.byte	0
 19579 1aa3 00       		.byte	0
 19580 1aa4 00       		.byte	0
 19581 1aa5 00       		.byte	0
 19582 1aa6 00       		.byte	0
 19583 1aa7 00       		.byte	0
 19584 1aa8 00       		.byte	0
 19585 1aa9 00       		.byte	0
 19586 1aaa 00       		.byte	0
 19587 1aab 00       		.byte	0
 19588 1aac 00       		.byte	0
 19589 1aad 00       		.byte	0
 19590 1aae 00       		.byte	0
 19591 1aaf 00       		.byte	0
 19592 1ab0 00       		.byte	0
 19593 1ab1 00       		.byte	0
 19594 1ab2 00       		.byte	0
 19595 1ab3 00       		.byte	0
 19596 1ab4 00       		.byte	0
 19597 1ab5 00       		.byte	0
 19598 1ab6 00       		.byte	0
 19599 1ab7 00       		.byte	0
ARM GAS  C:\Users\milek\AppData\Local\Temp\ccMSPWBt.s 			page 381


 19600              		.section	.rodata.Font8_Table,"a",%progbits
 19601              		.align	2
 19604              	Font8_Table:
 19605 0000 00       		.byte	0
 19606 0001 00       		.byte	0
 19607 0002 00       		.byte	0
 19608 0003 00       		.byte	0
 19609 0004 00       		.byte	0
 19610 0005 00       		.byte	0
 19611 0006 00       		.byte	0
 19612 0007 00       		.byte	0
 19613 0008 20       		.byte	32
 19614 0009 20       		.byte	32
 19615 000a 20       		.byte	32
 19616 000b 20       		.byte	32
 19617 000c 00       		.byte	0
 19618 000d 20       		.byte	32
 19619 000e 00       		.byte	0
 19620 000f 00       		.byte	0
 19621 0010 50       		.byte	80
 19622 0011 50       		.byte	80
 19623 0012 00       		.byte	0
 19624 0013 00       		.byte	0
 19625 0014 00       		.byte	0
 19626 0015 00       		.byte	0
 19627 0016 00       		.byte	0
 19628 0017 00       		.byte	0
 19629 0018 28       		.byte	40
 19630 0019 50       		.byte	80
 19631 001a F8       		.byte	-8
 19632 001b 50       		.byte	80
 19633 001c F8       		.byte	-8
 19634 001d 50       		.byte	80
 19635 001e A0       		.byte	-96
 19636 001f 00       		.byte	0
 19637 0020 20       		.byte	32
 19638 0021 30       		.byte	48
 19639 0022 60       		.byte	96
 19640 0023 30       		.byte	48
 19641 0024 10       		.byte	16
 19642 0025 60       		.byte	96
 19643 0026 20       		.byte	32
 19644 0027 00       		.byte	0
 19645 0028 20       		.byte	32
 19646 0029 20       		.byte	32
 19647 002a 18       		.byte	24
 19648 002b 60       		.byte	96
 19649 002c 10       		.byte	16
 19650 002d 10       		.byte	16
 19651 002e 00       		.byte	0
 19652 002f 00       		.byte	0
 19653 0030 00       		.byte	0
 19654 0031 38       		.byte	56
 19655 0032 20       		.byte	32
 19656 0033 60       		.byte	96
 19657 0034 50       		.byte	80
 19658 0035 78       		.byte	120
ARM GAS  C:\Users\milek\AppData\Local\Temp\ccMSPWBt.s 			page 382


 19659 0036 00       		.byte	0
 19660 0037 00       		.byte	0
 19661 0038 20       		.byte	32
 19662 0039 20       		.byte	32
 19663 003a 20       		.byte	32
 19664 003b 00       		.byte	0
 19665 003c 00       		.byte	0
 19666 003d 00       		.byte	0
 19667 003e 00       		.byte	0
 19668 003f 00       		.byte	0
 19669 0040 10       		.byte	16
 19670 0041 20       		.byte	32
 19671 0042 20       		.byte	32
 19672 0043 20       		.byte	32
 19673 0044 20       		.byte	32
 19674 0045 20       		.byte	32
 19675 0046 10       		.byte	16
 19676 0047 00       		.byte	0
 19677 0048 40       		.byte	64
 19678 0049 20       		.byte	32
 19679 004a 20       		.byte	32
 19680 004b 20       		.byte	32
 19681 004c 20       		.byte	32
 19682 004d 20       		.byte	32
 19683 004e 40       		.byte	64
 19684 004f 00       		.byte	0
 19685 0050 20       		.byte	32
 19686 0051 70       		.byte	112
 19687 0052 20       		.byte	32
 19688 0053 50       		.byte	80
 19689 0054 00       		.byte	0
 19690 0055 00       		.byte	0
 19691 0056 00       		.byte	0
 19692 0057 00       		.byte	0
 19693 0058 00       		.byte	0
 19694 0059 20       		.byte	32
 19695 005a 20       		.byte	32
 19696 005b F8       		.byte	-8
 19697 005c 20       		.byte	32
 19698 005d 20       		.byte	32
 19699 005e 00       		.byte	0
 19700 005f 00       		.byte	0
 19701 0060 00       		.byte	0
 19702 0061 00       		.byte	0
 19703 0062 00       		.byte	0
 19704 0063 00       		.byte	0
 19705 0064 10       		.byte	16
 19706 0065 20       		.byte	32
 19707 0066 20       		.byte	32
 19708 0067 00       		.byte	0
 19709 0068 00       		.byte	0
 19710 0069 00       		.byte	0
 19711 006a 00       		.byte	0
 19712 006b 70       		.byte	112
 19713 006c 00       		.byte	0
 19714 006d 00       		.byte	0
 19715 006e 00       		.byte	0
ARM GAS  C:\Users\milek\AppData\Local\Temp\ccMSPWBt.s 			page 383


 19716 006f 00       		.byte	0
 19717 0070 00       		.byte	0
 19718 0071 00       		.byte	0
 19719 0072 00       		.byte	0
 19720 0073 00       		.byte	0
 19721 0074 00       		.byte	0
 19722 0075 20       		.byte	32
 19723 0076 00       		.byte	0
 19724 0077 00       		.byte	0
 19725 0078 10       		.byte	16
 19726 0079 20       		.byte	32
 19727 007a 20       		.byte	32
 19728 007b 20       		.byte	32
 19729 007c 40       		.byte	64
 19730 007d 40       		.byte	64
 19731 007e 80       		.byte	-128
 19732 007f 00       		.byte	0
 19733 0080 20       		.byte	32
 19734 0081 50       		.byte	80
 19735 0082 50       		.byte	80
 19736 0083 50       		.byte	80
 19737 0084 50       		.byte	80
 19738 0085 20       		.byte	32
 19739 0086 00       		.byte	0
 19740 0087 00       		.byte	0
 19741 0088 60       		.byte	96
 19742 0089 20       		.byte	32
 19743 008a 20       		.byte	32
 19744 008b 20       		.byte	32
 19745 008c 20       		.byte	32
 19746 008d F8       		.byte	-8
 19747 008e 00       		.byte	0
 19748 008f 00       		.byte	0
 19749 0090 20       		.byte	32
 19750 0091 50       		.byte	80
 19751 0092 20       		.byte	32
 19752 0093 20       		.byte	32
 19753 0094 40       		.byte	64
 19754 0095 70       		.byte	112
 19755 0096 00       		.byte	0
 19756 0097 00       		.byte	0
 19757 0098 20       		.byte	32
 19758 0099 50       		.byte	80
 19759 009a 10       		.byte	16
 19760 009b 20       		.byte	32
 19761 009c 10       		.byte	16
 19762 009d 60       		.byte	96
 19763 009e 00       		.byte	0
 19764 009f 00       		.byte	0
 19765 00a0 10       		.byte	16
 19766 00a1 30       		.byte	48
 19767 00a2 50       		.byte	80
 19768 00a3 78       		.byte	120
 19769 00a4 10       		.byte	16
 19770 00a5 38       		.byte	56
 19771 00a6 00       		.byte	0
 19772 00a7 00       		.byte	0
ARM GAS  C:\Users\milek\AppData\Local\Temp\ccMSPWBt.s 			page 384


 19773 00a8 70       		.byte	112
 19774 00a9 40       		.byte	64
 19775 00aa 60       		.byte	96
 19776 00ab 10       		.byte	16
 19777 00ac 50       		.byte	80
 19778 00ad 20       		.byte	32
 19779 00ae 00       		.byte	0
 19780 00af 00       		.byte	0
 19781 00b0 30       		.byte	48
 19782 00b1 40       		.byte	64
 19783 00b2 60       		.byte	96
 19784 00b3 50       		.byte	80
 19785 00b4 50       		.byte	80
 19786 00b5 60       		.byte	96
 19787 00b6 00       		.byte	0
 19788 00b7 00       		.byte	0
 19789 00b8 70       		.byte	112
 19790 00b9 50       		.byte	80
 19791 00ba 10       		.byte	16
 19792 00bb 20       		.byte	32
 19793 00bc 20       		.byte	32
 19794 00bd 20       		.byte	32
 19795 00be 00       		.byte	0
 19796 00bf 00       		.byte	0
 19797 00c0 20       		.byte	32
 19798 00c1 50       		.byte	80
 19799 00c2 20       		.byte	32
 19800 00c3 50       		.byte	80
 19801 00c4 50       		.byte	80
 19802 00c5 20       		.byte	32
 19803 00c6 00       		.byte	0
 19804 00c7 00       		.byte	0
 19805 00c8 30       		.byte	48
 19806 00c9 50       		.byte	80
 19807 00ca 50       		.byte	80
 19808 00cb 30       		.byte	48
 19809 00cc 10       		.byte	16
 19810 00cd 60       		.byte	96
 19811 00ce 00       		.byte	0
 19812 00cf 00       		.byte	0
 19813 00d0 00       		.byte	0
 19814 00d1 00       		.byte	0
 19815 00d2 20       		.byte	32
 19816 00d3 00       		.byte	0
 19817 00d4 00       		.byte	0
 19818 00d5 20       		.byte	32
 19819 00d6 00       		.byte	0
 19820 00d7 00       		.byte	0
 19821 00d8 00       		.byte	0
 19822 00d9 00       		.byte	0
 19823 00da 10       		.byte	16
 19824 00db 00       		.byte	0
 19825 00dc 10       		.byte	16
 19826 00dd 20       		.byte	32
 19827 00de 00       		.byte	0
 19828 00df 00       		.byte	0
 19829 00e0 00       		.byte	0
ARM GAS  C:\Users\milek\AppData\Local\Temp\ccMSPWBt.s 			page 385


 19830 00e1 10       		.byte	16
 19831 00e2 20       		.byte	32
 19832 00e3 C0       		.byte	-64
 19833 00e4 20       		.byte	32
 19834 00e5 10       		.byte	16
 19835 00e6 00       		.byte	0
 19836 00e7 00       		.byte	0
 19837 00e8 00       		.byte	0
 19838 00e9 70       		.byte	112
 19839 00ea 00       		.byte	0
 19840 00eb 70       		.byte	112
 19841 00ec 00       		.byte	0
 19842 00ed 00       		.byte	0
 19843 00ee 00       		.byte	0
 19844 00ef 00       		.byte	0
 19845 00f0 00       		.byte	0
 19846 00f1 40       		.byte	64
 19847 00f2 20       		.byte	32
 19848 00f3 18       		.byte	24
 19849 00f4 20       		.byte	32
 19850 00f5 40       		.byte	64
 19851 00f6 00       		.byte	0
 19852 00f7 00       		.byte	0
 19853 00f8 20       		.byte	32
 19854 00f9 50       		.byte	80
 19855 00fa 10       		.byte	16
 19856 00fb 20       		.byte	32
 19857 00fc 00       		.byte	0
 19858 00fd 20       		.byte	32
 19859 00fe 00       		.byte	0
 19860 00ff 00       		.byte	0
 19861 0100 30       		.byte	48
 19862 0101 48       		.byte	72
 19863 0102 48       		.byte	72
 19864 0103 58       		.byte	88
 19865 0104 48       		.byte	72
 19866 0105 40       		.byte	64
 19867 0106 38       		.byte	56
 19868 0107 00       		.byte	0
 19869 0108 60       		.byte	96
 19870 0109 20       		.byte	32
 19871 010a 50       		.byte	80
 19872 010b 70       		.byte	112
 19873 010c 88       		.byte	-120
 19874 010d D8       		.byte	-40
 19875 010e 00       		.byte	0
 19876 010f 00       		.byte	0
 19877 0110 F0       		.byte	-16
 19878 0111 48       		.byte	72
 19879 0112 70       		.byte	112
 19880 0113 48       		.byte	72
 19881 0114 48       		.byte	72
 19882 0115 F0       		.byte	-16
 19883 0116 00       		.byte	0
 19884 0117 00       		.byte	0
 19885 0118 70       		.byte	112
 19886 0119 50       		.byte	80
ARM GAS  C:\Users\milek\AppData\Local\Temp\ccMSPWBt.s 			page 386


 19887 011a 40       		.byte	64
 19888 011b 40       		.byte	64
 19889 011c 40       		.byte	64
 19890 011d 30       		.byte	48
 19891 011e 00       		.byte	0
 19892 011f 00       		.byte	0
 19893 0120 F0       		.byte	-16
 19894 0121 48       		.byte	72
 19895 0122 48       		.byte	72
 19896 0123 48       		.byte	72
 19897 0124 48       		.byte	72
 19898 0125 F0       		.byte	-16
 19899 0126 00       		.byte	0
 19900 0127 00       		.byte	0
 19901 0128 F8       		.byte	-8
 19902 0129 48       		.byte	72
 19903 012a 60       		.byte	96
 19904 012b 40       		.byte	64
 19905 012c 48       		.byte	72
 19906 012d F8       		.byte	-8
 19907 012e 00       		.byte	0
 19908 012f 00       		.byte	0
 19909 0130 F8       		.byte	-8
 19910 0131 48       		.byte	72
 19911 0132 60       		.byte	96
 19912 0133 40       		.byte	64
 19913 0134 40       		.byte	64
 19914 0135 E0       		.byte	-32
 19915 0136 00       		.byte	0
 19916 0137 00       		.byte	0
 19917 0138 70       		.byte	112
 19918 0139 40       		.byte	64
 19919 013a 40       		.byte	64
 19920 013b 58       		.byte	88
 19921 013c 50       		.byte	80
 19922 013d 30       		.byte	48
 19923 013e 00       		.byte	0
 19924 013f 00       		.byte	0
 19925 0140 E8       		.byte	-24
 19926 0141 48       		.byte	72
 19927 0142 78       		.byte	120
 19928 0143 48       		.byte	72
 19929 0144 48       		.byte	72
 19930 0145 E8       		.byte	-24
 19931 0146 00       		.byte	0
 19932 0147 00       		.byte	0
 19933 0148 70       		.byte	112
 19934 0149 20       		.byte	32
 19935 014a 20       		.byte	32
 19936 014b 20       		.byte	32
 19937 014c 20       		.byte	32
 19938 014d 70       		.byte	112
 19939 014e 00       		.byte	0
 19940 014f 00       		.byte	0
 19941 0150 38       		.byte	56
 19942 0151 10       		.byte	16
 19943 0152 10       		.byte	16
ARM GAS  C:\Users\milek\AppData\Local\Temp\ccMSPWBt.s 			page 387


 19944 0153 50       		.byte	80
 19945 0154 50       		.byte	80
 19946 0155 20       		.byte	32
 19947 0156 00       		.byte	0
 19948 0157 00       		.byte	0
 19949 0158 D8       		.byte	-40
 19950 0159 50       		.byte	80
 19951 015a 60       		.byte	96
 19952 015b 70       		.byte	112
 19953 015c 50       		.byte	80
 19954 015d D8       		.byte	-40
 19955 015e 00       		.byte	0
 19956 015f 00       		.byte	0
 19957 0160 E0       		.byte	-32
 19958 0161 40       		.byte	64
 19959 0162 40       		.byte	64
 19960 0163 40       		.byte	64
 19961 0164 48       		.byte	72
 19962 0165 F8       		.byte	-8
 19963 0166 00       		.byte	0
 19964 0167 00       		.byte	0
 19965 0168 D8       		.byte	-40
 19966 0169 D8       		.byte	-40
 19967 016a D8       		.byte	-40
 19968 016b A8       		.byte	-88
 19969 016c 88       		.byte	-120
 19970 016d D8       		.byte	-40
 19971 016e 00       		.byte	0
 19972 016f 00       		.byte	0
 19973 0170 D8       		.byte	-40
 19974 0171 68       		.byte	104
 19975 0172 68       		.byte	104
 19976 0173 58       		.byte	88
 19977 0174 58       		.byte	88
 19978 0175 E8       		.byte	-24
 19979 0176 00       		.byte	0
 19980 0177 00       		.byte	0
 19981 0178 30       		.byte	48
 19982 0179 48       		.byte	72
 19983 017a 48       		.byte	72
 19984 017b 48       		.byte	72
 19985 017c 48       		.byte	72
 19986 017d 30       		.byte	48
 19987 017e 00       		.byte	0
 19988 017f 00       		.byte	0
 19989 0180 F0       		.byte	-16
 19990 0181 48       		.byte	72
 19991 0182 48       		.byte	72
 19992 0183 70       		.byte	112
 19993 0184 40       		.byte	64
 19994 0185 E0       		.byte	-32
 19995 0186 00       		.byte	0
 19996 0187 00       		.byte	0
 19997 0188 30       		.byte	48
 19998 0189 48       		.byte	72
 19999 018a 48       		.byte	72
 20000 018b 48       		.byte	72
ARM GAS  C:\Users\milek\AppData\Local\Temp\ccMSPWBt.s 			page 388


 20001 018c 48       		.byte	72
 20002 018d 30       		.byte	48
 20003 018e 18       		.byte	24
 20004 018f 00       		.byte	0
 20005 0190 F0       		.byte	-16
 20006 0191 48       		.byte	72
 20007 0192 48       		.byte	72
 20008 0193 70       		.byte	112
 20009 0194 48       		.byte	72
 20010 0195 E8       		.byte	-24
 20011 0196 00       		.byte	0
 20012 0197 00       		.byte	0
 20013 0198 70       		.byte	112
 20014 0199 50       		.byte	80
 20015 019a 20       		.byte	32
 20016 019b 10       		.byte	16
 20017 019c 50       		.byte	80
 20018 019d 70       		.byte	112
 20019 019e 00       		.byte	0
 20020 019f 00       		.byte	0
 20021 01a0 F8       		.byte	-8
 20022 01a1 A8       		.byte	-88
 20023 01a2 20       		.byte	32
 20024 01a3 20       		.byte	32
 20025 01a4 20       		.byte	32
 20026 01a5 70       		.byte	112
 20027 01a6 00       		.byte	0
 20028 01a7 00       		.byte	0
 20029 01a8 D8       		.byte	-40
 20030 01a9 48       		.byte	72
 20031 01aa 48       		.byte	72
 20032 01ab 48       		.byte	72
 20033 01ac 48       		.byte	72
 20034 01ad 30       		.byte	48
 20035 01ae 00       		.byte	0
 20036 01af 00       		.byte	0
 20037 01b0 D8       		.byte	-40
 20038 01b1 88       		.byte	-120
 20039 01b2 48       		.byte	72
 20040 01b3 50       		.byte	80
 20041 01b4 50       		.byte	80
 20042 01b5 30       		.byte	48
 20043 01b6 00       		.byte	0
 20044 01b7 00       		.byte	0
 20045 01b8 D8       		.byte	-40
 20046 01b9 88       		.byte	-120
 20047 01ba A8       		.byte	-88
 20048 01bb A8       		.byte	-88
 20049 01bc A8       		.byte	-88
 20050 01bd 50       		.byte	80
 20051 01be 00       		.byte	0
 20052 01bf 00       		.byte	0
 20053 01c0 D8       		.byte	-40
 20054 01c1 50       		.byte	80
 20055 01c2 20       		.byte	32
 20056 01c3 20       		.byte	32
 20057 01c4 50       		.byte	80
ARM GAS  C:\Users\milek\AppData\Local\Temp\ccMSPWBt.s 			page 389


 20058 01c5 D8       		.byte	-40
 20059 01c6 00       		.byte	0
 20060 01c7 00       		.byte	0
 20061 01c8 D8       		.byte	-40
 20062 01c9 88       		.byte	-120
 20063 01ca 50       		.byte	80
 20064 01cb 20       		.byte	32
 20065 01cc 20       		.byte	32
 20066 01cd 70       		.byte	112
 20067 01ce 00       		.byte	0
 20068 01cf 00       		.byte	0
 20069 01d0 78       		.byte	120
 20070 01d1 48       		.byte	72
 20071 01d2 10       		.byte	16
 20072 01d3 20       		.byte	32
 20073 01d4 48       		.byte	72
 20074 01d5 78       		.byte	120
 20075 01d6 00       		.byte	0
 20076 01d7 00       		.byte	0
 20077 01d8 30       		.byte	48
 20078 01d9 20       		.byte	32
 20079 01da 20       		.byte	32
 20080 01db 20       		.byte	32
 20081 01dc 20       		.byte	32
 20082 01dd 20       		.byte	32
 20083 01de 30       		.byte	48
 20084 01df 00       		.byte	0
 20085 01e0 80       		.byte	-128
 20086 01e1 40       		.byte	64
 20087 01e2 40       		.byte	64
 20088 01e3 20       		.byte	32
 20089 01e4 20       		.byte	32
 20090 01e5 20       		.byte	32
 20091 01e6 10       		.byte	16
 20092 01e7 00       		.byte	0
 20093 01e8 60       		.byte	96
 20094 01e9 20       		.byte	32
 20095 01ea 20       		.byte	32
 20096 01eb 20       		.byte	32
 20097 01ec 20       		.byte	32
 20098 01ed 20       		.byte	32
 20099 01ee 60       		.byte	96
 20100 01ef 00       		.byte	0
 20101 01f0 20       		.byte	32
 20102 01f1 20       		.byte	32
 20103 01f2 50       		.byte	80
 20104 01f3 00       		.byte	0
 20105 01f4 00       		.byte	0
 20106 01f5 00       		.byte	0
 20107 01f6 00       		.byte	0
 20108 01f7 00       		.byte	0
 20109 01f8 00       		.byte	0
 20110 01f9 00       		.byte	0
 20111 01fa 00       		.byte	0
 20112 01fb 00       		.byte	0
 20113 01fc 00       		.byte	0
 20114 01fd 00       		.byte	0
ARM GAS  C:\Users\milek\AppData\Local\Temp\ccMSPWBt.s 			page 390


 20115 01fe 00       		.byte	0
 20116 01ff F8       		.byte	-8
 20117 0200 20       		.byte	32
 20118 0201 10       		.byte	16
 20119 0202 00       		.byte	0
 20120 0203 00       		.byte	0
 20121 0204 00       		.byte	0
 20122 0205 00       		.byte	0
 20123 0206 00       		.byte	0
 20124 0207 00       		.byte	0
 20125 0208 00       		.byte	0
 20126 0209 00       		.byte	0
 20127 020a 30       		.byte	48
 20128 020b 10       		.byte	16
 20129 020c 70       		.byte	112
 20130 020d 78       		.byte	120
 20131 020e 00       		.byte	0
 20132 020f 00       		.byte	0
 20133 0210 C0       		.byte	-64
 20134 0211 40       		.byte	64
 20135 0212 70       		.byte	112
 20136 0213 48       		.byte	72
 20137 0214 48       		.byte	72
 20138 0215 F0       		.byte	-16
 20139 0216 00       		.byte	0
 20140 0217 00       		.byte	0
 20141 0218 00       		.byte	0
 20142 0219 00       		.byte	0
 20143 021a 70       		.byte	112
 20144 021b 40       		.byte	64
 20145 021c 40       		.byte	64
 20146 021d 70       		.byte	112
 20147 021e 00       		.byte	0
 20148 021f 00       		.byte	0
 20149 0220 18       		.byte	24
 20150 0221 08       		.byte	8
 20151 0222 38       		.byte	56
 20152 0223 48       		.byte	72
 20153 0224 48       		.byte	72
 20154 0225 38       		.byte	56
 20155 0226 00       		.byte	0
 20156 0227 00       		.byte	0
 20157 0228 00       		.byte	0
 20158 0229 00       		.byte	0
 20159 022a 70       		.byte	112
 20160 022b 70       		.byte	112
 20161 022c 40       		.byte	64
 20162 022d 30       		.byte	48
 20163 022e 00       		.byte	0
 20164 022f 00       		.byte	0
 20165 0230 10       		.byte	16
 20166 0231 20       		.byte	32
 20167 0232 70       		.byte	112
 20168 0233 20       		.byte	32
 20169 0234 20       		.byte	32
 20170 0235 70       		.byte	112
 20171 0236 00       		.byte	0
ARM GAS  C:\Users\milek\AppData\Local\Temp\ccMSPWBt.s 			page 391


 20172 0237 00       		.byte	0
 20173 0238 00       		.byte	0
 20174 0239 00       		.byte	0
 20175 023a 38       		.byte	56
 20176 023b 48       		.byte	72
 20177 023c 48       		.byte	72
 20178 023d 38       		.byte	56
 20179 023e 08       		.byte	8
 20180 023f 30       		.byte	48
 20181 0240 C0       		.byte	-64
 20182 0241 40       		.byte	64
 20183 0242 70       		.byte	112
 20184 0243 48       		.byte	72
 20185 0244 48       		.byte	72
 20186 0245 E8       		.byte	-24
 20187 0246 00       		.byte	0
 20188 0247 00       		.byte	0
 20189 0248 20       		.byte	32
 20190 0249 00       		.byte	0
 20191 024a 60       		.byte	96
 20192 024b 20       		.byte	32
 20193 024c 20       		.byte	32
 20194 024d 70       		.byte	112
 20195 024e 00       		.byte	0
 20196 024f 00       		.byte	0
 20197 0250 20       		.byte	32
 20198 0251 00       		.byte	0
 20199 0252 70       		.byte	112
 20200 0253 10       		.byte	16
 20201 0254 10       		.byte	16
 20202 0255 10       		.byte	16
 20203 0256 10       		.byte	16
 20204 0257 70       		.byte	112
 20205 0258 C0       		.byte	-64
 20206 0259 40       		.byte	64
 20207 025a 58       		.byte	88
 20208 025b 70       		.byte	112
 20209 025c 50       		.byte	80
 20210 025d D8       		.byte	-40
 20211 025e 00       		.byte	0
 20212 025f 00       		.byte	0
 20213 0260 60       		.byte	96
 20214 0261 20       		.byte	32
 20215 0262 20       		.byte	32
 20216 0263 20       		.byte	32
 20217 0264 20       		.byte	32
 20218 0265 70       		.byte	112
 20219 0266 00       		.byte	0
 20220 0267 00       		.byte	0
 20221 0268 00       		.byte	0
 20222 0269 00       		.byte	0
 20223 026a D0       		.byte	-48
 20224 026b A8       		.byte	-88
 20225 026c A8       		.byte	-88
 20226 026d A8       		.byte	-88
 20227 026e 00       		.byte	0
 20228 026f 00       		.byte	0
ARM GAS  C:\Users\milek\AppData\Local\Temp\ccMSPWBt.s 			page 392


 20229 0270 00       		.byte	0
 20230 0271 00       		.byte	0
 20231 0272 F0       		.byte	-16
 20232 0273 48       		.byte	72
 20233 0274 48       		.byte	72
 20234 0275 C8       		.byte	-56
 20235 0276 00       		.byte	0
 20236 0277 00       		.byte	0
 20237 0278 00       		.byte	0
 20238 0279 00       		.byte	0
 20239 027a 30       		.byte	48
 20240 027b 48       		.byte	72
 20241 027c 48       		.byte	72
 20242 027d 30       		.byte	48
 20243 027e 00       		.byte	0
 20244 027f 00       		.byte	0
 20245 0280 00       		.byte	0
 20246 0281 00       		.byte	0
 20247 0282 F0       		.byte	-16
 20248 0283 48       		.byte	72
 20249 0284 48       		.byte	72
 20250 0285 70       		.byte	112
 20251 0286 40       		.byte	64
 20252 0287 E0       		.byte	-32
 20253 0288 00       		.byte	0
 20254 0289 00       		.byte	0
 20255 028a 38       		.byte	56
 20256 028b 48       		.byte	72
 20257 028c 48       		.byte	72
 20258 028d 38       		.byte	56
 20259 028e 08       		.byte	8
 20260 028f 18       		.byte	24
 20261 0290 00       		.byte	0
 20262 0291 00       		.byte	0
 20263 0292 78       		.byte	120
 20264 0293 20       		.byte	32
 20265 0294 20       		.byte	32
 20266 0295 70       		.byte	112
 20267 0296 00       		.byte	0
 20268 0297 00       		.byte	0
 20269 0298 00       		.byte	0
 20270 0299 00       		.byte	0
 20271 029a 30       		.byte	48
 20272 029b 20       		.byte	32
 20273 029c 10       		.byte	16
 20274 029d 60       		.byte	96
 20275 029e 00       		.byte	0
 20276 029f 00       		.byte	0
 20277 02a0 00       		.byte	0
 20278 02a1 40       		.byte	64
 20279 02a2 F0       		.byte	-16
 20280 02a3 40       		.byte	64
 20281 02a4 48       		.byte	72
 20282 02a5 30       		.byte	48
 20283 02a6 00       		.byte	0
 20284 02a7 00       		.byte	0
 20285 02a8 00       		.byte	0
ARM GAS  C:\Users\milek\AppData\Local\Temp\ccMSPWBt.s 			page 393


 20286 02a9 00       		.byte	0
 20287 02aa D8       		.byte	-40
 20288 02ab 48       		.byte	72
 20289 02ac 48       		.byte	72
 20290 02ad 38       		.byte	56
 20291 02ae 00       		.byte	0
 20292 02af 00       		.byte	0
 20293 02b0 00       		.byte	0
 20294 02b1 00       		.byte	0
 20295 02b2 C8       		.byte	-56
 20296 02b3 48       		.byte	72
 20297 02b4 30       		.byte	48
 20298 02b5 30       		.byte	48
 20299 02b6 00       		.byte	0
 20300 02b7 00       		.byte	0
 20301 02b8 00       		.byte	0
 20302 02b9 00       		.byte	0
 20303 02ba D8       		.byte	-40
 20304 02bb A8       		.byte	-88
 20305 02bc A8       		.byte	-88
 20306 02bd 50       		.byte	80
 20307 02be 00       		.byte	0
 20308 02bf 00       		.byte	0
 20309 02c0 00       		.byte	0
 20310 02c1 00       		.byte	0
 20311 02c2 48       		.byte	72
 20312 02c3 30       		.byte	48
 20313 02c4 30       		.byte	48
 20314 02c5 48       		.byte	72
 20315 02c6 00       		.byte	0
 20316 02c7 00       		.byte	0
 20317 02c8 00       		.byte	0
 20318 02c9 00       		.byte	0
 20319 02ca D8       		.byte	-40
 20320 02cb 50       		.byte	80
 20321 02cc 50       		.byte	80
 20322 02cd 20       		.byte	32
 20323 02ce 20       		.byte	32
 20324 02cf 60       		.byte	96
 20325 02d0 00       		.byte	0
 20326 02d1 00       		.byte	0
 20327 02d2 78       		.byte	120
 20328 02d3 50       		.byte	80
 20329 02d4 28       		.byte	40
 20330 02d5 78       		.byte	120
 20331 02d6 00       		.byte	0
 20332 02d7 00       		.byte	0
 20333 02d8 10       		.byte	16
 20334 02d9 20       		.byte	32
 20335 02da 20       		.byte	32
 20336 02db 60       		.byte	96
 20337 02dc 20       		.byte	32
 20338 02dd 20       		.byte	32
 20339 02de 10       		.byte	16
 20340 02df 00       		.byte	0
 20341 02e0 20       		.byte	32
 20342 02e1 20       		.byte	32
ARM GAS  C:\Users\milek\AppData\Local\Temp\ccMSPWBt.s 			page 394


 20343 02e2 20       		.byte	32
 20344 02e3 20       		.byte	32
 20345 02e4 20       		.byte	32
 20346 02e5 20       		.byte	32
 20347 02e6 20       		.byte	32
 20348 02e7 00       		.byte	0
 20349 02e8 40       		.byte	64
 20350 02e9 20       		.byte	32
 20351 02ea 20       		.byte	32
 20352 02eb 30       		.byte	48
 20353 02ec 20       		.byte	32
 20354 02ed 20       		.byte	32
 20355 02ee 40       		.byte	64
 20356 02ef 00       		.byte	0
 20357 02f0 00       		.byte	0
 20358 02f1 00       		.byte	0
 20359 02f2 00       		.byte	0
 20360 02f3 28       		.byte	40
 20361 02f4 50       		.byte	80
 20362 02f5 00       		.byte	0
 20363 02f6 00       		.byte	0
 20364 02f7 00       		.byte	0
 20365              		.text
 20366              	.Letext0:
 20367              		.file 2 "d:\\program files (x86)\\gnu\\7_2018-q2-update\\arm-none-eabi\\include\\machine\\_default
 20368              		.file 3 "d:\\program files (x86)\\gnu\\7_2018-q2-update\\arm-none-eabi\\include\\sys\\_stdint.h"
 20369              		.file 4 "Drivers/CMSIS/Include/core_cm7.h"
 20370              		.file 5 "Drivers/CMSIS/Device/ST/STM32F7xx/Include/system_stm32f7xx.h"
 20371              		.file 6 "Drivers/CMSIS/Device/ST/STM32F7xx/Include/stm32f746xx.h"
 20372              		.file 7 "Drivers/CMSIS/Device/ST/STM32F7xx/Include/stm32f7xx.h"
 20373              		.file 8 "d:\\program files (x86)\\gnu\\7_2018-q2-update\\arm-none-eabi\\include\\sys\\lock.h"
 20374              		.file 9 "d:\\program files (x86)\\gnu\\7_2018-q2-update\\arm-none-eabi\\include\\sys\\_types.h"
 20375              		.file 10 "d:\\program files (x86)\\gnu\\7_2018-q2-update\\lib\\gcc\\arm-none-eabi\\7.3.1\\include\
 20376              		.file 11 "d:\\program files (x86)\\gnu\\7_2018-q2-update\\arm-none-eabi\\include\\sys\\reent.h"
 20377              		.file 12 "Drivers/STM32F7xx_HAL_Driver/Inc/stm32f7xx_hal_def.h"
 20378              		.file 13 "Drivers/STM32F7xx_HAL_Driver/Inc/stm32f7xx_hal_rcc_ex.h"
 20379              		.file 14 "Drivers/STM32F7xx_HAL_Driver/Inc/stm32f7xx_hal_gpio.h"
 20380              		.file 15 "Drivers/STM32F7xx_HAL_Driver/Inc/stm32f7xx_hal_dma2d.h"
 20381              		.file 16 "Drivers/STM32F7xx_HAL_Driver/Inc/stm32f7xx_hal_ltdc.h"
 20382              		.file 17 "d:\\sw\\utilities\\fonts\\fonts.h"
 20383              		.file 18 "Drivers/BSP/STM32746G-Discovery/stm32746g_discovery_lcd.h"
 20384              		.file 19 "d:\\sw\\utilities\\fonts\\font24.c"
 20385              		.file 20 "d:\\sw\\utilities\\fonts\\font20.c"
 20386              		.file 21 "d:\\sw\\utilities\\fonts\\font16.c"
 20387              		.file 22 "d:\\sw\\utilities\\fonts\\font12.c"
 20388              		.file 23 "d:\\sw\\utilities\\fonts\\font8.c"
 20389              		.file 24 "Drivers/BSP/STM32746G-Discovery/stm32746g_discovery_sdram.h"
ARM GAS  C:\Users\milek\AppData\Local\Temp\ccMSPWBt.s 			page 395


DEFINED SYMBOLS
                            *ABS*:00000000 stm32746g_discovery_lcd.c
C:\Users\milek\AppData\Local\Temp\ccMSPWBt.s:18     .text.LL_FillBuffer:00000000 $t
C:\Users\milek\AppData\Local\Temp\ccMSPWBt.s:24     .text.LL_FillBuffer:00000000 LL_FillBuffer
C:\Users\milek\AppData\Local\Temp\ccMSPWBt.s:126    .text.LL_FillBuffer:00000070 $d
                            *COM*:000000a8 hLtdcHandler
C:\Users\milek\AppData\Local\Temp\ccMSPWBt.s:134    .text.LL_ConvertLineToARGB8888:00000000 $t
C:\Users\milek\AppData\Local\Temp\ccMSPWBt.s:140    .text.LL_ConvertLineToARGB8888:00000000 LL_ConvertLineToARGB8888
C:\Users\milek\AppData\Local\Temp\ccMSPWBt.s:229    .text.LL_ConvertLineToARGB8888:0000005c $d
C:\Users\milek\AppData\Local\Temp\ccMSPWBt.s:235    .text.BSP_LCD_GetXSize:00000000 $t
C:\Users\milek\AppData\Local\Temp\ccMSPWBt.s:242    .text.BSP_LCD_GetXSize:00000000 BSP_LCD_GetXSize
C:\Users\milek\AppData\Local\Temp\ccMSPWBt.s:261    .text.BSP_LCD_GetXSize:00000010 $d
C:\Users\milek\AppData\Local\Temp\ccMSPWBt.s:267    .text.BSP_LCD_GetYSize:00000000 $t
C:\Users\milek\AppData\Local\Temp\ccMSPWBt.s:274    .text.BSP_LCD_GetYSize:00000000 BSP_LCD_GetYSize
C:\Users\milek\AppData\Local\Temp\ccMSPWBt.s:293    .text.BSP_LCD_GetYSize:00000010 $d
C:\Users\milek\AppData\Local\Temp\ccMSPWBt.s:299    .text.BSP_LCD_SetXSize:00000000 $t
C:\Users\milek\AppData\Local\Temp\ccMSPWBt.s:306    .text.BSP_LCD_SetXSize:00000000 BSP_LCD_SetXSize
C:\Users\milek\AppData\Local\Temp\ccMSPWBt.s:326    .text.BSP_LCD_SetXSize:00000010 $d
C:\Users\milek\AppData\Local\Temp\ccMSPWBt.s:332    .text.BSP_LCD_SetYSize:00000000 $t
C:\Users\milek\AppData\Local\Temp\ccMSPWBt.s:339    .text.BSP_LCD_SetYSize:00000000 BSP_LCD_SetYSize
C:\Users\milek\AppData\Local\Temp\ccMSPWBt.s:359    .text.BSP_LCD_SetYSize:00000010 $d
C:\Users\milek\AppData\Local\Temp\ccMSPWBt.s:365    .text.BSP_LCD_LayerDefaultInit:00000000 $t
C:\Users\milek\AppData\Local\Temp\ccMSPWBt.s:372    .text.BSP_LCD_LayerDefaultInit:00000000 BSP_LCD_LayerDefaultInit
C:\Users\milek\AppData\Local\Temp\ccMSPWBt.s:465    .text.BSP_LCD_LayerDefaultInit:00000074 $d
C:\Users\milek\AppData\Local\Temp\ccMSPWBt.s:472    .text.BSP_LCD_LayerRgb565Init:00000000 $t
C:\Users\milek\AppData\Local\Temp\ccMSPWBt.s:479    .text.BSP_LCD_LayerRgb565Init:00000000 BSP_LCD_LayerRgb565Init
C:\Users\milek\AppData\Local\Temp\ccMSPWBt.s:573    .text.BSP_LCD_LayerRgb565Init:00000074 $d
C:\Users\milek\AppData\Local\Temp\ccMSPWBt.s:580    .text.BSP_LCD_SelectLayer:00000000 $t
C:\Users\milek\AppData\Local\Temp\ccMSPWBt.s:587    .text.BSP_LCD_SelectLayer:00000000 BSP_LCD_SelectLayer
C:\Users\milek\AppData\Local\Temp\ccMSPWBt.s:603    .text.BSP_LCD_SelectLayer:00000008 $d
C:\Users\milek\AppData\Local\Temp\ccMSPWBt.s:608    .text.BSP_LCD_SetLayerVisible:00000000 $t
C:\Users\milek\AppData\Local\Temp\ccMSPWBt.s:615    .text.BSP_LCD_SetLayerVisible:00000000 BSP_LCD_SetLayerVisible
C:\Users\milek\AppData\Local\Temp\ccMSPWBt.s:657    .text.BSP_LCD_SetLayerVisible:0000003c $d
C:\Users\milek\AppData\Local\Temp\ccMSPWBt.s:662    .text.BSP_LCD_SetLayerVisible_NoReload:00000000 $t
C:\Users\milek\AppData\Local\Temp\ccMSPWBt.s:669    .text.BSP_LCD_SetLayerVisible_NoReload:00000000 BSP_LCD_SetLayerVisible_NoReload
C:\Users\milek\AppData\Local\Temp\ccMSPWBt.s:704    .text.BSP_LCD_SetLayerVisible_NoReload:00000030 $d
C:\Users\milek\AppData\Local\Temp\ccMSPWBt.s:709    .text.BSP_LCD_SetTransparency:00000000 $t
C:\Users\milek\AppData\Local\Temp\ccMSPWBt.s:716    .text.BSP_LCD_SetTransparency:00000000 BSP_LCD_SetTransparency
C:\Users\milek\AppData\Local\Temp\ccMSPWBt.s:739    .text.BSP_LCD_SetTransparency:0000000c $d
C:\Users\milek\AppData\Local\Temp\ccMSPWBt.s:744    .text.BSP_LCD_SetTransparency_NoReload:00000000 $t
C:\Users\milek\AppData\Local\Temp\ccMSPWBt.s:751    .text.BSP_LCD_SetTransparency_NoReload:00000000 BSP_LCD_SetTransparency_NoReload
C:\Users\milek\AppData\Local\Temp\ccMSPWBt.s:774    .text.BSP_LCD_SetTransparency_NoReload:0000000c $d
C:\Users\milek\AppData\Local\Temp\ccMSPWBt.s:779    .text.BSP_LCD_SetLayerAddress:00000000 $t
C:\Users\milek\AppData\Local\Temp\ccMSPWBt.s:786    .text.BSP_LCD_SetLayerAddress:00000000 BSP_LCD_SetLayerAddress
C:\Users\milek\AppData\Local\Temp\ccMSPWBt.s:809    .text.BSP_LCD_SetLayerAddress:0000000c $d
C:\Users\milek\AppData\Local\Temp\ccMSPWBt.s:814    .text.BSP_LCD_SetLayerAddress_NoReload:00000000 $t
C:\Users\milek\AppData\Local\Temp\ccMSPWBt.s:821    .text.BSP_LCD_SetLayerAddress_NoReload:00000000 BSP_LCD_SetLayerAddress_NoReload
C:\Users\milek\AppData\Local\Temp\ccMSPWBt.s:844    .text.BSP_LCD_SetLayerAddress_NoReload:0000000c $d
C:\Users\milek\AppData\Local\Temp\ccMSPWBt.s:849    .text.BSP_LCD_SetLayerWindow:00000000 $t
C:\Users\milek\AppData\Local\Temp\ccMSPWBt.s:856    .text.BSP_LCD_SetLayerWindow:00000000 BSP_LCD_SetLayerWindow
C:\Users\milek\AppData\Local\Temp\ccMSPWBt.s:900    .text.BSP_LCD_SetLayerWindow:00000028 $d
C:\Users\milek\AppData\Local\Temp\ccMSPWBt.s:905    .text.BSP_LCD_SetLayerWindow_NoReload:00000000 $t
C:\Users\milek\AppData\Local\Temp\ccMSPWBt.s:912    .text.BSP_LCD_SetLayerWindow_NoReload:00000000 BSP_LCD_SetLayerWindow_NoReload
C:\Users\milek\AppData\Local\Temp\ccMSPWBt.s:956    .text.BSP_LCD_SetLayerWindow_NoReload:00000028 $d
C:\Users\milek\AppData\Local\Temp\ccMSPWBt.s:961    .text.BSP_LCD_SetColorKeying:00000000 $t
C:\Users\milek\AppData\Local\Temp\ccMSPWBt.s:968    .text.BSP_LCD_SetColorKeying:00000000 BSP_LCD_SetColorKeying
C:\Users\milek\AppData\Local\Temp\ccMSPWBt.s:1001   .text.BSP_LCD_SetColorKeying:00000018 $d
ARM GAS  C:\Users\milek\AppData\Local\Temp\ccMSPWBt.s 			page 396


C:\Users\milek\AppData\Local\Temp\ccMSPWBt.s:1006   .text.BSP_LCD_SetColorKeying_NoReload:00000000 $t
C:\Users\milek\AppData\Local\Temp\ccMSPWBt.s:1013   .text.BSP_LCD_SetColorKeying_NoReload:00000000 BSP_LCD_SetColorKeying_NoReload
C:\Users\milek\AppData\Local\Temp\ccMSPWBt.s:1046   .text.BSP_LCD_SetColorKeying_NoReload:00000018 $d
C:\Users\milek\AppData\Local\Temp\ccMSPWBt.s:1051   .text.BSP_LCD_ResetColorKeying:00000000 $t
C:\Users\milek\AppData\Local\Temp\ccMSPWBt.s:1058   .text.BSP_LCD_ResetColorKeying:00000000 BSP_LCD_ResetColorKeying
C:\Users\milek\AppData\Local\Temp\ccMSPWBt.s:1081   .text.BSP_LCD_ResetColorKeying:0000000c $d
C:\Users\milek\AppData\Local\Temp\ccMSPWBt.s:1086   .text.BSP_LCD_ResetColorKeying_NoReload:00000000 $t
C:\Users\milek\AppData\Local\Temp\ccMSPWBt.s:1093   .text.BSP_LCD_ResetColorKeying_NoReload:00000000 BSP_LCD_ResetColorKeying_NoReload
C:\Users\milek\AppData\Local\Temp\ccMSPWBt.s:1116   .text.BSP_LCD_ResetColorKeying_NoReload:0000000c $d
C:\Users\milek\AppData\Local\Temp\ccMSPWBt.s:1121   .text.BSP_LCD_Reload:00000000 $t
C:\Users\milek\AppData\Local\Temp\ccMSPWBt.s:1128   .text.BSP_LCD_Reload:00000000 BSP_LCD_Reload
C:\Users\milek\AppData\Local\Temp\ccMSPWBt.s:1151   .text.BSP_LCD_Reload:0000000c $d
C:\Users\milek\AppData\Local\Temp\ccMSPWBt.s:1156   .text.BSP_LCD_SetTextColor:00000000 $t
C:\Users\milek\AppData\Local\Temp\ccMSPWBt.s:1163   .text.BSP_LCD_SetTextColor:00000000 BSP_LCD_SetTextColor
C:\Users\milek\AppData\Local\Temp\ccMSPWBt.s:1183   .text.BSP_LCD_SetTextColor:00000010 $d
C:\Users\milek\AppData\Local\Temp\ccMSPWBt.s:1189   .text.BSP_LCD_GetTextColor:00000000 $t
C:\Users\milek\AppData\Local\Temp\ccMSPWBt.s:1196   .text.BSP_LCD_GetTextColor:00000000 BSP_LCD_GetTextColor
C:\Users\milek\AppData\Local\Temp\ccMSPWBt.s:1215   .text.BSP_LCD_GetTextColor:00000010 $d
C:\Users\milek\AppData\Local\Temp\ccMSPWBt.s:1221   .text.BSP_LCD_SetBackColor:00000000 $t
C:\Users\milek\AppData\Local\Temp\ccMSPWBt.s:1228   .text.BSP_LCD_SetBackColor:00000000 BSP_LCD_SetBackColor
C:\Users\milek\AppData\Local\Temp\ccMSPWBt.s:1249   .text.BSP_LCD_SetBackColor:00000014 $d
C:\Users\milek\AppData\Local\Temp\ccMSPWBt.s:1255   .text.BSP_LCD_GetBackColor:00000000 $t
C:\Users\milek\AppData\Local\Temp\ccMSPWBt.s:1262   .text.BSP_LCD_GetBackColor:00000000 BSP_LCD_GetBackColor
C:\Users\milek\AppData\Local\Temp\ccMSPWBt.s:1282   .text.BSP_LCD_GetBackColor:00000014 $d
C:\Users\milek\AppData\Local\Temp\ccMSPWBt.s:1288   .text.BSP_LCD_SetFont:00000000 $t
C:\Users\milek\AppData\Local\Temp\ccMSPWBt.s:1295   .text.BSP_LCD_SetFont:00000000 BSP_LCD_SetFont
C:\Users\milek\AppData\Local\Temp\ccMSPWBt.s:1316   .text.BSP_LCD_SetFont:00000014 $d
C:\Users\milek\AppData\Local\Temp\ccMSPWBt.s:1322   .text.BSP_LCD_GetFont:00000000 $t
C:\Users\milek\AppData\Local\Temp\ccMSPWBt.s:1329   .text.BSP_LCD_GetFont:00000000 BSP_LCD_GetFont
C:\Users\milek\AppData\Local\Temp\ccMSPWBt.s:1349   .text.BSP_LCD_GetFont:00000014 $d
C:\Users\milek\AppData\Local\Temp\ccMSPWBt.s:1355   .text.BSP_LCD_ReadPixel:00000000 $t
C:\Users\milek\AppData\Local\Temp\ccMSPWBt.s:1362   .text.BSP_LCD_ReadPixel:00000000 BSP_LCD_ReadPixel
C:\Users\milek\AppData\Local\Temp\ccMSPWBt.s:1457   .text.BSP_LCD_ReadPixel:0000008c $d
C:\Users\milek\AppData\Local\Temp\ccMSPWBt.s:1463   .text.BSP_LCD_Clear:00000000 $t
C:\Users\milek\AppData\Local\Temp\ccMSPWBt.s:1470   .text.BSP_LCD_Clear:00000000 BSP_LCD_Clear
C:\Users\milek\AppData\Local\Temp\ccMSPWBt.s:1520   .text.BSP_LCD_Clear:00000034 $d
C:\Users\milek\AppData\Local\Temp\ccMSPWBt.s:1526   .text.BSP_LCD_DrawHLine:00000000 $t
C:\Users\milek\AppData\Local\Temp\ccMSPWBt.s:1533   .text.BSP_LCD_DrawHLine:00000000 BSP_LCD_DrawHLine
C:\Users\milek\AppData\Local\Temp\ccMSPWBt.s:1614   .text.BSP_LCD_DrawHLine:0000006c $d
C:\Users\milek\AppData\Local\Temp\ccMSPWBt.s:1621   .text.BSP_LCD_DrawVLine:00000000 $t
C:\Users\milek\AppData\Local\Temp\ccMSPWBt.s:1628   .text.BSP_LCD_DrawVLine:00000000 BSP_LCD_DrawVLine
C:\Users\milek\AppData\Local\Temp\ccMSPWBt.s:1712   .text.BSP_LCD_DrawVLine:00000070 $d
C:\Users\milek\AppData\Local\Temp\ccMSPWBt.s:1719   .text.BSP_LCD_DrawRect:00000000 $t
C:\Users\milek\AppData\Local\Temp\ccMSPWBt.s:1726   .text.BSP_LCD_DrawRect:00000000 BSP_LCD_DrawRect
C:\Users\milek\AppData\Local\Temp\ccMSPWBt.s:1775   .text.BSP_LCD_DrawPixel:00000000 $t
C:\Users\milek\AppData\Local\Temp\ccMSPWBt.s:1782   .text.BSP_LCD_DrawPixel:00000000 BSP_LCD_DrawPixel
C:\Users\milek\AppData\Local\Temp\ccMSPWBt.s:1842   .text.BSP_LCD_DrawPixel:0000004c $d
C:\Users\milek\AppData\Local\Temp\ccMSPWBt.s:1848   .text.DrawChar:00000000 $t
C:\Users\milek\AppData\Local\Temp\ccMSPWBt.s:1854   .text.DrawChar:00000000 DrawChar
C:\Users\milek\AppData\Local\Temp\ccMSPWBt.s:2020   .text.DrawChar:000000e0 $d
C:\Users\milek\AppData\Local\Temp\ccMSPWBt.s:2026   .text.BSP_LCD_DisplayChar:00000000 $t
C:\Users\milek\AppData\Local\Temp\ccMSPWBt.s:2033   .text.BSP_LCD_DisplayChar:00000000 BSP_LCD_DisplayChar
C:\Users\milek\AppData\Local\Temp\ccMSPWBt.s:2075   .text.BSP_LCD_DisplayChar:00000030 $d
C:\Users\milek\AppData\Local\Temp\ccMSPWBt.s:2081   .text.BSP_LCD_DisplayStringAt:00000000 $t
C:\Users\milek\AppData\Local\Temp\ccMSPWBt.s:2088   .text.BSP_LCD_DisplayStringAt:00000000 BSP_LCD_DisplayStringAt
C:\Users\milek\AppData\Local\Temp\ccMSPWBt.s:2246   .text.BSP_LCD_DisplayStringAt:000000c8 $d
C:\Users\milek\AppData\Local\Temp\ccMSPWBt.s:2252   .text.BSP_LCD_DisplayStringAtLine:00000000 $t
ARM GAS  C:\Users\milek\AppData\Local\Temp\ccMSPWBt.s 			page 397


C:\Users\milek\AppData\Local\Temp\ccMSPWBt.s:2259   .text.BSP_LCD_DisplayStringAtLine:00000000 BSP_LCD_DisplayStringAtLine
C:\Users\milek\AppData\Local\Temp\ccMSPWBt.s:2292   .text.BSP_LCD_DrawLine:00000000 $t
C:\Users\milek\AppData\Local\Temp\ccMSPWBt.s:2299   .text.BSP_LCD_DrawLine:00000000 BSP_LCD_DrawLine
C:\Users\milek\AppData\Local\Temp\ccMSPWBt.s:2510   .text.BSP_LCD_DrawLine:000000f4 $d
C:\Users\milek\AppData\Local\Temp\ccMSPWBt.s:2516   .text.BSP_LCD_DrawPolygon:00000000 $t
C:\Users\milek\AppData\Local\Temp\ccMSPWBt.s:2523   .text.BSP_LCD_DrawPolygon:00000000 BSP_LCD_DrawPolygon
C:\Users\milek\AppData\Local\Temp\ccMSPWBt.s:2602   .text.FillTriangle:00000000 $t
C:\Users\milek\AppData\Local\Temp\ccMSPWBt.s:2608   .text.FillTriangle:00000000 FillTriangle
C:\Users\milek\AppData\Local\Temp\ccMSPWBt.s:2820   .text.BSP_LCD_DrawCircle:00000000 $t
C:\Users\milek\AppData\Local\Temp\ccMSPWBt.s:2827   .text.BSP_LCD_DrawCircle:00000000 BSP_LCD_DrawCircle
C:\Users\milek\AppData\Local\Temp\ccMSPWBt.s:3003   .text.BSP_LCD_DrawCircle:00000120 $d
C:\Users\milek\AppData\Local\Temp\ccMSPWBt.s:3009   .text.BSP_LCD_DrawEllipse:00000000 $t
C:\Users\milek\AppData\Local\Temp\ccMSPWBt.s:3016   .text.BSP_LCD_DrawEllipse:00000000 BSP_LCD_DrawEllipse
C:\Users\milek\AppData\Local\Temp\ccMSPWBt.s:3191   .text.BSP_LCD_DrawEllipse:00000104 $d
C:\Users\milek\AppData\Local\Temp\ccMSPWBt.s:3197   .text.BSP_LCD_DrawBitmap:00000000 $t
C:\Users\milek\AppData\Local\Temp\ccMSPWBt.s:3204   .text.BSP_LCD_DrawBitmap:00000000 BSP_LCD_DrawBitmap
C:\Users\milek\AppData\Local\Temp\ccMSPWBt.s:3340   .text.BSP_LCD_DrawBitmap:000000c4 $d
C:\Users\milek\AppData\Local\Temp\ccMSPWBt.s:3346   .text.BSP_LCD_FillRect:00000000 $t
C:\Users\milek\AppData\Local\Temp\ccMSPWBt.s:3353   .text.BSP_LCD_FillRect:00000000 BSP_LCD_FillRect
C:\Users\milek\AppData\Local\Temp\ccMSPWBt.s:3449   .text.BSP_LCD_FillRect:00000084 $d
C:\Users\milek\AppData\Local\Temp\ccMSPWBt.s:3456   .text.BSP_LCD_ClearStringLine:00000000 $t
C:\Users\milek\AppData\Local\Temp\ccMSPWBt.s:3463   .text.BSP_LCD_ClearStringLine:00000000 BSP_LCD_ClearStringLine
C:\Users\milek\AppData\Local\Temp\ccMSPWBt.s:3522   .text.BSP_LCD_ClearStringLine:0000004c $d
C:\Users\milek\AppData\Local\Temp\ccMSPWBt.s:3528   .text.BSP_LCD_FillCircle:00000000 $t
C:\Users\milek\AppData\Local\Temp\ccMSPWBt.s:3535   .text.BSP_LCD_FillCircle:00000000 BSP_LCD_FillCircle
C:\Users\milek\AppData\Local\Temp\ccMSPWBt.s:3686   .text.BSP_LCD_FillCircle:000000d0 $d
C:\Users\milek\AppData\Local\Temp\ccMSPWBt.s:3692   .text.BSP_LCD_FillPolygon:00000000 $t
C:\Users\milek\AppData\Local\Temp\ccMSPWBt.s:3699   .text.BSP_LCD_FillPolygon:00000000 BSP_LCD_FillPolygon
C:\Users\milek\AppData\Local\Temp\ccMSPWBt.s:3922   .text.BSP_LCD_FillEllipse:00000000 $t
C:\Users\milek\AppData\Local\Temp\ccMSPWBt.s:3929   .text.BSP_LCD_FillEllipse:00000000 BSP_LCD_FillEllipse
C:\Users\milek\AppData\Local\Temp\ccMSPWBt.s:4071   .text.BSP_LCD_DisplayOn:00000000 $t
C:\Users\milek\AppData\Local\Temp\ccMSPWBt.s:4078   .text.BSP_LCD_DisplayOn:00000000 BSP_LCD_DisplayOn
C:\Users\milek\AppData\Local\Temp\ccMSPWBt.s:4112   .text.BSP_LCD_DisplayOn:00000028 $d
C:\Users\milek\AppData\Local\Temp\ccMSPWBt.s:4119   .text.BSP_LCD_DisplayOff:00000000 $t
C:\Users\milek\AppData\Local\Temp\ccMSPWBt.s:4126   .text.BSP_LCD_DisplayOff:00000000 BSP_LCD_DisplayOff
C:\Users\milek\AppData\Local\Temp\ccMSPWBt.s:4160   .text.BSP_LCD_DisplayOff:00000028 $d
C:\Users\milek\AppData\Local\Temp\ccMSPWBt.s:4167   .text.BSP_LCD_MspInit:00000000 $t
C:\Users\milek\AppData\Local\Temp\ccMSPWBt.s:4174   .text.BSP_LCD_MspInit:00000000 BSP_LCD_MspInit
C:\Users\milek\AppData\Local\Temp\ccMSPWBt.s:4384   .text.BSP_LCD_MspInit:00000130 $d
C:\Users\milek\AppData\Local\Temp\ccMSPWBt.s:4394   .text.BSP_LCD_MspDeInit:00000000 $t
C:\Users\milek\AppData\Local\Temp\ccMSPWBt.s:4401   .text.BSP_LCD_MspDeInit:00000000 BSP_LCD_MspDeInit
C:\Users\milek\AppData\Local\Temp\ccMSPWBt.s:4455   .text.BSP_LCD_MspDeInit:00000048 $d
C:\Users\milek\AppData\Local\Temp\ccMSPWBt.s:4465   .text.BSP_LCD_DeInit:00000000 $t
C:\Users\milek\AppData\Local\Temp\ccMSPWBt.s:4472   .text.BSP_LCD_DeInit:00000000 BSP_LCD_DeInit
C:\Users\milek\AppData\Local\Temp\ccMSPWBt.s:4506   .text.BSP_LCD_DeInit:00000024 $d
C:\Users\milek\AppData\Local\Temp\ccMSPWBt.s:4512   .text.BSP_LCD_ClockConfig:00000000 $t
C:\Users\milek\AppData\Local\Temp\ccMSPWBt.s:4519   .text.BSP_LCD_ClockConfig:00000000 BSP_LCD_ClockConfig
C:\Users\milek\AppData\Local\Temp\ccMSPWBt.s:4553   .text.BSP_LCD_ClockConfig:0000001c $d
C:\Users\milek\AppData\Local\Temp\ccMSPWBt.s:4558   .text.BSP_LCD_Init:00000000 $t
C:\Users\milek\AppData\Local\Temp\ccMSPWBt.s:4565   .text.BSP_LCD_Init:00000000 BSP_LCD_Init
C:\Users\milek\AppData\Local\Temp\ccMSPWBt.s:4672   .text.BSP_LCD_Init:00000098 $d
C:\Users\milek\AppData\Local\Temp\ccMSPWBt.s:4756   .data.Font8:00000000 Font8
C:\Users\milek\AppData\Local\Temp\ccMSPWBt.s:19604  .rodata.Font8_Table:00000000 Font8_Table
C:\Users\milek\AppData\Local\Temp\ccMSPWBt.s:4723   .data.Font12:00000000 Font12
C:\Users\milek\AppData\Local\Temp\ccMSPWBt.s:4764   .rodata.Font12_Table:00000000 Font12_Table
C:\Users\milek\AppData\Local\Temp\ccMSPWBt.s:4731   .data.Font16:00000000 Font16
C:\Users\milek\AppData\Local\Temp\ccMSPWBt.s:5909   .rodata.Font16_Table:00000000 Font16_Table
ARM GAS  C:\Users\milek\AppData\Local\Temp\ccMSPWBt.s 			page 398


C:\Users\milek\AppData\Local\Temp\ccMSPWBt.s:4739   .data.Font20:00000000 Font20
C:\Users\milek\AppData\Local\Temp\ccMSPWBt.s:8954   .rodata.Font20_Table:00000000 Font20_Table
C:\Users\milek\AppData\Local\Temp\ccMSPWBt.s:4748   .data.Font24:00000000 Font24
C:\Users\milek\AppData\Local\Temp\ccMSPWBt.s:12759  .rodata.Font24_Table:00000000 Font24_Table
C:\Users\milek\AppData\Local\Temp\ccMSPWBt.s:4692   .bss.ActiveLayer:00000000 $d
C:\Users\milek\AppData\Local\Temp\ccMSPWBt.s:4696   .bss.ActiveLayer:00000000 ActiveLayer
C:\Users\milek\AppData\Local\Temp\ccMSPWBt.s:4699   .bss.DrawProp:00000000 $d
C:\Users\milek\AppData\Local\Temp\ccMSPWBt.s:4703   .bss.DrawProp:00000000 DrawProp
C:\Users\milek\AppData\Local\Temp\ccMSPWBt.s:4706   .bss.hDma2dHandler:00000000 $d
C:\Users\milek\AppData\Local\Temp\ccMSPWBt.s:4710   .bss.hDma2dHandler:00000000 hDma2dHandler
C:\Users\milek\AppData\Local\Temp\ccMSPWBt.s:4713   .bss.periph_clk_init_struct.12437:00000000 $d
C:\Users\milek\AppData\Local\Temp\ccMSPWBt.s:4717   .bss.periph_clk_init_struct.12437:00000000 periph_clk_init_struct.12437
C:\Users\milek\AppData\Local\Temp\ccMSPWBt.s:4720   .data.Font12:00000000 $d
C:\Users\milek\AppData\Local\Temp\ccMSPWBt.s:4728   .data.Font16:00000000 $d
C:\Users\milek\AppData\Local\Temp\ccMSPWBt.s:4736   .data.Font20:00000000 $d
C:\Users\milek\AppData\Local\Temp\ccMSPWBt.s:4744   .data.Font24:00000000 $d
C:\Users\milek\AppData\Local\Temp\ccMSPWBt.s:4753   .data.Font8:00000000 $d
C:\Users\milek\AppData\Local\Temp\ccMSPWBt.s:4761   .rodata.Font12_Table:00000000 $d
C:\Users\milek\AppData\Local\Temp\ccMSPWBt.s:5906   .rodata.Font16_Table:00000000 $d
C:\Users\milek\AppData\Local\Temp\ccMSPWBt.s:8951   .rodata.Font20_Table:00000000 $d
C:\Users\milek\AppData\Local\Temp\ccMSPWBt.s:12756  .rodata.Font24_Table:00000000 $d
C:\Users\milek\AppData\Local\Temp\ccMSPWBt.s:19601  .rodata.Font8_Table:00000000 $d

UNDEFINED SYMBOLS
HAL_DMA2D_Init
HAL_DMA2D_ConfigLayer
HAL_DMA2D_Start
HAL_DMA2D_PollForTransfer
HAL_LTDC_ConfigLayer
HAL_LTDC_SetAlpha
HAL_LTDC_SetAlpha_NoReload
HAL_LTDC_SetAddress
HAL_LTDC_SetAddress_NoReload
HAL_LTDC_SetWindowSize
HAL_LTDC_SetWindowPosition
HAL_LTDC_SetWindowSize_NoReload
HAL_LTDC_SetWindowPosition_NoReload
HAL_LTDC_ConfigColorKeying
HAL_LTDC_EnableColorKeying
HAL_LTDC_ConfigColorKeying_NoReload
HAL_LTDC_EnableColorKeying_NoReload
HAL_LTDC_DisableColorKeying
HAL_LTDC_DisableColorKeying_NoReload
HAL_LTDC_Reload
HAL_GPIO_WritePin
HAL_GPIO_Init
HAL_GPIO_DeInit
HAL_LTDC_DeInit
HAL_RCCEx_PeriphCLKConfig
HAL_LTDC_GetState
HAL_LTDC_Init
BSP_SDRAM_Init
