ARM GAS  C:\Users\Student\AppData\Local\Temp\ccO0FPJj.s 			page 1


   1              		.cpu cortex-m7
   2              		.eabi_attribute 27, 1
   3              		.eabi_attribute 28, 1
   4              		.eabi_attribute 20, 1
   5              		.eabi_attribute 21, 1
   6              		.eabi_attribute 23, 3
   7              		.eabi_attribute 24, 1
   8              		.eabi_attribute 25, 1
   9              		.eabi_attribute 26, 1
  10              		.eabi_attribute 30, 1
  11              		.eabi_attribute 34, 1
  12              		.eabi_attribute 18, 4
  13              		.file	"stm32f7xx_hal_msp.c"
  14              		.text
  15              	.Ltext0:
  16              		.cfi_sections	.debug_frame
  17              		.section	.text.HAL_FMC_MspInit,"ax",%progbits
  18              		.align	1
  19              		.syntax unified
  20              		.thumb
  21              		.thumb_func
  22              		.fpu fpv5-sp-d16
  24              	HAL_FMC_MspInit:
  25              	.LFB166:
  26              		.file 1 "Src/stm32f7xx_hal_msp.c"
   1:Src/stm32f7xx_hal_msp.c **** /**
   2:Src/stm32f7xx_hal_msp.c ****   ******************************************************************************
   3:Src/stm32f7xx_hal_msp.c ****   * File Name          : stm32f7xx_hal_msp.c
   4:Src/stm32f7xx_hal_msp.c ****   * Description        : This file provides code for the MSP Initialization 
   5:Src/stm32f7xx_hal_msp.c ****   *                      and de-Initialization codes.
   6:Src/stm32f7xx_hal_msp.c ****   ******************************************************************************
   7:Src/stm32f7xx_hal_msp.c ****   * This notice applies to any and all portions of this file
   8:Src/stm32f7xx_hal_msp.c ****   * that are not between comment pairs USER CODE BEGIN and
   9:Src/stm32f7xx_hal_msp.c ****   * USER CODE END. Other portions of this file, whether 
  10:Src/stm32f7xx_hal_msp.c ****   * inserted by the user or by software development tools
  11:Src/stm32f7xx_hal_msp.c ****   * are owned by their respective copyright owners.
  12:Src/stm32f7xx_hal_msp.c ****   *
  13:Src/stm32f7xx_hal_msp.c ****   * Copyright (c) 2018 STMicroelectronics International N.V. 
  14:Src/stm32f7xx_hal_msp.c ****   * All rights reserved.
  15:Src/stm32f7xx_hal_msp.c ****   *
  16:Src/stm32f7xx_hal_msp.c ****   * Redistribution and use in source and binary forms, with or without 
  17:Src/stm32f7xx_hal_msp.c ****   * modification, are permitted, provided that the following conditions are met:
  18:Src/stm32f7xx_hal_msp.c ****   *
  19:Src/stm32f7xx_hal_msp.c ****   * 1. Redistribution of source code must retain the above copyright notice, 
  20:Src/stm32f7xx_hal_msp.c ****   *    this list of conditions and the following disclaimer.
  21:Src/stm32f7xx_hal_msp.c ****   * 2. Redistributions in binary form must reproduce the above copyright notice,
  22:Src/stm32f7xx_hal_msp.c ****   *    this list of conditions and the following disclaimer in the documentation
  23:Src/stm32f7xx_hal_msp.c ****   *    and/or other materials provided with the distribution.
  24:Src/stm32f7xx_hal_msp.c ****   * 3. Neither the name of STMicroelectronics nor the names of other 
  25:Src/stm32f7xx_hal_msp.c ****   *    contributors to this software may be used to endorse or promote products 
  26:Src/stm32f7xx_hal_msp.c ****   *    derived from this software without specific written permission.
  27:Src/stm32f7xx_hal_msp.c ****   * 4. This software, including modifications and/or derivative works of this 
  28:Src/stm32f7xx_hal_msp.c ****   *    software, must execute solely and exclusively on microcontroller or
  29:Src/stm32f7xx_hal_msp.c ****   *    microprocessor devices manufactured by or for STMicroelectronics.
  30:Src/stm32f7xx_hal_msp.c ****   * 5. Redistribution and use of this software other than as permitted under 
  31:Src/stm32f7xx_hal_msp.c ****   *    this license is void and will automatically terminate your rights under 
  32:Src/stm32f7xx_hal_msp.c ****   *    this license. 
ARM GAS  C:\Users\Student\AppData\Local\Temp\ccO0FPJj.s 			page 2


  33:Src/stm32f7xx_hal_msp.c ****   *
  34:Src/stm32f7xx_hal_msp.c ****   * THIS SOFTWARE IS PROVIDED BY STMICROELECTRONICS AND CONTRIBUTORS "AS IS" 
  35:Src/stm32f7xx_hal_msp.c ****   * AND ANY EXPRESS, IMPLIED OR STATUTORY WARRANTIES, INCLUDING, BUT NOT 
  36:Src/stm32f7xx_hal_msp.c ****   * LIMITED TO, THE IMPLIED WARRANTIES OF MERCHANTABILITY, FITNESS FOR A 
  37:Src/stm32f7xx_hal_msp.c ****   * PARTICULAR PURPOSE AND NON-INFRINGEMENT OF THIRD PARTY INTELLECTUAL PROPERTY
  38:Src/stm32f7xx_hal_msp.c ****   * RIGHTS ARE DISCLAIMED TO THE FULLEST EXTENT PERMITTED BY LAW. IN NO EVENT 
  39:Src/stm32f7xx_hal_msp.c ****   * SHALL STMICROELECTRONICS OR CONTRIBUTORS BE LIABLE FOR ANY DIRECT, INDIRECT,
  40:Src/stm32f7xx_hal_msp.c ****   * INCIDENTAL, SPECIAL, EXEMPLARY, OR CONSEQUENTIAL DAMAGES (INCLUDING, BUT NOT
  41:Src/stm32f7xx_hal_msp.c ****   * LIMITED TO, PROCUREMENT OF SUBSTITUTE GOODS OR SERVICES; LOSS OF USE, DATA, 
  42:Src/stm32f7xx_hal_msp.c ****   * OR PROFITS; OR BUSINESS INTERRUPTION) HOWEVER CAUSED AND ON ANY THEORY OF 
  43:Src/stm32f7xx_hal_msp.c ****   * LIABILITY, WHETHER IN CONTRACT, STRICT LIABILITY, OR TORT (INCLUDING 
  44:Src/stm32f7xx_hal_msp.c ****   * NEGLIGENCE OR OTHERWISE) ARISING IN ANY WAY OUT OF THE USE OF THIS SOFTWARE,
  45:Src/stm32f7xx_hal_msp.c ****   * EVEN IF ADVISED OF THE POSSIBILITY OF SUCH DAMAGE.
  46:Src/stm32f7xx_hal_msp.c ****   *
  47:Src/stm32f7xx_hal_msp.c ****   ******************************************************************************
  48:Src/stm32f7xx_hal_msp.c ****   */
  49:Src/stm32f7xx_hal_msp.c **** /* Includes ------------------------------------------------------------------*/
  50:Src/stm32f7xx_hal_msp.c **** #include "stm32f7xx_hal.h"
  51:Src/stm32f7xx_hal_msp.c **** extern void _Error_Handler(char *, int);
  52:Src/stm32f7xx_hal_msp.c **** /* USER CODE BEGIN 0 */
  53:Src/stm32f7xx_hal_msp.c **** 
  54:Src/stm32f7xx_hal_msp.c **** /* USER CODE END 0 */
  55:Src/stm32f7xx_hal_msp.c ****                         
  56:Src/stm32f7xx_hal_msp.c **** void HAL_TIM_MspPostInit(TIM_HandleTypeDef *htim);
  57:Src/stm32f7xx_hal_msp.c ****                                                                                                    
  58:Src/stm32f7xx_hal_msp.c ****   * Initializes the Global MSP.
  59:Src/stm32f7xx_hal_msp.c ****   */
  60:Src/stm32f7xx_hal_msp.c **** void HAL_MspInit(void)
  61:Src/stm32f7xx_hal_msp.c **** {
  62:Src/stm32f7xx_hal_msp.c ****   /* USER CODE BEGIN MspInit 0 */
  63:Src/stm32f7xx_hal_msp.c **** 
  64:Src/stm32f7xx_hal_msp.c ****   /* USER CODE END MspInit 0 */
  65:Src/stm32f7xx_hal_msp.c **** 
  66:Src/stm32f7xx_hal_msp.c ****   __HAL_RCC_PWR_CLK_ENABLE();
  67:Src/stm32f7xx_hal_msp.c ****   __HAL_RCC_SYSCFG_CLK_ENABLE();
  68:Src/stm32f7xx_hal_msp.c **** 
  69:Src/stm32f7xx_hal_msp.c ****   HAL_NVIC_SetPriorityGrouping(NVIC_PRIORITYGROUP_4);
  70:Src/stm32f7xx_hal_msp.c **** 
  71:Src/stm32f7xx_hal_msp.c ****   /* System interrupt init*/
  72:Src/stm32f7xx_hal_msp.c ****   /* MemoryManagement_IRQn interrupt configuration */
  73:Src/stm32f7xx_hal_msp.c ****   HAL_NVIC_SetPriority(MemoryManagement_IRQn, 0, 0);
  74:Src/stm32f7xx_hal_msp.c ****   /* BusFault_IRQn interrupt configuration */
  75:Src/stm32f7xx_hal_msp.c ****   HAL_NVIC_SetPriority(BusFault_IRQn, 0, 0);
  76:Src/stm32f7xx_hal_msp.c ****   /* UsageFault_IRQn interrupt configuration */
  77:Src/stm32f7xx_hal_msp.c ****   HAL_NVIC_SetPriority(UsageFault_IRQn, 0, 0);
  78:Src/stm32f7xx_hal_msp.c ****   /* SVCall_IRQn interrupt configuration */
  79:Src/stm32f7xx_hal_msp.c ****   HAL_NVIC_SetPriority(SVCall_IRQn, 0, 0);
  80:Src/stm32f7xx_hal_msp.c ****   /* DebugMonitor_IRQn interrupt configuration */
  81:Src/stm32f7xx_hal_msp.c ****   HAL_NVIC_SetPriority(DebugMonitor_IRQn, 0, 0);
  82:Src/stm32f7xx_hal_msp.c ****   /* PendSV_IRQn interrupt configuration */
  83:Src/stm32f7xx_hal_msp.c ****   HAL_NVIC_SetPriority(PendSV_IRQn, 15, 0);
  84:Src/stm32f7xx_hal_msp.c ****   /* SysTick_IRQn interrupt configuration */
  85:Src/stm32f7xx_hal_msp.c ****   HAL_NVIC_SetPriority(SysTick_IRQn, 15, 0);
  86:Src/stm32f7xx_hal_msp.c **** 
  87:Src/stm32f7xx_hal_msp.c ****   /* USER CODE BEGIN MspInit 1 */
  88:Src/stm32f7xx_hal_msp.c **** 
  89:Src/stm32f7xx_hal_msp.c ****   /* USER CODE END MspInit 1 */
ARM GAS  C:\Users\Student\AppData\Local\Temp\ccO0FPJj.s 			page 3


  90:Src/stm32f7xx_hal_msp.c **** }
  91:Src/stm32f7xx_hal_msp.c **** 
  92:Src/stm32f7xx_hal_msp.c **** void HAL_ADC_MspInit(ADC_HandleTypeDef* hadc)
  93:Src/stm32f7xx_hal_msp.c **** {
  94:Src/stm32f7xx_hal_msp.c **** 
  95:Src/stm32f7xx_hal_msp.c ****   GPIO_InitTypeDef GPIO_InitStruct;
  96:Src/stm32f7xx_hal_msp.c ****   if(hadc->Instance==ADC3)
  97:Src/stm32f7xx_hal_msp.c ****   {
  98:Src/stm32f7xx_hal_msp.c ****   /* USER CODE BEGIN ADC3_MspInit 0 */
  99:Src/stm32f7xx_hal_msp.c **** 
 100:Src/stm32f7xx_hal_msp.c ****   /* USER CODE END ADC3_MspInit 0 */
 101:Src/stm32f7xx_hal_msp.c ****     /* Peripheral clock enable */
 102:Src/stm32f7xx_hal_msp.c ****     __HAL_RCC_ADC3_CLK_ENABLE();
 103:Src/stm32f7xx_hal_msp.c ****   
 104:Src/stm32f7xx_hal_msp.c ****     /**ADC3 GPIO Configuration    
 105:Src/stm32f7xx_hal_msp.c ****     PF7     ------> ADC3_IN5
 106:Src/stm32f7xx_hal_msp.c ****     PF6     ------> ADC3_IN4
 107:Src/stm32f7xx_hal_msp.c ****     PF10     ------> ADC3_IN8
 108:Src/stm32f7xx_hal_msp.c ****     PF9     ------> ADC3_IN7
 109:Src/stm32f7xx_hal_msp.c ****     PF8     ------> ADC3_IN6
 110:Src/stm32f7xx_hal_msp.c ****     PA0/WKUP     ------> ADC3_IN0 
 111:Src/stm32f7xx_hal_msp.c ****     */
 112:Src/stm32f7xx_hal_msp.c ****     GPIO_InitStruct.Pin = ARDUINO_A4_Pin|ARDUINO_A5_Pin|ARDUINO_A1_Pin|ARDUINO_A2_Pin 
 113:Src/stm32f7xx_hal_msp.c ****                           |ARDUINO_A3_Pin;
 114:Src/stm32f7xx_hal_msp.c ****     GPIO_InitStruct.Mode = GPIO_MODE_ANALOG;
 115:Src/stm32f7xx_hal_msp.c ****     GPIO_InitStruct.Pull = GPIO_NOPULL;
 116:Src/stm32f7xx_hal_msp.c ****     HAL_GPIO_Init(GPIOF, &GPIO_InitStruct);
 117:Src/stm32f7xx_hal_msp.c **** 
 118:Src/stm32f7xx_hal_msp.c ****     GPIO_InitStruct.Pin = ARDUINO_A0_Pin;
 119:Src/stm32f7xx_hal_msp.c ****     GPIO_InitStruct.Mode = GPIO_MODE_ANALOG;
 120:Src/stm32f7xx_hal_msp.c ****     GPIO_InitStruct.Pull = GPIO_NOPULL;
 121:Src/stm32f7xx_hal_msp.c ****     HAL_GPIO_Init(ARDUINO_A0_GPIO_Port, &GPIO_InitStruct);
 122:Src/stm32f7xx_hal_msp.c **** 
 123:Src/stm32f7xx_hal_msp.c ****   /* USER CODE BEGIN ADC3_MspInit 1 */
 124:Src/stm32f7xx_hal_msp.c **** 
 125:Src/stm32f7xx_hal_msp.c ****   /* USER CODE END ADC3_MspInit 1 */
 126:Src/stm32f7xx_hal_msp.c ****   }
 127:Src/stm32f7xx_hal_msp.c **** 
 128:Src/stm32f7xx_hal_msp.c **** }
 129:Src/stm32f7xx_hal_msp.c **** 
 130:Src/stm32f7xx_hal_msp.c **** void HAL_ADC_MspDeInit(ADC_HandleTypeDef* hadc)
 131:Src/stm32f7xx_hal_msp.c **** {
 132:Src/stm32f7xx_hal_msp.c **** 
 133:Src/stm32f7xx_hal_msp.c ****   if(hadc->Instance==ADC3)
 134:Src/stm32f7xx_hal_msp.c ****   {
 135:Src/stm32f7xx_hal_msp.c ****   /* USER CODE BEGIN ADC3_MspDeInit 0 */
 136:Src/stm32f7xx_hal_msp.c **** 
 137:Src/stm32f7xx_hal_msp.c ****   /* USER CODE END ADC3_MspDeInit 0 */
 138:Src/stm32f7xx_hal_msp.c ****     /* Peripheral clock disable */
 139:Src/stm32f7xx_hal_msp.c ****     __HAL_RCC_ADC3_CLK_DISABLE();
 140:Src/stm32f7xx_hal_msp.c ****   
 141:Src/stm32f7xx_hal_msp.c ****     /**ADC3 GPIO Configuration    
 142:Src/stm32f7xx_hal_msp.c ****     PF7     ------> ADC3_IN5
 143:Src/stm32f7xx_hal_msp.c ****     PF6     ------> ADC3_IN4
 144:Src/stm32f7xx_hal_msp.c ****     PF10     ------> ADC3_IN8
 145:Src/stm32f7xx_hal_msp.c ****     PF9     ------> ADC3_IN7
 146:Src/stm32f7xx_hal_msp.c ****     PF8     ------> ADC3_IN6
ARM GAS  C:\Users\Student\AppData\Local\Temp\ccO0FPJj.s 			page 4


 147:Src/stm32f7xx_hal_msp.c ****     PA0/WKUP     ------> ADC3_IN0 
 148:Src/stm32f7xx_hal_msp.c ****     */
 149:Src/stm32f7xx_hal_msp.c ****     HAL_GPIO_DeInit(GPIOF, ARDUINO_A4_Pin|ARDUINO_A5_Pin|ARDUINO_A1_Pin|ARDUINO_A2_Pin 
 150:Src/stm32f7xx_hal_msp.c ****                           |ARDUINO_A3_Pin);
 151:Src/stm32f7xx_hal_msp.c **** 
 152:Src/stm32f7xx_hal_msp.c ****     HAL_GPIO_DeInit(ARDUINO_A0_GPIO_Port, ARDUINO_A0_Pin);
 153:Src/stm32f7xx_hal_msp.c **** 
 154:Src/stm32f7xx_hal_msp.c ****   /* USER CODE BEGIN ADC3_MspDeInit 1 */
 155:Src/stm32f7xx_hal_msp.c **** 
 156:Src/stm32f7xx_hal_msp.c ****   /* USER CODE END ADC3_MspDeInit 1 */
 157:Src/stm32f7xx_hal_msp.c ****   }
 158:Src/stm32f7xx_hal_msp.c **** 
 159:Src/stm32f7xx_hal_msp.c **** }
 160:Src/stm32f7xx_hal_msp.c **** 
 161:Src/stm32f7xx_hal_msp.c **** void HAL_CRC_MspInit(CRC_HandleTypeDef* hcrc)
 162:Src/stm32f7xx_hal_msp.c **** {
 163:Src/stm32f7xx_hal_msp.c **** 
 164:Src/stm32f7xx_hal_msp.c ****   if(hcrc->Instance==CRC)
 165:Src/stm32f7xx_hal_msp.c ****   {
 166:Src/stm32f7xx_hal_msp.c ****   /* USER CODE BEGIN CRC_MspInit 0 */
 167:Src/stm32f7xx_hal_msp.c **** 
 168:Src/stm32f7xx_hal_msp.c ****   /* USER CODE END CRC_MspInit 0 */
 169:Src/stm32f7xx_hal_msp.c ****     /* Peripheral clock enable */
 170:Src/stm32f7xx_hal_msp.c ****     __HAL_RCC_CRC_CLK_ENABLE();
 171:Src/stm32f7xx_hal_msp.c ****   /* USER CODE BEGIN CRC_MspInit 1 */
 172:Src/stm32f7xx_hal_msp.c **** 
 173:Src/stm32f7xx_hal_msp.c ****   /* USER CODE END CRC_MspInit 1 */
 174:Src/stm32f7xx_hal_msp.c ****   }
 175:Src/stm32f7xx_hal_msp.c **** 
 176:Src/stm32f7xx_hal_msp.c **** }
 177:Src/stm32f7xx_hal_msp.c **** 
 178:Src/stm32f7xx_hal_msp.c **** void HAL_CRC_MspDeInit(CRC_HandleTypeDef* hcrc)
 179:Src/stm32f7xx_hal_msp.c **** {
 180:Src/stm32f7xx_hal_msp.c **** 
 181:Src/stm32f7xx_hal_msp.c ****   if(hcrc->Instance==CRC)
 182:Src/stm32f7xx_hal_msp.c ****   {
 183:Src/stm32f7xx_hal_msp.c ****   /* USER CODE BEGIN CRC_MspDeInit 0 */
 184:Src/stm32f7xx_hal_msp.c **** 
 185:Src/stm32f7xx_hal_msp.c ****   /* USER CODE END CRC_MspDeInit 0 */
 186:Src/stm32f7xx_hal_msp.c ****     /* Peripheral clock disable */
 187:Src/stm32f7xx_hal_msp.c ****     __HAL_RCC_CRC_CLK_DISABLE();
 188:Src/stm32f7xx_hal_msp.c ****   /* USER CODE BEGIN CRC_MspDeInit 1 */
 189:Src/stm32f7xx_hal_msp.c **** 
 190:Src/stm32f7xx_hal_msp.c ****   /* USER CODE END CRC_MspDeInit 1 */
 191:Src/stm32f7xx_hal_msp.c ****   }
 192:Src/stm32f7xx_hal_msp.c **** 
 193:Src/stm32f7xx_hal_msp.c **** }
 194:Src/stm32f7xx_hal_msp.c **** 
 195:Src/stm32f7xx_hal_msp.c **** void HAL_DCMI_MspInit(DCMI_HandleTypeDef* hdcmi)
 196:Src/stm32f7xx_hal_msp.c **** {
 197:Src/stm32f7xx_hal_msp.c **** 
 198:Src/stm32f7xx_hal_msp.c ****   GPIO_InitTypeDef GPIO_InitStruct;
 199:Src/stm32f7xx_hal_msp.c ****   if(hdcmi->Instance==DCMI)
 200:Src/stm32f7xx_hal_msp.c ****   {
 201:Src/stm32f7xx_hal_msp.c ****   /* USER CODE BEGIN DCMI_MspInit 0 */
 202:Src/stm32f7xx_hal_msp.c **** 
 203:Src/stm32f7xx_hal_msp.c ****   /* USER CODE END DCMI_MspInit 0 */
ARM GAS  C:\Users\Student\AppData\Local\Temp\ccO0FPJj.s 			page 5


 204:Src/stm32f7xx_hal_msp.c ****     /* Peripheral clock enable */
 205:Src/stm32f7xx_hal_msp.c ****     __HAL_RCC_DCMI_CLK_ENABLE();
 206:Src/stm32f7xx_hal_msp.c ****   
 207:Src/stm32f7xx_hal_msp.c ****     /**DCMI GPIO Configuration    
 208:Src/stm32f7xx_hal_msp.c ****     PE5     ------> DCMI_D6
 209:Src/stm32f7xx_hal_msp.c ****     PE6     ------> DCMI_D7
 210:Src/stm32f7xx_hal_msp.c ****     PD3     ------> DCMI_D5
 211:Src/stm32f7xx_hal_msp.c ****     PG9     ------> DCMI_VSYNC
 212:Src/stm32f7xx_hal_msp.c ****     PH14     ------> DCMI_D4
 213:Src/stm32f7xx_hal_msp.c ****     PH12     ------> DCMI_D3
 214:Src/stm32f7xx_hal_msp.c ****     PA4     ------> DCMI_HSYNC
 215:Src/stm32f7xx_hal_msp.c ****     PH9     ------> DCMI_D0
 216:Src/stm32f7xx_hal_msp.c ****     PH11     ------> DCMI_D2
 217:Src/stm32f7xx_hal_msp.c ****     PA6     ------> DCMI_PIXCLK
 218:Src/stm32f7xx_hal_msp.c ****     PH10     ------> DCMI_D1 
 219:Src/stm32f7xx_hal_msp.c ****     */
 220:Src/stm32f7xx_hal_msp.c ****     GPIO_InitStruct.Pin = DCMI_D6_Pin|DCMI_D7_Pin;
 221:Src/stm32f7xx_hal_msp.c ****     GPIO_InitStruct.Mode = GPIO_MODE_AF_PP;
 222:Src/stm32f7xx_hal_msp.c ****     GPIO_InitStruct.Pull = GPIO_NOPULL;
 223:Src/stm32f7xx_hal_msp.c ****     GPIO_InitStruct.Speed = GPIO_SPEED_FREQ_LOW;
 224:Src/stm32f7xx_hal_msp.c ****     GPIO_InitStruct.Alternate = GPIO_AF13_DCMI;
 225:Src/stm32f7xx_hal_msp.c ****     HAL_GPIO_Init(GPIOE, &GPIO_InitStruct);
 226:Src/stm32f7xx_hal_msp.c **** 
 227:Src/stm32f7xx_hal_msp.c ****     GPIO_InitStruct.Pin = DCMI_D5_Pin;
 228:Src/stm32f7xx_hal_msp.c ****     GPIO_InitStruct.Mode = GPIO_MODE_AF_PP;
 229:Src/stm32f7xx_hal_msp.c ****     GPIO_InitStruct.Pull = GPIO_NOPULL;
 230:Src/stm32f7xx_hal_msp.c ****     GPIO_InitStruct.Speed = GPIO_SPEED_FREQ_LOW;
 231:Src/stm32f7xx_hal_msp.c ****     GPIO_InitStruct.Alternate = GPIO_AF13_DCMI;
 232:Src/stm32f7xx_hal_msp.c ****     HAL_GPIO_Init(DCMI_D5_GPIO_Port, &GPIO_InitStruct);
 233:Src/stm32f7xx_hal_msp.c **** 
 234:Src/stm32f7xx_hal_msp.c ****     GPIO_InitStruct.Pin = DCMI_VSYNC_Pin;
 235:Src/stm32f7xx_hal_msp.c ****     GPIO_InitStruct.Mode = GPIO_MODE_AF_PP;
 236:Src/stm32f7xx_hal_msp.c ****     GPIO_InitStruct.Pull = GPIO_NOPULL;
 237:Src/stm32f7xx_hal_msp.c ****     GPIO_InitStruct.Speed = GPIO_SPEED_FREQ_LOW;
 238:Src/stm32f7xx_hal_msp.c ****     GPIO_InitStruct.Alternate = GPIO_AF13_DCMI;
 239:Src/stm32f7xx_hal_msp.c ****     HAL_GPIO_Init(DCMI_VSYNC_GPIO_Port, &GPIO_InitStruct);
 240:Src/stm32f7xx_hal_msp.c **** 
 241:Src/stm32f7xx_hal_msp.c ****     GPIO_InitStruct.Pin = DCMI_D4_Pin|DCMI_D3_Pin|DCMI_D0_Pin|DCMI_D2_Pin 
 242:Src/stm32f7xx_hal_msp.c ****                           |DCMI_D1_Pin;
 243:Src/stm32f7xx_hal_msp.c ****     GPIO_InitStruct.Mode = GPIO_MODE_AF_PP;
 244:Src/stm32f7xx_hal_msp.c ****     GPIO_InitStruct.Pull = GPIO_NOPULL;
 245:Src/stm32f7xx_hal_msp.c ****     GPIO_InitStruct.Speed = GPIO_SPEED_FREQ_LOW;
 246:Src/stm32f7xx_hal_msp.c ****     GPIO_InitStruct.Alternate = GPIO_AF13_DCMI;
 247:Src/stm32f7xx_hal_msp.c ****     HAL_GPIO_Init(GPIOH, &GPIO_InitStruct);
 248:Src/stm32f7xx_hal_msp.c **** 
 249:Src/stm32f7xx_hal_msp.c ****     GPIO_InitStruct.Pin = DCMI_HSYNC_Pin|GPIO_PIN_6;
 250:Src/stm32f7xx_hal_msp.c ****     GPIO_InitStruct.Mode = GPIO_MODE_AF_PP;
 251:Src/stm32f7xx_hal_msp.c ****     GPIO_InitStruct.Pull = GPIO_NOPULL;
 252:Src/stm32f7xx_hal_msp.c ****     GPIO_InitStruct.Speed = GPIO_SPEED_FREQ_LOW;
 253:Src/stm32f7xx_hal_msp.c ****     GPIO_InitStruct.Alternate = GPIO_AF13_DCMI;
 254:Src/stm32f7xx_hal_msp.c ****     HAL_GPIO_Init(GPIOA, &GPIO_InitStruct);
 255:Src/stm32f7xx_hal_msp.c **** 
 256:Src/stm32f7xx_hal_msp.c ****   /* USER CODE BEGIN DCMI_MspInit 1 */
 257:Src/stm32f7xx_hal_msp.c **** 
 258:Src/stm32f7xx_hal_msp.c ****   /* USER CODE END DCMI_MspInit 1 */
 259:Src/stm32f7xx_hal_msp.c ****   }
 260:Src/stm32f7xx_hal_msp.c **** 
ARM GAS  C:\Users\Student\AppData\Local\Temp\ccO0FPJj.s 			page 6


 261:Src/stm32f7xx_hal_msp.c **** }
 262:Src/stm32f7xx_hal_msp.c **** 
 263:Src/stm32f7xx_hal_msp.c **** void HAL_DCMI_MspDeInit(DCMI_HandleTypeDef* hdcmi)
 264:Src/stm32f7xx_hal_msp.c **** {
 265:Src/stm32f7xx_hal_msp.c **** 
 266:Src/stm32f7xx_hal_msp.c ****   if(hdcmi->Instance==DCMI)
 267:Src/stm32f7xx_hal_msp.c ****   {
 268:Src/stm32f7xx_hal_msp.c ****   /* USER CODE BEGIN DCMI_MspDeInit 0 */
 269:Src/stm32f7xx_hal_msp.c **** 
 270:Src/stm32f7xx_hal_msp.c ****   /* USER CODE END DCMI_MspDeInit 0 */
 271:Src/stm32f7xx_hal_msp.c ****     /* Peripheral clock disable */
 272:Src/stm32f7xx_hal_msp.c ****     __HAL_RCC_DCMI_CLK_DISABLE();
 273:Src/stm32f7xx_hal_msp.c ****   
 274:Src/stm32f7xx_hal_msp.c ****     /**DCMI GPIO Configuration    
 275:Src/stm32f7xx_hal_msp.c ****     PE5     ------> DCMI_D6
 276:Src/stm32f7xx_hal_msp.c ****     PE6     ------> DCMI_D7
 277:Src/stm32f7xx_hal_msp.c ****     PD3     ------> DCMI_D5
 278:Src/stm32f7xx_hal_msp.c ****     PG9     ------> DCMI_VSYNC
 279:Src/stm32f7xx_hal_msp.c ****     PH14     ------> DCMI_D4
 280:Src/stm32f7xx_hal_msp.c ****     PH12     ------> DCMI_D3
 281:Src/stm32f7xx_hal_msp.c ****     PA4     ------> DCMI_HSYNC
 282:Src/stm32f7xx_hal_msp.c ****     PH9     ------> DCMI_D0
 283:Src/stm32f7xx_hal_msp.c ****     PH11     ------> DCMI_D2
 284:Src/stm32f7xx_hal_msp.c ****     PA6     ------> DCMI_PIXCLK
 285:Src/stm32f7xx_hal_msp.c ****     PH10     ------> DCMI_D1 
 286:Src/stm32f7xx_hal_msp.c ****     */
 287:Src/stm32f7xx_hal_msp.c ****     HAL_GPIO_DeInit(GPIOE, DCMI_D6_Pin|DCMI_D7_Pin);
 288:Src/stm32f7xx_hal_msp.c **** 
 289:Src/stm32f7xx_hal_msp.c ****     HAL_GPIO_DeInit(DCMI_D5_GPIO_Port, DCMI_D5_Pin);
 290:Src/stm32f7xx_hal_msp.c **** 
 291:Src/stm32f7xx_hal_msp.c ****     HAL_GPIO_DeInit(DCMI_VSYNC_GPIO_Port, DCMI_VSYNC_Pin);
 292:Src/stm32f7xx_hal_msp.c **** 
 293:Src/stm32f7xx_hal_msp.c ****     HAL_GPIO_DeInit(GPIOH, DCMI_D4_Pin|DCMI_D3_Pin|DCMI_D0_Pin|DCMI_D2_Pin 
 294:Src/stm32f7xx_hal_msp.c ****                           |DCMI_D1_Pin);
 295:Src/stm32f7xx_hal_msp.c **** 
 296:Src/stm32f7xx_hal_msp.c ****     HAL_GPIO_DeInit(GPIOA, DCMI_HSYNC_Pin|GPIO_PIN_6);
 297:Src/stm32f7xx_hal_msp.c **** 
 298:Src/stm32f7xx_hal_msp.c ****   /* USER CODE BEGIN DCMI_MspDeInit 1 */
 299:Src/stm32f7xx_hal_msp.c **** 
 300:Src/stm32f7xx_hal_msp.c ****   /* USER CODE END DCMI_MspDeInit 1 */
 301:Src/stm32f7xx_hal_msp.c ****   }
 302:Src/stm32f7xx_hal_msp.c **** 
 303:Src/stm32f7xx_hal_msp.c **** }
 304:Src/stm32f7xx_hal_msp.c **** 
 305:Src/stm32f7xx_hal_msp.c **** void HAL_DMA2D_MspInit(DMA2D_HandleTypeDef* hdma2d)
 306:Src/stm32f7xx_hal_msp.c **** {
 307:Src/stm32f7xx_hal_msp.c **** 
 308:Src/stm32f7xx_hal_msp.c ****   if(hdma2d->Instance==DMA2D)
 309:Src/stm32f7xx_hal_msp.c ****   {
 310:Src/stm32f7xx_hal_msp.c ****   /* USER CODE BEGIN DMA2D_MspInit 0 */
 311:Src/stm32f7xx_hal_msp.c **** 
 312:Src/stm32f7xx_hal_msp.c ****   /* USER CODE END DMA2D_MspInit 0 */
 313:Src/stm32f7xx_hal_msp.c ****     /* Peripheral clock enable */
 314:Src/stm32f7xx_hal_msp.c ****     __HAL_RCC_DMA2D_CLK_ENABLE();
 315:Src/stm32f7xx_hal_msp.c ****     /* DMA2D interrupt Init */
 316:Src/stm32f7xx_hal_msp.c ****     HAL_NVIC_SetPriority(DMA2D_IRQn, 5, 0);
 317:Src/stm32f7xx_hal_msp.c ****     HAL_NVIC_EnableIRQ(DMA2D_IRQn);
ARM GAS  C:\Users\Student\AppData\Local\Temp\ccO0FPJj.s 			page 7


 318:Src/stm32f7xx_hal_msp.c ****   /* USER CODE BEGIN DMA2D_MspInit 1 */
 319:Src/stm32f7xx_hal_msp.c **** 
 320:Src/stm32f7xx_hal_msp.c ****   /* USER CODE END DMA2D_MspInit 1 */
 321:Src/stm32f7xx_hal_msp.c ****   }
 322:Src/stm32f7xx_hal_msp.c **** 
 323:Src/stm32f7xx_hal_msp.c **** }
 324:Src/stm32f7xx_hal_msp.c **** 
 325:Src/stm32f7xx_hal_msp.c **** void HAL_DMA2D_MspDeInit(DMA2D_HandleTypeDef* hdma2d)
 326:Src/stm32f7xx_hal_msp.c **** {
 327:Src/stm32f7xx_hal_msp.c **** 
 328:Src/stm32f7xx_hal_msp.c ****   if(hdma2d->Instance==DMA2D)
 329:Src/stm32f7xx_hal_msp.c ****   {
 330:Src/stm32f7xx_hal_msp.c ****   /* USER CODE BEGIN DMA2D_MspDeInit 0 */
 331:Src/stm32f7xx_hal_msp.c **** 
 332:Src/stm32f7xx_hal_msp.c ****   /* USER CODE END DMA2D_MspDeInit 0 */
 333:Src/stm32f7xx_hal_msp.c ****     /* Peripheral clock disable */
 334:Src/stm32f7xx_hal_msp.c ****     __HAL_RCC_DMA2D_CLK_DISABLE();
 335:Src/stm32f7xx_hal_msp.c **** 
 336:Src/stm32f7xx_hal_msp.c ****     /* DMA2D interrupt DeInit */
 337:Src/stm32f7xx_hal_msp.c ****     HAL_NVIC_DisableIRQ(DMA2D_IRQn);
 338:Src/stm32f7xx_hal_msp.c ****   /* USER CODE BEGIN DMA2D_MspDeInit 1 */
 339:Src/stm32f7xx_hal_msp.c **** 
 340:Src/stm32f7xx_hal_msp.c ****   /* USER CODE END DMA2D_MspDeInit 1 */
 341:Src/stm32f7xx_hal_msp.c ****   }
 342:Src/stm32f7xx_hal_msp.c **** 
 343:Src/stm32f7xx_hal_msp.c **** }
 344:Src/stm32f7xx_hal_msp.c **** 
 345:Src/stm32f7xx_hal_msp.c **** void HAL_I2C_MspInit(I2C_HandleTypeDef* hi2c)
 346:Src/stm32f7xx_hal_msp.c **** {
 347:Src/stm32f7xx_hal_msp.c **** 
 348:Src/stm32f7xx_hal_msp.c ****   GPIO_InitTypeDef GPIO_InitStruct;
 349:Src/stm32f7xx_hal_msp.c ****   if(hi2c->Instance==I2C1)
 350:Src/stm32f7xx_hal_msp.c ****   {
 351:Src/stm32f7xx_hal_msp.c ****   /* USER CODE BEGIN I2C1_MspInit 0 */
 352:Src/stm32f7xx_hal_msp.c **** 
 353:Src/stm32f7xx_hal_msp.c ****   /* USER CODE END I2C1_MspInit 0 */
 354:Src/stm32f7xx_hal_msp.c ****   
 355:Src/stm32f7xx_hal_msp.c ****     /**I2C1 GPIO Configuration    
 356:Src/stm32f7xx_hal_msp.c ****     PB8     ------> I2C1_SCL
 357:Src/stm32f7xx_hal_msp.c ****     PB9     ------> I2C1_SDA 
 358:Src/stm32f7xx_hal_msp.c ****     */
 359:Src/stm32f7xx_hal_msp.c ****     GPIO_InitStruct.Pin = ARDUINO_SCL_D15_Pin|ARDUINO_SDA_D14_Pin;
 360:Src/stm32f7xx_hal_msp.c ****     GPIO_InitStruct.Mode = GPIO_MODE_AF_OD;
 361:Src/stm32f7xx_hal_msp.c ****     GPIO_InitStruct.Pull = GPIO_PULLUP;
 362:Src/stm32f7xx_hal_msp.c ****     GPIO_InitStruct.Speed = GPIO_SPEED_FREQ_LOW;
 363:Src/stm32f7xx_hal_msp.c ****     GPIO_InitStruct.Alternate = GPIO_AF4_I2C1;
 364:Src/stm32f7xx_hal_msp.c ****     HAL_GPIO_Init(GPIOB, &GPIO_InitStruct);
 365:Src/stm32f7xx_hal_msp.c **** 
 366:Src/stm32f7xx_hal_msp.c ****     /* Peripheral clock enable */
 367:Src/stm32f7xx_hal_msp.c ****     __HAL_RCC_I2C1_CLK_ENABLE();
 368:Src/stm32f7xx_hal_msp.c ****   /* USER CODE BEGIN I2C1_MspInit 1 */
 369:Src/stm32f7xx_hal_msp.c **** 
 370:Src/stm32f7xx_hal_msp.c ****   /* USER CODE END I2C1_MspInit 1 */
 371:Src/stm32f7xx_hal_msp.c ****   }
 372:Src/stm32f7xx_hal_msp.c ****   else if(hi2c->Instance==I2C3)
 373:Src/stm32f7xx_hal_msp.c ****   {
 374:Src/stm32f7xx_hal_msp.c ****   /* USER CODE BEGIN I2C3_MspInit 0 */
ARM GAS  C:\Users\Student\AppData\Local\Temp\ccO0FPJj.s 			page 8


 375:Src/stm32f7xx_hal_msp.c **** 
 376:Src/stm32f7xx_hal_msp.c ****   /* USER CODE END I2C3_MspInit 0 */
 377:Src/stm32f7xx_hal_msp.c ****   
 378:Src/stm32f7xx_hal_msp.c ****     /**I2C3 GPIO Configuration    
 379:Src/stm32f7xx_hal_msp.c ****     PH7     ------> I2C3_SCL
 380:Src/stm32f7xx_hal_msp.c ****     PH8     ------> I2C3_SDA 
 381:Src/stm32f7xx_hal_msp.c ****     */
 382:Src/stm32f7xx_hal_msp.c ****     GPIO_InitStruct.Pin = LCD_SCL_Pin|LCD_SDA_Pin;
 383:Src/stm32f7xx_hal_msp.c ****     GPIO_InitStruct.Mode = GPIO_MODE_AF_OD;
 384:Src/stm32f7xx_hal_msp.c ****     GPIO_InitStruct.Pull = GPIO_PULLUP;
 385:Src/stm32f7xx_hal_msp.c ****     GPIO_InitStruct.Speed = GPIO_SPEED_FREQ_VERY_HIGH;
 386:Src/stm32f7xx_hal_msp.c ****     GPIO_InitStruct.Alternate = GPIO_AF4_I2C3;
 387:Src/stm32f7xx_hal_msp.c ****     HAL_GPIO_Init(GPIOH, &GPIO_InitStruct);
 388:Src/stm32f7xx_hal_msp.c **** 
 389:Src/stm32f7xx_hal_msp.c ****     /* Peripheral clock enable */
 390:Src/stm32f7xx_hal_msp.c ****     __HAL_RCC_I2C3_CLK_ENABLE();
 391:Src/stm32f7xx_hal_msp.c ****   /* USER CODE BEGIN I2C3_MspInit 1 */
 392:Src/stm32f7xx_hal_msp.c **** 
 393:Src/stm32f7xx_hal_msp.c ****   /* USER CODE END I2C3_MspInit 1 */
 394:Src/stm32f7xx_hal_msp.c ****   }
 395:Src/stm32f7xx_hal_msp.c **** 
 396:Src/stm32f7xx_hal_msp.c **** }
 397:Src/stm32f7xx_hal_msp.c **** 
 398:Src/stm32f7xx_hal_msp.c **** void HAL_I2C_MspDeInit(I2C_HandleTypeDef* hi2c)
 399:Src/stm32f7xx_hal_msp.c **** {
 400:Src/stm32f7xx_hal_msp.c **** 
 401:Src/stm32f7xx_hal_msp.c ****   if(hi2c->Instance==I2C1)
 402:Src/stm32f7xx_hal_msp.c ****   {
 403:Src/stm32f7xx_hal_msp.c ****   /* USER CODE BEGIN I2C1_MspDeInit 0 */
 404:Src/stm32f7xx_hal_msp.c **** 
 405:Src/stm32f7xx_hal_msp.c ****   /* USER CODE END I2C1_MspDeInit 0 */
 406:Src/stm32f7xx_hal_msp.c ****     /* Peripheral clock disable */
 407:Src/stm32f7xx_hal_msp.c ****     __HAL_RCC_I2C1_CLK_DISABLE();
 408:Src/stm32f7xx_hal_msp.c ****   
 409:Src/stm32f7xx_hal_msp.c ****     /**I2C1 GPIO Configuration    
 410:Src/stm32f7xx_hal_msp.c ****     PB8     ------> I2C1_SCL
 411:Src/stm32f7xx_hal_msp.c ****     PB9     ------> I2C1_SDA 
 412:Src/stm32f7xx_hal_msp.c ****     */
 413:Src/stm32f7xx_hal_msp.c ****     HAL_GPIO_DeInit(GPIOB, ARDUINO_SCL_D15_Pin|ARDUINO_SDA_D14_Pin);
 414:Src/stm32f7xx_hal_msp.c **** 
 415:Src/stm32f7xx_hal_msp.c ****   /* USER CODE BEGIN I2C1_MspDeInit 1 */
 416:Src/stm32f7xx_hal_msp.c **** 
 417:Src/stm32f7xx_hal_msp.c ****   /* USER CODE END I2C1_MspDeInit 1 */
 418:Src/stm32f7xx_hal_msp.c ****   }
 419:Src/stm32f7xx_hal_msp.c ****   else if(hi2c->Instance==I2C3)
 420:Src/stm32f7xx_hal_msp.c ****   {
 421:Src/stm32f7xx_hal_msp.c ****   /* USER CODE BEGIN I2C3_MspDeInit 0 */
 422:Src/stm32f7xx_hal_msp.c **** 
 423:Src/stm32f7xx_hal_msp.c ****   /* USER CODE END I2C3_MspDeInit 0 */
 424:Src/stm32f7xx_hal_msp.c ****     /* Peripheral clock disable */
 425:Src/stm32f7xx_hal_msp.c ****     __HAL_RCC_I2C3_CLK_DISABLE();
 426:Src/stm32f7xx_hal_msp.c ****   
 427:Src/stm32f7xx_hal_msp.c ****     /**I2C3 GPIO Configuration    
 428:Src/stm32f7xx_hal_msp.c ****     PH7     ------> I2C3_SCL
 429:Src/stm32f7xx_hal_msp.c ****     PH8     ------> I2C3_SDA 
 430:Src/stm32f7xx_hal_msp.c ****     */
 431:Src/stm32f7xx_hal_msp.c ****     HAL_GPIO_DeInit(GPIOH, LCD_SCL_Pin|LCD_SDA_Pin);
ARM GAS  C:\Users\Student\AppData\Local\Temp\ccO0FPJj.s 			page 9


 432:Src/stm32f7xx_hal_msp.c **** 
 433:Src/stm32f7xx_hal_msp.c ****   /* USER CODE BEGIN I2C3_MspDeInit 1 */
 434:Src/stm32f7xx_hal_msp.c **** 
 435:Src/stm32f7xx_hal_msp.c ****   /* USER CODE END I2C3_MspDeInit 1 */
 436:Src/stm32f7xx_hal_msp.c ****   }
 437:Src/stm32f7xx_hal_msp.c **** 
 438:Src/stm32f7xx_hal_msp.c **** }
 439:Src/stm32f7xx_hal_msp.c **** 
 440:Src/stm32f7xx_hal_msp.c **** void HAL_LTDC_MspInit(LTDC_HandleTypeDef* hltdc)
 441:Src/stm32f7xx_hal_msp.c **** {
 442:Src/stm32f7xx_hal_msp.c **** 
 443:Src/stm32f7xx_hal_msp.c ****   GPIO_InitTypeDef GPIO_InitStruct;
 444:Src/stm32f7xx_hal_msp.c ****   if(hltdc->Instance==LTDC)
 445:Src/stm32f7xx_hal_msp.c ****   {
 446:Src/stm32f7xx_hal_msp.c ****   /* USER CODE BEGIN LTDC_MspInit 0 */
 447:Src/stm32f7xx_hal_msp.c **** 
 448:Src/stm32f7xx_hal_msp.c ****   /* USER CODE END LTDC_MspInit 0 */
 449:Src/stm32f7xx_hal_msp.c ****     /* Peripheral clock enable */
 450:Src/stm32f7xx_hal_msp.c ****     __HAL_RCC_LTDC_CLK_ENABLE();
 451:Src/stm32f7xx_hal_msp.c ****   
 452:Src/stm32f7xx_hal_msp.c ****     /**LTDC GPIO Configuration    
 453:Src/stm32f7xx_hal_msp.c ****     PE4     ------> LTDC_B0
 454:Src/stm32f7xx_hal_msp.c ****     PJ13     ------> LTDC_B1
 455:Src/stm32f7xx_hal_msp.c ****     PK7     ------> LTDC_DE
 456:Src/stm32f7xx_hal_msp.c ****     PK6     ------> LTDC_B7
 457:Src/stm32f7xx_hal_msp.c ****     PK5     ------> LTDC_B6
 458:Src/stm32f7xx_hal_msp.c ****     PG12     ------> LTDC_B4
 459:Src/stm32f7xx_hal_msp.c ****     PJ14     ------> LTDC_B2
 460:Src/stm32f7xx_hal_msp.c ****     PI10     ------> LTDC_HSYNC
 461:Src/stm32f7xx_hal_msp.c ****     PK4     ------> LTDC_B5
 462:Src/stm32f7xx_hal_msp.c ****     PJ15     ------> LTDC_B3
 463:Src/stm32f7xx_hal_msp.c ****     PI9     ------> LTDC_VSYNC
 464:Src/stm32f7xx_hal_msp.c ****     PK1     ------> LTDC_G6
 465:Src/stm32f7xx_hal_msp.c ****     PK2     ------> LTDC_G7
 466:Src/stm32f7xx_hal_msp.c ****     PI15     ------> LTDC_R0
 467:Src/stm32f7xx_hal_msp.c ****     PJ11     ------> LTDC_G4
 468:Src/stm32f7xx_hal_msp.c ****     PK0     ------> LTDC_G5
 469:Src/stm32f7xx_hal_msp.c ****     PI14     ------> LTDC_CLK
 470:Src/stm32f7xx_hal_msp.c ****     PJ8     ------> LTDC_G1
 471:Src/stm32f7xx_hal_msp.c ****     PJ10     ------> LTDC_G3
 472:Src/stm32f7xx_hal_msp.c ****     PJ7     ------> LTDC_G0
 473:Src/stm32f7xx_hal_msp.c ****     PJ9     ------> LTDC_G2
 474:Src/stm32f7xx_hal_msp.c ****     PJ6     ------> LTDC_R7
 475:Src/stm32f7xx_hal_msp.c ****     PJ4     ------> LTDC_R5
 476:Src/stm32f7xx_hal_msp.c ****     PJ5     ------> LTDC_R6
 477:Src/stm32f7xx_hal_msp.c ****     PJ3     ------> LTDC_R4
 478:Src/stm32f7xx_hal_msp.c ****     PJ2     ------> LTDC_R3
 479:Src/stm32f7xx_hal_msp.c ****     PJ0     ------> LTDC_R1
 480:Src/stm32f7xx_hal_msp.c ****     PJ1     ------> LTDC_R2 
 481:Src/stm32f7xx_hal_msp.c ****     */
 482:Src/stm32f7xx_hal_msp.c ****     GPIO_InitStruct.Pin = LCD_B0_Pin;
 483:Src/stm32f7xx_hal_msp.c ****     GPIO_InitStruct.Mode = GPIO_MODE_AF_PP;
 484:Src/stm32f7xx_hal_msp.c ****     GPIO_InitStruct.Pull = GPIO_NOPULL;
 485:Src/stm32f7xx_hal_msp.c ****     GPIO_InitStruct.Speed = GPIO_SPEED_FREQ_LOW;
 486:Src/stm32f7xx_hal_msp.c ****     GPIO_InitStruct.Alternate = GPIO_AF14_LTDC;
 487:Src/stm32f7xx_hal_msp.c ****     HAL_GPIO_Init(LCD_B0_GPIO_Port, &GPIO_InitStruct);
 488:Src/stm32f7xx_hal_msp.c **** 
ARM GAS  C:\Users\Student\AppData\Local\Temp\ccO0FPJj.s 			page 10


 489:Src/stm32f7xx_hal_msp.c ****     GPIO_InitStruct.Pin = LCD_B1_Pin|LCD_B2_Pin|LCD_B3_Pin|LCD_G4_Pin 
 490:Src/stm32f7xx_hal_msp.c ****                           |LCD_G1_Pin|LCD_G3_Pin|LCD_G0_Pin|LCD_G2_Pin 
 491:Src/stm32f7xx_hal_msp.c ****                           |LCD_R7_Pin|LCD_R5_Pin|LCD_R6_Pin|LCD_R4_Pin 
 492:Src/stm32f7xx_hal_msp.c ****                           |LCD_R3_Pin|LCD_R1_Pin|LCD_R2_Pin;
 493:Src/stm32f7xx_hal_msp.c ****     GPIO_InitStruct.Mode = GPIO_MODE_AF_PP;
 494:Src/stm32f7xx_hal_msp.c ****     GPIO_InitStruct.Pull = GPIO_NOPULL;
 495:Src/stm32f7xx_hal_msp.c ****     GPIO_InitStruct.Speed = GPIO_SPEED_FREQ_LOW;
 496:Src/stm32f7xx_hal_msp.c ****     GPIO_InitStruct.Alternate = GPIO_AF14_LTDC;
 497:Src/stm32f7xx_hal_msp.c ****     HAL_GPIO_Init(GPIOJ, &GPIO_InitStruct);
 498:Src/stm32f7xx_hal_msp.c **** 
 499:Src/stm32f7xx_hal_msp.c ****     GPIO_InitStruct.Pin = LCD_DE_Pin|LCD_B7_Pin|LCD_B6_Pin|LCD_B5_Pin 
 500:Src/stm32f7xx_hal_msp.c ****                           |LCD_G6_Pin|LCD_G7_Pin|LCD_G5_Pin;
 501:Src/stm32f7xx_hal_msp.c ****     GPIO_InitStruct.Mode = GPIO_MODE_AF_PP;
 502:Src/stm32f7xx_hal_msp.c ****     GPIO_InitStruct.Pull = GPIO_NOPULL;
 503:Src/stm32f7xx_hal_msp.c ****     GPIO_InitStruct.Speed = GPIO_SPEED_FREQ_LOW;
 504:Src/stm32f7xx_hal_msp.c ****     GPIO_InitStruct.Alternate = GPIO_AF14_LTDC;
 505:Src/stm32f7xx_hal_msp.c ****     HAL_GPIO_Init(GPIOK, &GPIO_InitStruct);
 506:Src/stm32f7xx_hal_msp.c **** 
 507:Src/stm32f7xx_hal_msp.c ****     GPIO_InitStruct.Pin = LCD_B4_Pin;
 508:Src/stm32f7xx_hal_msp.c ****     GPIO_InitStruct.Mode = GPIO_MODE_AF_PP;
 509:Src/stm32f7xx_hal_msp.c ****     GPIO_InitStruct.Pull = GPIO_NOPULL;
 510:Src/stm32f7xx_hal_msp.c ****     GPIO_InitStruct.Speed = GPIO_SPEED_FREQ_LOW;
 511:Src/stm32f7xx_hal_msp.c ****     GPIO_InitStruct.Alternate = GPIO_AF9_LTDC;
 512:Src/stm32f7xx_hal_msp.c ****     HAL_GPIO_Init(LCD_B4_GPIO_Port, &GPIO_InitStruct);
 513:Src/stm32f7xx_hal_msp.c **** 
 514:Src/stm32f7xx_hal_msp.c ****     GPIO_InitStruct.Pin = LCD_HSYNC_Pin|LCD_VSYNC_Pin|LCD_R0_Pin|LCD_CLK_Pin;
 515:Src/stm32f7xx_hal_msp.c ****     GPIO_InitStruct.Mode = GPIO_MODE_AF_PP;
 516:Src/stm32f7xx_hal_msp.c ****     GPIO_InitStruct.Pull = GPIO_NOPULL;
 517:Src/stm32f7xx_hal_msp.c ****     GPIO_InitStruct.Speed = GPIO_SPEED_FREQ_LOW;
 518:Src/stm32f7xx_hal_msp.c ****     GPIO_InitStruct.Alternate = GPIO_AF14_LTDC;
 519:Src/stm32f7xx_hal_msp.c ****     HAL_GPIO_Init(GPIOI, &GPIO_InitStruct);
 520:Src/stm32f7xx_hal_msp.c **** 
 521:Src/stm32f7xx_hal_msp.c ****     /* LTDC interrupt Init */
 522:Src/stm32f7xx_hal_msp.c ****     HAL_NVIC_SetPriority(LTDC_IRQn, 5, 0);
 523:Src/stm32f7xx_hal_msp.c ****     HAL_NVIC_EnableIRQ(LTDC_IRQn);
 524:Src/stm32f7xx_hal_msp.c ****   /* USER CODE BEGIN LTDC_MspInit 1 */
 525:Src/stm32f7xx_hal_msp.c **** 
 526:Src/stm32f7xx_hal_msp.c ****   /* USER CODE END LTDC_MspInit 1 */
 527:Src/stm32f7xx_hal_msp.c ****   }
 528:Src/stm32f7xx_hal_msp.c **** 
 529:Src/stm32f7xx_hal_msp.c **** }
 530:Src/stm32f7xx_hal_msp.c **** 
 531:Src/stm32f7xx_hal_msp.c **** void HAL_LTDC_MspDeInit(LTDC_HandleTypeDef* hltdc)
 532:Src/stm32f7xx_hal_msp.c **** {
 533:Src/stm32f7xx_hal_msp.c **** 
 534:Src/stm32f7xx_hal_msp.c ****   if(hltdc->Instance==LTDC)
 535:Src/stm32f7xx_hal_msp.c ****   {
 536:Src/stm32f7xx_hal_msp.c ****   /* USER CODE BEGIN LTDC_MspDeInit 0 */
 537:Src/stm32f7xx_hal_msp.c **** 
 538:Src/stm32f7xx_hal_msp.c ****   /* USER CODE END LTDC_MspDeInit 0 */
 539:Src/stm32f7xx_hal_msp.c ****     /* Peripheral clock disable */
 540:Src/stm32f7xx_hal_msp.c ****     __HAL_RCC_LTDC_CLK_DISABLE();
 541:Src/stm32f7xx_hal_msp.c ****   
 542:Src/stm32f7xx_hal_msp.c ****     /**LTDC GPIO Configuration    
 543:Src/stm32f7xx_hal_msp.c ****     PE4     ------> LTDC_B0
 544:Src/stm32f7xx_hal_msp.c ****     PJ13     ------> LTDC_B1
 545:Src/stm32f7xx_hal_msp.c ****     PK7     ------> LTDC_DE
ARM GAS  C:\Users\Student\AppData\Local\Temp\ccO0FPJj.s 			page 11


 546:Src/stm32f7xx_hal_msp.c ****     PK6     ------> LTDC_B7
 547:Src/stm32f7xx_hal_msp.c ****     PK5     ------> LTDC_B6
 548:Src/stm32f7xx_hal_msp.c ****     PG12     ------> LTDC_B4
 549:Src/stm32f7xx_hal_msp.c ****     PJ14     ------> LTDC_B2
 550:Src/stm32f7xx_hal_msp.c ****     PI10     ------> LTDC_HSYNC
 551:Src/stm32f7xx_hal_msp.c ****     PK4     ------> LTDC_B5
 552:Src/stm32f7xx_hal_msp.c ****     PJ15     ------> LTDC_B3
 553:Src/stm32f7xx_hal_msp.c ****     PI9     ------> LTDC_VSYNC
 554:Src/stm32f7xx_hal_msp.c ****     PK1     ------> LTDC_G6
 555:Src/stm32f7xx_hal_msp.c ****     PK2     ------> LTDC_G7
 556:Src/stm32f7xx_hal_msp.c ****     PI15     ------> LTDC_R0
 557:Src/stm32f7xx_hal_msp.c ****     PJ11     ------> LTDC_G4
 558:Src/stm32f7xx_hal_msp.c ****     PK0     ------> LTDC_G5
 559:Src/stm32f7xx_hal_msp.c ****     PI14     ------> LTDC_CLK
 560:Src/stm32f7xx_hal_msp.c ****     PJ8     ------> LTDC_G1
 561:Src/stm32f7xx_hal_msp.c ****     PJ10     ------> LTDC_G3
 562:Src/stm32f7xx_hal_msp.c ****     PJ7     ------> LTDC_G0
 563:Src/stm32f7xx_hal_msp.c ****     PJ9     ------> LTDC_G2
 564:Src/stm32f7xx_hal_msp.c ****     PJ6     ------> LTDC_R7
 565:Src/stm32f7xx_hal_msp.c ****     PJ4     ------> LTDC_R5
 566:Src/stm32f7xx_hal_msp.c ****     PJ5     ------> LTDC_R6
 567:Src/stm32f7xx_hal_msp.c ****     PJ3     ------> LTDC_R4
 568:Src/stm32f7xx_hal_msp.c ****     PJ2     ------> LTDC_R3
 569:Src/stm32f7xx_hal_msp.c ****     PJ0     ------> LTDC_R1
 570:Src/stm32f7xx_hal_msp.c ****     PJ1     ------> LTDC_R2 
 571:Src/stm32f7xx_hal_msp.c ****     */
 572:Src/stm32f7xx_hal_msp.c ****     HAL_GPIO_DeInit(LCD_B0_GPIO_Port, LCD_B0_Pin);
 573:Src/stm32f7xx_hal_msp.c **** 
 574:Src/stm32f7xx_hal_msp.c ****     HAL_GPIO_DeInit(GPIOJ, LCD_B1_Pin|LCD_B2_Pin|LCD_B3_Pin|LCD_G4_Pin 
 575:Src/stm32f7xx_hal_msp.c ****                           |LCD_G1_Pin|LCD_G3_Pin|LCD_G0_Pin|LCD_G2_Pin 
 576:Src/stm32f7xx_hal_msp.c ****                           |LCD_R7_Pin|LCD_R5_Pin|LCD_R6_Pin|LCD_R4_Pin 
 577:Src/stm32f7xx_hal_msp.c ****                           |LCD_R3_Pin|LCD_R1_Pin|LCD_R2_Pin);
 578:Src/stm32f7xx_hal_msp.c **** 
 579:Src/stm32f7xx_hal_msp.c ****     HAL_GPIO_DeInit(GPIOK, LCD_DE_Pin|LCD_B7_Pin|LCD_B6_Pin|LCD_B5_Pin 
 580:Src/stm32f7xx_hal_msp.c ****                           |LCD_G6_Pin|LCD_G7_Pin|LCD_G5_Pin);
 581:Src/stm32f7xx_hal_msp.c **** 
 582:Src/stm32f7xx_hal_msp.c ****     HAL_GPIO_DeInit(LCD_B4_GPIO_Port, LCD_B4_Pin);
 583:Src/stm32f7xx_hal_msp.c **** 
 584:Src/stm32f7xx_hal_msp.c ****     HAL_GPIO_DeInit(GPIOI, LCD_HSYNC_Pin|LCD_VSYNC_Pin|LCD_R0_Pin|LCD_CLK_Pin);
 585:Src/stm32f7xx_hal_msp.c **** 
 586:Src/stm32f7xx_hal_msp.c ****     /* LTDC interrupt DeInit */
 587:Src/stm32f7xx_hal_msp.c ****     HAL_NVIC_DisableIRQ(LTDC_IRQn);
 588:Src/stm32f7xx_hal_msp.c ****   /* USER CODE BEGIN LTDC_MspDeInit 1 */
 589:Src/stm32f7xx_hal_msp.c **** 
 590:Src/stm32f7xx_hal_msp.c ****   /* USER CODE END LTDC_MspDeInit 1 */
 591:Src/stm32f7xx_hal_msp.c ****   }
 592:Src/stm32f7xx_hal_msp.c **** 
 593:Src/stm32f7xx_hal_msp.c **** }
 594:Src/stm32f7xx_hal_msp.c **** 
 595:Src/stm32f7xx_hal_msp.c **** void HAL_QSPI_MspInit(QSPI_HandleTypeDef* hqspi)
 596:Src/stm32f7xx_hal_msp.c **** {
 597:Src/stm32f7xx_hal_msp.c **** 
 598:Src/stm32f7xx_hal_msp.c ****   GPIO_InitTypeDef GPIO_InitStruct;
 599:Src/stm32f7xx_hal_msp.c ****   if(hqspi->Instance==QUADSPI)
 600:Src/stm32f7xx_hal_msp.c ****   {
 601:Src/stm32f7xx_hal_msp.c ****   /* USER CODE BEGIN QUADSPI_MspInit 0 */
 602:Src/stm32f7xx_hal_msp.c **** 
ARM GAS  C:\Users\Student\AppData\Local\Temp\ccO0FPJj.s 			page 12


 603:Src/stm32f7xx_hal_msp.c ****   /* USER CODE END QUADSPI_MspInit 0 */
 604:Src/stm32f7xx_hal_msp.c ****     /* Peripheral clock enable */
 605:Src/stm32f7xx_hal_msp.c ****     __HAL_RCC_QSPI_CLK_ENABLE();
 606:Src/stm32f7xx_hal_msp.c ****   
 607:Src/stm32f7xx_hal_msp.c ****     /**QUADSPI GPIO Configuration    
 608:Src/stm32f7xx_hal_msp.c ****     PE2     ------> QUADSPI_BK1_IO2
 609:Src/stm32f7xx_hal_msp.c ****     PB6     ------> QUADSPI_BK1_NCS
 610:Src/stm32f7xx_hal_msp.c ****     PB2     ------> QUADSPI_CLK
 611:Src/stm32f7xx_hal_msp.c ****     PD12     ------> QUADSPI_BK1_IO1
 612:Src/stm32f7xx_hal_msp.c ****     PD13     ------> QUADSPI_BK1_IO3
 613:Src/stm32f7xx_hal_msp.c ****     PD11     ------> QUADSPI_BK1_IO0 
 614:Src/stm32f7xx_hal_msp.c ****     */
 615:Src/stm32f7xx_hal_msp.c ****     GPIO_InitStruct.Pin = QSPI_D2_Pin;
 616:Src/stm32f7xx_hal_msp.c ****     GPIO_InitStruct.Mode = GPIO_MODE_AF_PP;
 617:Src/stm32f7xx_hal_msp.c ****     GPIO_InitStruct.Pull = GPIO_NOPULL;
 618:Src/stm32f7xx_hal_msp.c ****     GPIO_InitStruct.Speed = GPIO_SPEED_FREQ_VERY_HIGH;
 619:Src/stm32f7xx_hal_msp.c ****     GPIO_InitStruct.Alternate = GPIO_AF9_QUADSPI;
 620:Src/stm32f7xx_hal_msp.c ****     HAL_GPIO_Init(QSPI_D2_GPIO_Port, &GPIO_InitStruct);
 621:Src/stm32f7xx_hal_msp.c **** 
 622:Src/stm32f7xx_hal_msp.c ****     GPIO_InitStruct.Pin = QSPI_NCS_Pin;
 623:Src/stm32f7xx_hal_msp.c ****     GPIO_InitStruct.Mode = GPIO_MODE_AF_PP;
 624:Src/stm32f7xx_hal_msp.c ****     GPIO_InitStruct.Pull = GPIO_NOPULL;
 625:Src/stm32f7xx_hal_msp.c ****     GPIO_InitStruct.Speed = GPIO_SPEED_FREQ_VERY_HIGH;
 626:Src/stm32f7xx_hal_msp.c ****     GPIO_InitStruct.Alternate = GPIO_AF10_QUADSPI;
 627:Src/stm32f7xx_hal_msp.c ****     HAL_GPIO_Init(QSPI_NCS_GPIO_Port, &GPIO_InitStruct);
 628:Src/stm32f7xx_hal_msp.c **** 
 629:Src/stm32f7xx_hal_msp.c ****     GPIO_InitStruct.Pin = GPIO_PIN_2;
 630:Src/stm32f7xx_hal_msp.c ****     GPIO_InitStruct.Mode = GPIO_MODE_AF_PP;
 631:Src/stm32f7xx_hal_msp.c ****     GPIO_InitStruct.Pull = GPIO_NOPULL;
 632:Src/stm32f7xx_hal_msp.c ****     GPIO_InitStruct.Speed = GPIO_SPEED_FREQ_VERY_HIGH;
 633:Src/stm32f7xx_hal_msp.c ****     GPIO_InitStruct.Alternate = GPIO_AF9_QUADSPI;
 634:Src/stm32f7xx_hal_msp.c ****     HAL_GPIO_Init(GPIOB, &GPIO_InitStruct);
 635:Src/stm32f7xx_hal_msp.c **** 
 636:Src/stm32f7xx_hal_msp.c ****     GPIO_InitStruct.Pin = QSPI_D1_Pin|QSPI_D3_Pin|QSPI_D0_Pin;
 637:Src/stm32f7xx_hal_msp.c ****     GPIO_InitStruct.Mode = GPIO_MODE_AF_PP;
 638:Src/stm32f7xx_hal_msp.c ****     GPIO_InitStruct.Pull = GPIO_NOPULL;
 639:Src/stm32f7xx_hal_msp.c ****     GPIO_InitStruct.Speed = GPIO_SPEED_FREQ_VERY_HIGH;
 640:Src/stm32f7xx_hal_msp.c ****     GPIO_InitStruct.Alternate = GPIO_AF9_QUADSPI;
 641:Src/stm32f7xx_hal_msp.c ****     HAL_GPIO_Init(GPIOD, &GPIO_InitStruct);
 642:Src/stm32f7xx_hal_msp.c **** 
 643:Src/stm32f7xx_hal_msp.c ****   /* USER CODE BEGIN QUADSPI_MspInit 1 */
 644:Src/stm32f7xx_hal_msp.c **** 
 645:Src/stm32f7xx_hal_msp.c ****   /* USER CODE END QUADSPI_MspInit 1 */
 646:Src/stm32f7xx_hal_msp.c ****   }
 647:Src/stm32f7xx_hal_msp.c **** 
 648:Src/stm32f7xx_hal_msp.c **** }
 649:Src/stm32f7xx_hal_msp.c **** 
 650:Src/stm32f7xx_hal_msp.c **** void HAL_QSPI_MspDeInit(QSPI_HandleTypeDef* hqspi)
 651:Src/stm32f7xx_hal_msp.c **** {
 652:Src/stm32f7xx_hal_msp.c **** 
 653:Src/stm32f7xx_hal_msp.c ****   if(hqspi->Instance==QUADSPI)
 654:Src/stm32f7xx_hal_msp.c ****   {
 655:Src/stm32f7xx_hal_msp.c ****   /* USER CODE BEGIN QUADSPI_MspDeInit 0 */
 656:Src/stm32f7xx_hal_msp.c **** 
 657:Src/stm32f7xx_hal_msp.c ****   /* USER CODE END QUADSPI_MspDeInit 0 */
 658:Src/stm32f7xx_hal_msp.c ****     /* Peripheral clock disable */
 659:Src/stm32f7xx_hal_msp.c ****     __HAL_RCC_QSPI_CLK_DISABLE();
ARM GAS  C:\Users\Student\AppData\Local\Temp\ccO0FPJj.s 			page 13


 660:Src/stm32f7xx_hal_msp.c ****   
 661:Src/stm32f7xx_hal_msp.c ****     /**QUADSPI GPIO Configuration    
 662:Src/stm32f7xx_hal_msp.c ****     PE2     ------> QUADSPI_BK1_IO2
 663:Src/stm32f7xx_hal_msp.c ****     PB6     ------> QUADSPI_BK1_NCS
 664:Src/stm32f7xx_hal_msp.c ****     PB2     ------> QUADSPI_CLK
 665:Src/stm32f7xx_hal_msp.c ****     PD12     ------> QUADSPI_BK1_IO1
 666:Src/stm32f7xx_hal_msp.c ****     PD13     ------> QUADSPI_BK1_IO3
 667:Src/stm32f7xx_hal_msp.c ****     PD11     ------> QUADSPI_BK1_IO0 
 668:Src/stm32f7xx_hal_msp.c ****     */
 669:Src/stm32f7xx_hal_msp.c ****     HAL_GPIO_DeInit(QSPI_D2_GPIO_Port, QSPI_D2_Pin);
 670:Src/stm32f7xx_hal_msp.c **** 
 671:Src/stm32f7xx_hal_msp.c ****     HAL_GPIO_DeInit(GPIOB, QSPI_NCS_Pin|GPIO_PIN_2);
 672:Src/stm32f7xx_hal_msp.c **** 
 673:Src/stm32f7xx_hal_msp.c ****     HAL_GPIO_DeInit(GPIOD, QSPI_D1_Pin|QSPI_D3_Pin|QSPI_D0_Pin);
 674:Src/stm32f7xx_hal_msp.c **** 
 675:Src/stm32f7xx_hal_msp.c ****   /* USER CODE BEGIN QUADSPI_MspDeInit 1 */
 676:Src/stm32f7xx_hal_msp.c **** 
 677:Src/stm32f7xx_hal_msp.c ****   /* USER CODE END QUADSPI_MspDeInit 1 */
 678:Src/stm32f7xx_hal_msp.c ****   }
 679:Src/stm32f7xx_hal_msp.c **** 
 680:Src/stm32f7xx_hal_msp.c **** }
 681:Src/stm32f7xx_hal_msp.c **** 
 682:Src/stm32f7xx_hal_msp.c **** void HAL_RTC_MspInit(RTC_HandleTypeDef* hrtc)
 683:Src/stm32f7xx_hal_msp.c **** {
 684:Src/stm32f7xx_hal_msp.c **** 
 685:Src/stm32f7xx_hal_msp.c ****   if(hrtc->Instance==RTC)
 686:Src/stm32f7xx_hal_msp.c ****   {
 687:Src/stm32f7xx_hal_msp.c ****   /* USER CODE BEGIN RTC_MspInit 0 */
 688:Src/stm32f7xx_hal_msp.c **** 
 689:Src/stm32f7xx_hal_msp.c ****   /* USER CODE END RTC_MspInit 0 */
 690:Src/stm32f7xx_hal_msp.c ****     /* Peripheral clock enable */
 691:Src/stm32f7xx_hal_msp.c ****     __HAL_RCC_RTC_ENABLE();
 692:Src/stm32f7xx_hal_msp.c ****   /* USER CODE BEGIN RTC_MspInit 1 */
 693:Src/stm32f7xx_hal_msp.c **** 
 694:Src/stm32f7xx_hal_msp.c ****   /* USER CODE END RTC_MspInit 1 */
 695:Src/stm32f7xx_hal_msp.c ****   }
 696:Src/stm32f7xx_hal_msp.c **** 
 697:Src/stm32f7xx_hal_msp.c **** }
 698:Src/stm32f7xx_hal_msp.c **** 
 699:Src/stm32f7xx_hal_msp.c **** void HAL_RTC_MspDeInit(RTC_HandleTypeDef* hrtc)
 700:Src/stm32f7xx_hal_msp.c **** {
 701:Src/stm32f7xx_hal_msp.c **** 
 702:Src/stm32f7xx_hal_msp.c ****   if(hrtc->Instance==RTC)
 703:Src/stm32f7xx_hal_msp.c ****   {
 704:Src/stm32f7xx_hal_msp.c ****   /* USER CODE BEGIN RTC_MspDeInit 0 */
 705:Src/stm32f7xx_hal_msp.c **** 
 706:Src/stm32f7xx_hal_msp.c ****   /* USER CODE END RTC_MspDeInit 0 */
 707:Src/stm32f7xx_hal_msp.c ****     /* Peripheral clock disable */
 708:Src/stm32f7xx_hal_msp.c ****     __HAL_RCC_RTC_DISABLE();
 709:Src/stm32f7xx_hal_msp.c ****   /* USER CODE BEGIN RTC_MspDeInit 1 */
 710:Src/stm32f7xx_hal_msp.c **** 
 711:Src/stm32f7xx_hal_msp.c ****   /* USER CODE END RTC_MspDeInit 1 */
 712:Src/stm32f7xx_hal_msp.c ****   }
 713:Src/stm32f7xx_hal_msp.c **** 
 714:Src/stm32f7xx_hal_msp.c **** }
 715:Src/stm32f7xx_hal_msp.c **** 
 716:Src/stm32f7xx_hal_msp.c **** void HAL_SD_MspInit(SD_HandleTypeDef* hsd)
ARM GAS  C:\Users\Student\AppData\Local\Temp\ccO0FPJj.s 			page 14


 717:Src/stm32f7xx_hal_msp.c **** {
 718:Src/stm32f7xx_hal_msp.c **** 
 719:Src/stm32f7xx_hal_msp.c ****   GPIO_InitTypeDef GPIO_InitStruct;
 720:Src/stm32f7xx_hal_msp.c ****   if(hsd->Instance==SDMMC1)
 721:Src/stm32f7xx_hal_msp.c ****   {
 722:Src/stm32f7xx_hal_msp.c ****   /* USER CODE BEGIN SDMMC1_MspInit 0 */
 723:Src/stm32f7xx_hal_msp.c **** 
 724:Src/stm32f7xx_hal_msp.c ****   /* USER CODE END SDMMC1_MspInit 0 */
 725:Src/stm32f7xx_hal_msp.c ****     /* Peripheral clock enable */
 726:Src/stm32f7xx_hal_msp.c ****     __HAL_RCC_SDMMC1_CLK_ENABLE();
 727:Src/stm32f7xx_hal_msp.c ****   
 728:Src/stm32f7xx_hal_msp.c ****     /**SDMMC1 GPIO Configuration    
 729:Src/stm32f7xx_hal_msp.c ****     PC12     ------> SDMMC1_CK
 730:Src/stm32f7xx_hal_msp.c ****     PC11     ------> SDMMC1_D3
 731:Src/stm32f7xx_hal_msp.c ****     PC10     ------> SDMMC1_D2
 732:Src/stm32f7xx_hal_msp.c ****     PD2     ------> SDMMC1_CMD
 733:Src/stm32f7xx_hal_msp.c ****     PC9     ------> SDMMC1_D1
 734:Src/stm32f7xx_hal_msp.c ****     PC8     ------> SDMMC1_D0 
 735:Src/stm32f7xx_hal_msp.c ****     */
 736:Src/stm32f7xx_hal_msp.c ****     GPIO_InitStruct.Pin = SDMMC_CK_Pin|SDMMC_D3_Pin|SDMMC_D2_Pin|GPIO_PIN_9 
 737:Src/stm32f7xx_hal_msp.c ****                           |GPIO_PIN_8;
 738:Src/stm32f7xx_hal_msp.c ****     GPIO_InitStruct.Mode = GPIO_MODE_AF_PP;
 739:Src/stm32f7xx_hal_msp.c ****     GPIO_InitStruct.Pull = GPIO_NOPULL;
 740:Src/stm32f7xx_hal_msp.c ****     GPIO_InitStruct.Speed = GPIO_SPEED_FREQ_VERY_HIGH;
 741:Src/stm32f7xx_hal_msp.c ****     GPIO_InitStruct.Alternate = GPIO_AF12_SDMMC1;
 742:Src/stm32f7xx_hal_msp.c ****     HAL_GPIO_Init(GPIOC, &GPIO_InitStruct);
 743:Src/stm32f7xx_hal_msp.c **** 
 744:Src/stm32f7xx_hal_msp.c ****     GPIO_InitStruct.Pin = SDMMC_CMD_Pin;
 745:Src/stm32f7xx_hal_msp.c ****     GPIO_InitStruct.Mode = GPIO_MODE_AF_PP;
 746:Src/stm32f7xx_hal_msp.c ****     GPIO_InitStruct.Pull = GPIO_NOPULL;
 747:Src/stm32f7xx_hal_msp.c ****     GPIO_InitStruct.Speed = GPIO_SPEED_FREQ_VERY_HIGH;
 748:Src/stm32f7xx_hal_msp.c ****     GPIO_InitStruct.Alternate = GPIO_AF12_SDMMC1;
 749:Src/stm32f7xx_hal_msp.c ****     HAL_GPIO_Init(SDMMC_CMD_GPIO_Port, &GPIO_InitStruct);
 750:Src/stm32f7xx_hal_msp.c **** 
 751:Src/stm32f7xx_hal_msp.c ****   /* USER CODE BEGIN SDMMC1_MspInit 1 */
 752:Src/stm32f7xx_hal_msp.c **** 
 753:Src/stm32f7xx_hal_msp.c ****   /* USER CODE END SDMMC1_MspInit 1 */
 754:Src/stm32f7xx_hal_msp.c ****   }
 755:Src/stm32f7xx_hal_msp.c **** 
 756:Src/stm32f7xx_hal_msp.c **** }
 757:Src/stm32f7xx_hal_msp.c **** 
 758:Src/stm32f7xx_hal_msp.c **** void HAL_SD_MspDeInit(SD_HandleTypeDef* hsd)
 759:Src/stm32f7xx_hal_msp.c **** {
 760:Src/stm32f7xx_hal_msp.c **** 
 761:Src/stm32f7xx_hal_msp.c ****   if(hsd->Instance==SDMMC1)
 762:Src/stm32f7xx_hal_msp.c ****   {
 763:Src/stm32f7xx_hal_msp.c ****   /* USER CODE BEGIN SDMMC1_MspDeInit 0 */
 764:Src/stm32f7xx_hal_msp.c **** 
 765:Src/stm32f7xx_hal_msp.c ****   /* USER CODE END SDMMC1_MspDeInit 0 */
 766:Src/stm32f7xx_hal_msp.c ****     /* Peripheral clock disable */
 767:Src/stm32f7xx_hal_msp.c ****     __HAL_RCC_SDMMC1_CLK_DISABLE();
 768:Src/stm32f7xx_hal_msp.c ****   
 769:Src/stm32f7xx_hal_msp.c ****     /**SDMMC1 GPIO Configuration    
 770:Src/stm32f7xx_hal_msp.c ****     PC12     ------> SDMMC1_CK
 771:Src/stm32f7xx_hal_msp.c ****     PC11     ------> SDMMC1_D3
 772:Src/stm32f7xx_hal_msp.c ****     PC10     ------> SDMMC1_D2
 773:Src/stm32f7xx_hal_msp.c ****     PD2     ------> SDMMC1_CMD
ARM GAS  C:\Users\Student\AppData\Local\Temp\ccO0FPJj.s 			page 15


 774:Src/stm32f7xx_hal_msp.c ****     PC9     ------> SDMMC1_D1
 775:Src/stm32f7xx_hal_msp.c ****     PC8     ------> SDMMC1_D0 
 776:Src/stm32f7xx_hal_msp.c ****     */
 777:Src/stm32f7xx_hal_msp.c ****     HAL_GPIO_DeInit(GPIOC, SDMMC_CK_Pin|SDMMC_D3_Pin|SDMMC_D2_Pin|GPIO_PIN_9 
 778:Src/stm32f7xx_hal_msp.c ****                           |GPIO_PIN_8);
 779:Src/stm32f7xx_hal_msp.c **** 
 780:Src/stm32f7xx_hal_msp.c ****     HAL_GPIO_DeInit(SDMMC_CMD_GPIO_Port, SDMMC_CMD_Pin);
 781:Src/stm32f7xx_hal_msp.c **** 
 782:Src/stm32f7xx_hal_msp.c ****   /* USER CODE BEGIN SDMMC1_MspDeInit 1 */
 783:Src/stm32f7xx_hal_msp.c **** 
 784:Src/stm32f7xx_hal_msp.c ****   /* USER CODE END SDMMC1_MspDeInit 1 */
 785:Src/stm32f7xx_hal_msp.c ****   }
 786:Src/stm32f7xx_hal_msp.c **** 
 787:Src/stm32f7xx_hal_msp.c **** }
 788:Src/stm32f7xx_hal_msp.c **** 
 789:Src/stm32f7xx_hal_msp.c **** void HAL_SPDIFRX_MspInit(SPDIFRX_HandleTypeDef* hspdifrx)
 790:Src/stm32f7xx_hal_msp.c **** {
 791:Src/stm32f7xx_hal_msp.c **** 
 792:Src/stm32f7xx_hal_msp.c ****   GPIO_InitTypeDef GPIO_InitStruct;
 793:Src/stm32f7xx_hal_msp.c ****   if(hspdifrx->Instance==SPDIFRX)
 794:Src/stm32f7xx_hal_msp.c ****   {
 795:Src/stm32f7xx_hal_msp.c ****   /* USER CODE BEGIN SPDIFRX_MspInit 0 */
 796:Src/stm32f7xx_hal_msp.c **** 
 797:Src/stm32f7xx_hal_msp.c ****   /* USER CODE END SPDIFRX_MspInit 0 */
 798:Src/stm32f7xx_hal_msp.c ****     /* Peripheral clock enable */
 799:Src/stm32f7xx_hal_msp.c ****     __HAL_RCC_SPDIFRX_CLK_ENABLE();
 800:Src/stm32f7xx_hal_msp.c ****   
 801:Src/stm32f7xx_hal_msp.c ****     /**SPDIFRX GPIO Configuration    
 802:Src/stm32f7xx_hal_msp.c ****     PD7     ------> SPDIFRX_IN0 
 803:Src/stm32f7xx_hal_msp.c ****     */
 804:Src/stm32f7xx_hal_msp.c ****     GPIO_InitStruct.Pin = SPDIF_RX0_Pin;
 805:Src/stm32f7xx_hal_msp.c ****     GPIO_InitStruct.Mode = GPIO_MODE_AF_PP;
 806:Src/stm32f7xx_hal_msp.c ****     GPIO_InitStruct.Pull = GPIO_NOPULL;
 807:Src/stm32f7xx_hal_msp.c ****     GPIO_InitStruct.Speed = GPIO_SPEED_FREQ_LOW;
 808:Src/stm32f7xx_hal_msp.c ****     GPIO_InitStruct.Alternate = GPIO_AF8_SPDIFRX;
 809:Src/stm32f7xx_hal_msp.c ****     HAL_GPIO_Init(SPDIF_RX0_GPIO_Port, &GPIO_InitStruct);
 810:Src/stm32f7xx_hal_msp.c **** 
 811:Src/stm32f7xx_hal_msp.c ****   /* USER CODE BEGIN SPDIFRX_MspInit 1 */
 812:Src/stm32f7xx_hal_msp.c **** 
 813:Src/stm32f7xx_hal_msp.c ****   /* USER CODE END SPDIFRX_MspInit 1 */
 814:Src/stm32f7xx_hal_msp.c ****   }
 815:Src/stm32f7xx_hal_msp.c **** 
 816:Src/stm32f7xx_hal_msp.c **** }
 817:Src/stm32f7xx_hal_msp.c **** 
 818:Src/stm32f7xx_hal_msp.c **** void HAL_SPDIFRX_MspDeInit(SPDIFRX_HandleTypeDef* hspdifrx)
 819:Src/stm32f7xx_hal_msp.c **** {
 820:Src/stm32f7xx_hal_msp.c **** 
 821:Src/stm32f7xx_hal_msp.c ****   if(hspdifrx->Instance==SPDIFRX)
 822:Src/stm32f7xx_hal_msp.c ****   {
 823:Src/stm32f7xx_hal_msp.c ****   /* USER CODE BEGIN SPDIFRX_MspDeInit 0 */
 824:Src/stm32f7xx_hal_msp.c **** 
 825:Src/stm32f7xx_hal_msp.c ****   /* USER CODE END SPDIFRX_MspDeInit 0 */
 826:Src/stm32f7xx_hal_msp.c ****     /* Peripheral clock disable */
 827:Src/stm32f7xx_hal_msp.c ****     __HAL_RCC_SPDIFRX_CLK_DISABLE();
 828:Src/stm32f7xx_hal_msp.c ****   
 829:Src/stm32f7xx_hal_msp.c ****     /**SPDIFRX GPIO Configuration    
 830:Src/stm32f7xx_hal_msp.c ****     PD7     ------> SPDIFRX_IN0 
ARM GAS  C:\Users\Student\AppData\Local\Temp\ccO0FPJj.s 			page 16


 831:Src/stm32f7xx_hal_msp.c ****     */
 832:Src/stm32f7xx_hal_msp.c ****     HAL_GPIO_DeInit(SPDIF_RX0_GPIO_Port, SPDIF_RX0_Pin);
 833:Src/stm32f7xx_hal_msp.c **** 
 834:Src/stm32f7xx_hal_msp.c ****   /* USER CODE BEGIN SPDIFRX_MspDeInit 1 */
 835:Src/stm32f7xx_hal_msp.c **** 
 836:Src/stm32f7xx_hal_msp.c ****   /* USER CODE END SPDIFRX_MspDeInit 1 */
 837:Src/stm32f7xx_hal_msp.c ****   }
 838:Src/stm32f7xx_hal_msp.c **** 
 839:Src/stm32f7xx_hal_msp.c **** }
 840:Src/stm32f7xx_hal_msp.c **** 
 841:Src/stm32f7xx_hal_msp.c **** void HAL_SPI_MspInit(SPI_HandleTypeDef* hspi)
 842:Src/stm32f7xx_hal_msp.c **** {
 843:Src/stm32f7xx_hal_msp.c **** 
 844:Src/stm32f7xx_hal_msp.c ****   GPIO_InitTypeDef GPIO_InitStruct;
 845:Src/stm32f7xx_hal_msp.c ****   if(hspi->Instance==SPI2)
 846:Src/stm32f7xx_hal_msp.c ****   {
 847:Src/stm32f7xx_hal_msp.c ****   /* USER CODE BEGIN SPI2_MspInit 0 */
 848:Src/stm32f7xx_hal_msp.c **** 
 849:Src/stm32f7xx_hal_msp.c ****   /* USER CODE END SPI2_MspInit 0 */
 850:Src/stm32f7xx_hal_msp.c ****     /* Peripheral clock enable */
 851:Src/stm32f7xx_hal_msp.c ****     __HAL_RCC_SPI2_CLK_ENABLE();
 852:Src/stm32f7xx_hal_msp.c ****   
 853:Src/stm32f7xx_hal_msp.c ****     /**SPI2 GPIO Configuration    
 854:Src/stm32f7xx_hal_msp.c ****     PI1     ------> SPI2_SCK
 855:Src/stm32f7xx_hal_msp.c ****     PB14     ------> SPI2_MISO
 856:Src/stm32f7xx_hal_msp.c ****     PB15     ------> SPI2_MOSI 
 857:Src/stm32f7xx_hal_msp.c ****     */
 858:Src/stm32f7xx_hal_msp.c ****     GPIO_InitStruct.Pin = ARDUINO_SCK_D13_Pin;
 859:Src/stm32f7xx_hal_msp.c ****     GPIO_InitStruct.Mode = GPIO_MODE_AF_PP;
 860:Src/stm32f7xx_hal_msp.c ****     GPIO_InitStruct.Pull = GPIO_NOPULL;
 861:Src/stm32f7xx_hal_msp.c ****     GPIO_InitStruct.Speed = GPIO_SPEED_FREQ_LOW;
 862:Src/stm32f7xx_hal_msp.c ****     GPIO_InitStruct.Alternate = GPIO_AF5_SPI2;
 863:Src/stm32f7xx_hal_msp.c ****     HAL_GPIO_Init(ARDUINO_SCK_D13_GPIO_Port, &GPIO_InitStruct);
 864:Src/stm32f7xx_hal_msp.c **** 
 865:Src/stm32f7xx_hal_msp.c ****     GPIO_InitStruct.Pin = ARDUINO_MISO_D12_Pin|ARDUINO_MOSI_PWM_D11_Pin;
 866:Src/stm32f7xx_hal_msp.c ****     GPIO_InitStruct.Mode = GPIO_MODE_AF_PP;
 867:Src/stm32f7xx_hal_msp.c ****     GPIO_InitStruct.Pull = GPIO_NOPULL;
 868:Src/stm32f7xx_hal_msp.c ****     GPIO_InitStruct.Speed = GPIO_SPEED_FREQ_LOW;
 869:Src/stm32f7xx_hal_msp.c ****     GPIO_InitStruct.Alternate = GPIO_AF5_SPI2;
 870:Src/stm32f7xx_hal_msp.c ****     HAL_GPIO_Init(GPIOB, &GPIO_InitStruct);
 871:Src/stm32f7xx_hal_msp.c **** 
 872:Src/stm32f7xx_hal_msp.c ****   /* USER CODE BEGIN SPI2_MspInit 1 */
 873:Src/stm32f7xx_hal_msp.c **** 
 874:Src/stm32f7xx_hal_msp.c ****   /* USER CODE END SPI2_MspInit 1 */
 875:Src/stm32f7xx_hal_msp.c ****   }
 876:Src/stm32f7xx_hal_msp.c **** 
 877:Src/stm32f7xx_hal_msp.c **** }
 878:Src/stm32f7xx_hal_msp.c **** 
 879:Src/stm32f7xx_hal_msp.c **** void HAL_SPI_MspDeInit(SPI_HandleTypeDef* hspi)
 880:Src/stm32f7xx_hal_msp.c **** {
 881:Src/stm32f7xx_hal_msp.c **** 
 882:Src/stm32f7xx_hal_msp.c ****   if(hspi->Instance==SPI2)
 883:Src/stm32f7xx_hal_msp.c ****   {
 884:Src/stm32f7xx_hal_msp.c ****   /* USER CODE BEGIN SPI2_MspDeInit 0 */
 885:Src/stm32f7xx_hal_msp.c **** 
 886:Src/stm32f7xx_hal_msp.c ****   /* USER CODE END SPI2_MspDeInit 0 */
 887:Src/stm32f7xx_hal_msp.c ****     /* Peripheral clock disable */
ARM GAS  C:\Users\Student\AppData\Local\Temp\ccO0FPJj.s 			page 17


 888:Src/stm32f7xx_hal_msp.c ****     __HAL_RCC_SPI2_CLK_DISABLE();
 889:Src/stm32f7xx_hal_msp.c ****   
 890:Src/stm32f7xx_hal_msp.c ****     /**SPI2 GPIO Configuration    
 891:Src/stm32f7xx_hal_msp.c ****     PI1     ------> SPI2_SCK
 892:Src/stm32f7xx_hal_msp.c ****     PB14     ------> SPI2_MISO
 893:Src/stm32f7xx_hal_msp.c ****     PB15     ------> SPI2_MOSI 
 894:Src/stm32f7xx_hal_msp.c ****     */
 895:Src/stm32f7xx_hal_msp.c ****     HAL_GPIO_DeInit(ARDUINO_SCK_D13_GPIO_Port, ARDUINO_SCK_D13_Pin);
 896:Src/stm32f7xx_hal_msp.c **** 
 897:Src/stm32f7xx_hal_msp.c ****     HAL_GPIO_DeInit(GPIOB, ARDUINO_MISO_D12_Pin|ARDUINO_MOSI_PWM_D11_Pin);
 898:Src/stm32f7xx_hal_msp.c **** 
 899:Src/stm32f7xx_hal_msp.c ****   /* USER CODE BEGIN SPI2_MspDeInit 1 */
 900:Src/stm32f7xx_hal_msp.c **** 
 901:Src/stm32f7xx_hal_msp.c ****   /* USER CODE END SPI2_MspDeInit 1 */
 902:Src/stm32f7xx_hal_msp.c ****   }
 903:Src/stm32f7xx_hal_msp.c **** 
 904:Src/stm32f7xx_hal_msp.c **** }
 905:Src/stm32f7xx_hal_msp.c **** 
 906:Src/stm32f7xx_hal_msp.c **** void HAL_TIM_Base_MspInit(TIM_HandleTypeDef* htim_base)
 907:Src/stm32f7xx_hal_msp.c **** {
 908:Src/stm32f7xx_hal_msp.c **** 
 909:Src/stm32f7xx_hal_msp.c ****   if(htim_base->Instance==TIM1)
 910:Src/stm32f7xx_hal_msp.c ****   {
 911:Src/stm32f7xx_hal_msp.c ****   /* USER CODE BEGIN TIM1_MspInit 0 */
 912:Src/stm32f7xx_hal_msp.c **** 
 913:Src/stm32f7xx_hal_msp.c ****   /* USER CODE END TIM1_MspInit 0 */
 914:Src/stm32f7xx_hal_msp.c ****     /* Peripheral clock enable */
 915:Src/stm32f7xx_hal_msp.c ****     __HAL_RCC_TIM1_CLK_ENABLE();
 916:Src/stm32f7xx_hal_msp.c ****   /* USER CODE BEGIN TIM1_MspInit 1 */
 917:Src/stm32f7xx_hal_msp.c **** 
 918:Src/stm32f7xx_hal_msp.c ****   /* USER CODE END TIM1_MspInit 1 */
 919:Src/stm32f7xx_hal_msp.c ****   }
 920:Src/stm32f7xx_hal_msp.c ****   else if(htim_base->Instance==TIM2)
 921:Src/stm32f7xx_hal_msp.c ****   {
 922:Src/stm32f7xx_hal_msp.c ****   /* USER CODE BEGIN TIM2_MspInit 0 */
 923:Src/stm32f7xx_hal_msp.c **** 
 924:Src/stm32f7xx_hal_msp.c ****   /* USER CODE END TIM2_MspInit 0 */
 925:Src/stm32f7xx_hal_msp.c ****     /* Peripheral clock enable */
 926:Src/stm32f7xx_hal_msp.c ****     __HAL_RCC_TIM2_CLK_ENABLE();
 927:Src/stm32f7xx_hal_msp.c ****   /* USER CODE BEGIN TIM2_MspInit 1 */
 928:Src/stm32f7xx_hal_msp.c **** 
 929:Src/stm32f7xx_hal_msp.c ****   /* USER CODE END TIM2_MspInit 1 */
 930:Src/stm32f7xx_hal_msp.c ****   }
 931:Src/stm32f7xx_hal_msp.c ****   else if(htim_base->Instance==TIM3)
 932:Src/stm32f7xx_hal_msp.c ****   {
 933:Src/stm32f7xx_hal_msp.c ****   /* USER CODE BEGIN TIM3_MspInit 0 */
 934:Src/stm32f7xx_hal_msp.c **** 
 935:Src/stm32f7xx_hal_msp.c ****   /* USER CODE END TIM3_MspInit 0 */
 936:Src/stm32f7xx_hal_msp.c ****     /* Peripheral clock enable */
 937:Src/stm32f7xx_hal_msp.c ****     __HAL_RCC_TIM3_CLK_ENABLE();
 938:Src/stm32f7xx_hal_msp.c ****   /* USER CODE BEGIN TIM3_MspInit 1 */
 939:Src/stm32f7xx_hal_msp.c **** 
 940:Src/stm32f7xx_hal_msp.c ****   /* USER CODE END TIM3_MspInit 1 */
 941:Src/stm32f7xx_hal_msp.c ****   }
 942:Src/stm32f7xx_hal_msp.c ****   else if(htim_base->Instance==TIM5)
 943:Src/stm32f7xx_hal_msp.c ****   {
 944:Src/stm32f7xx_hal_msp.c ****   /* USER CODE BEGIN TIM5_MspInit 0 */
ARM GAS  C:\Users\Student\AppData\Local\Temp\ccO0FPJj.s 			page 18


 945:Src/stm32f7xx_hal_msp.c **** 
 946:Src/stm32f7xx_hal_msp.c ****   /* USER CODE END TIM5_MspInit 0 */
 947:Src/stm32f7xx_hal_msp.c ****     /* Peripheral clock enable */
 948:Src/stm32f7xx_hal_msp.c ****     __HAL_RCC_TIM5_CLK_ENABLE();
 949:Src/stm32f7xx_hal_msp.c ****   /* USER CODE BEGIN TIM5_MspInit 1 */
 950:Src/stm32f7xx_hal_msp.c **** 
 951:Src/stm32f7xx_hal_msp.c ****   /* USER CODE END TIM5_MspInit 1 */
 952:Src/stm32f7xx_hal_msp.c ****   }
 953:Src/stm32f7xx_hal_msp.c ****   else if(htim_base->Instance==TIM7)
 954:Src/stm32f7xx_hal_msp.c ****   {
 955:Src/stm32f7xx_hal_msp.c ****   /* USER CODE BEGIN TIM7_MspInit 0 */
 956:Src/stm32f7xx_hal_msp.c **** 
 957:Src/stm32f7xx_hal_msp.c ****   /* USER CODE END TIM7_MspInit 0 */
 958:Src/stm32f7xx_hal_msp.c ****     /* Peripheral clock enable */
 959:Src/stm32f7xx_hal_msp.c ****     __HAL_RCC_TIM7_CLK_ENABLE();
 960:Src/stm32f7xx_hal_msp.c ****   /* USER CODE BEGIN TIM7_MspInit 1 */
 961:Src/stm32f7xx_hal_msp.c **** 
 962:Src/stm32f7xx_hal_msp.c ****   /* USER CODE END TIM7_MspInit 1 */
 963:Src/stm32f7xx_hal_msp.c ****   }
 964:Src/stm32f7xx_hal_msp.c ****   else if(htim_base->Instance==TIM8)
 965:Src/stm32f7xx_hal_msp.c ****   {
 966:Src/stm32f7xx_hal_msp.c ****   /* USER CODE BEGIN TIM8_MspInit 0 */
 967:Src/stm32f7xx_hal_msp.c **** 
 968:Src/stm32f7xx_hal_msp.c ****   /* USER CODE END TIM8_MspInit 0 */
 969:Src/stm32f7xx_hal_msp.c ****     /* Peripheral clock enable */
 970:Src/stm32f7xx_hal_msp.c ****     __HAL_RCC_TIM8_CLK_ENABLE();
 971:Src/stm32f7xx_hal_msp.c ****   /* USER CODE BEGIN TIM8_MspInit 1 */
 972:Src/stm32f7xx_hal_msp.c **** 
 973:Src/stm32f7xx_hal_msp.c ****   /* USER CODE END TIM8_MspInit 1 */
 974:Src/stm32f7xx_hal_msp.c ****   }
 975:Src/stm32f7xx_hal_msp.c **** 
 976:Src/stm32f7xx_hal_msp.c **** }
 977:Src/stm32f7xx_hal_msp.c **** 
 978:Src/stm32f7xx_hal_msp.c **** void HAL_TIM_PWM_MspInit(TIM_HandleTypeDef* htim_pwm)
 979:Src/stm32f7xx_hal_msp.c **** {
 980:Src/stm32f7xx_hal_msp.c **** 
 981:Src/stm32f7xx_hal_msp.c ****   if(htim_pwm->Instance==TIM12)
 982:Src/stm32f7xx_hal_msp.c ****   {
 983:Src/stm32f7xx_hal_msp.c ****   /* USER CODE BEGIN TIM12_MspInit 0 */
 984:Src/stm32f7xx_hal_msp.c **** 
 985:Src/stm32f7xx_hal_msp.c ****   /* USER CODE END TIM12_MspInit 0 */
 986:Src/stm32f7xx_hal_msp.c ****     /* Peripheral clock enable */
 987:Src/stm32f7xx_hal_msp.c ****     __HAL_RCC_TIM12_CLK_ENABLE();
 988:Src/stm32f7xx_hal_msp.c ****   /* USER CODE BEGIN TIM12_MspInit 1 */
 989:Src/stm32f7xx_hal_msp.c **** 
 990:Src/stm32f7xx_hal_msp.c ****   /* USER CODE END TIM12_MspInit 1 */
 991:Src/stm32f7xx_hal_msp.c ****   }
 992:Src/stm32f7xx_hal_msp.c **** 
 993:Src/stm32f7xx_hal_msp.c **** }
 994:Src/stm32f7xx_hal_msp.c **** 
 995:Src/stm32f7xx_hal_msp.c **** void HAL_TIM_MspPostInit(TIM_HandleTypeDef* htim)
 996:Src/stm32f7xx_hal_msp.c **** {
 997:Src/stm32f7xx_hal_msp.c **** 
 998:Src/stm32f7xx_hal_msp.c ****   GPIO_InitTypeDef GPIO_InitStruct;
 999:Src/stm32f7xx_hal_msp.c ****   if(htim->Instance==TIM1)
1000:Src/stm32f7xx_hal_msp.c ****   {
1001:Src/stm32f7xx_hal_msp.c ****   /* USER CODE BEGIN TIM1_MspPostInit 0 */
ARM GAS  C:\Users\Student\AppData\Local\Temp\ccO0FPJj.s 			page 19


1002:Src/stm32f7xx_hal_msp.c **** 
1003:Src/stm32f7xx_hal_msp.c ****   /* USER CODE END TIM1_MspPostInit 0 */
1004:Src/stm32f7xx_hal_msp.c ****     /**TIM1 GPIO Configuration    
1005:Src/stm32f7xx_hal_msp.c ****     PA8     ------> TIM1_CH1 
1006:Src/stm32f7xx_hal_msp.c ****     */
1007:Src/stm32f7xx_hal_msp.c ****     GPIO_InitStruct.Pin = ARDUINO_PWM_D10_Pin;
1008:Src/stm32f7xx_hal_msp.c ****     GPIO_InitStruct.Mode = GPIO_MODE_AF_PP;
1009:Src/stm32f7xx_hal_msp.c ****     GPIO_InitStruct.Pull = GPIO_NOPULL;
1010:Src/stm32f7xx_hal_msp.c ****     GPIO_InitStruct.Speed = GPIO_SPEED_FREQ_LOW;
1011:Src/stm32f7xx_hal_msp.c ****     GPIO_InitStruct.Alternate = GPIO_AF1_TIM1;
1012:Src/stm32f7xx_hal_msp.c ****     HAL_GPIO_Init(ARDUINO_PWM_D10_GPIO_Port, &GPIO_InitStruct);
1013:Src/stm32f7xx_hal_msp.c **** 
1014:Src/stm32f7xx_hal_msp.c ****   /* USER CODE BEGIN TIM1_MspPostInit 1 */
1015:Src/stm32f7xx_hal_msp.c **** 
1016:Src/stm32f7xx_hal_msp.c ****   /* USER CODE END TIM1_MspPostInit 1 */
1017:Src/stm32f7xx_hal_msp.c ****   }
1018:Src/stm32f7xx_hal_msp.c ****   else if(htim->Instance==TIM2)
1019:Src/stm32f7xx_hal_msp.c ****   {
1020:Src/stm32f7xx_hal_msp.c ****   /* USER CODE BEGIN TIM2_MspPostInit 0 */
1021:Src/stm32f7xx_hal_msp.c **** 
1022:Src/stm32f7xx_hal_msp.c ****   /* USER CODE END TIM2_MspPostInit 0 */
1023:Src/stm32f7xx_hal_msp.c ****   
1024:Src/stm32f7xx_hal_msp.c ****     /**TIM2 GPIO Configuration    
1025:Src/stm32f7xx_hal_msp.c ****     PA15     ------> TIM2_CH1 
1026:Src/stm32f7xx_hal_msp.c ****     */
1027:Src/stm32f7xx_hal_msp.c ****     GPIO_InitStruct.Pin = ARDUINO_PWM_D9_Pin;
1028:Src/stm32f7xx_hal_msp.c ****     GPIO_InitStruct.Mode = GPIO_MODE_AF_PP;
1029:Src/stm32f7xx_hal_msp.c ****     GPIO_InitStruct.Pull = GPIO_NOPULL;
1030:Src/stm32f7xx_hal_msp.c ****     GPIO_InitStruct.Speed = GPIO_SPEED_FREQ_LOW;
1031:Src/stm32f7xx_hal_msp.c ****     GPIO_InitStruct.Alternate = GPIO_AF1_TIM2;
1032:Src/stm32f7xx_hal_msp.c ****     HAL_GPIO_Init(ARDUINO_PWM_D9_GPIO_Port, &GPIO_InitStruct);
1033:Src/stm32f7xx_hal_msp.c **** 
1034:Src/stm32f7xx_hal_msp.c ****   /* USER CODE BEGIN TIM2_MspPostInit 1 */
1035:Src/stm32f7xx_hal_msp.c **** 
1036:Src/stm32f7xx_hal_msp.c ****   /* USER CODE END TIM2_MspPostInit 1 */
1037:Src/stm32f7xx_hal_msp.c ****   }
1038:Src/stm32f7xx_hal_msp.c ****   else if(htim->Instance==TIM3)
1039:Src/stm32f7xx_hal_msp.c ****   {
1040:Src/stm32f7xx_hal_msp.c ****   /* USER CODE BEGIN TIM3_MspPostInit 0 */
1041:Src/stm32f7xx_hal_msp.c **** 
1042:Src/stm32f7xx_hal_msp.c ****   /* USER CODE END TIM3_MspPostInit 0 */
1043:Src/stm32f7xx_hal_msp.c ****   
1044:Src/stm32f7xx_hal_msp.c ****     /**TIM3 GPIO Configuration    
1045:Src/stm32f7xx_hal_msp.c ****     PB4     ------> TIM3_CH1 
1046:Src/stm32f7xx_hal_msp.c ****     */
1047:Src/stm32f7xx_hal_msp.c ****     GPIO_InitStruct.Pin = ARDUINO_PWM_D3_Pin;
1048:Src/stm32f7xx_hal_msp.c ****     GPIO_InitStruct.Mode = GPIO_MODE_AF_PP;
1049:Src/stm32f7xx_hal_msp.c ****     GPIO_InitStruct.Pull = GPIO_NOPULL;
1050:Src/stm32f7xx_hal_msp.c ****     GPIO_InitStruct.Speed = GPIO_SPEED_FREQ_LOW;
1051:Src/stm32f7xx_hal_msp.c ****     GPIO_InitStruct.Alternate = GPIO_AF2_TIM3;
1052:Src/stm32f7xx_hal_msp.c ****     HAL_GPIO_Init(ARDUINO_PWM_D3_GPIO_Port, &GPIO_InitStruct);
1053:Src/stm32f7xx_hal_msp.c **** 
1054:Src/stm32f7xx_hal_msp.c ****   /* USER CODE BEGIN TIM3_MspPostInit 1 */
1055:Src/stm32f7xx_hal_msp.c **** 
1056:Src/stm32f7xx_hal_msp.c ****   /* USER CODE END TIM3_MspPostInit 1 */
1057:Src/stm32f7xx_hal_msp.c ****   }
1058:Src/stm32f7xx_hal_msp.c ****   else if(htim->Instance==TIM5)
ARM GAS  C:\Users\Student\AppData\Local\Temp\ccO0FPJj.s 			page 20


1059:Src/stm32f7xx_hal_msp.c ****   {
1060:Src/stm32f7xx_hal_msp.c ****   /* USER CODE BEGIN TIM5_MspPostInit 0 */
1061:Src/stm32f7xx_hal_msp.c **** 
1062:Src/stm32f7xx_hal_msp.c ****   /* USER CODE END TIM5_MspPostInit 0 */
1063:Src/stm32f7xx_hal_msp.c ****   
1064:Src/stm32f7xx_hal_msp.c ****     /**TIM5 GPIO Configuration    
1065:Src/stm32f7xx_hal_msp.c ****     PI0     ------> TIM5_CH4 
1066:Src/stm32f7xx_hal_msp.c ****     */
1067:Src/stm32f7xx_hal_msp.c ****     GPIO_InitStruct.Pin = ARDUINO_PWM_CS_D5_Pin;
1068:Src/stm32f7xx_hal_msp.c ****     GPIO_InitStruct.Mode = GPIO_MODE_AF_PP;
1069:Src/stm32f7xx_hal_msp.c ****     GPIO_InitStruct.Pull = GPIO_NOPULL;
1070:Src/stm32f7xx_hal_msp.c ****     GPIO_InitStruct.Speed = GPIO_SPEED_FREQ_LOW;
1071:Src/stm32f7xx_hal_msp.c ****     GPIO_InitStruct.Alternate = GPIO_AF2_TIM5;
1072:Src/stm32f7xx_hal_msp.c ****     HAL_GPIO_Init(ARDUINO_PWM_CS_D5_GPIO_Port, &GPIO_InitStruct);
1073:Src/stm32f7xx_hal_msp.c **** 
1074:Src/stm32f7xx_hal_msp.c ****   /* USER CODE BEGIN TIM5_MspPostInit 1 */
1075:Src/stm32f7xx_hal_msp.c **** 
1076:Src/stm32f7xx_hal_msp.c ****   /* USER CODE END TIM5_MspPostInit 1 */
1077:Src/stm32f7xx_hal_msp.c ****   }
1078:Src/stm32f7xx_hal_msp.c ****   else if(htim->Instance==TIM12)
1079:Src/stm32f7xx_hal_msp.c ****   {
1080:Src/stm32f7xx_hal_msp.c ****   /* USER CODE BEGIN TIM12_MspPostInit 0 */
1081:Src/stm32f7xx_hal_msp.c **** 
1082:Src/stm32f7xx_hal_msp.c ****   /* USER CODE END TIM12_MspPostInit 0 */
1083:Src/stm32f7xx_hal_msp.c ****   
1084:Src/stm32f7xx_hal_msp.c ****     /**TIM12 GPIO Configuration    
1085:Src/stm32f7xx_hal_msp.c ****     PH6     ------> TIM12_CH1 
1086:Src/stm32f7xx_hal_msp.c ****     */
1087:Src/stm32f7xx_hal_msp.c ****     GPIO_InitStruct.Pin = ARDUINO_PWM_D6_Pin;
1088:Src/stm32f7xx_hal_msp.c ****     GPIO_InitStruct.Mode = GPIO_MODE_AF_PP;
1089:Src/stm32f7xx_hal_msp.c ****     GPIO_InitStruct.Pull = GPIO_NOPULL;
1090:Src/stm32f7xx_hal_msp.c ****     GPIO_InitStruct.Speed = GPIO_SPEED_FREQ_LOW;
1091:Src/stm32f7xx_hal_msp.c ****     GPIO_InitStruct.Alternate = GPIO_AF9_TIM12;
1092:Src/stm32f7xx_hal_msp.c ****     HAL_GPIO_Init(ARDUINO_PWM_D6_GPIO_Port, &GPIO_InitStruct);
1093:Src/stm32f7xx_hal_msp.c **** 
1094:Src/stm32f7xx_hal_msp.c ****   /* USER CODE BEGIN TIM12_MspPostInit 1 */
1095:Src/stm32f7xx_hal_msp.c **** 
1096:Src/stm32f7xx_hal_msp.c ****   /* USER CODE END TIM12_MspPostInit 1 */
1097:Src/stm32f7xx_hal_msp.c ****   }
1098:Src/stm32f7xx_hal_msp.c **** 
1099:Src/stm32f7xx_hal_msp.c **** }
1100:Src/stm32f7xx_hal_msp.c **** 
1101:Src/stm32f7xx_hal_msp.c **** void HAL_TIM_Base_MspDeInit(TIM_HandleTypeDef* htim_base)
1102:Src/stm32f7xx_hal_msp.c **** {
1103:Src/stm32f7xx_hal_msp.c **** 
1104:Src/stm32f7xx_hal_msp.c ****   if(htim_base->Instance==TIM1)
1105:Src/stm32f7xx_hal_msp.c ****   {
1106:Src/stm32f7xx_hal_msp.c ****   /* USER CODE BEGIN TIM1_MspDeInit 0 */
1107:Src/stm32f7xx_hal_msp.c **** 
1108:Src/stm32f7xx_hal_msp.c ****   /* USER CODE END TIM1_MspDeInit 0 */
1109:Src/stm32f7xx_hal_msp.c ****     /* Peripheral clock disable */
1110:Src/stm32f7xx_hal_msp.c ****     __HAL_RCC_TIM1_CLK_DISABLE();
1111:Src/stm32f7xx_hal_msp.c ****   /* USER CODE BEGIN TIM1_MspDeInit 1 */
1112:Src/stm32f7xx_hal_msp.c **** 
1113:Src/stm32f7xx_hal_msp.c ****   /* USER CODE END TIM1_MspDeInit 1 */
1114:Src/stm32f7xx_hal_msp.c ****   }
1115:Src/stm32f7xx_hal_msp.c ****   else if(htim_base->Instance==TIM2)
ARM GAS  C:\Users\Student\AppData\Local\Temp\ccO0FPJj.s 			page 21


1116:Src/stm32f7xx_hal_msp.c ****   {
1117:Src/stm32f7xx_hal_msp.c ****   /* USER CODE BEGIN TIM2_MspDeInit 0 */
1118:Src/stm32f7xx_hal_msp.c **** 
1119:Src/stm32f7xx_hal_msp.c ****   /* USER CODE END TIM2_MspDeInit 0 */
1120:Src/stm32f7xx_hal_msp.c ****     /* Peripheral clock disable */
1121:Src/stm32f7xx_hal_msp.c ****     __HAL_RCC_TIM2_CLK_DISABLE();
1122:Src/stm32f7xx_hal_msp.c ****   /* USER CODE BEGIN TIM2_MspDeInit 1 */
1123:Src/stm32f7xx_hal_msp.c **** 
1124:Src/stm32f7xx_hal_msp.c ****   /* USER CODE END TIM2_MspDeInit 1 */
1125:Src/stm32f7xx_hal_msp.c ****   }
1126:Src/stm32f7xx_hal_msp.c ****   else if(htim_base->Instance==TIM3)
1127:Src/stm32f7xx_hal_msp.c ****   {
1128:Src/stm32f7xx_hal_msp.c ****   /* USER CODE BEGIN TIM3_MspDeInit 0 */
1129:Src/stm32f7xx_hal_msp.c **** 
1130:Src/stm32f7xx_hal_msp.c ****   /* USER CODE END TIM3_MspDeInit 0 */
1131:Src/stm32f7xx_hal_msp.c ****     /* Peripheral clock disable */
1132:Src/stm32f7xx_hal_msp.c ****     __HAL_RCC_TIM3_CLK_DISABLE();
1133:Src/stm32f7xx_hal_msp.c ****   /* USER CODE BEGIN TIM3_MspDeInit 1 */
1134:Src/stm32f7xx_hal_msp.c **** 
1135:Src/stm32f7xx_hal_msp.c ****   /* USER CODE END TIM3_MspDeInit 1 */
1136:Src/stm32f7xx_hal_msp.c ****   }
1137:Src/stm32f7xx_hal_msp.c ****   else if(htim_base->Instance==TIM5)
1138:Src/stm32f7xx_hal_msp.c ****   {
1139:Src/stm32f7xx_hal_msp.c ****   /* USER CODE BEGIN TIM5_MspDeInit 0 */
1140:Src/stm32f7xx_hal_msp.c **** 
1141:Src/stm32f7xx_hal_msp.c ****   /* USER CODE END TIM5_MspDeInit 0 */
1142:Src/stm32f7xx_hal_msp.c ****     /* Peripheral clock disable */
1143:Src/stm32f7xx_hal_msp.c ****     __HAL_RCC_TIM5_CLK_DISABLE();
1144:Src/stm32f7xx_hal_msp.c ****   /* USER CODE BEGIN TIM5_MspDeInit 1 */
1145:Src/stm32f7xx_hal_msp.c **** 
1146:Src/stm32f7xx_hal_msp.c ****   /* USER CODE END TIM5_MspDeInit 1 */
1147:Src/stm32f7xx_hal_msp.c ****   }
1148:Src/stm32f7xx_hal_msp.c ****   else if(htim_base->Instance==TIM7)
1149:Src/stm32f7xx_hal_msp.c ****   {
1150:Src/stm32f7xx_hal_msp.c ****   /* USER CODE BEGIN TIM7_MspDeInit 0 */
1151:Src/stm32f7xx_hal_msp.c **** 
1152:Src/stm32f7xx_hal_msp.c ****   /* USER CODE END TIM7_MspDeInit 0 */
1153:Src/stm32f7xx_hal_msp.c ****     /* Peripheral clock disable */
1154:Src/stm32f7xx_hal_msp.c ****     __HAL_RCC_TIM7_CLK_DISABLE();
1155:Src/stm32f7xx_hal_msp.c ****   /* USER CODE BEGIN TIM7_MspDeInit 1 */
1156:Src/stm32f7xx_hal_msp.c **** 
1157:Src/stm32f7xx_hal_msp.c ****   /* USER CODE END TIM7_MspDeInit 1 */
1158:Src/stm32f7xx_hal_msp.c ****   }
1159:Src/stm32f7xx_hal_msp.c ****   else if(htim_base->Instance==TIM8)
1160:Src/stm32f7xx_hal_msp.c ****   {
1161:Src/stm32f7xx_hal_msp.c ****   /* USER CODE BEGIN TIM8_MspDeInit 0 */
1162:Src/stm32f7xx_hal_msp.c **** 
1163:Src/stm32f7xx_hal_msp.c ****   /* USER CODE END TIM8_MspDeInit 0 */
1164:Src/stm32f7xx_hal_msp.c ****     /* Peripheral clock disable */
1165:Src/stm32f7xx_hal_msp.c ****     __HAL_RCC_TIM8_CLK_DISABLE();
1166:Src/stm32f7xx_hal_msp.c ****   /* USER CODE BEGIN TIM8_MspDeInit 1 */
1167:Src/stm32f7xx_hal_msp.c **** 
1168:Src/stm32f7xx_hal_msp.c ****   /* USER CODE END TIM8_MspDeInit 1 */
1169:Src/stm32f7xx_hal_msp.c ****   }
1170:Src/stm32f7xx_hal_msp.c **** 
1171:Src/stm32f7xx_hal_msp.c **** }
1172:Src/stm32f7xx_hal_msp.c **** 
ARM GAS  C:\Users\Student\AppData\Local\Temp\ccO0FPJj.s 			page 22


1173:Src/stm32f7xx_hal_msp.c **** void HAL_TIM_PWM_MspDeInit(TIM_HandleTypeDef* htim_pwm)
1174:Src/stm32f7xx_hal_msp.c **** {
1175:Src/stm32f7xx_hal_msp.c **** 
1176:Src/stm32f7xx_hal_msp.c ****   if(htim_pwm->Instance==TIM12)
1177:Src/stm32f7xx_hal_msp.c ****   {
1178:Src/stm32f7xx_hal_msp.c ****   /* USER CODE BEGIN TIM12_MspDeInit 0 */
1179:Src/stm32f7xx_hal_msp.c **** 
1180:Src/stm32f7xx_hal_msp.c ****   /* USER CODE END TIM12_MspDeInit 0 */
1181:Src/stm32f7xx_hal_msp.c ****     /* Peripheral clock disable */
1182:Src/stm32f7xx_hal_msp.c ****     __HAL_RCC_TIM12_CLK_DISABLE();
1183:Src/stm32f7xx_hal_msp.c ****   /* USER CODE BEGIN TIM12_MspDeInit 1 */
1184:Src/stm32f7xx_hal_msp.c **** 
1185:Src/stm32f7xx_hal_msp.c ****   /* USER CODE END TIM12_MspDeInit 1 */
1186:Src/stm32f7xx_hal_msp.c ****   }
1187:Src/stm32f7xx_hal_msp.c **** 
1188:Src/stm32f7xx_hal_msp.c **** }
1189:Src/stm32f7xx_hal_msp.c **** 
1190:Src/stm32f7xx_hal_msp.c **** void HAL_UART_MspInit(UART_HandleTypeDef* huart)
1191:Src/stm32f7xx_hal_msp.c **** {
1192:Src/stm32f7xx_hal_msp.c **** 
1193:Src/stm32f7xx_hal_msp.c ****   GPIO_InitTypeDef GPIO_InitStruct;
1194:Src/stm32f7xx_hal_msp.c ****   if(huart->Instance==USART1)
1195:Src/stm32f7xx_hal_msp.c ****   {
1196:Src/stm32f7xx_hal_msp.c ****   /* USER CODE BEGIN USART1_MspInit 0 */
1197:Src/stm32f7xx_hal_msp.c **** 
1198:Src/stm32f7xx_hal_msp.c ****   /* USER CODE END USART1_MspInit 0 */
1199:Src/stm32f7xx_hal_msp.c ****     /* Peripheral clock enable */
1200:Src/stm32f7xx_hal_msp.c ****     __HAL_RCC_USART1_CLK_ENABLE();
1201:Src/stm32f7xx_hal_msp.c ****   
1202:Src/stm32f7xx_hal_msp.c ****     /**USART1 GPIO Configuration    
1203:Src/stm32f7xx_hal_msp.c ****     PB7     ------> USART1_RX
1204:Src/stm32f7xx_hal_msp.c ****     PA9     ------> USART1_TX 
1205:Src/stm32f7xx_hal_msp.c ****     */
1206:Src/stm32f7xx_hal_msp.c ****     GPIO_InitStruct.Pin = VCP_RX_Pin;
1207:Src/stm32f7xx_hal_msp.c ****     GPIO_InitStruct.Mode = GPIO_MODE_AF_PP;
1208:Src/stm32f7xx_hal_msp.c ****     GPIO_InitStruct.Pull = GPIO_NOPULL;
1209:Src/stm32f7xx_hal_msp.c ****     GPIO_InitStruct.Speed = GPIO_SPEED_FREQ_LOW;
1210:Src/stm32f7xx_hal_msp.c ****     GPIO_InitStruct.Alternate = GPIO_AF7_USART1;
1211:Src/stm32f7xx_hal_msp.c ****     HAL_GPIO_Init(VCP_RX_GPIO_Port, &GPIO_InitStruct);
1212:Src/stm32f7xx_hal_msp.c **** 
1213:Src/stm32f7xx_hal_msp.c ****     GPIO_InitStruct.Pin = VCP_TX_Pin;
1214:Src/stm32f7xx_hal_msp.c ****     GPIO_InitStruct.Mode = GPIO_MODE_AF_PP;
1215:Src/stm32f7xx_hal_msp.c ****     GPIO_InitStruct.Pull = GPIO_NOPULL;
1216:Src/stm32f7xx_hal_msp.c ****     GPIO_InitStruct.Speed = GPIO_SPEED_FREQ_LOW;
1217:Src/stm32f7xx_hal_msp.c ****     GPIO_InitStruct.Alternate = GPIO_AF7_USART1;
1218:Src/stm32f7xx_hal_msp.c ****     HAL_GPIO_Init(VCP_TX_GPIO_Port, &GPIO_InitStruct);
1219:Src/stm32f7xx_hal_msp.c **** 
1220:Src/stm32f7xx_hal_msp.c ****   /* USER CODE BEGIN USART1_MspInit 1 */
1221:Src/stm32f7xx_hal_msp.c **** 
1222:Src/stm32f7xx_hal_msp.c ****   /* USER CODE END USART1_MspInit 1 */
1223:Src/stm32f7xx_hal_msp.c ****   }
1224:Src/stm32f7xx_hal_msp.c ****   else if(huart->Instance==USART6)
1225:Src/stm32f7xx_hal_msp.c ****   {
1226:Src/stm32f7xx_hal_msp.c ****   /* USER CODE BEGIN USART6_MspInit 0 */
1227:Src/stm32f7xx_hal_msp.c **** 
1228:Src/stm32f7xx_hal_msp.c ****   /* USER CODE END USART6_MspInit 0 */
1229:Src/stm32f7xx_hal_msp.c ****     /* Peripheral clock enable */
ARM GAS  C:\Users\Student\AppData\Local\Temp\ccO0FPJj.s 			page 23


1230:Src/stm32f7xx_hal_msp.c ****     __HAL_RCC_USART6_CLK_ENABLE();
1231:Src/stm32f7xx_hal_msp.c ****   
1232:Src/stm32f7xx_hal_msp.c ****     /**USART6 GPIO Configuration    
1233:Src/stm32f7xx_hal_msp.c ****     PC7     ------> USART6_RX
1234:Src/stm32f7xx_hal_msp.c ****     PC6     ------> USART6_TX 
1235:Src/stm32f7xx_hal_msp.c ****     */
1236:Src/stm32f7xx_hal_msp.c ****     GPIO_InitStruct.Pin = ARDUINO_RX_D0_Pin|ARDUINO_TX_D1_Pin;
1237:Src/stm32f7xx_hal_msp.c ****     GPIO_InitStruct.Mode = GPIO_MODE_AF_PP;
1238:Src/stm32f7xx_hal_msp.c ****     GPIO_InitStruct.Pull = GPIO_NOPULL;
1239:Src/stm32f7xx_hal_msp.c ****     GPIO_InitStruct.Speed = GPIO_SPEED_FREQ_VERY_HIGH;
1240:Src/stm32f7xx_hal_msp.c ****     GPIO_InitStruct.Alternate = GPIO_AF8_USART6;
1241:Src/stm32f7xx_hal_msp.c ****     HAL_GPIO_Init(GPIOC, &GPIO_InitStruct);
1242:Src/stm32f7xx_hal_msp.c **** 
1243:Src/stm32f7xx_hal_msp.c ****   /* USER CODE BEGIN USART6_MspInit 1 */
1244:Src/stm32f7xx_hal_msp.c **** 
1245:Src/stm32f7xx_hal_msp.c ****   /* USER CODE END USART6_MspInit 1 */
1246:Src/stm32f7xx_hal_msp.c ****   }
1247:Src/stm32f7xx_hal_msp.c **** 
1248:Src/stm32f7xx_hal_msp.c **** }
1249:Src/stm32f7xx_hal_msp.c **** 
1250:Src/stm32f7xx_hal_msp.c **** void HAL_UART_MspDeInit(UART_HandleTypeDef* huart)
1251:Src/stm32f7xx_hal_msp.c **** {
1252:Src/stm32f7xx_hal_msp.c **** 
1253:Src/stm32f7xx_hal_msp.c ****   if(huart->Instance==USART1)
1254:Src/stm32f7xx_hal_msp.c ****   {
1255:Src/stm32f7xx_hal_msp.c ****   /* USER CODE BEGIN USART1_MspDeInit 0 */
1256:Src/stm32f7xx_hal_msp.c **** 
1257:Src/stm32f7xx_hal_msp.c ****   /* USER CODE END USART1_MspDeInit 0 */
1258:Src/stm32f7xx_hal_msp.c ****     /* Peripheral clock disable */
1259:Src/stm32f7xx_hal_msp.c ****     __HAL_RCC_USART1_CLK_DISABLE();
1260:Src/stm32f7xx_hal_msp.c ****   
1261:Src/stm32f7xx_hal_msp.c ****     /**USART1 GPIO Configuration    
1262:Src/stm32f7xx_hal_msp.c ****     PB7     ------> USART1_RX
1263:Src/stm32f7xx_hal_msp.c ****     PA9     ------> USART1_TX 
1264:Src/stm32f7xx_hal_msp.c ****     */
1265:Src/stm32f7xx_hal_msp.c ****     HAL_GPIO_DeInit(VCP_RX_GPIO_Port, VCP_RX_Pin);
1266:Src/stm32f7xx_hal_msp.c **** 
1267:Src/stm32f7xx_hal_msp.c ****     HAL_GPIO_DeInit(VCP_TX_GPIO_Port, VCP_TX_Pin);
1268:Src/stm32f7xx_hal_msp.c **** 
1269:Src/stm32f7xx_hal_msp.c ****   /* USER CODE BEGIN USART1_MspDeInit 1 */
1270:Src/stm32f7xx_hal_msp.c **** 
1271:Src/stm32f7xx_hal_msp.c ****   /* USER CODE END USART1_MspDeInit 1 */
1272:Src/stm32f7xx_hal_msp.c ****   }
1273:Src/stm32f7xx_hal_msp.c ****   else if(huart->Instance==USART6)
1274:Src/stm32f7xx_hal_msp.c ****   {
1275:Src/stm32f7xx_hal_msp.c ****   /* USER CODE BEGIN USART6_MspDeInit 0 */
1276:Src/stm32f7xx_hal_msp.c **** 
1277:Src/stm32f7xx_hal_msp.c ****   /* USER CODE END USART6_MspDeInit 0 */
1278:Src/stm32f7xx_hal_msp.c ****     /* Peripheral clock disable */
1279:Src/stm32f7xx_hal_msp.c ****     __HAL_RCC_USART6_CLK_DISABLE();
1280:Src/stm32f7xx_hal_msp.c ****   
1281:Src/stm32f7xx_hal_msp.c ****     /**USART6 GPIO Configuration    
1282:Src/stm32f7xx_hal_msp.c ****     PC7     ------> USART6_RX
1283:Src/stm32f7xx_hal_msp.c ****     PC6     ------> USART6_TX 
1284:Src/stm32f7xx_hal_msp.c ****     */
1285:Src/stm32f7xx_hal_msp.c ****     HAL_GPIO_DeInit(GPIOC, ARDUINO_RX_D0_Pin|ARDUINO_TX_D1_Pin);
1286:Src/stm32f7xx_hal_msp.c **** 
ARM GAS  C:\Users\Student\AppData\Local\Temp\ccO0FPJj.s 			page 24


1287:Src/stm32f7xx_hal_msp.c ****   /* USER CODE BEGIN USART6_MspDeInit 1 */
1288:Src/stm32f7xx_hal_msp.c **** 
1289:Src/stm32f7xx_hal_msp.c ****   /* USER CODE END USART6_MspDeInit 1 */
1290:Src/stm32f7xx_hal_msp.c ****   }
1291:Src/stm32f7xx_hal_msp.c **** 
1292:Src/stm32f7xx_hal_msp.c **** }
1293:Src/stm32f7xx_hal_msp.c **** 
1294:Src/stm32f7xx_hal_msp.c **** static uint32_t FMC_Initialized = 0;
1295:Src/stm32f7xx_hal_msp.c **** 
1296:Src/stm32f7xx_hal_msp.c **** static void HAL_FMC_MspInit(void){
  27              		.loc 1 1296 0
  28              		.cfi_startproc
  29              		@ args = 0, pretend = 0, frame = 24
  30              		@ frame_needed = 0, uses_anonymous_args = 0
1297:Src/stm32f7xx_hal_msp.c ****   /* USER CODE BEGIN FMC_MspInit 0 */
1298:Src/stm32f7xx_hal_msp.c **** 
1299:Src/stm32f7xx_hal_msp.c ****   /* USER CODE END FMC_MspInit 0 */
1300:Src/stm32f7xx_hal_msp.c ****   GPIO_InitTypeDef GPIO_InitStruct;
1301:Src/stm32f7xx_hal_msp.c ****   if (FMC_Initialized) {
  31              		.loc 1 1301 0
  32 0000 2C4B     		ldr	r3, .L9
  33 0002 1B68     		ldr	r3, [r3]
  34 0004 03B1     		cbz	r3, .L8
  35 0006 7047     		bx	lr
  36              	.L8:
1296:Src/stm32f7xx_hal_msp.c ****   /* USER CODE BEGIN FMC_MspInit 0 */
  37              		.loc 1 1296 0
  38 0008 F0B5     		push	{r4, r5, r6, r7, lr}
  39              	.LCFI0:
  40              		.cfi_def_cfa_offset 20
  41              		.cfi_offset 4, -20
  42              		.cfi_offset 5, -16
  43              		.cfi_offset 6, -12
  44              		.cfi_offset 7, -8
  45              		.cfi_offset 14, -4
  46 000a 87B0     		sub	sp, sp, #28
  47              	.LCFI1:
  48              		.cfi_def_cfa_offset 48
1302:Src/stm32f7xx_hal_msp.c ****     return;
1303:Src/stm32f7xx_hal_msp.c ****   }
1304:Src/stm32f7xx_hal_msp.c ****   FMC_Initialized = 1;
  49              		.loc 1 1304 0
  50 000c 0122     		movs	r2, #1
  51 000e 294B     		ldr	r3, .L9
  52 0010 1A60     		str	r2, [r3]
  53              	.LBB2:
1305:Src/stm32f7xx_hal_msp.c ****   /* Peripheral clock enable */
1306:Src/stm32f7xx_hal_msp.c ****   __HAL_RCC_FMC_CLK_ENABLE();
  54              		.loc 1 1306 0
  55 0012 294B     		ldr	r3, .L9+4
  56 0014 9A6B     		ldr	r2, [r3, #56]
  57 0016 42F00102 		orr	r2, r2, #1
  58 001a 9A63     		str	r2, [r3, #56]
  59 001c 9B6B     		ldr	r3, [r3, #56]
  60 001e 03F00103 		and	r3, r3, #1
  61 0022 0093     		str	r3, [sp]
  62 0024 009B     		ldr	r3, [sp]
ARM GAS  C:\Users\Student\AppData\Local\Temp\ccO0FPJj.s 			page 25


  63              	.LBE2:
1307:Src/stm32f7xx_hal_msp.c ****   
1308:Src/stm32f7xx_hal_msp.c ****   /** FMC GPIO Configuration  
1309:Src/stm32f7xx_hal_msp.c ****   PE1   ------> FMC_NBL1
1310:Src/stm32f7xx_hal_msp.c ****   PE0   ------> FMC_NBL0
1311:Src/stm32f7xx_hal_msp.c ****   PG15   ------> FMC_SDNCAS
1312:Src/stm32f7xx_hal_msp.c ****   PD0   ------> FMC_D2
1313:Src/stm32f7xx_hal_msp.c ****   PD1   ------> FMC_D3
1314:Src/stm32f7xx_hal_msp.c ****   PF0   ------> FMC_A0
1315:Src/stm32f7xx_hal_msp.c ****   PF1   ------> FMC_A1
1316:Src/stm32f7xx_hal_msp.c ****   PF2   ------> FMC_A2
1317:Src/stm32f7xx_hal_msp.c ****   PF3   ------> FMC_A3
1318:Src/stm32f7xx_hal_msp.c ****   PG8   ------> FMC_SDCLK
1319:Src/stm32f7xx_hal_msp.c ****   PF4   ------> FMC_A4
1320:Src/stm32f7xx_hal_msp.c ****   PH5   ------> FMC_SDNWE
1321:Src/stm32f7xx_hal_msp.c ****   PH3   ------> FMC_SDNE0
1322:Src/stm32f7xx_hal_msp.c ****   PF5   ------> FMC_A5
1323:Src/stm32f7xx_hal_msp.c ****   PD15   ------> FMC_D1
1324:Src/stm32f7xx_hal_msp.c ****   PD10   ------> FMC_D15
1325:Src/stm32f7xx_hal_msp.c ****   PC3   ------> FMC_SDCKE0
1326:Src/stm32f7xx_hal_msp.c ****   PD14   ------> FMC_D0
1327:Src/stm32f7xx_hal_msp.c ****   PD9   ------> FMC_D14
1328:Src/stm32f7xx_hal_msp.c ****   PD8   ------> FMC_D13
1329:Src/stm32f7xx_hal_msp.c ****   PF12   ------> FMC_A6
1330:Src/stm32f7xx_hal_msp.c ****   PG1   ------> FMC_A11
1331:Src/stm32f7xx_hal_msp.c ****   PF15   ------> FMC_A9
1332:Src/stm32f7xx_hal_msp.c ****   PF13   ------> FMC_A7
1333:Src/stm32f7xx_hal_msp.c ****   PG0   ------> FMC_A10
1334:Src/stm32f7xx_hal_msp.c ****   PE8   ------> FMC_D5
1335:Src/stm32f7xx_hal_msp.c ****   PG5   ------> FMC_BA1
1336:Src/stm32f7xx_hal_msp.c ****   PG4   ------> FMC_BA0
1337:Src/stm32f7xx_hal_msp.c ****   PF14   ------> FMC_A8
1338:Src/stm32f7xx_hal_msp.c ****   PF11   ------> FMC_SDNRAS
1339:Src/stm32f7xx_hal_msp.c ****   PE9   ------> FMC_D6
1340:Src/stm32f7xx_hal_msp.c ****   PE11   ------> FMC_D8
1341:Src/stm32f7xx_hal_msp.c ****   PE14   ------> FMC_D11
1342:Src/stm32f7xx_hal_msp.c ****   PE7   ------> FMC_D4
1343:Src/stm32f7xx_hal_msp.c ****   PE10   ------> FMC_D7
1344:Src/stm32f7xx_hal_msp.c ****   PE12   ------> FMC_D9
1345:Src/stm32f7xx_hal_msp.c ****   PE15   ------> FMC_D12
1346:Src/stm32f7xx_hal_msp.c ****   PE13   ------> FMC_D10
1347:Src/stm32f7xx_hal_msp.c ****   */
1348:Src/stm32f7xx_hal_msp.c ****   GPIO_InitStruct.Pin = FMC_NBL1_Pin|FMC_NBL0_Pin|FMC_D5_Pin|FMC_D6_Pin 
  64              		.loc 1 1348 0
  65 0026 4FF68373 		movw	r3, #65411
  66 002a 0193     		str	r3, [sp, #4]
1349:Src/stm32f7xx_hal_msp.c ****                           |FMC_D8_Pin|FMC_D11_Pin|FMC_D4_Pin|FMC_D7_Pin 
1350:Src/stm32f7xx_hal_msp.c ****                           |FMC_D9_Pin|FMC_D12_Pin|FMC_D10_Pin;
1351:Src/stm32f7xx_hal_msp.c ****   GPIO_InitStruct.Mode = GPIO_MODE_AF_PP;
  67              		.loc 1 1351 0
  68 002c 0227     		movs	r7, #2
  69 002e 0297     		str	r7, [sp, #8]
1352:Src/stm32f7xx_hal_msp.c ****   GPIO_InitStruct.Pull = GPIO_NOPULL;
  70              		.loc 1 1352 0
  71 0030 0026     		movs	r6, #0
  72 0032 0396     		str	r6, [sp, #12]
1353:Src/stm32f7xx_hal_msp.c ****   GPIO_InitStruct.Speed = GPIO_SPEED_FREQ_VERY_HIGH;
ARM GAS  C:\Users\Student\AppData\Local\Temp\ccO0FPJj.s 			page 26


  73              		.loc 1 1353 0
  74 0034 0325     		movs	r5, #3
  75 0036 0495     		str	r5, [sp, #16]
1354:Src/stm32f7xx_hal_msp.c ****   GPIO_InitStruct.Alternate = GPIO_AF12_FMC;
  76              		.loc 1 1354 0
  77 0038 0C24     		movs	r4, #12
  78 003a 0594     		str	r4, [sp, #20]
1355:Src/stm32f7xx_hal_msp.c ****   HAL_GPIO_Init(GPIOE, &GPIO_InitStruct);
  79              		.loc 1 1355 0
  80 003c 01A9     		add	r1, sp, #4
  81 003e 1F48     		ldr	r0, .L9+8
  82 0040 FFF7FEFF 		bl	HAL_GPIO_Init
  83              	.LVL0:
1356:Src/stm32f7xx_hal_msp.c **** 
1357:Src/stm32f7xx_hal_msp.c ****   GPIO_InitStruct.Pin = FMC_SDNCAS_Pin|FMC_SDCLK_Pin|FMC_A11_Pin|FMC_A10_Pin 
  84              		.loc 1 1357 0
  85 0044 48F23313 		movw	r3, #33075
  86 0048 0193     		str	r3, [sp, #4]
1358:Src/stm32f7xx_hal_msp.c ****                           |FMC_BA1_Pin|FMC_BA0_Pin;
1359:Src/stm32f7xx_hal_msp.c ****   GPIO_InitStruct.Mode = GPIO_MODE_AF_PP;
  87              		.loc 1 1359 0
  88 004a 0297     		str	r7, [sp, #8]
1360:Src/stm32f7xx_hal_msp.c ****   GPIO_InitStruct.Pull = GPIO_NOPULL;
  89              		.loc 1 1360 0
  90 004c 0396     		str	r6, [sp, #12]
1361:Src/stm32f7xx_hal_msp.c ****   GPIO_InitStruct.Speed = GPIO_SPEED_FREQ_VERY_HIGH;
  91              		.loc 1 1361 0
  92 004e 0495     		str	r5, [sp, #16]
1362:Src/stm32f7xx_hal_msp.c ****   GPIO_InitStruct.Alternate = GPIO_AF12_FMC;
  93              		.loc 1 1362 0
  94 0050 0594     		str	r4, [sp, #20]
1363:Src/stm32f7xx_hal_msp.c ****   HAL_GPIO_Init(GPIOG, &GPIO_InitStruct);
  95              		.loc 1 1363 0
  96 0052 01A9     		add	r1, sp, #4
  97 0054 1A48     		ldr	r0, .L9+12
  98 0056 FFF7FEFF 		bl	HAL_GPIO_Init
  99              	.LVL1:
1364:Src/stm32f7xx_hal_msp.c **** 
1365:Src/stm32f7xx_hal_msp.c ****   GPIO_InitStruct.Pin = FMC_D2_Pin|FMC_D3_Pin|FMC_D1_Pin|FMC_D15_Pin 
 100              		.loc 1 1365 0
 101 005a 4CF20373 		movw	r3, #50947
 102 005e 0193     		str	r3, [sp, #4]
1366:Src/stm32f7xx_hal_msp.c ****                           |FMC_D0_Pin|FMC_D14_Pin|FMC_D13_Pin;
1367:Src/stm32f7xx_hal_msp.c ****   GPIO_InitStruct.Mode = GPIO_MODE_AF_PP;
 103              		.loc 1 1367 0
 104 0060 0297     		str	r7, [sp, #8]
1368:Src/stm32f7xx_hal_msp.c ****   GPIO_InitStruct.Pull = GPIO_NOPULL;
 105              		.loc 1 1368 0
 106 0062 0396     		str	r6, [sp, #12]
1369:Src/stm32f7xx_hal_msp.c ****   GPIO_InitStruct.Speed = GPIO_SPEED_FREQ_VERY_HIGH;
 107              		.loc 1 1369 0
 108 0064 0495     		str	r5, [sp, #16]
1370:Src/stm32f7xx_hal_msp.c ****   GPIO_InitStruct.Alternate = GPIO_AF12_FMC;
 109              		.loc 1 1370 0
 110 0066 0594     		str	r4, [sp, #20]
1371:Src/stm32f7xx_hal_msp.c ****   HAL_GPIO_Init(GPIOD, &GPIO_InitStruct);
 111              		.loc 1 1371 0
ARM GAS  C:\Users\Student\AppData\Local\Temp\ccO0FPJj.s 			page 27


 112 0068 01A9     		add	r1, sp, #4
 113 006a 1648     		ldr	r0, .L9+16
 114 006c FFF7FEFF 		bl	HAL_GPIO_Init
 115              	.LVL2:
1372:Src/stm32f7xx_hal_msp.c **** 
1373:Src/stm32f7xx_hal_msp.c ****   GPIO_InitStruct.Pin = FMC_A0_Pin|FMC_A1_Pin|FMC_A2_Pin|FMC_A3_Pin 
 116              		.loc 1 1373 0
 117 0070 4FF63F03 		movw	r3, #63551
 118 0074 0193     		str	r3, [sp, #4]
1374:Src/stm32f7xx_hal_msp.c ****                           |FMC_A4_Pin|FMC_A5_Pin|FMC_A6_Pin|FMC_A9_Pin 
1375:Src/stm32f7xx_hal_msp.c ****                           |FMC_A7_Pin|FMC_A8_Pin|FMC_SDNRAS_Pin;
1376:Src/stm32f7xx_hal_msp.c ****   GPIO_InitStruct.Mode = GPIO_MODE_AF_PP;
 119              		.loc 1 1376 0
 120 0076 0297     		str	r7, [sp, #8]
1377:Src/stm32f7xx_hal_msp.c ****   GPIO_InitStruct.Pull = GPIO_NOPULL;
 121              		.loc 1 1377 0
 122 0078 0396     		str	r6, [sp, #12]
1378:Src/stm32f7xx_hal_msp.c ****   GPIO_InitStruct.Speed = GPIO_SPEED_FREQ_VERY_HIGH;
 123              		.loc 1 1378 0
 124 007a 0495     		str	r5, [sp, #16]
1379:Src/stm32f7xx_hal_msp.c ****   GPIO_InitStruct.Alternate = GPIO_AF12_FMC;
 125              		.loc 1 1379 0
 126 007c 0594     		str	r4, [sp, #20]
1380:Src/stm32f7xx_hal_msp.c ****   HAL_GPIO_Init(GPIOF, &GPIO_InitStruct);
 127              		.loc 1 1380 0
 128 007e 01A9     		add	r1, sp, #4
 129 0080 1148     		ldr	r0, .L9+20
 130 0082 FFF7FEFF 		bl	HAL_GPIO_Init
 131              	.LVL3:
1381:Src/stm32f7xx_hal_msp.c **** 
1382:Src/stm32f7xx_hal_msp.c ****   GPIO_InitStruct.Pin = FMC_SDNME_Pin|FMC_SDNE0_Pin;
 132              		.loc 1 1382 0
 133 0086 2823     		movs	r3, #40
 134 0088 0193     		str	r3, [sp, #4]
1383:Src/stm32f7xx_hal_msp.c ****   GPIO_InitStruct.Mode = GPIO_MODE_AF_PP;
 135              		.loc 1 1383 0
 136 008a 0297     		str	r7, [sp, #8]
1384:Src/stm32f7xx_hal_msp.c ****   GPIO_InitStruct.Pull = GPIO_NOPULL;
 137              		.loc 1 1384 0
 138 008c 0396     		str	r6, [sp, #12]
1385:Src/stm32f7xx_hal_msp.c ****   GPIO_InitStruct.Speed = GPIO_SPEED_FREQ_VERY_HIGH;
 139              		.loc 1 1385 0
 140 008e 0495     		str	r5, [sp, #16]
1386:Src/stm32f7xx_hal_msp.c ****   GPIO_InitStruct.Alternate = GPIO_AF12_FMC;
 141              		.loc 1 1386 0
 142 0090 0594     		str	r4, [sp, #20]
1387:Src/stm32f7xx_hal_msp.c ****   HAL_GPIO_Init(GPIOH, &GPIO_InitStruct);
 143              		.loc 1 1387 0
 144 0092 01A9     		add	r1, sp, #4
 145 0094 0D48     		ldr	r0, .L9+24
 146 0096 FFF7FEFF 		bl	HAL_GPIO_Init
 147              	.LVL4:
1388:Src/stm32f7xx_hal_msp.c **** 
1389:Src/stm32f7xx_hal_msp.c ****   GPIO_InitStruct.Pin = FMC_SDCKE0_Pin;
 148              		.loc 1 1389 0
 149 009a 0823     		movs	r3, #8
 150 009c 0193     		str	r3, [sp, #4]
ARM GAS  C:\Users\Student\AppData\Local\Temp\ccO0FPJj.s 			page 28


1390:Src/stm32f7xx_hal_msp.c ****   GPIO_InitStruct.Mode = GPIO_MODE_AF_PP;
 151              		.loc 1 1390 0
 152 009e 0297     		str	r7, [sp, #8]
1391:Src/stm32f7xx_hal_msp.c ****   GPIO_InitStruct.Pull = GPIO_NOPULL;
 153              		.loc 1 1391 0
 154 00a0 0396     		str	r6, [sp, #12]
1392:Src/stm32f7xx_hal_msp.c ****   GPIO_InitStruct.Speed = GPIO_SPEED_FREQ_VERY_HIGH;
 155              		.loc 1 1392 0
 156 00a2 0495     		str	r5, [sp, #16]
1393:Src/stm32f7xx_hal_msp.c ****   GPIO_InitStruct.Alternate = GPIO_AF12_FMC;
 157              		.loc 1 1393 0
 158 00a4 0594     		str	r4, [sp, #20]
1394:Src/stm32f7xx_hal_msp.c ****   HAL_GPIO_Init(FMC_SDCKE0_GPIO_Port, &GPIO_InitStruct);
 159              		.loc 1 1394 0
 160 00a6 01A9     		add	r1, sp, #4
 161 00a8 0948     		ldr	r0, .L9+28
 162 00aa FFF7FEFF 		bl	HAL_GPIO_Init
 163              	.LVL5:
1395:Src/stm32f7xx_hal_msp.c **** 
1396:Src/stm32f7xx_hal_msp.c ****   /* USER CODE BEGIN FMC_MspInit 1 */
1397:Src/stm32f7xx_hal_msp.c **** 
1398:Src/stm32f7xx_hal_msp.c ****   /* USER CODE END FMC_MspInit 1 */
1399:Src/stm32f7xx_hal_msp.c **** }
 164              		.loc 1 1399 0
 165 00ae 07B0     		add	sp, sp, #28
 166              	.LCFI2:
 167              		.cfi_def_cfa_offset 20
 168              		@ sp needed
 169 00b0 F0BD     		pop	{r4, r5, r6, r7, pc}
 170              	.L10:
 171 00b2 00BF     		.align	2
 172              	.L9:
 173 00b4 00000000 		.word	.LANCHOR0
 174 00b8 00380240 		.word	1073887232
 175 00bc 00100240 		.word	1073876992
 176 00c0 00180240 		.word	1073879040
 177 00c4 000C0240 		.word	1073875968
 178 00c8 00140240 		.word	1073878016
 179 00cc 001C0240 		.word	1073880064
 180 00d0 00080240 		.word	1073874944
 181              		.cfi_endproc
 182              	.LFE166:
 184              		.section	.text.HAL_FMC_MspDeInit,"ax",%progbits
 185              		.align	1
 186              		.syntax unified
 187              		.thumb
 188              		.thumb_func
 189              		.fpu fpv5-sp-d16
 191              	HAL_FMC_MspDeInit:
 192              	.LFB168:
1400:Src/stm32f7xx_hal_msp.c **** 
1401:Src/stm32f7xx_hal_msp.c **** void HAL_SDRAM_MspInit(SDRAM_HandleTypeDef* hsdram){
1402:Src/stm32f7xx_hal_msp.c ****   /* USER CODE BEGIN SDRAM_MspInit 0 */
1403:Src/stm32f7xx_hal_msp.c **** 
1404:Src/stm32f7xx_hal_msp.c ****   /* USER CODE END SDRAM_MspInit 0 */
1405:Src/stm32f7xx_hal_msp.c ****   HAL_FMC_MspInit();
1406:Src/stm32f7xx_hal_msp.c ****   /* USER CODE BEGIN SDRAM_MspInit 1 */
ARM GAS  C:\Users\Student\AppData\Local\Temp\ccO0FPJj.s 			page 29


1407:Src/stm32f7xx_hal_msp.c **** 
1408:Src/stm32f7xx_hal_msp.c ****   /* USER CODE END SDRAM_MspInit 1 */
1409:Src/stm32f7xx_hal_msp.c **** }
1410:Src/stm32f7xx_hal_msp.c **** 
1411:Src/stm32f7xx_hal_msp.c **** static uint32_t FMC_DeInitialized = 0;
1412:Src/stm32f7xx_hal_msp.c **** 
1413:Src/stm32f7xx_hal_msp.c **** static void HAL_FMC_MspDeInit(void){
 193              		.loc 1 1413 0
 194              		.cfi_startproc
 195              		@ args = 0, pretend = 0, frame = 0
 196              		@ frame_needed = 0, uses_anonymous_args = 0
 197 0000 08B5     		push	{r3, lr}
 198              	.LCFI3:
 199              		.cfi_def_cfa_offset 8
 200              		.cfi_offset 3, -8
 201              		.cfi_offset 14, -4
1414:Src/stm32f7xx_hal_msp.c ****   /* USER CODE BEGIN FMC_MspDeInit 0 */
1415:Src/stm32f7xx_hal_msp.c **** 
1416:Src/stm32f7xx_hal_msp.c ****   /* USER CODE END FMC_MspDeInit 0 */
1417:Src/stm32f7xx_hal_msp.c ****   if (FMC_DeInitialized) {
 202              		.loc 1 1417 0
 203 0002 144B     		ldr	r3, .L15
 204 0004 1B68     		ldr	r3, [r3]
 205 0006 03B1     		cbz	r3, .L14
 206              	.L11:
 207 0008 08BD     		pop	{r3, pc}
 208              	.L14:
1418:Src/stm32f7xx_hal_msp.c ****     return;
1419:Src/stm32f7xx_hal_msp.c ****   }
1420:Src/stm32f7xx_hal_msp.c ****   FMC_DeInitialized = 1;
 209              		.loc 1 1420 0
 210 000a 0122     		movs	r2, #1
 211 000c 114B     		ldr	r3, .L15
 212 000e 1A60     		str	r2, [r3]
1421:Src/stm32f7xx_hal_msp.c ****   /* Peripheral clock enable */
1422:Src/stm32f7xx_hal_msp.c ****   __HAL_RCC_FMC_CLK_DISABLE();
 213              		.loc 1 1422 0
 214 0010 114A     		ldr	r2, .L15+4
 215 0012 936B     		ldr	r3, [r2, #56]
 216 0014 23F00103 		bic	r3, r3, #1
 217 0018 9363     		str	r3, [r2, #56]
1423:Src/stm32f7xx_hal_msp.c ****   
1424:Src/stm32f7xx_hal_msp.c ****   /** FMC GPIO Configuration  
1425:Src/stm32f7xx_hal_msp.c ****   PE1   ------> FMC_NBL1
1426:Src/stm32f7xx_hal_msp.c ****   PE0   ------> FMC_NBL0
1427:Src/stm32f7xx_hal_msp.c ****   PG15   ------> FMC_SDNCAS
1428:Src/stm32f7xx_hal_msp.c ****   PD0   ------> FMC_D2
1429:Src/stm32f7xx_hal_msp.c ****   PD1   ------> FMC_D3
1430:Src/stm32f7xx_hal_msp.c ****   PF0   ------> FMC_A0
1431:Src/stm32f7xx_hal_msp.c ****   PF1   ------> FMC_A1
1432:Src/stm32f7xx_hal_msp.c ****   PF2   ------> FMC_A2
1433:Src/stm32f7xx_hal_msp.c ****   PF3   ------> FMC_A3
1434:Src/stm32f7xx_hal_msp.c ****   PG8   ------> FMC_SDCLK
1435:Src/stm32f7xx_hal_msp.c ****   PF4   ------> FMC_A4
1436:Src/stm32f7xx_hal_msp.c ****   PH5   ------> FMC_SDNWE
1437:Src/stm32f7xx_hal_msp.c ****   PH3   ------> FMC_SDNE0
1438:Src/stm32f7xx_hal_msp.c ****   PF5   ------> FMC_A5
ARM GAS  C:\Users\Student\AppData\Local\Temp\ccO0FPJj.s 			page 30


1439:Src/stm32f7xx_hal_msp.c ****   PD15   ------> FMC_D1
1440:Src/stm32f7xx_hal_msp.c ****   PD10   ------> FMC_D15
1441:Src/stm32f7xx_hal_msp.c ****   PC3   ------> FMC_SDCKE0
1442:Src/stm32f7xx_hal_msp.c ****   PD14   ------> FMC_D0
1443:Src/stm32f7xx_hal_msp.c ****   PD9   ------> FMC_D14
1444:Src/stm32f7xx_hal_msp.c ****   PD8   ------> FMC_D13
1445:Src/stm32f7xx_hal_msp.c ****   PF12   ------> FMC_A6
1446:Src/stm32f7xx_hal_msp.c ****   PG1   ------> FMC_A11
1447:Src/stm32f7xx_hal_msp.c ****   PF15   ------> FMC_A9
1448:Src/stm32f7xx_hal_msp.c ****   PF13   ------> FMC_A7
1449:Src/stm32f7xx_hal_msp.c ****   PG0   ------> FMC_A10
1450:Src/stm32f7xx_hal_msp.c ****   PE8   ------> FMC_D5
1451:Src/stm32f7xx_hal_msp.c ****   PG5   ------> FMC_BA1
1452:Src/stm32f7xx_hal_msp.c ****   PG4   ------> FMC_BA0
1453:Src/stm32f7xx_hal_msp.c ****   PF14   ------> FMC_A8
1454:Src/stm32f7xx_hal_msp.c ****   PF11   ------> FMC_SDNRAS
1455:Src/stm32f7xx_hal_msp.c ****   PE9   ------> FMC_D6
1456:Src/stm32f7xx_hal_msp.c ****   PE11   ------> FMC_D8
1457:Src/stm32f7xx_hal_msp.c ****   PE14   ------> FMC_D11
1458:Src/stm32f7xx_hal_msp.c ****   PE7   ------> FMC_D4
1459:Src/stm32f7xx_hal_msp.c ****   PE10   ------> FMC_D7
1460:Src/stm32f7xx_hal_msp.c ****   PE12   ------> FMC_D9
1461:Src/stm32f7xx_hal_msp.c ****   PE15   ------> FMC_D12
1462:Src/stm32f7xx_hal_msp.c ****   PE13   ------> FMC_D10
1463:Src/stm32f7xx_hal_msp.c ****   */
1464:Src/stm32f7xx_hal_msp.c ****   HAL_GPIO_DeInit(GPIOE, FMC_NBL1_Pin|FMC_NBL0_Pin|FMC_D5_Pin|FMC_D6_Pin 
 218              		.loc 1 1464 0
 219 001a 4FF68371 		movw	r1, #65411
 220 001e 0F48     		ldr	r0, .L15+8
 221 0020 FFF7FEFF 		bl	HAL_GPIO_DeInit
 222              	.LVL6:
1465:Src/stm32f7xx_hal_msp.c ****                           |FMC_D8_Pin|FMC_D11_Pin|FMC_D4_Pin|FMC_D7_Pin 
1466:Src/stm32f7xx_hal_msp.c ****                           |FMC_D9_Pin|FMC_D12_Pin|FMC_D10_Pin);
1467:Src/stm32f7xx_hal_msp.c **** 
1468:Src/stm32f7xx_hal_msp.c ****   HAL_GPIO_DeInit(GPIOG, FMC_SDNCAS_Pin|FMC_SDCLK_Pin|FMC_A11_Pin|FMC_A10_Pin 
 223              		.loc 1 1468 0
 224 0024 48F23311 		movw	r1, #33075
 225 0028 0D48     		ldr	r0, .L15+12
 226 002a FFF7FEFF 		bl	HAL_GPIO_DeInit
 227              	.LVL7:
1469:Src/stm32f7xx_hal_msp.c ****                           |FMC_BA1_Pin|FMC_BA0_Pin);
1470:Src/stm32f7xx_hal_msp.c **** 
1471:Src/stm32f7xx_hal_msp.c ****   HAL_GPIO_DeInit(GPIOD, FMC_D2_Pin|FMC_D3_Pin|FMC_D1_Pin|FMC_D15_Pin 
 228              		.loc 1 1471 0
 229 002e 4CF20371 		movw	r1, #50947
 230 0032 0C48     		ldr	r0, .L15+16
 231 0034 FFF7FEFF 		bl	HAL_GPIO_DeInit
 232              	.LVL8:
1472:Src/stm32f7xx_hal_msp.c ****                           |FMC_D0_Pin|FMC_D14_Pin|FMC_D13_Pin);
1473:Src/stm32f7xx_hal_msp.c **** 
1474:Src/stm32f7xx_hal_msp.c ****   HAL_GPIO_DeInit(GPIOF, FMC_A0_Pin|FMC_A1_Pin|FMC_A2_Pin|FMC_A3_Pin 
 233              		.loc 1 1474 0
 234 0038 4FF63F01 		movw	r1, #63551
 235 003c 0A48     		ldr	r0, .L15+20
 236 003e FFF7FEFF 		bl	HAL_GPIO_DeInit
 237              	.LVL9:
1475:Src/stm32f7xx_hal_msp.c ****                           |FMC_A4_Pin|FMC_A5_Pin|FMC_A6_Pin|FMC_A9_Pin 
ARM GAS  C:\Users\Student\AppData\Local\Temp\ccO0FPJj.s 			page 31


1476:Src/stm32f7xx_hal_msp.c ****                           |FMC_A7_Pin|FMC_A8_Pin|FMC_SDNRAS_Pin);
1477:Src/stm32f7xx_hal_msp.c **** 
1478:Src/stm32f7xx_hal_msp.c ****   HAL_GPIO_DeInit(GPIOH, FMC_SDNME_Pin|FMC_SDNE0_Pin);
 238              		.loc 1 1478 0
 239 0042 2821     		movs	r1, #40
 240 0044 0948     		ldr	r0, .L15+24
 241 0046 FFF7FEFF 		bl	HAL_GPIO_DeInit
 242              	.LVL10:
1479:Src/stm32f7xx_hal_msp.c **** 
1480:Src/stm32f7xx_hal_msp.c ****   HAL_GPIO_DeInit(FMC_SDCKE0_GPIO_Port, FMC_SDCKE0_Pin);
 243              		.loc 1 1480 0
 244 004a 0821     		movs	r1, #8
 245 004c 0848     		ldr	r0, .L15+28
 246 004e FFF7FEFF 		bl	HAL_GPIO_DeInit
 247              	.LVL11:
 248 0052 D9E7     		b	.L11
 249              	.L16:
 250              		.align	2
 251              	.L15:
 252 0054 00000000 		.word	.LANCHOR1
 253 0058 00380240 		.word	1073887232
 254 005c 00100240 		.word	1073876992
 255 0060 00180240 		.word	1073879040
 256 0064 000C0240 		.word	1073875968
 257 0068 00140240 		.word	1073878016
 258 006c 001C0240 		.word	1073880064
 259 0070 00080240 		.word	1073874944
 260              		.cfi_endproc
 261              	.LFE168:
 263              		.section	.text.HAL_MspInit,"ax",%progbits
 264              		.align	1
 265              		.global	HAL_MspInit
 266              		.syntax unified
 267              		.thumb
 268              		.thumb_func
 269              		.fpu fpv5-sp-d16
 271              	HAL_MspInit:
 272              	.LFB136:
  61:Src/stm32f7xx_hal_msp.c ****   /* USER CODE BEGIN MspInit 0 */
 273              		.loc 1 61 0
 274              		.cfi_startproc
 275              		@ args = 0, pretend = 0, frame = 8
 276              		@ frame_needed = 0, uses_anonymous_args = 0
 277 0000 00B5     		push	{lr}
 278              	.LCFI4:
 279              		.cfi_def_cfa_offset 4
 280              		.cfi_offset 14, -4
 281 0002 83B0     		sub	sp, sp, #12
 282              	.LCFI5:
 283              		.cfi_def_cfa_offset 16
 284              	.LBB3:
  66:Src/stm32f7xx_hal_msp.c ****   __HAL_RCC_SYSCFG_CLK_ENABLE();
 285              		.loc 1 66 0
 286 0004 214B     		ldr	r3, .L19
 287 0006 1A6C     		ldr	r2, [r3, #64]
 288 0008 42F08052 		orr	r2, r2, #268435456
 289 000c 1A64     		str	r2, [r3, #64]
ARM GAS  C:\Users\Student\AppData\Local\Temp\ccO0FPJj.s 			page 32


 290 000e 1A6C     		ldr	r2, [r3, #64]
 291 0010 02F08052 		and	r2, r2, #268435456
 292 0014 0092     		str	r2, [sp]
 293 0016 009A     		ldr	r2, [sp]
 294              	.LBE3:
 295              	.LBB4:
  67:Src/stm32f7xx_hal_msp.c **** 
 296              		.loc 1 67 0
 297 0018 5A6C     		ldr	r2, [r3, #68]
 298 001a 42F48042 		orr	r2, r2, #16384
 299 001e 5A64     		str	r2, [r3, #68]
 300 0020 5B6C     		ldr	r3, [r3, #68]
 301 0022 03F48043 		and	r3, r3, #16384
 302 0026 0193     		str	r3, [sp, #4]
 303 0028 019B     		ldr	r3, [sp, #4]
 304              	.LBE4:
  69:Src/stm32f7xx_hal_msp.c **** 
 305              		.loc 1 69 0
 306 002a 0320     		movs	r0, #3
 307 002c FFF7FEFF 		bl	HAL_NVIC_SetPriorityGrouping
 308              	.LVL12:
  73:Src/stm32f7xx_hal_msp.c ****   /* BusFault_IRQn interrupt configuration */
 309              		.loc 1 73 0
 310 0030 0022     		movs	r2, #0
 311 0032 1146     		mov	r1, r2
 312 0034 6FF00B00 		mvn	r0, #11
 313 0038 FFF7FEFF 		bl	HAL_NVIC_SetPriority
 314              	.LVL13:
  75:Src/stm32f7xx_hal_msp.c ****   /* UsageFault_IRQn interrupt configuration */
 315              		.loc 1 75 0
 316 003c 0022     		movs	r2, #0
 317 003e 1146     		mov	r1, r2
 318 0040 6FF00A00 		mvn	r0, #10
 319 0044 FFF7FEFF 		bl	HAL_NVIC_SetPriority
 320              	.LVL14:
  77:Src/stm32f7xx_hal_msp.c ****   /* SVCall_IRQn interrupt configuration */
 321              		.loc 1 77 0
 322 0048 0022     		movs	r2, #0
 323 004a 1146     		mov	r1, r2
 324 004c 6FF00900 		mvn	r0, #9
 325 0050 FFF7FEFF 		bl	HAL_NVIC_SetPriority
 326              	.LVL15:
  79:Src/stm32f7xx_hal_msp.c ****   /* DebugMonitor_IRQn interrupt configuration */
 327              		.loc 1 79 0
 328 0054 0022     		movs	r2, #0
 329 0056 1146     		mov	r1, r2
 330 0058 6FF00400 		mvn	r0, #4
 331 005c FFF7FEFF 		bl	HAL_NVIC_SetPriority
 332              	.LVL16:
  81:Src/stm32f7xx_hal_msp.c ****   /* PendSV_IRQn interrupt configuration */
 333              		.loc 1 81 0
 334 0060 0022     		movs	r2, #0
 335 0062 1146     		mov	r1, r2
 336 0064 6FF00300 		mvn	r0, #3
 337 0068 FFF7FEFF 		bl	HAL_NVIC_SetPriority
 338              	.LVL17:
  83:Src/stm32f7xx_hal_msp.c ****   /* SysTick_IRQn interrupt configuration */
ARM GAS  C:\Users\Student\AppData\Local\Temp\ccO0FPJj.s 			page 33


 339              		.loc 1 83 0
 340 006c 0022     		movs	r2, #0
 341 006e 0F21     		movs	r1, #15
 342 0070 6FF00100 		mvn	r0, #1
 343 0074 FFF7FEFF 		bl	HAL_NVIC_SetPriority
 344              	.LVL18:
  85:Src/stm32f7xx_hal_msp.c **** 
 345              		.loc 1 85 0
 346 0078 0022     		movs	r2, #0
 347 007a 0F21     		movs	r1, #15
 348 007c 4FF0FF30 		mov	r0, #-1
 349 0080 FFF7FEFF 		bl	HAL_NVIC_SetPriority
 350              	.LVL19:
  90:Src/stm32f7xx_hal_msp.c **** 
 351              		.loc 1 90 0
 352 0084 03B0     		add	sp, sp, #12
 353              	.LCFI6:
 354              		.cfi_def_cfa_offset 4
 355              		@ sp needed
 356 0086 5DF804FB 		ldr	pc, [sp], #4
 357              	.L20:
 358 008a 00BF     		.align	2
 359              	.L19:
 360 008c 00380240 		.word	1073887232
 361              		.cfi_endproc
 362              	.LFE136:
 364              		.section	.text.HAL_ADC_MspInit,"ax",%progbits
 365              		.align	1
 366              		.global	HAL_ADC_MspInit
 367              		.syntax unified
 368              		.thumb
 369              		.thumb_func
 370              		.fpu fpv5-sp-d16
 372              	HAL_ADC_MspInit:
 373              	.LFB137:
  93:Src/stm32f7xx_hal_msp.c **** 
 374              		.loc 1 93 0
 375              		.cfi_startproc
 376              		@ args = 0, pretend = 0, frame = 24
 377              		@ frame_needed = 0, uses_anonymous_args = 0
 378              	.LVL20:
  96:Src/stm32f7xx_hal_msp.c ****   {
 379              		.loc 1 96 0
 380 0000 0268     		ldr	r2, [r0]
 381 0002 134B     		ldr	r3, .L28
 382 0004 9A42     		cmp	r2, r3
 383 0006 00D0     		beq	.L27
 384 0008 7047     		bx	lr
 385              	.L27:
  93:Src/stm32f7xx_hal_msp.c **** 
 386              		.loc 1 93 0
 387 000a 30B5     		push	{r4, r5, lr}
 388              	.LCFI7:
 389              		.cfi_def_cfa_offset 12
 390              		.cfi_offset 4, -12
 391              		.cfi_offset 5, -8
 392              		.cfi_offset 14, -4
ARM GAS  C:\Users\Student\AppData\Local\Temp\ccO0FPJj.s 			page 34


 393 000c 87B0     		sub	sp, sp, #28
 394              	.LCFI8:
 395              		.cfi_def_cfa_offset 40
 396              	.LBB5:
 102:Src/stm32f7xx_hal_msp.c ****   
 397              		.loc 1 102 0
 398 000e 03F58B33 		add	r3, r3, #71168
 399 0012 5A6C     		ldr	r2, [r3, #68]
 400 0014 42F48062 		orr	r2, r2, #1024
 401 0018 5A64     		str	r2, [r3, #68]
 402 001a 5B6C     		ldr	r3, [r3, #68]
 403 001c 03F48063 		and	r3, r3, #1024
 404 0020 0093     		str	r3, [sp]
 405 0022 009B     		ldr	r3, [sp]
 406              	.LBE5:
 112:Src/stm32f7xx_hal_msp.c ****                           |ARDUINO_A3_Pin;
 407              		.loc 1 112 0
 408 0024 4FF4F863 		mov	r3, #1984
 409 0028 0193     		str	r3, [sp, #4]
 114:Src/stm32f7xx_hal_msp.c ****     GPIO_InitStruct.Pull = GPIO_NOPULL;
 410              		.loc 1 114 0
 411 002a 0325     		movs	r5, #3
 412 002c 0295     		str	r5, [sp, #8]
 115:Src/stm32f7xx_hal_msp.c ****     HAL_GPIO_Init(GPIOF, &GPIO_InitStruct);
 413              		.loc 1 115 0
 414 002e 0024     		movs	r4, #0
 415 0030 0394     		str	r4, [sp, #12]
 116:Src/stm32f7xx_hal_msp.c **** 
 416              		.loc 1 116 0
 417 0032 01A9     		add	r1, sp, #4
 418 0034 0748     		ldr	r0, .L28+4
 419              	.LVL21:
 420 0036 FFF7FEFF 		bl	HAL_GPIO_Init
 421              	.LVL22:
 118:Src/stm32f7xx_hal_msp.c ****     GPIO_InitStruct.Mode = GPIO_MODE_ANALOG;
 422              		.loc 1 118 0
 423 003a 0123     		movs	r3, #1
 424 003c 0193     		str	r3, [sp, #4]
 119:Src/stm32f7xx_hal_msp.c ****     GPIO_InitStruct.Pull = GPIO_NOPULL;
 425              		.loc 1 119 0
 426 003e 0295     		str	r5, [sp, #8]
 120:Src/stm32f7xx_hal_msp.c ****     HAL_GPIO_Init(ARDUINO_A0_GPIO_Port, &GPIO_InitStruct);
 427              		.loc 1 120 0
 428 0040 0394     		str	r4, [sp, #12]
 121:Src/stm32f7xx_hal_msp.c **** 
 429              		.loc 1 121 0
 430 0042 01A9     		add	r1, sp, #4
 431 0044 0448     		ldr	r0, .L28+8
 432 0046 FFF7FEFF 		bl	HAL_GPIO_Init
 433              	.LVL23:
 128:Src/stm32f7xx_hal_msp.c **** 
 434              		.loc 1 128 0
 435 004a 07B0     		add	sp, sp, #28
 436              	.LCFI9:
 437              		.cfi_def_cfa_offset 12
 438              		@ sp needed
 439 004c 30BD     		pop	{r4, r5, pc}
ARM GAS  C:\Users\Student\AppData\Local\Temp\ccO0FPJj.s 			page 35


 440              	.L29:
 441 004e 00BF     		.align	2
 442              	.L28:
 443 0050 00220140 		.word	1073816064
 444 0054 00140240 		.word	1073878016
 445 0058 00000240 		.word	1073872896
 446              		.cfi_endproc
 447              	.LFE137:
 449              		.section	.text.HAL_ADC_MspDeInit,"ax",%progbits
 450              		.align	1
 451              		.global	HAL_ADC_MspDeInit
 452              		.syntax unified
 453              		.thumb
 454              		.thumb_func
 455              		.fpu fpv5-sp-d16
 457              	HAL_ADC_MspDeInit:
 458              	.LFB138:
 131:Src/stm32f7xx_hal_msp.c **** 
 459              		.loc 1 131 0
 460              		.cfi_startproc
 461              		@ args = 0, pretend = 0, frame = 0
 462              		@ frame_needed = 0, uses_anonymous_args = 0
 463              	.LVL24:
 464 0000 08B5     		push	{r3, lr}
 465              	.LCFI10:
 466              		.cfi_def_cfa_offset 8
 467              		.cfi_offset 3, -8
 468              		.cfi_offset 14, -4
 133:Src/stm32f7xx_hal_msp.c ****   {
 469              		.loc 1 133 0
 470 0002 0268     		ldr	r2, [r0]
 471 0004 094B     		ldr	r3, .L34
 472 0006 9A42     		cmp	r2, r3
 473 0008 00D0     		beq	.L33
 474              	.LVL25:
 475              	.L30:
 476 000a 08BD     		pop	{r3, pc}
 477              	.LVL26:
 478              	.L33:
 139:Src/stm32f7xx_hal_msp.c ****   
 479              		.loc 1 139 0
 480 000c 084A     		ldr	r2, .L34+4
 481 000e 536C     		ldr	r3, [r2, #68]
 482 0010 23F48063 		bic	r3, r3, #1024
 483 0014 5364     		str	r3, [r2, #68]
 149:Src/stm32f7xx_hal_msp.c ****                           |ARDUINO_A3_Pin);
 484              		.loc 1 149 0
 485 0016 4FF4F861 		mov	r1, #1984
 486 001a 0648     		ldr	r0, .L34+8
 487              	.LVL27:
 488 001c FFF7FEFF 		bl	HAL_GPIO_DeInit
 489              	.LVL28:
 152:Src/stm32f7xx_hal_msp.c **** 
 490              		.loc 1 152 0
 491 0020 0121     		movs	r1, #1
 492 0022 0548     		ldr	r0, .L34+12
 493 0024 FFF7FEFF 		bl	HAL_GPIO_DeInit
ARM GAS  C:\Users\Student\AppData\Local\Temp\ccO0FPJj.s 			page 36


 494              	.LVL29:
 159:Src/stm32f7xx_hal_msp.c **** 
 495              		.loc 1 159 0
 496 0028 EFE7     		b	.L30
 497              	.L35:
 498 002a 00BF     		.align	2
 499              	.L34:
 500 002c 00220140 		.word	1073816064
 501 0030 00380240 		.word	1073887232
 502 0034 00140240 		.word	1073878016
 503 0038 00000240 		.word	1073872896
 504              		.cfi_endproc
 505              	.LFE138:
 507              		.section	.text.HAL_CRC_MspInit,"ax",%progbits
 508              		.align	1
 509              		.global	HAL_CRC_MspInit
 510              		.syntax unified
 511              		.thumb
 512              		.thumb_func
 513              		.fpu fpv5-sp-d16
 515              	HAL_CRC_MspInit:
 516              	.LFB139:
 162:Src/stm32f7xx_hal_msp.c **** 
 517              		.loc 1 162 0
 518              		.cfi_startproc
 519              		@ args = 0, pretend = 0, frame = 8
 520              		@ frame_needed = 0, uses_anonymous_args = 0
 521              		@ link register save eliminated.
 522              	.LVL30:
 164:Src/stm32f7xx_hal_msp.c ****   {
 523              		.loc 1 164 0
 524 0000 0268     		ldr	r2, [r0]
 525 0002 094B     		ldr	r3, .L44
 526 0004 9A42     		cmp	r2, r3
 527 0006 00D0     		beq	.L43
 528              	.L42:
 176:Src/stm32f7xx_hal_msp.c **** 
 529              		.loc 1 176 0
 530 0008 7047     		bx	lr
 531              	.L43:
 162:Src/stm32f7xx_hal_msp.c **** 
 532              		.loc 1 162 0
 533 000a 82B0     		sub	sp, sp, #8
 534              	.LCFI11:
 535              		.cfi_def_cfa_offset 8
 536              	.LBB6:
 170:Src/stm32f7xx_hal_msp.c ****   /* USER CODE BEGIN CRC_MspInit 1 */
 537              		.loc 1 170 0
 538 000c 03F50063 		add	r3, r3, #2048
 539 0010 1A6B     		ldr	r2, [r3, #48]
 540 0012 42F48052 		orr	r2, r2, #4096
 541 0016 1A63     		str	r2, [r3, #48]
 542 0018 1B6B     		ldr	r3, [r3, #48]
 543 001a 03F48053 		and	r3, r3, #4096
 544 001e 0193     		str	r3, [sp, #4]
 545 0020 019B     		ldr	r3, [sp, #4]
 546              	.LBE6:
ARM GAS  C:\Users\Student\AppData\Local\Temp\ccO0FPJj.s 			page 37


 176:Src/stm32f7xx_hal_msp.c **** 
 547              		.loc 1 176 0
 548 0022 02B0     		add	sp, sp, #8
 549              	.LCFI12:
 550              		.cfi_def_cfa_offset 0
 551              		@ sp needed
 552 0024 F0E7     		b	.L42
 553              	.L45:
 554 0026 00BF     		.align	2
 555              	.L44:
 556 0028 00300240 		.word	1073885184
 557              		.cfi_endproc
 558              	.LFE139:
 560              		.section	.text.HAL_CRC_MspDeInit,"ax",%progbits
 561              		.align	1
 562              		.global	HAL_CRC_MspDeInit
 563              		.syntax unified
 564              		.thumb
 565              		.thumb_func
 566              		.fpu fpv5-sp-d16
 568              	HAL_CRC_MspDeInit:
 569              	.LFB140:
 179:Src/stm32f7xx_hal_msp.c **** 
 570              		.loc 1 179 0
 571              		.cfi_startproc
 572              		@ args = 0, pretend = 0, frame = 0
 573              		@ frame_needed = 0, uses_anonymous_args = 0
 574              		@ link register save eliminated.
 575              	.LVL31:
 181:Src/stm32f7xx_hal_msp.c ****   {
 576              		.loc 1 181 0
 577 0000 0268     		ldr	r2, [r0]
 578 0002 054B     		ldr	r3, .L49
 579 0004 9A42     		cmp	r2, r3
 580 0006 00D0     		beq	.L48
 581              	.L46:
 582 0008 7047     		bx	lr
 583              	.L48:
 187:Src/stm32f7xx_hal_msp.c ****   /* USER CODE BEGIN CRC_MspDeInit 1 */
 584              		.loc 1 187 0
 585 000a 044A     		ldr	r2, .L49+4
 586 000c 136B     		ldr	r3, [r2, #48]
 587 000e 23F48053 		bic	r3, r3, #4096
 588 0012 1363     		str	r3, [r2, #48]
 193:Src/stm32f7xx_hal_msp.c **** 
 589              		.loc 1 193 0
 590 0014 F8E7     		b	.L46
 591              	.L50:
 592 0016 00BF     		.align	2
 593              	.L49:
 594 0018 00300240 		.word	1073885184
 595 001c 00380240 		.word	1073887232
 596              		.cfi_endproc
 597              	.LFE140:
 599              		.section	.text.HAL_DCMI_MspInit,"ax",%progbits
 600              		.align	1
 601              		.global	HAL_DCMI_MspInit
ARM GAS  C:\Users\Student\AppData\Local\Temp\ccO0FPJj.s 			page 38


 602              		.syntax unified
 603              		.thumb
 604              		.thumb_func
 605              		.fpu fpv5-sp-d16
 607              	HAL_DCMI_MspInit:
 608              	.LFB141:
 196:Src/stm32f7xx_hal_msp.c **** 
 609              		.loc 1 196 0
 610              		.cfi_startproc
 611              		@ args = 0, pretend = 0, frame = 24
 612              		@ frame_needed = 0, uses_anonymous_args = 0
 613              	.LVL32:
 199:Src/stm32f7xx_hal_msp.c ****   {
 614              		.loc 1 199 0
 615 0000 0268     		ldr	r2, [r0]
 616 0002 244B     		ldr	r3, .L58
 617 0004 9A42     		cmp	r2, r3
 618 0006 00D0     		beq	.L57
 619 0008 7047     		bx	lr
 620              	.L57:
 196:Src/stm32f7xx_hal_msp.c **** 
 621              		.loc 1 196 0
 622 000a 70B5     		push	{r4, r5, r6, lr}
 623              	.LCFI13:
 624              		.cfi_def_cfa_offset 16
 625              		.cfi_offset 4, -16
 626              		.cfi_offset 5, -12
 627              		.cfi_offset 6, -8
 628              		.cfi_offset 14, -4
 629 000c 86B0     		sub	sp, sp, #24
 630              	.LCFI14:
 631              		.cfi_def_cfa_offset 40
 632              	.LBB7:
 205:Src/stm32f7xx_hal_msp.c ****   
 633              		.loc 1 205 0
 634 000e 224B     		ldr	r3, .L58+4
 635 0010 5A6B     		ldr	r2, [r3, #52]
 636 0012 42F00102 		orr	r2, r2, #1
 637 0016 5A63     		str	r2, [r3, #52]
 638 0018 5B6B     		ldr	r3, [r3, #52]
 639 001a 03F00103 		and	r3, r3, #1
 640 001e 0093     		str	r3, [sp]
 641 0020 009B     		ldr	r3, [sp]
 642              	.LBE7:
 220:Src/stm32f7xx_hal_msp.c ****     GPIO_InitStruct.Mode = GPIO_MODE_AF_PP;
 643              		.loc 1 220 0
 644 0022 6023     		movs	r3, #96
 645 0024 0193     		str	r3, [sp, #4]
 221:Src/stm32f7xx_hal_msp.c ****     GPIO_InitStruct.Pull = GPIO_NOPULL;
 646              		.loc 1 221 0
 647 0026 0226     		movs	r6, #2
 648 0028 0296     		str	r6, [sp, #8]
 222:Src/stm32f7xx_hal_msp.c ****     GPIO_InitStruct.Speed = GPIO_SPEED_FREQ_LOW;
 649              		.loc 1 222 0
 650 002a 0024     		movs	r4, #0
 651 002c 0394     		str	r4, [sp, #12]
 223:Src/stm32f7xx_hal_msp.c ****     GPIO_InitStruct.Alternate = GPIO_AF13_DCMI;
ARM GAS  C:\Users\Student\AppData\Local\Temp\ccO0FPJj.s 			page 39


 652              		.loc 1 223 0
 653 002e 0494     		str	r4, [sp, #16]
 224:Src/stm32f7xx_hal_msp.c ****     HAL_GPIO_Init(GPIOE, &GPIO_InitStruct);
 654              		.loc 1 224 0
 655 0030 0D25     		movs	r5, #13
 656 0032 0595     		str	r5, [sp, #20]
 225:Src/stm32f7xx_hal_msp.c **** 
 657              		.loc 1 225 0
 658 0034 01A9     		add	r1, sp, #4
 659 0036 1948     		ldr	r0, .L58+8
 660              	.LVL33:
 661 0038 FFF7FEFF 		bl	HAL_GPIO_Init
 662              	.LVL34:
 227:Src/stm32f7xx_hal_msp.c ****     GPIO_InitStruct.Mode = GPIO_MODE_AF_PP;
 663              		.loc 1 227 0
 664 003c 0823     		movs	r3, #8
 665 003e 0193     		str	r3, [sp, #4]
 228:Src/stm32f7xx_hal_msp.c ****     GPIO_InitStruct.Pull = GPIO_NOPULL;
 666              		.loc 1 228 0
 667 0040 0296     		str	r6, [sp, #8]
 229:Src/stm32f7xx_hal_msp.c ****     GPIO_InitStruct.Speed = GPIO_SPEED_FREQ_LOW;
 668              		.loc 1 229 0
 669 0042 0394     		str	r4, [sp, #12]
 230:Src/stm32f7xx_hal_msp.c ****     GPIO_InitStruct.Alternate = GPIO_AF13_DCMI;
 670              		.loc 1 230 0
 671 0044 0494     		str	r4, [sp, #16]
 231:Src/stm32f7xx_hal_msp.c ****     HAL_GPIO_Init(DCMI_D5_GPIO_Port, &GPIO_InitStruct);
 672              		.loc 1 231 0
 673 0046 0595     		str	r5, [sp, #20]
 232:Src/stm32f7xx_hal_msp.c **** 
 674              		.loc 1 232 0
 675 0048 01A9     		add	r1, sp, #4
 676 004a 1548     		ldr	r0, .L58+12
 677 004c FFF7FEFF 		bl	HAL_GPIO_Init
 678              	.LVL35:
 234:Src/stm32f7xx_hal_msp.c ****     GPIO_InitStruct.Mode = GPIO_MODE_AF_PP;
 679              		.loc 1 234 0
 680 0050 4FF40073 		mov	r3, #512
 681 0054 0193     		str	r3, [sp, #4]
 235:Src/stm32f7xx_hal_msp.c ****     GPIO_InitStruct.Pull = GPIO_NOPULL;
 682              		.loc 1 235 0
 683 0056 0296     		str	r6, [sp, #8]
 236:Src/stm32f7xx_hal_msp.c ****     GPIO_InitStruct.Speed = GPIO_SPEED_FREQ_LOW;
 684              		.loc 1 236 0
 685 0058 0394     		str	r4, [sp, #12]
 237:Src/stm32f7xx_hal_msp.c ****     GPIO_InitStruct.Alternate = GPIO_AF13_DCMI;
 686              		.loc 1 237 0
 687 005a 0494     		str	r4, [sp, #16]
 238:Src/stm32f7xx_hal_msp.c ****     HAL_GPIO_Init(DCMI_VSYNC_GPIO_Port, &GPIO_InitStruct);
 688              		.loc 1 238 0
 689 005c 0595     		str	r5, [sp, #20]
 239:Src/stm32f7xx_hal_msp.c **** 
 690              		.loc 1 239 0
 691 005e 01A9     		add	r1, sp, #4
 692 0060 1048     		ldr	r0, .L58+16
 693 0062 FFF7FEFF 		bl	HAL_GPIO_Init
 694              	.LVL36:
ARM GAS  C:\Users\Student\AppData\Local\Temp\ccO0FPJj.s 			page 40


 241:Src/stm32f7xx_hal_msp.c ****                           |DCMI_D1_Pin;
 695              		.loc 1 241 0
 696 0066 4FF4BC43 		mov	r3, #24064
 697 006a 0193     		str	r3, [sp, #4]
 243:Src/stm32f7xx_hal_msp.c ****     GPIO_InitStruct.Pull = GPIO_NOPULL;
 698              		.loc 1 243 0
 699 006c 0296     		str	r6, [sp, #8]
 244:Src/stm32f7xx_hal_msp.c ****     GPIO_InitStruct.Speed = GPIO_SPEED_FREQ_LOW;
 700              		.loc 1 244 0
 701 006e 0394     		str	r4, [sp, #12]
 245:Src/stm32f7xx_hal_msp.c ****     GPIO_InitStruct.Alternate = GPIO_AF13_DCMI;
 702              		.loc 1 245 0
 703 0070 0494     		str	r4, [sp, #16]
 246:Src/stm32f7xx_hal_msp.c ****     HAL_GPIO_Init(GPIOH, &GPIO_InitStruct);
 704              		.loc 1 246 0
 705 0072 0595     		str	r5, [sp, #20]
 247:Src/stm32f7xx_hal_msp.c **** 
 706              		.loc 1 247 0
 707 0074 01A9     		add	r1, sp, #4
 708 0076 0C48     		ldr	r0, .L58+20
 709 0078 FFF7FEFF 		bl	HAL_GPIO_Init
 710              	.LVL37:
 249:Src/stm32f7xx_hal_msp.c ****     GPIO_InitStruct.Mode = GPIO_MODE_AF_PP;
 711              		.loc 1 249 0
 712 007c 5023     		movs	r3, #80
 713 007e 0193     		str	r3, [sp, #4]
 250:Src/stm32f7xx_hal_msp.c ****     GPIO_InitStruct.Pull = GPIO_NOPULL;
 714              		.loc 1 250 0
 715 0080 0296     		str	r6, [sp, #8]
 251:Src/stm32f7xx_hal_msp.c ****     GPIO_InitStruct.Speed = GPIO_SPEED_FREQ_LOW;
 716              		.loc 1 251 0
 717 0082 0394     		str	r4, [sp, #12]
 252:Src/stm32f7xx_hal_msp.c ****     GPIO_InitStruct.Alternate = GPIO_AF13_DCMI;
 718              		.loc 1 252 0
 719 0084 0494     		str	r4, [sp, #16]
 253:Src/stm32f7xx_hal_msp.c ****     HAL_GPIO_Init(GPIOA, &GPIO_InitStruct);
 720              		.loc 1 253 0
 721 0086 0595     		str	r5, [sp, #20]
 254:Src/stm32f7xx_hal_msp.c **** 
 722              		.loc 1 254 0
 723 0088 01A9     		add	r1, sp, #4
 724 008a 0848     		ldr	r0, .L58+24
 725 008c FFF7FEFF 		bl	HAL_GPIO_Init
 726              	.LVL38:
 261:Src/stm32f7xx_hal_msp.c **** 
 727              		.loc 1 261 0
 728 0090 06B0     		add	sp, sp, #24
 729              	.LCFI15:
 730              		.cfi_def_cfa_offset 16
 731              		@ sp needed
 732 0092 70BD     		pop	{r4, r5, r6, pc}
 733              	.L59:
 734              		.align	2
 735              	.L58:
 736 0094 00000550 		.word	1342504960
 737 0098 00380240 		.word	1073887232
 738 009c 00100240 		.word	1073876992
ARM GAS  C:\Users\Student\AppData\Local\Temp\ccO0FPJj.s 			page 41


 739 00a0 000C0240 		.word	1073875968
 740 00a4 00180240 		.word	1073879040
 741 00a8 001C0240 		.word	1073880064
 742 00ac 00000240 		.word	1073872896
 743              		.cfi_endproc
 744              	.LFE141:
 746              		.section	.text.HAL_DCMI_MspDeInit,"ax",%progbits
 747              		.align	1
 748              		.global	HAL_DCMI_MspDeInit
 749              		.syntax unified
 750              		.thumb
 751              		.thumb_func
 752              		.fpu fpv5-sp-d16
 754              	HAL_DCMI_MspDeInit:
 755              	.LFB142:
 264:Src/stm32f7xx_hal_msp.c **** 
 756              		.loc 1 264 0
 757              		.cfi_startproc
 758              		@ args = 0, pretend = 0, frame = 0
 759              		@ frame_needed = 0, uses_anonymous_args = 0
 760              	.LVL39:
 761 0000 08B5     		push	{r3, lr}
 762              	.LCFI16:
 763              		.cfi_def_cfa_offset 8
 764              		.cfi_offset 3, -8
 765              		.cfi_offset 14, -4
 266:Src/stm32f7xx_hal_msp.c ****   {
 766              		.loc 1 266 0
 767 0002 0268     		ldr	r2, [r0]
 768 0004 0F4B     		ldr	r3, .L64
 769 0006 9A42     		cmp	r2, r3
 770 0008 00D0     		beq	.L63
 771              	.LVL40:
 772              	.L60:
 773 000a 08BD     		pop	{r3, pc}
 774              	.LVL41:
 775              	.L63:
 272:Src/stm32f7xx_hal_msp.c ****   
 776              		.loc 1 272 0
 777 000c 0E4A     		ldr	r2, .L64+4
 778 000e 536B     		ldr	r3, [r2, #52]
 779 0010 23F00103 		bic	r3, r3, #1
 780 0014 5363     		str	r3, [r2, #52]
 287:Src/stm32f7xx_hal_msp.c **** 
 781              		.loc 1 287 0
 782 0016 6021     		movs	r1, #96
 783 0018 0C48     		ldr	r0, .L64+8
 784              	.LVL42:
 785 001a FFF7FEFF 		bl	HAL_GPIO_DeInit
 786              	.LVL43:
 289:Src/stm32f7xx_hal_msp.c **** 
 787              		.loc 1 289 0
 788 001e 0821     		movs	r1, #8
 789 0020 0B48     		ldr	r0, .L64+12
 790 0022 FFF7FEFF 		bl	HAL_GPIO_DeInit
 791              	.LVL44:
 291:Src/stm32f7xx_hal_msp.c **** 
ARM GAS  C:\Users\Student\AppData\Local\Temp\ccO0FPJj.s 			page 42


 792              		.loc 1 291 0
 793 0026 4FF40071 		mov	r1, #512
 794 002a 0A48     		ldr	r0, .L64+16
 795 002c FFF7FEFF 		bl	HAL_GPIO_DeInit
 796              	.LVL45:
 293:Src/stm32f7xx_hal_msp.c ****                           |DCMI_D1_Pin);
 797              		.loc 1 293 0
 798 0030 4FF4BC41 		mov	r1, #24064
 799 0034 0848     		ldr	r0, .L64+20
 800 0036 FFF7FEFF 		bl	HAL_GPIO_DeInit
 801              	.LVL46:
 296:Src/stm32f7xx_hal_msp.c **** 
 802              		.loc 1 296 0
 803 003a 5021     		movs	r1, #80
 804 003c 0748     		ldr	r0, .L64+24
 805 003e FFF7FEFF 		bl	HAL_GPIO_DeInit
 806              	.LVL47:
 303:Src/stm32f7xx_hal_msp.c **** 
 807              		.loc 1 303 0
 808 0042 E2E7     		b	.L60
 809              	.L65:
 810              		.align	2
 811              	.L64:
 812 0044 00000550 		.word	1342504960
 813 0048 00380240 		.word	1073887232
 814 004c 00100240 		.word	1073876992
 815 0050 000C0240 		.word	1073875968
 816 0054 00180240 		.word	1073879040
 817 0058 001C0240 		.word	1073880064
 818 005c 00000240 		.word	1073872896
 819              		.cfi_endproc
 820              	.LFE142:
 822              		.section	.text.HAL_DMA2D_MspInit,"ax",%progbits
 823              		.align	1
 824              		.global	HAL_DMA2D_MspInit
 825              		.syntax unified
 826              		.thumb
 827              		.thumb_func
 828              		.fpu fpv5-sp-d16
 830              	HAL_DMA2D_MspInit:
 831              	.LFB143:
 306:Src/stm32f7xx_hal_msp.c **** 
 832              		.loc 1 306 0
 833              		.cfi_startproc
 834              		@ args = 0, pretend = 0, frame = 8
 835              		@ frame_needed = 0, uses_anonymous_args = 0
 836              	.LVL48:
 308:Src/stm32f7xx_hal_msp.c ****   {
 837              		.loc 1 308 0
 838 0000 0268     		ldr	r2, [r0]
 839 0002 0E4B     		ldr	r3, .L73
 840 0004 9A42     		cmp	r2, r3
 841 0006 00D0     		beq	.L72
 842 0008 7047     		bx	lr
 843              	.L72:
 306:Src/stm32f7xx_hal_msp.c **** 
 844              		.loc 1 306 0
ARM GAS  C:\Users\Student\AppData\Local\Temp\ccO0FPJj.s 			page 43


 845 000a 00B5     		push	{lr}
 846              	.LCFI17:
 847              		.cfi_def_cfa_offset 4
 848              		.cfi_offset 14, -4
 849 000c 83B0     		sub	sp, sp, #12
 850              	.LCFI18:
 851              		.cfi_def_cfa_offset 16
 852              	.LBB8:
 314:Src/stm32f7xx_hal_msp.c ****     /* DMA2D interrupt Init */
 853              		.loc 1 314 0
 854 000e A3F5F043 		sub	r3, r3, #30720
 855 0012 1A6B     		ldr	r2, [r3, #48]
 856 0014 42F40002 		orr	r2, r2, #8388608
 857 0018 1A63     		str	r2, [r3, #48]
 858 001a 1B6B     		ldr	r3, [r3, #48]
 859 001c 03F40003 		and	r3, r3, #8388608
 860 0020 0193     		str	r3, [sp, #4]
 861 0022 019B     		ldr	r3, [sp, #4]
 862              	.LBE8:
 316:Src/stm32f7xx_hal_msp.c ****     HAL_NVIC_EnableIRQ(DMA2D_IRQn);
 863              		.loc 1 316 0
 864 0024 0022     		movs	r2, #0
 865 0026 0521     		movs	r1, #5
 866 0028 5A20     		movs	r0, #90
 867              	.LVL49:
 868 002a FFF7FEFF 		bl	HAL_NVIC_SetPriority
 869              	.LVL50:
 317:Src/stm32f7xx_hal_msp.c ****   /* USER CODE BEGIN DMA2D_MspInit 1 */
 870              		.loc 1 317 0
 871 002e 5A20     		movs	r0, #90
 872 0030 FFF7FEFF 		bl	HAL_NVIC_EnableIRQ
 873              	.LVL51:
 323:Src/stm32f7xx_hal_msp.c **** 
 874              		.loc 1 323 0
 875 0034 03B0     		add	sp, sp, #12
 876              	.LCFI19:
 877              		.cfi_def_cfa_offset 4
 878              		@ sp needed
 879 0036 5DF804FB 		ldr	pc, [sp], #4
 880              	.L74:
 881 003a 00BF     		.align	2
 882              	.L73:
 883 003c 00B00240 		.word	1073917952
 884              		.cfi_endproc
 885              	.LFE143:
 887              		.section	.text.HAL_DMA2D_MspDeInit,"ax",%progbits
 888              		.align	1
 889              		.global	HAL_DMA2D_MspDeInit
 890              		.syntax unified
 891              		.thumb
 892              		.thumb_func
 893              		.fpu fpv5-sp-d16
 895              	HAL_DMA2D_MspDeInit:
 896              	.LFB144:
 326:Src/stm32f7xx_hal_msp.c **** 
 897              		.loc 1 326 0
 898              		.cfi_startproc
ARM GAS  C:\Users\Student\AppData\Local\Temp\ccO0FPJj.s 			page 44


 899              		@ args = 0, pretend = 0, frame = 0
 900              		@ frame_needed = 0, uses_anonymous_args = 0
 901              	.LVL52:
 902 0000 08B5     		push	{r3, lr}
 903              	.LCFI20:
 904              		.cfi_def_cfa_offset 8
 905              		.cfi_offset 3, -8
 906              		.cfi_offset 14, -4
 328:Src/stm32f7xx_hal_msp.c ****   {
 907              		.loc 1 328 0
 908 0002 0268     		ldr	r2, [r0]
 909 0004 064B     		ldr	r3, .L79
 910 0006 9A42     		cmp	r2, r3
 911 0008 00D0     		beq	.L78
 912              	.LVL53:
 913              	.L75:
 914 000a 08BD     		pop	{r3, pc}
 915              	.LVL54:
 916              	.L78:
 334:Src/stm32f7xx_hal_msp.c **** 
 917              		.loc 1 334 0
 918 000c 054A     		ldr	r2, .L79+4
 919 000e 136B     		ldr	r3, [r2, #48]
 920 0010 23F40003 		bic	r3, r3, #8388608
 921 0014 1363     		str	r3, [r2, #48]
 337:Src/stm32f7xx_hal_msp.c ****   /* USER CODE BEGIN DMA2D_MspDeInit 1 */
 922              		.loc 1 337 0
 923 0016 5A20     		movs	r0, #90
 924              	.LVL55:
 925 0018 FFF7FEFF 		bl	HAL_NVIC_DisableIRQ
 926              	.LVL56:
 343:Src/stm32f7xx_hal_msp.c **** 
 927              		.loc 1 343 0
 928 001c F5E7     		b	.L75
 929              	.L80:
 930 001e 00BF     		.align	2
 931              	.L79:
 932 0020 00B00240 		.word	1073917952
 933 0024 00380240 		.word	1073887232
 934              		.cfi_endproc
 935              	.LFE144:
 937              		.section	.text.HAL_I2C_MspInit,"ax",%progbits
 938              		.align	1
 939              		.global	HAL_I2C_MspInit
 940              		.syntax unified
 941              		.thumb
 942              		.thumb_func
 943              		.fpu fpv5-sp-d16
 945              	HAL_I2C_MspInit:
 946              	.LFB145:
 346:Src/stm32f7xx_hal_msp.c **** 
 947              		.loc 1 346 0
 948              		.cfi_startproc
 949              		@ args = 0, pretend = 0, frame = 32
 950              		@ frame_needed = 0, uses_anonymous_args = 0
 951              	.LVL57:
 952 0000 00B5     		push	{lr}
ARM GAS  C:\Users\Student\AppData\Local\Temp\ccO0FPJj.s 			page 45


 953              	.LCFI21:
 954              		.cfi_def_cfa_offset 4
 955              		.cfi_offset 14, -4
 956 0002 89B0     		sub	sp, sp, #36
 957              	.LCFI22:
 958              		.cfi_def_cfa_offset 40
 349:Src/stm32f7xx_hal_msp.c ****   {
 959              		.loc 1 349 0
 960 0004 0368     		ldr	r3, [r0]
 961 0006 1E4A     		ldr	r2, .L87
 962 0008 9342     		cmp	r3, r2
 963 000a 05D0     		beq	.L85
 372:Src/stm32f7xx_hal_msp.c ****   {
 964              		.loc 1 372 0
 965 000c 1D4A     		ldr	r2, .L87+4
 966 000e 9342     		cmp	r3, r2
 967 0010 1CD0     		beq	.L86
 968              	.LVL58:
 969              	.L81:
 396:Src/stm32f7xx_hal_msp.c **** 
 970              		.loc 1 396 0
 971 0012 09B0     		add	sp, sp, #36
 972              	.LCFI23:
 973              		.cfi_remember_state
 974              		.cfi_def_cfa_offset 4
 975              		@ sp needed
 976 0014 5DF804FB 		ldr	pc, [sp], #4
 977              	.LVL59:
 978              	.L85:
 979              	.LCFI24:
 980              		.cfi_restore_state
 359:Src/stm32f7xx_hal_msp.c ****     GPIO_InitStruct.Mode = GPIO_MODE_AF_OD;
 981              		.loc 1 359 0
 982 0018 4FF44073 		mov	r3, #768
 983 001c 0393     		str	r3, [sp, #12]
 360:Src/stm32f7xx_hal_msp.c ****     GPIO_InitStruct.Pull = GPIO_PULLUP;
 984              		.loc 1 360 0
 985 001e 1223     		movs	r3, #18
 986 0020 0493     		str	r3, [sp, #16]
 361:Src/stm32f7xx_hal_msp.c ****     GPIO_InitStruct.Speed = GPIO_SPEED_FREQ_LOW;
 987              		.loc 1 361 0
 988 0022 0123     		movs	r3, #1
 989 0024 0593     		str	r3, [sp, #20]
 362:Src/stm32f7xx_hal_msp.c ****     GPIO_InitStruct.Alternate = GPIO_AF4_I2C1;
 990              		.loc 1 362 0
 991 0026 0023     		movs	r3, #0
 992 0028 0693     		str	r3, [sp, #24]
 363:Src/stm32f7xx_hal_msp.c ****     HAL_GPIO_Init(GPIOB, &GPIO_InitStruct);
 993              		.loc 1 363 0
 994 002a 0423     		movs	r3, #4
 995 002c 0793     		str	r3, [sp, #28]
 364:Src/stm32f7xx_hal_msp.c **** 
 996              		.loc 1 364 0
 997 002e 03A9     		add	r1, sp, #12
 998 0030 1548     		ldr	r0, .L87+8
 999              	.LVL60:
 1000 0032 FFF7FEFF 		bl	HAL_GPIO_Init
ARM GAS  C:\Users\Student\AppData\Local\Temp\ccO0FPJj.s 			page 46


 1001              	.LVL61:
 1002              	.LBB9:
 367:Src/stm32f7xx_hal_msp.c ****   /* USER CODE BEGIN I2C1_MspInit 1 */
 1003              		.loc 1 367 0
 1004 0036 154B     		ldr	r3, .L87+12
 1005 0038 1A6C     		ldr	r2, [r3, #64]
 1006 003a 42F40012 		orr	r2, r2, #2097152
 1007 003e 1A64     		str	r2, [r3, #64]
 1008 0040 1B6C     		ldr	r3, [r3, #64]
 1009 0042 03F40013 		and	r3, r3, #2097152
 1010 0046 0193     		str	r3, [sp, #4]
 1011 0048 019B     		ldr	r3, [sp, #4]
 1012              	.LBE9:
 1013 004a E2E7     		b	.L81
 1014              	.LVL62:
 1015              	.L86:
 382:Src/stm32f7xx_hal_msp.c ****     GPIO_InitStruct.Mode = GPIO_MODE_AF_OD;
 1016              		.loc 1 382 0
 1017 004c 4FF4C073 		mov	r3, #384
 1018 0050 0393     		str	r3, [sp, #12]
 383:Src/stm32f7xx_hal_msp.c ****     GPIO_InitStruct.Pull = GPIO_PULLUP;
 1019              		.loc 1 383 0
 1020 0052 1223     		movs	r3, #18
 1021 0054 0493     		str	r3, [sp, #16]
 384:Src/stm32f7xx_hal_msp.c ****     GPIO_InitStruct.Speed = GPIO_SPEED_FREQ_VERY_HIGH;
 1022              		.loc 1 384 0
 1023 0056 0123     		movs	r3, #1
 1024 0058 0593     		str	r3, [sp, #20]
 385:Src/stm32f7xx_hal_msp.c ****     GPIO_InitStruct.Alternate = GPIO_AF4_I2C3;
 1025              		.loc 1 385 0
 1026 005a 0323     		movs	r3, #3
 1027 005c 0693     		str	r3, [sp, #24]
 386:Src/stm32f7xx_hal_msp.c ****     HAL_GPIO_Init(GPIOH, &GPIO_InitStruct);
 1028              		.loc 1 386 0
 1029 005e 0423     		movs	r3, #4
 1030 0060 0793     		str	r3, [sp, #28]
 387:Src/stm32f7xx_hal_msp.c **** 
 1031              		.loc 1 387 0
 1032 0062 03A9     		add	r1, sp, #12
 1033 0064 0A48     		ldr	r0, .L87+16
 1034              	.LVL63:
 1035 0066 FFF7FEFF 		bl	HAL_GPIO_Init
 1036              	.LVL64:
 1037              	.LBB10:
 390:Src/stm32f7xx_hal_msp.c ****   /* USER CODE BEGIN I2C3_MspInit 1 */
 1038              		.loc 1 390 0
 1039 006a 084B     		ldr	r3, .L87+12
 1040 006c 1A6C     		ldr	r2, [r3, #64]
 1041 006e 42F40002 		orr	r2, r2, #8388608
 1042 0072 1A64     		str	r2, [r3, #64]
 1043 0074 1B6C     		ldr	r3, [r3, #64]
 1044 0076 03F40003 		and	r3, r3, #8388608
 1045 007a 0293     		str	r3, [sp, #8]
 1046 007c 029B     		ldr	r3, [sp, #8]
 1047              	.LBE10:
 396:Src/stm32f7xx_hal_msp.c **** 
 1048              		.loc 1 396 0
ARM GAS  C:\Users\Student\AppData\Local\Temp\ccO0FPJj.s 			page 47


 1049 007e C8E7     		b	.L81
 1050              	.L88:
 1051              		.align	2
 1052              	.L87:
 1053 0080 00540040 		.word	1073763328
 1054 0084 005C0040 		.word	1073765376
 1055 0088 00040240 		.word	1073873920
 1056 008c 00380240 		.word	1073887232
 1057 0090 001C0240 		.word	1073880064
 1058              		.cfi_endproc
 1059              	.LFE145:
 1061              		.section	.text.HAL_I2C_MspDeInit,"ax",%progbits
 1062              		.align	1
 1063              		.global	HAL_I2C_MspDeInit
 1064              		.syntax unified
 1065              		.thumb
 1066              		.thumb_func
 1067              		.fpu fpv5-sp-d16
 1069              	HAL_I2C_MspDeInit:
 1070              	.LFB146:
 399:Src/stm32f7xx_hal_msp.c **** 
 1071              		.loc 1 399 0
 1072              		.cfi_startproc
 1073              		@ args = 0, pretend = 0, frame = 0
 1074              		@ frame_needed = 0, uses_anonymous_args = 0
 1075              	.LVL65:
 1076 0000 08B5     		push	{r3, lr}
 1077              	.LCFI25:
 1078              		.cfi_def_cfa_offset 8
 1079              		.cfi_offset 3, -8
 1080              		.cfi_offset 14, -4
 401:Src/stm32f7xx_hal_msp.c ****   {
 1081              		.loc 1 401 0
 1082 0002 0368     		ldr	r3, [r0]
 1083 0004 0F4A     		ldr	r2, .L95
 1084 0006 9342     		cmp	r3, r2
 1085 0008 03D0     		beq	.L93
 419:Src/stm32f7xx_hal_msp.c ****   {
 1086              		.loc 1 419 0
 1087 000a 0F4A     		ldr	r2, .L95+4
 1088 000c 9342     		cmp	r3, r2
 1089 000e 0CD0     		beq	.L94
 1090              	.LVL66:
 1091              	.L89:
 1092 0010 08BD     		pop	{r3, pc}
 1093              	.LVL67:
 1094              	.L93:
 407:Src/stm32f7xx_hal_msp.c ****   
 1095              		.loc 1 407 0
 1096 0012 02F5F232 		add	r2, r2, #123904
 1097 0016 136C     		ldr	r3, [r2, #64]
 1098 0018 23F40013 		bic	r3, r3, #2097152
 1099 001c 1364     		str	r3, [r2, #64]
 413:Src/stm32f7xx_hal_msp.c **** 
 1100              		.loc 1 413 0
 1101 001e 4FF44071 		mov	r1, #768
 1102 0022 0A48     		ldr	r0, .L95+8
ARM GAS  C:\Users\Student\AppData\Local\Temp\ccO0FPJj.s 			page 48


 1103              	.LVL68:
 1104 0024 FFF7FEFF 		bl	HAL_GPIO_DeInit
 1105              	.LVL69:
 1106 0028 08BD     		pop	{r3, pc}
 1107              	.LVL70:
 1108              	.L94:
 425:Src/stm32f7xx_hal_msp.c ****   
 1109              		.loc 1 425 0
 1110 002a 02F5EE32 		add	r2, r2, #121856
 1111 002e 136C     		ldr	r3, [r2, #64]
 1112 0030 23F40003 		bic	r3, r3, #8388608
 1113 0034 1364     		str	r3, [r2, #64]
 431:Src/stm32f7xx_hal_msp.c **** 
 1114              		.loc 1 431 0
 1115 0036 4FF4C071 		mov	r1, #384
 1116 003a 0548     		ldr	r0, .L95+12
 1117              	.LVL71:
 1118 003c FFF7FEFF 		bl	HAL_GPIO_DeInit
 1119              	.LVL72:
 438:Src/stm32f7xx_hal_msp.c **** 
 1120              		.loc 1 438 0
 1121 0040 E6E7     		b	.L89
 1122              	.L96:
 1123 0042 00BF     		.align	2
 1124              	.L95:
 1125 0044 00540040 		.word	1073763328
 1126 0048 005C0040 		.word	1073765376
 1127 004c 00040240 		.word	1073873920
 1128 0050 001C0240 		.word	1073880064
 1129              		.cfi_endproc
 1130              	.LFE146:
 1132              		.section	.text.HAL_LTDC_MspInit,"ax",%progbits
 1133              		.align	1
 1134              		.global	HAL_LTDC_MspInit
 1135              		.syntax unified
 1136              		.thumb
 1137              		.thumb_func
 1138              		.fpu fpv5-sp-d16
 1140              	HAL_LTDC_MspInit:
 1141              	.LFB147:
 441:Src/stm32f7xx_hal_msp.c **** 
 1142              		.loc 1 441 0
 1143              		.cfi_startproc
 1144              		@ args = 0, pretend = 0, frame = 24
 1145              		@ frame_needed = 0, uses_anonymous_args = 0
 1146              	.LVL73:
 444:Src/stm32f7xx_hal_msp.c ****   {
 1147              		.loc 1 444 0
 1148 0000 0268     		ldr	r2, [r0]
 1149 0002 2A4B     		ldr	r3, .L104
 1150 0004 9A42     		cmp	r2, r3
 1151 0006 00D0     		beq	.L103
 1152 0008 7047     		bx	lr
 1153              	.L103:
 441:Src/stm32f7xx_hal_msp.c **** 
 1154              		.loc 1 441 0
 1155 000a 70B5     		push	{r4, r5, r6, lr}
ARM GAS  C:\Users\Student\AppData\Local\Temp\ccO0FPJj.s 			page 49


 1156              	.LCFI26:
 1157              		.cfi_def_cfa_offset 16
 1158              		.cfi_offset 4, -16
 1159              		.cfi_offset 5, -12
 1160              		.cfi_offset 6, -8
 1161              		.cfi_offset 14, -4
 1162 000c 86B0     		sub	sp, sp, #24
 1163              	.LCFI27:
 1164              		.cfi_def_cfa_offset 40
 1165              	.LBB11:
 450:Src/stm32f7xx_hal_msp.c ****   
 1166              		.loc 1 450 0
 1167 000e 03F55043 		add	r3, r3, #53248
 1168 0012 5A6C     		ldr	r2, [r3, #68]
 1169 0014 42F08062 		orr	r2, r2, #67108864
 1170 0018 5A64     		str	r2, [r3, #68]
 1171 001a 5B6C     		ldr	r3, [r3, #68]
 1172 001c 03F08063 		and	r3, r3, #67108864
 1173 0020 0093     		str	r3, [sp]
 1174 0022 009B     		ldr	r3, [sp]
 1175              	.LBE11:
 482:Src/stm32f7xx_hal_msp.c ****     GPIO_InitStruct.Mode = GPIO_MODE_AF_PP;
 1176              		.loc 1 482 0
 1177 0024 1023     		movs	r3, #16
 1178 0026 0193     		str	r3, [sp, #4]
 483:Src/stm32f7xx_hal_msp.c ****     GPIO_InitStruct.Pull = GPIO_NOPULL;
 1179              		.loc 1 483 0
 1180 0028 0225     		movs	r5, #2
 1181 002a 0295     		str	r5, [sp, #8]
 484:Src/stm32f7xx_hal_msp.c ****     GPIO_InitStruct.Speed = GPIO_SPEED_FREQ_LOW;
 1182              		.loc 1 484 0
 1183 002c 0024     		movs	r4, #0
 1184 002e 0394     		str	r4, [sp, #12]
 485:Src/stm32f7xx_hal_msp.c ****     GPIO_InitStruct.Alternate = GPIO_AF14_LTDC;
 1185              		.loc 1 485 0
 1186 0030 0494     		str	r4, [sp, #16]
 486:Src/stm32f7xx_hal_msp.c ****     HAL_GPIO_Init(LCD_B0_GPIO_Port, &GPIO_InitStruct);
 1187              		.loc 1 486 0
 1188 0032 0E26     		movs	r6, #14
 1189 0034 0596     		str	r6, [sp, #20]
 487:Src/stm32f7xx_hal_msp.c **** 
 1190              		.loc 1 487 0
 1191 0036 01A9     		add	r1, sp, #4
 1192 0038 1D48     		ldr	r0, .L104+4
 1193              	.LVL74:
 1194 003a FFF7FEFF 		bl	HAL_GPIO_Init
 1195              	.LVL75:
 489:Src/stm32f7xx_hal_msp.c ****                           |LCD_G1_Pin|LCD_G3_Pin|LCD_G0_Pin|LCD_G2_Pin 
 1196              		.loc 1 489 0
 1197 003e 4EF6FF73 		movw	r3, #61439
 1198 0042 0193     		str	r3, [sp, #4]
 493:Src/stm32f7xx_hal_msp.c ****     GPIO_InitStruct.Pull = GPIO_NOPULL;
 1199              		.loc 1 493 0
 1200 0044 0295     		str	r5, [sp, #8]
 494:Src/stm32f7xx_hal_msp.c ****     GPIO_InitStruct.Speed = GPIO_SPEED_FREQ_LOW;
 1201              		.loc 1 494 0
 1202 0046 0394     		str	r4, [sp, #12]
ARM GAS  C:\Users\Student\AppData\Local\Temp\ccO0FPJj.s 			page 50


 495:Src/stm32f7xx_hal_msp.c ****     GPIO_InitStruct.Alternate = GPIO_AF14_LTDC;
 1203              		.loc 1 495 0
 1204 0048 0494     		str	r4, [sp, #16]
 496:Src/stm32f7xx_hal_msp.c ****     HAL_GPIO_Init(GPIOJ, &GPIO_InitStruct);
 1205              		.loc 1 496 0
 1206 004a 0596     		str	r6, [sp, #20]
 497:Src/stm32f7xx_hal_msp.c **** 
 1207              		.loc 1 497 0
 1208 004c 01A9     		add	r1, sp, #4
 1209 004e 1948     		ldr	r0, .L104+8
 1210 0050 FFF7FEFF 		bl	HAL_GPIO_Init
 1211              	.LVL76:
 499:Src/stm32f7xx_hal_msp.c ****                           |LCD_G6_Pin|LCD_G7_Pin|LCD_G5_Pin;
 1212              		.loc 1 499 0
 1213 0054 F723     		movs	r3, #247
 1214 0056 0193     		str	r3, [sp, #4]
 501:Src/stm32f7xx_hal_msp.c ****     GPIO_InitStruct.Pull = GPIO_NOPULL;
 1215              		.loc 1 501 0
 1216 0058 0295     		str	r5, [sp, #8]
 502:Src/stm32f7xx_hal_msp.c ****     GPIO_InitStruct.Speed = GPIO_SPEED_FREQ_LOW;
 1217              		.loc 1 502 0
 1218 005a 0394     		str	r4, [sp, #12]
 503:Src/stm32f7xx_hal_msp.c ****     GPIO_InitStruct.Alternate = GPIO_AF14_LTDC;
 1219              		.loc 1 503 0
 1220 005c 0494     		str	r4, [sp, #16]
 504:Src/stm32f7xx_hal_msp.c ****     HAL_GPIO_Init(GPIOK, &GPIO_InitStruct);
 1221              		.loc 1 504 0
 1222 005e 0596     		str	r6, [sp, #20]
 505:Src/stm32f7xx_hal_msp.c **** 
 1223              		.loc 1 505 0
 1224 0060 01A9     		add	r1, sp, #4
 1225 0062 1548     		ldr	r0, .L104+12
 1226 0064 FFF7FEFF 		bl	HAL_GPIO_Init
 1227              	.LVL77:
 507:Src/stm32f7xx_hal_msp.c ****     GPIO_InitStruct.Mode = GPIO_MODE_AF_PP;
 1228              		.loc 1 507 0
 1229 0068 4FF48053 		mov	r3, #4096
 1230 006c 0193     		str	r3, [sp, #4]
 508:Src/stm32f7xx_hal_msp.c ****     GPIO_InitStruct.Pull = GPIO_NOPULL;
 1231              		.loc 1 508 0
 1232 006e 0295     		str	r5, [sp, #8]
 509:Src/stm32f7xx_hal_msp.c ****     GPIO_InitStruct.Speed = GPIO_SPEED_FREQ_LOW;
 1233              		.loc 1 509 0
 1234 0070 0394     		str	r4, [sp, #12]
 510:Src/stm32f7xx_hal_msp.c ****     GPIO_InitStruct.Alternate = GPIO_AF9_LTDC;
 1235              		.loc 1 510 0
 1236 0072 0494     		str	r4, [sp, #16]
 511:Src/stm32f7xx_hal_msp.c ****     HAL_GPIO_Init(LCD_B4_GPIO_Port, &GPIO_InitStruct);
 1237              		.loc 1 511 0
 1238 0074 0923     		movs	r3, #9
 1239 0076 0593     		str	r3, [sp, #20]
 512:Src/stm32f7xx_hal_msp.c **** 
 1240              		.loc 1 512 0
 1241 0078 01A9     		add	r1, sp, #4
 1242 007a 1048     		ldr	r0, .L104+16
 1243 007c FFF7FEFF 		bl	HAL_GPIO_Init
 1244              	.LVL78:
ARM GAS  C:\Users\Student\AppData\Local\Temp\ccO0FPJj.s 			page 51


 514:Src/stm32f7xx_hal_msp.c ****     GPIO_InitStruct.Mode = GPIO_MODE_AF_PP;
 1245              		.loc 1 514 0
 1246 0080 4FF44643 		mov	r3, #50688
 1247 0084 0193     		str	r3, [sp, #4]
 515:Src/stm32f7xx_hal_msp.c ****     GPIO_InitStruct.Pull = GPIO_NOPULL;
 1248              		.loc 1 515 0
 1249 0086 0295     		str	r5, [sp, #8]
 516:Src/stm32f7xx_hal_msp.c ****     GPIO_InitStruct.Speed = GPIO_SPEED_FREQ_LOW;
 1250              		.loc 1 516 0
 1251 0088 0394     		str	r4, [sp, #12]
 517:Src/stm32f7xx_hal_msp.c ****     GPIO_InitStruct.Alternate = GPIO_AF14_LTDC;
 1252              		.loc 1 517 0
 1253 008a 0494     		str	r4, [sp, #16]
 518:Src/stm32f7xx_hal_msp.c ****     HAL_GPIO_Init(GPIOI, &GPIO_InitStruct);
 1254              		.loc 1 518 0
 1255 008c 0596     		str	r6, [sp, #20]
 519:Src/stm32f7xx_hal_msp.c **** 
 1256              		.loc 1 519 0
 1257 008e 01A9     		add	r1, sp, #4
 1258 0090 0B48     		ldr	r0, .L104+20
 1259 0092 FFF7FEFF 		bl	HAL_GPIO_Init
 1260              	.LVL79:
 522:Src/stm32f7xx_hal_msp.c ****     HAL_NVIC_EnableIRQ(LTDC_IRQn);
 1261              		.loc 1 522 0
 1262 0096 2246     		mov	r2, r4
 1263 0098 0521     		movs	r1, #5
 1264 009a 5820     		movs	r0, #88
 1265 009c FFF7FEFF 		bl	HAL_NVIC_SetPriority
 1266              	.LVL80:
 523:Src/stm32f7xx_hal_msp.c ****   /* USER CODE BEGIN LTDC_MspInit 1 */
 1267              		.loc 1 523 0
 1268 00a0 5820     		movs	r0, #88
 1269 00a2 FFF7FEFF 		bl	HAL_NVIC_EnableIRQ
 1270              	.LVL81:
 529:Src/stm32f7xx_hal_msp.c **** 
 1271              		.loc 1 529 0
 1272 00a6 06B0     		add	sp, sp, #24
 1273              	.LCFI28:
 1274              		.cfi_def_cfa_offset 16
 1275              		@ sp needed
 1276 00a8 70BD     		pop	{r4, r5, r6, pc}
 1277              	.L105:
 1278 00aa 00BF     		.align	2
 1279              	.L104:
 1280 00ac 00680140 		.word	1073833984
 1281 00b0 00100240 		.word	1073876992
 1282 00b4 00240240 		.word	1073882112
 1283 00b8 00280240 		.word	1073883136
 1284 00bc 00180240 		.word	1073879040
 1285 00c0 00200240 		.word	1073881088
 1286              		.cfi_endproc
 1287              	.LFE147:
 1289              		.section	.text.HAL_LTDC_MspDeInit,"ax",%progbits
 1290              		.align	1
 1291              		.global	HAL_LTDC_MspDeInit
 1292              		.syntax unified
 1293              		.thumb
ARM GAS  C:\Users\Student\AppData\Local\Temp\ccO0FPJj.s 			page 52


 1294              		.thumb_func
 1295              		.fpu fpv5-sp-d16
 1297              	HAL_LTDC_MspDeInit:
 1298              	.LFB148:
 532:Src/stm32f7xx_hal_msp.c **** 
 1299              		.loc 1 532 0
 1300              		.cfi_startproc
 1301              		@ args = 0, pretend = 0, frame = 0
 1302              		@ frame_needed = 0, uses_anonymous_args = 0
 1303              	.LVL82:
 1304 0000 08B5     		push	{r3, lr}
 1305              	.LCFI29:
 1306              		.cfi_def_cfa_offset 8
 1307              		.cfi_offset 3, -8
 1308              		.cfi_offset 14, -4
 534:Src/stm32f7xx_hal_msp.c ****   {
 1309              		.loc 1 534 0
 1310 0002 0268     		ldr	r2, [r0]
 1311 0004 114B     		ldr	r3, .L110
 1312 0006 9A42     		cmp	r2, r3
 1313 0008 00D0     		beq	.L109
 1314              	.LVL83:
 1315              	.L106:
 1316 000a 08BD     		pop	{r3, pc}
 1317              	.LVL84:
 1318              	.L109:
 540:Src/stm32f7xx_hal_msp.c ****   
 1319              		.loc 1 540 0
 1320 000c 104A     		ldr	r2, .L110+4
 1321 000e 536C     		ldr	r3, [r2, #68]
 1322 0010 23F08063 		bic	r3, r3, #67108864
 1323 0014 5364     		str	r3, [r2, #68]
 572:Src/stm32f7xx_hal_msp.c **** 
 1324              		.loc 1 572 0
 1325 0016 1021     		movs	r1, #16
 1326 0018 0E48     		ldr	r0, .L110+8
 1327              	.LVL85:
 1328 001a FFF7FEFF 		bl	HAL_GPIO_DeInit
 1329              	.LVL86:
 574:Src/stm32f7xx_hal_msp.c ****                           |LCD_G1_Pin|LCD_G3_Pin|LCD_G0_Pin|LCD_G2_Pin 
 1330              		.loc 1 574 0
 1331 001e 4EF6FF71 		movw	r1, #61439
 1332 0022 0D48     		ldr	r0, .L110+12
 1333 0024 FFF7FEFF 		bl	HAL_GPIO_DeInit
 1334              	.LVL87:
 579:Src/stm32f7xx_hal_msp.c ****                           |LCD_G6_Pin|LCD_G7_Pin|LCD_G5_Pin);
 1335              		.loc 1 579 0
 1336 0028 F721     		movs	r1, #247
 1337 002a 0C48     		ldr	r0, .L110+16
 1338 002c FFF7FEFF 		bl	HAL_GPIO_DeInit
 1339              	.LVL88:
 582:Src/stm32f7xx_hal_msp.c **** 
 1340              		.loc 1 582 0
 1341 0030 4FF48051 		mov	r1, #4096
 1342 0034 0A48     		ldr	r0, .L110+20
 1343 0036 FFF7FEFF 		bl	HAL_GPIO_DeInit
 1344              	.LVL89:
ARM GAS  C:\Users\Student\AppData\Local\Temp\ccO0FPJj.s 			page 53


 584:Src/stm32f7xx_hal_msp.c **** 
 1345              		.loc 1 584 0
 1346 003a 4FF44641 		mov	r1, #50688
 1347 003e 0948     		ldr	r0, .L110+24
 1348 0040 FFF7FEFF 		bl	HAL_GPIO_DeInit
 1349              	.LVL90:
 587:Src/stm32f7xx_hal_msp.c ****   /* USER CODE BEGIN LTDC_MspDeInit 1 */
 1350              		.loc 1 587 0
 1351 0044 5820     		movs	r0, #88
 1352 0046 FFF7FEFF 		bl	HAL_NVIC_DisableIRQ
 1353              	.LVL91:
 593:Src/stm32f7xx_hal_msp.c **** 
 1354              		.loc 1 593 0
 1355 004a DEE7     		b	.L106
 1356              	.L111:
 1357              		.align	2
 1358              	.L110:
 1359 004c 00680140 		.word	1073833984
 1360 0050 00380240 		.word	1073887232
 1361 0054 00100240 		.word	1073876992
 1362 0058 00240240 		.word	1073882112
 1363 005c 00280240 		.word	1073883136
 1364 0060 00180240 		.word	1073879040
 1365 0064 00200240 		.word	1073881088
 1366              		.cfi_endproc
 1367              	.LFE148:
 1369              		.section	.text.HAL_QSPI_MspInit,"ax",%progbits
 1370              		.align	1
 1371              		.global	HAL_QSPI_MspInit
 1372              		.syntax unified
 1373              		.thumb
 1374              		.thumb_func
 1375              		.fpu fpv5-sp-d16
 1377              	HAL_QSPI_MspInit:
 1378              	.LFB149:
 596:Src/stm32f7xx_hal_msp.c **** 
 1379              		.loc 1 596 0
 1380              		.cfi_startproc
 1381              		@ args = 0, pretend = 0, frame = 24
 1382              		@ frame_needed = 0, uses_anonymous_args = 0
 1383              	.LVL92:
 599:Src/stm32f7xx_hal_msp.c ****   {
 1384              		.loc 1 599 0
 1385 0000 0268     		ldr	r2, [r0]
 1386 0002 254B     		ldr	r3, .L119
 1387 0004 9A42     		cmp	r2, r3
 1388 0006 00D0     		beq	.L118
 1389 0008 7047     		bx	lr
 1390              	.L118:
 596:Src/stm32f7xx_hal_msp.c **** 
 1391              		.loc 1 596 0
 1392 000a 2DE9F043 		push	{r4, r5, r6, r7, r8, r9, lr}
 1393              	.LCFI30:
 1394              		.cfi_def_cfa_offset 28
 1395              		.cfi_offset 4, -28
 1396              		.cfi_offset 5, -24
 1397              		.cfi_offset 6, -20
ARM GAS  C:\Users\Student\AppData\Local\Temp\ccO0FPJj.s 			page 54


 1398              		.cfi_offset 7, -16
 1399              		.cfi_offset 8, -12
 1400              		.cfi_offset 9, -8
 1401              		.cfi_offset 14, -4
 1402 000e 87B0     		sub	sp, sp, #28
 1403              	.LCFI31:
 1404              		.cfi_def_cfa_offset 56
 1405              	.LBB12:
 605:Src/stm32f7xx_hal_msp.c ****   
 1406              		.loc 1 605 0
 1407 0010 224B     		ldr	r3, .L119+4
 1408 0012 9A6B     		ldr	r2, [r3, #56]
 1409 0014 42F00202 		orr	r2, r2, #2
 1410 0018 9A63     		str	r2, [r3, #56]
 1411 001a 9B6B     		ldr	r3, [r3, #56]
 1412 001c 03F00203 		and	r3, r3, #2
 1413 0020 0093     		str	r3, [sp]
 1414 0022 009B     		ldr	r3, [sp]
 1415              	.LBE12:
 615:Src/stm32f7xx_hal_msp.c ****     GPIO_InitStruct.Mode = GPIO_MODE_AF_PP;
 1416              		.loc 1 615 0
 1417 0024 4FF00409 		mov	r9, #4
 1418 0028 CDF80490 		str	r9, [sp, #4]
 616:Src/stm32f7xx_hal_msp.c ****     GPIO_InitStruct.Pull = GPIO_NOPULL;
 1419              		.loc 1 616 0
 1420 002c 0226     		movs	r6, #2
 1421 002e 0296     		str	r6, [sp, #8]
 617:Src/stm32f7xx_hal_msp.c ****     GPIO_InitStruct.Speed = GPIO_SPEED_FREQ_VERY_HIGH;
 1422              		.loc 1 617 0
 1423 0030 0025     		movs	r5, #0
 1424 0032 0395     		str	r5, [sp, #12]
 618:Src/stm32f7xx_hal_msp.c ****     GPIO_InitStruct.Alternate = GPIO_AF9_QUADSPI;
 1425              		.loc 1 618 0
 1426 0034 0324     		movs	r4, #3
 1427 0036 0494     		str	r4, [sp, #16]
 619:Src/stm32f7xx_hal_msp.c ****     HAL_GPIO_Init(QSPI_D2_GPIO_Port, &GPIO_InitStruct);
 1428              		.loc 1 619 0
 1429 0038 0927     		movs	r7, #9
 1430 003a 0597     		str	r7, [sp, #20]
 620:Src/stm32f7xx_hal_msp.c **** 
 1431              		.loc 1 620 0
 1432 003c 0DEB0901 		add	r1, sp, r9
 1433 0040 1748     		ldr	r0, .L119+8
 1434              	.LVL93:
 1435 0042 FFF7FEFF 		bl	HAL_GPIO_Init
 1436              	.LVL94:
 622:Src/stm32f7xx_hal_msp.c ****     GPIO_InitStruct.Mode = GPIO_MODE_AF_PP;
 1437              		.loc 1 622 0
 1438 0046 4023     		movs	r3, #64
 1439 0048 0193     		str	r3, [sp, #4]
 623:Src/stm32f7xx_hal_msp.c ****     GPIO_InitStruct.Pull = GPIO_NOPULL;
 1440              		.loc 1 623 0
 1441 004a 0296     		str	r6, [sp, #8]
 624:Src/stm32f7xx_hal_msp.c ****     GPIO_InitStruct.Speed = GPIO_SPEED_FREQ_VERY_HIGH;
 1442              		.loc 1 624 0
 1443 004c 0395     		str	r5, [sp, #12]
 625:Src/stm32f7xx_hal_msp.c ****     GPIO_InitStruct.Alternate = GPIO_AF10_QUADSPI;
ARM GAS  C:\Users\Student\AppData\Local\Temp\ccO0FPJj.s 			page 55


 1444              		.loc 1 625 0
 1445 004e 0494     		str	r4, [sp, #16]
 626:Src/stm32f7xx_hal_msp.c ****     HAL_GPIO_Init(QSPI_NCS_GPIO_Port, &GPIO_InitStruct);
 1446              		.loc 1 626 0
 1447 0050 0A23     		movs	r3, #10
 1448 0052 0593     		str	r3, [sp, #20]
 627:Src/stm32f7xx_hal_msp.c **** 
 1449              		.loc 1 627 0
 1450 0054 DFF85080 		ldr	r8, .L119+16
 1451 0058 0DEB0901 		add	r1, sp, r9
 1452 005c 4046     		mov	r0, r8
 1453 005e FFF7FEFF 		bl	HAL_GPIO_Init
 1454              	.LVL95:
 629:Src/stm32f7xx_hal_msp.c ****     GPIO_InitStruct.Mode = GPIO_MODE_AF_PP;
 1455              		.loc 1 629 0
 1456 0062 CDF80490 		str	r9, [sp, #4]
 630:Src/stm32f7xx_hal_msp.c ****     GPIO_InitStruct.Pull = GPIO_NOPULL;
 1457              		.loc 1 630 0
 1458 0066 0296     		str	r6, [sp, #8]
 631:Src/stm32f7xx_hal_msp.c ****     GPIO_InitStruct.Speed = GPIO_SPEED_FREQ_VERY_HIGH;
 1459              		.loc 1 631 0
 1460 0068 0395     		str	r5, [sp, #12]
 632:Src/stm32f7xx_hal_msp.c ****     GPIO_InitStruct.Alternate = GPIO_AF9_QUADSPI;
 1461              		.loc 1 632 0
 1462 006a 0494     		str	r4, [sp, #16]
 633:Src/stm32f7xx_hal_msp.c ****     HAL_GPIO_Init(GPIOB, &GPIO_InitStruct);
 1463              		.loc 1 633 0
 1464 006c 0597     		str	r7, [sp, #20]
 634:Src/stm32f7xx_hal_msp.c **** 
 1465              		.loc 1 634 0
 1466 006e 0DEB0901 		add	r1, sp, r9
 1467 0072 4046     		mov	r0, r8
 1468 0074 FFF7FEFF 		bl	HAL_GPIO_Init
 1469              	.LVL96:
 636:Src/stm32f7xx_hal_msp.c ****     GPIO_InitStruct.Mode = GPIO_MODE_AF_PP;
 1470              		.loc 1 636 0
 1471 0078 4FF46053 		mov	r3, #14336
 1472 007c 0193     		str	r3, [sp, #4]
 637:Src/stm32f7xx_hal_msp.c ****     GPIO_InitStruct.Pull = GPIO_NOPULL;
 1473              		.loc 1 637 0
 1474 007e 0296     		str	r6, [sp, #8]
 638:Src/stm32f7xx_hal_msp.c ****     GPIO_InitStruct.Speed = GPIO_SPEED_FREQ_VERY_HIGH;
 1475              		.loc 1 638 0
 1476 0080 0395     		str	r5, [sp, #12]
 639:Src/stm32f7xx_hal_msp.c ****     GPIO_InitStruct.Alternate = GPIO_AF9_QUADSPI;
 1477              		.loc 1 639 0
 1478 0082 0494     		str	r4, [sp, #16]
 640:Src/stm32f7xx_hal_msp.c ****     HAL_GPIO_Init(GPIOD, &GPIO_InitStruct);
 1479              		.loc 1 640 0
 1480 0084 0597     		str	r7, [sp, #20]
 641:Src/stm32f7xx_hal_msp.c **** 
 1481              		.loc 1 641 0
 1482 0086 0DEB0901 		add	r1, sp, r9
 1483 008a 0648     		ldr	r0, .L119+12
 1484 008c FFF7FEFF 		bl	HAL_GPIO_Init
 1485              	.LVL97:
 648:Src/stm32f7xx_hal_msp.c **** 
ARM GAS  C:\Users\Student\AppData\Local\Temp\ccO0FPJj.s 			page 56


 1486              		.loc 1 648 0
 1487 0090 07B0     		add	sp, sp, #28
 1488              	.LCFI32:
 1489              		.cfi_def_cfa_offset 28
 1490              		@ sp needed
 1491 0092 BDE8F083 		pop	{r4, r5, r6, r7, r8, r9, pc}
 1492              	.L120:
 1493 0096 00BF     		.align	2
 1494              	.L119:
 1495 0098 001000A0 		.word	-1610608640
 1496 009c 00380240 		.word	1073887232
 1497 00a0 00100240 		.word	1073876992
 1498 00a4 000C0240 		.word	1073875968
 1499 00a8 00040240 		.word	1073873920
 1500              		.cfi_endproc
 1501              	.LFE149:
 1503              		.section	.text.HAL_QSPI_MspDeInit,"ax",%progbits
 1504              		.align	1
 1505              		.global	HAL_QSPI_MspDeInit
 1506              		.syntax unified
 1507              		.thumb
 1508              		.thumb_func
 1509              		.fpu fpv5-sp-d16
 1511              	HAL_QSPI_MspDeInit:
 1512              	.LFB150:
 651:Src/stm32f7xx_hal_msp.c **** 
 1513              		.loc 1 651 0
 1514              		.cfi_startproc
 1515              		@ args = 0, pretend = 0, frame = 0
 1516              		@ frame_needed = 0, uses_anonymous_args = 0
 1517              	.LVL98:
 1518 0000 08B5     		push	{r3, lr}
 1519              	.LCFI33:
 1520              		.cfi_def_cfa_offset 8
 1521              		.cfi_offset 3, -8
 1522              		.cfi_offset 14, -4
 653:Src/stm32f7xx_hal_msp.c ****   {
 1523              		.loc 1 653 0
 1524 0002 0268     		ldr	r2, [r0]
 1525 0004 0B4B     		ldr	r3, .L125
 1526 0006 9A42     		cmp	r2, r3
 1527 0008 00D0     		beq	.L124
 1528              	.LVL99:
 1529              	.L121:
 1530 000a 08BD     		pop	{r3, pc}
 1531              	.LVL100:
 1532              	.L124:
 659:Src/stm32f7xx_hal_msp.c ****   
 1533              		.loc 1 659 0
 1534 000c 0A4A     		ldr	r2, .L125+4
 1535 000e 936B     		ldr	r3, [r2, #56]
 1536 0010 23F00203 		bic	r3, r3, #2
 1537 0014 9363     		str	r3, [r2, #56]
 669:Src/stm32f7xx_hal_msp.c **** 
 1538              		.loc 1 669 0
 1539 0016 0421     		movs	r1, #4
 1540 0018 0848     		ldr	r0, .L125+8
ARM GAS  C:\Users\Student\AppData\Local\Temp\ccO0FPJj.s 			page 57


 1541              	.LVL101:
 1542 001a FFF7FEFF 		bl	HAL_GPIO_DeInit
 1543              	.LVL102:
 671:Src/stm32f7xx_hal_msp.c **** 
 1544              		.loc 1 671 0
 1545 001e 4421     		movs	r1, #68
 1546 0020 0748     		ldr	r0, .L125+12
 1547 0022 FFF7FEFF 		bl	HAL_GPIO_DeInit
 1548              	.LVL103:
 673:Src/stm32f7xx_hal_msp.c **** 
 1549              		.loc 1 673 0
 1550 0026 4FF46051 		mov	r1, #14336
 1551 002a 0648     		ldr	r0, .L125+16
 1552 002c FFF7FEFF 		bl	HAL_GPIO_DeInit
 1553              	.LVL104:
 680:Src/stm32f7xx_hal_msp.c **** 
 1554              		.loc 1 680 0
 1555 0030 EBE7     		b	.L121
 1556              	.L126:
 1557 0032 00BF     		.align	2
 1558              	.L125:
 1559 0034 001000A0 		.word	-1610608640
 1560 0038 00380240 		.word	1073887232
 1561 003c 00100240 		.word	1073876992
 1562 0040 00040240 		.word	1073873920
 1563 0044 000C0240 		.word	1073875968
 1564              		.cfi_endproc
 1565              	.LFE150:
 1567              		.section	.text.HAL_RTC_MspInit,"ax",%progbits
 1568              		.align	1
 1569              		.global	HAL_RTC_MspInit
 1570              		.syntax unified
 1571              		.thumb
 1572              		.thumb_func
 1573              		.fpu fpv5-sp-d16
 1575              	HAL_RTC_MspInit:
 1576              	.LFB151:
 683:Src/stm32f7xx_hal_msp.c **** 
 1577              		.loc 1 683 0
 1578              		.cfi_startproc
 1579              		@ args = 0, pretend = 0, frame = 0
 1580              		@ frame_needed = 0, uses_anonymous_args = 0
 1581              		@ link register save eliminated.
 1582              	.LVL105:
 685:Src/stm32f7xx_hal_msp.c ****   {
 1583              		.loc 1 685 0
 1584 0000 0268     		ldr	r2, [r0]
 1585 0002 054B     		ldr	r3, .L130
 1586 0004 9A42     		cmp	r2, r3
 1587 0006 00D0     		beq	.L129
 1588              	.L127:
 1589 0008 7047     		bx	lr
 1590              	.L129:
 691:Src/stm32f7xx_hal_msp.c ****   /* USER CODE BEGIN RTC_MspInit 1 */
 1591              		.loc 1 691 0
 1592 000a 044A     		ldr	r2, .L130+4
 1593 000c 136F     		ldr	r3, [r2, #112]
ARM GAS  C:\Users\Student\AppData\Local\Temp\ccO0FPJj.s 			page 58


 1594 000e 43F40043 		orr	r3, r3, #32768
 1595 0012 1367     		str	r3, [r2, #112]
 697:Src/stm32f7xx_hal_msp.c **** 
 1596              		.loc 1 697 0
 1597 0014 F8E7     		b	.L127
 1598              	.L131:
 1599 0016 00BF     		.align	2
 1600              	.L130:
 1601 0018 00280040 		.word	1073752064
 1602 001c 00380240 		.word	1073887232
 1603              		.cfi_endproc
 1604              	.LFE151:
 1606              		.section	.text.HAL_RTC_MspDeInit,"ax",%progbits
 1607              		.align	1
 1608              		.global	HAL_RTC_MspDeInit
 1609              		.syntax unified
 1610              		.thumb
 1611              		.thumb_func
 1612              		.fpu fpv5-sp-d16
 1614              	HAL_RTC_MspDeInit:
 1615              	.LFB152:
 700:Src/stm32f7xx_hal_msp.c **** 
 1616              		.loc 1 700 0
 1617              		.cfi_startproc
 1618              		@ args = 0, pretend = 0, frame = 0
 1619              		@ frame_needed = 0, uses_anonymous_args = 0
 1620              		@ link register save eliminated.
 1621              	.LVL106:
 702:Src/stm32f7xx_hal_msp.c ****   {
 1622              		.loc 1 702 0
 1623 0000 0268     		ldr	r2, [r0]
 1624 0002 054B     		ldr	r3, .L135
 1625 0004 9A42     		cmp	r2, r3
 1626 0006 00D0     		beq	.L134
 1627              	.L132:
 1628 0008 7047     		bx	lr
 1629              	.L134:
 708:Src/stm32f7xx_hal_msp.c ****   /* USER CODE BEGIN RTC_MspDeInit 1 */
 1630              		.loc 1 708 0
 1631 000a 044A     		ldr	r2, .L135+4
 1632 000c 136F     		ldr	r3, [r2, #112]
 1633 000e 23F40043 		bic	r3, r3, #32768
 1634 0012 1367     		str	r3, [r2, #112]
 714:Src/stm32f7xx_hal_msp.c **** 
 1635              		.loc 1 714 0
 1636 0014 F8E7     		b	.L132
 1637              	.L136:
 1638 0016 00BF     		.align	2
 1639              	.L135:
 1640 0018 00280040 		.word	1073752064
 1641 001c 00380240 		.word	1073887232
 1642              		.cfi_endproc
 1643              	.LFE152:
 1645              		.section	.text.HAL_SD_MspInit,"ax",%progbits
 1646              		.align	1
 1647              		.global	HAL_SD_MspInit
 1648              		.syntax unified
ARM GAS  C:\Users\Student\AppData\Local\Temp\ccO0FPJj.s 			page 59


 1649              		.thumb
 1650              		.thumb_func
 1651              		.fpu fpv5-sp-d16
 1653              	HAL_SD_MspInit:
 1654              	.LFB153:
 717:Src/stm32f7xx_hal_msp.c **** 
 1655              		.loc 1 717 0
 1656              		.cfi_startproc
 1657              		@ args = 0, pretend = 0, frame = 24
 1658              		@ frame_needed = 0, uses_anonymous_args = 0
 1659              	.LVL107:
 720:Src/stm32f7xx_hal_msp.c ****   {
 1660              		.loc 1 720 0
 1661 0000 0268     		ldr	r2, [r0]
 1662 0002 164B     		ldr	r3, .L144
 1663 0004 9A42     		cmp	r2, r3
 1664 0006 00D0     		beq	.L143
 1665 0008 7047     		bx	lr
 1666              	.L143:
 717:Src/stm32f7xx_hal_msp.c **** 
 1667              		.loc 1 717 0
 1668 000a F0B5     		push	{r4, r5, r6, r7, lr}
 1669              	.LCFI34:
 1670              		.cfi_def_cfa_offset 20
 1671              		.cfi_offset 4, -20
 1672              		.cfi_offset 5, -16
 1673              		.cfi_offset 6, -12
 1674              		.cfi_offset 7, -8
 1675              		.cfi_offset 14, -4
 1676 000c 87B0     		sub	sp, sp, #28
 1677              	.LCFI35:
 1678              		.cfi_def_cfa_offset 48
 1679              	.LBB13:
 726:Src/stm32f7xx_hal_msp.c ****   
 1680              		.loc 1 726 0
 1681 000e 03F58633 		add	r3, r3, #68608
 1682 0012 5A6C     		ldr	r2, [r3, #68]
 1683 0014 42F40062 		orr	r2, r2, #2048
 1684 0018 5A64     		str	r2, [r3, #68]
 1685 001a 5B6C     		ldr	r3, [r3, #68]
 1686 001c 03F40063 		and	r3, r3, #2048
 1687 0020 0093     		str	r3, [sp]
 1688 0022 009B     		ldr	r3, [sp]
 1689              	.LBE13:
 736:Src/stm32f7xx_hal_msp.c ****                           |GPIO_PIN_8;
 1690              		.loc 1 736 0
 1691 0024 4FF4F853 		mov	r3, #7936
 1692 0028 0193     		str	r3, [sp, #4]
 738:Src/stm32f7xx_hal_msp.c ****     GPIO_InitStruct.Pull = GPIO_NOPULL;
 1693              		.loc 1 738 0
 1694 002a 0227     		movs	r7, #2
 1695 002c 0297     		str	r7, [sp, #8]
 739:Src/stm32f7xx_hal_msp.c ****     GPIO_InitStruct.Speed = GPIO_SPEED_FREQ_VERY_HIGH;
 1696              		.loc 1 739 0
 1697 002e 0026     		movs	r6, #0
 1698 0030 0396     		str	r6, [sp, #12]
 740:Src/stm32f7xx_hal_msp.c ****     GPIO_InitStruct.Alternate = GPIO_AF12_SDMMC1;
ARM GAS  C:\Users\Student\AppData\Local\Temp\ccO0FPJj.s 			page 60


 1699              		.loc 1 740 0
 1700 0032 0325     		movs	r5, #3
 1701 0034 0495     		str	r5, [sp, #16]
 741:Src/stm32f7xx_hal_msp.c ****     HAL_GPIO_Init(GPIOC, &GPIO_InitStruct);
 1702              		.loc 1 741 0
 1703 0036 0C24     		movs	r4, #12
 1704 0038 0594     		str	r4, [sp, #20]
 742:Src/stm32f7xx_hal_msp.c **** 
 1705              		.loc 1 742 0
 1706 003a 01A9     		add	r1, sp, #4
 1707 003c 0848     		ldr	r0, .L144+4
 1708              	.LVL108:
 1709 003e FFF7FEFF 		bl	HAL_GPIO_Init
 1710              	.LVL109:
 744:Src/stm32f7xx_hal_msp.c ****     GPIO_InitStruct.Mode = GPIO_MODE_AF_PP;
 1711              		.loc 1 744 0
 1712 0042 0423     		movs	r3, #4
 1713 0044 0193     		str	r3, [sp, #4]
 745:Src/stm32f7xx_hal_msp.c ****     GPIO_InitStruct.Pull = GPIO_NOPULL;
 1714              		.loc 1 745 0
 1715 0046 0297     		str	r7, [sp, #8]
 746:Src/stm32f7xx_hal_msp.c ****     GPIO_InitStruct.Speed = GPIO_SPEED_FREQ_VERY_HIGH;
 1716              		.loc 1 746 0
 1717 0048 0396     		str	r6, [sp, #12]
 747:Src/stm32f7xx_hal_msp.c ****     GPIO_InitStruct.Alternate = GPIO_AF12_SDMMC1;
 1718              		.loc 1 747 0
 1719 004a 0495     		str	r5, [sp, #16]
 748:Src/stm32f7xx_hal_msp.c ****     HAL_GPIO_Init(SDMMC_CMD_GPIO_Port, &GPIO_InitStruct);
 1720              		.loc 1 748 0
 1721 004c 0594     		str	r4, [sp, #20]
 749:Src/stm32f7xx_hal_msp.c **** 
 1722              		.loc 1 749 0
 1723 004e 0DEB0301 		add	r1, sp, r3
 1724 0052 0448     		ldr	r0, .L144+8
 1725 0054 FFF7FEFF 		bl	HAL_GPIO_Init
 1726              	.LVL110:
 756:Src/stm32f7xx_hal_msp.c **** 
 1727              		.loc 1 756 0
 1728 0058 07B0     		add	sp, sp, #28
 1729              	.LCFI36:
 1730              		.cfi_def_cfa_offset 20
 1731              		@ sp needed
 1732 005a F0BD     		pop	{r4, r5, r6, r7, pc}
 1733              	.L145:
 1734              		.align	2
 1735              	.L144:
 1736 005c 002C0140 		.word	1073818624
 1737 0060 00080240 		.word	1073874944
 1738 0064 000C0240 		.word	1073875968
 1739              		.cfi_endproc
 1740              	.LFE153:
 1742              		.section	.text.HAL_SD_MspDeInit,"ax",%progbits
 1743              		.align	1
 1744              		.global	HAL_SD_MspDeInit
 1745              		.syntax unified
 1746              		.thumb
 1747              		.thumb_func
ARM GAS  C:\Users\Student\AppData\Local\Temp\ccO0FPJj.s 			page 61


 1748              		.fpu fpv5-sp-d16
 1750              	HAL_SD_MspDeInit:
 1751              	.LFB154:
 759:Src/stm32f7xx_hal_msp.c **** 
 1752              		.loc 1 759 0
 1753              		.cfi_startproc
 1754              		@ args = 0, pretend = 0, frame = 0
 1755              		@ frame_needed = 0, uses_anonymous_args = 0
 1756              	.LVL111:
 1757 0000 08B5     		push	{r3, lr}
 1758              	.LCFI37:
 1759              		.cfi_def_cfa_offset 8
 1760              		.cfi_offset 3, -8
 1761              		.cfi_offset 14, -4
 761:Src/stm32f7xx_hal_msp.c ****   {
 1762              		.loc 1 761 0
 1763 0002 0268     		ldr	r2, [r0]
 1764 0004 094B     		ldr	r3, .L150
 1765 0006 9A42     		cmp	r2, r3
 1766 0008 00D0     		beq	.L149
 1767              	.LVL112:
 1768              	.L146:
 1769 000a 08BD     		pop	{r3, pc}
 1770              	.LVL113:
 1771              	.L149:
 767:Src/stm32f7xx_hal_msp.c ****   
 1772              		.loc 1 767 0
 1773 000c 084A     		ldr	r2, .L150+4
 1774 000e 536C     		ldr	r3, [r2, #68]
 1775 0010 23F40063 		bic	r3, r3, #2048
 1776 0014 5364     		str	r3, [r2, #68]
 777:Src/stm32f7xx_hal_msp.c ****                           |GPIO_PIN_8);
 1777              		.loc 1 777 0
 1778 0016 4FF4F851 		mov	r1, #7936
 1779 001a 0648     		ldr	r0, .L150+8
 1780              	.LVL114:
 1781 001c FFF7FEFF 		bl	HAL_GPIO_DeInit
 1782              	.LVL115:
 780:Src/stm32f7xx_hal_msp.c **** 
 1783              		.loc 1 780 0
 1784 0020 0421     		movs	r1, #4
 1785 0022 0548     		ldr	r0, .L150+12
 1786 0024 FFF7FEFF 		bl	HAL_GPIO_DeInit
 1787              	.LVL116:
 787:Src/stm32f7xx_hal_msp.c **** 
 1788              		.loc 1 787 0
 1789 0028 EFE7     		b	.L146
 1790              	.L151:
 1791 002a 00BF     		.align	2
 1792              	.L150:
 1793 002c 002C0140 		.word	1073818624
 1794 0030 00380240 		.word	1073887232
 1795 0034 00080240 		.word	1073874944
 1796 0038 000C0240 		.word	1073875968
 1797              		.cfi_endproc
 1798              	.LFE154:
 1800              		.section	.text.HAL_SPDIFRX_MspInit,"ax",%progbits
ARM GAS  C:\Users\Student\AppData\Local\Temp\ccO0FPJj.s 			page 62


 1801              		.align	1
 1802              		.global	HAL_SPDIFRX_MspInit
 1803              		.syntax unified
 1804              		.thumb
 1805              		.thumb_func
 1806              		.fpu fpv5-sp-d16
 1808              	HAL_SPDIFRX_MspInit:
 1809              	.LFB155:
 790:Src/stm32f7xx_hal_msp.c **** 
 1810              		.loc 1 790 0
 1811              		.cfi_startproc
 1812              		@ args = 0, pretend = 0, frame = 24
 1813              		@ frame_needed = 0, uses_anonymous_args = 0
 1814              	.LVL117:
 793:Src/stm32f7xx_hal_msp.c ****   {
 1815              		.loc 1 793 0
 1816 0000 0368     		ldr	r3, [r0]
 1817 0002 B3F1402F 		cmp	r3, #1073758208
 1818 0006 00D0     		beq	.L158
 1819 0008 7047     		bx	lr
 1820              	.L158:
 790:Src/stm32f7xx_hal_msp.c **** 
 1821              		.loc 1 790 0
 1822 000a 00B5     		push	{lr}
 1823              	.LCFI38:
 1824              		.cfi_def_cfa_offset 4
 1825              		.cfi_offset 14, -4
 1826 000c 87B0     		sub	sp, sp, #28
 1827              	.LCFI39:
 1828              		.cfi_def_cfa_offset 32
 1829              	.LBB14:
 799:Src/stm32f7xx_hal_msp.c ****   
 1830              		.loc 1 799 0
 1831 000e 03F5FC33 		add	r3, r3, #129024
 1832 0012 1A6C     		ldr	r2, [r3, #64]
 1833 0014 42F48032 		orr	r2, r2, #65536
 1834 0018 1A64     		str	r2, [r3, #64]
 1835 001a 1B6C     		ldr	r3, [r3, #64]
 1836 001c 03F48033 		and	r3, r3, #65536
 1837 0020 0093     		str	r3, [sp]
 1838 0022 009B     		ldr	r3, [sp]
 1839              	.LBE14:
 804:Src/stm32f7xx_hal_msp.c ****     GPIO_InitStruct.Mode = GPIO_MODE_AF_PP;
 1840              		.loc 1 804 0
 1841 0024 8023     		movs	r3, #128
 1842 0026 0193     		str	r3, [sp, #4]
 805:Src/stm32f7xx_hal_msp.c ****     GPIO_InitStruct.Pull = GPIO_NOPULL;
 1843              		.loc 1 805 0
 1844 0028 0223     		movs	r3, #2
 1845 002a 0293     		str	r3, [sp, #8]
 806:Src/stm32f7xx_hal_msp.c ****     GPIO_InitStruct.Speed = GPIO_SPEED_FREQ_LOW;
 1846              		.loc 1 806 0
 1847 002c 0023     		movs	r3, #0
 1848 002e 0393     		str	r3, [sp, #12]
 807:Src/stm32f7xx_hal_msp.c ****     GPIO_InitStruct.Alternate = GPIO_AF8_SPDIFRX;
 1849              		.loc 1 807 0
 1850 0030 0493     		str	r3, [sp, #16]
ARM GAS  C:\Users\Student\AppData\Local\Temp\ccO0FPJj.s 			page 63


 808:Src/stm32f7xx_hal_msp.c ****     HAL_GPIO_Init(SPDIF_RX0_GPIO_Port, &GPIO_InitStruct);
 1851              		.loc 1 808 0
 1852 0032 0823     		movs	r3, #8
 1853 0034 0593     		str	r3, [sp, #20]
 809:Src/stm32f7xx_hal_msp.c **** 
 1854              		.loc 1 809 0
 1855 0036 01A9     		add	r1, sp, #4
 1856 0038 0248     		ldr	r0, .L159
 1857              	.LVL118:
 1858 003a FFF7FEFF 		bl	HAL_GPIO_Init
 1859              	.LVL119:
 816:Src/stm32f7xx_hal_msp.c **** 
 1860              		.loc 1 816 0
 1861 003e 07B0     		add	sp, sp, #28
 1862              	.LCFI40:
 1863              		.cfi_def_cfa_offset 4
 1864              		@ sp needed
 1865 0040 5DF804FB 		ldr	pc, [sp], #4
 1866              	.L160:
 1867              		.align	2
 1868              	.L159:
 1869 0044 000C0240 		.word	1073875968
 1870              		.cfi_endproc
 1871              	.LFE155:
 1873              		.section	.text.HAL_SPDIFRX_MspDeInit,"ax",%progbits
 1874              		.align	1
 1875              		.global	HAL_SPDIFRX_MspDeInit
 1876              		.syntax unified
 1877              		.thumb
 1878              		.thumb_func
 1879              		.fpu fpv5-sp-d16
 1881              	HAL_SPDIFRX_MspDeInit:
 1882              	.LFB156:
 819:Src/stm32f7xx_hal_msp.c **** 
 1883              		.loc 1 819 0
 1884              		.cfi_startproc
 1885              		@ args = 0, pretend = 0, frame = 0
 1886              		@ frame_needed = 0, uses_anonymous_args = 0
 1887              	.LVL120:
 1888 0000 08B5     		push	{r3, lr}
 1889              	.LCFI41:
 1890              		.cfi_def_cfa_offset 8
 1891              		.cfi_offset 3, -8
 1892              		.cfi_offset 14, -4
 821:Src/stm32f7xx_hal_msp.c ****   {
 1893              		.loc 1 821 0
 1894 0002 0368     		ldr	r3, [r0]
 1895 0004 B3F1402F 		cmp	r3, #1073758208
 1896 0008 00D0     		beq	.L164
 1897              	.LVL121:
 1898              	.L161:
 1899 000a 08BD     		pop	{r3, pc}
 1900              	.LVL122:
 1901              	.L164:
 827:Src/stm32f7xx_hal_msp.c ****   
 1902              		.loc 1 827 0
 1903 000c 044A     		ldr	r2, .L165
ARM GAS  C:\Users\Student\AppData\Local\Temp\ccO0FPJj.s 			page 64


 1904 000e 136C     		ldr	r3, [r2, #64]
 1905 0010 23F48033 		bic	r3, r3, #65536
 1906 0014 1364     		str	r3, [r2, #64]
 832:Src/stm32f7xx_hal_msp.c **** 
 1907              		.loc 1 832 0
 1908 0016 8021     		movs	r1, #128
 1909 0018 0248     		ldr	r0, .L165+4
 1910              	.LVL123:
 1911 001a FFF7FEFF 		bl	HAL_GPIO_DeInit
 1912              	.LVL124:
 839:Src/stm32f7xx_hal_msp.c **** 
 1913              		.loc 1 839 0
 1914 001e F4E7     		b	.L161
 1915              	.L166:
 1916              		.align	2
 1917              	.L165:
 1918 0020 00380240 		.word	1073887232
 1919 0024 000C0240 		.word	1073875968
 1920              		.cfi_endproc
 1921              	.LFE156:
 1923              		.section	.text.HAL_SPI_MspInit,"ax",%progbits
 1924              		.align	1
 1925              		.global	HAL_SPI_MspInit
 1926              		.syntax unified
 1927              		.thumb
 1928              		.thumb_func
 1929              		.fpu fpv5-sp-d16
 1931              	HAL_SPI_MspInit:
 1932              	.LFB157:
 842:Src/stm32f7xx_hal_msp.c **** 
 1933              		.loc 1 842 0
 1934              		.cfi_startproc
 1935              		@ args = 0, pretend = 0, frame = 24
 1936              		@ frame_needed = 0, uses_anonymous_args = 0
 1937              	.LVL125:
 845:Src/stm32f7xx_hal_msp.c ****   {
 1938              		.loc 1 845 0
 1939 0000 0268     		ldr	r2, [r0]
 1940 0002 154B     		ldr	r3, .L174
 1941 0004 9A42     		cmp	r2, r3
 1942 0006 00D0     		beq	.L173
 1943 0008 7047     		bx	lr
 1944              	.L173:
 842:Src/stm32f7xx_hal_msp.c **** 
 1945              		.loc 1 842 0
 1946 000a 70B5     		push	{r4, r5, r6, lr}
 1947              	.LCFI42:
 1948              		.cfi_def_cfa_offset 16
 1949              		.cfi_offset 4, -16
 1950              		.cfi_offset 5, -12
 1951              		.cfi_offset 6, -8
 1952              		.cfi_offset 14, -4
 1953 000c 86B0     		sub	sp, sp, #24
 1954              	.LCFI43:
 1955              		.cfi_def_cfa_offset 40
 1956              	.LBB15:
 851:Src/stm32f7xx_hal_msp.c ****   
ARM GAS  C:\Users\Student\AppData\Local\Temp\ccO0FPJj.s 			page 65


 1957              		.loc 1 851 0
 1958 000e 03F50033 		add	r3, r3, #131072
 1959 0012 1A6C     		ldr	r2, [r3, #64]
 1960 0014 42F48042 		orr	r2, r2, #16384
 1961 0018 1A64     		str	r2, [r3, #64]
 1962 001a 1B6C     		ldr	r3, [r3, #64]
 1963 001c 03F48043 		and	r3, r3, #16384
 1964 0020 0093     		str	r3, [sp]
 1965 0022 009B     		ldr	r3, [sp]
 1966              	.LBE15:
 858:Src/stm32f7xx_hal_msp.c ****     GPIO_InitStruct.Mode = GPIO_MODE_AF_PP;
 1967              		.loc 1 858 0
 1968 0024 0225     		movs	r5, #2
 1969 0026 0195     		str	r5, [sp, #4]
 859:Src/stm32f7xx_hal_msp.c ****     GPIO_InitStruct.Pull = GPIO_NOPULL;
 1970              		.loc 1 859 0
 1971 0028 0295     		str	r5, [sp, #8]
 860:Src/stm32f7xx_hal_msp.c ****     GPIO_InitStruct.Speed = GPIO_SPEED_FREQ_LOW;
 1972              		.loc 1 860 0
 1973 002a 0024     		movs	r4, #0
 1974 002c 0394     		str	r4, [sp, #12]
 861:Src/stm32f7xx_hal_msp.c ****     GPIO_InitStruct.Alternate = GPIO_AF5_SPI2;
 1975              		.loc 1 861 0
 1976 002e 0494     		str	r4, [sp, #16]
 862:Src/stm32f7xx_hal_msp.c ****     HAL_GPIO_Init(ARDUINO_SCK_D13_GPIO_Port, &GPIO_InitStruct);
 1977              		.loc 1 862 0
 1978 0030 0526     		movs	r6, #5
 1979 0032 0596     		str	r6, [sp, #20]
 863:Src/stm32f7xx_hal_msp.c **** 
 1980              		.loc 1 863 0
 1981 0034 01A9     		add	r1, sp, #4
 1982 0036 0948     		ldr	r0, .L174+4
 1983              	.LVL126:
 1984 0038 FFF7FEFF 		bl	HAL_GPIO_Init
 1985              	.LVL127:
 865:Src/stm32f7xx_hal_msp.c ****     GPIO_InitStruct.Mode = GPIO_MODE_AF_PP;
 1986              		.loc 1 865 0
 1987 003c 4FF44043 		mov	r3, #49152
 1988 0040 0193     		str	r3, [sp, #4]
 866:Src/stm32f7xx_hal_msp.c ****     GPIO_InitStruct.Pull = GPIO_NOPULL;
 1989              		.loc 1 866 0
 1990 0042 0295     		str	r5, [sp, #8]
 867:Src/stm32f7xx_hal_msp.c ****     GPIO_InitStruct.Speed = GPIO_SPEED_FREQ_LOW;
 1991              		.loc 1 867 0
 1992 0044 0394     		str	r4, [sp, #12]
 868:Src/stm32f7xx_hal_msp.c ****     GPIO_InitStruct.Alternate = GPIO_AF5_SPI2;
 1993              		.loc 1 868 0
 1994 0046 0494     		str	r4, [sp, #16]
 869:Src/stm32f7xx_hal_msp.c ****     HAL_GPIO_Init(GPIOB, &GPIO_InitStruct);
 1995              		.loc 1 869 0
 1996 0048 0596     		str	r6, [sp, #20]
 870:Src/stm32f7xx_hal_msp.c **** 
 1997              		.loc 1 870 0
 1998 004a 01A9     		add	r1, sp, #4
 1999 004c 0448     		ldr	r0, .L174+8
 2000 004e FFF7FEFF 		bl	HAL_GPIO_Init
 2001              	.LVL128:
ARM GAS  C:\Users\Student\AppData\Local\Temp\ccO0FPJj.s 			page 66


 877:Src/stm32f7xx_hal_msp.c **** 
 2002              		.loc 1 877 0
 2003 0052 06B0     		add	sp, sp, #24
 2004              	.LCFI44:
 2005              		.cfi_def_cfa_offset 16
 2006              		@ sp needed
 2007 0054 70BD     		pop	{r4, r5, r6, pc}
 2008              	.L175:
 2009 0056 00BF     		.align	2
 2010              	.L174:
 2011 0058 00380040 		.word	1073756160
 2012 005c 00200240 		.word	1073881088
 2013 0060 00040240 		.word	1073873920
 2014              		.cfi_endproc
 2015              	.LFE157:
 2017              		.section	.text.HAL_SPI_MspDeInit,"ax",%progbits
 2018              		.align	1
 2019              		.global	HAL_SPI_MspDeInit
 2020              		.syntax unified
 2021              		.thumb
 2022              		.thumb_func
 2023              		.fpu fpv5-sp-d16
 2025              	HAL_SPI_MspDeInit:
 2026              	.LFB158:
 880:Src/stm32f7xx_hal_msp.c **** 
 2027              		.loc 1 880 0
 2028              		.cfi_startproc
 2029              		@ args = 0, pretend = 0, frame = 0
 2030              		@ frame_needed = 0, uses_anonymous_args = 0
 2031              	.LVL129:
 2032 0000 08B5     		push	{r3, lr}
 2033              	.LCFI45:
 2034              		.cfi_def_cfa_offset 8
 2035              		.cfi_offset 3, -8
 2036              		.cfi_offset 14, -4
 882:Src/stm32f7xx_hal_msp.c ****   {
 2037              		.loc 1 882 0
 2038 0002 0268     		ldr	r2, [r0]
 2039 0004 094B     		ldr	r3, .L180
 2040 0006 9A42     		cmp	r2, r3
 2041 0008 00D0     		beq	.L179
 2042              	.LVL130:
 2043              	.L176:
 2044 000a 08BD     		pop	{r3, pc}
 2045              	.LVL131:
 2046              	.L179:
 888:Src/stm32f7xx_hal_msp.c ****   
 2047              		.loc 1 888 0
 2048 000c 084A     		ldr	r2, .L180+4
 2049 000e 136C     		ldr	r3, [r2, #64]
 2050 0010 23F48043 		bic	r3, r3, #16384
 2051 0014 1364     		str	r3, [r2, #64]
 895:Src/stm32f7xx_hal_msp.c **** 
 2052              		.loc 1 895 0
 2053 0016 0221     		movs	r1, #2
 2054 0018 0648     		ldr	r0, .L180+8
 2055              	.LVL132:
ARM GAS  C:\Users\Student\AppData\Local\Temp\ccO0FPJj.s 			page 67


 2056 001a FFF7FEFF 		bl	HAL_GPIO_DeInit
 2057              	.LVL133:
 897:Src/stm32f7xx_hal_msp.c **** 
 2058              		.loc 1 897 0
 2059 001e 4FF44041 		mov	r1, #49152
 2060 0022 0548     		ldr	r0, .L180+12
 2061 0024 FFF7FEFF 		bl	HAL_GPIO_DeInit
 2062              	.LVL134:
 904:Src/stm32f7xx_hal_msp.c **** 
 2063              		.loc 1 904 0
 2064 0028 EFE7     		b	.L176
 2065              	.L181:
 2066 002a 00BF     		.align	2
 2067              	.L180:
 2068 002c 00380040 		.word	1073756160
 2069 0030 00380240 		.word	1073887232
 2070 0034 00200240 		.word	1073881088
 2071 0038 00040240 		.word	1073873920
 2072              		.cfi_endproc
 2073              	.LFE158:
 2075              		.section	.text.HAL_TIM_Base_MspInit,"ax",%progbits
 2076              		.align	1
 2077              		.global	HAL_TIM_Base_MspInit
 2078              		.syntax unified
 2079              		.thumb
 2080              		.thumb_func
 2081              		.fpu fpv5-sp-d16
 2083              	HAL_TIM_Base_MspInit:
 2084              	.LFB159:
 907:Src/stm32f7xx_hal_msp.c **** 
 2085              		.loc 1 907 0
 2086              		.cfi_startproc
 2087              		@ args = 0, pretend = 0, frame = 24
 2088              		@ frame_needed = 0, uses_anonymous_args = 0
 2089              		@ link register save eliminated.
 2090              	.LVL135:
 2091 0000 86B0     		sub	sp, sp, #24
 2092              	.LCFI46:
 2093              		.cfi_def_cfa_offset 24
 909:Src/stm32f7xx_hal_msp.c ****   {
 2094              		.loc 1 909 0
 2095 0002 0368     		ldr	r3, [r0]
 2096 0004 2B4A     		ldr	r2, .L196
 2097 0006 9342     		cmp	r3, r2
 2098 0008 10D0     		beq	.L190
 920:Src/stm32f7xx_hal_msp.c ****   {
 2099              		.loc 1 920 0
 2100 000a B3F1804F 		cmp	r3, #1073741824
 2101 000e 18D0     		beq	.L191
 931:Src/stm32f7xx_hal_msp.c ****   {
 2102              		.loc 1 931 0
 2103 0010 294A     		ldr	r2, .L196+4
 2104 0012 9342     		cmp	r3, r2
 2105 0014 21D0     		beq	.L192
 942:Src/stm32f7xx_hal_msp.c ****   {
 2106              		.loc 1 942 0
 2107 0016 294A     		ldr	r2, .L196+8
ARM GAS  C:\Users\Student\AppData\Local\Temp\ccO0FPJj.s 			page 68


 2108 0018 9342     		cmp	r3, r2
 2109 001a 29D0     		beq	.L193
 953:Src/stm32f7xx_hal_msp.c ****   {
 2110              		.loc 1 953 0
 2111 001c 284A     		ldr	r2, .L196+12
 2112 001e 9342     		cmp	r3, r2
 2113 0020 31D0     		beq	.L194
 964:Src/stm32f7xx_hal_msp.c ****   {
 2114              		.loc 1 964 0
 2115 0022 284A     		ldr	r2, .L196+16
 2116 0024 9342     		cmp	r3, r2
 2117 0026 39D0     		beq	.L195
 2118              	.L182:
 976:Src/stm32f7xx_hal_msp.c **** 
 2119              		.loc 1 976 0
 2120 0028 06B0     		add	sp, sp, #24
 2121              	.LCFI47:
 2122              		.cfi_remember_state
 2123              		.cfi_def_cfa_offset 0
 2124              		@ sp needed
 2125 002a 7047     		bx	lr
 2126              	.L190:
 2127              	.LCFI48:
 2128              		.cfi_restore_state
 2129              	.LBB16:
 915:Src/stm32f7xx_hal_msp.c ****   /* USER CODE BEGIN TIM1_MspInit 1 */
 2130              		.loc 1 915 0
 2131 002c 264B     		ldr	r3, .L196+20
 2132 002e 5A6C     		ldr	r2, [r3, #68]
 2133 0030 42F00102 		orr	r2, r2, #1
 2134 0034 5A64     		str	r2, [r3, #68]
 2135 0036 5B6C     		ldr	r3, [r3, #68]
 2136 0038 03F00103 		and	r3, r3, #1
 2137 003c 0093     		str	r3, [sp]
 2138 003e 009B     		ldr	r3, [sp]
 2139              	.LBE16:
 2140 0040 F2E7     		b	.L182
 2141              	.L191:
 2142              	.LBB17:
 926:Src/stm32f7xx_hal_msp.c ****   /* USER CODE BEGIN TIM2_MspInit 1 */
 2143              		.loc 1 926 0
 2144 0042 03F50E33 		add	r3, r3, #145408
 2145 0046 1A6C     		ldr	r2, [r3, #64]
 2146 0048 42F00102 		orr	r2, r2, #1
 2147 004c 1A64     		str	r2, [r3, #64]
 2148 004e 1B6C     		ldr	r3, [r3, #64]
 2149 0050 03F00103 		and	r3, r3, #1
 2150 0054 0193     		str	r3, [sp, #4]
 2151 0056 019B     		ldr	r3, [sp, #4]
 2152              	.LBE17:
 2153 0058 E6E7     		b	.L182
 2154              	.L192:
 2155              	.LBB18:
 937:Src/stm32f7xx_hal_msp.c ****   /* USER CODE BEGIN TIM3_MspInit 1 */
 2156              		.loc 1 937 0
 2157 005a 1B4B     		ldr	r3, .L196+20
 2158 005c 1A6C     		ldr	r2, [r3, #64]
ARM GAS  C:\Users\Student\AppData\Local\Temp\ccO0FPJj.s 			page 69


 2159 005e 42F00202 		orr	r2, r2, #2
 2160 0062 1A64     		str	r2, [r3, #64]
 2161 0064 1B6C     		ldr	r3, [r3, #64]
 2162 0066 03F00203 		and	r3, r3, #2
 2163 006a 0293     		str	r3, [sp, #8]
 2164 006c 029B     		ldr	r3, [sp, #8]
 2165              	.LBE18:
 2166 006e DBE7     		b	.L182
 2167              	.L193:
 2168              	.LBB19:
 948:Src/stm32f7xx_hal_msp.c ****   /* USER CODE BEGIN TIM5_MspInit 1 */
 2169              		.loc 1 948 0
 2170 0070 154B     		ldr	r3, .L196+20
 2171 0072 1A6C     		ldr	r2, [r3, #64]
 2172 0074 42F00802 		orr	r2, r2, #8
 2173 0078 1A64     		str	r2, [r3, #64]
 2174 007a 1B6C     		ldr	r3, [r3, #64]
 2175 007c 03F00803 		and	r3, r3, #8
 2176 0080 0393     		str	r3, [sp, #12]
 2177 0082 039B     		ldr	r3, [sp, #12]
 2178              	.LBE19:
 2179 0084 D0E7     		b	.L182
 2180              	.L194:
 2181              	.LBB20:
 959:Src/stm32f7xx_hal_msp.c ****   /* USER CODE BEGIN TIM7_MspInit 1 */
 2182              		.loc 1 959 0
 2183 0086 104B     		ldr	r3, .L196+20
 2184 0088 1A6C     		ldr	r2, [r3, #64]
 2185 008a 42F02002 		orr	r2, r2, #32
 2186 008e 1A64     		str	r2, [r3, #64]
 2187 0090 1B6C     		ldr	r3, [r3, #64]
 2188 0092 03F02003 		and	r3, r3, #32
 2189 0096 0493     		str	r3, [sp, #16]
 2190 0098 049B     		ldr	r3, [sp, #16]
 2191              	.LBE20:
 2192 009a C5E7     		b	.L182
 2193              	.L195:
 2194              	.LBB21:
 970:Src/stm32f7xx_hal_msp.c ****   /* USER CODE BEGIN TIM8_MspInit 1 */
 2195              		.loc 1 970 0
 2196 009c 0A4B     		ldr	r3, .L196+20
 2197 009e 5A6C     		ldr	r2, [r3, #68]
 2198 00a0 42F00202 		orr	r2, r2, #2
 2199 00a4 5A64     		str	r2, [r3, #68]
 2200 00a6 5B6C     		ldr	r3, [r3, #68]
 2201 00a8 03F00203 		and	r3, r3, #2
 2202 00ac 0593     		str	r3, [sp, #20]
 2203 00ae 059B     		ldr	r3, [sp, #20]
 2204              	.LBE21:
 976:Src/stm32f7xx_hal_msp.c **** 
 2205              		.loc 1 976 0
 2206 00b0 BAE7     		b	.L182
 2207              	.L197:
 2208 00b2 00BF     		.align	2
 2209              	.L196:
 2210 00b4 00000140 		.word	1073807360
 2211 00b8 00040040 		.word	1073742848
ARM GAS  C:\Users\Student\AppData\Local\Temp\ccO0FPJj.s 			page 70


 2212 00bc 000C0040 		.word	1073744896
 2213 00c0 00140040 		.word	1073746944
 2214 00c4 00040140 		.word	1073808384
 2215 00c8 00380240 		.word	1073887232
 2216              		.cfi_endproc
 2217              	.LFE159:
 2219              		.section	.text.HAL_TIM_PWM_MspInit,"ax",%progbits
 2220              		.align	1
 2221              		.global	HAL_TIM_PWM_MspInit
 2222              		.syntax unified
 2223              		.thumb
 2224              		.thumb_func
 2225              		.fpu fpv5-sp-d16
 2227              	HAL_TIM_PWM_MspInit:
 2228              	.LFB160:
 979:Src/stm32f7xx_hal_msp.c **** 
 2229              		.loc 1 979 0
 2230              		.cfi_startproc
 2231              		@ args = 0, pretend = 0, frame = 8
 2232              		@ frame_needed = 0, uses_anonymous_args = 0
 2233              		@ link register save eliminated.
 2234              	.LVL136:
 981:Src/stm32f7xx_hal_msp.c ****   {
 2235              		.loc 1 981 0
 2236 0000 0268     		ldr	r2, [r0]
 2237 0002 094B     		ldr	r3, .L206
 2238 0004 9A42     		cmp	r2, r3
 2239 0006 00D0     		beq	.L205
 2240              	.L204:
 993:Src/stm32f7xx_hal_msp.c **** 
 2241              		.loc 1 993 0
 2242 0008 7047     		bx	lr
 2243              	.L205:
 979:Src/stm32f7xx_hal_msp.c **** 
 2244              		.loc 1 979 0
 2245 000a 82B0     		sub	sp, sp, #8
 2246              	.LCFI49:
 2247              		.cfi_def_cfa_offset 8
 2248              	.LBB22:
 987:Src/stm32f7xx_hal_msp.c ****   /* USER CODE BEGIN TIM12_MspInit 1 */
 2249              		.loc 1 987 0
 2250 000c 03F50833 		add	r3, r3, #139264
 2251 0010 1A6C     		ldr	r2, [r3, #64]
 2252 0012 42F04002 		orr	r2, r2, #64
 2253 0016 1A64     		str	r2, [r3, #64]
 2254 0018 1B6C     		ldr	r3, [r3, #64]
 2255 001a 03F04003 		and	r3, r3, #64
 2256 001e 0193     		str	r3, [sp, #4]
 2257 0020 019B     		ldr	r3, [sp, #4]
 2258              	.LBE22:
 993:Src/stm32f7xx_hal_msp.c **** 
 2259              		.loc 1 993 0
 2260 0022 02B0     		add	sp, sp, #8
 2261              	.LCFI50:
 2262              		.cfi_def_cfa_offset 0
 2263              		@ sp needed
 2264 0024 F0E7     		b	.L204
ARM GAS  C:\Users\Student\AppData\Local\Temp\ccO0FPJj.s 			page 71


 2265              	.L207:
 2266 0026 00BF     		.align	2
 2267              	.L206:
 2268 0028 00180040 		.word	1073747968
 2269              		.cfi_endproc
 2270              	.LFE160:
 2272              		.section	.text.HAL_TIM_MspPostInit,"ax",%progbits
 2273              		.align	1
 2274              		.global	HAL_TIM_MspPostInit
 2275              		.syntax unified
 2276              		.thumb
 2277              		.thumb_func
 2278              		.fpu fpv5-sp-d16
 2280              	HAL_TIM_MspPostInit:
 2281              	.LFB161:
 996:Src/stm32f7xx_hal_msp.c **** 
 2282              		.loc 1 996 0
 2283              		.cfi_startproc
 2284              		@ args = 0, pretend = 0, frame = 24
 2285              		@ frame_needed = 0, uses_anonymous_args = 0
 2286              	.LVL137:
 2287 0000 00B5     		push	{lr}
 2288              	.LCFI51:
 2289              		.cfi_def_cfa_offset 4
 2290              		.cfi_offset 14, -4
 2291 0002 87B0     		sub	sp, sp, #28
 2292              	.LCFI52:
 2293              		.cfi_def_cfa_offset 32
 999:Src/stm32f7xx_hal_msp.c ****   {
 2294              		.loc 1 999 0
 2295 0004 0368     		ldr	r3, [r0]
 2296 0006 2C4A     		ldr	r2, .L220
 2297 0008 9342     		cmp	r3, r2
 2298 000a 0ED0     		beq	.L215
1018:Src/stm32f7xx_hal_msp.c ****   {
 2299              		.loc 1 1018 0
 2300 000c B3F1804F 		cmp	r3, #1073741824
 2301 0010 1AD0     		beq	.L216
1038:Src/stm32f7xx_hal_msp.c ****   {
 2302              		.loc 1 1038 0
 2303 0012 2A4A     		ldr	r2, .L220+4
 2304 0014 9342     		cmp	r3, r2
 2305 0016 26D0     		beq	.L217
1058:Src/stm32f7xx_hal_msp.c ****   {
 2306              		.loc 1 1058 0
 2307 0018 294A     		ldr	r2, .L220+8
 2308 001a 9342     		cmp	r3, r2
 2309 001c 30D0     		beq	.L218
1078:Src/stm32f7xx_hal_msp.c ****   {
 2310              		.loc 1 1078 0
 2311 001e 294A     		ldr	r2, .L220+12
 2312 0020 9342     		cmp	r3, r2
 2313 0022 3AD0     		beq	.L219
 2314              	.LVL138:
 2315              	.L208:
1099:Src/stm32f7xx_hal_msp.c **** 
 2316              		.loc 1 1099 0
ARM GAS  C:\Users\Student\AppData\Local\Temp\ccO0FPJj.s 			page 72


 2317 0024 07B0     		add	sp, sp, #28
 2318              	.LCFI53:
 2319              		.cfi_remember_state
 2320              		.cfi_def_cfa_offset 4
 2321              		@ sp needed
 2322 0026 5DF804FB 		ldr	pc, [sp], #4
 2323              	.LVL139:
 2324              	.L215:
 2325              	.LCFI54:
 2326              		.cfi_restore_state
1007:Src/stm32f7xx_hal_msp.c ****     GPIO_InitStruct.Mode = GPIO_MODE_AF_PP;
 2327              		.loc 1 1007 0
 2328 002a 4FF48073 		mov	r3, #256
 2329 002e 0193     		str	r3, [sp, #4]
1008:Src/stm32f7xx_hal_msp.c ****     GPIO_InitStruct.Pull = GPIO_NOPULL;
 2330              		.loc 1 1008 0
 2331 0030 0223     		movs	r3, #2
 2332 0032 0293     		str	r3, [sp, #8]
1009:Src/stm32f7xx_hal_msp.c ****     GPIO_InitStruct.Speed = GPIO_SPEED_FREQ_LOW;
 2333              		.loc 1 1009 0
 2334 0034 0023     		movs	r3, #0
 2335 0036 0393     		str	r3, [sp, #12]
1010:Src/stm32f7xx_hal_msp.c ****     GPIO_InitStruct.Alternate = GPIO_AF1_TIM1;
 2336              		.loc 1 1010 0
 2337 0038 0493     		str	r3, [sp, #16]
1011:Src/stm32f7xx_hal_msp.c ****     HAL_GPIO_Init(ARDUINO_PWM_D10_GPIO_Port, &GPIO_InitStruct);
 2338              		.loc 1 1011 0
 2339 003a 0123     		movs	r3, #1
 2340 003c 0593     		str	r3, [sp, #20]
1012:Src/stm32f7xx_hal_msp.c **** 
 2341              		.loc 1 1012 0
 2342 003e 01A9     		add	r1, sp, #4
 2343 0040 2148     		ldr	r0, .L220+16
 2344              	.LVL140:
 2345 0042 FFF7FEFF 		bl	HAL_GPIO_Init
 2346              	.LVL141:
 2347 0046 EDE7     		b	.L208
 2348              	.LVL142:
 2349              	.L216:
1027:Src/stm32f7xx_hal_msp.c ****     GPIO_InitStruct.Mode = GPIO_MODE_AF_PP;
 2350              		.loc 1 1027 0
 2351 0048 4FF40043 		mov	r3, #32768
 2352 004c 0193     		str	r3, [sp, #4]
1028:Src/stm32f7xx_hal_msp.c ****     GPIO_InitStruct.Pull = GPIO_NOPULL;
 2353              		.loc 1 1028 0
 2354 004e 0223     		movs	r3, #2
 2355 0050 0293     		str	r3, [sp, #8]
1029:Src/stm32f7xx_hal_msp.c ****     GPIO_InitStruct.Speed = GPIO_SPEED_FREQ_LOW;
 2356              		.loc 1 1029 0
 2357 0052 0023     		movs	r3, #0
 2358 0054 0393     		str	r3, [sp, #12]
1030:Src/stm32f7xx_hal_msp.c ****     GPIO_InitStruct.Alternate = GPIO_AF1_TIM2;
 2359              		.loc 1 1030 0
 2360 0056 0493     		str	r3, [sp, #16]
1031:Src/stm32f7xx_hal_msp.c ****     HAL_GPIO_Init(ARDUINO_PWM_D9_GPIO_Port, &GPIO_InitStruct);
 2361              		.loc 1 1031 0
 2362 0058 0123     		movs	r3, #1
ARM GAS  C:\Users\Student\AppData\Local\Temp\ccO0FPJj.s 			page 73


 2363 005a 0593     		str	r3, [sp, #20]
1032:Src/stm32f7xx_hal_msp.c **** 
 2364              		.loc 1 1032 0
 2365 005c 01A9     		add	r1, sp, #4
 2366 005e 1A48     		ldr	r0, .L220+16
 2367              	.LVL143:
 2368 0060 FFF7FEFF 		bl	HAL_GPIO_Init
 2369              	.LVL144:
 2370 0064 DEE7     		b	.L208
 2371              	.LVL145:
 2372              	.L217:
1047:Src/stm32f7xx_hal_msp.c ****     GPIO_InitStruct.Mode = GPIO_MODE_AF_PP;
 2373              		.loc 1 1047 0
 2374 0066 1023     		movs	r3, #16
 2375 0068 0193     		str	r3, [sp, #4]
1048:Src/stm32f7xx_hal_msp.c ****     GPIO_InitStruct.Pull = GPIO_NOPULL;
 2376              		.loc 1 1048 0
 2377 006a 0223     		movs	r3, #2
 2378 006c 0293     		str	r3, [sp, #8]
1049:Src/stm32f7xx_hal_msp.c ****     GPIO_InitStruct.Speed = GPIO_SPEED_FREQ_LOW;
 2379              		.loc 1 1049 0
 2380 006e 0022     		movs	r2, #0
 2381 0070 0392     		str	r2, [sp, #12]
1050:Src/stm32f7xx_hal_msp.c ****     GPIO_InitStruct.Alternate = GPIO_AF2_TIM3;
 2382              		.loc 1 1050 0
 2383 0072 0492     		str	r2, [sp, #16]
1051:Src/stm32f7xx_hal_msp.c ****     HAL_GPIO_Init(ARDUINO_PWM_D3_GPIO_Port, &GPIO_InitStruct);
 2384              		.loc 1 1051 0
 2385 0074 0593     		str	r3, [sp, #20]
1052:Src/stm32f7xx_hal_msp.c **** 
 2386              		.loc 1 1052 0
 2387 0076 01A9     		add	r1, sp, #4
 2388 0078 1448     		ldr	r0, .L220+20
 2389              	.LVL146:
 2390 007a FFF7FEFF 		bl	HAL_GPIO_Init
 2391              	.LVL147:
 2392 007e D1E7     		b	.L208
 2393              	.LVL148:
 2394              	.L218:
1067:Src/stm32f7xx_hal_msp.c ****     GPIO_InitStruct.Mode = GPIO_MODE_AF_PP;
 2395              		.loc 1 1067 0
 2396 0080 0123     		movs	r3, #1
 2397 0082 0193     		str	r3, [sp, #4]
1068:Src/stm32f7xx_hal_msp.c ****     GPIO_InitStruct.Pull = GPIO_NOPULL;
 2398              		.loc 1 1068 0
 2399 0084 0223     		movs	r3, #2
 2400 0086 0293     		str	r3, [sp, #8]
1069:Src/stm32f7xx_hal_msp.c ****     GPIO_InitStruct.Speed = GPIO_SPEED_FREQ_LOW;
 2401              		.loc 1 1069 0
 2402 0088 0022     		movs	r2, #0
 2403 008a 0392     		str	r2, [sp, #12]
1070:Src/stm32f7xx_hal_msp.c ****     GPIO_InitStruct.Alternate = GPIO_AF2_TIM5;
 2404              		.loc 1 1070 0
 2405 008c 0492     		str	r2, [sp, #16]
1071:Src/stm32f7xx_hal_msp.c ****     HAL_GPIO_Init(ARDUINO_PWM_CS_D5_GPIO_Port, &GPIO_InitStruct);
 2406              		.loc 1 1071 0
 2407 008e 0593     		str	r3, [sp, #20]
ARM GAS  C:\Users\Student\AppData\Local\Temp\ccO0FPJj.s 			page 74


1072:Src/stm32f7xx_hal_msp.c **** 
 2408              		.loc 1 1072 0
 2409 0090 01A9     		add	r1, sp, #4
 2410 0092 0F48     		ldr	r0, .L220+24
 2411              	.LVL149:
 2412 0094 FFF7FEFF 		bl	HAL_GPIO_Init
 2413              	.LVL150:
 2414 0098 C4E7     		b	.L208
 2415              	.LVL151:
 2416              	.L219:
1087:Src/stm32f7xx_hal_msp.c ****     GPIO_InitStruct.Mode = GPIO_MODE_AF_PP;
 2417              		.loc 1 1087 0
 2418 009a 4023     		movs	r3, #64
 2419 009c 0193     		str	r3, [sp, #4]
1088:Src/stm32f7xx_hal_msp.c ****     GPIO_InitStruct.Pull = GPIO_NOPULL;
 2420              		.loc 1 1088 0
 2421 009e 0223     		movs	r3, #2
 2422 00a0 0293     		str	r3, [sp, #8]
1089:Src/stm32f7xx_hal_msp.c ****     GPIO_InitStruct.Speed = GPIO_SPEED_FREQ_LOW;
 2423              		.loc 1 1089 0
 2424 00a2 0023     		movs	r3, #0
 2425 00a4 0393     		str	r3, [sp, #12]
1090:Src/stm32f7xx_hal_msp.c ****     GPIO_InitStruct.Alternate = GPIO_AF9_TIM12;
 2426              		.loc 1 1090 0
 2427 00a6 0493     		str	r3, [sp, #16]
1091:Src/stm32f7xx_hal_msp.c ****     HAL_GPIO_Init(ARDUINO_PWM_D6_GPIO_Port, &GPIO_InitStruct);
 2428              		.loc 1 1091 0
 2429 00a8 0923     		movs	r3, #9
 2430 00aa 0593     		str	r3, [sp, #20]
1092:Src/stm32f7xx_hal_msp.c **** 
 2431              		.loc 1 1092 0
 2432 00ac 01A9     		add	r1, sp, #4
 2433 00ae 0948     		ldr	r0, .L220+28
 2434              	.LVL152:
 2435 00b0 FFF7FEFF 		bl	HAL_GPIO_Init
 2436              	.LVL153:
1099:Src/stm32f7xx_hal_msp.c **** 
 2437              		.loc 1 1099 0
 2438 00b4 B6E7     		b	.L208
 2439              	.L221:
 2440 00b6 00BF     		.align	2
 2441              	.L220:
 2442 00b8 00000140 		.word	1073807360
 2443 00bc 00040040 		.word	1073742848
 2444 00c0 000C0040 		.word	1073744896
 2445 00c4 00180040 		.word	1073747968
 2446 00c8 00000240 		.word	1073872896
 2447 00cc 00040240 		.word	1073873920
 2448 00d0 00200240 		.word	1073881088
 2449 00d4 001C0240 		.word	1073880064
 2450              		.cfi_endproc
 2451              	.LFE161:
 2453              		.section	.text.HAL_TIM_Base_MspDeInit,"ax",%progbits
 2454              		.align	1
 2455              		.global	HAL_TIM_Base_MspDeInit
 2456              		.syntax unified
 2457              		.thumb
ARM GAS  C:\Users\Student\AppData\Local\Temp\ccO0FPJj.s 			page 75


 2458              		.thumb_func
 2459              		.fpu fpv5-sp-d16
 2461              	HAL_TIM_Base_MspDeInit:
 2462              	.LFB162:
1102:Src/stm32f7xx_hal_msp.c **** 
 2463              		.loc 1 1102 0
 2464              		.cfi_startproc
 2465              		@ args = 0, pretend = 0, frame = 0
 2466              		@ frame_needed = 0, uses_anonymous_args = 0
 2467              		@ link register save eliminated.
 2468              	.LVL154:
1104:Src/stm32f7xx_hal_msp.c ****   {
 2469              		.loc 1 1104 0
 2470 0000 0368     		ldr	r3, [r0]
 2471 0002 1E4A     		ldr	r2, .L235
 2472 0004 9342     		cmp	r3, r2
 2473 0006 0FD0     		beq	.L229
1115:Src/stm32f7xx_hal_msp.c ****   {
 2474              		.loc 1 1115 0
 2475 0008 B3F1804F 		cmp	r3, #1073741824
 2476 000c 13D0     		beq	.L230
1126:Src/stm32f7xx_hal_msp.c ****   {
 2477              		.loc 1 1126 0
 2478 000e 1C4A     		ldr	r2, .L235+4
 2479 0010 9342     		cmp	r3, r2
 2480 0012 16D0     		beq	.L231
1137:Src/stm32f7xx_hal_msp.c ****   {
 2481              		.loc 1 1137 0
 2482 0014 1B4A     		ldr	r2, .L235+8
 2483 0016 9342     		cmp	r3, r2
 2484 0018 1AD0     		beq	.L232
1148:Src/stm32f7xx_hal_msp.c ****   {
 2485              		.loc 1 1148 0
 2486 001a 1B4A     		ldr	r2, .L235+12
 2487 001c 9342     		cmp	r3, r2
 2488 001e 1ED0     		beq	.L233
1159:Src/stm32f7xx_hal_msp.c ****   {
 2489              		.loc 1 1159 0
 2490 0020 1A4A     		ldr	r2, .L235+16
 2491 0022 9342     		cmp	r3, r2
 2492 0024 22D0     		beq	.L234
 2493              	.L222:
 2494 0026 7047     		bx	lr
 2495              	.L229:
1110:Src/stm32f7xx_hal_msp.c ****   /* USER CODE BEGIN TIM1_MspDeInit 1 */
 2496              		.loc 1 1110 0
 2497 0028 02F59C32 		add	r2, r2, #79872
 2498 002c 536C     		ldr	r3, [r2, #68]
 2499 002e 23F00103 		bic	r3, r3, #1
 2500 0032 5364     		str	r3, [r2, #68]
 2501 0034 7047     		bx	lr
 2502              	.L230:
1121:Src/stm32f7xx_hal_msp.c ****   /* USER CODE BEGIN TIM2_MspDeInit 1 */
 2503              		.loc 1 1121 0
 2504 0036 164A     		ldr	r2, .L235+20
 2505 0038 136C     		ldr	r3, [r2, #64]
 2506 003a 23F00103 		bic	r3, r3, #1
ARM GAS  C:\Users\Student\AppData\Local\Temp\ccO0FPJj.s 			page 76


 2507 003e 1364     		str	r3, [r2, #64]
 2508 0040 7047     		bx	lr
 2509              	.L231:
1132:Src/stm32f7xx_hal_msp.c ****   /* USER CODE BEGIN TIM3_MspDeInit 1 */
 2510              		.loc 1 1132 0
 2511 0042 02F50D32 		add	r2, r2, #144384
 2512 0046 136C     		ldr	r3, [r2, #64]
 2513 0048 23F00203 		bic	r3, r3, #2
 2514 004c 1364     		str	r3, [r2, #64]
 2515 004e 7047     		bx	lr
 2516              	.L232:
1143:Src/stm32f7xx_hal_msp.c ****   /* USER CODE BEGIN TIM5_MspDeInit 1 */
 2517              		.loc 1 1143 0
 2518 0050 02F50B32 		add	r2, r2, #142336
 2519 0054 136C     		ldr	r3, [r2, #64]
 2520 0056 23F00803 		bic	r3, r3, #8
 2521 005a 1364     		str	r3, [r2, #64]
 2522 005c 7047     		bx	lr
 2523              	.L233:
1154:Src/stm32f7xx_hal_msp.c ****   /* USER CODE BEGIN TIM7_MspDeInit 1 */
 2524              		.loc 1 1154 0
 2525 005e 02F50932 		add	r2, r2, #140288
 2526 0062 136C     		ldr	r3, [r2, #64]
 2527 0064 23F02003 		bic	r3, r3, #32
 2528 0068 1364     		str	r3, [r2, #64]
 2529 006a 7047     		bx	lr
 2530              	.L234:
1165:Src/stm32f7xx_hal_msp.c ****   /* USER CODE BEGIN TIM8_MspDeInit 1 */
 2531              		.loc 1 1165 0
 2532 006c 02F59A32 		add	r2, r2, #78848
 2533 0070 536C     		ldr	r3, [r2, #68]
 2534 0072 23F00203 		bic	r3, r3, #2
 2535 0076 5364     		str	r3, [r2, #68]
1171:Src/stm32f7xx_hal_msp.c **** 
 2536              		.loc 1 1171 0
 2537 0078 D5E7     		b	.L222
 2538              	.L236:
 2539 007a 00BF     		.align	2
 2540              	.L235:
 2541 007c 00000140 		.word	1073807360
 2542 0080 00040040 		.word	1073742848
 2543 0084 000C0040 		.word	1073744896
 2544 0088 00140040 		.word	1073746944
 2545 008c 00040140 		.word	1073808384
 2546 0090 00380240 		.word	1073887232
 2547              		.cfi_endproc
 2548              	.LFE162:
 2550              		.section	.text.HAL_TIM_PWM_MspDeInit,"ax",%progbits
 2551              		.align	1
 2552              		.global	HAL_TIM_PWM_MspDeInit
 2553              		.syntax unified
 2554              		.thumb
 2555              		.thumb_func
 2556              		.fpu fpv5-sp-d16
 2558              	HAL_TIM_PWM_MspDeInit:
 2559              	.LFB163:
1174:Src/stm32f7xx_hal_msp.c **** 
ARM GAS  C:\Users\Student\AppData\Local\Temp\ccO0FPJj.s 			page 77


 2560              		.loc 1 1174 0
 2561              		.cfi_startproc
 2562              		@ args = 0, pretend = 0, frame = 0
 2563              		@ frame_needed = 0, uses_anonymous_args = 0
 2564              		@ link register save eliminated.
 2565              	.LVL155:
1176:Src/stm32f7xx_hal_msp.c ****   {
 2566              		.loc 1 1176 0
 2567 0000 0268     		ldr	r2, [r0]
 2568 0002 054B     		ldr	r3, .L240
 2569 0004 9A42     		cmp	r2, r3
 2570 0006 00D0     		beq	.L239
 2571              	.L237:
 2572 0008 7047     		bx	lr
 2573              	.L239:
1182:Src/stm32f7xx_hal_msp.c ****   /* USER CODE BEGIN TIM12_MspDeInit 1 */
 2574              		.loc 1 1182 0
 2575 000a 044A     		ldr	r2, .L240+4
 2576 000c 136C     		ldr	r3, [r2, #64]
 2577 000e 23F04003 		bic	r3, r3, #64
 2578 0012 1364     		str	r3, [r2, #64]
1188:Src/stm32f7xx_hal_msp.c **** 
 2579              		.loc 1 1188 0
 2580 0014 F8E7     		b	.L237
 2581              	.L241:
 2582 0016 00BF     		.align	2
 2583              	.L240:
 2584 0018 00180040 		.word	1073747968
 2585 001c 00380240 		.word	1073887232
 2586              		.cfi_endproc
 2587              	.LFE163:
 2589              		.section	.text.HAL_UART_MspInit,"ax",%progbits
 2590              		.align	1
 2591              		.global	HAL_UART_MspInit
 2592              		.syntax unified
 2593              		.thumb
 2594              		.thumb_func
 2595              		.fpu fpv5-sp-d16
 2597              	HAL_UART_MspInit:
 2598              	.LFB164:
1191:Src/stm32f7xx_hal_msp.c **** 
 2599              		.loc 1 1191 0
 2600              		.cfi_startproc
 2601              		@ args = 0, pretend = 0, frame = 32
 2602              		@ frame_needed = 0, uses_anonymous_args = 0
 2603              	.LVL156:
 2604 0000 70B5     		push	{r4, r5, r6, lr}
 2605              	.LCFI55:
 2606              		.cfi_def_cfa_offset 16
 2607              		.cfi_offset 4, -16
 2608              		.cfi_offset 5, -12
 2609              		.cfi_offset 6, -8
 2610              		.cfi_offset 14, -4
 2611 0002 88B0     		sub	sp, sp, #32
 2612              	.LCFI56:
 2613              		.cfi_def_cfa_offset 48
1194:Src/stm32f7xx_hal_msp.c ****   {
ARM GAS  C:\Users\Student\AppData\Local\Temp\ccO0FPJj.s 			page 78


 2614              		.loc 1 1194 0
 2615 0004 0368     		ldr	r3, [r0]
 2616 0006 224A     		ldr	r2, .L248
 2617 0008 9342     		cmp	r3, r2
 2618 000a 04D0     		beq	.L246
1224:Src/stm32f7xx_hal_msp.c ****   {
 2619              		.loc 1 1224 0
 2620 000c 214A     		ldr	r2, .L248+4
 2621 000e 9342     		cmp	r3, r2
 2622 0010 24D0     		beq	.L247
 2623              	.LVL157:
 2624              	.L242:
1248:Src/stm32f7xx_hal_msp.c **** 
 2625              		.loc 1 1248 0
 2626 0012 08B0     		add	sp, sp, #32
 2627              	.LCFI57:
 2628              		.cfi_remember_state
 2629              		.cfi_def_cfa_offset 16
 2630              		@ sp needed
 2631 0014 70BD     		pop	{r4, r5, r6, pc}
 2632              	.LVL158:
 2633              	.L246:
 2634              	.LCFI58:
 2635              		.cfi_restore_state
 2636              	.LBB23:
1200:Src/stm32f7xx_hal_msp.c ****   
 2637              		.loc 1 1200 0
 2638 0016 204B     		ldr	r3, .L248+8
 2639 0018 5A6C     		ldr	r2, [r3, #68]
 2640 001a 42F01002 		orr	r2, r2, #16
 2641 001e 5A64     		str	r2, [r3, #68]
 2642 0020 5B6C     		ldr	r3, [r3, #68]
 2643 0022 03F01003 		and	r3, r3, #16
 2644 0026 0193     		str	r3, [sp, #4]
 2645 0028 019B     		ldr	r3, [sp, #4]
 2646              	.LBE23:
1206:Src/stm32f7xx_hal_msp.c ****     GPIO_InitStruct.Mode = GPIO_MODE_AF_PP;
 2647              		.loc 1 1206 0
 2648 002a 8023     		movs	r3, #128
 2649 002c 0393     		str	r3, [sp, #12]
1207:Src/stm32f7xx_hal_msp.c ****     GPIO_InitStruct.Pull = GPIO_NOPULL;
 2650              		.loc 1 1207 0
 2651 002e 0226     		movs	r6, #2
 2652 0030 0496     		str	r6, [sp, #16]
1208:Src/stm32f7xx_hal_msp.c ****     GPIO_InitStruct.Speed = GPIO_SPEED_FREQ_LOW;
 2653              		.loc 1 1208 0
 2654 0032 0024     		movs	r4, #0
 2655 0034 0594     		str	r4, [sp, #20]
1209:Src/stm32f7xx_hal_msp.c ****     GPIO_InitStruct.Alternate = GPIO_AF7_USART1;
 2656              		.loc 1 1209 0
 2657 0036 0694     		str	r4, [sp, #24]
1210:Src/stm32f7xx_hal_msp.c ****     HAL_GPIO_Init(VCP_RX_GPIO_Port, &GPIO_InitStruct);
 2658              		.loc 1 1210 0
 2659 0038 0725     		movs	r5, #7
 2660 003a 0795     		str	r5, [sp, #28]
1211:Src/stm32f7xx_hal_msp.c **** 
 2661              		.loc 1 1211 0
ARM GAS  C:\Users\Student\AppData\Local\Temp\ccO0FPJj.s 			page 79


 2662 003c 03A9     		add	r1, sp, #12
 2663 003e 1748     		ldr	r0, .L248+12
 2664              	.LVL159:
 2665 0040 FFF7FEFF 		bl	HAL_GPIO_Init
 2666              	.LVL160:
1213:Src/stm32f7xx_hal_msp.c ****     GPIO_InitStruct.Mode = GPIO_MODE_AF_PP;
 2667              		.loc 1 1213 0
 2668 0044 4FF40073 		mov	r3, #512
 2669 0048 0393     		str	r3, [sp, #12]
1214:Src/stm32f7xx_hal_msp.c ****     GPIO_InitStruct.Pull = GPIO_NOPULL;
 2670              		.loc 1 1214 0
 2671 004a 0496     		str	r6, [sp, #16]
1215:Src/stm32f7xx_hal_msp.c ****     GPIO_InitStruct.Speed = GPIO_SPEED_FREQ_LOW;
 2672              		.loc 1 1215 0
 2673 004c 0594     		str	r4, [sp, #20]
1216:Src/stm32f7xx_hal_msp.c ****     GPIO_InitStruct.Alternate = GPIO_AF7_USART1;
 2674              		.loc 1 1216 0
 2675 004e 0694     		str	r4, [sp, #24]
1217:Src/stm32f7xx_hal_msp.c ****     HAL_GPIO_Init(VCP_TX_GPIO_Port, &GPIO_InitStruct);
 2676              		.loc 1 1217 0
 2677 0050 0795     		str	r5, [sp, #28]
1218:Src/stm32f7xx_hal_msp.c **** 
 2678              		.loc 1 1218 0
 2679 0052 03A9     		add	r1, sp, #12
 2680 0054 1248     		ldr	r0, .L248+16
 2681 0056 FFF7FEFF 		bl	HAL_GPIO_Init
 2682              	.LVL161:
 2683 005a DAE7     		b	.L242
 2684              	.LVL162:
 2685              	.L247:
 2686              	.LBB24:
1230:Src/stm32f7xx_hal_msp.c ****   
 2687              		.loc 1 1230 0
 2688 005c 0E4B     		ldr	r3, .L248+8
 2689 005e 5A6C     		ldr	r2, [r3, #68]
 2690 0060 42F02002 		orr	r2, r2, #32
 2691 0064 5A64     		str	r2, [r3, #68]
 2692 0066 5B6C     		ldr	r3, [r3, #68]
 2693 0068 03F02003 		and	r3, r3, #32
 2694 006c 0293     		str	r3, [sp, #8]
 2695 006e 029B     		ldr	r3, [sp, #8]
 2696              	.LBE24:
1236:Src/stm32f7xx_hal_msp.c ****     GPIO_InitStruct.Mode = GPIO_MODE_AF_PP;
 2697              		.loc 1 1236 0
 2698 0070 C023     		movs	r3, #192
 2699 0072 0393     		str	r3, [sp, #12]
1237:Src/stm32f7xx_hal_msp.c ****     GPIO_InitStruct.Pull = GPIO_NOPULL;
 2700              		.loc 1 1237 0
 2701 0074 0223     		movs	r3, #2
 2702 0076 0493     		str	r3, [sp, #16]
1238:Src/stm32f7xx_hal_msp.c ****     GPIO_InitStruct.Speed = GPIO_SPEED_FREQ_VERY_HIGH;
 2703              		.loc 1 1238 0
 2704 0078 0023     		movs	r3, #0
 2705 007a 0593     		str	r3, [sp, #20]
1239:Src/stm32f7xx_hal_msp.c ****     GPIO_InitStruct.Alternate = GPIO_AF8_USART6;
 2706              		.loc 1 1239 0
 2707 007c 0323     		movs	r3, #3
ARM GAS  C:\Users\Student\AppData\Local\Temp\ccO0FPJj.s 			page 80


 2708 007e 0693     		str	r3, [sp, #24]
1240:Src/stm32f7xx_hal_msp.c ****     HAL_GPIO_Init(GPIOC, &GPIO_InitStruct);
 2709              		.loc 1 1240 0
 2710 0080 0823     		movs	r3, #8
 2711 0082 0793     		str	r3, [sp, #28]
1241:Src/stm32f7xx_hal_msp.c **** 
 2712              		.loc 1 1241 0
 2713 0084 03A9     		add	r1, sp, #12
 2714 0086 0748     		ldr	r0, .L248+20
 2715              	.LVL163:
 2716 0088 FFF7FEFF 		bl	HAL_GPIO_Init
 2717              	.LVL164:
1248:Src/stm32f7xx_hal_msp.c **** 
 2718              		.loc 1 1248 0
 2719 008c C1E7     		b	.L242
 2720              	.L249:
 2721 008e 00BF     		.align	2
 2722              	.L248:
 2723 0090 00100140 		.word	1073811456
 2724 0094 00140140 		.word	1073812480
 2725 0098 00380240 		.word	1073887232
 2726 009c 00040240 		.word	1073873920
 2727 00a0 00000240 		.word	1073872896
 2728 00a4 00080240 		.word	1073874944
 2729              		.cfi_endproc
 2730              	.LFE164:
 2732              		.section	.text.HAL_UART_MspDeInit,"ax",%progbits
 2733              		.align	1
 2734              		.global	HAL_UART_MspDeInit
 2735              		.syntax unified
 2736              		.thumb
 2737              		.thumb_func
 2738              		.fpu fpv5-sp-d16
 2740              	HAL_UART_MspDeInit:
 2741              	.LFB165:
1251:Src/stm32f7xx_hal_msp.c **** 
 2742              		.loc 1 1251 0
 2743              		.cfi_startproc
 2744              		@ args = 0, pretend = 0, frame = 0
 2745              		@ frame_needed = 0, uses_anonymous_args = 0
 2746              	.LVL165:
 2747 0000 08B5     		push	{r3, lr}
 2748              	.LCFI59:
 2749              		.cfi_def_cfa_offset 8
 2750              		.cfi_offset 3, -8
 2751              		.cfi_offset 14, -4
1253:Src/stm32f7xx_hal_msp.c ****   {
 2752              		.loc 1 1253 0
 2753 0002 0368     		ldr	r3, [r0]
 2754 0004 104A     		ldr	r2, .L256
 2755 0006 9342     		cmp	r3, r2
 2756 0008 03D0     		beq	.L254
1273:Src/stm32f7xx_hal_msp.c ****   {
 2757              		.loc 1 1273 0
 2758 000a 104A     		ldr	r2, .L256+4
 2759 000c 9342     		cmp	r3, r2
 2760 000e 10D0     		beq	.L255
ARM GAS  C:\Users\Student\AppData\Local\Temp\ccO0FPJj.s 			page 81


 2761              	.LVL166:
 2762              	.L250:
 2763 0010 08BD     		pop	{r3, pc}
 2764              	.LVL167:
 2765              	.L254:
1259:Src/stm32f7xx_hal_msp.c ****   
 2766              		.loc 1 1259 0
 2767 0012 02F59432 		add	r2, r2, #75776
 2768 0016 536C     		ldr	r3, [r2, #68]
 2769 0018 23F01003 		bic	r3, r3, #16
 2770 001c 5364     		str	r3, [r2, #68]
1265:Src/stm32f7xx_hal_msp.c **** 
 2771              		.loc 1 1265 0
 2772 001e 8021     		movs	r1, #128
 2773 0020 0B48     		ldr	r0, .L256+8
 2774              	.LVL168:
 2775 0022 FFF7FEFF 		bl	HAL_GPIO_DeInit
 2776              	.LVL169:
1267:Src/stm32f7xx_hal_msp.c **** 
 2777              		.loc 1 1267 0
 2778 0026 4FF40071 		mov	r1, #512
 2779 002a 0A48     		ldr	r0, .L256+12
 2780 002c FFF7FEFF 		bl	HAL_GPIO_DeInit
 2781              	.LVL170:
 2782 0030 08BD     		pop	{r3, pc}
 2783              	.LVL171:
 2784              	.L255:
1279:Src/stm32f7xx_hal_msp.c ****   
 2785              		.loc 1 1279 0
 2786 0032 02F59232 		add	r2, r2, #74752
 2787 0036 536C     		ldr	r3, [r2, #68]
 2788 0038 23F02003 		bic	r3, r3, #32
 2789 003c 5364     		str	r3, [r2, #68]
1285:Src/stm32f7xx_hal_msp.c **** 
 2790              		.loc 1 1285 0
 2791 003e C021     		movs	r1, #192
 2792 0040 0548     		ldr	r0, .L256+16
 2793              	.LVL172:
 2794 0042 FFF7FEFF 		bl	HAL_GPIO_DeInit
 2795              	.LVL173:
1292:Src/stm32f7xx_hal_msp.c **** 
 2796              		.loc 1 1292 0
 2797 0046 E3E7     		b	.L250
 2798              	.L257:
 2799              		.align	2
 2800              	.L256:
 2801 0048 00100140 		.word	1073811456
 2802 004c 00140140 		.word	1073812480
 2803 0050 00040240 		.word	1073873920
 2804 0054 00000240 		.word	1073872896
 2805 0058 00080240 		.word	1073874944
 2806              		.cfi_endproc
 2807              	.LFE165:
 2809              		.section	.text.HAL_SDRAM_MspInit,"ax",%progbits
 2810              		.align	1
 2811              		.global	HAL_SDRAM_MspInit
 2812              		.syntax unified
ARM GAS  C:\Users\Student\AppData\Local\Temp\ccO0FPJj.s 			page 82


 2813              		.thumb
 2814              		.thumb_func
 2815              		.fpu fpv5-sp-d16
 2817              	HAL_SDRAM_MspInit:
 2818              	.LFB167:
1401:Src/stm32f7xx_hal_msp.c ****   /* USER CODE BEGIN SDRAM_MspInit 0 */
 2819              		.loc 1 1401 0
 2820              		.cfi_startproc
 2821              		@ args = 0, pretend = 0, frame = 0
 2822              		@ frame_needed = 0, uses_anonymous_args = 0
 2823              	.LVL174:
 2824 0000 08B5     		push	{r3, lr}
 2825              	.LCFI60:
 2826              		.cfi_def_cfa_offset 8
 2827              		.cfi_offset 3, -8
 2828              		.cfi_offset 14, -4
1405:Src/stm32f7xx_hal_msp.c ****   /* USER CODE BEGIN SDRAM_MspInit 1 */
 2829              		.loc 1 1405 0
 2830 0002 FFF7FEFF 		bl	HAL_FMC_MspInit
 2831              	.LVL175:
 2832 0006 08BD     		pop	{r3, pc}
 2833              		.cfi_endproc
 2834              	.LFE167:
 2836              		.section	.text.HAL_SDRAM_MspDeInit,"ax",%progbits
 2837              		.align	1
 2838              		.global	HAL_SDRAM_MspDeInit
 2839              		.syntax unified
 2840              		.thumb
 2841              		.thumb_func
 2842              		.fpu fpv5-sp-d16
 2844              	HAL_SDRAM_MspDeInit:
 2845              	.LFB169:
1481:Src/stm32f7xx_hal_msp.c **** 
1482:Src/stm32f7xx_hal_msp.c ****   /* USER CODE BEGIN FMC_MspDeInit 1 */
1483:Src/stm32f7xx_hal_msp.c **** 
1484:Src/stm32f7xx_hal_msp.c ****   /* USER CODE END FMC_MspDeInit 1 */
1485:Src/stm32f7xx_hal_msp.c **** }
1486:Src/stm32f7xx_hal_msp.c **** 
1487:Src/stm32f7xx_hal_msp.c **** void HAL_SDRAM_MspDeInit(SDRAM_HandleTypeDef* hsdram){
 2846              		.loc 1 1487 0
 2847              		.cfi_startproc
 2848              		@ args = 0, pretend = 0, frame = 0
 2849              		@ frame_needed = 0, uses_anonymous_args = 0
 2850              	.LVL176:
 2851 0000 08B5     		push	{r3, lr}
 2852              	.LCFI61:
 2853              		.cfi_def_cfa_offset 8
 2854              		.cfi_offset 3, -8
 2855              		.cfi_offset 14, -4
1488:Src/stm32f7xx_hal_msp.c ****   /* USER CODE BEGIN SDRAM_MspDeInit 0 */
1489:Src/stm32f7xx_hal_msp.c **** 
1490:Src/stm32f7xx_hal_msp.c ****   /* USER CODE END SDRAM_MspDeInit 0 */
1491:Src/stm32f7xx_hal_msp.c ****   HAL_FMC_MspDeInit();
 2856              		.loc 1 1491 0
 2857 0002 FFF7FEFF 		bl	HAL_FMC_MspDeInit
 2858              	.LVL177:
 2859 0006 08BD     		pop	{r3, pc}
ARM GAS  C:\Users\Student\AppData\Local\Temp\ccO0FPJj.s 			page 83


 2860              		.cfi_endproc
 2861              	.LFE169:
 2863              		.section	.text.HAL_SAI_MspInit,"ax",%progbits
 2864              		.align	1
 2865              		.global	HAL_SAI_MspInit
 2866              		.syntax unified
 2867              		.thumb
 2868              		.thumb_func
 2869              		.fpu fpv5-sp-d16
 2871              	HAL_SAI_MspInit:
 2872              	.LFB170:
1492:Src/stm32f7xx_hal_msp.c ****   /* USER CODE BEGIN SDRAM_MspDeInit 1 */
1493:Src/stm32f7xx_hal_msp.c **** 
1494:Src/stm32f7xx_hal_msp.c ****   /* USER CODE END SDRAM_MspDeInit 1 */
1495:Src/stm32f7xx_hal_msp.c **** }
1496:Src/stm32f7xx_hal_msp.c **** 
1497:Src/stm32f7xx_hal_msp.c **** static uint32_t SAI2_client =0;
1498:Src/stm32f7xx_hal_msp.c **** 
1499:Src/stm32f7xx_hal_msp.c **** void HAL_SAI_MspInit(SAI_HandleTypeDef* hsai)
1500:Src/stm32f7xx_hal_msp.c **** {
 2873              		.loc 1 1500 0
 2874              		.cfi_startproc
 2875              		@ args = 0, pretend = 0, frame = 32
 2876              		@ frame_needed = 0, uses_anonymous_args = 0
 2877              	.LVL178:
 2878 0000 10B5     		push	{r4, lr}
 2879              	.LCFI62:
 2880              		.cfi_def_cfa_offset 8
 2881              		.cfi_offset 4, -8
 2882              		.cfi_offset 14, -4
 2883 0002 88B0     		sub	sp, sp, #32
 2884              	.LCFI63:
 2885              		.cfi_def_cfa_offset 40
 2886 0004 0446     		mov	r4, r0
1501:Src/stm32f7xx_hal_msp.c **** 
1502:Src/stm32f7xx_hal_msp.c ****   GPIO_InitTypeDef GPIO_InitStruct;
1503:Src/stm32f7xx_hal_msp.c **** /* SAI2 */
1504:Src/stm32f7xx_hal_msp.c ****     if(hsai->Instance==SAI2_Block_A)
 2887              		.loc 1 1504 0
 2888 0006 0268     		ldr	r2, [r0]
 2889 0008 224B     		ldr	r3, .L270
 2890 000a 9A42     		cmp	r2, r3
 2891 000c 05D0     		beq	.L268
 2892              	.LVL179:
 2893              	.L263:
1505:Src/stm32f7xx_hal_msp.c ****     {
1506:Src/stm32f7xx_hal_msp.c ****     /* Peripheral clock enable */
1507:Src/stm32f7xx_hal_msp.c ****     if (SAI2_client == 0)
1508:Src/stm32f7xx_hal_msp.c ****     {
1509:Src/stm32f7xx_hal_msp.c ****        __HAL_RCC_SAI2_CLK_ENABLE();
1510:Src/stm32f7xx_hal_msp.c ****     }
1511:Src/stm32f7xx_hal_msp.c ****     SAI2_client ++;
1512:Src/stm32f7xx_hal_msp.c ****     
1513:Src/stm32f7xx_hal_msp.c ****     /**SAI2_A_Block_A GPIO Configuration    
1514:Src/stm32f7xx_hal_msp.c ****     PI4     ------> SAI2_MCLK_A
1515:Src/stm32f7xx_hal_msp.c ****     PI5     ------> SAI2_SCK_A
1516:Src/stm32f7xx_hal_msp.c ****     PI7     ------> SAI2_FS_A
ARM GAS  C:\Users\Student\AppData\Local\Temp\ccO0FPJj.s 			page 84


1517:Src/stm32f7xx_hal_msp.c ****     PI6     ------> SAI2_SD_A 
1518:Src/stm32f7xx_hal_msp.c ****     */
1519:Src/stm32f7xx_hal_msp.c ****     GPIO_InitStruct.Pin = SAI2_MCLKA_Pin|SAI2_SCKA_Pin|SAI2_FSA_Pin|SAI2_SDA_Pin;
1520:Src/stm32f7xx_hal_msp.c ****     GPIO_InitStruct.Mode = GPIO_MODE_AF_PP;
1521:Src/stm32f7xx_hal_msp.c ****     GPIO_InitStruct.Pull = GPIO_NOPULL;
1522:Src/stm32f7xx_hal_msp.c ****     GPIO_InitStruct.Speed = GPIO_SPEED_FREQ_LOW;
1523:Src/stm32f7xx_hal_msp.c ****     GPIO_InitStruct.Alternate = GPIO_AF10_SAI2;
1524:Src/stm32f7xx_hal_msp.c ****     HAL_GPIO_Init(GPIOI, &GPIO_InitStruct);
1525:Src/stm32f7xx_hal_msp.c **** 
1526:Src/stm32f7xx_hal_msp.c ****     }
1527:Src/stm32f7xx_hal_msp.c ****     if(hsai->Instance==SAI2_Block_B)
 2894              		.loc 1 1527 0
 2895 000e 2268     		ldr	r2, [r4]
 2896 0010 214B     		ldr	r3, .L270+4
 2897 0012 9A42     		cmp	r2, r3
 2898 0014 1FD0     		beq	.L269
 2899              	.L262:
1528:Src/stm32f7xx_hal_msp.c ****     {
1529:Src/stm32f7xx_hal_msp.c ****       /* Peripheral clock enable */
1530:Src/stm32f7xx_hal_msp.c ****       if (SAI2_client == 0)
1531:Src/stm32f7xx_hal_msp.c ****       {
1532:Src/stm32f7xx_hal_msp.c ****        __HAL_RCC_SAI2_CLK_ENABLE();
1533:Src/stm32f7xx_hal_msp.c ****       }
1534:Src/stm32f7xx_hal_msp.c ****     SAI2_client ++;
1535:Src/stm32f7xx_hal_msp.c ****     
1536:Src/stm32f7xx_hal_msp.c ****     /**SAI2_B_Block_B GPIO Configuration    
1537:Src/stm32f7xx_hal_msp.c ****     PG10     ------> SAI2_SD_B 
1538:Src/stm32f7xx_hal_msp.c ****     */
1539:Src/stm32f7xx_hal_msp.c ****     GPIO_InitStruct.Pin = SAI2_SDB_Pin;
1540:Src/stm32f7xx_hal_msp.c ****     GPIO_InitStruct.Mode = GPIO_MODE_AF_PP;
1541:Src/stm32f7xx_hal_msp.c ****     GPIO_InitStruct.Pull = GPIO_NOPULL;
1542:Src/stm32f7xx_hal_msp.c ****     GPIO_InitStruct.Speed = GPIO_SPEED_FREQ_LOW;
1543:Src/stm32f7xx_hal_msp.c ****     GPIO_InitStruct.Alternate = GPIO_AF10_SAI2;
1544:Src/stm32f7xx_hal_msp.c ****     HAL_GPIO_Init(SAI2_SDB_GPIO_Port, &GPIO_InitStruct);
1545:Src/stm32f7xx_hal_msp.c **** 
1546:Src/stm32f7xx_hal_msp.c ****     }
1547:Src/stm32f7xx_hal_msp.c **** }
 2900              		.loc 1 1547 0
 2901 0016 08B0     		add	sp, sp, #32
 2902              	.LCFI64:
 2903              		.cfi_remember_state
 2904              		.cfi_def_cfa_offset 8
 2905              		@ sp needed
 2906 0018 10BD     		pop	{r4, pc}
 2907              	.LVL180:
 2908              	.L268:
 2909              	.LCFI65:
 2910              		.cfi_restore_state
1507:Src/stm32f7xx_hal_msp.c ****     {
 2911              		.loc 1 1507 0
 2912 001a 204B     		ldr	r3, .L270+8
 2913 001c 1B68     		ldr	r3, [r3]
 2914 001e 4BB9     		cbnz	r3, .L264
 2915              	.LBB25:
1509:Src/stm32f7xx_hal_msp.c ****     }
 2916              		.loc 1 1509 0
 2917 0020 1F4A     		ldr	r2, .L270+12
ARM GAS  C:\Users\Student\AppData\Local\Temp\ccO0FPJj.s 			page 85


 2918 0022 516C     		ldr	r1, [r2, #68]
 2919 0024 41F40001 		orr	r1, r1, #8388608
 2920 0028 5164     		str	r1, [r2, #68]
 2921 002a 526C     		ldr	r2, [r2, #68]
 2922 002c 02F40002 		and	r2, r2, #8388608
 2923 0030 0192     		str	r2, [sp, #4]
 2924 0032 019A     		ldr	r2, [sp, #4]
 2925              	.L264:
 2926              	.LBE25:
1511:Src/stm32f7xx_hal_msp.c ****     
 2927              		.loc 1 1511 0
 2928 0034 0133     		adds	r3, r3, #1
 2929 0036 194A     		ldr	r2, .L270+8
 2930 0038 1360     		str	r3, [r2]
1519:Src/stm32f7xx_hal_msp.c ****     GPIO_InitStruct.Mode = GPIO_MODE_AF_PP;
 2931              		.loc 1 1519 0
 2932 003a F023     		movs	r3, #240
 2933 003c 0393     		str	r3, [sp, #12]
1520:Src/stm32f7xx_hal_msp.c ****     GPIO_InitStruct.Pull = GPIO_NOPULL;
 2934              		.loc 1 1520 0
 2935 003e 0223     		movs	r3, #2
 2936 0040 0493     		str	r3, [sp, #16]
1521:Src/stm32f7xx_hal_msp.c ****     GPIO_InitStruct.Speed = GPIO_SPEED_FREQ_LOW;
 2937              		.loc 1 1521 0
 2938 0042 0023     		movs	r3, #0
 2939 0044 0593     		str	r3, [sp, #20]
1522:Src/stm32f7xx_hal_msp.c ****     GPIO_InitStruct.Alternate = GPIO_AF10_SAI2;
 2940              		.loc 1 1522 0
 2941 0046 0693     		str	r3, [sp, #24]
1523:Src/stm32f7xx_hal_msp.c ****     HAL_GPIO_Init(GPIOI, &GPIO_InitStruct);
 2942              		.loc 1 1523 0
 2943 0048 0A23     		movs	r3, #10
 2944 004a 0793     		str	r3, [sp, #28]
1524:Src/stm32f7xx_hal_msp.c **** 
 2945              		.loc 1 1524 0
 2946 004c 03A9     		add	r1, sp, #12
 2947 004e 1548     		ldr	r0, .L270+16
 2948              	.LVL181:
 2949 0050 FFF7FEFF 		bl	HAL_GPIO_Init
 2950              	.LVL182:
 2951 0054 DBE7     		b	.L263
 2952              	.L269:
1530:Src/stm32f7xx_hal_msp.c ****       {
 2953              		.loc 1 1530 0
 2954 0056 114B     		ldr	r3, .L270+8
 2955 0058 1B68     		ldr	r3, [r3]
 2956 005a 4BB9     		cbnz	r3, .L266
 2957              	.LBB26:
1532:Src/stm32f7xx_hal_msp.c ****       }
 2958              		.loc 1 1532 0
 2959 005c 104A     		ldr	r2, .L270+12
 2960 005e 516C     		ldr	r1, [r2, #68]
 2961 0060 41F40001 		orr	r1, r1, #8388608
 2962 0064 5164     		str	r1, [r2, #68]
 2963 0066 526C     		ldr	r2, [r2, #68]
 2964 0068 02F40002 		and	r2, r2, #8388608
 2965 006c 0292     		str	r2, [sp, #8]
ARM GAS  C:\Users\Student\AppData\Local\Temp\ccO0FPJj.s 			page 86


 2966 006e 029A     		ldr	r2, [sp, #8]
 2967              	.L266:
 2968              	.LBE26:
1534:Src/stm32f7xx_hal_msp.c ****     
 2969              		.loc 1 1534 0
 2970 0070 0133     		adds	r3, r3, #1
 2971 0072 0A4A     		ldr	r2, .L270+8
 2972 0074 1360     		str	r3, [r2]
1539:Src/stm32f7xx_hal_msp.c ****     GPIO_InitStruct.Mode = GPIO_MODE_AF_PP;
 2973              		.loc 1 1539 0
 2974 0076 4FF48063 		mov	r3, #1024
 2975 007a 0393     		str	r3, [sp, #12]
1540:Src/stm32f7xx_hal_msp.c ****     GPIO_InitStruct.Pull = GPIO_NOPULL;
 2976              		.loc 1 1540 0
 2977 007c 0223     		movs	r3, #2
 2978 007e 0493     		str	r3, [sp, #16]
1541:Src/stm32f7xx_hal_msp.c ****     GPIO_InitStruct.Speed = GPIO_SPEED_FREQ_LOW;
 2979              		.loc 1 1541 0
 2980 0080 0023     		movs	r3, #0
 2981 0082 0593     		str	r3, [sp, #20]
1542:Src/stm32f7xx_hal_msp.c ****     GPIO_InitStruct.Alternate = GPIO_AF10_SAI2;
 2982              		.loc 1 1542 0
 2983 0084 0693     		str	r3, [sp, #24]
1543:Src/stm32f7xx_hal_msp.c ****     HAL_GPIO_Init(SAI2_SDB_GPIO_Port, &GPIO_InitStruct);
 2984              		.loc 1 1543 0
 2985 0086 0A23     		movs	r3, #10
 2986 0088 0793     		str	r3, [sp, #28]
1544:Src/stm32f7xx_hal_msp.c **** 
 2987              		.loc 1 1544 0
 2988 008a 03A9     		add	r1, sp, #12
 2989 008c 0648     		ldr	r0, .L270+20
 2990 008e FFF7FEFF 		bl	HAL_GPIO_Init
 2991              	.LVL183:
 2992              		.loc 1 1547 0
 2993 0092 C0E7     		b	.L262
 2994              	.L271:
 2995              		.align	2
 2996              	.L270:
 2997 0094 045C0140 		.word	1073830916
 2998 0098 245C0140 		.word	1073830948
 2999 009c 00000000 		.word	.LANCHOR2
 3000 00a0 00380240 		.word	1073887232
 3001 00a4 00200240 		.word	1073881088
 3002 00a8 00180240 		.word	1073879040
 3003              		.cfi_endproc
 3004              	.LFE170:
 3006              		.section	.text.HAL_SAI_MspDeInit,"ax",%progbits
 3007              		.align	1
 3008              		.global	HAL_SAI_MspDeInit
 3009              		.syntax unified
 3010              		.thumb
 3011              		.thumb_func
 3012              		.fpu fpv5-sp-d16
 3014              	HAL_SAI_MspDeInit:
 3015              	.LFB171:
1548:Src/stm32f7xx_hal_msp.c **** 
1549:Src/stm32f7xx_hal_msp.c **** void HAL_SAI_MspDeInit(SAI_HandleTypeDef* hsai)
ARM GAS  C:\Users\Student\AppData\Local\Temp\ccO0FPJj.s 			page 87


1550:Src/stm32f7xx_hal_msp.c **** {
 3016              		.loc 1 1550 0
 3017              		.cfi_startproc
 3018              		@ args = 0, pretend = 0, frame = 0
 3019              		@ frame_needed = 0, uses_anonymous_args = 0
 3020              	.LVL184:
 3021 0000 10B5     		push	{r4, lr}
 3022              	.LCFI66:
 3023              		.cfi_def_cfa_offset 8
 3024              		.cfi_offset 4, -8
 3025              		.cfi_offset 14, -4
 3026 0002 0446     		mov	r4, r0
1551:Src/stm32f7xx_hal_msp.c **** 
1552:Src/stm32f7xx_hal_msp.c **** /* SAI2 */
1553:Src/stm32f7xx_hal_msp.c ****     if(hsai->Instance==SAI2_Block_A)
 3027              		.loc 1 1553 0
 3028 0004 0268     		ldr	r2, [r0]
 3029 0006 134B     		ldr	r3, .L280
 3030 0008 9A42     		cmp	r2, r3
 3031 000a 04D0     		beq	.L278
 3032              	.LVL185:
 3033              	.L273:
1554:Src/stm32f7xx_hal_msp.c ****     {
1555:Src/stm32f7xx_hal_msp.c ****     SAI2_client --;
1556:Src/stm32f7xx_hal_msp.c ****     if (SAI2_client == 0)
1557:Src/stm32f7xx_hal_msp.c ****       {
1558:Src/stm32f7xx_hal_msp.c ****       /* Peripheral clock disable */ 
1559:Src/stm32f7xx_hal_msp.c ****        __HAL_RCC_SAI2_CLK_DISABLE();
1560:Src/stm32f7xx_hal_msp.c ****       }
1561:Src/stm32f7xx_hal_msp.c ****     
1562:Src/stm32f7xx_hal_msp.c ****     /**SAI2_A_Block_A GPIO Configuration    
1563:Src/stm32f7xx_hal_msp.c ****     PI4     ------> SAI2_MCLK_A
1564:Src/stm32f7xx_hal_msp.c ****     PI5     ------> SAI2_SCK_A
1565:Src/stm32f7xx_hal_msp.c ****     PI7     ------> SAI2_FS_A
1566:Src/stm32f7xx_hal_msp.c ****     PI6     ------> SAI2_SD_A 
1567:Src/stm32f7xx_hal_msp.c ****     */
1568:Src/stm32f7xx_hal_msp.c ****     HAL_GPIO_DeInit(GPIOI, SAI2_MCLKA_Pin|SAI2_SCKA_Pin|SAI2_FSA_Pin|SAI2_SDA_Pin);
1569:Src/stm32f7xx_hal_msp.c **** 
1570:Src/stm32f7xx_hal_msp.c ****     }
1571:Src/stm32f7xx_hal_msp.c ****     if(hsai->Instance==SAI2_Block_B)
 3034              		.loc 1 1571 0
 3035 000c 2268     		ldr	r2, [r4]
 3036 000e 124B     		ldr	r3, .L280+4
 3037 0010 9A42     		cmp	r2, r3
 3038 0012 0FD0     		beq	.L279
 3039              	.L272:
 3040 0014 10BD     		pop	{r4, pc}
 3041              	.LVL186:
 3042              	.L278:
1555:Src/stm32f7xx_hal_msp.c ****     if (SAI2_client == 0)
 3043              		.loc 1 1555 0
 3044 0016 114A     		ldr	r2, .L280+8
 3045 0018 1368     		ldr	r3, [r2]
 3046 001a 013B     		subs	r3, r3, #1
 3047 001c 1360     		str	r3, [r2]
1556:Src/stm32f7xx_hal_msp.c ****       {
 3048              		.loc 1 1556 0
ARM GAS  C:\Users\Student\AppData\Local\Temp\ccO0FPJj.s 			page 88


 3049 001e 23B9     		cbnz	r3, .L274
1559:Src/stm32f7xx_hal_msp.c ****       }
 3050              		.loc 1 1559 0
 3051 0020 0F4A     		ldr	r2, .L280+12
 3052 0022 536C     		ldr	r3, [r2, #68]
 3053 0024 23F40003 		bic	r3, r3, #8388608
 3054 0028 5364     		str	r3, [r2, #68]
 3055              	.L274:
1568:Src/stm32f7xx_hal_msp.c **** 
 3056              		.loc 1 1568 0
 3057 002a F021     		movs	r1, #240
 3058 002c 0D48     		ldr	r0, .L280+16
 3059              	.LVL187:
 3060 002e FFF7FEFF 		bl	HAL_GPIO_DeInit
 3061              	.LVL188:
 3062 0032 EBE7     		b	.L273
 3063              	.L279:
1572:Src/stm32f7xx_hal_msp.c ****     {
1573:Src/stm32f7xx_hal_msp.c ****     SAI2_client --;
 3064              		.loc 1 1573 0
 3065 0034 094A     		ldr	r2, .L280+8
 3066 0036 1368     		ldr	r3, [r2]
 3067 0038 013B     		subs	r3, r3, #1
 3068 003a 1360     		str	r3, [r2]
1574:Src/stm32f7xx_hal_msp.c ****       if (SAI2_client == 0)
 3069              		.loc 1 1574 0
 3070 003c 23B9     		cbnz	r3, .L276
1575:Src/stm32f7xx_hal_msp.c ****       {
1576:Src/stm32f7xx_hal_msp.c ****       /* Peripheral clock disable */
1577:Src/stm32f7xx_hal_msp.c ****       __HAL_RCC_SAI2_CLK_DISABLE();
 3071              		.loc 1 1577 0
 3072 003e 084A     		ldr	r2, .L280+12
 3073 0040 536C     		ldr	r3, [r2, #68]
 3074 0042 23F40003 		bic	r3, r3, #8388608
 3075 0046 5364     		str	r3, [r2, #68]
 3076              	.L276:
1578:Src/stm32f7xx_hal_msp.c ****       }
1579:Src/stm32f7xx_hal_msp.c ****     
1580:Src/stm32f7xx_hal_msp.c ****     /**SAI2_B_Block_B GPIO Configuration    
1581:Src/stm32f7xx_hal_msp.c ****     PG10     ------> SAI2_SD_B 
1582:Src/stm32f7xx_hal_msp.c ****     */
1583:Src/stm32f7xx_hal_msp.c ****     HAL_GPIO_DeInit(SAI2_SDB_GPIO_Port, SAI2_SDB_Pin);
 3077              		.loc 1 1583 0
 3078 0048 4FF48061 		mov	r1, #1024
 3079 004c 0648     		ldr	r0, .L280+20
 3080 004e FFF7FEFF 		bl	HAL_GPIO_DeInit
 3081              	.LVL189:
1584:Src/stm32f7xx_hal_msp.c **** 
1585:Src/stm32f7xx_hal_msp.c ****     }
1586:Src/stm32f7xx_hal_msp.c **** }
 3082              		.loc 1 1586 0
 3083 0052 DFE7     		b	.L272
 3084              	.L281:
 3085              		.align	2
 3086              	.L280:
 3087 0054 045C0140 		.word	1073830916
 3088 0058 245C0140 		.word	1073830948
ARM GAS  C:\Users\Student\AppData\Local\Temp\ccO0FPJj.s 			page 89


 3089 005c 00000000 		.word	.LANCHOR2
 3090 0060 00380240 		.word	1073887232
 3091 0064 00200240 		.word	1073881088
 3092 0068 00180240 		.word	1073879040
 3093              		.cfi_endproc
 3094              	.LFE171:
 3096              		.section	.bss.FMC_DeInitialized,"aw",%nobits
 3097              		.align	2
 3098              		.set	.LANCHOR1,. + 0
 3101              	FMC_DeInitialized:
 3102 0000 00000000 		.space	4
 3103              		.section	.bss.FMC_Initialized,"aw",%nobits
 3104              		.align	2
 3105              		.set	.LANCHOR0,. + 0
 3108              	FMC_Initialized:
 3109 0000 00000000 		.space	4
 3110              		.section	.bss.SAI2_client,"aw",%nobits
 3111              		.align	2
 3112              		.set	.LANCHOR2,. + 0
 3115              	SAI2_client:
 3116 0000 00000000 		.space	4
 3117              		.text
 3118              	.Letext0:
 3119              		.file 2 "c:\\gcc_toolchain\\6_2017-q1-update\\arm-none-eabi\\include\\machine\\_default_types.h"
 3120              		.file 3 "c:\\gcc_toolchain\\6_2017-q1-update\\arm-none-eabi\\include\\sys\\_stdint.h"
 3121              		.file 4 "Drivers/CMSIS/Include/core_cm7.h"
 3122              		.file 5 "Drivers/CMSIS/Device/ST/STM32F7xx/Include/system_stm32f7xx.h"
 3123              		.file 6 "Drivers/CMSIS/Device/ST/STM32F7xx/Include/stm32f746xx.h"
 3124              		.file 7 "c:\\gcc_toolchain\\6_2017-q1-update\\arm-none-eabi\\include\\sys\\lock.h"
 3125              		.file 8 "c:\\gcc_toolchain\\6_2017-q1-update\\arm-none-eabi\\include\\sys\\_types.h"
 3126              		.file 9 "c:\\gcc_toolchain\\6_2017-q1-update\\lib\\gcc\\arm-none-eabi\\6.3.1\\include\\stddef.h"
 3127              		.file 10 "c:\\gcc_toolchain\\6_2017-q1-update\\arm-none-eabi\\include\\sys\\reent.h"
 3128              		.file 11 "Drivers/STM32F7xx_HAL_Driver/Inc/stm32f7xx_hal_def.h"
 3129              		.file 12 "Drivers/STM32F7xx_HAL_Driver/Inc/stm32f7xx_hal_gpio.h"
 3130              		.file 13 "Drivers/STM32F7xx_HAL_Driver/Inc/stm32f7xx_hal_dma.h"
 3131              		.file 14 "Drivers/STM32F7xx_HAL_Driver/Inc/stm32f7xx_hal_adc.h"
 3132              		.file 15 "Drivers/STM32F7xx_HAL_Driver/Inc/stm32f7xx_hal_crc.h"
 3133              		.file 16 "Drivers/STM32F7xx_HAL_Driver/Inc/stm32f7xx_hal_dma2d.h"
 3134              		.file 17 "Drivers/STM32F7xx_HAL_Driver/Inc/stm32f7xx_hal_dcmi.h"
 3135              		.file 18 "Drivers/STM32F7xx_HAL_Driver/Inc/stm32f7xx_ll_fmc.h"
 3136              		.file 19 "Drivers/STM32F7xx_HAL_Driver/Inc/stm32f7xx_hal_sdram.h"
 3137              		.file 20 "Drivers/STM32F7xx_HAL_Driver/Inc/stm32f7xx_hal_i2c.h"
 3138              		.file 21 "Drivers/STM32F7xx_HAL_Driver/Inc/stm32f7xx_hal_ltdc.h"
 3139              		.file 22 "Drivers/STM32F7xx_HAL_Driver/Inc/stm32f7xx_hal_qspi.h"
 3140              		.file 23 "Drivers/STM32F7xx_HAL_Driver/Inc/stm32f7xx_hal_rtc.h"
 3141              		.file 24 "Drivers/STM32F7xx_HAL_Driver/Inc/stm32f7xx_hal_sai.h"
 3142              		.file 25 "Drivers/STM32F7xx_HAL_Driver/Inc/stm32f7xx_ll_sdmmc.h"
 3143              		.file 26 "Drivers/STM32F7xx_HAL_Driver/Inc/stm32f7xx_hal_sd.h"
 3144              		.file 27 "Drivers/STM32F7xx_HAL_Driver/Inc/stm32f7xx_hal_spdifrx.h"
 3145              		.file 28 "Drivers/STM32F7xx_HAL_Driver/Inc/stm32f7xx_hal_spi.h"
 3146              		.file 29 "Drivers/STM32F7xx_HAL_Driver/Inc/stm32f7xx_hal_tim.h"
 3147              		.file 30 "Drivers/STM32F7xx_HAL_Driver/Inc/stm32f7xx_hal_uart.h"
 3148              		.file 31 "Drivers/STM32F7xx_HAL_Driver/Inc/stm32f7xx_hal_cortex.h"
ARM GAS  C:\Users\Student\AppData\Local\Temp\ccO0FPJj.s 			page 90

