ARM GAS  C:\Users\milek\AppData\Local\Temp\ccuQHTkW.s 			page 1


   1              		.cpu cortex-m7
   2              		.eabi_attribute 27, 1
   3              		.eabi_attribute 28, 1
   4              		.eabi_attribute 20, 1
   5              		.eabi_attribute 21, 1
   6              		.eabi_attribute 23, 3
   7              		.eabi_attribute 24, 1
   8              		.eabi_attribute 25, 1
   9              		.eabi_attribute 26, 1
  10              		.eabi_attribute 30, 1
  11              		.eabi_attribute 34, 1
  12              		.eabi_attribute 18, 4
  13              		.file	"sys_arch.c"
  14              		.text
  15              	.Ltext0:
  16              		.cfi_sections	.debug_frame
  17              		.section	.text.sys_mbox_new,"ax",%progbits
  18              		.align	1
  19              		.global	sys_mbox_new
  20              		.syntax unified
  21              		.thumb
  22              		.thumb_func
  23              		.fpu fpv5-sp-d16
  25              	sys_mbox_new:
  26              	.LFB159:
  27              		.file 1 "Middlewares/Third_Party/LwIP/system/OS/sys_arch.c"
   1:Middlewares/Third_Party/LwIP/system/OS/sys_arch.c **** /*
   2:Middlewares/Third_Party/LwIP/system/OS/sys_arch.c ****  * Copyright (c) 2001-2003 Swedish Institute of Computer Science.
   3:Middlewares/Third_Party/LwIP/system/OS/sys_arch.c ****  * All rights reserved.
   4:Middlewares/Third_Party/LwIP/system/OS/sys_arch.c ****  *
   5:Middlewares/Third_Party/LwIP/system/OS/sys_arch.c ****  * Redistribution and use in source and binary forms, with or without modification,
   6:Middlewares/Third_Party/LwIP/system/OS/sys_arch.c ****  * are permitted provided that the following conditions are met:
   7:Middlewares/Third_Party/LwIP/system/OS/sys_arch.c ****  *
   8:Middlewares/Third_Party/LwIP/system/OS/sys_arch.c ****  * 1. Redistributions of source code must retain the above copyright notice,
   9:Middlewares/Third_Party/LwIP/system/OS/sys_arch.c ****  *    this list of conditions and the following disclaimer.
  10:Middlewares/Third_Party/LwIP/system/OS/sys_arch.c ****  * 2. Redistributions in binary form must reproduce the above copyright notice,
  11:Middlewares/Third_Party/LwIP/system/OS/sys_arch.c ****  *    this list of conditions and the following disclaimer in the documentation
  12:Middlewares/Third_Party/LwIP/system/OS/sys_arch.c ****  *    and/or other materials provided with the distribution.
  13:Middlewares/Third_Party/LwIP/system/OS/sys_arch.c ****  * 3. The name of the author may not be used to endorse or promote products
  14:Middlewares/Third_Party/LwIP/system/OS/sys_arch.c ****  *    derived from this software without specific prior written permission.
  15:Middlewares/Third_Party/LwIP/system/OS/sys_arch.c ****  *
  16:Middlewares/Third_Party/LwIP/system/OS/sys_arch.c ****  * THIS SOFTWARE IS PROVIDED BY THE AUTHOR ``AS IS'' AND ANY EXPRESS OR IMPLIED
  17:Middlewares/Third_Party/LwIP/system/OS/sys_arch.c ****  * WARRANTIES, INCLUDING, BUT NOT LIMITED TO, THE IMPLIED WARRANTIES OF
  18:Middlewares/Third_Party/LwIP/system/OS/sys_arch.c ****  * MERCHANTABILITY AND FITNESS FOR A PARTICULAR PURPOSE ARE DISCLAIMED. IN NO EVENT
  19:Middlewares/Third_Party/LwIP/system/OS/sys_arch.c ****  * SHALL THE AUTHOR BE LIABLE FOR ANY DIRECT, INDIRECT, INCIDENTAL, SPECIAL,
  20:Middlewares/Third_Party/LwIP/system/OS/sys_arch.c ****  * EXEMPLARY, OR CONSEQUENTIAL DAMAGES (INCLUDING, BUT NOT LIMITED TO, PROCUREMENT
  21:Middlewares/Third_Party/LwIP/system/OS/sys_arch.c ****  * OF SUBSTITUTE GOODS OR SERVICES; LOSS OF USE, DATA, OR PROFITS; OR BUSINESS
  22:Middlewares/Third_Party/LwIP/system/OS/sys_arch.c ****  * INTERRUPTION) HOWEVER CAUSED AND ON ANY THEORY OF LIABILITY, WHETHER IN
  23:Middlewares/Third_Party/LwIP/system/OS/sys_arch.c ****  * CONTRACT, STRICT LIABILITY, OR TORT (INCLUDING NEGLIGENCE OR OTHERWISE) ARISING
  24:Middlewares/Third_Party/LwIP/system/OS/sys_arch.c ****  * IN ANY WAY OUT OF THE USE OF THIS SOFTWARE, EVEN IF ADVISED OF THE POSSIBILITY
  25:Middlewares/Third_Party/LwIP/system/OS/sys_arch.c ****  * OF SUCH DAMAGE.
  26:Middlewares/Third_Party/LwIP/system/OS/sys_arch.c ****  *
  27:Middlewares/Third_Party/LwIP/system/OS/sys_arch.c ****  * This file is part of the lwIP TCP/IP stack.
  28:Middlewares/Third_Party/LwIP/system/OS/sys_arch.c ****  *
  29:Middlewares/Third_Party/LwIP/system/OS/sys_arch.c ****  * Author: Adam Dunkels <adam@sics.se>
  30:Middlewares/Third_Party/LwIP/system/OS/sys_arch.c ****  *
  31:Middlewares/Third_Party/LwIP/system/OS/sys_arch.c ****  */
ARM GAS  C:\Users\milek\AppData\Local\Temp\ccuQHTkW.s 			page 2


  32:Middlewares/Third_Party/LwIP/system/OS/sys_arch.c **** 
  33:Middlewares/Third_Party/LwIP/system/OS/sys_arch.c **** /* lwIP includes. */
  34:Middlewares/Third_Party/LwIP/system/OS/sys_arch.c **** #include "lwip/debug.h"
  35:Middlewares/Third_Party/LwIP/system/OS/sys_arch.c **** #include "lwip/def.h"
  36:Middlewares/Third_Party/LwIP/system/OS/sys_arch.c **** #include "lwip/sys.h"
  37:Middlewares/Third_Party/LwIP/system/OS/sys_arch.c **** #include "lwip/mem.h"
  38:Middlewares/Third_Party/LwIP/system/OS/sys_arch.c **** #include "lwip/stats.h"
  39:Middlewares/Third_Party/LwIP/system/OS/sys_arch.c **** 
  40:Middlewares/Third_Party/LwIP/system/OS/sys_arch.c **** #if !NO_SYS
  41:Middlewares/Third_Party/LwIP/system/OS/sys_arch.c **** 
  42:Middlewares/Third_Party/LwIP/system/OS/sys_arch.c **** #include "cmsis_os.h"
  43:Middlewares/Third_Party/LwIP/system/OS/sys_arch.c **** 
  44:Middlewares/Third_Party/LwIP/system/OS/sys_arch.c **** #if defined(LWIP_SOCKET_SET_ERRNO) && defined(LWIP_PROVIDE_ERRNO)
  45:Middlewares/Third_Party/LwIP/system/OS/sys_arch.c **** int errno;
  46:Middlewares/Third_Party/LwIP/system/OS/sys_arch.c **** #endif
  47:Middlewares/Third_Party/LwIP/system/OS/sys_arch.c **** 
  48:Middlewares/Third_Party/LwIP/system/OS/sys_arch.c **** /*-----------------------------------------------------------------------------------*/
  49:Middlewares/Third_Party/LwIP/system/OS/sys_arch.c **** //  Creates an empty mailbox.
  50:Middlewares/Third_Party/LwIP/system/OS/sys_arch.c **** err_t sys_mbox_new(sys_mbox_t *mbox, int size)
  51:Middlewares/Third_Party/LwIP/system/OS/sys_arch.c **** {
  28              		.loc 1 51 0
  29              		.cfi_startproc
  30              		@ args = 0, pretend = 0, frame = 8
  31              		@ frame_needed = 0, uses_anonymous_args = 0
  32              	.LVL0:
  33 0000 10B5     		push	{r4, lr}
  34              	.LCFI0:
  35              		.cfi_def_cfa_offset 8
  36              		.cfi_offset 4, -8
  37              		.cfi_offset 14, -4
  38 0002 82B0     		sub	sp, sp, #8
  39              	.LCFI1:
  40              		.cfi_def_cfa_offset 16
  41 0004 0446     		mov	r4, r0
  52:Middlewares/Third_Party/LwIP/system/OS/sys_arch.c ****   osMessageQDef(QUEUE, size, void *);
  42              		.loc 1 52 0
  43 0006 0091     		str	r1, [sp]
  44 0008 0423     		movs	r3, #4
  45 000a 0193     		str	r3, [sp, #4]
  53:Middlewares/Third_Party/LwIP/system/OS/sys_arch.c ****   
  54:Middlewares/Third_Party/LwIP/system/OS/sys_arch.c ****   *mbox = osMessageCreate(osMessageQ(QUEUE), NULL);
  46              		.loc 1 54 0
  47 000c 0021     		movs	r1, #0
  48              	.LVL1:
  49 000e 6846     		mov	r0, sp
  50              	.LVL2:
  51 0010 FFF7FEFF 		bl	osMessageCreate
  52              	.LVL3:
  53 0014 2060     		str	r0, [r4]
  55:Middlewares/Third_Party/LwIP/system/OS/sys_arch.c **** 
  56:Middlewares/Third_Party/LwIP/system/OS/sys_arch.c **** #if SYS_STATS
  57:Middlewares/Third_Party/LwIP/system/OS/sys_arch.c ****       ++lwip_stats.sys.mbox.used;
  58:Middlewares/Third_Party/LwIP/system/OS/sys_arch.c ****       if (lwip_stats.sys.mbox.max < lwip_stats.sys.mbox.used) {
  59:Middlewares/Third_Party/LwIP/system/OS/sys_arch.c ****          lwip_stats.sys.mbox.max = lwip_stats.sys.mbox.used;
  60:Middlewares/Third_Party/LwIP/system/OS/sys_arch.c **** 	  }
  61:Middlewares/Third_Party/LwIP/system/OS/sys_arch.c **** #endif /* SYS_STATS */
  62:Middlewares/Third_Party/LwIP/system/OS/sys_arch.c ****  if (*mbox == NULL)
ARM GAS  C:\Users\milek\AppData\Local\Temp\ccuQHTkW.s 			page 3


  54              		.loc 1 62 0
  55 0016 10B1     		cbz	r0, .L5
  63:Middlewares/Third_Party/LwIP/system/OS/sys_arch.c ****   return ERR_MEM;
  64:Middlewares/Third_Party/LwIP/system/OS/sys_arch.c ****  
  65:Middlewares/Third_Party/LwIP/system/OS/sys_arch.c ****  return ERR_OK;
  56              		.loc 1 65 0
  57 0018 0020     		movs	r0, #0
  58              	.L2:
  66:Middlewares/Third_Party/LwIP/system/OS/sys_arch.c **** }
  59              		.loc 1 66 0
  60 001a 02B0     		add	sp, sp, #8
  61              	.LCFI2:
  62              		.cfi_remember_state
  63              		.cfi_def_cfa_offset 8
  64              		@ sp needed
  65 001c 10BD     		pop	{r4, pc}
  66              	.LVL4:
  67              	.L5:
  68              	.LCFI3:
  69              		.cfi_restore_state
  63:Middlewares/Third_Party/LwIP/system/OS/sys_arch.c ****   return ERR_MEM;
  70              		.loc 1 63 0
  71 001e 4FF0FF30 		mov	r0, #-1
  72 0022 FAE7     		b	.L2
  73              		.cfi_endproc
  74              	.LFE159:
  76              		.section	.text.sys_mbox_free,"ax",%progbits
  77              		.align	1
  78              		.global	sys_mbox_free
  79              		.syntax unified
  80              		.thumb
  81              		.thumb_func
  82              		.fpu fpv5-sp-d16
  84              	sys_mbox_free:
  85              	.LFB160:
  67:Middlewares/Third_Party/LwIP/system/OS/sys_arch.c **** 
  68:Middlewares/Third_Party/LwIP/system/OS/sys_arch.c **** /*-----------------------------------------------------------------------------------*/
  69:Middlewares/Third_Party/LwIP/system/OS/sys_arch.c **** /*
  70:Middlewares/Third_Party/LwIP/system/OS/sys_arch.c ****   Deallocates a mailbox. If there are messages still present in the
  71:Middlewares/Third_Party/LwIP/system/OS/sys_arch.c ****   mailbox when the mailbox is deallocated, it is an indication of a
  72:Middlewares/Third_Party/LwIP/system/OS/sys_arch.c ****   programming error in lwIP and the developer should be notified.
  73:Middlewares/Third_Party/LwIP/system/OS/sys_arch.c **** */
  74:Middlewares/Third_Party/LwIP/system/OS/sys_arch.c **** void sys_mbox_free(sys_mbox_t *mbox)
  75:Middlewares/Third_Party/LwIP/system/OS/sys_arch.c **** {
  86              		.loc 1 75 0
  87              		.cfi_startproc
  88              		@ args = 0, pretend = 0, frame = 0
  89              		@ frame_needed = 0, uses_anonymous_args = 0
  90              	.LVL5:
  91 0000 10B5     		push	{r4, lr}
  92              	.LCFI4:
  93              		.cfi_def_cfa_offset 8
  94              		.cfi_offset 4, -8
  95              		.cfi_offset 14, -4
  96 0002 0446     		mov	r4, r0
  76:Middlewares/Third_Party/LwIP/system/OS/sys_arch.c **** 	if( osMessageWaiting(*mbox) )
  97              		.loc 1 76 0
ARM GAS  C:\Users\milek\AppData\Local\Temp\ccuQHTkW.s 			page 4


  98 0004 0068     		ldr	r0, [r0]
  99              	.LVL6:
 100 0006 FFF7FEFF 		bl	osMessageWaiting
 101              	.LVL7:
  77:Middlewares/Third_Party/LwIP/system/OS/sys_arch.c **** 	{
  78:Middlewares/Third_Party/LwIP/system/OS/sys_arch.c **** 		/* Line for breakpoint.  Should never break here! */
  79:Middlewares/Third_Party/LwIP/system/OS/sys_arch.c **** 		portNOP();
  80:Middlewares/Third_Party/LwIP/system/OS/sys_arch.c **** #if SYS_STATS
  81:Middlewares/Third_Party/LwIP/system/OS/sys_arch.c **** 	    lwip_stats.sys.mbox.err++;
  82:Middlewares/Third_Party/LwIP/system/OS/sys_arch.c **** #endif /* SYS_STATS */
  83:Middlewares/Third_Party/LwIP/system/OS/sys_arch.c **** 			
  84:Middlewares/Third_Party/LwIP/system/OS/sys_arch.c **** 		// TODO notify the user of failure.
  85:Middlewares/Third_Party/LwIP/system/OS/sys_arch.c **** 	}
  86:Middlewares/Third_Party/LwIP/system/OS/sys_arch.c **** 
  87:Middlewares/Third_Party/LwIP/system/OS/sys_arch.c **** 	osMessageDelete(*mbox);
 102              		.loc 1 87 0
 103 000a 2068     		ldr	r0, [r4]
 104 000c FFF7FEFF 		bl	osMessageDelete
 105              	.LVL8:
  88:Middlewares/Third_Party/LwIP/system/OS/sys_arch.c **** 
  89:Middlewares/Third_Party/LwIP/system/OS/sys_arch.c **** #if SYS_STATS
  90:Middlewares/Third_Party/LwIP/system/OS/sys_arch.c ****      --lwip_stats.sys.mbox.used;
  91:Middlewares/Third_Party/LwIP/system/OS/sys_arch.c **** #endif /* SYS_STATS */
  92:Middlewares/Third_Party/LwIP/system/OS/sys_arch.c **** }
 106              		.loc 1 92 0
 107 0010 10BD     		pop	{r4, pc}
 108              		.cfi_endproc
 109              	.LFE160:
 111              		.section	.text.sys_mbox_post,"ax",%progbits
 112              		.align	1
 113              		.global	sys_mbox_post
 114              		.syntax unified
 115              		.thumb
 116              		.thumb_func
 117              		.fpu fpv5-sp-d16
 119              	sys_mbox_post:
 120              	.LFB161:
  93:Middlewares/Third_Party/LwIP/system/OS/sys_arch.c **** 
  94:Middlewares/Third_Party/LwIP/system/OS/sys_arch.c **** /*-----------------------------------------------------------------------------------*/
  95:Middlewares/Third_Party/LwIP/system/OS/sys_arch.c **** //   Posts the "msg" to the mailbox.
  96:Middlewares/Third_Party/LwIP/system/OS/sys_arch.c **** void sys_mbox_post(sys_mbox_t *mbox, void *data)
  97:Middlewares/Third_Party/LwIP/system/OS/sys_arch.c **** {
 121              		.loc 1 97 0
 122              		.cfi_startproc
 123              		@ args = 0, pretend = 0, frame = 0
 124              		@ frame_needed = 0, uses_anonymous_args = 0
 125              	.LVL9:
 126 0000 38B5     		push	{r3, r4, r5, lr}
 127              	.LCFI5:
 128              		.cfi_def_cfa_offset 16
 129              		.cfi_offset 3, -16
 130              		.cfi_offset 4, -12
 131              		.cfi_offset 5, -8
 132              		.cfi_offset 14, -4
 133 0002 0546     		mov	r5, r0
 134 0004 0C46     		mov	r4, r1
 135              	.LVL10:
ARM GAS  C:\Users\milek\AppData\Local\Temp\ccuQHTkW.s 			page 5


 136              	.L9:
  98:Middlewares/Third_Party/LwIP/system/OS/sys_arch.c ****   while(osMessagePut(*mbox, (uint32_t)data, osWaitForever) != osOK);
 137              		.loc 1 98 0 discriminator 1
 138 0006 4FF0FF32 		mov	r2, #-1
 139 000a 2146     		mov	r1, r4
 140 000c 2868     		ldr	r0, [r5]
 141 000e FFF7FEFF 		bl	osMessagePut
 142              	.LVL11:
 143 0012 0028     		cmp	r0, #0
 144 0014 F7D1     		bne	.L9
  99:Middlewares/Third_Party/LwIP/system/OS/sys_arch.c **** }
 145              		.loc 1 99 0
 146 0016 38BD     		pop	{r3, r4, r5, pc}
 147              		.cfi_endproc
 148              	.LFE161:
 150              		.section	.text.sys_mbox_trypost,"ax",%progbits
 151              		.align	1
 152              		.global	sys_mbox_trypost
 153              		.syntax unified
 154              		.thumb
 155              		.thumb_func
 156              		.fpu fpv5-sp-d16
 158              	sys_mbox_trypost:
 159              	.LFB162:
 100:Middlewares/Third_Party/LwIP/system/OS/sys_arch.c **** 
 101:Middlewares/Third_Party/LwIP/system/OS/sys_arch.c **** 
 102:Middlewares/Third_Party/LwIP/system/OS/sys_arch.c **** /*-----------------------------------------------------------------------------------*/
 103:Middlewares/Third_Party/LwIP/system/OS/sys_arch.c **** //   Try to post the "msg" to the mailbox.
 104:Middlewares/Third_Party/LwIP/system/OS/sys_arch.c **** err_t sys_mbox_trypost(sys_mbox_t *mbox, void *msg)
 105:Middlewares/Third_Party/LwIP/system/OS/sys_arch.c **** {
 160              		.loc 1 105 0
 161              		.cfi_startproc
 162              		@ args = 0, pretend = 0, frame = 0
 163              		@ frame_needed = 0, uses_anonymous_args = 0
 164              	.LVL12:
 165 0000 08B5     		push	{r3, lr}
 166              	.LCFI6:
 167              		.cfi_def_cfa_offset 8
 168              		.cfi_offset 3, -8
 169              		.cfi_offset 14, -4
 106:Middlewares/Third_Party/LwIP/system/OS/sys_arch.c **** err_t result;
 107:Middlewares/Third_Party/LwIP/system/OS/sys_arch.c **** 
 108:Middlewares/Third_Party/LwIP/system/OS/sys_arch.c ****    if ( osMessagePut(*mbox, (uint32_t)msg, 0) == osOK)
 170              		.loc 1 108 0
 171 0002 0022     		movs	r2, #0
 172 0004 0068     		ldr	r0, [r0]
 173              	.LVL13:
 174 0006 FFF7FEFF 		bl	osMessagePut
 175              	.LVL14:
 176 000a 00B9     		cbnz	r0, .L15
 177              	.L12:
 178              	.LVL15:
 109:Middlewares/Third_Party/LwIP/system/OS/sys_arch.c ****    {
 110:Middlewares/Third_Party/LwIP/system/OS/sys_arch.c ****       result = ERR_OK;
 111:Middlewares/Third_Party/LwIP/system/OS/sys_arch.c ****    }
 112:Middlewares/Third_Party/LwIP/system/OS/sys_arch.c ****    else {
 113:Middlewares/Third_Party/LwIP/system/OS/sys_arch.c ****       // could not post, queue must be full
ARM GAS  C:\Users\milek\AppData\Local\Temp\ccuQHTkW.s 			page 6


 114:Middlewares/Third_Party/LwIP/system/OS/sys_arch.c ****       result = ERR_MEM;
 115:Middlewares/Third_Party/LwIP/system/OS/sys_arch.c **** 			
 116:Middlewares/Third_Party/LwIP/system/OS/sys_arch.c **** #if SYS_STATS
 117:Middlewares/Third_Party/LwIP/system/OS/sys_arch.c ****       lwip_stats.sys.mbox.err++;
 118:Middlewares/Third_Party/LwIP/system/OS/sys_arch.c **** #endif /* SYS_STATS */
 119:Middlewares/Third_Party/LwIP/system/OS/sys_arch.c **** 			
 120:Middlewares/Third_Party/LwIP/system/OS/sys_arch.c ****    }
 121:Middlewares/Third_Party/LwIP/system/OS/sys_arch.c **** 
 122:Middlewares/Third_Party/LwIP/system/OS/sys_arch.c ****    return result;
 123:Middlewares/Third_Party/LwIP/system/OS/sys_arch.c **** }
 179              		.loc 1 123 0
 180 000c 08BD     		pop	{r3, pc}
 181              	.LVL16:
 182              	.L15:
 114:Middlewares/Third_Party/LwIP/system/OS/sys_arch.c **** 			
 183              		.loc 1 114 0
 184 000e 4FF0FF30 		mov	r0, #-1
 185 0012 FBE7     		b	.L12
 186              		.cfi_endproc
 187              	.LFE162:
 189              		.section	.text.sys_arch_mbox_fetch,"ax",%progbits
 190              		.align	1
 191              		.global	sys_arch_mbox_fetch
 192              		.syntax unified
 193              		.thumb
 194              		.thumb_func
 195              		.fpu fpv5-sp-d16
 197              	sys_arch_mbox_fetch:
 198              	.LFB163:
 124:Middlewares/Third_Party/LwIP/system/OS/sys_arch.c **** 
 125:Middlewares/Third_Party/LwIP/system/OS/sys_arch.c **** /*-----------------------------------------------------------------------------------*/
 126:Middlewares/Third_Party/LwIP/system/OS/sys_arch.c **** /*
 127:Middlewares/Third_Party/LwIP/system/OS/sys_arch.c ****   Blocks the thread until a message arrives in the mailbox, but does
 128:Middlewares/Third_Party/LwIP/system/OS/sys_arch.c ****   not block the thread longer than "timeout" milliseconds (similar to
 129:Middlewares/Third_Party/LwIP/system/OS/sys_arch.c ****   the sys_arch_sem_wait() function). The "msg" argument is a result
 130:Middlewares/Third_Party/LwIP/system/OS/sys_arch.c ****   parameter that is set by the function (i.e., by doing "*msg =
 131:Middlewares/Third_Party/LwIP/system/OS/sys_arch.c ****   ptr"). The "msg" parameter maybe NULL to indicate that the message
 132:Middlewares/Third_Party/LwIP/system/OS/sys_arch.c ****   should be dropped.
 133:Middlewares/Third_Party/LwIP/system/OS/sys_arch.c **** 
 134:Middlewares/Third_Party/LwIP/system/OS/sys_arch.c ****   The return values are the same as for the sys_arch_sem_wait() function:
 135:Middlewares/Third_Party/LwIP/system/OS/sys_arch.c ****   Number of milliseconds spent waiting or SYS_ARCH_TIMEOUT if there was a
 136:Middlewares/Third_Party/LwIP/system/OS/sys_arch.c ****   timeout.
 137:Middlewares/Third_Party/LwIP/system/OS/sys_arch.c **** 
 138:Middlewares/Third_Party/LwIP/system/OS/sys_arch.c ****   Note that a function with a similar name, sys_mbox_fetch(), is
 139:Middlewares/Third_Party/LwIP/system/OS/sys_arch.c ****   implemented by lwIP.
 140:Middlewares/Third_Party/LwIP/system/OS/sys_arch.c **** */
 141:Middlewares/Third_Party/LwIP/system/OS/sys_arch.c **** u32_t sys_arch_mbox_fetch(sys_mbox_t *mbox, void **msg, u32_t timeout)
 142:Middlewares/Third_Party/LwIP/system/OS/sys_arch.c **** {
 199              		.loc 1 142 0
 200              		.cfi_startproc
 201              		@ args = 0, pretend = 0, frame = 32
 202              		@ frame_needed = 0, uses_anonymous_args = 0
 203              	.LVL17:
 204 0000 F0B5     		push	{r4, r5, r6, r7, lr}
 205              	.LCFI7:
 206              		.cfi_def_cfa_offset 20
 207              		.cfi_offset 4, -20
ARM GAS  C:\Users\milek\AppData\Local\Temp\ccuQHTkW.s 			page 7


 208              		.cfi_offset 5, -16
 209              		.cfi_offset 6, -12
 210              		.cfi_offset 7, -8
 211              		.cfi_offset 14, -4
 212 0002 89B0     		sub	sp, sp, #36
 213              	.LCFI8:
 214              		.cfi_def_cfa_offset 56
 215 0004 0646     		mov	r6, r0
 216 0006 0F46     		mov	r7, r1
 217 0008 1546     		mov	r5, r2
 143:Middlewares/Third_Party/LwIP/system/OS/sys_arch.c ****   osEvent event;
 144:Middlewares/Third_Party/LwIP/system/OS/sys_arch.c ****   uint32_t starttime = osKernelSysTick();;
 218              		.loc 1 144 0
 219 000a FFF7FEFF 		bl	osKernelSysTick
 220              	.LVL18:
 221 000e 0446     		mov	r4, r0
 222              	.LVL19:
 145:Middlewares/Third_Party/LwIP/system/OS/sys_arch.c ****   
 146:Middlewares/Third_Party/LwIP/system/OS/sys_arch.c ****   if(timeout != 0)
 223              		.loc 1 146 0
 224 0010 85B1     		cbz	r5, .L17
 147:Middlewares/Third_Party/LwIP/system/OS/sys_arch.c ****   { 
 148:Middlewares/Third_Party/LwIP/system/OS/sys_arch.c ****     event = osMessageGet (*mbox, timeout);
 225              		.loc 1 148 0
 226 0012 2A46     		mov	r2, r5
 227 0014 3168     		ldr	r1, [r6]
 228 0016 05A8     		add	r0, sp, #20
 229              	.LVL20:
 230 0018 FFF7FEFF 		bl	osMessageGet
 231              	.LVL21:
 149:Middlewares/Third_Party/LwIP/system/OS/sys_arch.c ****     
 150:Middlewares/Third_Party/LwIP/system/OS/sys_arch.c ****     if(event.status == osEventMessage)
 232              		.loc 1 150 0
 233 001c 059B     		ldr	r3, [sp, #20]
 234 001e 102B     		cmp	r3, #16
 235 0020 02D0     		beq	.L21
 151:Middlewares/Third_Party/LwIP/system/OS/sys_arch.c ****     {
 152:Middlewares/Third_Party/LwIP/system/OS/sys_arch.c ****       *msg = (void *)event.value.v;
 153:Middlewares/Third_Party/LwIP/system/OS/sys_arch.c ****       return (osKernelSysTick() - starttime);
 154:Middlewares/Third_Party/LwIP/system/OS/sys_arch.c ****     }
 155:Middlewares/Third_Party/LwIP/system/OS/sys_arch.c ****     else
 156:Middlewares/Third_Party/LwIP/system/OS/sys_arch.c ****     {
 157:Middlewares/Third_Party/LwIP/system/OS/sys_arch.c ****       return SYS_ARCH_TIMEOUT;
 236              		.loc 1 157 0
 237 0022 4FF0FF30 		mov	r0, #-1
 238 0026 16E0     		b	.L16
 239              	.L21:
 152:Middlewares/Third_Party/LwIP/system/OS/sys_arch.c ****       return (osKernelSysTick() - starttime);
 240              		.loc 1 152 0
 241 0028 069B     		ldr	r3, [sp, #24]
 242 002a 3B60     		str	r3, [r7]
 153:Middlewares/Third_Party/LwIP/system/OS/sys_arch.c ****     }
 243              		.loc 1 153 0
 244 002c FFF7FEFF 		bl	osKernelSysTick
 245              	.LVL22:
 246 0030 001B     		subs	r0, r0, r4
 247 0032 10E0     		b	.L16
ARM GAS  C:\Users\milek\AppData\Local\Temp\ccuQHTkW.s 			page 8


 248              	.LVL23:
 249              	.L17:
 158:Middlewares/Third_Party/LwIP/system/OS/sys_arch.c ****     } 
 159:Middlewares/Third_Party/LwIP/system/OS/sys_arch.c ****   }
 160:Middlewares/Third_Party/LwIP/system/OS/sys_arch.c ****   else
 161:Middlewares/Third_Party/LwIP/system/OS/sys_arch.c ****   {
 162:Middlewares/Third_Party/LwIP/system/OS/sys_arch.c ****     event = osMessageGet (*mbox, osWaitForever);
 250              		.loc 1 162 0
 251 0034 6D46     		mov	r5, sp
 252              	.LVL24:
 253 0036 4FF0FF32 		mov	r2, #-1
 254 003a 3168     		ldr	r1, [r6]
 255 003c 2846     		mov	r0, r5
 256              	.LVL25:
 257 003e FFF7FEFF 		bl	osMessageGet
 258              	.LVL26:
 259 0042 95E80700 		ldm	r5, {r0, r1, r2}
 260 0046 08AB     		add	r3, sp, #32
 261 0048 03E90700 		stmdb	r3, {r0, r1, r2}
 163:Middlewares/Third_Party/LwIP/system/OS/sys_arch.c ****     *msg = (void *)event.value.v;
 262              		.loc 1 163 0
 263 004c 069B     		ldr	r3, [sp, #24]
 264 004e 3B60     		str	r3, [r7]
 164:Middlewares/Third_Party/LwIP/system/OS/sys_arch.c ****     return (osKernelSysTick() - starttime);
 265              		.loc 1 164 0
 266 0050 FFF7FEFF 		bl	osKernelSysTick
 267              	.LVL27:
 268 0054 001B     		subs	r0, r0, r4
 269              	.L16:
 165:Middlewares/Third_Party/LwIP/system/OS/sys_arch.c ****   }
 166:Middlewares/Third_Party/LwIP/system/OS/sys_arch.c **** }
 270              		.loc 1 166 0
 271 0056 09B0     		add	sp, sp, #36
 272              	.LCFI9:
 273              		.cfi_def_cfa_offset 20
 274              		@ sp needed
 275 0058 F0BD     		pop	{r4, r5, r6, r7, pc}
 276              		.cfi_endproc
 277              	.LFE163:
 279              		.section	.text.sys_arch_mbox_tryfetch,"ax",%progbits
 280              		.align	1
 281              		.global	sys_arch_mbox_tryfetch
 282              		.syntax unified
 283              		.thumb
 284              		.thumb_func
 285              		.fpu fpv5-sp-d16
 287              	sys_arch_mbox_tryfetch:
 288              	.LFB164:
 167:Middlewares/Third_Party/LwIP/system/OS/sys_arch.c **** 
 168:Middlewares/Third_Party/LwIP/system/OS/sys_arch.c **** /*-----------------------------------------------------------------------------------*/
 169:Middlewares/Third_Party/LwIP/system/OS/sys_arch.c **** /*
 170:Middlewares/Third_Party/LwIP/system/OS/sys_arch.c ****   Similar to sys_arch_mbox_fetch, but if message is not ready immediately, we'll
 171:Middlewares/Third_Party/LwIP/system/OS/sys_arch.c ****   return with SYS_MBOX_EMPTY.  On success, 0 is returned.
 172:Middlewares/Third_Party/LwIP/system/OS/sys_arch.c **** */
 173:Middlewares/Third_Party/LwIP/system/OS/sys_arch.c **** u32_t sys_arch_mbox_tryfetch(sys_mbox_t *mbox, void **msg)
 174:Middlewares/Third_Party/LwIP/system/OS/sys_arch.c **** {
 289              		.loc 1 174 0
ARM GAS  C:\Users\milek\AppData\Local\Temp\ccuQHTkW.s 			page 9


 290              		.cfi_startproc
 291              		@ args = 0, pretend = 0, frame = 16
 292              		@ frame_needed = 0, uses_anonymous_args = 0
 293              	.LVL28:
 294 0000 10B5     		push	{r4, lr}
 295              	.LCFI10:
 296              		.cfi_def_cfa_offset 8
 297              		.cfi_offset 4, -8
 298              		.cfi_offset 14, -4
 299 0002 84B0     		sub	sp, sp, #16
 300              	.LCFI11:
 301              		.cfi_def_cfa_offset 24
 302 0004 0C46     		mov	r4, r1
 175:Middlewares/Third_Party/LwIP/system/OS/sys_arch.c ****   osEvent event;
 176:Middlewares/Third_Party/LwIP/system/OS/sys_arch.c ****   
 177:Middlewares/Third_Party/LwIP/system/OS/sys_arch.c ****   event = osMessageGet (*mbox, 0);
 303              		.loc 1 177 0
 304 0006 0022     		movs	r2, #0
 305 0008 0168     		ldr	r1, [r0]
 306              	.LVL29:
 307 000a 01A8     		add	r0, sp, #4
 308              	.LVL30:
 309 000c FFF7FEFF 		bl	osMessageGet
 310              	.LVL31:
 178:Middlewares/Third_Party/LwIP/system/OS/sys_arch.c ****   
 179:Middlewares/Third_Party/LwIP/system/OS/sys_arch.c ****   if(event.status == osEventMessage)
 311              		.loc 1 179 0
 312 0010 019B     		ldr	r3, [sp, #4]
 313 0012 102B     		cmp	r3, #16
 314 0014 04D1     		bne	.L24
 180:Middlewares/Third_Party/LwIP/system/OS/sys_arch.c ****   {
 181:Middlewares/Third_Party/LwIP/system/OS/sys_arch.c ****     *msg = (void *)event.value.v;
 315              		.loc 1 181 0
 316 0016 029B     		ldr	r3, [sp, #8]
 317 0018 2360     		str	r3, [r4]
 182:Middlewares/Third_Party/LwIP/system/OS/sys_arch.c ****     return ERR_OK;
 318              		.loc 1 182 0
 319 001a 0020     		movs	r0, #0
 320              	.L22:
 183:Middlewares/Third_Party/LwIP/system/OS/sys_arch.c ****   }
 184:Middlewares/Third_Party/LwIP/system/OS/sys_arch.c ****   else
 185:Middlewares/Third_Party/LwIP/system/OS/sys_arch.c ****   {
 186:Middlewares/Third_Party/LwIP/system/OS/sys_arch.c ****     return SYS_MBOX_EMPTY;
 187:Middlewares/Third_Party/LwIP/system/OS/sys_arch.c ****   }
 188:Middlewares/Third_Party/LwIP/system/OS/sys_arch.c **** }
 321              		.loc 1 188 0
 322 001c 04B0     		add	sp, sp, #16
 323              	.LCFI12:
 324              		.cfi_remember_state
 325              		.cfi_def_cfa_offset 8
 326              		@ sp needed
 327 001e 10BD     		pop	{r4, pc}
 328              	.LVL32:
 329              	.L24:
 330              	.LCFI13:
 331              		.cfi_restore_state
 186:Middlewares/Third_Party/LwIP/system/OS/sys_arch.c ****   }
ARM GAS  C:\Users\milek\AppData\Local\Temp\ccuQHTkW.s 			page 10


 332              		.loc 1 186 0
 333 0020 4FF0FF30 		mov	r0, #-1
 334 0024 FAE7     		b	.L22
 335              		.cfi_endproc
 336              	.LFE164:
 338              		.section	.text.sys_mbox_valid,"ax",%progbits
 339              		.align	1
 340              		.global	sys_mbox_valid
 341              		.syntax unified
 342              		.thumb
 343              		.thumb_func
 344              		.fpu fpv5-sp-d16
 346              	sys_mbox_valid:
 347              	.LFB165:
 189:Middlewares/Third_Party/LwIP/system/OS/sys_arch.c **** /*----------------------------------------------------------------------------------*/
 190:Middlewares/Third_Party/LwIP/system/OS/sys_arch.c **** int sys_mbox_valid(sys_mbox_t *mbox)          
 191:Middlewares/Third_Party/LwIP/system/OS/sys_arch.c **** {      
 348              		.loc 1 191 0
 349              		.cfi_startproc
 350              		@ args = 0, pretend = 0, frame = 0
 351              		@ frame_needed = 0, uses_anonymous_args = 0
 352              		@ link register save eliminated.
 353              	.LVL33:
 192:Middlewares/Third_Party/LwIP/system/OS/sys_arch.c ****   if (*mbox == SYS_MBOX_NULL) 
 354              		.loc 1 192 0
 355 0000 0368     		ldr	r3, [r0]
 356 0002 0BB1     		cbz	r3, .L29
 193:Middlewares/Third_Party/LwIP/system/OS/sys_arch.c ****     return 0;
 194:Middlewares/Third_Party/LwIP/system/OS/sys_arch.c ****   else
 195:Middlewares/Third_Party/LwIP/system/OS/sys_arch.c ****     return 1;
 357              		.loc 1 195 0
 358 0004 0120     		movs	r0, #1
 359              	.LVL34:
 196:Middlewares/Third_Party/LwIP/system/OS/sys_arch.c **** }                                             
 360              		.loc 1 196 0
 361 0006 7047     		bx	lr
 362              	.LVL35:
 363              	.L29:
 193:Middlewares/Third_Party/LwIP/system/OS/sys_arch.c ****     return 0;
 364              		.loc 1 193 0
 365 0008 0020     		movs	r0, #0
 366              	.LVL36:
 367 000a 7047     		bx	lr
 368              		.cfi_endproc
 369              	.LFE165:
 371              		.section	.text.sys_mbox_set_invalid,"ax",%progbits
 372              		.align	1
 373              		.global	sys_mbox_set_invalid
 374              		.syntax unified
 375              		.thumb
 376              		.thumb_func
 377              		.fpu fpv5-sp-d16
 379              	sys_mbox_set_invalid:
 380              	.LFB166:
 197:Middlewares/Third_Party/LwIP/system/OS/sys_arch.c **** /*-----------------------------------------------------------------------------------*/            
 198:Middlewares/Third_Party/LwIP/system/OS/sys_arch.c **** void sys_mbox_set_invalid(sys_mbox_t *mbox)   
 199:Middlewares/Third_Party/LwIP/system/OS/sys_arch.c **** {                                             
ARM GAS  C:\Users\milek\AppData\Local\Temp\ccuQHTkW.s 			page 11


 381              		.loc 1 199 0
 382              		.cfi_startproc
 383              		@ args = 0, pretend = 0, frame = 0
 384              		@ frame_needed = 0, uses_anonymous_args = 0
 385              		@ link register save eliminated.
 386              	.LVL37:
 200:Middlewares/Third_Party/LwIP/system/OS/sys_arch.c ****   *mbox = SYS_MBOX_NULL;                      
 387              		.loc 1 200 0
 388 0000 0023     		movs	r3, #0
 389 0002 0360     		str	r3, [r0]
 201:Middlewares/Third_Party/LwIP/system/OS/sys_arch.c **** }                                             
 390              		.loc 1 201 0
 391 0004 7047     		bx	lr
 392              		.cfi_endproc
 393              	.LFE166:
 395              		.section	.text.sys_sem_new,"ax",%progbits
 396              		.align	1
 397              		.global	sys_sem_new
 398              		.syntax unified
 399              		.thumb
 400              		.thumb_func
 401              		.fpu fpv5-sp-d16
 403              	sys_sem_new:
 404              	.LFB167:
 202:Middlewares/Third_Party/LwIP/system/OS/sys_arch.c **** 
 203:Middlewares/Third_Party/LwIP/system/OS/sys_arch.c **** /*-----------------------------------------------------------------------------------*/
 204:Middlewares/Third_Party/LwIP/system/OS/sys_arch.c **** //  Creates a new semaphore. The "count" argument specifies
 205:Middlewares/Third_Party/LwIP/system/OS/sys_arch.c **** //  the initial state of the semaphore.
 206:Middlewares/Third_Party/LwIP/system/OS/sys_arch.c **** err_t sys_sem_new(sys_sem_t *sem, u8_t count)
 207:Middlewares/Third_Party/LwIP/system/OS/sys_arch.c **** {
 405              		.loc 1 207 0
 406              		.cfi_startproc
 407              		@ args = 0, pretend = 0, frame = 8
 408              		@ frame_needed = 0, uses_anonymous_args = 0
 409              	.LVL38:
 410 0000 30B5     		push	{r4, r5, lr}
 411              	.LCFI14:
 412              		.cfi_def_cfa_offset 12
 413              		.cfi_offset 4, -12
 414              		.cfi_offset 5, -8
 415              		.cfi_offset 14, -4
 416 0002 83B0     		sub	sp, sp, #12
 417              	.LCFI15:
 418              		.cfi_def_cfa_offset 24
 419 0004 0446     		mov	r4, r0
 420 0006 0D46     		mov	r5, r1
 208:Middlewares/Third_Party/LwIP/system/OS/sys_arch.c ****   osSemaphoreDef(SEM);
 421              		.loc 1 208 0
 422 0008 02A8     		add	r0, sp, #8
 423              	.LVL39:
 424 000a 0023     		movs	r3, #0
 425 000c 40F8043D 		str	r3, [r0, #-4]!
 209:Middlewares/Third_Party/LwIP/system/OS/sys_arch.c **** 
 210:Middlewares/Third_Party/LwIP/system/OS/sys_arch.c ****   *sem = osSemaphoreCreate (osSemaphore(SEM), 1);
 426              		.loc 1 210 0
 427 0010 0121     		movs	r1, #1
 428              	.LVL40:
ARM GAS  C:\Users\milek\AppData\Local\Temp\ccuQHTkW.s 			page 12


 429 0012 FFF7FEFF 		bl	osSemaphoreCreate
 430              	.LVL41:
 431 0016 2060     		str	r0, [r4]
 211:Middlewares/Third_Party/LwIP/system/OS/sys_arch.c **** 	
 212:Middlewares/Third_Party/LwIP/system/OS/sys_arch.c ****   if(*sem == NULL)
 432              		.loc 1 212 0
 433 0018 40B1     		cbz	r0, .L33
 213:Middlewares/Third_Party/LwIP/system/OS/sys_arch.c ****   {
 214:Middlewares/Third_Party/LwIP/system/OS/sys_arch.c **** #if SYS_STATS
 215:Middlewares/Third_Party/LwIP/system/OS/sys_arch.c ****       ++lwip_stats.sys.sem.err;
 216:Middlewares/Third_Party/LwIP/system/OS/sys_arch.c **** #endif /* SYS_STATS */	
 217:Middlewares/Third_Party/LwIP/system/OS/sys_arch.c **** 		return ERR_MEM;
 218:Middlewares/Third_Party/LwIP/system/OS/sys_arch.c ****   }
 219:Middlewares/Third_Party/LwIP/system/OS/sys_arch.c **** 	
 220:Middlewares/Third_Party/LwIP/system/OS/sys_arch.c ****   if(count == 0)	// Means it can't be taken
 434              		.loc 1 220 0
 435 001a 15B1     		cbz	r5, .L36
 221:Middlewares/Third_Party/LwIP/system/OS/sys_arch.c ****   {
 222:Middlewares/Third_Party/LwIP/system/OS/sys_arch.c ****     osSemaphoreWait(*sem,0);
 223:Middlewares/Third_Party/LwIP/system/OS/sys_arch.c ****   }
 224:Middlewares/Third_Party/LwIP/system/OS/sys_arch.c **** 
 225:Middlewares/Third_Party/LwIP/system/OS/sys_arch.c **** #if SYS_STATS
 226:Middlewares/Third_Party/LwIP/system/OS/sys_arch.c **** 	++lwip_stats.sys.sem.used;
 227:Middlewares/Third_Party/LwIP/system/OS/sys_arch.c ****  	if (lwip_stats.sys.sem.max < lwip_stats.sys.sem.used) {
 228:Middlewares/Third_Party/LwIP/system/OS/sys_arch.c **** 		lwip_stats.sys.sem.max = lwip_stats.sys.sem.used;
 229:Middlewares/Third_Party/LwIP/system/OS/sys_arch.c **** 	}
 230:Middlewares/Third_Party/LwIP/system/OS/sys_arch.c **** #endif /* SYS_STATS */
 231:Middlewares/Third_Party/LwIP/system/OS/sys_arch.c **** 		
 232:Middlewares/Third_Party/LwIP/system/OS/sys_arch.c **** 	return ERR_OK;
 436              		.loc 1 232 0
 437 001c 0020     		movs	r0, #0
 438              	.L32:
 233:Middlewares/Third_Party/LwIP/system/OS/sys_arch.c **** }
 439              		.loc 1 233 0
 440 001e 03B0     		add	sp, sp, #12
 441              	.LCFI16:
 442              		.cfi_remember_state
 443              		.cfi_def_cfa_offset 12
 444              		@ sp needed
 445 0020 30BD     		pop	{r4, r5, pc}
 446              	.LVL42:
 447              	.L36:
 448              	.LCFI17:
 449              		.cfi_restore_state
 222:Middlewares/Third_Party/LwIP/system/OS/sys_arch.c ****   }
 450              		.loc 1 222 0
 451 0022 0021     		movs	r1, #0
 452 0024 FFF7FEFF 		bl	osSemaphoreWait
 453              	.LVL43:
 232:Middlewares/Third_Party/LwIP/system/OS/sys_arch.c **** }
 454              		.loc 1 232 0
 455 0028 0020     		movs	r0, #0
 456 002a F8E7     		b	.L32
 457              	.L33:
 217:Middlewares/Third_Party/LwIP/system/OS/sys_arch.c ****   }
 458              		.loc 1 217 0
 459 002c 4FF0FF30 		mov	r0, #-1
ARM GAS  C:\Users\milek\AppData\Local\Temp\ccuQHTkW.s 			page 13


 460 0030 F5E7     		b	.L32
 461              		.cfi_endproc
 462              	.LFE167:
 464              		.section	.text.sys_arch_sem_wait,"ax",%progbits
 465              		.align	1
 466              		.global	sys_arch_sem_wait
 467              		.syntax unified
 468              		.thumb
 469              		.thumb_func
 470              		.fpu fpv5-sp-d16
 472              	sys_arch_sem_wait:
 473              	.LFB168:
 234:Middlewares/Third_Party/LwIP/system/OS/sys_arch.c **** 
 235:Middlewares/Third_Party/LwIP/system/OS/sys_arch.c **** /*-----------------------------------------------------------------------------------*/
 236:Middlewares/Third_Party/LwIP/system/OS/sys_arch.c **** /*
 237:Middlewares/Third_Party/LwIP/system/OS/sys_arch.c ****   Blocks the thread while waiting for the semaphore to be
 238:Middlewares/Third_Party/LwIP/system/OS/sys_arch.c ****   signaled. If the "timeout" argument is non-zero, the thread should
 239:Middlewares/Third_Party/LwIP/system/OS/sys_arch.c ****   only be blocked for the specified time (measured in
 240:Middlewares/Third_Party/LwIP/system/OS/sys_arch.c ****   milliseconds).
 241:Middlewares/Third_Party/LwIP/system/OS/sys_arch.c **** 
 242:Middlewares/Third_Party/LwIP/system/OS/sys_arch.c ****   If the timeout argument is non-zero, the return value is the number of
 243:Middlewares/Third_Party/LwIP/system/OS/sys_arch.c ****   milliseconds spent waiting for the semaphore to be signaled. If the
 244:Middlewares/Third_Party/LwIP/system/OS/sys_arch.c ****   semaphore wasn't signaled within the specified time, the return value is
 245:Middlewares/Third_Party/LwIP/system/OS/sys_arch.c ****   SYS_ARCH_TIMEOUT. If the thread didn't have to wait for the semaphore
 246:Middlewares/Third_Party/LwIP/system/OS/sys_arch.c ****   (i.e., it was already signaled), the function may return zero.
 247:Middlewares/Third_Party/LwIP/system/OS/sys_arch.c **** 
 248:Middlewares/Third_Party/LwIP/system/OS/sys_arch.c ****   Notice that lwIP implements a function with a similar name,
 249:Middlewares/Third_Party/LwIP/system/OS/sys_arch.c ****   sys_sem_wait(), that uses the sys_arch_sem_wait() function.
 250:Middlewares/Third_Party/LwIP/system/OS/sys_arch.c **** */
 251:Middlewares/Third_Party/LwIP/system/OS/sys_arch.c **** u32_t sys_arch_sem_wait(sys_sem_t *sem, u32_t timeout)
 252:Middlewares/Third_Party/LwIP/system/OS/sys_arch.c **** {
 474              		.loc 1 252 0
 475              		.cfi_startproc
 476              		@ args = 0, pretend = 0, frame = 0
 477              		@ frame_needed = 0, uses_anonymous_args = 0
 478              	.LVL44:
 479 0000 70B5     		push	{r4, r5, r6, lr}
 480              	.LCFI18:
 481              		.cfi_def_cfa_offset 16
 482              		.cfi_offset 4, -16
 483              		.cfi_offset 5, -12
 484              		.cfi_offset 6, -8
 485              		.cfi_offset 14, -4
 486 0002 0446     		mov	r4, r0
 487 0004 0E46     		mov	r6, r1
 253:Middlewares/Third_Party/LwIP/system/OS/sys_arch.c ****   uint32_t starttime = osKernelSysTick();
 488              		.loc 1 253 0
 489 0006 FFF7FEFF 		bl	osKernelSysTick
 490              	.LVL45:
 491 000a 0546     		mov	r5, r0
 492              	.LVL46:
 254:Middlewares/Third_Party/LwIP/system/OS/sys_arch.c ****   
 255:Middlewares/Third_Party/LwIP/system/OS/sys_arch.c ****   if(timeout != 0)
 493              		.loc 1 255 0
 494 000c 56B9     		cbnz	r6, .L42
 495              	.LVL47:
 496              	.L38:
ARM GAS  C:\Users\milek\AppData\Local\Temp\ccuQHTkW.s 			page 14


 256:Middlewares/Third_Party/LwIP/system/OS/sys_arch.c ****   {    
 257:Middlewares/Third_Party/LwIP/system/OS/sys_arch.c ****     if(osSemaphoreWait (*sem, timeout) == osOK)
 258:Middlewares/Third_Party/LwIP/system/OS/sys_arch.c ****     {
 259:Middlewares/Third_Party/LwIP/system/OS/sys_arch.c ****       return (osKernelSysTick() - starttime);
 260:Middlewares/Third_Party/LwIP/system/OS/sys_arch.c ****     }
 261:Middlewares/Third_Party/LwIP/system/OS/sys_arch.c ****     else
 262:Middlewares/Third_Party/LwIP/system/OS/sys_arch.c ****     {
 263:Middlewares/Third_Party/LwIP/system/OS/sys_arch.c ****       return SYS_ARCH_TIMEOUT;
 264:Middlewares/Third_Party/LwIP/system/OS/sys_arch.c ****     } 
 265:Middlewares/Third_Party/LwIP/system/OS/sys_arch.c ****   }
 266:Middlewares/Third_Party/LwIP/system/OS/sys_arch.c ****   else
 267:Middlewares/Third_Party/LwIP/system/OS/sys_arch.c ****   {
 268:Middlewares/Third_Party/LwIP/system/OS/sys_arch.c ****     while(osSemaphoreWait (*sem, osWaitForever) != osOK);
 497              		.loc 1 268 0 discriminator 1
 498 000e 4FF0FF31 		mov	r1, #-1
 499 0012 2068     		ldr	r0, [r4]
 500 0014 FFF7FEFF 		bl	osSemaphoreWait
 501              	.LVL48:
 502 0018 0028     		cmp	r0, #0
 503 001a F8D1     		bne	.L38
 269:Middlewares/Third_Party/LwIP/system/OS/sys_arch.c ****     return (osKernelSysTick() - starttime);
 504              		.loc 1 269 0
 505 001c FFF7FEFF 		bl	osKernelSysTick
 506              	.LVL49:
 507 0020 401B     		subs	r0, r0, r5
 508              	.L37:
 270:Middlewares/Third_Party/LwIP/system/OS/sys_arch.c ****   }
 271:Middlewares/Third_Party/LwIP/system/OS/sys_arch.c **** }
 509              		.loc 1 271 0
 510 0022 70BD     		pop	{r4, r5, r6, pc}
 511              	.LVL50:
 512              	.L42:
 257:Middlewares/Third_Party/LwIP/system/OS/sys_arch.c ****     {
 513              		.loc 1 257 0
 514 0024 3146     		mov	r1, r6
 515 0026 2068     		ldr	r0, [r4]
 516              	.LVL51:
 517 0028 FFF7FEFF 		bl	osSemaphoreWait
 518              	.LVL52:
 519 002c 18B9     		cbnz	r0, .L40
 259:Middlewares/Third_Party/LwIP/system/OS/sys_arch.c ****     }
 520              		.loc 1 259 0
 521 002e FFF7FEFF 		bl	osKernelSysTick
 522              	.LVL53:
 523 0032 401B     		subs	r0, r0, r5
 524 0034 F5E7     		b	.L37
 525              	.L40:
 263:Middlewares/Third_Party/LwIP/system/OS/sys_arch.c ****     } 
 526              		.loc 1 263 0
 527 0036 4FF0FF30 		mov	r0, #-1
 528 003a F2E7     		b	.L37
 529              		.cfi_endproc
 530              	.LFE168:
 532              		.section	.text.sys_sem_signal,"ax",%progbits
 533              		.align	1
 534              		.global	sys_sem_signal
 535              		.syntax unified
ARM GAS  C:\Users\milek\AppData\Local\Temp\ccuQHTkW.s 			page 15


 536              		.thumb
 537              		.thumb_func
 538              		.fpu fpv5-sp-d16
 540              	sys_sem_signal:
 541              	.LFB169:
 272:Middlewares/Third_Party/LwIP/system/OS/sys_arch.c **** 
 273:Middlewares/Third_Party/LwIP/system/OS/sys_arch.c **** /*-----------------------------------------------------------------------------------*/
 274:Middlewares/Third_Party/LwIP/system/OS/sys_arch.c **** // Signals a semaphore
 275:Middlewares/Third_Party/LwIP/system/OS/sys_arch.c **** void sys_sem_signal(sys_sem_t *sem)
 276:Middlewares/Third_Party/LwIP/system/OS/sys_arch.c **** {
 542              		.loc 1 276 0
 543              		.cfi_startproc
 544              		@ args = 0, pretend = 0, frame = 0
 545              		@ frame_needed = 0, uses_anonymous_args = 0
 546              	.LVL54:
 547 0000 08B5     		push	{r3, lr}
 548              	.LCFI19:
 549              		.cfi_def_cfa_offset 8
 550              		.cfi_offset 3, -8
 551              		.cfi_offset 14, -4
 277:Middlewares/Third_Party/LwIP/system/OS/sys_arch.c ****   osSemaphoreRelease(*sem);
 552              		.loc 1 277 0
 553 0002 0068     		ldr	r0, [r0]
 554              	.LVL55:
 555 0004 FFF7FEFF 		bl	osSemaphoreRelease
 556              	.LVL56:
 278:Middlewares/Third_Party/LwIP/system/OS/sys_arch.c **** }
 557              		.loc 1 278 0
 558 0008 08BD     		pop	{r3, pc}
 559              		.cfi_endproc
 560              	.LFE169:
 562              		.section	.text.sys_sem_free,"ax",%progbits
 563              		.align	1
 564              		.global	sys_sem_free
 565              		.syntax unified
 566              		.thumb
 567              		.thumb_func
 568              		.fpu fpv5-sp-d16
 570              	sys_sem_free:
 571              	.LFB170:
 279:Middlewares/Third_Party/LwIP/system/OS/sys_arch.c **** 
 280:Middlewares/Third_Party/LwIP/system/OS/sys_arch.c **** /*-----------------------------------------------------------------------------------*/
 281:Middlewares/Third_Party/LwIP/system/OS/sys_arch.c **** // Deallocates a semaphore
 282:Middlewares/Third_Party/LwIP/system/OS/sys_arch.c **** void sys_sem_free(sys_sem_t *sem)
 283:Middlewares/Third_Party/LwIP/system/OS/sys_arch.c **** {
 572              		.loc 1 283 0
 573              		.cfi_startproc
 574              		@ args = 0, pretend = 0, frame = 0
 575              		@ frame_needed = 0, uses_anonymous_args = 0
 576              	.LVL57:
 577 0000 08B5     		push	{r3, lr}
 578              	.LCFI20:
 579              		.cfi_def_cfa_offset 8
 580              		.cfi_offset 3, -8
 581              		.cfi_offset 14, -4
 284:Middlewares/Third_Party/LwIP/system/OS/sys_arch.c **** #if SYS_STATS
 285:Middlewares/Third_Party/LwIP/system/OS/sys_arch.c ****   --lwip_stats.sys.sem.used;
ARM GAS  C:\Users\milek\AppData\Local\Temp\ccuQHTkW.s 			page 16


 286:Middlewares/Third_Party/LwIP/system/OS/sys_arch.c **** #endif /* SYS_STATS */
 287:Middlewares/Third_Party/LwIP/system/OS/sys_arch.c ****   
 288:Middlewares/Third_Party/LwIP/system/OS/sys_arch.c ****   osSemaphoreDelete(*sem);
 582              		.loc 1 288 0
 583 0002 0068     		ldr	r0, [r0]
 584              	.LVL58:
 585 0004 FFF7FEFF 		bl	osSemaphoreDelete
 586              	.LVL59:
 289:Middlewares/Third_Party/LwIP/system/OS/sys_arch.c **** }
 587              		.loc 1 289 0
 588 0008 08BD     		pop	{r3, pc}
 589              		.cfi_endproc
 590              	.LFE170:
 592              		.section	.text.sys_sem_valid,"ax",%progbits
 593              		.align	1
 594              		.global	sys_sem_valid
 595              		.syntax unified
 596              		.thumb
 597              		.thumb_func
 598              		.fpu fpv5-sp-d16
 600              	sys_sem_valid:
 601              	.LFB171:
 290:Middlewares/Third_Party/LwIP/system/OS/sys_arch.c **** /*-----------------------------------------------------------------------------------*/
 291:Middlewares/Third_Party/LwIP/system/OS/sys_arch.c **** int sys_sem_valid(sys_sem_t *sem)                                               
 292:Middlewares/Third_Party/LwIP/system/OS/sys_arch.c **** {
 602              		.loc 1 292 0
 603              		.cfi_startproc
 604              		@ args = 0, pretend = 0, frame = 0
 605              		@ frame_needed = 0, uses_anonymous_args = 0
 606              		@ link register save eliminated.
 607              	.LVL60:
 293:Middlewares/Third_Party/LwIP/system/OS/sys_arch.c ****   if (*sem == SYS_SEM_NULL)
 608              		.loc 1 293 0
 609 0000 0368     		ldr	r3, [r0]
 610 0002 0BB1     		cbz	r3, .L50
 294:Middlewares/Third_Party/LwIP/system/OS/sys_arch.c ****     return 0;
 295:Middlewares/Third_Party/LwIP/system/OS/sys_arch.c ****   else
 296:Middlewares/Third_Party/LwIP/system/OS/sys_arch.c ****     return 1;                                       
 611              		.loc 1 296 0
 612 0004 0120     		movs	r0, #1
 613              	.LVL61:
 297:Middlewares/Third_Party/LwIP/system/OS/sys_arch.c **** }
 614              		.loc 1 297 0
 615 0006 7047     		bx	lr
 616              	.LVL62:
 617              	.L50:
 294:Middlewares/Third_Party/LwIP/system/OS/sys_arch.c ****     return 0;
 618              		.loc 1 294 0
 619 0008 0020     		movs	r0, #0
 620              	.LVL63:
 621 000a 7047     		bx	lr
 622              		.cfi_endproc
 623              	.LFE171:
 625              		.section	.text.sys_sem_set_invalid,"ax",%progbits
 626              		.align	1
 627              		.global	sys_sem_set_invalid
 628              		.syntax unified
ARM GAS  C:\Users\milek\AppData\Local\Temp\ccuQHTkW.s 			page 17


 629              		.thumb
 630              		.thumb_func
 631              		.fpu fpv5-sp-d16
 633              	sys_sem_set_invalid:
 634              	.LFB172:
 298:Middlewares/Third_Party/LwIP/system/OS/sys_arch.c **** 
 299:Middlewares/Third_Party/LwIP/system/OS/sys_arch.c **** /*-----------------------------------------------------------------------------------*/            
 300:Middlewares/Third_Party/LwIP/system/OS/sys_arch.c **** void sys_sem_set_invalid(sys_sem_t *sem)                                        
 301:Middlewares/Third_Party/LwIP/system/OS/sys_arch.c **** {                                                                               
 635              		.loc 1 301 0
 636              		.cfi_startproc
 637              		@ args = 0, pretend = 0, frame = 0
 638              		@ frame_needed = 0, uses_anonymous_args = 0
 639              		@ link register save eliminated.
 640              	.LVL64:
 302:Middlewares/Third_Party/LwIP/system/OS/sys_arch.c ****   *sem = SYS_SEM_NULL;                                                          
 641              		.loc 1 302 0
 642 0000 0023     		movs	r3, #0
 643 0002 0360     		str	r3, [r0]
 303:Middlewares/Third_Party/LwIP/system/OS/sys_arch.c **** } 
 644              		.loc 1 303 0
 645 0004 7047     		bx	lr
 646              		.cfi_endproc
 647              	.LFE172:
 649              		.section	.text.sys_init,"ax",%progbits
 650              		.align	1
 651              		.global	sys_init
 652              		.syntax unified
 653              		.thumb
 654              		.thumb_func
 655              		.fpu fpv5-sp-d16
 657              	sys_init:
 658              	.LFB173:
 304:Middlewares/Third_Party/LwIP/system/OS/sys_arch.c **** 
 305:Middlewares/Third_Party/LwIP/system/OS/sys_arch.c **** /*-----------------------------------------------------------------------------------*/ 
 306:Middlewares/Third_Party/LwIP/system/OS/sys_arch.c **** osMutexId lwip_sys_mutex;
 307:Middlewares/Third_Party/LwIP/system/OS/sys_arch.c **** osMutexDef(lwip_sys_mutex);
 308:Middlewares/Third_Party/LwIP/system/OS/sys_arch.c **** // Initialize sys arch
 309:Middlewares/Third_Party/LwIP/system/OS/sys_arch.c **** void sys_init(void)
 310:Middlewares/Third_Party/LwIP/system/OS/sys_arch.c **** {
 659              		.loc 1 310 0
 660              		.cfi_startproc
 661              		@ args = 0, pretend = 0, frame = 0
 662              		@ frame_needed = 0, uses_anonymous_args = 0
 663 0000 08B5     		push	{r3, lr}
 664              	.LCFI21:
 665              		.cfi_def_cfa_offset 8
 666              		.cfi_offset 3, -8
 667              		.cfi_offset 14, -4
 311:Middlewares/Third_Party/LwIP/system/OS/sys_arch.c ****   lwip_sys_mutex = osMutexCreate(osMutex(lwip_sys_mutex));
 668              		.loc 1 311 0
 669 0002 0348     		ldr	r0, .L54
 670 0004 FFF7FEFF 		bl	osMutexCreate
 671              	.LVL65:
 672 0008 024B     		ldr	r3, .L54+4
 673 000a 1860     		str	r0, [r3]
 312:Middlewares/Third_Party/LwIP/system/OS/sys_arch.c **** }
ARM GAS  C:\Users\milek\AppData\Local\Temp\ccuQHTkW.s 			page 18


 674              		.loc 1 312 0
 675 000c 08BD     		pop	{r3, pc}
 676              	.L55:
 677 000e 00BF     		.align	2
 678              	.L54:
 679 0010 00000000 		.word	.LANCHOR0
 680 0014 00000000 		.word	lwip_sys_mutex
 681              		.cfi_endproc
 682              	.LFE173:
 684              		.section	.text.sys_mutex_new,"ax",%progbits
 685              		.align	1
 686              		.global	sys_mutex_new
 687              		.syntax unified
 688              		.thumb
 689              		.thumb_func
 690              		.fpu fpv5-sp-d16
 692              	sys_mutex_new:
 693              	.LFB174:
 313:Middlewares/Third_Party/LwIP/system/OS/sys_arch.c **** /*-----------------------------------------------------------------------------------*/
 314:Middlewares/Third_Party/LwIP/system/OS/sys_arch.c ****                                       /* Mutexes*/
 315:Middlewares/Third_Party/LwIP/system/OS/sys_arch.c **** /*-----------------------------------------------------------------------------------*/
 316:Middlewares/Third_Party/LwIP/system/OS/sys_arch.c **** /*-----------------------------------------------------------------------------------*/
 317:Middlewares/Third_Party/LwIP/system/OS/sys_arch.c **** #if LWIP_COMPAT_MUTEX == 0
 318:Middlewares/Third_Party/LwIP/system/OS/sys_arch.c **** /* Create a new mutex*/
 319:Middlewares/Third_Party/LwIP/system/OS/sys_arch.c **** err_t sys_mutex_new(sys_mutex_t *mutex) {
 694              		.loc 1 319 0
 695              		.cfi_startproc
 696              		@ args = 0, pretend = 0, frame = 8
 697              		@ frame_needed = 0, uses_anonymous_args = 0
 698              	.LVL66:
 699 0000 10B5     		push	{r4, lr}
 700              	.LCFI22:
 701              		.cfi_def_cfa_offset 8
 702              		.cfi_offset 4, -8
 703              		.cfi_offset 14, -4
 704 0002 82B0     		sub	sp, sp, #8
 705              	.LCFI23:
 706              		.cfi_def_cfa_offset 16
 707 0004 0446     		mov	r4, r0
 320:Middlewares/Third_Party/LwIP/system/OS/sys_arch.c ****   
 321:Middlewares/Third_Party/LwIP/system/OS/sys_arch.c ****   osMutexDef(MUTEX);
 708              		.loc 1 321 0
 709 0006 02A8     		add	r0, sp, #8
 710              	.LVL67:
 711 0008 0023     		movs	r3, #0
 712 000a 40F8043D 		str	r3, [r0, #-4]!
 322:Middlewares/Third_Party/LwIP/system/OS/sys_arch.c ****   
 323:Middlewares/Third_Party/LwIP/system/OS/sys_arch.c ****   *mutex = osMutexCreate(osMutex(MUTEX));
 713              		.loc 1 323 0
 714 000e FFF7FEFF 		bl	osMutexCreate
 715              	.LVL68:
 716 0012 2060     		str	r0, [r4]
 324:Middlewares/Third_Party/LwIP/system/OS/sys_arch.c ****   
 325:Middlewares/Third_Party/LwIP/system/OS/sys_arch.c ****   
 326:Middlewares/Third_Party/LwIP/system/OS/sys_arch.c ****   //*mutex = xSemaphoreCreateMutex();
 327:Middlewares/Third_Party/LwIP/system/OS/sys_arch.c ****   if(*mutex == NULL)
 717              		.loc 1 327 0
ARM GAS  C:\Users\milek\AppData\Local\Temp\ccuQHTkW.s 			page 19


 718 0014 10B1     		cbz	r0, .L60
 328:Middlewares/Third_Party/LwIP/system/OS/sys_arch.c ****   {
 329:Middlewares/Third_Party/LwIP/system/OS/sys_arch.c **** #if SYS_STATS
 330:Middlewares/Third_Party/LwIP/system/OS/sys_arch.c ****     ++lwip_stats.sys.mutex.err;
 331:Middlewares/Third_Party/LwIP/system/OS/sys_arch.c **** #endif /* SYS_STATS */	
 332:Middlewares/Third_Party/LwIP/system/OS/sys_arch.c ****     return ERR_MEM;
 333:Middlewares/Third_Party/LwIP/system/OS/sys_arch.c ****   }
 334:Middlewares/Third_Party/LwIP/system/OS/sys_arch.c ****   
 335:Middlewares/Third_Party/LwIP/system/OS/sys_arch.c **** #if SYS_STATS
 336:Middlewares/Third_Party/LwIP/system/OS/sys_arch.c ****   ++lwip_stats.sys.mutex.used;
 337:Middlewares/Third_Party/LwIP/system/OS/sys_arch.c ****   if (lwip_stats.sys.mutex.max < lwip_stats.sys.mutex.used) {
 338:Middlewares/Third_Party/LwIP/system/OS/sys_arch.c ****     lwip_stats.sys.mutex.max = lwip_stats.sys.mutex.used;
 339:Middlewares/Third_Party/LwIP/system/OS/sys_arch.c ****   }
 340:Middlewares/Third_Party/LwIP/system/OS/sys_arch.c **** #endif /* SYS_STATS */
 341:Middlewares/Third_Party/LwIP/system/OS/sys_arch.c ****   return ERR_OK;
 719              		.loc 1 341 0
 720 0016 0020     		movs	r0, #0
 721              	.L57:
 342:Middlewares/Third_Party/LwIP/system/OS/sys_arch.c **** }
 722              		.loc 1 342 0
 723 0018 02B0     		add	sp, sp, #8
 724              	.LCFI24:
 725              		.cfi_remember_state
 726              		.cfi_def_cfa_offset 8
 727              		@ sp needed
 728 001a 10BD     		pop	{r4, pc}
 729              	.LVL69:
 730              	.L60:
 731              	.LCFI25:
 732              		.cfi_restore_state
 332:Middlewares/Third_Party/LwIP/system/OS/sys_arch.c ****   }
 733              		.loc 1 332 0
 734 001c 4FF0FF30 		mov	r0, #-1
 735 0020 FAE7     		b	.L57
 736              		.cfi_endproc
 737              	.LFE174:
 739              		.section	.text.sys_mutex_free,"ax",%progbits
 740              		.align	1
 741              		.global	sys_mutex_free
 742              		.syntax unified
 743              		.thumb
 744              		.thumb_func
 745              		.fpu fpv5-sp-d16
 747              	sys_mutex_free:
 748              	.LFB175:
 343:Middlewares/Third_Party/LwIP/system/OS/sys_arch.c **** /*-----------------------------------------------------------------------------------*/
 344:Middlewares/Third_Party/LwIP/system/OS/sys_arch.c **** /* Deallocate a mutex*/
 345:Middlewares/Third_Party/LwIP/system/OS/sys_arch.c **** void sys_mutex_free(sys_mutex_t *mutex)
 346:Middlewares/Third_Party/LwIP/system/OS/sys_arch.c **** {
 749              		.loc 1 346 0
 750              		.cfi_startproc
 751              		@ args = 0, pretend = 0, frame = 0
 752              		@ frame_needed = 0, uses_anonymous_args = 0
 753              	.LVL70:
 754 0000 08B5     		push	{r3, lr}
 755              	.LCFI26:
 756              		.cfi_def_cfa_offset 8
ARM GAS  C:\Users\milek\AppData\Local\Temp\ccuQHTkW.s 			page 20


 757              		.cfi_offset 3, -8
 758              		.cfi_offset 14, -4
 347:Middlewares/Third_Party/LwIP/system/OS/sys_arch.c **** #if SYS_STATS
 348:Middlewares/Third_Party/LwIP/system/OS/sys_arch.c ****       --lwip_stats.sys.mutex.used;
 349:Middlewares/Third_Party/LwIP/system/OS/sys_arch.c **** #endif /* SYS_STATS */
 350:Middlewares/Third_Party/LwIP/system/OS/sys_arch.c **** 			
 351:Middlewares/Third_Party/LwIP/system/OS/sys_arch.c ****   osMutexDelete(*mutex);
 759              		.loc 1 351 0
 760 0002 0068     		ldr	r0, [r0]
 761              	.LVL71:
 762 0004 FFF7FEFF 		bl	osMutexDelete
 763              	.LVL72:
 352:Middlewares/Third_Party/LwIP/system/OS/sys_arch.c **** }
 764              		.loc 1 352 0
 765 0008 08BD     		pop	{r3, pc}
 766              		.cfi_endproc
 767              	.LFE175:
 769              		.section	.text.sys_mutex_lock,"ax",%progbits
 770              		.align	1
 771              		.global	sys_mutex_lock
 772              		.syntax unified
 773              		.thumb
 774              		.thumb_func
 775              		.fpu fpv5-sp-d16
 777              	sys_mutex_lock:
 778              	.LFB176:
 353:Middlewares/Third_Party/LwIP/system/OS/sys_arch.c **** /*-----------------------------------------------------------------------------------*/
 354:Middlewares/Third_Party/LwIP/system/OS/sys_arch.c **** /* Lock a mutex*/
 355:Middlewares/Third_Party/LwIP/system/OS/sys_arch.c **** void sys_mutex_lock(sys_mutex_t *mutex)
 356:Middlewares/Third_Party/LwIP/system/OS/sys_arch.c **** {
 779              		.loc 1 356 0
 780              		.cfi_startproc
 781              		@ args = 0, pretend = 0, frame = 0
 782              		@ frame_needed = 0, uses_anonymous_args = 0
 783              	.LVL73:
 784 0000 08B5     		push	{r3, lr}
 785              	.LCFI27:
 786              		.cfi_def_cfa_offset 8
 787              		.cfi_offset 3, -8
 788              		.cfi_offset 14, -4
 357:Middlewares/Third_Party/LwIP/system/OS/sys_arch.c ****   osMutexWait (*mutex, osWaitForever);
 789              		.loc 1 357 0
 790 0002 4FF0FF31 		mov	r1, #-1
 791 0006 0068     		ldr	r0, [r0]
 792              	.LVL74:
 793 0008 FFF7FEFF 		bl	osMutexWait
 794              	.LVL75:
 358:Middlewares/Third_Party/LwIP/system/OS/sys_arch.c **** }
 795              		.loc 1 358 0
 796 000c 08BD     		pop	{r3, pc}
 797              		.cfi_endproc
 798              	.LFE176:
 800              		.section	.text.sys_mutex_unlock,"ax",%progbits
 801              		.align	1
 802              		.global	sys_mutex_unlock
 803              		.syntax unified
 804              		.thumb
ARM GAS  C:\Users\milek\AppData\Local\Temp\ccuQHTkW.s 			page 21


 805              		.thumb_func
 806              		.fpu fpv5-sp-d16
 808              	sys_mutex_unlock:
 809              	.LFB177:
 359:Middlewares/Third_Party/LwIP/system/OS/sys_arch.c **** 
 360:Middlewares/Third_Party/LwIP/system/OS/sys_arch.c **** /*-----------------------------------------------------------------------------------*/
 361:Middlewares/Third_Party/LwIP/system/OS/sys_arch.c **** /* Unlock a mutex*/
 362:Middlewares/Third_Party/LwIP/system/OS/sys_arch.c **** void sys_mutex_unlock(sys_mutex_t *mutex)
 363:Middlewares/Third_Party/LwIP/system/OS/sys_arch.c **** {
 810              		.loc 1 363 0
 811              		.cfi_startproc
 812              		@ args = 0, pretend = 0, frame = 0
 813              		@ frame_needed = 0, uses_anonymous_args = 0
 814              	.LVL76:
 815 0000 08B5     		push	{r3, lr}
 816              	.LCFI28:
 817              		.cfi_def_cfa_offset 8
 818              		.cfi_offset 3, -8
 819              		.cfi_offset 14, -4
 364:Middlewares/Third_Party/LwIP/system/OS/sys_arch.c ****   osMutexRelease(*mutex);
 820              		.loc 1 364 0
 821 0002 0068     		ldr	r0, [r0]
 822              	.LVL77:
 823 0004 FFF7FEFF 		bl	osMutexRelease
 824              	.LVL78:
 365:Middlewares/Third_Party/LwIP/system/OS/sys_arch.c **** }
 825              		.loc 1 365 0
 826 0008 08BD     		pop	{r3, pc}
 827              		.cfi_endproc
 828              	.LFE177:
 830              		.section	.text.sys_thread_new,"ax",%progbits
 831              		.align	1
 832              		.global	sys_thread_new
 833              		.syntax unified
 834              		.thumb
 835              		.thumb_func
 836              		.fpu fpv5-sp-d16
 838              	sys_thread_new:
 839              	.LFB178:
 366:Middlewares/Third_Party/LwIP/system/OS/sys_arch.c **** #endif /*LWIP_COMPAT_MUTEX*/
 367:Middlewares/Third_Party/LwIP/system/OS/sys_arch.c **** /*-----------------------------------------------------------------------------------*/
 368:Middlewares/Third_Party/LwIP/system/OS/sys_arch.c **** // TODO
 369:Middlewares/Third_Party/LwIP/system/OS/sys_arch.c **** /*-----------------------------------------------------------------------------------*/
 370:Middlewares/Third_Party/LwIP/system/OS/sys_arch.c **** /*
 371:Middlewares/Third_Party/LwIP/system/OS/sys_arch.c ****   Starts a new thread with priority "prio" that will begin its execution in the
 372:Middlewares/Third_Party/LwIP/system/OS/sys_arch.c ****   function "thread()". The "arg" argument will be passed as an argument to the
 373:Middlewares/Third_Party/LwIP/system/OS/sys_arch.c ****   thread() function. The id of the new thread is returned. Both the id and
 374:Middlewares/Third_Party/LwIP/system/OS/sys_arch.c ****   the priority are system dependent.
 375:Middlewares/Third_Party/LwIP/system/OS/sys_arch.c **** */
 376:Middlewares/Third_Party/LwIP/system/OS/sys_arch.c **** sys_thread_t sys_thread_new(const char *name, lwip_thread_fn thread , void *arg, int stacksize, int
 377:Middlewares/Third_Party/LwIP/system/OS/sys_arch.c **** {
 840              		.loc 1 377 0
 841              		.cfi_startproc
 842              		@ args = 4, pretend = 0, frame = 24
 843              		@ frame_needed = 0, uses_anonymous_args = 0
 844              	.LVL79:
 845 0000 00B5     		push	{lr}
ARM GAS  C:\Users\milek\AppData\Local\Temp\ccuQHTkW.s 			page 22


 846              	.LCFI29:
 847              		.cfi_def_cfa_offset 4
 848              		.cfi_offset 14, -4
 849 0002 87B0     		sub	sp, sp, #28
 850              	.LCFI30:
 851              		.cfi_def_cfa_offset 32
 378:Middlewares/Third_Party/LwIP/system/OS/sys_arch.c ****   const osThreadDef_t os_thread_def = { (char *)name, (os_pthread)thread, (osPriority)prio, 0, stac
 852              		.loc 1 378 0
 853 0004 0190     		str	r0, [sp, #4]
 854 0006 0291     		str	r1, [sp, #8]
 855 0008 BDF92010 		ldrsh	r1, [sp, #32]
 856              	.LVL80:
 857 000c ADF80C10 		strh	r1, [sp, #12]	@ movhi
 858 0010 0021     		movs	r1, #0
 859 0012 0491     		str	r1, [sp, #16]
 860 0014 0593     		str	r3, [sp, #20]
 379:Middlewares/Third_Party/LwIP/system/OS/sys_arch.c ****   return osThreadCreate(&os_thread_def, arg);
 861              		.loc 1 379 0
 862 0016 1146     		mov	r1, r2
 863 0018 01A8     		add	r0, sp, #4
 864              	.LVL81:
 865 001a FFF7FEFF 		bl	osThreadCreate
 866              	.LVL82:
 380:Middlewares/Third_Party/LwIP/system/OS/sys_arch.c **** }
 867              		.loc 1 380 0
 868 001e 07B0     		add	sp, sp, #28
 869              	.LCFI31:
 870              		.cfi_def_cfa_offset 4
 871              		@ sp needed
 872 0020 5DF804FB 		ldr	pc, [sp], #4
 873              		.cfi_endproc
 874              	.LFE178:
 876              		.section	.text.sys_arch_protect,"ax",%progbits
 877              		.align	1
 878              		.global	sys_arch_protect
 879              		.syntax unified
 880              		.thumb
 881              		.thumb_func
 882              		.fpu fpv5-sp-d16
 884              	sys_arch_protect:
 885              	.LFB179:
 381:Middlewares/Third_Party/LwIP/system/OS/sys_arch.c **** 
 382:Middlewares/Third_Party/LwIP/system/OS/sys_arch.c **** /*
 383:Middlewares/Third_Party/LwIP/system/OS/sys_arch.c ****   This optional function does a "fast" critical region protection and returns
 384:Middlewares/Third_Party/LwIP/system/OS/sys_arch.c ****   the previous protection level. This function is only called during very short
 385:Middlewares/Third_Party/LwIP/system/OS/sys_arch.c ****   critical regions. An embedded system which supports ISR-based drivers might
 386:Middlewares/Third_Party/LwIP/system/OS/sys_arch.c ****   want to implement this function by disabling interrupts. Task-based systems
 387:Middlewares/Third_Party/LwIP/system/OS/sys_arch.c ****   might want to implement this by using a mutex or disabling tasking. This
 388:Middlewares/Third_Party/LwIP/system/OS/sys_arch.c ****   function should support recursive calls from the same task or interrupt. In
 389:Middlewares/Third_Party/LwIP/system/OS/sys_arch.c ****   other words, sys_arch_protect() could be called while already protected. In
 390:Middlewares/Third_Party/LwIP/system/OS/sys_arch.c ****   that case the return value indicates that it is already protected.
 391:Middlewares/Third_Party/LwIP/system/OS/sys_arch.c **** 
 392:Middlewares/Third_Party/LwIP/system/OS/sys_arch.c ****   sys_arch_protect() is only required if your port is supporting an operating
 393:Middlewares/Third_Party/LwIP/system/OS/sys_arch.c ****   system.
 394:Middlewares/Third_Party/LwIP/system/OS/sys_arch.c **** 
 395:Middlewares/Third_Party/LwIP/system/OS/sys_arch.c ****   Note: This function is based on FreeRTOS API, because no equivalent CMSIS-RTOS
 396:Middlewares/Third_Party/LwIP/system/OS/sys_arch.c ****         API is available
ARM GAS  C:\Users\milek\AppData\Local\Temp\ccuQHTkW.s 			page 23


 397:Middlewares/Third_Party/LwIP/system/OS/sys_arch.c **** */
 398:Middlewares/Third_Party/LwIP/system/OS/sys_arch.c **** sys_prot_t sys_arch_protect(void)
 399:Middlewares/Third_Party/LwIP/system/OS/sys_arch.c **** {
 886              		.loc 1 399 0
 887              		.cfi_startproc
 888              		@ args = 0, pretend = 0, frame = 0
 889              		@ frame_needed = 0, uses_anonymous_args = 0
 890 0000 08B5     		push	{r3, lr}
 891              	.LCFI32:
 892              		.cfi_def_cfa_offset 8
 893              		.cfi_offset 3, -8
 894              		.cfi_offset 14, -4
 400:Middlewares/Third_Party/LwIP/system/OS/sys_arch.c ****   osMutexWait(lwip_sys_mutex, osWaitForever);
 895              		.loc 1 400 0
 896 0002 4FF0FF31 		mov	r1, #-1
 897 0006 034B     		ldr	r3, .L71
 898 0008 1868     		ldr	r0, [r3]
 899 000a FFF7FEFF 		bl	osMutexWait
 900              	.LVL83:
 401:Middlewares/Third_Party/LwIP/system/OS/sys_arch.c ****   return (sys_prot_t)1;
 402:Middlewares/Third_Party/LwIP/system/OS/sys_arch.c **** }
 901              		.loc 1 402 0
 902 000e 0120     		movs	r0, #1
 903 0010 08BD     		pop	{r3, pc}
 904              	.L72:
 905 0012 00BF     		.align	2
 906              	.L71:
 907 0014 00000000 		.word	lwip_sys_mutex
 908              		.cfi_endproc
 909              	.LFE179:
 911              		.section	.text.sys_arch_unprotect,"ax",%progbits
 912              		.align	1
 913              		.global	sys_arch_unprotect
 914              		.syntax unified
 915              		.thumb
 916              		.thumb_func
 917              		.fpu fpv5-sp-d16
 919              	sys_arch_unprotect:
 920              	.LFB180:
 403:Middlewares/Third_Party/LwIP/system/OS/sys_arch.c **** 
 404:Middlewares/Third_Party/LwIP/system/OS/sys_arch.c **** 
 405:Middlewares/Third_Party/LwIP/system/OS/sys_arch.c **** /*
 406:Middlewares/Third_Party/LwIP/system/OS/sys_arch.c ****   This optional function does a "fast" set of critical region protection to the
 407:Middlewares/Third_Party/LwIP/system/OS/sys_arch.c ****   value specified by pval. See the documentation for sys_arch_protect() for
 408:Middlewares/Third_Party/LwIP/system/OS/sys_arch.c ****   more information. This function is only required if your port is supporting
 409:Middlewares/Third_Party/LwIP/system/OS/sys_arch.c ****   an operating system.
 410:Middlewares/Third_Party/LwIP/system/OS/sys_arch.c **** 
 411:Middlewares/Third_Party/LwIP/system/OS/sys_arch.c ****   Note: This function is based on FreeRTOS API, because no equivalent CMSIS-RTOS
 412:Middlewares/Third_Party/LwIP/system/OS/sys_arch.c ****         API is available
 413:Middlewares/Third_Party/LwIP/system/OS/sys_arch.c **** */
 414:Middlewares/Third_Party/LwIP/system/OS/sys_arch.c **** void sys_arch_unprotect(sys_prot_t pval)
 415:Middlewares/Third_Party/LwIP/system/OS/sys_arch.c **** {
 921              		.loc 1 415 0
 922              		.cfi_startproc
 923              		@ args = 0, pretend = 0, frame = 0
 924              		@ frame_needed = 0, uses_anonymous_args = 0
 925              	.LVL84:
ARM GAS  C:\Users\milek\AppData\Local\Temp\ccuQHTkW.s 			page 24


 926 0000 08B5     		push	{r3, lr}
 927              	.LCFI33:
 928              		.cfi_def_cfa_offset 8
 929              		.cfi_offset 3, -8
 930              		.cfi_offset 14, -4
 416:Middlewares/Third_Party/LwIP/system/OS/sys_arch.c ****   ( void ) pval;
 417:Middlewares/Third_Party/LwIP/system/OS/sys_arch.c ****   osMutexRelease(lwip_sys_mutex);
 931              		.loc 1 417 0
 932 0002 024B     		ldr	r3, .L75
 933 0004 1868     		ldr	r0, [r3]
 934              	.LVL85:
 935 0006 FFF7FEFF 		bl	osMutexRelease
 936              	.LVL86:
 418:Middlewares/Third_Party/LwIP/system/OS/sys_arch.c **** }
 937              		.loc 1 418 0
 938 000a 08BD     		pop	{r3, pc}
 939              	.L76:
 940              		.align	2
 941              	.L75:
 942 000c 00000000 		.word	lwip_sys_mutex
 943              		.cfi_endproc
 944              	.LFE180:
 946              		.global	os_mutex_def_lwip_sys_mutex
 947              		.comm	lwip_sys_mutex,4,4
 948              		.comm	errno,4,4
 949              		.section	.rodata.os_mutex_def_lwip_sys_mutex,"a",%progbits
 950              		.align	2
 951              		.set	.LANCHOR0,. + 0
 954              	os_mutex_def_lwip_sys_mutex:
 955 0000 00000000 		.space	4
 956              		.text
 957              	.Letext0:
 958              		.file 2 "d:\\program files (x86)\\gnu\\7_2018-q2-update\\arm-none-eabi\\include\\machine\\_default
 959              		.file 3 "d:\\program files (x86)\\gnu\\7_2018-q2-update\\arm-none-eabi\\include\\sys\\lock.h"
 960              		.file 4 "d:\\program files (x86)\\gnu\\7_2018-q2-update\\arm-none-eabi\\include\\sys\\_types.h"
 961              		.file 5 "d:\\program files (x86)\\gnu\\7_2018-q2-update\\lib\\gcc\\arm-none-eabi\\7.3.1\\include\\
 962              		.file 6 "d:\\program files (x86)\\gnu\\7_2018-q2-update\\arm-none-eabi\\include\\sys\\reent.h"
 963              		.file 7 "d:\\program files (x86)\\gnu\\7_2018-q2-update\\arm-none-eabi\\include\\stdlib.h"
 964              		.file 8 "d:\\program files (x86)\\gnu\\7_2018-q2-update\\arm-none-eabi\\include\\sys\\_stdint.h"
 965              		.file 9 "Middlewares/Third_Party/LwIP/system/arch/cc.h"
 966              		.file 10 "d:\\program files (x86)\\gnu\\7_2018-q2-update\\arm-none-eabi\\include\\time.h"
 967              		.file 11 "Middlewares/Third_Party/LwIP/src/include/lwip/arch.h"
 968              		.file 12 "Drivers/CMSIS/Include/core_cm7.h"
 969              		.file 13 "Drivers/CMSIS/Device/ST/STM32F7xx/Include/system_stm32f7xx.h"
 970              		.file 14 "Middlewares/Third_Party/LwIP/src/include/lwip/err.h"
 971              		.file 15 "Middlewares/Third_Party/FreeRTOS/Source/include/task.h"
 972              		.file 16 "Middlewares/Third_Party/FreeRTOS/Source/include/queue.h"
 973              		.file 17 "Middlewares/Third_Party/FreeRTOS/Source/include/semphr.h"
 974              		.file 18 "Middlewares/Third_Party/FreeRTOS/Source/CMSIS_RTOS/cmsis_os.h"
 975              		.file 19 "Middlewares/Third_Party/LwIP/system/arch/sys_arch.h"
 976              		.file 20 "Middlewares/Third_Party/LwIP/src/include/lwip/sys.h"
 977              		.file 21 "Middlewares/Third_Party/LwIP/src/include/lwip/memp.h"
 978              		.file 22 "Middlewares/Third_Party/LwIP/src/include/lwip/priv/memp_priv.h"
ARM GAS  C:\Users\milek\AppData\Local\Temp\ccuQHTkW.s 			page 25


DEFINED SYMBOLS
                            *ABS*:00000000 sys_arch.c
C:\Users\milek\AppData\Local\Temp\ccuQHTkW.s:18     .text.sys_mbox_new:00000000 $t
C:\Users\milek\AppData\Local\Temp\ccuQHTkW.s:25     .text.sys_mbox_new:00000000 sys_mbox_new
C:\Users\milek\AppData\Local\Temp\ccuQHTkW.s:77     .text.sys_mbox_free:00000000 $t
C:\Users\milek\AppData\Local\Temp\ccuQHTkW.s:84     .text.sys_mbox_free:00000000 sys_mbox_free
C:\Users\milek\AppData\Local\Temp\ccuQHTkW.s:112    .text.sys_mbox_post:00000000 $t
C:\Users\milek\AppData\Local\Temp\ccuQHTkW.s:119    .text.sys_mbox_post:00000000 sys_mbox_post
C:\Users\milek\AppData\Local\Temp\ccuQHTkW.s:151    .text.sys_mbox_trypost:00000000 $t
C:\Users\milek\AppData\Local\Temp\ccuQHTkW.s:158    .text.sys_mbox_trypost:00000000 sys_mbox_trypost
C:\Users\milek\AppData\Local\Temp\ccuQHTkW.s:190    .text.sys_arch_mbox_fetch:00000000 $t
C:\Users\milek\AppData\Local\Temp\ccuQHTkW.s:197    .text.sys_arch_mbox_fetch:00000000 sys_arch_mbox_fetch
C:\Users\milek\AppData\Local\Temp\ccuQHTkW.s:280    .text.sys_arch_mbox_tryfetch:00000000 $t
C:\Users\milek\AppData\Local\Temp\ccuQHTkW.s:287    .text.sys_arch_mbox_tryfetch:00000000 sys_arch_mbox_tryfetch
C:\Users\milek\AppData\Local\Temp\ccuQHTkW.s:339    .text.sys_mbox_valid:00000000 $t
C:\Users\milek\AppData\Local\Temp\ccuQHTkW.s:346    .text.sys_mbox_valid:00000000 sys_mbox_valid
C:\Users\milek\AppData\Local\Temp\ccuQHTkW.s:372    .text.sys_mbox_set_invalid:00000000 $t
C:\Users\milek\AppData\Local\Temp\ccuQHTkW.s:379    .text.sys_mbox_set_invalid:00000000 sys_mbox_set_invalid
C:\Users\milek\AppData\Local\Temp\ccuQHTkW.s:396    .text.sys_sem_new:00000000 $t
C:\Users\milek\AppData\Local\Temp\ccuQHTkW.s:403    .text.sys_sem_new:00000000 sys_sem_new
C:\Users\milek\AppData\Local\Temp\ccuQHTkW.s:465    .text.sys_arch_sem_wait:00000000 $t
C:\Users\milek\AppData\Local\Temp\ccuQHTkW.s:472    .text.sys_arch_sem_wait:00000000 sys_arch_sem_wait
C:\Users\milek\AppData\Local\Temp\ccuQHTkW.s:533    .text.sys_sem_signal:00000000 $t
C:\Users\milek\AppData\Local\Temp\ccuQHTkW.s:540    .text.sys_sem_signal:00000000 sys_sem_signal
C:\Users\milek\AppData\Local\Temp\ccuQHTkW.s:563    .text.sys_sem_free:00000000 $t
C:\Users\milek\AppData\Local\Temp\ccuQHTkW.s:570    .text.sys_sem_free:00000000 sys_sem_free
C:\Users\milek\AppData\Local\Temp\ccuQHTkW.s:593    .text.sys_sem_valid:00000000 $t
C:\Users\milek\AppData\Local\Temp\ccuQHTkW.s:600    .text.sys_sem_valid:00000000 sys_sem_valid
C:\Users\milek\AppData\Local\Temp\ccuQHTkW.s:626    .text.sys_sem_set_invalid:00000000 $t
C:\Users\milek\AppData\Local\Temp\ccuQHTkW.s:633    .text.sys_sem_set_invalid:00000000 sys_sem_set_invalid
C:\Users\milek\AppData\Local\Temp\ccuQHTkW.s:650    .text.sys_init:00000000 $t
C:\Users\milek\AppData\Local\Temp\ccuQHTkW.s:657    .text.sys_init:00000000 sys_init
C:\Users\milek\AppData\Local\Temp\ccuQHTkW.s:679    .text.sys_init:00000010 $d
                            *COM*:00000004 lwip_sys_mutex
C:\Users\milek\AppData\Local\Temp\ccuQHTkW.s:685    .text.sys_mutex_new:00000000 $t
C:\Users\milek\AppData\Local\Temp\ccuQHTkW.s:692    .text.sys_mutex_new:00000000 sys_mutex_new
C:\Users\milek\AppData\Local\Temp\ccuQHTkW.s:740    .text.sys_mutex_free:00000000 $t
C:\Users\milek\AppData\Local\Temp\ccuQHTkW.s:747    .text.sys_mutex_free:00000000 sys_mutex_free
C:\Users\milek\AppData\Local\Temp\ccuQHTkW.s:770    .text.sys_mutex_lock:00000000 $t
C:\Users\milek\AppData\Local\Temp\ccuQHTkW.s:777    .text.sys_mutex_lock:00000000 sys_mutex_lock
C:\Users\milek\AppData\Local\Temp\ccuQHTkW.s:801    .text.sys_mutex_unlock:00000000 $t
C:\Users\milek\AppData\Local\Temp\ccuQHTkW.s:808    .text.sys_mutex_unlock:00000000 sys_mutex_unlock
C:\Users\milek\AppData\Local\Temp\ccuQHTkW.s:831    .text.sys_thread_new:00000000 $t
C:\Users\milek\AppData\Local\Temp\ccuQHTkW.s:838    .text.sys_thread_new:00000000 sys_thread_new
C:\Users\milek\AppData\Local\Temp\ccuQHTkW.s:877    .text.sys_arch_protect:00000000 $t
C:\Users\milek\AppData\Local\Temp\ccuQHTkW.s:884    .text.sys_arch_protect:00000000 sys_arch_protect
C:\Users\milek\AppData\Local\Temp\ccuQHTkW.s:907    .text.sys_arch_protect:00000014 $d
C:\Users\milek\AppData\Local\Temp\ccuQHTkW.s:912    .text.sys_arch_unprotect:00000000 $t
C:\Users\milek\AppData\Local\Temp\ccuQHTkW.s:919    .text.sys_arch_unprotect:00000000 sys_arch_unprotect
C:\Users\milek\AppData\Local\Temp\ccuQHTkW.s:942    .text.sys_arch_unprotect:0000000c $d
C:\Users\milek\AppData\Local\Temp\ccuQHTkW.s:954    .rodata.os_mutex_def_lwip_sys_mutex:00000000 os_mutex_def_lwip_sys_mutex
                            *COM*:00000004 errno
C:\Users\milek\AppData\Local\Temp\ccuQHTkW.s:950    .rodata.os_mutex_def_lwip_sys_mutex:00000000 $d

UNDEFINED SYMBOLS
osMessageCreate
osMessageWaiting
ARM GAS  C:\Users\milek\AppData\Local\Temp\ccuQHTkW.s 			page 26


osMessageDelete
osMessagePut
osKernelSysTick
osMessageGet
osSemaphoreCreate
osSemaphoreWait
osSemaphoreRelease
osSemaphoreDelete
osMutexCreate
osMutexDelete
osMutexWait
osMutexRelease
osThreadCreate
