ARM GAS  C:\Users\Student\AppData\Local\Temp\cc0PPYfp.s 			page 1


   1              		.cpu cortex-m7
   2              		.eabi_attribute 27, 1
   3              		.eabi_attribute 28, 1
   4              		.eabi_attribute 20, 1
   5              		.eabi_attribute 21, 1
   6              		.eabi_attribute 23, 3
   7              		.eabi_attribute 24, 1
   8              		.eabi_attribute 25, 1
   9              		.eabi_attribute 26, 1
  10              		.eabi_attribute 30, 1
  11              		.eabi_attribute 34, 1
  12              		.eabi_attribute 18, 4
  13              		.file	"tcp.c"
  14              		.text
  15              	.Ltext0:
  16              		.cfi_sections	.debug_frame
  17              		.section	.text.tcp_remove_listener,"ax",%progbits
  18              		.align	1
  19              		.syntax unified
  20              		.thumb
  21              		.thumb_func
  22              		.fpu fpv5-sp-d16
  24              	tcp_remove_listener:
  25              	.LFB154:
  26              		.file 1 "Middlewares/Third_Party/LwIP/src/core/tcp.c"
   1:Middlewares/Third_Party/LwIP/src/core/tcp.c **** /**
   2:Middlewares/Third_Party/LwIP/src/core/tcp.c ****  * @file 
   3:Middlewares/Third_Party/LwIP/src/core/tcp.c ****  * Transmission Control Protocol for IP
   4:Middlewares/Third_Party/LwIP/src/core/tcp.c ****  * See also @ref tcp_raw
   5:Middlewares/Third_Party/LwIP/src/core/tcp.c ****  *
   6:Middlewares/Third_Party/LwIP/src/core/tcp.c ****  * @defgroup tcp_raw TCP
   7:Middlewares/Third_Party/LwIP/src/core/tcp.c ****  * @ingroup callbackstyle_api
   8:Middlewares/Third_Party/LwIP/src/core/tcp.c ****  * Transmission Control Protocol for IP\n
   9:Middlewares/Third_Party/LwIP/src/core/tcp.c ****  * @see @ref raw_api and @ref netconn
  10:Middlewares/Third_Party/LwIP/src/core/tcp.c ****  *
  11:Middlewares/Third_Party/LwIP/src/core/tcp.c ****  * Common functions for the TCP implementation, such as functinos
  12:Middlewares/Third_Party/LwIP/src/core/tcp.c ****  * for manipulating the data structures and the TCP timer functions. TCP functions
  13:Middlewares/Third_Party/LwIP/src/core/tcp.c ****  * related to input and output is found in tcp_in.c and tcp_out.c respectively.\n
  14:Middlewares/Third_Party/LwIP/src/core/tcp.c ****  */
  15:Middlewares/Third_Party/LwIP/src/core/tcp.c **** 
  16:Middlewares/Third_Party/LwIP/src/core/tcp.c **** /*
  17:Middlewares/Third_Party/LwIP/src/core/tcp.c ****  * Copyright (c) 2001-2004 Swedish Institute of Computer Science.
  18:Middlewares/Third_Party/LwIP/src/core/tcp.c ****  * All rights reserved.
  19:Middlewares/Third_Party/LwIP/src/core/tcp.c ****  *
  20:Middlewares/Third_Party/LwIP/src/core/tcp.c ****  * Redistribution and use in source and binary forms, with or without modification,
  21:Middlewares/Third_Party/LwIP/src/core/tcp.c ****  * are permitted provided that the following conditions are met:
  22:Middlewares/Third_Party/LwIP/src/core/tcp.c ****  *
  23:Middlewares/Third_Party/LwIP/src/core/tcp.c ****  * 1. Redistributions of source code must retain the above copyright notice,
  24:Middlewares/Third_Party/LwIP/src/core/tcp.c ****  *    this list of conditions and the following disclaimer.
  25:Middlewares/Third_Party/LwIP/src/core/tcp.c ****  * 2. Redistributions in binary form must reproduce the above copyright notice,
  26:Middlewares/Third_Party/LwIP/src/core/tcp.c ****  *    this list of conditions and the following disclaimer in the documentation
  27:Middlewares/Third_Party/LwIP/src/core/tcp.c ****  *    and/or other materials provided with the distribution.
  28:Middlewares/Third_Party/LwIP/src/core/tcp.c ****  * 3. The name of the author may not be used to endorse or promote products
  29:Middlewares/Third_Party/LwIP/src/core/tcp.c ****  *    derived from this software without specific prior written permission.
  30:Middlewares/Third_Party/LwIP/src/core/tcp.c ****  *
  31:Middlewares/Third_Party/LwIP/src/core/tcp.c ****  * THIS SOFTWARE IS PROVIDED BY THE AUTHOR ``AS IS'' AND ANY EXPRESS OR IMPLIED
  32:Middlewares/Third_Party/LwIP/src/core/tcp.c ****  * WARRANTIES, INCLUDING, BUT NOT LIMITED TO, THE IMPLIED WARRANTIES OF
ARM GAS  C:\Users\Student\AppData\Local\Temp\cc0PPYfp.s 			page 2


  33:Middlewares/Third_Party/LwIP/src/core/tcp.c ****  * MERCHANTABILITY AND FITNESS FOR A PARTICULAR PURPOSE ARE DISCLAIMED. IN NO EVENT
  34:Middlewares/Third_Party/LwIP/src/core/tcp.c ****  * SHALL THE AUTHOR BE LIABLE FOR ANY DIRECT, INDIRECT, INCIDENTAL, SPECIAL,
  35:Middlewares/Third_Party/LwIP/src/core/tcp.c ****  * EXEMPLARY, OR CONSEQUENTIAL DAMAGES (INCLUDING, BUT NOT LIMITED TO, PROCUREMENT
  36:Middlewares/Third_Party/LwIP/src/core/tcp.c ****  * OF SUBSTITUTE GOODS OR SERVICES; LOSS OF USE, DATA, OR PROFITS; OR BUSINESS
  37:Middlewares/Third_Party/LwIP/src/core/tcp.c ****  * INTERRUPTION) HOWEVER CAUSED AND ON ANY THEORY OF LIABILITY, WHETHER IN
  38:Middlewares/Third_Party/LwIP/src/core/tcp.c ****  * CONTRACT, STRICT LIABILITY, OR TORT (INCLUDING NEGLIGENCE OR OTHERWISE) ARISING
  39:Middlewares/Third_Party/LwIP/src/core/tcp.c ****  * IN ANY WAY OUT OF THE USE OF THIS SOFTWARE, EVEN IF ADVISED OF THE POSSIBILITY
  40:Middlewares/Third_Party/LwIP/src/core/tcp.c ****  * OF SUCH DAMAGE.
  41:Middlewares/Third_Party/LwIP/src/core/tcp.c ****  *
  42:Middlewares/Third_Party/LwIP/src/core/tcp.c ****  * This file is part of the lwIP TCP/IP stack.
  43:Middlewares/Third_Party/LwIP/src/core/tcp.c ****  *
  44:Middlewares/Third_Party/LwIP/src/core/tcp.c ****  * Author: Adam Dunkels <adam@sics.se>
  45:Middlewares/Third_Party/LwIP/src/core/tcp.c ****  *
  46:Middlewares/Third_Party/LwIP/src/core/tcp.c ****  */
  47:Middlewares/Third_Party/LwIP/src/core/tcp.c **** 
  48:Middlewares/Third_Party/LwIP/src/core/tcp.c **** #include "lwip/opt.h"
  49:Middlewares/Third_Party/LwIP/src/core/tcp.c **** 
  50:Middlewares/Third_Party/LwIP/src/core/tcp.c **** #if LWIP_TCP /* don't build if not configured for use in lwipopts.h */
  51:Middlewares/Third_Party/LwIP/src/core/tcp.c **** 
  52:Middlewares/Third_Party/LwIP/src/core/tcp.c **** #include "lwip/def.h"
  53:Middlewares/Third_Party/LwIP/src/core/tcp.c **** #include "lwip/mem.h"
  54:Middlewares/Third_Party/LwIP/src/core/tcp.c **** #include "lwip/memp.h"
  55:Middlewares/Third_Party/LwIP/src/core/tcp.c **** #include "lwip/tcp.h"
  56:Middlewares/Third_Party/LwIP/src/core/tcp.c **** #include "lwip/priv/tcp_priv.h"
  57:Middlewares/Third_Party/LwIP/src/core/tcp.c **** #include "lwip/debug.h"
  58:Middlewares/Third_Party/LwIP/src/core/tcp.c **** #include "lwip/stats.h"
  59:Middlewares/Third_Party/LwIP/src/core/tcp.c **** #include "lwip/ip6.h"
  60:Middlewares/Third_Party/LwIP/src/core/tcp.c **** #include "lwip/ip6_addr.h"
  61:Middlewares/Third_Party/LwIP/src/core/tcp.c **** #include "lwip/nd6.h"
  62:Middlewares/Third_Party/LwIP/src/core/tcp.c **** 
  63:Middlewares/Third_Party/LwIP/src/core/tcp.c **** #include <string.h>
  64:Middlewares/Third_Party/LwIP/src/core/tcp.c **** 
  65:Middlewares/Third_Party/LwIP/src/core/tcp.c **** #ifdef LWIP_HOOK_FILENAME
  66:Middlewares/Third_Party/LwIP/src/core/tcp.c **** #include LWIP_HOOK_FILENAME
  67:Middlewares/Third_Party/LwIP/src/core/tcp.c **** #endif
  68:Middlewares/Third_Party/LwIP/src/core/tcp.c **** 
  69:Middlewares/Third_Party/LwIP/src/core/tcp.c **** #ifndef TCP_LOCAL_PORT_RANGE_START
  70:Middlewares/Third_Party/LwIP/src/core/tcp.c **** /* From http://www.iana.org/assignments/port-numbers:
  71:Middlewares/Third_Party/LwIP/src/core/tcp.c ****    "The Dynamic and/or Private Ports are those from 49152 through 65535" */
  72:Middlewares/Third_Party/LwIP/src/core/tcp.c **** #define TCP_LOCAL_PORT_RANGE_START        0xc000
  73:Middlewares/Third_Party/LwIP/src/core/tcp.c **** #define TCP_LOCAL_PORT_RANGE_END          0xffff
  74:Middlewares/Third_Party/LwIP/src/core/tcp.c **** #define TCP_ENSURE_LOCAL_PORT_RANGE(port) ((u16_t)(((port) & ~TCP_LOCAL_PORT_RANGE_START) + TCP_LOC
  75:Middlewares/Third_Party/LwIP/src/core/tcp.c **** #endif
  76:Middlewares/Third_Party/LwIP/src/core/tcp.c **** 
  77:Middlewares/Third_Party/LwIP/src/core/tcp.c **** #if LWIP_TCP_KEEPALIVE
  78:Middlewares/Third_Party/LwIP/src/core/tcp.c **** #define TCP_KEEP_DUR(pcb)   ((pcb)->keep_cnt * (pcb)->keep_intvl)
  79:Middlewares/Third_Party/LwIP/src/core/tcp.c **** #define TCP_KEEP_INTVL(pcb) ((pcb)->keep_intvl)
  80:Middlewares/Third_Party/LwIP/src/core/tcp.c **** #else /* LWIP_TCP_KEEPALIVE */
  81:Middlewares/Third_Party/LwIP/src/core/tcp.c **** #define TCP_KEEP_DUR(pcb)   TCP_MAXIDLE
  82:Middlewares/Third_Party/LwIP/src/core/tcp.c **** #define TCP_KEEP_INTVL(pcb) TCP_KEEPINTVL_DEFAULT
  83:Middlewares/Third_Party/LwIP/src/core/tcp.c **** #endif /* LWIP_TCP_KEEPALIVE */
  84:Middlewares/Third_Party/LwIP/src/core/tcp.c **** 
  85:Middlewares/Third_Party/LwIP/src/core/tcp.c **** /* As initial send MSS, we use TCP_MSS but limit it to 536. */
  86:Middlewares/Third_Party/LwIP/src/core/tcp.c **** #if TCP_MSS > 536
  87:Middlewares/Third_Party/LwIP/src/core/tcp.c **** #define INITIAL_MSS 536
  88:Middlewares/Third_Party/LwIP/src/core/tcp.c **** #else
  89:Middlewares/Third_Party/LwIP/src/core/tcp.c **** #define INITIAL_MSS TCP_MSS
ARM GAS  C:\Users\Student\AppData\Local\Temp\cc0PPYfp.s 			page 3


  90:Middlewares/Third_Party/LwIP/src/core/tcp.c **** #endif
  91:Middlewares/Third_Party/LwIP/src/core/tcp.c **** 
  92:Middlewares/Third_Party/LwIP/src/core/tcp.c **** static const char * const tcp_state_str[] = {
  93:Middlewares/Third_Party/LwIP/src/core/tcp.c ****   "CLOSED",
  94:Middlewares/Third_Party/LwIP/src/core/tcp.c ****   "LISTEN",
  95:Middlewares/Third_Party/LwIP/src/core/tcp.c ****   "SYN_SENT",
  96:Middlewares/Third_Party/LwIP/src/core/tcp.c ****   "SYN_RCVD",
  97:Middlewares/Third_Party/LwIP/src/core/tcp.c ****   "ESTABLISHED",
  98:Middlewares/Third_Party/LwIP/src/core/tcp.c ****   "FIN_WAIT_1",
  99:Middlewares/Third_Party/LwIP/src/core/tcp.c ****   "FIN_WAIT_2",
 100:Middlewares/Third_Party/LwIP/src/core/tcp.c ****   "CLOSE_WAIT",
 101:Middlewares/Third_Party/LwIP/src/core/tcp.c ****   "CLOSING",
 102:Middlewares/Third_Party/LwIP/src/core/tcp.c ****   "LAST_ACK",
 103:Middlewares/Third_Party/LwIP/src/core/tcp.c ****   "TIME_WAIT"
 104:Middlewares/Third_Party/LwIP/src/core/tcp.c **** };
 105:Middlewares/Third_Party/LwIP/src/core/tcp.c **** 
 106:Middlewares/Third_Party/LwIP/src/core/tcp.c **** /* last local TCP port */
 107:Middlewares/Third_Party/LwIP/src/core/tcp.c **** static u16_t tcp_port = TCP_LOCAL_PORT_RANGE_START;
 108:Middlewares/Third_Party/LwIP/src/core/tcp.c **** 
 109:Middlewares/Third_Party/LwIP/src/core/tcp.c **** /* Incremented every coarse grained timer shot (typically every 500 ms). */
 110:Middlewares/Third_Party/LwIP/src/core/tcp.c **** u32_t tcp_ticks;
 111:Middlewares/Third_Party/LwIP/src/core/tcp.c **** static const u8_t tcp_backoff[13] =
 112:Middlewares/Third_Party/LwIP/src/core/tcp.c ****     { 1, 2, 3, 4, 5, 6, 7, 7, 7, 7, 7, 7, 7};
 113:Middlewares/Third_Party/LwIP/src/core/tcp.c ****  /* Times per slowtmr hits */
 114:Middlewares/Third_Party/LwIP/src/core/tcp.c **** static const u8_t tcp_persist_backoff[7] = { 3, 6, 12, 24, 48, 96, 120 };
 115:Middlewares/Third_Party/LwIP/src/core/tcp.c **** 
 116:Middlewares/Third_Party/LwIP/src/core/tcp.c **** /* The TCP PCB lists. */
 117:Middlewares/Third_Party/LwIP/src/core/tcp.c **** 
 118:Middlewares/Third_Party/LwIP/src/core/tcp.c **** /** List of all TCP PCBs bound but not yet (connected || listening) */
 119:Middlewares/Third_Party/LwIP/src/core/tcp.c **** struct tcp_pcb *tcp_bound_pcbs;
 120:Middlewares/Third_Party/LwIP/src/core/tcp.c **** /** List of all TCP PCBs in LISTEN state */
 121:Middlewares/Third_Party/LwIP/src/core/tcp.c **** union tcp_listen_pcbs_t tcp_listen_pcbs;
 122:Middlewares/Third_Party/LwIP/src/core/tcp.c **** /** List of all TCP PCBs that are in a state in which
 123:Middlewares/Third_Party/LwIP/src/core/tcp.c ****  * they accept or send data. */
 124:Middlewares/Third_Party/LwIP/src/core/tcp.c **** struct tcp_pcb *tcp_active_pcbs;
 125:Middlewares/Third_Party/LwIP/src/core/tcp.c **** /** List of all TCP PCBs in TIME-WAIT state */
 126:Middlewares/Third_Party/LwIP/src/core/tcp.c **** struct tcp_pcb *tcp_tw_pcbs;
 127:Middlewares/Third_Party/LwIP/src/core/tcp.c **** 
 128:Middlewares/Third_Party/LwIP/src/core/tcp.c **** /** An array with all (non-temporary) PCB lists, mainly used for smaller code size */
 129:Middlewares/Third_Party/LwIP/src/core/tcp.c **** struct tcp_pcb ** const tcp_pcb_lists[] = {&tcp_listen_pcbs.pcbs, &tcp_bound_pcbs,
 130:Middlewares/Third_Party/LwIP/src/core/tcp.c ****   &tcp_active_pcbs, &tcp_tw_pcbs};
 131:Middlewares/Third_Party/LwIP/src/core/tcp.c **** 
 132:Middlewares/Third_Party/LwIP/src/core/tcp.c **** u8_t tcp_active_pcbs_changed;
 133:Middlewares/Third_Party/LwIP/src/core/tcp.c **** 
 134:Middlewares/Third_Party/LwIP/src/core/tcp.c **** /** Timer counter to handle calling slow-timer from tcp_tmr() */
 135:Middlewares/Third_Party/LwIP/src/core/tcp.c **** static u8_t tcp_timer;
 136:Middlewares/Third_Party/LwIP/src/core/tcp.c **** static u8_t tcp_timer_ctr;
 137:Middlewares/Third_Party/LwIP/src/core/tcp.c **** static u16_t tcp_new_port(void);
 138:Middlewares/Third_Party/LwIP/src/core/tcp.c **** 
 139:Middlewares/Third_Party/LwIP/src/core/tcp.c **** static err_t tcp_close_shutdown_fin(struct tcp_pcb *pcb);
 140:Middlewares/Third_Party/LwIP/src/core/tcp.c **** 
 141:Middlewares/Third_Party/LwIP/src/core/tcp.c **** /**
 142:Middlewares/Third_Party/LwIP/src/core/tcp.c ****  * Initialize this module.
 143:Middlewares/Third_Party/LwIP/src/core/tcp.c ****  */
 144:Middlewares/Third_Party/LwIP/src/core/tcp.c **** void
 145:Middlewares/Third_Party/LwIP/src/core/tcp.c **** tcp_init(void)
 146:Middlewares/Third_Party/LwIP/src/core/tcp.c **** {
ARM GAS  C:\Users\Student\AppData\Local\Temp\cc0PPYfp.s 			page 4


 147:Middlewares/Third_Party/LwIP/src/core/tcp.c **** #if LWIP_RANDOMIZE_INITIAL_LOCAL_PORTS && defined(LWIP_RAND)
 148:Middlewares/Third_Party/LwIP/src/core/tcp.c ****   tcp_port = TCP_ENSURE_LOCAL_PORT_RANGE(LWIP_RAND());
 149:Middlewares/Third_Party/LwIP/src/core/tcp.c **** #endif /* LWIP_RANDOMIZE_INITIAL_LOCAL_PORTS && defined(LWIP_RAND) */
 150:Middlewares/Third_Party/LwIP/src/core/tcp.c **** }
 151:Middlewares/Third_Party/LwIP/src/core/tcp.c **** 
 152:Middlewares/Third_Party/LwIP/src/core/tcp.c **** /**
 153:Middlewares/Third_Party/LwIP/src/core/tcp.c ****  * Called periodically to dispatch TCP timers.
 154:Middlewares/Third_Party/LwIP/src/core/tcp.c ****  */
 155:Middlewares/Third_Party/LwIP/src/core/tcp.c **** void
 156:Middlewares/Third_Party/LwIP/src/core/tcp.c **** tcp_tmr(void)
 157:Middlewares/Third_Party/LwIP/src/core/tcp.c **** {
 158:Middlewares/Third_Party/LwIP/src/core/tcp.c ****   /* Call tcp_fasttmr() every 250 ms */
 159:Middlewares/Third_Party/LwIP/src/core/tcp.c ****   tcp_fasttmr();
 160:Middlewares/Third_Party/LwIP/src/core/tcp.c **** 
 161:Middlewares/Third_Party/LwIP/src/core/tcp.c ****   if (++tcp_timer & 1) {
 162:Middlewares/Third_Party/LwIP/src/core/tcp.c ****     /* Call tcp_slowtmr() every 500 ms, i.e., every other timer
 163:Middlewares/Third_Party/LwIP/src/core/tcp.c ****        tcp_tmr() is called. */
 164:Middlewares/Third_Party/LwIP/src/core/tcp.c ****     tcp_slowtmr();
 165:Middlewares/Third_Party/LwIP/src/core/tcp.c ****   }
 166:Middlewares/Third_Party/LwIP/src/core/tcp.c **** }
 167:Middlewares/Third_Party/LwIP/src/core/tcp.c **** 
 168:Middlewares/Third_Party/LwIP/src/core/tcp.c **** #if LWIP_CALLBACK_API || TCP_LISTEN_BACKLOG
 169:Middlewares/Third_Party/LwIP/src/core/tcp.c **** /** Called when a listen pcb is closed. Iterates one pcb list and removes the
 170:Middlewares/Third_Party/LwIP/src/core/tcp.c ****  * closed listener pcb from pcb->listener if matching.
 171:Middlewares/Third_Party/LwIP/src/core/tcp.c ****  */
 172:Middlewares/Third_Party/LwIP/src/core/tcp.c **** static void
 173:Middlewares/Third_Party/LwIP/src/core/tcp.c **** tcp_remove_listener(struct tcp_pcb *list, struct tcp_pcb_listen *lpcb)
 174:Middlewares/Third_Party/LwIP/src/core/tcp.c **** {
  27              		.loc 1 174 0
  28              		.cfi_startproc
  29              		@ args = 0, pretend = 0, frame = 0
  30              		@ frame_needed = 0, uses_anonymous_args = 0
  31              		@ link register save eliminated.
  32              	.LVL0:
 175:Middlewares/Third_Party/LwIP/src/core/tcp.c ****    struct tcp_pcb *pcb;
 176:Middlewares/Third_Party/LwIP/src/core/tcp.c ****    for (pcb = list; pcb != NULL; pcb = pcb->next) {
  33              		.loc 1 176 0
  34 0000 00E0     		b	.L2
  35              	.LVL1:
  36              	.L3:
  37              		.loc 1 176 0 is_stmt 0 discriminator 2
  38 0002 C068     		ldr	r0, [r0, #12]
  39              	.LVL2:
  40              	.L2:
  41              		.loc 1 176 0 discriminator 1
  42 0004 28B1     		cbz	r0, .L5
 177:Middlewares/Third_Party/LwIP/src/core/tcp.c ****       if (pcb->listener == lpcb) {
  43              		.loc 1 177 0 is_stmt 1
  44 0006 836F     		ldr	r3, [r0, #120]
  45 0008 8B42     		cmp	r3, r1
  46 000a FAD1     		bne	.L3
 178:Middlewares/Third_Party/LwIP/src/core/tcp.c ****          pcb->listener = NULL;
  47              		.loc 1 178 0
  48 000c 0023     		movs	r3, #0
  49 000e 8367     		str	r3, [r0, #120]
  50 0010 F7E7     		b	.L3
  51              	.L5:
ARM GAS  C:\Users\Student\AppData\Local\Temp\cc0PPYfp.s 			page 5


 179:Middlewares/Third_Party/LwIP/src/core/tcp.c ****       }
 180:Middlewares/Third_Party/LwIP/src/core/tcp.c ****    }
 181:Middlewares/Third_Party/LwIP/src/core/tcp.c **** }
  52              		.loc 1 181 0
  53 0012 7047     		bx	lr
  54              		.cfi_endproc
  55              	.LFE154:
  57              		.section	.text.tcp_new_port,"ax",%progbits
  58              		.align	1
  59              		.syntax unified
  60              		.thumb
  61              		.thumb_func
  62              		.fpu fpv5-sp-d16
  64              	tcp_new_port:
  65              	.LFB168:
 182:Middlewares/Third_Party/LwIP/src/core/tcp.c **** #endif
 183:Middlewares/Third_Party/LwIP/src/core/tcp.c **** 
 184:Middlewares/Third_Party/LwIP/src/core/tcp.c **** /** Called when a listen pcb is closed. Iterates all pcb lists and removes the
 185:Middlewares/Third_Party/LwIP/src/core/tcp.c ****  * closed listener pcb from pcb->listener if matching.
 186:Middlewares/Third_Party/LwIP/src/core/tcp.c ****  */
 187:Middlewares/Third_Party/LwIP/src/core/tcp.c **** static void
 188:Middlewares/Third_Party/LwIP/src/core/tcp.c **** tcp_listen_closed(struct tcp_pcb *pcb)
 189:Middlewares/Third_Party/LwIP/src/core/tcp.c **** {
 190:Middlewares/Third_Party/LwIP/src/core/tcp.c **** #if LWIP_CALLBACK_API || TCP_LISTEN_BACKLOG
 191:Middlewares/Third_Party/LwIP/src/core/tcp.c ****   size_t i;
 192:Middlewares/Third_Party/LwIP/src/core/tcp.c ****   LWIP_ASSERT("pcb != NULL", pcb != NULL);
 193:Middlewares/Third_Party/LwIP/src/core/tcp.c ****   LWIP_ASSERT("pcb->state == LISTEN", pcb->state == LISTEN);
 194:Middlewares/Third_Party/LwIP/src/core/tcp.c ****   for (i = 1; i < LWIP_ARRAYSIZE(tcp_pcb_lists); i++) {
 195:Middlewares/Third_Party/LwIP/src/core/tcp.c ****     tcp_remove_listener(*tcp_pcb_lists[i], (struct tcp_pcb_listen*)pcb);
 196:Middlewares/Third_Party/LwIP/src/core/tcp.c ****   }
 197:Middlewares/Third_Party/LwIP/src/core/tcp.c **** #endif
 198:Middlewares/Third_Party/LwIP/src/core/tcp.c ****   LWIP_UNUSED_ARG(pcb);
 199:Middlewares/Third_Party/LwIP/src/core/tcp.c **** }
 200:Middlewares/Third_Party/LwIP/src/core/tcp.c **** 
 201:Middlewares/Third_Party/LwIP/src/core/tcp.c **** #if TCP_LISTEN_BACKLOG
 202:Middlewares/Third_Party/LwIP/src/core/tcp.c **** /** @ingroup tcp_raw
 203:Middlewares/Third_Party/LwIP/src/core/tcp.c ****  * Delay accepting a connection in respect to the listen backlog:
 204:Middlewares/Third_Party/LwIP/src/core/tcp.c ****  * the number of outstanding connections is increased until
 205:Middlewares/Third_Party/LwIP/src/core/tcp.c ****  * tcp_backlog_accepted() is called.
 206:Middlewares/Third_Party/LwIP/src/core/tcp.c ****  *
 207:Middlewares/Third_Party/LwIP/src/core/tcp.c ****  * ATTENTION: the caller is responsible for calling tcp_backlog_accepted()
 208:Middlewares/Third_Party/LwIP/src/core/tcp.c ****  * or else the backlog feature will get out of sync!
 209:Middlewares/Third_Party/LwIP/src/core/tcp.c ****  *
 210:Middlewares/Third_Party/LwIP/src/core/tcp.c ****  * @param pcb the connection pcb which is not fully accepted yet
 211:Middlewares/Third_Party/LwIP/src/core/tcp.c ****  */
 212:Middlewares/Third_Party/LwIP/src/core/tcp.c **** void
 213:Middlewares/Third_Party/LwIP/src/core/tcp.c **** tcp_backlog_delayed(struct tcp_pcb* pcb)
 214:Middlewares/Third_Party/LwIP/src/core/tcp.c **** {
 215:Middlewares/Third_Party/LwIP/src/core/tcp.c ****   LWIP_ASSERT("pcb != NULL", pcb != NULL);
 216:Middlewares/Third_Party/LwIP/src/core/tcp.c ****   if ((pcb->flags & TF_BACKLOGPEND) == 0) {
 217:Middlewares/Third_Party/LwIP/src/core/tcp.c ****     if (pcb->listener != NULL) {
 218:Middlewares/Third_Party/LwIP/src/core/tcp.c ****       pcb->listener->accepts_pending++;
 219:Middlewares/Third_Party/LwIP/src/core/tcp.c ****       LWIP_ASSERT("accepts_pending != 0", pcb->listener->accepts_pending != 0);
 220:Middlewares/Third_Party/LwIP/src/core/tcp.c ****       pcb->flags |= TF_BACKLOGPEND;
 221:Middlewares/Third_Party/LwIP/src/core/tcp.c ****     }
 222:Middlewares/Third_Party/LwIP/src/core/tcp.c ****   }
 223:Middlewares/Third_Party/LwIP/src/core/tcp.c **** }
ARM GAS  C:\Users\Student\AppData\Local\Temp\cc0PPYfp.s 			page 6


 224:Middlewares/Third_Party/LwIP/src/core/tcp.c **** 
 225:Middlewares/Third_Party/LwIP/src/core/tcp.c **** /** @ingroup tcp_raw
 226:Middlewares/Third_Party/LwIP/src/core/tcp.c ****  * A delayed-accept a connection is accepted (or closed/aborted): decreases
 227:Middlewares/Third_Party/LwIP/src/core/tcp.c ****  * the number of outstanding connections after calling tcp_backlog_delayed().
 228:Middlewares/Third_Party/LwIP/src/core/tcp.c ****  *
 229:Middlewares/Third_Party/LwIP/src/core/tcp.c ****  * ATTENTION: the caller is responsible for calling tcp_backlog_accepted()
 230:Middlewares/Third_Party/LwIP/src/core/tcp.c ****  * or else the backlog feature will get out of sync!
 231:Middlewares/Third_Party/LwIP/src/core/tcp.c ****  *
 232:Middlewares/Third_Party/LwIP/src/core/tcp.c ****  * @param pcb the connection pcb which is now fully accepted (or closed/aborted)
 233:Middlewares/Third_Party/LwIP/src/core/tcp.c ****  */
 234:Middlewares/Third_Party/LwIP/src/core/tcp.c **** void
 235:Middlewares/Third_Party/LwIP/src/core/tcp.c **** tcp_backlog_accepted(struct tcp_pcb* pcb)
 236:Middlewares/Third_Party/LwIP/src/core/tcp.c **** {
 237:Middlewares/Third_Party/LwIP/src/core/tcp.c ****   LWIP_ASSERT("pcb != NULL", pcb != NULL);
 238:Middlewares/Third_Party/LwIP/src/core/tcp.c ****   if ((pcb->flags & TF_BACKLOGPEND) != 0) {
 239:Middlewares/Third_Party/LwIP/src/core/tcp.c ****     if (pcb->listener != NULL) {
 240:Middlewares/Third_Party/LwIP/src/core/tcp.c ****       LWIP_ASSERT("accepts_pending != 0", pcb->listener->accepts_pending != 0);
 241:Middlewares/Third_Party/LwIP/src/core/tcp.c ****       pcb->listener->accepts_pending--;
 242:Middlewares/Third_Party/LwIP/src/core/tcp.c ****       pcb->flags &= ~TF_BACKLOGPEND;
 243:Middlewares/Third_Party/LwIP/src/core/tcp.c ****     }
 244:Middlewares/Third_Party/LwIP/src/core/tcp.c ****   }
 245:Middlewares/Third_Party/LwIP/src/core/tcp.c **** }
 246:Middlewares/Third_Party/LwIP/src/core/tcp.c **** #endif /* TCP_LISTEN_BACKLOG */
 247:Middlewares/Third_Party/LwIP/src/core/tcp.c **** 
 248:Middlewares/Third_Party/LwIP/src/core/tcp.c **** /**
 249:Middlewares/Third_Party/LwIP/src/core/tcp.c ****  * Closes the TX side of a connection held by the PCB.
 250:Middlewares/Third_Party/LwIP/src/core/tcp.c ****  * For tcp_close(), a RST is sent if the application didn't receive all data
 251:Middlewares/Third_Party/LwIP/src/core/tcp.c ****  * (tcp_recved() not called for all data passed to recv callback).
 252:Middlewares/Third_Party/LwIP/src/core/tcp.c ****  *
 253:Middlewares/Third_Party/LwIP/src/core/tcp.c ****  * Listening pcbs are freed and may not be referenced any more.
 254:Middlewares/Third_Party/LwIP/src/core/tcp.c ****  * Connection pcbs are freed if not yet connected and may not be referenced
 255:Middlewares/Third_Party/LwIP/src/core/tcp.c ****  * any more. If a connection is established (at least SYN received or in
 256:Middlewares/Third_Party/LwIP/src/core/tcp.c ****  * a closing state), the connection is closed, and put in a closing state.
 257:Middlewares/Third_Party/LwIP/src/core/tcp.c ****  * The pcb is then automatically freed in tcp_slowtmr(). It is therefore
 258:Middlewares/Third_Party/LwIP/src/core/tcp.c ****  * unsafe to reference it.
 259:Middlewares/Third_Party/LwIP/src/core/tcp.c ****  *
 260:Middlewares/Third_Party/LwIP/src/core/tcp.c ****  * @param pcb the tcp_pcb to close
 261:Middlewares/Third_Party/LwIP/src/core/tcp.c ****  * @return ERR_OK if connection has been closed
 262:Middlewares/Third_Party/LwIP/src/core/tcp.c ****  *         another err_t if closing failed and pcb is not freed
 263:Middlewares/Third_Party/LwIP/src/core/tcp.c ****  */
 264:Middlewares/Third_Party/LwIP/src/core/tcp.c **** static err_t
 265:Middlewares/Third_Party/LwIP/src/core/tcp.c **** tcp_close_shutdown(struct tcp_pcb *pcb, u8_t rst_on_unacked_data)
 266:Middlewares/Third_Party/LwIP/src/core/tcp.c **** {
 267:Middlewares/Third_Party/LwIP/src/core/tcp.c ****   if (rst_on_unacked_data && ((pcb->state == ESTABLISHED) || (pcb->state == CLOSE_WAIT))) {
 268:Middlewares/Third_Party/LwIP/src/core/tcp.c ****     if ((pcb->refused_data != NULL) || (pcb->rcv_wnd != TCP_WND_MAX(pcb))) {
 269:Middlewares/Third_Party/LwIP/src/core/tcp.c ****       /* Not all data received by application, send RST to tell the remote
 270:Middlewares/Third_Party/LwIP/src/core/tcp.c ****          side about this. */
 271:Middlewares/Third_Party/LwIP/src/core/tcp.c ****       LWIP_ASSERT("pcb->flags & TF_RXCLOSED", pcb->flags & TF_RXCLOSED);
 272:Middlewares/Third_Party/LwIP/src/core/tcp.c **** 
 273:Middlewares/Third_Party/LwIP/src/core/tcp.c ****       /* don't call tcp_abort here: we must not deallocate the pcb since
 274:Middlewares/Third_Party/LwIP/src/core/tcp.c ****          that might not be expected when calling tcp_close */
 275:Middlewares/Third_Party/LwIP/src/core/tcp.c ****       tcp_rst(pcb->snd_nxt, pcb->rcv_nxt, &pcb->local_ip, &pcb->remote_ip,
 276:Middlewares/Third_Party/LwIP/src/core/tcp.c ****                pcb->local_port, pcb->remote_port);
 277:Middlewares/Third_Party/LwIP/src/core/tcp.c **** 
 278:Middlewares/Third_Party/LwIP/src/core/tcp.c ****       tcp_pcb_purge(pcb);
 279:Middlewares/Third_Party/LwIP/src/core/tcp.c ****       TCP_RMV_ACTIVE(pcb);
 280:Middlewares/Third_Party/LwIP/src/core/tcp.c ****       if (pcb->state == ESTABLISHED) {
ARM GAS  C:\Users\Student\AppData\Local\Temp\cc0PPYfp.s 			page 7


 281:Middlewares/Third_Party/LwIP/src/core/tcp.c ****         /* move to TIME_WAIT since we close actively */
 282:Middlewares/Third_Party/LwIP/src/core/tcp.c ****         pcb->state = TIME_WAIT;
 283:Middlewares/Third_Party/LwIP/src/core/tcp.c ****         TCP_REG(&tcp_tw_pcbs, pcb);
 284:Middlewares/Third_Party/LwIP/src/core/tcp.c ****       } else {
 285:Middlewares/Third_Party/LwIP/src/core/tcp.c ****         /* CLOSE_WAIT: deallocate the pcb since we already sent a RST for it */
 286:Middlewares/Third_Party/LwIP/src/core/tcp.c ****         if (tcp_input_pcb == pcb) {
 287:Middlewares/Third_Party/LwIP/src/core/tcp.c ****           /* prevent using a deallocated pcb: free it from tcp_input later */
 288:Middlewares/Third_Party/LwIP/src/core/tcp.c ****           tcp_trigger_input_pcb_close();
 289:Middlewares/Third_Party/LwIP/src/core/tcp.c ****         } else {
 290:Middlewares/Third_Party/LwIP/src/core/tcp.c ****           memp_free(MEMP_TCP_PCB, pcb);
 291:Middlewares/Third_Party/LwIP/src/core/tcp.c ****         }
 292:Middlewares/Third_Party/LwIP/src/core/tcp.c ****       }
 293:Middlewares/Third_Party/LwIP/src/core/tcp.c ****       return ERR_OK;
 294:Middlewares/Third_Party/LwIP/src/core/tcp.c ****     }
 295:Middlewares/Third_Party/LwIP/src/core/tcp.c ****   }
 296:Middlewares/Third_Party/LwIP/src/core/tcp.c **** 
 297:Middlewares/Third_Party/LwIP/src/core/tcp.c ****   /* - states which free the pcb are handled here,
 298:Middlewares/Third_Party/LwIP/src/core/tcp.c ****      - states which send FIN and change state are handled in tcp_close_shutdown_fin() */
 299:Middlewares/Third_Party/LwIP/src/core/tcp.c ****   switch (pcb->state) {
 300:Middlewares/Third_Party/LwIP/src/core/tcp.c ****   case CLOSED:
 301:Middlewares/Third_Party/LwIP/src/core/tcp.c ****     /* Closing a pcb in the CLOSED state might seem erroneous,
 302:Middlewares/Third_Party/LwIP/src/core/tcp.c ****      * however, it is in this state once allocated and as yet unused
 303:Middlewares/Third_Party/LwIP/src/core/tcp.c ****      * and the user needs some way to free it should the need arise.
 304:Middlewares/Third_Party/LwIP/src/core/tcp.c ****      * Calling tcp_close() with a pcb that has already been closed, (i.e. twice)
 305:Middlewares/Third_Party/LwIP/src/core/tcp.c ****      * or for a pcb that has been used and then entered the CLOSED state
 306:Middlewares/Third_Party/LwIP/src/core/tcp.c ****      * is erroneous, but this should never happen as the pcb has in those cases
 307:Middlewares/Third_Party/LwIP/src/core/tcp.c ****      * been freed, and so any remaining handles are bogus. */
 308:Middlewares/Third_Party/LwIP/src/core/tcp.c ****     if (pcb->local_port != 0) {
 309:Middlewares/Third_Party/LwIP/src/core/tcp.c ****       TCP_RMV(&tcp_bound_pcbs, pcb);
 310:Middlewares/Third_Party/LwIP/src/core/tcp.c ****     }
 311:Middlewares/Third_Party/LwIP/src/core/tcp.c ****     memp_free(MEMP_TCP_PCB, pcb);
 312:Middlewares/Third_Party/LwIP/src/core/tcp.c ****     break;
 313:Middlewares/Third_Party/LwIP/src/core/tcp.c ****   case LISTEN:
 314:Middlewares/Third_Party/LwIP/src/core/tcp.c ****     tcp_listen_closed(pcb);
 315:Middlewares/Third_Party/LwIP/src/core/tcp.c ****     tcp_pcb_remove(&tcp_listen_pcbs.pcbs, pcb);
 316:Middlewares/Third_Party/LwIP/src/core/tcp.c ****     memp_free(MEMP_TCP_PCB_LISTEN, pcb);
 317:Middlewares/Third_Party/LwIP/src/core/tcp.c ****     break;
 318:Middlewares/Third_Party/LwIP/src/core/tcp.c ****   case SYN_SENT:
 319:Middlewares/Third_Party/LwIP/src/core/tcp.c ****     TCP_PCB_REMOVE_ACTIVE(pcb);
 320:Middlewares/Third_Party/LwIP/src/core/tcp.c ****     memp_free(MEMP_TCP_PCB, pcb);
 321:Middlewares/Third_Party/LwIP/src/core/tcp.c ****     MIB2_STATS_INC(mib2.tcpattemptfails);
 322:Middlewares/Third_Party/LwIP/src/core/tcp.c ****     break;
 323:Middlewares/Third_Party/LwIP/src/core/tcp.c ****   default:
 324:Middlewares/Third_Party/LwIP/src/core/tcp.c ****     return tcp_close_shutdown_fin(pcb);
 325:Middlewares/Third_Party/LwIP/src/core/tcp.c ****   }
 326:Middlewares/Third_Party/LwIP/src/core/tcp.c ****   return ERR_OK;
 327:Middlewares/Third_Party/LwIP/src/core/tcp.c **** }
 328:Middlewares/Third_Party/LwIP/src/core/tcp.c **** 
 329:Middlewares/Third_Party/LwIP/src/core/tcp.c **** static err_t
 330:Middlewares/Third_Party/LwIP/src/core/tcp.c **** tcp_close_shutdown_fin(struct tcp_pcb *pcb)
 331:Middlewares/Third_Party/LwIP/src/core/tcp.c **** {
 332:Middlewares/Third_Party/LwIP/src/core/tcp.c ****   err_t err;
 333:Middlewares/Third_Party/LwIP/src/core/tcp.c ****   LWIP_ASSERT("pcb != NULL", pcb != NULL);
 334:Middlewares/Third_Party/LwIP/src/core/tcp.c **** 
 335:Middlewares/Third_Party/LwIP/src/core/tcp.c ****   switch (pcb->state) {
 336:Middlewares/Third_Party/LwIP/src/core/tcp.c ****   case SYN_RCVD:
 337:Middlewares/Third_Party/LwIP/src/core/tcp.c ****     err = tcp_send_fin(pcb);
ARM GAS  C:\Users\Student\AppData\Local\Temp\cc0PPYfp.s 			page 8


 338:Middlewares/Third_Party/LwIP/src/core/tcp.c ****     if (err == ERR_OK) {
 339:Middlewares/Third_Party/LwIP/src/core/tcp.c ****       tcp_backlog_accepted(pcb);
 340:Middlewares/Third_Party/LwIP/src/core/tcp.c ****       MIB2_STATS_INC(mib2.tcpattemptfails);
 341:Middlewares/Third_Party/LwIP/src/core/tcp.c ****       pcb->state = FIN_WAIT_1;
 342:Middlewares/Third_Party/LwIP/src/core/tcp.c ****     }
 343:Middlewares/Third_Party/LwIP/src/core/tcp.c ****     break;
 344:Middlewares/Third_Party/LwIP/src/core/tcp.c ****   case ESTABLISHED:
 345:Middlewares/Third_Party/LwIP/src/core/tcp.c ****     err = tcp_send_fin(pcb);
 346:Middlewares/Third_Party/LwIP/src/core/tcp.c ****     if (err == ERR_OK) {
 347:Middlewares/Third_Party/LwIP/src/core/tcp.c ****       MIB2_STATS_INC(mib2.tcpestabresets);
 348:Middlewares/Third_Party/LwIP/src/core/tcp.c ****       pcb->state = FIN_WAIT_1;
 349:Middlewares/Third_Party/LwIP/src/core/tcp.c ****     }
 350:Middlewares/Third_Party/LwIP/src/core/tcp.c ****     break;
 351:Middlewares/Third_Party/LwIP/src/core/tcp.c ****   case CLOSE_WAIT:
 352:Middlewares/Third_Party/LwIP/src/core/tcp.c ****     err = tcp_send_fin(pcb);
 353:Middlewares/Third_Party/LwIP/src/core/tcp.c ****     if (err == ERR_OK) {
 354:Middlewares/Third_Party/LwIP/src/core/tcp.c ****       MIB2_STATS_INC(mib2.tcpestabresets);
 355:Middlewares/Third_Party/LwIP/src/core/tcp.c ****       pcb->state = LAST_ACK;
 356:Middlewares/Third_Party/LwIP/src/core/tcp.c ****     }
 357:Middlewares/Third_Party/LwIP/src/core/tcp.c ****     break;
 358:Middlewares/Third_Party/LwIP/src/core/tcp.c ****   default:
 359:Middlewares/Third_Party/LwIP/src/core/tcp.c ****     /* Has already been closed, do nothing. */
 360:Middlewares/Third_Party/LwIP/src/core/tcp.c ****     return ERR_OK;
 361:Middlewares/Third_Party/LwIP/src/core/tcp.c ****   }
 362:Middlewares/Third_Party/LwIP/src/core/tcp.c **** 
 363:Middlewares/Third_Party/LwIP/src/core/tcp.c ****   if (err == ERR_OK) {
 364:Middlewares/Third_Party/LwIP/src/core/tcp.c ****     /* To ensure all data has been sent when tcp_close returns, we have
 365:Middlewares/Third_Party/LwIP/src/core/tcp.c ****        to make sure tcp_output doesn't fail.
 366:Middlewares/Third_Party/LwIP/src/core/tcp.c ****        Since we don't really have to ensure all data has been sent when tcp_close
 367:Middlewares/Third_Party/LwIP/src/core/tcp.c ****        returns (unsent data is sent from tcp timer functions, also), we don't care
 368:Middlewares/Third_Party/LwIP/src/core/tcp.c ****        for the return value of tcp_output for now. */
 369:Middlewares/Third_Party/LwIP/src/core/tcp.c ****     tcp_output(pcb);
 370:Middlewares/Third_Party/LwIP/src/core/tcp.c ****   } else if (err == ERR_MEM) {
 371:Middlewares/Third_Party/LwIP/src/core/tcp.c ****     /* Mark this pcb for closing. Closing is retried from tcp_tmr. */
 372:Middlewares/Third_Party/LwIP/src/core/tcp.c ****     pcb->flags |= TF_CLOSEPEND;
 373:Middlewares/Third_Party/LwIP/src/core/tcp.c ****     /* We have to return ERR_OK from here to indicate to the callers that this
 374:Middlewares/Third_Party/LwIP/src/core/tcp.c ****        pcb should not be used any more as it will be freed soon via tcp_tmr.
 375:Middlewares/Third_Party/LwIP/src/core/tcp.c ****        This is OK here since sending FIN does not guarantee a time frime for
 376:Middlewares/Third_Party/LwIP/src/core/tcp.c ****        actually freeing the pcb, either (it is left in closure states for
 377:Middlewares/Third_Party/LwIP/src/core/tcp.c ****        remote ACK or timeout) */
 378:Middlewares/Third_Party/LwIP/src/core/tcp.c ****     return ERR_OK;
 379:Middlewares/Third_Party/LwIP/src/core/tcp.c ****   }
 380:Middlewares/Third_Party/LwIP/src/core/tcp.c ****   return err;
 381:Middlewares/Third_Party/LwIP/src/core/tcp.c **** }
 382:Middlewares/Third_Party/LwIP/src/core/tcp.c **** 
 383:Middlewares/Third_Party/LwIP/src/core/tcp.c **** /**
 384:Middlewares/Third_Party/LwIP/src/core/tcp.c ****  * @ingroup tcp_raw
 385:Middlewares/Third_Party/LwIP/src/core/tcp.c ****  * Closes the connection held by the PCB.
 386:Middlewares/Third_Party/LwIP/src/core/tcp.c ****  *
 387:Middlewares/Third_Party/LwIP/src/core/tcp.c ****  * Listening pcbs are freed and may not be referenced any more.
 388:Middlewares/Third_Party/LwIP/src/core/tcp.c ****  * Connection pcbs are freed if not yet connected and may not be referenced
 389:Middlewares/Third_Party/LwIP/src/core/tcp.c ****  * any more. If a connection is established (at least SYN received or in
 390:Middlewares/Third_Party/LwIP/src/core/tcp.c ****  * a closing state), the connection is closed, and put in a closing state.
 391:Middlewares/Third_Party/LwIP/src/core/tcp.c ****  * The pcb is then automatically freed in tcp_slowtmr(). It is therefore
 392:Middlewares/Third_Party/LwIP/src/core/tcp.c ****  * unsafe to reference it (unless an error is returned).
 393:Middlewares/Third_Party/LwIP/src/core/tcp.c ****  *
 394:Middlewares/Third_Party/LwIP/src/core/tcp.c ****  * @param pcb the tcp_pcb to close
ARM GAS  C:\Users\Student\AppData\Local\Temp\cc0PPYfp.s 			page 9


 395:Middlewares/Third_Party/LwIP/src/core/tcp.c ****  * @return ERR_OK if connection has been closed
 396:Middlewares/Third_Party/LwIP/src/core/tcp.c ****  *         another err_t if closing failed and pcb is not freed
 397:Middlewares/Third_Party/LwIP/src/core/tcp.c ****  */
 398:Middlewares/Third_Party/LwIP/src/core/tcp.c **** err_t
 399:Middlewares/Third_Party/LwIP/src/core/tcp.c **** tcp_close(struct tcp_pcb *pcb)
 400:Middlewares/Third_Party/LwIP/src/core/tcp.c **** {
 401:Middlewares/Third_Party/LwIP/src/core/tcp.c ****   LWIP_DEBUGF(TCP_DEBUG, ("tcp_close: closing in "));
 402:Middlewares/Third_Party/LwIP/src/core/tcp.c ****   tcp_debug_print_state(pcb->state);
 403:Middlewares/Third_Party/LwIP/src/core/tcp.c **** 
 404:Middlewares/Third_Party/LwIP/src/core/tcp.c ****   if (pcb->state != LISTEN) {
 405:Middlewares/Third_Party/LwIP/src/core/tcp.c ****     /* Set a flag not to receive any more data... */
 406:Middlewares/Third_Party/LwIP/src/core/tcp.c ****     pcb->flags |= TF_RXCLOSED;
 407:Middlewares/Third_Party/LwIP/src/core/tcp.c ****   }
 408:Middlewares/Third_Party/LwIP/src/core/tcp.c ****   /* ... and close */
 409:Middlewares/Third_Party/LwIP/src/core/tcp.c ****   return tcp_close_shutdown(pcb, 1);
 410:Middlewares/Third_Party/LwIP/src/core/tcp.c **** }
 411:Middlewares/Third_Party/LwIP/src/core/tcp.c **** 
 412:Middlewares/Third_Party/LwIP/src/core/tcp.c **** /**
 413:Middlewares/Third_Party/LwIP/src/core/tcp.c ****  * @ingroup tcp_raw
 414:Middlewares/Third_Party/LwIP/src/core/tcp.c ****  * Causes all or part of a full-duplex connection of this PCB to be shut down.
 415:Middlewares/Third_Party/LwIP/src/core/tcp.c ****  * This doesn't deallocate the PCB unless shutting down both sides!
 416:Middlewares/Third_Party/LwIP/src/core/tcp.c ****  * Shutting down both sides is the same as calling tcp_close, so if it succeds
 417:Middlewares/Third_Party/LwIP/src/core/tcp.c ****  * (i.e. returns ER_OK), the PCB must not be referenced any more!
 418:Middlewares/Third_Party/LwIP/src/core/tcp.c ****  *
 419:Middlewares/Third_Party/LwIP/src/core/tcp.c ****  * @param pcb PCB to shutdown
 420:Middlewares/Third_Party/LwIP/src/core/tcp.c ****  * @param shut_rx shut down receive side if this is != 0
 421:Middlewares/Third_Party/LwIP/src/core/tcp.c ****  * @param shut_tx shut down send side if this is != 0
 422:Middlewares/Third_Party/LwIP/src/core/tcp.c ****  * @return ERR_OK if shutdown succeeded (or the PCB has already been shut down)
 423:Middlewares/Third_Party/LwIP/src/core/tcp.c ****  *         another err_t on error.
 424:Middlewares/Third_Party/LwIP/src/core/tcp.c ****  */
 425:Middlewares/Third_Party/LwIP/src/core/tcp.c **** err_t
 426:Middlewares/Third_Party/LwIP/src/core/tcp.c **** tcp_shutdown(struct tcp_pcb *pcb, int shut_rx, int shut_tx)
 427:Middlewares/Third_Party/LwIP/src/core/tcp.c **** {
 428:Middlewares/Third_Party/LwIP/src/core/tcp.c ****   if (pcb->state == LISTEN) {
 429:Middlewares/Third_Party/LwIP/src/core/tcp.c ****     return ERR_CONN;
 430:Middlewares/Third_Party/LwIP/src/core/tcp.c ****   }
 431:Middlewares/Third_Party/LwIP/src/core/tcp.c ****   if (shut_rx) {
 432:Middlewares/Third_Party/LwIP/src/core/tcp.c ****     /* shut down the receive side: set a flag not to receive any more data... */
 433:Middlewares/Third_Party/LwIP/src/core/tcp.c ****     pcb->flags |= TF_RXCLOSED;
 434:Middlewares/Third_Party/LwIP/src/core/tcp.c ****     if (shut_tx) {
 435:Middlewares/Third_Party/LwIP/src/core/tcp.c ****       /* shutting down the tx AND rx side is the same as closing for the raw API */
 436:Middlewares/Third_Party/LwIP/src/core/tcp.c ****       return tcp_close_shutdown(pcb, 1);
 437:Middlewares/Third_Party/LwIP/src/core/tcp.c ****     }
 438:Middlewares/Third_Party/LwIP/src/core/tcp.c ****     /* ... and free buffered data */
 439:Middlewares/Third_Party/LwIP/src/core/tcp.c ****     if (pcb->refused_data != NULL) {
 440:Middlewares/Third_Party/LwIP/src/core/tcp.c ****       pbuf_free(pcb->refused_data);
 441:Middlewares/Third_Party/LwIP/src/core/tcp.c ****       pcb->refused_data = NULL;
 442:Middlewares/Third_Party/LwIP/src/core/tcp.c ****     }
 443:Middlewares/Third_Party/LwIP/src/core/tcp.c ****   }
 444:Middlewares/Third_Party/LwIP/src/core/tcp.c ****   if (shut_tx) {
 445:Middlewares/Third_Party/LwIP/src/core/tcp.c ****     /* This can't happen twice since if it succeeds, the pcb's state is changed.
 446:Middlewares/Third_Party/LwIP/src/core/tcp.c ****        Only close in these states as the others directly deallocate the PCB */
 447:Middlewares/Third_Party/LwIP/src/core/tcp.c ****     switch (pcb->state) {
 448:Middlewares/Third_Party/LwIP/src/core/tcp.c ****     case SYN_RCVD:
 449:Middlewares/Third_Party/LwIP/src/core/tcp.c ****     case ESTABLISHED:
 450:Middlewares/Third_Party/LwIP/src/core/tcp.c ****     case CLOSE_WAIT:
 451:Middlewares/Third_Party/LwIP/src/core/tcp.c ****       return tcp_close_shutdown(pcb, (u8_t)shut_rx);
ARM GAS  C:\Users\Student\AppData\Local\Temp\cc0PPYfp.s 			page 10


 452:Middlewares/Third_Party/LwIP/src/core/tcp.c ****     default:
 453:Middlewares/Third_Party/LwIP/src/core/tcp.c ****       /* Not (yet?) connected, cannot shutdown the TX side as that would bring us
 454:Middlewares/Third_Party/LwIP/src/core/tcp.c ****         into CLOSED state, where the PCB is deallocated. */
 455:Middlewares/Third_Party/LwIP/src/core/tcp.c ****       return ERR_CONN;
 456:Middlewares/Third_Party/LwIP/src/core/tcp.c ****     }
 457:Middlewares/Third_Party/LwIP/src/core/tcp.c ****   }
 458:Middlewares/Third_Party/LwIP/src/core/tcp.c ****   return ERR_OK;
 459:Middlewares/Third_Party/LwIP/src/core/tcp.c **** }
 460:Middlewares/Third_Party/LwIP/src/core/tcp.c **** 
 461:Middlewares/Third_Party/LwIP/src/core/tcp.c **** /**
 462:Middlewares/Third_Party/LwIP/src/core/tcp.c ****  * Abandons a connection and optionally sends a RST to the remote
 463:Middlewares/Third_Party/LwIP/src/core/tcp.c ****  * host.  Deletes the local protocol control block. This is done when
 464:Middlewares/Third_Party/LwIP/src/core/tcp.c ****  * a connection is killed because of shortage of memory.
 465:Middlewares/Third_Party/LwIP/src/core/tcp.c ****  *
 466:Middlewares/Third_Party/LwIP/src/core/tcp.c ****  * @param pcb the tcp_pcb to abort
 467:Middlewares/Third_Party/LwIP/src/core/tcp.c ****  * @param reset boolean to indicate whether a reset should be sent
 468:Middlewares/Third_Party/LwIP/src/core/tcp.c ****  */
 469:Middlewares/Third_Party/LwIP/src/core/tcp.c **** void
 470:Middlewares/Third_Party/LwIP/src/core/tcp.c **** tcp_abandon(struct tcp_pcb *pcb, int reset)
 471:Middlewares/Third_Party/LwIP/src/core/tcp.c **** {
 472:Middlewares/Third_Party/LwIP/src/core/tcp.c ****   u32_t seqno, ackno;
 473:Middlewares/Third_Party/LwIP/src/core/tcp.c **** #if LWIP_CALLBACK_API
 474:Middlewares/Third_Party/LwIP/src/core/tcp.c ****   tcp_err_fn errf;
 475:Middlewares/Third_Party/LwIP/src/core/tcp.c **** #endif /* LWIP_CALLBACK_API */
 476:Middlewares/Third_Party/LwIP/src/core/tcp.c ****   void *errf_arg;
 477:Middlewares/Third_Party/LwIP/src/core/tcp.c **** 
 478:Middlewares/Third_Party/LwIP/src/core/tcp.c ****   /* pcb->state LISTEN not allowed here */
 479:Middlewares/Third_Party/LwIP/src/core/tcp.c ****   LWIP_ASSERT("don't call tcp_abort/tcp_abandon for listen-pcbs",
 480:Middlewares/Third_Party/LwIP/src/core/tcp.c ****     pcb->state != LISTEN);
 481:Middlewares/Third_Party/LwIP/src/core/tcp.c ****   /* Figure out on which TCP PCB list we are, and remove us. If we
 482:Middlewares/Third_Party/LwIP/src/core/tcp.c ****      are in an active state, call the receive function associated with
 483:Middlewares/Third_Party/LwIP/src/core/tcp.c ****      the PCB with a NULL argument, and send an RST to the remote end. */
 484:Middlewares/Third_Party/LwIP/src/core/tcp.c ****   if (pcb->state == TIME_WAIT) {
 485:Middlewares/Third_Party/LwIP/src/core/tcp.c ****     tcp_pcb_remove(&tcp_tw_pcbs, pcb);
 486:Middlewares/Third_Party/LwIP/src/core/tcp.c ****     memp_free(MEMP_TCP_PCB, pcb);
 487:Middlewares/Third_Party/LwIP/src/core/tcp.c ****   } else {
 488:Middlewares/Third_Party/LwIP/src/core/tcp.c ****     int send_rst = 0;
 489:Middlewares/Third_Party/LwIP/src/core/tcp.c ****     u16_t local_port = 0;
 490:Middlewares/Third_Party/LwIP/src/core/tcp.c ****     enum tcp_state last_state;
 491:Middlewares/Third_Party/LwIP/src/core/tcp.c ****     seqno = pcb->snd_nxt;
 492:Middlewares/Third_Party/LwIP/src/core/tcp.c ****     ackno = pcb->rcv_nxt;
 493:Middlewares/Third_Party/LwIP/src/core/tcp.c **** #if LWIP_CALLBACK_API
 494:Middlewares/Third_Party/LwIP/src/core/tcp.c ****     errf = pcb->errf;
 495:Middlewares/Third_Party/LwIP/src/core/tcp.c **** #endif /* LWIP_CALLBACK_API */
 496:Middlewares/Third_Party/LwIP/src/core/tcp.c ****     errf_arg = pcb->callback_arg;
 497:Middlewares/Third_Party/LwIP/src/core/tcp.c ****     if (pcb->state == CLOSED) {
 498:Middlewares/Third_Party/LwIP/src/core/tcp.c ****       if (pcb->local_port != 0) {
 499:Middlewares/Third_Party/LwIP/src/core/tcp.c ****         /* bound, not yet opened */
 500:Middlewares/Third_Party/LwIP/src/core/tcp.c ****         TCP_RMV(&tcp_bound_pcbs, pcb);
 501:Middlewares/Third_Party/LwIP/src/core/tcp.c ****       }
 502:Middlewares/Third_Party/LwIP/src/core/tcp.c ****     } else {
 503:Middlewares/Third_Party/LwIP/src/core/tcp.c ****       send_rst = reset;
 504:Middlewares/Third_Party/LwIP/src/core/tcp.c ****       local_port = pcb->local_port;
 505:Middlewares/Third_Party/LwIP/src/core/tcp.c ****       TCP_PCB_REMOVE_ACTIVE(pcb);
 506:Middlewares/Third_Party/LwIP/src/core/tcp.c ****     }
 507:Middlewares/Third_Party/LwIP/src/core/tcp.c ****     if (pcb->unacked != NULL) {
 508:Middlewares/Third_Party/LwIP/src/core/tcp.c ****       tcp_segs_free(pcb->unacked);
ARM GAS  C:\Users\Student\AppData\Local\Temp\cc0PPYfp.s 			page 11


 509:Middlewares/Third_Party/LwIP/src/core/tcp.c ****     }
 510:Middlewares/Third_Party/LwIP/src/core/tcp.c ****     if (pcb->unsent != NULL) {
 511:Middlewares/Third_Party/LwIP/src/core/tcp.c ****       tcp_segs_free(pcb->unsent);
 512:Middlewares/Third_Party/LwIP/src/core/tcp.c ****     }
 513:Middlewares/Third_Party/LwIP/src/core/tcp.c **** #if TCP_QUEUE_OOSEQ
 514:Middlewares/Third_Party/LwIP/src/core/tcp.c ****     if (pcb->ooseq != NULL) {
 515:Middlewares/Third_Party/LwIP/src/core/tcp.c ****       tcp_segs_free(pcb->ooseq);
 516:Middlewares/Third_Party/LwIP/src/core/tcp.c ****     }
 517:Middlewares/Third_Party/LwIP/src/core/tcp.c **** #endif /* TCP_QUEUE_OOSEQ */
 518:Middlewares/Third_Party/LwIP/src/core/tcp.c ****     tcp_backlog_accepted(pcb);
 519:Middlewares/Third_Party/LwIP/src/core/tcp.c ****     if (send_rst) {
 520:Middlewares/Third_Party/LwIP/src/core/tcp.c ****       LWIP_DEBUGF(TCP_RST_DEBUG, ("tcp_abandon: sending RST\n"));
 521:Middlewares/Third_Party/LwIP/src/core/tcp.c ****       tcp_rst(seqno, ackno, &pcb->local_ip, &pcb->remote_ip, local_port, pcb->remote_port);
 522:Middlewares/Third_Party/LwIP/src/core/tcp.c ****     }
 523:Middlewares/Third_Party/LwIP/src/core/tcp.c ****     last_state = pcb->state;
 524:Middlewares/Third_Party/LwIP/src/core/tcp.c ****     memp_free(MEMP_TCP_PCB, pcb);
 525:Middlewares/Third_Party/LwIP/src/core/tcp.c ****     TCP_EVENT_ERR(last_state, errf, errf_arg, ERR_ABRT);
 526:Middlewares/Third_Party/LwIP/src/core/tcp.c ****   }
 527:Middlewares/Third_Party/LwIP/src/core/tcp.c **** }
 528:Middlewares/Third_Party/LwIP/src/core/tcp.c **** 
 529:Middlewares/Third_Party/LwIP/src/core/tcp.c **** /**
 530:Middlewares/Third_Party/LwIP/src/core/tcp.c ****  * @ingroup tcp_raw
 531:Middlewares/Third_Party/LwIP/src/core/tcp.c ****  * Aborts the connection by sending a RST (reset) segment to the remote
 532:Middlewares/Third_Party/LwIP/src/core/tcp.c ****  * host. The pcb is deallocated. This function never fails.
 533:Middlewares/Third_Party/LwIP/src/core/tcp.c ****  *
 534:Middlewares/Third_Party/LwIP/src/core/tcp.c ****  * ATTENTION: When calling this from one of the TCP callbacks, make
 535:Middlewares/Third_Party/LwIP/src/core/tcp.c ****  * sure you always return ERR_ABRT (and never return ERR_ABRT otherwise
 536:Middlewares/Third_Party/LwIP/src/core/tcp.c ****  * or you will risk accessing deallocated memory or memory leaks!
 537:Middlewares/Third_Party/LwIP/src/core/tcp.c ****  *
 538:Middlewares/Third_Party/LwIP/src/core/tcp.c ****  * @param pcb the tcp pcb to abort
 539:Middlewares/Third_Party/LwIP/src/core/tcp.c ****  */
 540:Middlewares/Third_Party/LwIP/src/core/tcp.c **** void
 541:Middlewares/Third_Party/LwIP/src/core/tcp.c **** tcp_abort(struct tcp_pcb *pcb)
 542:Middlewares/Third_Party/LwIP/src/core/tcp.c **** {
 543:Middlewares/Third_Party/LwIP/src/core/tcp.c ****   tcp_abandon(pcb, 1);
 544:Middlewares/Third_Party/LwIP/src/core/tcp.c **** }
 545:Middlewares/Third_Party/LwIP/src/core/tcp.c **** 
 546:Middlewares/Third_Party/LwIP/src/core/tcp.c **** /**
 547:Middlewares/Third_Party/LwIP/src/core/tcp.c ****  * @ingroup tcp_raw
 548:Middlewares/Third_Party/LwIP/src/core/tcp.c ****  * Binds the connection to a local port number and IP address. If the
 549:Middlewares/Third_Party/LwIP/src/core/tcp.c ****  * IP address is not given (i.e., ipaddr == NULL), the IP address of
 550:Middlewares/Third_Party/LwIP/src/core/tcp.c ****  * the outgoing network interface is used instead.
 551:Middlewares/Third_Party/LwIP/src/core/tcp.c ****  *
 552:Middlewares/Third_Party/LwIP/src/core/tcp.c ****  * @param pcb the tcp_pcb to bind (no check is done whether this pcb is
 553:Middlewares/Third_Party/LwIP/src/core/tcp.c ****  *        already bound!)
 554:Middlewares/Third_Party/LwIP/src/core/tcp.c ****  * @param ipaddr the local ip address to bind to (use IP4_ADDR_ANY to bind
 555:Middlewares/Third_Party/LwIP/src/core/tcp.c ****  *        to any local address
 556:Middlewares/Third_Party/LwIP/src/core/tcp.c ****  * @param port the local port to bind to
 557:Middlewares/Third_Party/LwIP/src/core/tcp.c ****  * @return ERR_USE if the port is already in use
 558:Middlewares/Third_Party/LwIP/src/core/tcp.c ****  *         ERR_VAL if bind failed because the PCB is not in a valid state
 559:Middlewares/Third_Party/LwIP/src/core/tcp.c ****  *         ERR_OK if bound
 560:Middlewares/Third_Party/LwIP/src/core/tcp.c ****  */
 561:Middlewares/Third_Party/LwIP/src/core/tcp.c **** err_t
 562:Middlewares/Third_Party/LwIP/src/core/tcp.c **** tcp_bind(struct tcp_pcb *pcb, const ip_addr_t *ipaddr, u16_t port)
 563:Middlewares/Third_Party/LwIP/src/core/tcp.c **** {
 564:Middlewares/Third_Party/LwIP/src/core/tcp.c ****   int i;
 565:Middlewares/Third_Party/LwIP/src/core/tcp.c ****   int max_pcb_list = NUM_TCP_PCB_LISTS;
ARM GAS  C:\Users\Student\AppData\Local\Temp\cc0PPYfp.s 			page 12


 566:Middlewares/Third_Party/LwIP/src/core/tcp.c ****   struct tcp_pcb *cpcb;
 567:Middlewares/Third_Party/LwIP/src/core/tcp.c **** 
 568:Middlewares/Third_Party/LwIP/src/core/tcp.c **** #if LWIP_IPV4
 569:Middlewares/Third_Party/LwIP/src/core/tcp.c ****   /* Don't propagate NULL pointer (IPv4 ANY) to subsequent functions */
 570:Middlewares/Third_Party/LwIP/src/core/tcp.c ****   if (ipaddr == NULL) {
 571:Middlewares/Third_Party/LwIP/src/core/tcp.c ****     ipaddr = IP4_ADDR_ANY;
 572:Middlewares/Third_Party/LwIP/src/core/tcp.c ****   }
 573:Middlewares/Third_Party/LwIP/src/core/tcp.c **** #endif /* LWIP_IPV4 */
 574:Middlewares/Third_Party/LwIP/src/core/tcp.c **** 
 575:Middlewares/Third_Party/LwIP/src/core/tcp.c ****   /* still need to check for ipaddr == NULL in IPv6 only case */
 576:Middlewares/Third_Party/LwIP/src/core/tcp.c ****   if ((pcb == NULL) || (ipaddr == NULL)) {
 577:Middlewares/Third_Party/LwIP/src/core/tcp.c ****     return ERR_VAL;
 578:Middlewares/Third_Party/LwIP/src/core/tcp.c ****   }
 579:Middlewares/Third_Party/LwIP/src/core/tcp.c **** 
 580:Middlewares/Third_Party/LwIP/src/core/tcp.c ****   LWIP_ERROR("tcp_bind: can only bind in state CLOSED", pcb->state == CLOSED, return ERR_VAL);
 581:Middlewares/Third_Party/LwIP/src/core/tcp.c **** 
 582:Middlewares/Third_Party/LwIP/src/core/tcp.c **** #if SO_REUSE
 583:Middlewares/Third_Party/LwIP/src/core/tcp.c ****   /* Unless the REUSEADDR flag is set,
 584:Middlewares/Third_Party/LwIP/src/core/tcp.c ****      we have to check the pcbs in TIME-WAIT state, also.
 585:Middlewares/Third_Party/LwIP/src/core/tcp.c ****      We do not dump TIME_WAIT pcb's; they can still be matched by incoming
 586:Middlewares/Third_Party/LwIP/src/core/tcp.c ****      packets using both local and remote IP addresses and ports to distinguish.
 587:Middlewares/Third_Party/LwIP/src/core/tcp.c ****    */
 588:Middlewares/Third_Party/LwIP/src/core/tcp.c ****   if (ip_get_option(pcb, SOF_REUSEADDR)) {
 589:Middlewares/Third_Party/LwIP/src/core/tcp.c ****     max_pcb_list = NUM_TCP_PCB_LISTS_NO_TIME_WAIT;
 590:Middlewares/Third_Party/LwIP/src/core/tcp.c ****   }
 591:Middlewares/Third_Party/LwIP/src/core/tcp.c **** #endif /* SO_REUSE */
 592:Middlewares/Third_Party/LwIP/src/core/tcp.c **** 
 593:Middlewares/Third_Party/LwIP/src/core/tcp.c ****   if (port == 0) {
 594:Middlewares/Third_Party/LwIP/src/core/tcp.c ****     port = tcp_new_port();
 595:Middlewares/Third_Party/LwIP/src/core/tcp.c ****     if (port == 0) {
 596:Middlewares/Third_Party/LwIP/src/core/tcp.c ****       return ERR_BUF;
 597:Middlewares/Third_Party/LwIP/src/core/tcp.c ****     }
 598:Middlewares/Third_Party/LwIP/src/core/tcp.c ****   } else {
 599:Middlewares/Third_Party/LwIP/src/core/tcp.c ****     /* Check if the address already is in use (on all lists) */
 600:Middlewares/Third_Party/LwIP/src/core/tcp.c ****     for (i = 0; i < max_pcb_list; i++) {
 601:Middlewares/Third_Party/LwIP/src/core/tcp.c ****       for (cpcb = *tcp_pcb_lists[i]; cpcb != NULL; cpcb = cpcb->next) {
 602:Middlewares/Third_Party/LwIP/src/core/tcp.c ****         if (cpcb->local_port == port) {
 603:Middlewares/Third_Party/LwIP/src/core/tcp.c **** #if SO_REUSE
 604:Middlewares/Third_Party/LwIP/src/core/tcp.c ****           /* Omit checking for the same port if both pcbs have REUSEADDR set.
 605:Middlewares/Third_Party/LwIP/src/core/tcp.c ****              For SO_REUSEADDR, the duplicate-check for a 5-tuple is done in
 606:Middlewares/Third_Party/LwIP/src/core/tcp.c ****              tcp_connect. */
 607:Middlewares/Third_Party/LwIP/src/core/tcp.c ****           if (!ip_get_option(pcb, SOF_REUSEADDR) ||
 608:Middlewares/Third_Party/LwIP/src/core/tcp.c ****               !ip_get_option(cpcb, SOF_REUSEADDR))
 609:Middlewares/Third_Party/LwIP/src/core/tcp.c **** #endif /* SO_REUSE */
 610:Middlewares/Third_Party/LwIP/src/core/tcp.c ****           {
 611:Middlewares/Third_Party/LwIP/src/core/tcp.c ****             /* @todo: check accept_any_ip_version */
 612:Middlewares/Third_Party/LwIP/src/core/tcp.c ****             if ((IP_IS_V6(ipaddr) == IP_IS_V6_VAL(cpcb->local_ip)) &&
 613:Middlewares/Third_Party/LwIP/src/core/tcp.c ****                 (ip_addr_isany(&cpcb->local_ip) ||
 614:Middlewares/Third_Party/LwIP/src/core/tcp.c ****                 ip_addr_isany(ipaddr) ||
 615:Middlewares/Third_Party/LwIP/src/core/tcp.c ****                 ip_addr_cmp(&cpcb->local_ip, ipaddr))) {
 616:Middlewares/Third_Party/LwIP/src/core/tcp.c ****               return ERR_USE;
 617:Middlewares/Third_Party/LwIP/src/core/tcp.c ****             }
 618:Middlewares/Third_Party/LwIP/src/core/tcp.c ****           }
 619:Middlewares/Third_Party/LwIP/src/core/tcp.c ****         }
 620:Middlewares/Third_Party/LwIP/src/core/tcp.c ****       }
 621:Middlewares/Third_Party/LwIP/src/core/tcp.c ****     }
 622:Middlewares/Third_Party/LwIP/src/core/tcp.c ****   }
ARM GAS  C:\Users\Student\AppData\Local\Temp\cc0PPYfp.s 			page 13


 623:Middlewares/Third_Party/LwIP/src/core/tcp.c **** 
 624:Middlewares/Third_Party/LwIP/src/core/tcp.c ****   if (!ip_addr_isany(ipaddr)) {
 625:Middlewares/Third_Party/LwIP/src/core/tcp.c ****     ip_addr_set(&pcb->local_ip, ipaddr);
 626:Middlewares/Third_Party/LwIP/src/core/tcp.c ****   }
 627:Middlewares/Third_Party/LwIP/src/core/tcp.c ****   pcb->local_port = port;
 628:Middlewares/Third_Party/LwIP/src/core/tcp.c ****   TCP_REG(&tcp_bound_pcbs, pcb);
 629:Middlewares/Third_Party/LwIP/src/core/tcp.c ****   LWIP_DEBUGF(TCP_DEBUG, ("tcp_bind: bind to port %"U16_F"\n", port));
 630:Middlewares/Third_Party/LwIP/src/core/tcp.c ****   return ERR_OK;
 631:Middlewares/Third_Party/LwIP/src/core/tcp.c **** }
 632:Middlewares/Third_Party/LwIP/src/core/tcp.c **** #if LWIP_CALLBACK_API
 633:Middlewares/Third_Party/LwIP/src/core/tcp.c **** /**
 634:Middlewares/Third_Party/LwIP/src/core/tcp.c ****  * Default accept callback if no accept callback is specified by the user.
 635:Middlewares/Third_Party/LwIP/src/core/tcp.c ****  */
 636:Middlewares/Third_Party/LwIP/src/core/tcp.c **** static err_t
 637:Middlewares/Third_Party/LwIP/src/core/tcp.c **** tcp_accept_null(void *arg, struct tcp_pcb *pcb, err_t err)
 638:Middlewares/Third_Party/LwIP/src/core/tcp.c **** {
 639:Middlewares/Third_Party/LwIP/src/core/tcp.c ****   LWIP_UNUSED_ARG(arg);
 640:Middlewares/Third_Party/LwIP/src/core/tcp.c ****   LWIP_UNUSED_ARG(err);
 641:Middlewares/Third_Party/LwIP/src/core/tcp.c **** 
 642:Middlewares/Third_Party/LwIP/src/core/tcp.c ****   tcp_abort(pcb);
 643:Middlewares/Third_Party/LwIP/src/core/tcp.c **** 
 644:Middlewares/Third_Party/LwIP/src/core/tcp.c ****   return ERR_ABRT;
 645:Middlewares/Third_Party/LwIP/src/core/tcp.c **** }
 646:Middlewares/Third_Party/LwIP/src/core/tcp.c **** #endif /* LWIP_CALLBACK_API */
 647:Middlewares/Third_Party/LwIP/src/core/tcp.c **** 
 648:Middlewares/Third_Party/LwIP/src/core/tcp.c **** /**
 649:Middlewares/Third_Party/LwIP/src/core/tcp.c ****  * @ingroup tcp_raw
 650:Middlewares/Third_Party/LwIP/src/core/tcp.c ****  * Set the state of the connection to be LISTEN, which means that it
 651:Middlewares/Third_Party/LwIP/src/core/tcp.c ****  * is able to accept incoming connections. The protocol control block
 652:Middlewares/Third_Party/LwIP/src/core/tcp.c ****  * is reallocated in order to consume less memory. Setting the
 653:Middlewares/Third_Party/LwIP/src/core/tcp.c ****  * connection to LISTEN is an irreversible process.
 654:Middlewares/Third_Party/LwIP/src/core/tcp.c ****  *
 655:Middlewares/Third_Party/LwIP/src/core/tcp.c ****  * @param pcb the original tcp_pcb
 656:Middlewares/Third_Party/LwIP/src/core/tcp.c ****  * @param backlog the incoming connections queue limit
 657:Middlewares/Third_Party/LwIP/src/core/tcp.c ****  * @return tcp_pcb used for listening, consumes less memory.
 658:Middlewares/Third_Party/LwIP/src/core/tcp.c ****  *
 659:Middlewares/Third_Party/LwIP/src/core/tcp.c ****  * @note The original tcp_pcb is freed. This function therefore has to be
 660:Middlewares/Third_Party/LwIP/src/core/tcp.c ****  *       called like this:
 661:Middlewares/Third_Party/LwIP/src/core/tcp.c ****  *             tpcb = tcp_listen_with_backlog(tpcb, backlog);
 662:Middlewares/Third_Party/LwIP/src/core/tcp.c ****  */
 663:Middlewares/Third_Party/LwIP/src/core/tcp.c **** struct tcp_pcb *
 664:Middlewares/Third_Party/LwIP/src/core/tcp.c **** tcp_listen_with_backlog(struct tcp_pcb *pcb, u8_t backlog)
 665:Middlewares/Third_Party/LwIP/src/core/tcp.c **** {
 666:Middlewares/Third_Party/LwIP/src/core/tcp.c ****   return tcp_listen_with_backlog_and_err(pcb, backlog, NULL);
 667:Middlewares/Third_Party/LwIP/src/core/tcp.c **** }
 668:Middlewares/Third_Party/LwIP/src/core/tcp.c **** 
 669:Middlewares/Third_Party/LwIP/src/core/tcp.c **** /**
 670:Middlewares/Third_Party/LwIP/src/core/tcp.c ****  * @ingroup tcp_raw
 671:Middlewares/Third_Party/LwIP/src/core/tcp.c ****  * Set the state of the connection to be LISTEN, which means that it
 672:Middlewares/Third_Party/LwIP/src/core/tcp.c ****  * is able to accept incoming connections. The protocol control block
 673:Middlewares/Third_Party/LwIP/src/core/tcp.c ****  * is reallocated in order to consume less memory. Setting the
 674:Middlewares/Third_Party/LwIP/src/core/tcp.c ****  * connection to LISTEN is an irreversible process.
 675:Middlewares/Third_Party/LwIP/src/core/tcp.c ****  *
 676:Middlewares/Third_Party/LwIP/src/core/tcp.c ****  * @param pcb the original tcp_pcb
 677:Middlewares/Third_Party/LwIP/src/core/tcp.c ****  * @param backlog the incoming connections queue limit
 678:Middlewares/Third_Party/LwIP/src/core/tcp.c ****  * @param err when NULL is returned, this contains the error reason
 679:Middlewares/Third_Party/LwIP/src/core/tcp.c ****  * @return tcp_pcb used for listening, consumes less memory.
ARM GAS  C:\Users\Student\AppData\Local\Temp\cc0PPYfp.s 			page 14


 680:Middlewares/Third_Party/LwIP/src/core/tcp.c ****  *
 681:Middlewares/Third_Party/LwIP/src/core/tcp.c ****  * @note The original tcp_pcb is freed. This function therefore has to be
 682:Middlewares/Third_Party/LwIP/src/core/tcp.c ****  *       called like this:
 683:Middlewares/Third_Party/LwIP/src/core/tcp.c ****  *             tpcb = tcp_listen_with_backlog_and_err(tpcb, backlog, &err);
 684:Middlewares/Third_Party/LwIP/src/core/tcp.c ****  */
 685:Middlewares/Third_Party/LwIP/src/core/tcp.c **** struct tcp_pcb *
 686:Middlewares/Third_Party/LwIP/src/core/tcp.c **** tcp_listen_with_backlog_and_err(struct tcp_pcb *pcb, u8_t backlog, err_t *err)
 687:Middlewares/Third_Party/LwIP/src/core/tcp.c **** {
 688:Middlewares/Third_Party/LwIP/src/core/tcp.c ****   struct tcp_pcb_listen *lpcb = NULL;
 689:Middlewares/Third_Party/LwIP/src/core/tcp.c ****   err_t res;
 690:Middlewares/Third_Party/LwIP/src/core/tcp.c **** 
 691:Middlewares/Third_Party/LwIP/src/core/tcp.c ****   LWIP_UNUSED_ARG(backlog);
 692:Middlewares/Third_Party/LwIP/src/core/tcp.c ****   LWIP_ERROR("tcp_listen: pcb already connected", pcb->state == CLOSED, res = ERR_CLSD; goto done);
 693:Middlewares/Third_Party/LwIP/src/core/tcp.c **** 
 694:Middlewares/Third_Party/LwIP/src/core/tcp.c ****   /* already listening? */
 695:Middlewares/Third_Party/LwIP/src/core/tcp.c ****   if (pcb->state == LISTEN) {
 696:Middlewares/Third_Party/LwIP/src/core/tcp.c ****     lpcb = (struct tcp_pcb_listen*)pcb;
 697:Middlewares/Third_Party/LwIP/src/core/tcp.c ****     res = ERR_ALREADY;
 698:Middlewares/Third_Party/LwIP/src/core/tcp.c ****     goto done;
 699:Middlewares/Third_Party/LwIP/src/core/tcp.c ****   }
 700:Middlewares/Third_Party/LwIP/src/core/tcp.c **** #if SO_REUSE
 701:Middlewares/Third_Party/LwIP/src/core/tcp.c ****   if (ip_get_option(pcb, SOF_REUSEADDR)) {
 702:Middlewares/Third_Party/LwIP/src/core/tcp.c ****     /* Since SOF_REUSEADDR allows reusing a local address before the pcb's usage
 703:Middlewares/Third_Party/LwIP/src/core/tcp.c ****        is declared (listen-/connection-pcb), we have to make sure now that
 704:Middlewares/Third_Party/LwIP/src/core/tcp.c ****        this port is only used once for every local IP. */
 705:Middlewares/Third_Party/LwIP/src/core/tcp.c ****     for (lpcb = tcp_listen_pcbs.listen_pcbs; lpcb != NULL; lpcb = lpcb->next) {
 706:Middlewares/Third_Party/LwIP/src/core/tcp.c ****       if ((lpcb->local_port == pcb->local_port) &&
 707:Middlewares/Third_Party/LwIP/src/core/tcp.c ****           ip_addr_cmp(&lpcb->local_ip, &pcb->local_ip)) {
 708:Middlewares/Third_Party/LwIP/src/core/tcp.c ****         /* this address/port is already used */
 709:Middlewares/Third_Party/LwIP/src/core/tcp.c ****         lpcb = NULL;
 710:Middlewares/Third_Party/LwIP/src/core/tcp.c ****         res = ERR_USE;
 711:Middlewares/Third_Party/LwIP/src/core/tcp.c ****         goto done;
 712:Middlewares/Third_Party/LwIP/src/core/tcp.c ****       }
 713:Middlewares/Third_Party/LwIP/src/core/tcp.c ****     }
 714:Middlewares/Third_Party/LwIP/src/core/tcp.c ****   }
 715:Middlewares/Third_Party/LwIP/src/core/tcp.c **** #endif /* SO_REUSE */
 716:Middlewares/Third_Party/LwIP/src/core/tcp.c ****   lpcb = (struct tcp_pcb_listen *)memp_malloc(MEMP_TCP_PCB_LISTEN);
 717:Middlewares/Third_Party/LwIP/src/core/tcp.c ****   if (lpcb == NULL) {
 718:Middlewares/Third_Party/LwIP/src/core/tcp.c ****     res = ERR_MEM;
 719:Middlewares/Third_Party/LwIP/src/core/tcp.c ****     goto done;
 720:Middlewares/Third_Party/LwIP/src/core/tcp.c ****   }
 721:Middlewares/Third_Party/LwIP/src/core/tcp.c ****   lpcb->callback_arg = pcb->callback_arg;
 722:Middlewares/Third_Party/LwIP/src/core/tcp.c ****   lpcb->local_port = pcb->local_port;
 723:Middlewares/Third_Party/LwIP/src/core/tcp.c ****   lpcb->state = LISTEN;
 724:Middlewares/Third_Party/LwIP/src/core/tcp.c ****   lpcb->prio = pcb->prio;
 725:Middlewares/Third_Party/LwIP/src/core/tcp.c ****   lpcb->so_options = pcb->so_options;
 726:Middlewares/Third_Party/LwIP/src/core/tcp.c ****   lpcb->ttl = pcb->ttl;
 727:Middlewares/Third_Party/LwIP/src/core/tcp.c ****   lpcb->tos = pcb->tos;
 728:Middlewares/Third_Party/LwIP/src/core/tcp.c **** #if LWIP_IPV4 && LWIP_IPV6
 729:Middlewares/Third_Party/LwIP/src/core/tcp.c ****   IP_SET_TYPE_VAL(lpcb->remote_ip, pcb->local_ip.type);
 730:Middlewares/Third_Party/LwIP/src/core/tcp.c **** #endif /* LWIP_IPV4 && LWIP_IPV6 */
 731:Middlewares/Third_Party/LwIP/src/core/tcp.c ****   ip_addr_copy(lpcb->local_ip, pcb->local_ip);
 732:Middlewares/Third_Party/LwIP/src/core/tcp.c ****   if (pcb->local_port != 0) {
 733:Middlewares/Third_Party/LwIP/src/core/tcp.c ****     TCP_RMV(&tcp_bound_pcbs, pcb);
 734:Middlewares/Third_Party/LwIP/src/core/tcp.c ****   }
 735:Middlewares/Third_Party/LwIP/src/core/tcp.c ****   memp_free(MEMP_TCP_PCB, pcb);
 736:Middlewares/Third_Party/LwIP/src/core/tcp.c **** #if LWIP_CALLBACK_API
ARM GAS  C:\Users\Student\AppData\Local\Temp\cc0PPYfp.s 			page 15


 737:Middlewares/Third_Party/LwIP/src/core/tcp.c ****   lpcb->accept = tcp_accept_null;
 738:Middlewares/Third_Party/LwIP/src/core/tcp.c **** #endif /* LWIP_CALLBACK_API */
 739:Middlewares/Third_Party/LwIP/src/core/tcp.c **** #if TCP_LISTEN_BACKLOG
 740:Middlewares/Third_Party/LwIP/src/core/tcp.c ****   lpcb->accepts_pending = 0;
 741:Middlewares/Third_Party/LwIP/src/core/tcp.c ****   tcp_backlog_set(lpcb, backlog);
 742:Middlewares/Third_Party/LwIP/src/core/tcp.c **** #endif /* TCP_LISTEN_BACKLOG */
 743:Middlewares/Third_Party/LwIP/src/core/tcp.c ****   TCP_REG(&tcp_listen_pcbs.pcbs, (struct tcp_pcb *)lpcb);
 744:Middlewares/Third_Party/LwIP/src/core/tcp.c ****   res = ERR_OK;
 745:Middlewares/Third_Party/LwIP/src/core/tcp.c **** done:
 746:Middlewares/Third_Party/LwIP/src/core/tcp.c ****   if (err != NULL) {
 747:Middlewares/Third_Party/LwIP/src/core/tcp.c ****     *err = res;
 748:Middlewares/Third_Party/LwIP/src/core/tcp.c ****   }
 749:Middlewares/Third_Party/LwIP/src/core/tcp.c ****   return (struct tcp_pcb *)lpcb;
 750:Middlewares/Third_Party/LwIP/src/core/tcp.c **** }
 751:Middlewares/Third_Party/LwIP/src/core/tcp.c **** 
 752:Middlewares/Third_Party/LwIP/src/core/tcp.c **** /**
 753:Middlewares/Third_Party/LwIP/src/core/tcp.c ****  * Update the state that tracks the available window space to advertise.
 754:Middlewares/Third_Party/LwIP/src/core/tcp.c ****  *
 755:Middlewares/Third_Party/LwIP/src/core/tcp.c ****  * Returns how much extra window would be advertised if we sent an
 756:Middlewares/Third_Party/LwIP/src/core/tcp.c ****  * update now.
 757:Middlewares/Third_Party/LwIP/src/core/tcp.c ****  */
 758:Middlewares/Third_Party/LwIP/src/core/tcp.c **** u32_t
 759:Middlewares/Third_Party/LwIP/src/core/tcp.c **** tcp_update_rcv_ann_wnd(struct tcp_pcb *pcb)
 760:Middlewares/Third_Party/LwIP/src/core/tcp.c **** {
 761:Middlewares/Third_Party/LwIP/src/core/tcp.c ****   u32_t new_right_edge = pcb->rcv_nxt + pcb->rcv_wnd;
 762:Middlewares/Third_Party/LwIP/src/core/tcp.c **** 
 763:Middlewares/Third_Party/LwIP/src/core/tcp.c ****   if (TCP_SEQ_GEQ(new_right_edge, pcb->rcv_ann_right_edge + LWIP_MIN((TCP_WND / 2), pcb->mss))) {
 764:Middlewares/Third_Party/LwIP/src/core/tcp.c ****     /* we can advertise more window */
 765:Middlewares/Third_Party/LwIP/src/core/tcp.c ****     pcb->rcv_ann_wnd = pcb->rcv_wnd;
 766:Middlewares/Third_Party/LwIP/src/core/tcp.c ****     return new_right_edge - pcb->rcv_ann_right_edge;
 767:Middlewares/Third_Party/LwIP/src/core/tcp.c ****   } else {
 768:Middlewares/Third_Party/LwIP/src/core/tcp.c ****     if (TCP_SEQ_GT(pcb->rcv_nxt, pcb->rcv_ann_right_edge)) {
 769:Middlewares/Third_Party/LwIP/src/core/tcp.c ****       /* Can happen due to other end sending out of advertised window,
 770:Middlewares/Third_Party/LwIP/src/core/tcp.c ****        * but within actual available (but not yet advertised) window */
 771:Middlewares/Third_Party/LwIP/src/core/tcp.c ****       pcb->rcv_ann_wnd = 0;
 772:Middlewares/Third_Party/LwIP/src/core/tcp.c ****     } else {
 773:Middlewares/Third_Party/LwIP/src/core/tcp.c ****       /* keep the right edge of window constant */
 774:Middlewares/Third_Party/LwIP/src/core/tcp.c ****       u32_t new_rcv_ann_wnd = pcb->rcv_ann_right_edge - pcb->rcv_nxt;
 775:Middlewares/Third_Party/LwIP/src/core/tcp.c **** #if !LWIP_WND_SCALE
 776:Middlewares/Third_Party/LwIP/src/core/tcp.c ****       LWIP_ASSERT("new_rcv_ann_wnd <= 0xffff", new_rcv_ann_wnd <= 0xffff);
 777:Middlewares/Third_Party/LwIP/src/core/tcp.c **** #endif
 778:Middlewares/Third_Party/LwIP/src/core/tcp.c ****       pcb->rcv_ann_wnd = (tcpwnd_size_t)new_rcv_ann_wnd;
 779:Middlewares/Third_Party/LwIP/src/core/tcp.c ****     }
 780:Middlewares/Third_Party/LwIP/src/core/tcp.c ****     return 0;
 781:Middlewares/Third_Party/LwIP/src/core/tcp.c ****   }
 782:Middlewares/Third_Party/LwIP/src/core/tcp.c **** }
 783:Middlewares/Third_Party/LwIP/src/core/tcp.c **** 
 784:Middlewares/Third_Party/LwIP/src/core/tcp.c **** /**
 785:Middlewares/Third_Party/LwIP/src/core/tcp.c ****  * @ingroup tcp_raw
 786:Middlewares/Third_Party/LwIP/src/core/tcp.c ****  * This function should be called by the application when it has
 787:Middlewares/Third_Party/LwIP/src/core/tcp.c ****  * processed the data. The purpose is to advertise a larger window
 788:Middlewares/Third_Party/LwIP/src/core/tcp.c ****  * when the data has been processed.
 789:Middlewares/Third_Party/LwIP/src/core/tcp.c ****  *
 790:Middlewares/Third_Party/LwIP/src/core/tcp.c ****  * @param pcb the tcp_pcb for which data is read
 791:Middlewares/Third_Party/LwIP/src/core/tcp.c ****  * @param len the amount of bytes that have been read by the application
 792:Middlewares/Third_Party/LwIP/src/core/tcp.c ****  */
 793:Middlewares/Third_Party/LwIP/src/core/tcp.c **** void
ARM GAS  C:\Users\Student\AppData\Local\Temp\cc0PPYfp.s 			page 16


 794:Middlewares/Third_Party/LwIP/src/core/tcp.c **** tcp_recved(struct tcp_pcb *pcb, u16_t len)
 795:Middlewares/Third_Party/LwIP/src/core/tcp.c **** {
 796:Middlewares/Third_Party/LwIP/src/core/tcp.c ****   int wnd_inflation;
 797:Middlewares/Third_Party/LwIP/src/core/tcp.c **** 
 798:Middlewares/Third_Party/LwIP/src/core/tcp.c ****   /* pcb->state LISTEN not allowed here */
 799:Middlewares/Third_Party/LwIP/src/core/tcp.c ****   LWIP_ASSERT("don't call tcp_recved for listen-pcbs",
 800:Middlewares/Third_Party/LwIP/src/core/tcp.c ****     pcb->state != LISTEN);
 801:Middlewares/Third_Party/LwIP/src/core/tcp.c **** 
 802:Middlewares/Third_Party/LwIP/src/core/tcp.c ****   pcb->rcv_wnd += len;
 803:Middlewares/Third_Party/LwIP/src/core/tcp.c ****   if (pcb->rcv_wnd > TCP_WND_MAX(pcb)) {
 804:Middlewares/Third_Party/LwIP/src/core/tcp.c ****     pcb->rcv_wnd = TCP_WND_MAX(pcb);
 805:Middlewares/Third_Party/LwIP/src/core/tcp.c ****   } else if (pcb->rcv_wnd == 0) {
 806:Middlewares/Third_Party/LwIP/src/core/tcp.c ****     /* rcv_wnd overflowed */
 807:Middlewares/Third_Party/LwIP/src/core/tcp.c ****     if ((pcb->state == CLOSE_WAIT) || (pcb->state == LAST_ACK)) {
 808:Middlewares/Third_Party/LwIP/src/core/tcp.c ****       /* In passive close, we allow this, since the FIN bit is added to rcv_wnd
 809:Middlewares/Third_Party/LwIP/src/core/tcp.c ****          by the stack itself, since it is not mandatory for an application
 810:Middlewares/Third_Party/LwIP/src/core/tcp.c ****          to call tcp_recved() for the FIN bit, but e.g. the netconn API does so. */
 811:Middlewares/Third_Party/LwIP/src/core/tcp.c ****       pcb->rcv_wnd = TCP_WND_MAX(pcb);
 812:Middlewares/Third_Party/LwIP/src/core/tcp.c ****     } else {
 813:Middlewares/Third_Party/LwIP/src/core/tcp.c ****       LWIP_ASSERT("tcp_recved: len wrapped rcv_wnd\n", 0);
 814:Middlewares/Third_Party/LwIP/src/core/tcp.c ****     }
 815:Middlewares/Third_Party/LwIP/src/core/tcp.c ****   }
 816:Middlewares/Third_Party/LwIP/src/core/tcp.c **** 
 817:Middlewares/Third_Party/LwIP/src/core/tcp.c ****   wnd_inflation = tcp_update_rcv_ann_wnd(pcb);
 818:Middlewares/Third_Party/LwIP/src/core/tcp.c **** 
 819:Middlewares/Third_Party/LwIP/src/core/tcp.c ****   /* If the change in the right edge of window is significant (default
 820:Middlewares/Third_Party/LwIP/src/core/tcp.c ****    * watermark is TCP_WND/4), then send an explicit update now.
 821:Middlewares/Third_Party/LwIP/src/core/tcp.c ****    * Otherwise wait for a packet to be sent in the normal course of
 822:Middlewares/Third_Party/LwIP/src/core/tcp.c ****    * events (or more window to be available later) */
 823:Middlewares/Third_Party/LwIP/src/core/tcp.c ****   if (wnd_inflation >= TCP_WND_UPDATE_THRESHOLD) {
 824:Middlewares/Third_Party/LwIP/src/core/tcp.c ****     tcp_ack_now(pcb);
 825:Middlewares/Third_Party/LwIP/src/core/tcp.c ****     tcp_output(pcb);
 826:Middlewares/Third_Party/LwIP/src/core/tcp.c ****   }
 827:Middlewares/Third_Party/LwIP/src/core/tcp.c **** 
 828:Middlewares/Third_Party/LwIP/src/core/tcp.c ****   LWIP_DEBUGF(TCP_DEBUG, ("tcp_recved: received %"U16_F" bytes, wnd %"TCPWNDSIZE_F" (%"TCPWNDSIZE_F
 829:Middlewares/Third_Party/LwIP/src/core/tcp.c ****          len, pcb->rcv_wnd, (u16_t)(TCP_WND_MAX(pcb) - pcb->rcv_wnd)));
 830:Middlewares/Third_Party/LwIP/src/core/tcp.c **** }
 831:Middlewares/Third_Party/LwIP/src/core/tcp.c **** 
 832:Middlewares/Third_Party/LwIP/src/core/tcp.c **** /**
 833:Middlewares/Third_Party/LwIP/src/core/tcp.c ****  * Allocate a new local TCP port.
 834:Middlewares/Third_Party/LwIP/src/core/tcp.c ****  *
 835:Middlewares/Third_Party/LwIP/src/core/tcp.c ****  * @return a new (free) local TCP port number
 836:Middlewares/Third_Party/LwIP/src/core/tcp.c ****  */
 837:Middlewares/Third_Party/LwIP/src/core/tcp.c **** static u16_t
 838:Middlewares/Third_Party/LwIP/src/core/tcp.c **** tcp_new_port(void)
 839:Middlewares/Third_Party/LwIP/src/core/tcp.c **** {
  66              		.loc 1 839 0
  67              		.cfi_startproc
  68              		@ args = 0, pretend = 0, frame = 0
  69              		@ frame_needed = 0, uses_anonymous_args = 0
  70              		@ link register save eliminated.
  71 0000 10B4     		push	{r4}
  72              	.LCFI0:
  73              		.cfi_def_cfa_offset 4
  74              		.cfi_offset 4, -4
  75              	.LVL3:
 840:Middlewares/Third_Party/LwIP/src/core/tcp.c ****   u8_t i;
ARM GAS  C:\Users\Student\AppData\Local\Temp\cc0PPYfp.s 			page 17


 841:Middlewares/Third_Party/LwIP/src/core/tcp.c ****   u16_t n = 0;
  76              		.loc 1 841 0
  77 0002 0024     		movs	r4, #0
  78 0004 09E0     		b	.L7
  79              	.LVL4:
  80              	.L18:
 842:Middlewares/Third_Party/LwIP/src/core/tcp.c ****   struct tcp_pcb *pcb;
 843:Middlewares/Third_Party/LwIP/src/core/tcp.c **** 
 844:Middlewares/Third_Party/LwIP/src/core/tcp.c **** again:
 845:Middlewares/Third_Party/LwIP/src/core/tcp.c ****   if (tcp_port++ == TCP_LOCAL_PORT_RANGE_END) {
 846:Middlewares/Third_Party/LwIP/src/core/tcp.c ****     tcp_port = TCP_LOCAL_PORT_RANGE_START;
  81              		.loc 1 846 0
  82 0006 4FF44042 		mov	r2, #49152
  83 000a 144B     		ldr	r3, .L22
  84 000c 1A80     		strh	r2, [r3]	@ movhi
  85 000e 0CE0     		b	.L8
  86              	.LVL5:
  87              	.L21:
 847:Middlewares/Third_Party/LwIP/src/core/tcp.c ****   }
 848:Middlewares/Third_Party/LwIP/src/core/tcp.c ****   /* Check all PCB lists. */
 849:Middlewares/Third_Party/LwIP/src/core/tcp.c ****   for (i = 0; i < NUM_TCP_PCB_LISTS; i++) {
 850:Middlewares/Third_Party/LwIP/src/core/tcp.c ****     for (pcb = *tcp_pcb_lists[i]; pcb != NULL; pcb = pcb->next) {
 851:Middlewares/Third_Party/LwIP/src/core/tcp.c ****       if (pcb->local_port == tcp_port) {
 852:Middlewares/Third_Party/LwIP/src/core/tcp.c ****         if (++n > (TCP_LOCAL_PORT_RANGE_END - TCP_LOCAL_PORT_RANGE_START)) {
  88              		.loc 1 852 0
  89 0010 0134     		adds	r4, r4, #1
  90              	.LVL6:
  91 0012 A4B2     		uxth	r4, r4
  92              	.LVL7:
  93 0014 B4F5804F 		cmp	r4, #16384
  94 0018 1ED2     		bcs	.L17
  95              	.LVL8:
  96              	.L7:
 845:Middlewares/Third_Party/LwIP/src/core/tcp.c ****     tcp_port = TCP_LOCAL_PORT_RANGE_START;
  97              		.loc 1 845 0
  98 001a 104A     		ldr	r2, .L22
  99 001c 1388     		ldrh	r3, [r2]
 100 001e 591C     		adds	r1, r3, #1
 101 0020 1180     		strh	r1, [r2]	@ movhi
 102 0022 4FF6FF72 		movw	r2, #65535
 103 0026 9342     		cmp	r3, r2
 104 0028 EDD0     		beq	.L18
 105              	.L8:
 106              	.LVL9:
 849:Middlewares/Third_Party/LwIP/src/core/tcp.c ****     for (pcb = *tcp_pcb_lists[i]; pcb != NULL; pcb = pcb->next) {
 107              		.loc 1 849 0
 108 002a 0020     		movs	r0, #0
 109              	.LVL10:
 110              	.L9:
 849:Middlewares/Third_Party/LwIP/src/core/tcp.c ****     for (pcb = *tcp_pcb_lists[i]; pcb != NULL; pcb = pcb->next) {
 111              		.loc 1 849 0 is_stmt 0 discriminator 1
 112 002c 0328     		cmp	r0, #3
 113 002e 0ED8     		bhi	.L19
 850:Middlewares/Third_Party/LwIP/src/core/tcp.c ****       if (pcb->local_port == tcp_port) {
 114              		.loc 1 850 0 is_stmt 1
 115 0030 0B4B     		ldr	r3, .L22+4
 116 0032 53F82030 		ldr	r3, [r3, r0, lsl #2]
ARM GAS  C:\Users\Student\AppData\Local\Temp\cc0PPYfp.s 			page 18


 117 0036 1B68     		ldr	r3, [r3]
 118              	.LVL11:
 119              	.L10:
 850:Middlewares/Third_Party/LwIP/src/core/tcp.c ****       if (pcb->local_port == tcp_port) {
 120              		.loc 1 850 0 is_stmt 0 discriminator 1
 121 0038 33B1     		cbz	r3, .L20
 851:Middlewares/Third_Party/LwIP/src/core/tcp.c ****         if (++n > (TCP_LOCAL_PORT_RANGE_END - TCP_LOCAL_PORT_RANGE_START)) {
 122              		.loc 1 851 0 is_stmt 1
 123 003a D98A     		ldrh	r1, [r3, #22]
 124 003c 074A     		ldr	r2, .L22
 125 003e 1288     		ldrh	r2, [r2]
 126 0040 9142     		cmp	r1, r2
 127 0042 E5D0     		beq	.L21
 850:Middlewares/Third_Party/LwIP/src/core/tcp.c ****       if (pcb->local_port == tcp_port) {
 128              		.loc 1 850 0 discriminator 2
 129 0044 DB68     		ldr	r3, [r3, #12]
 130              	.LVL12:
 131 0046 F7E7     		b	.L10
 132              	.L20:
 849:Middlewares/Third_Party/LwIP/src/core/tcp.c ****     for (pcb = *tcp_pcb_lists[i]; pcb != NULL; pcb = pcb->next) {
 133              		.loc 1 849 0 discriminator 2
 134 0048 0130     		adds	r0, r0, #1
 135              	.LVL13:
 136 004a C0B2     		uxtb	r0, r0
 137              	.LVL14:
 138 004c EEE7     		b	.L9
 139              	.LVL15:
 140              	.L19:
 853:Middlewares/Third_Party/LwIP/src/core/tcp.c ****           return 0;
 854:Middlewares/Third_Party/LwIP/src/core/tcp.c ****         }
 855:Middlewares/Third_Party/LwIP/src/core/tcp.c ****         goto again;
 856:Middlewares/Third_Party/LwIP/src/core/tcp.c ****       }
 857:Middlewares/Third_Party/LwIP/src/core/tcp.c ****     }
 858:Middlewares/Third_Party/LwIP/src/core/tcp.c ****   }
 859:Middlewares/Third_Party/LwIP/src/core/tcp.c ****   return tcp_port;
 141              		.loc 1 859 0
 142 004e 034B     		ldr	r3, .L22
 143 0050 1888     		ldrh	r0, [r3]
 144              	.LVL16:
 145              	.L12:
 860:Middlewares/Third_Party/LwIP/src/core/tcp.c **** }
 146              		.loc 1 860 0
 147 0052 5DF8044B 		ldr	r4, [sp], #4
 148              	.LCFI1:
 149              		.cfi_remember_state
 150              		.cfi_restore 4
 151              		.cfi_def_cfa_offset 0
 152              	.LVL17:
 153 0056 7047     		bx	lr
 154              	.LVL18:
 155              	.L17:
 156              	.LCFI2:
 157              		.cfi_restore_state
 853:Middlewares/Third_Party/LwIP/src/core/tcp.c ****           return 0;
 158              		.loc 1 853 0
 159 0058 0020     		movs	r0, #0
 160              	.LVL19:
ARM GAS  C:\Users\Student\AppData\Local\Temp\cc0PPYfp.s 			page 19


 161 005a FAE7     		b	.L12
 162              	.L23:
 163              		.align	2
 164              	.L22:
 165 005c 00000000 		.word	.LANCHOR0
 166 0060 00000000 		.word	.LANCHOR1
 167              		.cfi_endproc
 168              	.LFE168:
 170              		.section	.text.tcp_listen_closed,"ax",%progbits
 171              		.align	1
 172              		.syntax unified
 173              		.thumb
 174              		.thumb_func
 175              		.fpu fpv5-sp-d16
 177              	tcp_listen_closed:
 178              	.LFB155:
 189:Middlewares/Third_Party/LwIP/src/core/tcp.c **** #if LWIP_CALLBACK_API || TCP_LISTEN_BACKLOG
 179              		.loc 1 189 0
 180              		.cfi_startproc
 181              		@ args = 0, pretend = 0, frame = 0
 182              		@ frame_needed = 0, uses_anonymous_args = 0
 183              	.LVL20:
 184 0000 38B5     		push	{r3, r4, r5, lr}
 185              	.LCFI3:
 186              		.cfi_def_cfa_offset 16
 187              		.cfi_offset 3, -16
 188              		.cfi_offset 4, -12
 189              		.cfi_offset 5, -8
 190              		.cfi_offset 14, -4
 192:Middlewares/Third_Party/LwIP/src/core/tcp.c ****   LWIP_ASSERT("pcb->state == LISTEN", pcb->state == LISTEN);
 191              		.loc 1 192 0
 192 0002 0546     		mov	r5, r0
 193 0004 50B1     		cbz	r0, .L30
 194              	.LVL21:
 195              	.L25:
 193:Middlewares/Third_Party/LwIP/src/core/tcp.c ****   for (i = 1; i < LWIP_ARRAYSIZE(tcp_pcb_lists); i++) {
 196              		.loc 1 193 0
 197 0006 2B7D     		ldrb	r3, [r5, #20]	@ zero_extendqisi2
 198 0008 012B     		cmp	r3, #1
 199 000a 05D0     		beq	.L26
 193:Middlewares/Third_Party/LwIP/src/core/tcp.c ****   for (i = 1; i < LWIP_ARRAYSIZE(tcp_pcb_lists); i++) {
 200              		.loc 1 193 0 is_stmt 0 discriminator 1
 201 000c 0C4B     		ldr	r3, .L31
 202 000e C122     		movs	r2, #193
 203 0010 0C49     		ldr	r1, .L31+4
 204 0012 0D48     		ldr	r0, .L31+8
 205 0014 FFF7FEFF 		bl	printf
 206              	.LVL22:
 207              	.L26:
 189:Middlewares/Third_Party/LwIP/src/core/tcp.c **** #if LWIP_CALLBACK_API || TCP_LISTEN_BACKLOG
 208              		.loc 1 189 0 is_stmt 1 discriminator 1
 209 0018 0124     		movs	r4, #1
 210 001a 0EE0     		b	.L27
 211              	.LVL23:
 212              	.L30:
 192:Middlewares/Third_Party/LwIP/src/core/tcp.c ****   LWIP_ASSERT("pcb->state == LISTEN", pcb->state == LISTEN);
 213              		.loc 1 192 0 discriminator 1
ARM GAS  C:\Users\Student\AppData\Local\Temp\cc0PPYfp.s 			page 20


 214 001c 084B     		ldr	r3, .L31
 215 001e C022     		movs	r2, #192
 216 0020 0A49     		ldr	r1, .L31+12
 217 0022 0948     		ldr	r0, .L31+8
 218              	.LVL24:
 219 0024 FFF7FEFF 		bl	printf
 220              	.LVL25:
 221 0028 EDE7     		b	.L25
 222              	.LVL26:
 223              	.L28:
 195:Middlewares/Third_Party/LwIP/src/core/tcp.c ****   }
 224              		.loc 1 195 0 discriminator 3
 225 002a 094B     		ldr	r3, .L31+16
 226 002c 53F82430 		ldr	r3, [r3, r4, lsl #2]
 227 0030 2946     		mov	r1, r5
 228 0032 1868     		ldr	r0, [r3]
 229 0034 FFF7FEFF 		bl	tcp_remove_listener
 230              	.LVL27:
 194:Middlewares/Third_Party/LwIP/src/core/tcp.c ****     tcp_remove_listener(*tcp_pcb_lists[i], (struct tcp_pcb_listen*)pcb);
 231              		.loc 1 194 0 discriminator 3
 232 0038 0134     		adds	r4, r4, #1
 233              	.LVL28:
 234              	.L27:
 194:Middlewares/Third_Party/LwIP/src/core/tcp.c ****     tcp_remove_listener(*tcp_pcb_lists[i], (struct tcp_pcb_listen*)pcb);
 235              		.loc 1 194 0 is_stmt 0 discriminator 1
 236 003a 032C     		cmp	r4, #3
 237 003c F5D9     		bls	.L28
 199:Middlewares/Third_Party/LwIP/src/core/tcp.c **** 
 238              		.loc 1 199 0 is_stmt 1
 239 003e 38BD     		pop	{r3, r4, r5, pc}
 240              	.LVL29:
 241              	.L32:
 242              		.align	2
 243              	.L31:
 244 0040 00000000 		.word	.LC0
 245 0044 60000000 		.word	.LC3
 246 0048 38000000 		.word	.LC2
 247 004c 2C000000 		.word	.LC1
 248 0050 00000000 		.word	.LANCHOR1
 249              		.cfi_endproc
 250              	.LFE155:
 252              		.section	.text.tcp_close_shutdown_fin,"ax",%progbits
 253              		.align	1
 254              		.syntax unified
 255              		.thumb
 256              		.thumb_func
 257              		.fpu fpv5-sp-d16
 259              	tcp_close_shutdown_fin:
 260              	.LFB157:
 331:Middlewares/Third_Party/LwIP/src/core/tcp.c ****   err_t err;
 261              		.loc 1 331 0
 262              		.cfi_startproc
 263              		@ args = 0, pretend = 0, frame = 0
 264              		@ frame_needed = 0, uses_anonymous_args = 0
 265              	.LVL30:
 266 0000 38B5     		push	{r3, r4, r5, lr}
 267              	.LCFI4:
ARM GAS  C:\Users\Student\AppData\Local\Temp\cc0PPYfp.s 			page 21


 268              		.cfi_def_cfa_offset 16
 269              		.cfi_offset 3, -16
 270              		.cfi_offset 4, -12
 271              		.cfi_offset 5, -8
 272              		.cfi_offset 14, -4
 333:Middlewares/Third_Party/LwIP/src/core/tcp.c **** 
 273              		.loc 1 333 0
 274 0002 0446     		mov	r4, r0
 275 0004 40B1     		cbz	r0, .L44
 276              	.LVL31:
 277              	.L34:
 335:Middlewares/Third_Party/LwIP/src/core/tcp.c ****   case SYN_RCVD:
 278              		.loc 1 335 0
 279 0006 237D     		ldrb	r3, [r4, #20]	@ zero_extendqisi2
 280 0008 042B     		cmp	r3, #4
 281 000a 1AD0     		beq	.L36
 282 000c 072B     		cmp	r3, #7
 283 000e 21D0     		beq	.L37
 284 0010 032B     		cmp	r3, #3
 285 0012 09D0     		beq	.L45
 360:Middlewares/Third_Party/LwIP/src/core/tcp.c ****   }
 286              		.loc 1 360 0
 287 0014 0025     		movs	r5, #0
 288 0016 12E0     		b	.L35
 289              	.LVL32:
 290              	.L44:
 333:Middlewares/Third_Party/LwIP/src/core/tcp.c **** 
 291              		.loc 1 333 0 discriminator 1
 292 0018 184B     		ldr	r3, .L48
 293 001a 40F24D12 		movw	r2, #333
 294 001e 1849     		ldr	r1, .L48+4
 295 0020 1848     		ldr	r0, .L48+8
 296              	.LVL33:
 297 0022 FFF7FEFF 		bl	printf
 298              	.LVL34:
 299 0026 EEE7     		b	.L34
 300              	.L45:
 337:Middlewares/Third_Party/LwIP/src/core/tcp.c ****     if (err == ERR_OK) {
 301              		.loc 1 337 0
 302 0028 2046     		mov	r0, r4
 303 002a FFF7FEFF 		bl	tcp_send_fin
 304              	.LVL35:
 338:Middlewares/Third_Party/LwIP/src/core/tcp.c ****       tcp_backlog_accepted(pcb);
 305              		.loc 1 338 0
 306 002e 0546     		mov	r5, r0
 307 0030 08B9     		cbnz	r0, .L39
 341:Middlewares/Third_Party/LwIP/src/core/tcp.c ****     }
 308              		.loc 1 341 0
 309 0032 0523     		movs	r3, #5
 310 0034 2375     		strb	r3, [r4, #20]
 311              	.L39:
 312              	.LVL36:
 363:Middlewares/Third_Party/LwIP/src/core/tcp.c ****     /* To ensure all data has been sent when tcp_close returns, we have
 313              		.loc 1 363 0
 314 0036 B5B1     		cbz	r5, .L46
 370:Middlewares/Third_Party/LwIP/src/core/tcp.c ****     /* Mark this pcb for closing. Closing is retried from tcp_tmr. */
 315              		.loc 1 370 0
ARM GAS  C:\Users\Student\AppData\Local\Temp\cc0PPYfp.s 			page 22


 316 0038 B5F1FF3F 		cmp	r5, #-1
 317 003c 17D0     		beq	.L47
 318              	.LVL37:
 319              	.L35:
 381:Middlewares/Third_Party/LwIP/src/core/tcp.c **** 
 320              		.loc 1 381 0
 321 003e 2846     		mov	r0, r5
 322 0040 38BD     		pop	{r3, r4, r5, pc}
 323              	.LVL38:
 324              	.L36:
 345:Middlewares/Third_Party/LwIP/src/core/tcp.c ****     if (err == ERR_OK) {
 325              		.loc 1 345 0
 326 0042 2046     		mov	r0, r4
 327 0044 FFF7FEFF 		bl	tcp_send_fin
 328              	.LVL39:
 346:Middlewares/Third_Party/LwIP/src/core/tcp.c ****       MIB2_STATS_INC(mib2.tcpestabresets);
 329              		.loc 1 346 0
 330 0048 0546     		mov	r5, r0
 331 004a 0028     		cmp	r0, #0
 332 004c F3D1     		bne	.L39
 348:Middlewares/Third_Party/LwIP/src/core/tcp.c ****     }
 333              		.loc 1 348 0
 334 004e 0523     		movs	r3, #5
 335 0050 2375     		strb	r3, [r4, #20]
 336 0052 F0E7     		b	.L39
 337              	.LVL40:
 338              	.L37:
 352:Middlewares/Third_Party/LwIP/src/core/tcp.c ****     if (err == ERR_OK) {
 339              		.loc 1 352 0
 340 0054 2046     		mov	r0, r4
 341 0056 FFF7FEFF 		bl	tcp_send_fin
 342              	.LVL41:
 353:Middlewares/Third_Party/LwIP/src/core/tcp.c ****       MIB2_STATS_INC(mib2.tcpestabresets);
 343              		.loc 1 353 0
 344 005a 0546     		mov	r5, r0
 345 005c 0028     		cmp	r0, #0
 346 005e EAD1     		bne	.L39
 355:Middlewares/Third_Party/LwIP/src/core/tcp.c ****     }
 347              		.loc 1 355 0
 348 0060 0923     		movs	r3, #9
 349 0062 2375     		strb	r3, [r4, #20]
 350 0064 E7E7     		b	.L39
 351              	.LVL42:
 352              	.L46:
 369:Middlewares/Third_Party/LwIP/src/core/tcp.c ****   } else if (err == ERR_MEM) {
 353              		.loc 1 369 0
 354 0066 2046     		mov	r0, r4
 355 0068 FFF7FEFF 		bl	tcp_output
 356              	.LVL43:
 357 006c E7E7     		b	.L35
 358              	.L47:
 372:Middlewares/Third_Party/LwIP/src/core/tcp.c ****     /* We have to return ERR_OK from here to indicate to the callers that this
 359              		.loc 1 372 0
 360 006e A37E     		ldrb	r3, [r4, #26]	@ zero_extendqisi2
 361 0070 43F00803 		orr	r3, r3, #8
 362 0074 A376     		strb	r3, [r4, #26]
 378:Middlewares/Third_Party/LwIP/src/core/tcp.c ****   }
ARM GAS  C:\Users\Student\AppData\Local\Temp\cc0PPYfp.s 			page 23


 363              		.loc 1 378 0
 364 0076 0025     		movs	r5, #0
 365              	.LVL44:
 366 0078 E1E7     		b	.L35
 367              	.L49:
 368 007a 00BF     		.align	2
 369              	.L48:
 370 007c 00000000 		.word	.LC0
 371 0080 2C000000 		.word	.LC1
 372 0084 38000000 		.word	.LC2
 373              		.cfi_endproc
 374              	.LFE157:
 376              		.section	.text.tcp_init,"ax",%progbits
 377              		.align	1
 378              		.global	tcp_init
 379              		.syntax unified
 380              		.thumb
 381              		.thumb_func
 382              		.fpu fpv5-sp-d16
 384              	tcp_init:
 385              	.LFB152:
 146:Middlewares/Third_Party/LwIP/src/core/tcp.c **** #if LWIP_RANDOMIZE_INITIAL_LOCAL_PORTS && defined(LWIP_RAND)
 386              		.loc 1 146 0
 387              		.cfi_startproc
 388              		@ args = 0, pretend = 0, frame = 0
 389              		@ frame_needed = 0, uses_anonymous_args = 0
 390              		@ link register save eliminated.
 391 0000 7047     		bx	lr
 392              		.cfi_endproc
 393              	.LFE152:
 395              		.section	.text.tcp_bind,"ax",%progbits
 396              		.align	1
 397              		.global	tcp_bind
 398              		.syntax unified
 399              		.thumb
 400              		.thumb_func
 401              		.fpu fpv5-sp-d16
 403              	tcp_bind:
 404              	.LFB162:
 563:Middlewares/Third_Party/LwIP/src/core/tcp.c ****   int i;
 405              		.loc 1 563 0
 406              		.cfi_startproc
 407              		@ args = 0, pretend = 0, frame = 0
 408              		@ frame_needed = 0, uses_anonymous_args = 0
 409              	.LVL45:
 563:Middlewares/Third_Party/LwIP/src/core/tcp.c ****   int i;
 410              		.loc 1 563 0
 411 0000 70B5     		push	{r4, r5, r6, lr}
 412              	.LCFI5:
 413              		.cfi_def_cfa_offset 16
 414              		.cfi_offset 4, -16
 415              		.cfi_offset 5, -12
 416              		.cfi_offset 6, -8
 417              		.cfi_offset 14, -4
 418 0002 0546     		mov	r5, r0
 419              	.LVL46:
 570:Middlewares/Third_Party/LwIP/src/core/tcp.c ****     ipaddr = IP4_ADDR_ANY;
ARM GAS  C:\Users\Student\AppData\Local\Temp\cc0PPYfp.s 			page 24


 420              		.loc 1 570 0
 421 0004 0C46     		mov	r4, r1
 422 0006 71B1     		cbz	r1, .L72
 423              	.L52:
 424              	.LVL47:
 576:Middlewares/Third_Party/LwIP/src/core/tcp.c ****     return ERR_VAL;
 425              		.loc 1 576 0
 426 0008 002C     		cmp	r4, #0
 427 000a 18BF     		it	ne
 428 000c 002D     		cmpne	r5, #0
 429 000e 39D0     		beq	.L63
 580:Middlewares/Third_Party/LwIP/src/core/tcp.c **** 
 430              		.loc 1 580 0
 431 0010 2B7D     		ldrb	r3, [r5, #20]	@ zero_extendqisi2
 432 0012 53B9     		cbnz	r3, .L73
 593:Middlewares/Third_Party/LwIP/src/core/tcp.c ****     port = tcp_new_port();
 433              		.loc 1 593 0
 434 0014 9AB1     		cbz	r2, .L74
 435 0016 0026     		movs	r6, #0
 436              	.LVL48:
 437              	.L55:
 600:Middlewares/Third_Party/LwIP/src/core/tcp.c ****       for (cpcb = *tcp_pcb_lists[i]; cpcb != NULL; cpcb = cpcb->next) {
 438              		.loc 1 600 0 discriminator 1
 439 0018 032E     		cmp	r6, #3
 440 001a 14DC     		bgt	.L56
 601:Middlewares/Third_Party/LwIP/src/core/tcp.c ****         if (cpcb->local_port == port) {
 441              		.loc 1 601 0
 442 001c 224B     		ldr	r3, .L77
 443 001e 53F82630 		ldr	r3, [r3, r6, lsl #2]
 444 0022 1B68     		ldr	r3, [r3]
 445              	.LVL49:
 446 0024 1DE0     		b	.L57
 447              	.LVL50:
 448              	.L72:
 571:Middlewares/Third_Party/LwIP/src/core/tcp.c ****   }
 449              		.loc 1 571 0
 450 0026 214C     		ldr	r4, .L77+4
 451 0028 EEE7     		b	.L52
 452              	.LVL51:
 453              	.L73:
 580:Middlewares/Third_Party/LwIP/src/core/tcp.c **** 
 454              		.loc 1 580 0 discriminator 1
 455 002a 214B     		ldr	r3, .L77+8
 456 002c 4FF41172 		mov	r2, #580
 457              	.LVL52:
 458 0030 2049     		ldr	r1, .L77+12
 459 0032 2148     		ldr	r0, .L77+16
 460              	.LVL53:
 461 0034 FFF7FEFF 		bl	printf
 462              	.LVL54:
 463 0038 6FF00500 		mvn	r0, #5
 464 003c 70BD     		pop	{r4, r5, r6, pc}
 465              	.LVL55:
 466              	.L74:
 594:Middlewares/Third_Party/LwIP/src/core/tcp.c ****     if (port == 0) {
 467              		.loc 1 594 0
 468 003e FFF7FEFF 		bl	tcp_new_port
ARM GAS  C:\Users\Student\AppData\Local\Temp\cc0PPYfp.s 			page 25


 469              	.LVL56:
 595:Middlewares/Third_Party/LwIP/src/core/tcp.c ****       return ERR_BUF;
 470              		.loc 1 595 0
 471 0042 0246     		mov	r2, r0
 472 0044 08B3     		cbz	r0, .L75
 473              	.LVL57:
 474              	.L56:
 624:Middlewares/Third_Party/LwIP/src/core/tcp.c ****     ip_addr_set(&pcb->local_ip, ipaddr);
 475              		.loc 1 624 0
 476 0046 14B1     		cbz	r4, .L61
 624:Middlewares/Third_Party/LwIP/src/core/tcp.c ****     ip_addr_set(&pcb->local_ip, ipaddr);
 477              		.loc 1 624 0 is_stmt 0 discriminator 1
 478 0048 2368     		ldr	r3, [r4]
 479 004a 03B1     		cbz	r3, .L61
 625:Middlewares/Third_Party/LwIP/src/core/tcp.c ****   }
 480              		.loc 1 625 0 is_stmt 1 discriminator 4
 481 004c 2B60     		str	r3, [r5]
 482              	.L61:
 627:Middlewares/Third_Party/LwIP/src/core/tcp.c ****   TCP_REG(&tcp_bound_pcbs, pcb);
 483              		.loc 1 627 0
 484 004e EA82     		strh	r2, [r5, #22]	@ movhi
 628:Middlewares/Third_Party/LwIP/src/core/tcp.c ****   LWIP_DEBUGF(TCP_DEBUG, ("tcp_bind: bind to port %"U16_F"\n", port));
 485              		.loc 1 628 0
 486 0050 1A4B     		ldr	r3, .L77+20
 487 0052 1A68     		ldr	r2, [r3]
 488              	.LVL58:
 489 0054 EA60     		str	r2, [r5, #12]
 490 0056 1D60     		str	r5, [r3]
 491 0058 FFF7FEFF 		bl	tcp_timer_needed
 492              	.LVL59:
 630:Middlewares/Third_Party/LwIP/src/core/tcp.c **** }
 493              		.loc 1 630 0
 494 005c 0020     		movs	r0, #0
 495 005e 70BD     		pop	{r4, r5, r6, pc}
 496              	.LVL60:
 497              	.L58:
 601:Middlewares/Third_Party/LwIP/src/core/tcp.c ****         if (cpcb->local_port == port) {
 498              		.loc 1 601 0 discriminator 2
 499 0060 DB68     		ldr	r3, [r3, #12]
 500              	.LVL61:
 501              	.L57:
 601:Middlewares/Third_Party/LwIP/src/core/tcp.c ****         if (cpcb->local_port == port) {
 502              		.loc 1 601 0 is_stmt 0 discriminator 1
 503 0062 6BB1     		cbz	r3, .L76
 602:Middlewares/Third_Party/LwIP/src/core/tcp.c **** #if SO_REUSE
 504              		.loc 1 602 0 is_stmt 1
 505 0064 D98A     		ldrh	r1, [r3, #22]
 506 0066 8A42     		cmp	r2, r1
 507 0068 FAD1     		bne	.L58
 612:Middlewares/Third_Party/LwIP/src/core/tcp.c ****                 (ip_addr_isany(&cpcb->local_ip) ||
 508              		.loc 1 612 0
 509 006a 8BB1     		cbz	r3, .L66
 613:Middlewares/Third_Party/LwIP/src/core/tcp.c ****                 ip_addr_isany(ipaddr) ||
 510              		.loc 1 613 0
 511 006c 1968     		ldr	r1, [r3]
 512 006e 91B1     		cbz	r1, .L67
 613:Middlewares/Third_Party/LwIP/src/core/tcp.c ****                 ip_addr_isany(ipaddr) ||
ARM GAS  C:\Users\Student\AppData\Local\Temp\cc0PPYfp.s 			page 26


 513              		.loc 1 613 0 is_stmt 0 discriminator 1
 514 0070 A4B1     		cbz	r4, .L68
 614:Middlewares/Third_Party/LwIP/src/core/tcp.c ****                 ip_addr_cmp(&cpcb->local_ip, ipaddr))) {
 515              		.loc 1 614 0 is_stmt 1
 516 0072 2068     		ldr	r0, [r4]
 517 0074 A8B1     		cbz	r0, .L69
 612:Middlewares/Third_Party/LwIP/src/core/tcp.c ****                 (ip_addr_isany(&cpcb->local_ip) ||
 518              		.loc 1 612 0
 519 0076 8142     		cmp	r1, r0
 520 0078 F2D1     		bne	.L58
 616:Middlewares/Third_Party/LwIP/src/core/tcp.c ****             }
 521              		.loc 1 616 0
 522 007a 6FF00700 		mvn	r0, #7
 631:Middlewares/Third_Party/LwIP/src/core/tcp.c **** #if LWIP_CALLBACK_API
 523              		.loc 1 631 0
 524 007e 70BD     		pop	{r4, r5, r6, pc}
 525              	.LVL62:
 526              	.L76:
 600:Middlewares/Third_Party/LwIP/src/core/tcp.c ****       for (cpcb = *tcp_pcb_lists[i]; cpcb != NULL; cpcb = cpcb->next) {
 527              		.loc 1 600 0 discriminator 2
 528 0080 0136     		adds	r6, r6, #1
 529              	.LVL63:
 530 0082 C9E7     		b	.L55
 531              	.LVL64:
 532              	.L63:
 577:Middlewares/Third_Party/LwIP/src/core/tcp.c ****   }
 533              		.loc 1 577 0
 534 0084 6FF00500 		mvn	r0, #5
 535              	.LVL65:
 536 0088 70BD     		pop	{r4, r5, r6, pc}
 537              	.LVL66:
 538              	.L75:
 596:Middlewares/Third_Party/LwIP/src/core/tcp.c ****     }
 539              		.loc 1 596 0
 540 008a 6FF00100 		mvn	r0, #1
 541              	.LVL67:
 542 008e 70BD     		pop	{r4, r5, r6, pc}
 543              	.LVL68:
 544              	.L66:
 616:Middlewares/Third_Party/LwIP/src/core/tcp.c ****             }
 545              		.loc 1 616 0
 546 0090 6FF00700 		mvn	r0, #7
 547 0094 70BD     		pop	{r4, r5, r6, pc}
 548              	.LVL69:
 549              	.L67:
 550 0096 6FF00700 		mvn	r0, #7
 551 009a 70BD     		pop	{r4, r5, r6, pc}
 552              	.LVL70:
 553              	.L68:
 554 009c 6FF00700 		mvn	r0, #7
 555 00a0 70BD     		pop	{r4, r5, r6, pc}
 556              	.LVL71:
 557              	.L69:
 558 00a2 6FF00700 		mvn	r0, #7
 559 00a6 70BD     		pop	{r4, r5, r6, pc}
 560              	.LVL72:
 561              	.L78:
ARM GAS  C:\Users\Student\AppData\Local\Temp\cc0PPYfp.s 			page 27


 562              		.align	2
 563              	.L77:
 564 00a8 00000000 		.word	.LANCHOR1
 565 00ac 00000000 		.word	ip_addr_any
 566 00b0 00000000 		.word	.LC0
 567 00b4 00000000 		.word	.LC4
 568 00b8 38000000 		.word	.LC2
 569 00bc 00000000 		.word	tcp_bound_pcbs
 570              		.cfi_endproc
 571              	.LFE162:
 573              		.section	.text.tcp_listen_with_backlog_and_err,"ax",%progbits
 574              		.align	1
 575              		.global	tcp_listen_with_backlog_and_err
 576              		.syntax unified
 577              		.thumb
 578              		.thumb_func
 579              		.fpu fpv5-sp-d16
 581              	tcp_listen_with_backlog_and_err:
 582              	.LFB165:
 687:Middlewares/Third_Party/LwIP/src/core/tcp.c ****   struct tcp_pcb_listen *lpcb = NULL;
 583              		.loc 1 687 0
 584              		.cfi_startproc
 585              		@ args = 0, pretend = 0, frame = 0
 586              		@ frame_needed = 0, uses_anonymous_args = 0
 587              	.LVL73:
 588 0000 70B5     		push	{r4, r5, r6, lr}
 589              	.LCFI6:
 590              		.cfi_def_cfa_offset 16
 591              		.cfi_offset 4, -16
 592              		.cfi_offset 5, -12
 593              		.cfi_offset 6, -8
 594              		.cfi_offset 14, -4
 595 0002 1646     		mov	r6, r2
 596              	.LVL74:
 692:Middlewares/Third_Party/LwIP/src/core/tcp.c **** 
 597              		.loc 1 692 0
 598 0004 037D     		ldrb	r3, [r0, #20]	@ zero_extendqisi2
 599 0006 23BB     		cbnz	r3, .L91
 600 0008 0446     		mov	r4, r0
 695:Middlewares/Third_Party/LwIP/src/core/tcp.c ****     lpcb = (struct tcp_pcb_listen*)pcb;
 601              		.loc 1 695 0
 602 000a 012B     		cmp	r3, #1
 603 000c 42D0     		beq	.L87
 716:Middlewares/Third_Party/LwIP/src/core/tcp.c ****   if (lpcb == NULL) {
 604              		.loc 1 716 0
 605 000e 0220     		movs	r0, #2
 606              	.LVL75:
 607 0010 FFF7FEFF 		bl	memp_malloc
 608              	.LVL76:
 717:Middlewares/Third_Party/LwIP/src/core/tcp.c ****     res = ERR_MEM;
 609              		.loc 1 717 0
 610 0014 0546     		mov	r5, r0
 611 0016 0028     		cmp	r0, #0
 612 0018 43D0     		beq	.L88
 721:Middlewares/Third_Party/LwIP/src/core/tcp.c ****   lpcb->local_port = pcb->local_port;
 613              		.loc 1 721 0
 614 001a 2369     		ldr	r3, [r4, #16]
ARM GAS  C:\Users\Student\AppData\Local\Temp\cc0PPYfp.s 			page 28


 615 001c 0361     		str	r3, [r0, #16]
 722:Middlewares/Third_Party/LwIP/src/core/tcp.c ****   lpcb->state = LISTEN;
 616              		.loc 1 722 0
 617 001e E38A     		ldrh	r3, [r4, #22]
 618 0020 C382     		strh	r3, [r0, #22]	@ movhi
 723:Middlewares/Third_Party/LwIP/src/core/tcp.c ****   lpcb->prio = pcb->prio;
 619              		.loc 1 723 0
 620 0022 0123     		movs	r3, #1
 621 0024 0375     		strb	r3, [r0, #20]
 724:Middlewares/Third_Party/LwIP/src/core/tcp.c ****   lpcb->so_options = pcb->so_options;
 622              		.loc 1 724 0
 623 0026 637D     		ldrb	r3, [r4, #21]	@ zero_extendqisi2
 624 0028 4375     		strb	r3, [r0, #21]
 725:Middlewares/Third_Party/LwIP/src/core/tcp.c ****   lpcb->ttl = pcb->ttl;
 625              		.loc 1 725 0
 626 002a 237A     		ldrb	r3, [r4, #8]	@ zero_extendqisi2
 627 002c 0372     		strb	r3, [r0, #8]
 726:Middlewares/Third_Party/LwIP/src/core/tcp.c ****   lpcb->tos = pcb->tos;
 628              		.loc 1 726 0
 629 002e A37A     		ldrb	r3, [r4, #10]	@ zero_extendqisi2
 630 0030 8372     		strb	r3, [r0, #10]
 727:Middlewares/Third_Party/LwIP/src/core/tcp.c **** #if LWIP_IPV4 && LWIP_IPV6
 631              		.loc 1 727 0
 632 0032 637A     		ldrb	r3, [r4, #9]	@ zero_extendqisi2
 633 0034 4372     		strb	r3, [r0, #9]
 731:Middlewares/Third_Party/LwIP/src/core/tcp.c ****   if (pcb->local_port != 0) {
 634              		.loc 1 731 0
 635 0036 2368     		ldr	r3, [r4]
 636 0038 0360     		str	r3, [r0]
 732:Middlewares/Third_Party/LwIP/src/core/tcp.c ****     TCP_RMV(&tcp_bound_pcbs, pcb);
 637              		.loc 1 732 0
 638 003a E38A     		ldrh	r3, [r4, #22]
 639 003c E3B1     		cbz	r3, .L82
 733:Middlewares/Third_Party/LwIP/src/core/tcp.c ****   }
 640              		.loc 1 733 0
 641 003e 1A4B     		ldr	r3, .L94
 642 0040 1B68     		ldr	r3, [r3]
 643 0042 9C42     		cmp	r4, r3
 644 0044 10D0     		beq	.L92
 645              	.L83:
 646              	.LVL77:
 647              	.LBB2:
 733:Middlewares/Third_Party/LwIP/src/core/tcp.c ****   }
 648              		.loc 1 733 0 is_stmt 0 discriminator 8
 649 0046 ABB1     		cbz	r3, .L84
 733:Middlewares/Third_Party/LwIP/src/core/tcp.c ****   }
 650              		.loc 1 733 0 discriminator 9
 651 0048 DA68     		ldr	r2, [r3, #12]
 652 004a 9442     		cmp	r4, r2
 653 004c 10D0     		beq	.L93
 733:Middlewares/Third_Party/LwIP/src/core/tcp.c ****   }
 654              		.loc 1 733 0
 655 004e 1346     		mov	r3, r2
 656              	.LVL78:
 657 0050 F9E7     		b	.L83
 658              	.LVL79:
 659              	.L91:
ARM GAS  C:\Users\Student\AppData\Local\Temp\cc0PPYfp.s 			page 29


 660              	.LBE2:
 692:Middlewares/Third_Party/LwIP/src/core/tcp.c **** 
 661              		.loc 1 692 0 is_stmt 1 discriminator 1
 662 0052 164B     		ldr	r3, .L94+4
 663 0054 4FF42D72 		mov	r2, #692
 664              	.LVL80:
 665 0058 1549     		ldr	r1, .L94+8
 666              	.LVL81:
 667 005a 1648     		ldr	r0, .L94+12
 668              	.LVL82:
 669 005c FFF7FEFF 		bl	printf
 670              	.LVL83:
 671 0060 6FF00E03 		mvn	r3, #14
 688:Middlewares/Third_Party/LwIP/src/core/tcp.c ****   err_t res;
 672              		.loc 1 688 0 discriminator 1
 673 0064 0025     		movs	r5, #0
 692:Middlewares/Third_Party/LwIP/src/core/tcp.c **** 
 674              		.loc 1 692 0 discriminator 1
 675 0066 18E0     		b	.L81
 676              	.LVL84:
 677              	.L92:
 733:Middlewares/Third_Party/LwIP/src/core/tcp.c ****   }
 678              		.loc 1 733 0 discriminator 1
 679 0068 DA68     		ldr	r2, [r3, #12]
 680 006a 0F4B     		ldr	r3, .L94
 681 006c 1A60     		str	r2, [r3]
 682 006e 01E0     		b	.L84
 683              	.LVL85:
 684              	.L93:
 685              	.LBB3:
 733:Middlewares/Third_Party/LwIP/src/core/tcp.c ****   }
 686              		.loc 1 733 0 is_stmt 0 discriminator 5
 687 0070 E268     		ldr	r2, [r4, #12]
 688 0072 DA60     		str	r2, [r3, #12]
 689              	.LVL86:
 690              	.L84:
 691              	.LBE3:
 733:Middlewares/Third_Party/LwIP/src/core/tcp.c ****   }
 692              		.loc 1 733 0 discriminator 10
 693 0074 0023     		movs	r3, #0
 694 0076 E360     		str	r3, [r4, #12]
 695              	.L82:
 735:Middlewares/Third_Party/LwIP/src/core/tcp.c **** #if LWIP_CALLBACK_API
 696              		.loc 1 735 0 is_stmt 1
 697 0078 2146     		mov	r1, r4
 698 007a 0120     		movs	r0, #1
 699              	.LVL87:
 700 007c FFF7FEFF 		bl	memp_free
 701              	.LVL88:
 737:Middlewares/Third_Party/LwIP/src/core/tcp.c **** #endif /* LWIP_CALLBACK_API */
 702              		.loc 1 737 0
 703 0080 0D4B     		ldr	r3, .L94+16
 704 0082 AB61     		str	r3, [r5, #24]
 743:Middlewares/Third_Party/LwIP/src/core/tcp.c ****   res = ERR_OK;
 705              		.loc 1 743 0
 706 0084 0D4B     		ldr	r3, .L94+20
 707 0086 1A68     		ldr	r2, [r3]
ARM GAS  C:\Users\Student\AppData\Local\Temp\cc0PPYfp.s 			page 30


 708 0088 EA60     		str	r2, [r5, #12]
 709 008a 1D60     		str	r5, [r3]
 710 008c FFF7FEFF 		bl	tcp_timer_needed
 711              	.LVL89:
 744:Middlewares/Third_Party/LwIP/src/core/tcp.c **** done:
 712              		.loc 1 744 0
 713 0090 0023     		movs	r3, #0
 714 0092 02E0     		b	.L81
 715              	.LVL90:
 716              	.L87:
 696:Middlewares/Third_Party/LwIP/src/core/tcp.c ****     res = ERR_ALREADY;
 717              		.loc 1 696 0
 718 0094 0546     		mov	r5, r0
 697:Middlewares/Third_Party/LwIP/src/core/tcp.c ****     goto done;
 719              		.loc 1 697 0
 720 0096 6FF00803 		mvn	r3, #8
 721              	.LVL91:
 722              	.L81:
 746:Middlewares/Third_Party/LwIP/src/core/tcp.c ****     *err = res;
 723              		.loc 1 746 0
 724 009a 06B1     		cbz	r6, .L86
 747:Middlewares/Third_Party/LwIP/src/core/tcp.c ****   }
 725              		.loc 1 747 0
 726 009c 3370     		strb	r3, [r6]
 727              	.L86:
 750:Middlewares/Third_Party/LwIP/src/core/tcp.c **** 
 728              		.loc 1 750 0
 729 009e 2846     		mov	r0, r5
 730 00a0 70BD     		pop	{r4, r5, r6, pc}
 731              	.LVL92:
 732              	.L88:
 718:Middlewares/Third_Party/LwIP/src/core/tcp.c ****     goto done;
 733              		.loc 1 718 0
 734 00a2 4FF0FF33 		mov	r3, #-1
 735 00a6 F8E7     		b	.L81
 736              	.L95:
 737              		.align	2
 738              	.L94:
 739 00a8 00000000 		.word	tcp_bound_pcbs
 740 00ac 00000000 		.word	.LC0
 741 00b0 00000000 		.word	.LC5
 742 00b4 38000000 		.word	.LC2
 743 00b8 00000000 		.word	tcp_accept_null
 744 00bc 00000000 		.word	tcp_listen_pcbs
 745              		.cfi_endproc
 746              	.LFE165:
 748              		.section	.text.tcp_listen_with_backlog,"ax",%progbits
 749              		.align	1
 750              		.global	tcp_listen_with_backlog
 751              		.syntax unified
 752              		.thumb
 753              		.thumb_func
 754              		.fpu fpv5-sp-d16
 756              	tcp_listen_with_backlog:
 757              	.LFB164:
 665:Middlewares/Third_Party/LwIP/src/core/tcp.c ****   return tcp_listen_with_backlog_and_err(pcb, backlog, NULL);
 758              		.loc 1 665 0
ARM GAS  C:\Users\Student\AppData\Local\Temp\cc0PPYfp.s 			page 31


 759              		.cfi_startproc
 760              		@ args = 0, pretend = 0, frame = 0
 761              		@ frame_needed = 0, uses_anonymous_args = 0
 762              	.LVL93:
 763 0000 08B5     		push	{r3, lr}
 764              	.LCFI7:
 765              		.cfi_def_cfa_offset 8
 766              		.cfi_offset 3, -8
 767              		.cfi_offset 14, -4
 666:Middlewares/Third_Party/LwIP/src/core/tcp.c **** }
 768              		.loc 1 666 0
 769 0002 0022     		movs	r2, #0
 770 0004 FFF7FEFF 		bl	tcp_listen_with_backlog_and_err
 771              	.LVL94:
 667:Middlewares/Third_Party/LwIP/src/core/tcp.c **** 
 772              		.loc 1 667 0
 773 0008 08BD     		pop	{r3, pc}
 774              		.cfi_endproc
 775              	.LFE164:
 777              		.section	.text.tcp_update_rcv_ann_wnd,"ax",%progbits
 778              		.align	1
 779              		.global	tcp_update_rcv_ann_wnd
 780              		.syntax unified
 781              		.thumb
 782              		.thumb_func
 783              		.fpu fpv5-sp-d16
 785              	tcp_update_rcv_ann_wnd:
 786              	.LFB166:
 760:Middlewares/Third_Party/LwIP/src/core/tcp.c ****   u32_t new_right_edge = pcb->rcv_nxt + pcb->rcv_wnd;
 787              		.loc 1 760 0
 788              		.cfi_startproc
 789              		@ args = 0, pretend = 0, frame = 0
 790              		@ frame_needed = 0, uses_anonymous_args = 0
 791              	.LVL95:
 792 0000 38B5     		push	{r3, r4, r5, lr}
 793              	.LCFI8:
 794              		.cfi_def_cfa_offset 16
 795              		.cfi_offset 3, -16
 796              		.cfi_offset 4, -12
 797              		.cfi_offset 5, -8
 798              		.cfi_offset 14, -4
 761:Middlewares/Third_Party/LwIP/src/core/tcp.c **** 
 799              		.loc 1 761 0
 800 0002 456A     		ldr	r5, [r0, #36]
 801 0004 048D     		ldrh	r4, [r0, #40]
 802 0006 2A19     		adds	r2, r5, r4
 803              	.LVL96:
 763:Middlewares/Third_Party/LwIP/src/core/tcp.c ****     /* we can advertise more window */
 804              		.loc 1 763 0
 805 0008 C16A     		ldr	r1, [r0, #44]
 806 000a 438E     		ldrh	r3, [r0, #50]
 807 000c B3F5866F 		cmp	r3, #1072
 808 0010 01D9     		bls	.L99
 809 0012 4FF48663 		mov	r3, #1072
 810              	.L99:
 763:Middlewares/Third_Party/LwIP/src/core/tcp.c ****     /* we can advertise more window */
 811              		.loc 1 763 0 is_stmt 0 discriminator 4
ARM GAS  C:\Users\Student\AppData\Local\Temp\cc0PPYfp.s 			page 32


 812 0016 0B44     		add	r3, r3, r1
 813 0018 D31A     		subs	r3, r2, r3
 814 001a 002B     		cmp	r3, #0
 815 001c 02DB     		blt	.L100
 765:Middlewares/Third_Party/LwIP/src/core/tcp.c ****     return new_right_edge - pcb->rcv_ann_right_edge;
 816              		.loc 1 765 0 is_stmt 1
 817 001e 4485     		strh	r4, [r0, #42]	@ movhi
 766:Middlewares/Third_Party/LwIP/src/core/tcp.c ****   } else {
 818              		.loc 1 766 0
 819 0020 501A     		subs	r0, r2, r1
 820              	.LVL97:
 821 0022 38BD     		pop	{r3, r4, r5, pc}
 822              	.LVL98:
 823              	.L100:
 768:Middlewares/Third_Party/LwIP/src/core/tcp.c ****       /* Can happen due to other end sending out of advertised window,
 824              		.loc 1 768 0
 825 0024 6B1A     		subs	r3, r5, r1
 826 0026 002B     		cmp	r3, #0
 827 0028 03DD     		ble	.L102
 771:Middlewares/Third_Party/LwIP/src/core/tcp.c ****     } else {
 828              		.loc 1 771 0
 829 002a 0022     		movs	r2, #0
 830              	.LVL99:
 831 002c 4285     		strh	r2, [r0, #42]	@ movhi
 780:Middlewares/Third_Party/LwIP/src/core/tcp.c ****   }
 832              		.loc 1 780 0
 833 002e 1046     		mov	r0, r2
 834              	.LVL100:
 835 0030 38BD     		pop	{r3, r4, r5, pc}
 836              	.LVL101:
 837              	.L102:
 838 0032 0446     		mov	r4, r0
 839              	.LBB4:
 774:Middlewares/Third_Party/LwIP/src/core/tcp.c **** #if !LWIP_WND_SCALE
 840              		.loc 1 774 0
 841 0034 4D1B     		subs	r5, r1, r5
 842              	.LVL102:
 776:Middlewares/Third_Party/LwIP/src/core/tcp.c **** #endif
 843              		.loc 1 776 0
 844 0036 B5F5803F 		cmp	r5, #65536
 845 003a 02D2     		bcs	.L106
 846              	.LVL103:
 847              	.L103:
 778:Middlewares/Third_Party/LwIP/src/core/tcp.c ****     }
 848              		.loc 1 778 0
 849 003c 6585     		strh	r5, [r4, #42]	@ movhi
 850              	.LBE4:
 780:Middlewares/Third_Party/LwIP/src/core/tcp.c ****   }
 851              		.loc 1 780 0
 852 003e 0020     		movs	r0, #0
 782:Middlewares/Third_Party/LwIP/src/core/tcp.c **** 
 853              		.loc 1 782 0
 854 0040 38BD     		pop	{r3, r4, r5, pc}
 855              	.LVL104:
 856              	.L106:
 857              	.LBB5:
 776:Middlewares/Third_Party/LwIP/src/core/tcp.c **** #endif
ARM GAS  C:\Users\Student\AppData\Local\Temp\cc0PPYfp.s 			page 33


 858              		.loc 1 776 0 discriminator 1
 859 0042 044B     		ldr	r3, .L107
 860 0044 4FF44272 		mov	r2, #776
 861              	.LVL105:
 862 0048 0349     		ldr	r1, .L107+4
 863 004a 0448     		ldr	r0, .L107+8
 864              	.LVL106:
 865 004c FFF7FEFF 		bl	printf
 866              	.LVL107:
 867 0050 F4E7     		b	.L103
 868              	.L108:
 869 0052 00BF     		.align	2
 870              	.L107:
 871 0054 00000000 		.word	.LC0
 872 0058 00000000 		.word	.LC6
 873 005c 38000000 		.word	.LC2
 874              	.LBE5:
 875              		.cfi_endproc
 876              	.LFE166:
 878              		.section	.text.tcp_recved,"ax",%progbits
 879              		.align	1
 880              		.global	tcp_recved
 881              		.syntax unified
 882              		.thumb
 883              		.thumb_func
 884              		.fpu fpv5-sp-d16
 886              	tcp_recved:
 887              	.LFB167:
 795:Middlewares/Third_Party/LwIP/src/core/tcp.c ****   int wnd_inflation;
 888              		.loc 1 795 0
 889              		.cfi_startproc
 890              		@ args = 0, pretend = 0, frame = 0
 891              		@ frame_needed = 0, uses_anonymous_args = 0
 892              	.LVL108:
 893 0000 38B5     		push	{r3, r4, r5, lr}
 894              	.LCFI9:
 895              		.cfi_def_cfa_offset 16
 896              		.cfi_offset 3, -16
 897              		.cfi_offset 4, -12
 898              		.cfi_offset 5, -8
 899              		.cfi_offset 14, -4
 900 0002 0546     		mov	r5, r0
 901 0004 0C46     		mov	r4, r1
 799:Middlewares/Third_Party/LwIP/src/core/tcp.c ****     pcb->state != LISTEN);
 902              		.loc 1 799 0
 903 0006 037D     		ldrb	r3, [r0, #20]	@ zero_extendqisi2
 904 0008 012B     		cmp	r3, #1
 905 000a 10D0     		beq	.L116
 906              	.LVL109:
 907              	.L110:
 802:Middlewares/Third_Party/LwIP/src/core/tcp.c ****   if (pcb->rcv_wnd > TCP_WND_MAX(pcb)) {
 908              		.loc 1 802 0
 909 000c 298D     		ldrh	r1, [r5, #40]
 910 000e 2144     		add	r1, r1, r4
 911 0010 89B2     		uxth	r1, r1
 912 0012 2985     		strh	r1, [r5, #40]	@ movhi
 803:Middlewares/Third_Party/LwIP/src/core/tcp.c ****     pcb->rcv_wnd = TCP_WND_MAX(pcb);
ARM GAS  C:\Users\Student\AppData\Local\Temp\cc0PPYfp.s 			page 34


 913              		.loc 1 803 0
 914 0014 B1F5066F 		cmp	r1, #2144
 915 0018 11D9     		bls	.L111
 804:Middlewares/Third_Party/LwIP/src/core/tcp.c ****   } else if (pcb->rcv_wnd == 0) {
 916              		.loc 1 804 0
 917 001a 4FF40663 		mov	r3, #2144
 918 001e 2B85     		strh	r3, [r5, #40]	@ movhi
 919              	.L112:
 817:Middlewares/Third_Party/LwIP/src/core/tcp.c **** 
 920              		.loc 1 817 0
 921 0020 2846     		mov	r0, r5
 922 0022 FFF7FEFF 		bl	tcp_update_rcv_ann_wnd
 923              	.LVL110:
 823:Middlewares/Third_Party/LwIP/src/core/tcp.c ****     tcp_ack_now(pcb);
 924              		.loc 1 823 0
 925 0026 B0F5067F 		cmp	r0, #536
 926 002a 1BDA     		bge	.L117
 927              	.LVL111:
 928              	.L109:
 929 002c 38BD     		pop	{r3, r4, r5, pc}
 930              	.LVL112:
 931              	.L116:
 799:Middlewares/Third_Party/LwIP/src/core/tcp.c ****     pcb->state != LISTEN);
 932              		.loc 1 799 0 discriminator 1
 933 002e 114B     		ldr	r3, .L118
 934 0030 4FF44872 		mov	r2, #800
 935 0034 1049     		ldr	r1, .L118+4
 936              	.LVL113:
 937 0036 1148     		ldr	r0, .L118+8
 938              	.LVL114:
 939 0038 FFF7FEFF 		bl	printf
 940              	.LVL115:
 941 003c E6E7     		b	.L110
 942              	.L111:
 805:Middlewares/Third_Party/LwIP/src/core/tcp.c ****     /* rcv_wnd overflowed */
 943              		.loc 1 805 0
 944 003e 0029     		cmp	r1, #0
 945 0040 EED1     		bne	.L112
 807:Middlewares/Third_Party/LwIP/src/core/tcp.c ****       /* In passive close, we allow this, since the FIN bit is added to rcv_wnd
 946              		.loc 1 807 0
 947 0042 2B7D     		ldrb	r3, [r5, #20]	@ zero_extendqisi2
 948 0044 092B     		cmp	r3, #9
 949 0046 18BF     		it	ne
 950 0048 072B     		cmpne	r3, #7
 951 004a 03D1     		bne	.L113
 811:Middlewares/Third_Party/LwIP/src/core/tcp.c ****     } else {
 952              		.loc 1 811 0
 953 004c 4FF40663 		mov	r3, #2144
 954 0050 2B85     		strh	r3, [r5, #40]	@ movhi
 955 0052 E5E7     		b	.L112
 956              	.L113:
 813:Middlewares/Third_Party/LwIP/src/core/tcp.c ****     }
 957              		.loc 1 813 0 discriminator 1
 958 0054 074B     		ldr	r3, .L118
 959 0056 40F22D32 		movw	r2, #813
 960 005a 0949     		ldr	r1, .L118+12
 961 005c 0748     		ldr	r0, .L118+8
ARM GAS  C:\Users\Student\AppData\Local\Temp\cc0PPYfp.s 			page 35


 962 005e FFF7FEFF 		bl	printf
 963              	.LVL116:
 964 0062 DDE7     		b	.L112
 965              	.LVL117:
 966              	.L117:
 824:Middlewares/Third_Party/LwIP/src/core/tcp.c ****     tcp_output(pcb);
 967              		.loc 1 824 0
 968 0064 AB7E     		ldrb	r3, [r5, #26]	@ zero_extendqisi2
 969 0066 43F00203 		orr	r3, r3, #2
 970 006a AB76     		strb	r3, [r5, #26]
 825:Middlewares/Third_Party/LwIP/src/core/tcp.c ****   }
 971              		.loc 1 825 0
 972 006c 2846     		mov	r0, r5
 973              	.LVL118:
 974 006e FFF7FEFF 		bl	tcp_output
 975              	.LVL119:
 830:Middlewares/Third_Party/LwIP/src/core/tcp.c **** 
 976              		.loc 1 830 0
 977 0072 DBE7     		b	.L109
 978              	.L119:
 979              		.align	2
 980              	.L118:
 981 0074 00000000 		.word	.LC0
 982 0078 00000000 		.word	.LC7
 983 007c 38000000 		.word	.LC2
 984 0080 28000000 		.word	.LC8
 985              		.cfi_endproc
 986              	.LFE167:
 988              		.section	.text.tcp_txnow,"ax",%progbits
 989              		.align	1
 990              		.global	tcp_txnow
 991              		.syntax unified
 992              		.thumb
 993              		.thumb_func
 994              		.fpu fpv5-sp-d16
 996              	tcp_txnow:
 997              	.LFB172:
 861:Middlewares/Third_Party/LwIP/src/core/tcp.c **** 
 862:Middlewares/Third_Party/LwIP/src/core/tcp.c **** /**
 863:Middlewares/Third_Party/LwIP/src/core/tcp.c ****  * @ingroup tcp_raw
 864:Middlewares/Third_Party/LwIP/src/core/tcp.c ****  * Connects to another host. The function given as the "connected"
 865:Middlewares/Third_Party/LwIP/src/core/tcp.c ****  * argument will be called when the connection has been established.
 866:Middlewares/Third_Party/LwIP/src/core/tcp.c ****  *
 867:Middlewares/Third_Party/LwIP/src/core/tcp.c ****  * @param pcb the tcp_pcb used to establish the connection
 868:Middlewares/Third_Party/LwIP/src/core/tcp.c ****  * @param ipaddr the remote ip address to connect to
 869:Middlewares/Third_Party/LwIP/src/core/tcp.c ****  * @param port the remote tcp port to connect to
 870:Middlewares/Third_Party/LwIP/src/core/tcp.c ****  * @param connected callback function to call when connected (on error,
 871:Middlewares/Third_Party/LwIP/src/core/tcp.c ****                     the err calback will be called)
 872:Middlewares/Third_Party/LwIP/src/core/tcp.c ****  * @return ERR_VAL if invalid arguments are given
 873:Middlewares/Third_Party/LwIP/src/core/tcp.c ****  *         ERR_OK if connect request has been sent
 874:Middlewares/Third_Party/LwIP/src/core/tcp.c ****  *         other err_t values if connect request couldn't be sent
 875:Middlewares/Third_Party/LwIP/src/core/tcp.c ****  */
 876:Middlewares/Third_Party/LwIP/src/core/tcp.c **** err_t
 877:Middlewares/Third_Party/LwIP/src/core/tcp.c **** tcp_connect(struct tcp_pcb *pcb, const ip_addr_t *ipaddr, u16_t port,
 878:Middlewares/Third_Party/LwIP/src/core/tcp.c ****       tcp_connected_fn connected)
 879:Middlewares/Third_Party/LwIP/src/core/tcp.c **** {
 880:Middlewares/Third_Party/LwIP/src/core/tcp.c ****   err_t ret;
ARM GAS  C:\Users\Student\AppData\Local\Temp\cc0PPYfp.s 			page 36


 881:Middlewares/Third_Party/LwIP/src/core/tcp.c ****   u32_t iss;
 882:Middlewares/Third_Party/LwIP/src/core/tcp.c ****   u16_t old_local_port;
 883:Middlewares/Third_Party/LwIP/src/core/tcp.c **** 
 884:Middlewares/Third_Party/LwIP/src/core/tcp.c ****   if ((pcb == NULL) || (ipaddr == NULL)) {
 885:Middlewares/Third_Party/LwIP/src/core/tcp.c ****     return ERR_VAL;
 886:Middlewares/Third_Party/LwIP/src/core/tcp.c ****   }
 887:Middlewares/Third_Party/LwIP/src/core/tcp.c **** 
 888:Middlewares/Third_Party/LwIP/src/core/tcp.c ****   LWIP_ERROR("tcp_connect: can only connect from state CLOSED", pcb->state == CLOSED, return ERR_IS
 889:Middlewares/Third_Party/LwIP/src/core/tcp.c **** 
 890:Middlewares/Third_Party/LwIP/src/core/tcp.c ****   LWIP_DEBUGF(TCP_DEBUG, ("tcp_connect to port %"U16_F"\n", port));
 891:Middlewares/Third_Party/LwIP/src/core/tcp.c ****   ip_addr_set(&pcb->remote_ip, ipaddr);
 892:Middlewares/Third_Party/LwIP/src/core/tcp.c ****   pcb->remote_port = port;
 893:Middlewares/Third_Party/LwIP/src/core/tcp.c **** 
 894:Middlewares/Third_Party/LwIP/src/core/tcp.c ****   /* check if we have a route to the remote host */
 895:Middlewares/Third_Party/LwIP/src/core/tcp.c ****   if (ip_addr_isany(&pcb->local_ip)) {
 896:Middlewares/Third_Party/LwIP/src/core/tcp.c ****     /* no local IP address set, yet. */
 897:Middlewares/Third_Party/LwIP/src/core/tcp.c ****     struct netif *netif;
 898:Middlewares/Third_Party/LwIP/src/core/tcp.c ****     const ip_addr_t *local_ip;
 899:Middlewares/Third_Party/LwIP/src/core/tcp.c ****     ip_route_get_local_ip(&pcb->local_ip, &pcb->remote_ip, netif, local_ip);
 900:Middlewares/Third_Party/LwIP/src/core/tcp.c ****     if ((netif == NULL) || (local_ip == NULL)) {
 901:Middlewares/Third_Party/LwIP/src/core/tcp.c ****       /* Don't even try to send a SYN packet if we have no route
 902:Middlewares/Third_Party/LwIP/src/core/tcp.c ****          since that will fail. */
 903:Middlewares/Third_Party/LwIP/src/core/tcp.c ****       return ERR_RTE;
 904:Middlewares/Third_Party/LwIP/src/core/tcp.c ****     }
 905:Middlewares/Third_Party/LwIP/src/core/tcp.c ****     /* Use the address as local address of the pcb. */
 906:Middlewares/Third_Party/LwIP/src/core/tcp.c ****     ip_addr_copy(pcb->local_ip, *local_ip);
 907:Middlewares/Third_Party/LwIP/src/core/tcp.c ****   }
 908:Middlewares/Third_Party/LwIP/src/core/tcp.c **** 
 909:Middlewares/Third_Party/LwIP/src/core/tcp.c ****   old_local_port = pcb->local_port;
 910:Middlewares/Third_Party/LwIP/src/core/tcp.c ****   if (pcb->local_port == 0) {
 911:Middlewares/Third_Party/LwIP/src/core/tcp.c ****     pcb->local_port = tcp_new_port();
 912:Middlewares/Third_Party/LwIP/src/core/tcp.c ****     if (pcb->local_port == 0) {
 913:Middlewares/Third_Party/LwIP/src/core/tcp.c ****       return ERR_BUF;
 914:Middlewares/Third_Party/LwIP/src/core/tcp.c ****     }
 915:Middlewares/Third_Party/LwIP/src/core/tcp.c ****   } else {
 916:Middlewares/Third_Party/LwIP/src/core/tcp.c **** #if SO_REUSE
 917:Middlewares/Third_Party/LwIP/src/core/tcp.c ****     if (ip_get_option(pcb, SOF_REUSEADDR)) {
 918:Middlewares/Third_Party/LwIP/src/core/tcp.c ****       /* Since SOF_REUSEADDR allows reusing a local address, we have to make sure
 919:Middlewares/Third_Party/LwIP/src/core/tcp.c ****          now that the 5-tuple is unique. */
 920:Middlewares/Third_Party/LwIP/src/core/tcp.c ****       struct tcp_pcb *cpcb;
 921:Middlewares/Third_Party/LwIP/src/core/tcp.c ****       int i;
 922:Middlewares/Third_Party/LwIP/src/core/tcp.c ****       /* Don't check listen- and bound-PCBs, check active- and TIME-WAIT PCBs. */
 923:Middlewares/Third_Party/LwIP/src/core/tcp.c ****       for (i = 2; i < NUM_TCP_PCB_LISTS; i++) {
 924:Middlewares/Third_Party/LwIP/src/core/tcp.c ****         for (cpcb = *tcp_pcb_lists[i]; cpcb != NULL; cpcb = cpcb->next) {
 925:Middlewares/Third_Party/LwIP/src/core/tcp.c ****           if ((cpcb->local_port == pcb->local_port) &&
 926:Middlewares/Third_Party/LwIP/src/core/tcp.c ****               (cpcb->remote_port == port) &&
 927:Middlewares/Third_Party/LwIP/src/core/tcp.c ****               ip_addr_cmp(&cpcb->local_ip, &pcb->local_ip) &&
 928:Middlewares/Third_Party/LwIP/src/core/tcp.c ****               ip_addr_cmp(&cpcb->remote_ip, ipaddr)) {
 929:Middlewares/Third_Party/LwIP/src/core/tcp.c ****             /* linux returns EISCONN here, but ERR_USE should be OK for us */
 930:Middlewares/Third_Party/LwIP/src/core/tcp.c ****             return ERR_USE;
 931:Middlewares/Third_Party/LwIP/src/core/tcp.c ****           }
 932:Middlewares/Third_Party/LwIP/src/core/tcp.c ****         }
 933:Middlewares/Third_Party/LwIP/src/core/tcp.c ****       }
 934:Middlewares/Third_Party/LwIP/src/core/tcp.c ****     }
 935:Middlewares/Third_Party/LwIP/src/core/tcp.c **** #endif /* SO_REUSE */
 936:Middlewares/Third_Party/LwIP/src/core/tcp.c ****   }
 937:Middlewares/Third_Party/LwIP/src/core/tcp.c **** 
ARM GAS  C:\Users\Student\AppData\Local\Temp\cc0PPYfp.s 			page 37


 938:Middlewares/Third_Party/LwIP/src/core/tcp.c ****   iss = tcp_next_iss(pcb);
 939:Middlewares/Third_Party/LwIP/src/core/tcp.c ****   pcb->rcv_nxt = 0;
 940:Middlewares/Third_Party/LwIP/src/core/tcp.c ****   pcb->snd_nxt = iss;
 941:Middlewares/Third_Party/LwIP/src/core/tcp.c ****   pcb->lastack = iss - 1;
 942:Middlewares/Third_Party/LwIP/src/core/tcp.c ****   pcb->snd_wl2 = iss - 1;
 943:Middlewares/Third_Party/LwIP/src/core/tcp.c ****   pcb->snd_lbb = iss - 1;
 944:Middlewares/Third_Party/LwIP/src/core/tcp.c ****   /* Start with a window that does not need scaling. When window scaling is
 945:Middlewares/Third_Party/LwIP/src/core/tcp.c ****      enabled and used, the window is enlarged when both sides agree on scaling. */
 946:Middlewares/Third_Party/LwIP/src/core/tcp.c ****   pcb->rcv_wnd = pcb->rcv_ann_wnd = TCPWND_MIN16(TCP_WND);
 947:Middlewares/Third_Party/LwIP/src/core/tcp.c ****   pcb->rcv_ann_right_edge = pcb->rcv_nxt;
 948:Middlewares/Third_Party/LwIP/src/core/tcp.c ****   pcb->snd_wnd = TCP_WND;
 949:Middlewares/Third_Party/LwIP/src/core/tcp.c ****   /* As initial send MSS, we use TCP_MSS but limit it to 536.
 950:Middlewares/Third_Party/LwIP/src/core/tcp.c ****      The send MSS is updated when an MSS option is received. */
 951:Middlewares/Third_Party/LwIP/src/core/tcp.c ****   pcb->mss = INITIAL_MSS;
 952:Middlewares/Third_Party/LwIP/src/core/tcp.c **** #if TCP_CALCULATE_EFF_SEND_MSS
 953:Middlewares/Third_Party/LwIP/src/core/tcp.c ****   pcb->mss = tcp_eff_send_mss(pcb->mss, &pcb->local_ip, &pcb->remote_ip);
 954:Middlewares/Third_Party/LwIP/src/core/tcp.c **** #endif /* TCP_CALCULATE_EFF_SEND_MSS */
 955:Middlewares/Third_Party/LwIP/src/core/tcp.c ****   pcb->cwnd = 1;
 956:Middlewares/Third_Party/LwIP/src/core/tcp.c **** #if LWIP_CALLBACK_API
 957:Middlewares/Third_Party/LwIP/src/core/tcp.c ****   pcb->connected = connected;
 958:Middlewares/Third_Party/LwIP/src/core/tcp.c **** #else /* LWIP_CALLBACK_API */
 959:Middlewares/Third_Party/LwIP/src/core/tcp.c ****   LWIP_UNUSED_ARG(connected);
 960:Middlewares/Third_Party/LwIP/src/core/tcp.c **** #endif /* LWIP_CALLBACK_API */
 961:Middlewares/Third_Party/LwIP/src/core/tcp.c **** 
 962:Middlewares/Third_Party/LwIP/src/core/tcp.c ****   /* Send a SYN together with the MSS option. */
 963:Middlewares/Third_Party/LwIP/src/core/tcp.c ****   ret = tcp_enqueue_flags(pcb, TCP_SYN);
 964:Middlewares/Third_Party/LwIP/src/core/tcp.c ****   if (ret == ERR_OK) {
 965:Middlewares/Third_Party/LwIP/src/core/tcp.c ****     /* SYN segment was enqueued, changed the pcbs state now */
 966:Middlewares/Third_Party/LwIP/src/core/tcp.c ****     pcb->state = SYN_SENT;
 967:Middlewares/Third_Party/LwIP/src/core/tcp.c ****     if (old_local_port != 0) {
 968:Middlewares/Third_Party/LwIP/src/core/tcp.c ****       TCP_RMV(&tcp_bound_pcbs, pcb);
 969:Middlewares/Third_Party/LwIP/src/core/tcp.c ****     }
 970:Middlewares/Third_Party/LwIP/src/core/tcp.c ****     TCP_REG_ACTIVE(pcb);
 971:Middlewares/Third_Party/LwIP/src/core/tcp.c ****     MIB2_STATS_INC(mib2.tcpactiveopens);
 972:Middlewares/Third_Party/LwIP/src/core/tcp.c **** 
 973:Middlewares/Third_Party/LwIP/src/core/tcp.c ****     tcp_output(pcb);
 974:Middlewares/Third_Party/LwIP/src/core/tcp.c ****   }
 975:Middlewares/Third_Party/LwIP/src/core/tcp.c ****   return ret;
 976:Middlewares/Third_Party/LwIP/src/core/tcp.c **** }
 977:Middlewares/Third_Party/LwIP/src/core/tcp.c **** 
 978:Middlewares/Third_Party/LwIP/src/core/tcp.c **** /**
 979:Middlewares/Third_Party/LwIP/src/core/tcp.c ****  * Called every 500 ms and implements the retransmission timer and the timer that
 980:Middlewares/Third_Party/LwIP/src/core/tcp.c ****  * removes PCBs that have been in TIME-WAIT for enough time. It also increments
 981:Middlewares/Third_Party/LwIP/src/core/tcp.c ****  * various timers such as the inactivity timer in each PCB.
 982:Middlewares/Third_Party/LwIP/src/core/tcp.c ****  *
 983:Middlewares/Third_Party/LwIP/src/core/tcp.c ****  * Automatically called from tcp_tmr().
 984:Middlewares/Third_Party/LwIP/src/core/tcp.c ****  */
 985:Middlewares/Third_Party/LwIP/src/core/tcp.c **** void
 986:Middlewares/Third_Party/LwIP/src/core/tcp.c **** tcp_slowtmr(void)
 987:Middlewares/Third_Party/LwIP/src/core/tcp.c **** {
 988:Middlewares/Third_Party/LwIP/src/core/tcp.c ****   struct tcp_pcb *pcb, *prev;
 989:Middlewares/Third_Party/LwIP/src/core/tcp.c ****   tcpwnd_size_t eff_wnd;
 990:Middlewares/Third_Party/LwIP/src/core/tcp.c ****   u8_t pcb_remove;      /* flag if a PCB should be removed */
 991:Middlewares/Third_Party/LwIP/src/core/tcp.c ****   u8_t pcb_reset;       /* flag if a RST should be sent when removing */
 992:Middlewares/Third_Party/LwIP/src/core/tcp.c ****   err_t err;
 993:Middlewares/Third_Party/LwIP/src/core/tcp.c **** 
 994:Middlewares/Third_Party/LwIP/src/core/tcp.c ****   err = ERR_OK;
ARM GAS  C:\Users\Student\AppData\Local\Temp\cc0PPYfp.s 			page 38


 995:Middlewares/Third_Party/LwIP/src/core/tcp.c **** 
 996:Middlewares/Third_Party/LwIP/src/core/tcp.c ****   ++tcp_ticks;
 997:Middlewares/Third_Party/LwIP/src/core/tcp.c ****   ++tcp_timer_ctr;
 998:Middlewares/Third_Party/LwIP/src/core/tcp.c **** 
 999:Middlewares/Third_Party/LwIP/src/core/tcp.c **** tcp_slowtmr_start:
1000:Middlewares/Third_Party/LwIP/src/core/tcp.c ****   /* Steps through all of the active PCBs. */
1001:Middlewares/Third_Party/LwIP/src/core/tcp.c ****   prev = NULL;
1002:Middlewares/Third_Party/LwIP/src/core/tcp.c ****   pcb = tcp_active_pcbs;
1003:Middlewares/Third_Party/LwIP/src/core/tcp.c ****   if (pcb == NULL) {
1004:Middlewares/Third_Party/LwIP/src/core/tcp.c ****     LWIP_DEBUGF(TCP_DEBUG, ("tcp_slowtmr: no active pcbs\n"));
1005:Middlewares/Third_Party/LwIP/src/core/tcp.c ****   }
1006:Middlewares/Third_Party/LwIP/src/core/tcp.c ****   while (pcb != NULL) {
1007:Middlewares/Third_Party/LwIP/src/core/tcp.c ****     LWIP_DEBUGF(TCP_DEBUG, ("tcp_slowtmr: processing active pcb\n"));
1008:Middlewares/Third_Party/LwIP/src/core/tcp.c ****     LWIP_ASSERT("tcp_slowtmr: active pcb->state != CLOSED\n", pcb->state != CLOSED);
1009:Middlewares/Third_Party/LwIP/src/core/tcp.c ****     LWIP_ASSERT("tcp_slowtmr: active pcb->state != LISTEN\n", pcb->state != LISTEN);
1010:Middlewares/Third_Party/LwIP/src/core/tcp.c ****     LWIP_ASSERT("tcp_slowtmr: active pcb->state != TIME-WAIT\n", pcb->state != TIME_WAIT);
1011:Middlewares/Third_Party/LwIP/src/core/tcp.c ****     if (pcb->last_timer == tcp_timer_ctr) {
1012:Middlewares/Third_Party/LwIP/src/core/tcp.c ****       /* skip this pcb, we have already processed it */
1013:Middlewares/Third_Party/LwIP/src/core/tcp.c ****       pcb = pcb->next;
1014:Middlewares/Third_Party/LwIP/src/core/tcp.c ****       continue;
1015:Middlewares/Third_Party/LwIP/src/core/tcp.c ****     }
1016:Middlewares/Third_Party/LwIP/src/core/tcp.c ****     pcb->last_timer = tcp_timer_ctr;
1017:Middlewares/Third_Party/LwIP/src/core/tcp.c **** 
1018:Middlewares/Third_Party/LwIP/src/core/tcp.c ****     pcb_remove = 0;
1019:Middlewares/Third_Party/LwIP/src/core/tcp.c ****     pcb_reset = 0;
1020:Middlewares/Third_Party/LwIP/src/core/tcp.c **** 
1021:Middlewares/Third_Party/LwIP/src/core/tcp.c ****     if (pcb->state == SYN_SENT && pcb->nrtx >= TCP_SYNMAXRTX) {
1022:Middlewares/Third_Party/LwIP/src/core/tcp.c ****       ++pcb_remove;
1023:Middlewares/Third_Party/LwIP/src/core/tcp.c ****       LWIP_DEBUGF(TCP_DEBUG, ("tcp_slowtmr: max SYN retries reached\n"));
1024:Middlewares/Third_Party/LwIP/src/core/tcp.c ****     }
1025:Middlewares/Third_Party/LwIP/src/core/tcp.c ****     else if (pcb->nrtx >= TCP_MAXRTX) {
1026:Middlewares/Third_Party/LwIP/src/core/tcp.c ****       ++pcb_remove;
1027:Middlewares/Third_Party/LwIP/src/core/tcp.c ****       LWIP_DEBUGF(TCP_DEBUG, ("tcp_slowtmr: max DATA retries reached\n"));
1028:Middlewares/Third_Party/LwIP/src/core/tcp.c ****     } else {
1029:Middlewares/Third_Party/LwIP/src/core/tcp.c ****       if (pcb->persist_backoff > 0) {
1030:Middlewares/Third_Party/LwIP/src/core/tcp.c ****         /* If snd_wnd is zero, use persist timer to send 1 byte probes
1031:Middlewares/Third_Party/LwIP/src/core/tcp.c ****          * instead of using the standard retransmission mechanism. */
1032:Middlewares/Third_Party/LwIP/src/core/tcp.c ****         u8_t backoff_cnt = tcp_persist_backoff[pcb->persist_backoff-1];
1033:Middlewares/Third_Party/LwIP/src/core/tcp.c ****         if (pcb->persist_cnt < backoff_cnt) {
1034:Middlewares/Third_Party/LwIP/src/core/tcp.c ****           pcb->persist_cnt++;
1035:Middlewares/Third_Party/LwIP/src/core/tcp.c ****         }
1036:Middlewares/Third_Party/LwIP/src/core/tcp.c ****         if (pcb->persist_cnt >= backoff_cnt) {
1037:Middlewares/Third_Party/LwIP/src/core/tcp.c ****           if (tcp_zero_window_probe(pcb) == ERR_OK) {
1038:Middlewares/Third_Party/LwIP/src/core/tcp.c ****             pcb->persist_cnt = 0;
1039:Middlewares/Third_Party/LwIP/src/core/tcp.c ****             if (pcb->persist_backoff < sizeof(tcp_persist_backoff)) {
1040:Middlewares/Third_Party/LwIP/src/core/tcp.c ****               pcb->persist_backoff++;
1041:Middlewares/Third_Party/LwIP/src/core/tcp.c ****             }
1042:Middlewares/Third_Party/LwIP/src/core/tcp.c ****           }
1043:Middlewares/Third_Party/LwIP/src/core/tcp.c ****         }
1044:Middlewares/Third_Party/LwIP/src/core/tcp.c ****       } else {
1045:Middlewares/Third_Party/LwIP/src/core/tcp.c ****         /* Increase the retransmission timer if it is running */
1046:Middlewares/Third_Party/LwIP/src/core/tcp.c ****         if (pcb->rtime >= 0) {
1047:Middlewares/Third_Party/LwIP/src/core/tcp.c ****           ++pcb->rtime;
1048:Middlewares/Third_Party/LwIP/src/core/tcp.c ****         }
1049:Middlewares/Third_Party/LwIP/src/core/tcp.c **** 
1050:Middlewares/Third_Party/LwIP/src/core/tcp.c ****         if (pcb->unacked != NULL && pcb->rtime >= pcb->rto) {
1051:Middlewares/Third_Party/LwIP/src/core/tcp.c ****           /* Time for a retransmission. */
ARM GAS  C:\Users\Student\AppData\Local\Temp\cc0PPYfp.s 			page 39


1052:Middlewares/Third_Party/LwIP/src/core/tcp.c ****           LWIP_DEBUGF(TCP_RTO_DEBUG, ("tcp_slowtmr: rtime %"S16_F
1053:Middlewares/Third_Party/LwIP/src/core/tcp.c ****                                       " pcb->rto %"S16_F"\n",
1054:Middlewares/Third_Party/LwIP/src/core/tcp.c ****                                       pcb->rtime, pcb->rto));
1055:Middlewares/Third_Party/LwIP/src/core/tcp.c **** 
1056:Middlewares/Third_Party/LwIP/src/core/tcp.c ****           /* Double retransmission time-out unless we are trying to
1057:Middlewares/Third_Party/LwIP/src/core/tcp.c ****            * connect to somebody (i.e., we are in SYN_SENT). */
1058:Middlewares/Third_Party/LwIP/src/core/tcp.c ****           if (pcb->state != SYN_SENT) {
1059:Middlewares/Third_Party/LwIP/src/core/tcp.c ****             u8_t backoff_idx = LWIP_MIN(pcb->nrtx, sizeof(tcp_backoff)-1);
1060:Middlewares/Third_Party/LwIP/src/core/tcp.c ****             pcb->rto = ((pcb->sa >> 3) + pcb->sv) << tcp_backoff[backoff_idx];
1061:Middlewares/Third_Party/LwIP/src/core/tcp.c ****           }
1062:Middlewares/Third_Party/LwIP/src/core/tcp.c **** 
1063:Middlewares/Third_Party/LwIP/src/core/tcp.c ****           /* Reset the retransmission timer. */
1064:Middlewares/Third_Party/LwIP/src/core/tcp.c ****           pcb->rtime = 0;
1065:Middlewares/Third_Party/LwIP/src/core/tcp.c **** 
1066:Middlewares/Third_Party/LwIP/src/core/tcp.c ****           /* Reduce congestion window and ssthresh. */
1067:Middlewares/Third_Party/LwIP/src/core/tcp.c ****           eff_wnd = LWIP_MIN(pcb->cwnd, pcb->snd_wnd);
1068:Middlewares/Third_Party/LwIP/src/core/tcp.c ****           pcb->ssthresh = eff_wnd >> 1;
1069:Middlewares/Third_Party/LwIP/src/core/tcp.c ****           if (pcb->ssthresh < (tcpwnd_size_t)(pcb->mss << 1)) {
1070:Middlewares/Third_Party/LwIP/src/core/tcp.c ****             pcb->ssthresh = (pcb->mss << 1);
1071:Middlewares/Third_Party/LwIP/src/core/tcp.c ****           }
1072:Middlewares/Third_Party/LwIP/src/core/tcp.c ****           pcb->cwnd = pcb->mss;
1073:Middlewares/Third_Party/LwIP/src/core/tcp.c ****           LWIP_DEBUGF(TCP_CWND_DEBUG, ("tcp_slowtmr: cwnd %"TCPWNDSIZE_F
1074:Middlewares/Third_Party/LwIP/src/core/tcp.c ****                                        " ssthresh %"TCPWNDSIZE_F"\n",
1075:Middlewares/Third_Party/LwIP/src/core/tcp.c ****                                        pcb->cwnd, pcb->ssthresh));
1076:Middlewares/Third_Party/LwIP/src/core/tcp.c **** 
1077:Middlewares/Third_Party/LwIP/src/core/tcp.c ****           /* The following needs to be called AFTER cwnd is set to one
1078:Middlewares/Third_Party/LwIP/src/core/tcp.c ****              mss - STJ */
1079:Middlewares/Third_Party/LwIP/src/core/tcp.c ****           tcp_rexmit_rto(pcb);
1080:Middlewares/Third_Party/LwIP/src/core/tcp.c ****         }
1081:Middlewares/Third_Party/LwIP/src/core/tcp.c ****       }
1082:Middlewares/Third_Party/LwIP/src/core/tcp.c ****     }
1083:Middlewares/Third_Party/LwIP/src/core/tcp.c ****     /* Check if this PCB has stayed too long in FIN-WAIT-2 */
1084:Middlewares/Third_Party/LwIP/src/core/tcp.c ****     if (pcb->state == FIN_WAIT_2) {
1085:Middlewares/Third_Party/LwIP/src/core/tcp.c ****       /* If this PCB is in FIN_WAIT_2 because of SHUT_WR don't let it time out. */
1086:Middlewares/Third_Party/LwIP/src/core/tcp.c ****       if (pcb->flags & TF_RXCLOSED) {
1087:Middlewares/Third_Party/LwIP/src/core/tcp.c ****         /* PCB was fully closed (either through close() or SHUT_RDWR):
1088:Middlewares/Third_Party/LwIP/src/core/tcp.c ****            normal FIN-WAIT timeout handling. */
1089:Middlewares/Third_Party/LwIP/src/core/tcp.c ****         if ((u32_t)(tcp_ticks - pcb->tmr) >
1090:Middlewares/Third_Party/LwIP/src/core/tcp.c ****             TCP_FIN_WAIT_TIMEOUT / TCP_SLOW_INTERVAL) {
1091:Middlewares/Third_Party/LwIP/src/core/tcp.c ****           ++pcb_remove;
1092:Middlewares/Third_Party/LwIP/src/core/tcp.c ****           LWIP_DEBUGF(TCP_DEBUG, ("tcp_slowtmr: removing pcb stuck in FIN-WAIT-2\n"));
1093:Middlewares/Third_Party/LwIP/src/core/tcp.c ****         }
1094:Middlewares/Third_Party/LwIP/src/core/tcp.c ****       }
1095:Middlewares/Third_Party/LwIP/src/core/tcp.c ****     }
1096:Middlewares/Third_Party/LwIP/src/core/tcp.c **** 
1097:Middlewares/Third_Party/LwIP/src/core/tcp.c ****     /* Check if KEEPALIVE should be sent */
1098:Middlewares/Third_Party/LwIP/src/core/tcp.c ****     if (ip_get_option(pcb, SOF_KEEPALIVE) &&
1099:Middlewares/Third_Party/LwIP/src/core/tcp.c ****        ((pcb->state == ESTABLISHED) ||
1100:Middlewares/Third_Party/LwIP/src/core/tcp.c ****         (pcb->state == CLOSE_WAIT))) {
1101:Middlewares/Third_Party/LwIP/src/core/tcp.c ****       if ((u32_t)(tcp_ticks - pcb->tmr) >
1102:Middlewares/Third_Party/LwIP/src/core/tcp.c ****          (pcb->keep_idle + TCP_KEEP_DUR(pcb)) / TCP_SLOW_INTERVAL)
1103:Middlewares/Third_Party/LwIP/src/core/tcp.c ****       {
1104:Middlewares/Third_Party/LwIP/src/core/tcp.c ****         LWIP_DEBUGF(TCP_DEBUG, ("tcp_slowtmr: KEEPALIVE timeout. Aborting connection to "));
1105:Middlewares/Third_Party/LwIP/src/core/tcp.c ****         ip_addr_debug_print(TCP_DEBUG, &pcb->remote_ip);
1106:Middlewares/Third_Party/LwIP/src/core/tcp.c ****         LWIP_DEBUGF(TCP_DEBUG, ("\n"));
1107:Middlewares/Third_Party/LwIP/src/core/tcp.c **** 
1108:Middlewares/Third_Party/LwIP/src/core/tcp.c ****         ++pcb_remove;
ARM GAS  C:\Users\Student\AppData\Local\Temp\cc0PPYfp.s 			page 40


1109:Middlewares/Third_Party/LwIP/src/core/tcp.c ****         ++pcb_reset;
1110:Middlewares/Third_Party/LwIP/src/core/tcp.c ****       } else if ((u32_t)(tcp_ticks - pcb->tmr) >
1111:Middlewares/Third_Party/LwIP/src/core/tcp.c ****                 (pcb->keep_idle + pcb->keep_cnt_sent * TCP_KEEP_INTVL(pcb))
1112:Middlewares/Third_Party/LwIP/src/core/tcp.c ****                 / TCP_SLOW_INTERVAL)
1113:Middlewares/Third_Party/LwIP/src/core/tcp.c ****       {
1114:Middlewares/Third_Party/LwIP/src/core/tcp.c ****         err = tcp_keepalive(pcb);
1115:Middlewares/Third_Party/LwIP/src/core/tcp.c ****         if (err == ERR_OK) {
1116:Middlewares/Third_Party/LwIP/src/core/tcp.c ****           pcb->keep_cnt_sent++;
1117:Middlewares/Third_Party/LwIP/src/core/tcp.c ****         }
1118:Middlewares/Third_Party/LwIP/src/core/tcp.c ****       }
1119:Middlewares/Third_Party/LwIP/src/core/tcp.c ****     }
1120:Middlewares/Third_Party/LwIP/src/core/tcp.c **** 
1121:Middlewares/Third_Party/LwIP/src/core/tcp.c ****     /* If this PCB has queued out of sequence data, but has been
1122:Middlewares/Third_Party/LwIP/src/core/tcp.c ****        inactive for too long, will drop the data (it will eventually
1123:Middlewares/Third_Party/LwIP/src/core/tcp.c ****        be retransmitted). */
1124:Middlewares/Third_Party/LwIP/src/core/tcp.c **** #if TCP_QUEUE_OOSEQ
1125:Middlewares/Third_Party/LwIP/src/core/tcp.c ****     if (pcb->ooseq != NULL &&
1126:Middlewares/Third_Party/LwIP/src/core/tcp.c ****         (u32_t)tcp_ticks - pcb->tmr >= pcb->rto * TCP_OOSEQ_TIMEOUT) {
1127:Middlewares/Third_Party/LwIP/src/core/tcp.c ****       tcp_segs_free(pcb->ooseq);
1128:Middlewares/Third_Party/LwIP/src/core/tcp.c ****       pcb->ooseq = NULL;
1129:Middlewares/Third_Party/LwIP/src/core/tcp.c ****       LWIP_DEBUGF(TCP_CWND_DEBUG, ("tcp_slowtmr: dropping OOSEQ queued data\n"));
1130:Middlewares/Third_Party/LwIP/src/core/tcp.c ****     }
1131:Middlewares/Third_Party/LwIP/src/core/tcp.c **** #endif /* TCP_QUEUE_OOSEQ */
1132:Middlewares/Third_Party/LwIP/src/core/tcp.c **** 
1133:Middlewares/Third_Party/LwIP/src/core/tcp.c ****     /* Check if this PCB has stayed too long in SYN-RCVD */
1134:Middlewares/Third_Party/LwIP/src/core/tcp.c ****     if (pcb->state == SYN_RCVD) {
1135:Middlewares/Third_Party/LwIP/src/core/tcp.c ****       if ((u32_t)(tcp_ticks - pcb->tmr) >
1136:Middlewares/Third_Party/LwIP/src/core/tcp.c ****           TCP_SYN_RCVD_TIMEOUT / TCP_SLOW_INTERVAL) {
1137:Middlewares/Third_Party/LwIP/src/core/tcp.c ****         ++pcb_remove;
1138:Middlewares/Third_Party/LwIP/src/core/tcp.c ****         LWIP_DEBUGF(TCP_DEBUG, ("tcp_slowtmr: removing pcb stuck in SYN-RCVD\n"));
1139:Middlewares/Third_Party/LwIP/src/core/tcp.c ****       }
1140:Middlewares/Third_Party/LwIP/src/core/tcp.c ****     }
1141:Middlewares/Third_Party/LwIP/src/core/tcp.c **** 
1142:Middlewares/Third_Party/LwIP/src/core/tcp.c ****     /* Check if this PCB has stayed too long in LAST-ACK */
1143:Middlewares/Third_Party/LwIP/src/core/tcp.c ****     if (pcb->state == LAST_ACK) {
1144:Middlewares/Third_Party/LwIP/src/core/tcp.c ****       if ((u32_t)(tcp_ticks - pcb->tmr) > 2 * TCP_MSL / TCP_SLOW_INTERVAL) {
1145:Middlewares/Third_Party/LwIP/src/core/tcp.c ****         ++pcb_remove;
1146:Middlewares/Third_Party/LwIP/src/core/tcp.c ****         LWIP_DEBUGF(TCP_DEBUG, ("tcp_slowtmr: removing pcb stuck in LAST-ACK\n"));
1147:Middlewares/Third_Party/LwIP/src/core/tcp.c ****       }
1148:Middlewares/Third_Party/LwIP/src/core/tcp.c ****     }
1149:Middlewares/Third_Party/LwIP/src/core/tcp.c **** 
1150:Middlewares/Third_Party/LwIP/src/core/tcp.c ****     /* If the PCB should be removed, do it. */
1151:Middlewares/Third_Party/LwIP/src/core/tcp.c ****     if (pcb_remove) {
1152:Middlewares/Third_Party/LwIP/src/core/tcp.c ****       struct tcp_pcb *pcb2;
1153:Middlewares/Third_Party/LwIP/src/core/tcp.c **** #if LWIP_CALLBACK_API
1154:Middlewares/Third_Party/LwIP/src/core/tcp.c ****       tcp_err_fn err_fn = pcb->errf;
1155:Middlewares/Third_Party/LwIP/src/core/tcp.c **** #endif /* LWIP_CALLBACK_API */
1156:Middlewares/Third_Party/LwIP/src/core/tcp.c ****       void *err_arg;
1157:Middlewares/Third_Party/LwIP/src/core/tcp.c ****       enum tcp_state last_state;
1158:Middlewares/Third_Party/LwIP/src/core/tcp.c ****       tcp_pcb_purge(pcb);
1159:Middlewares/Third_Party/LwIP/src/core/tcp.c ****       /* Remove PCB from tcp_active_pcbs list. */
1160:Middlewares/Third_Party/LwIP/src/core/tcp.c ****       if (prev != NULL) {
1161:Middlewares/Third_Party/LwIP/src/core/tcp.c ****         LWIP_ASSERT("tcp_slowtmr: middle tcp != tcp_active_pcbs", pcb != tcp_active_pcbs);
1162:Middlewares/Third_Party/LwIP/src/core/tcp.c ****         prev->next = pcb->next;
1163:Middlewares/Third_Party/LwIP/src/core/tcp.c ****       } else {
1164:Middlewares/Third_Party/LwIP/src/core/tcp.c ****         /* This PCB was the first. */
1165:Middlewares/Third_Party/LwIP/src/core/tcp.c ****         LWIP_ASSERT("tcp_slowtmr: first pcb == tcp_active_pcbs", tcp_active_pcbs == pcb);
ARM GAS  C:\Users\Student\AppData\Local\Temp\cc0PPYfp.s 			page 41


1166:Middlewares/Third_Party/LwIP/src/core/tcp.c ****         tcp_active_pcbs = pcb->next;
1167:Middlewares/Third_Party/LwIP/src/core/tcp.c ****       }
1168:Middlewares/Third_Party/LwIP/src/core/tcp.c **** 
1169:Middlewares/Third_Party/LwIP/src/core/tcp.c ****       if (pcb_reset) {
1170:Middlewares/Third_Party/LwIP/src/core/tcp.c ****         tcp_rst(pcb->snd_nxt, pcb->rcv_nxt, &pcb->local_ip, &pcb->remote_ip,
1171:Middlewares/Third_Party/LwIP/src/core/tcp.c ****                  pcb->local_port, pcb->remote_port);
1172:Middlewares/Third_Party/LwIP/src/core/tcp.c ****       }
1173:Middlewares/Third_Party/LwIP/src/core/tcp.c **** 
1174:Middlewares/Third_Party/LwIP/src/core/tcp.c ****       err_arg = pcb->callback_arg;
1175:Middlewares/Third_Party/LwIP/src/core/tcp.c ****       last_state = pcb->state;
1176:Middlewares/Third_Party/LwIP/src/core/tcp.c ****       pcb2 = pcb;
1177:Middlewares/Third_Party/LwIP/src/core/tcp.c ****       pcb = pcb->next;
1178:Middlewares/Third_Party/LwIP/src/core/tcp.c ****       memp_free(MEMP_TCP_PCB, pcb2);
1179:Middlewares/Third_Party/LwIP/src/core/tcp.c **** 
1180:Middlewares/Third_Party/LwIP/src/core/tcp.c ****       tcp_active_pcbs_changed = 0;
1181:Middlewares/Third_Party/LwIP/src/core/tcp.c ****       TCP_EVENT_ERR(last_state, err_fn, err_arg, ERR_ABRT);
1182:Middlewares/Third_Party/LwIP/src/core/tcp.c ****       if (tcp_active_pcbs_changed) {
1183:Middlewares/Third_Party/LwIP/src/core/tcp.c ****         goto tcp_slowtmr_start;
1184:Middlewares/Third_Party/LwIP/src/core/tcp.c ****       }
1185:Middlewares/Third_Party/LwIP/src/core/tcp.c ****     } else {
1186:Middlewares/Third_Party/LwIP/src/core/tcp.c ****       /* get the 'next' element now and work with 'prev' below (in case of abort) */
1187:Middlewares/Third_Party/LwIP/src/core/tcp.c ****       prev = pcb;
1188:Middlewares/Third_Party/LwIP/src/core/tcp.c ****       pcb = pcb->next;
1189:Middlewares/Third_Party/LwIP/src/core/tcp.c **** 
1190:Middlewares/Third_Party/LwIP/src/core/tcp.c ****       /* We check if we should poll the connection. */
1191:Middlewares/Third_Party/LwIP/src/core/tcp.c ****       ++prev->polltmr;
1192:Middlewares/Third_Party/LwIP/src/core/tcp.c ****       if (prev->polltmr >= prev->pollinterval) {
1193:Middlewares/Third_Party/LwIP/src/core/tcp.c ****         prev->polltmr = 0;
1194:Middlewares/Third_Party/LwIP/src/core/tcp.c ****         LWIP_DEBUGF(TCP_DEBUG, ("tcp_slowtmr: polling application\n"));
1195:Middlewares/Third_Party/LwIP/src/core/tcp.c ****         tcp_active_pcbs_changed = 0;
1196:Middlewares/Third_Party/LwIP/src/core/tcp.c ****         TCP_EVENT_POLL(prev, err);
1197:Middlewares/Third_Party/LwIP/src/core/tcp.c ****         if (tcp_active_pcbs_changed) {
1198:Middlewares/Third_Party/LwIP/src/core/tcp.c ****           goto tcp_slowtmr_start;
1199:Middlewares/Third_Party/LwIP/src/core/tcp.c ****         }
1200:Middlewares/Third_Party/LwIP/src/core/tcp.c ****         /* if err == ERR_ABRT, 'prev' is already deallocated */
1201:Middlewares/Third_Party/LwIP/src/core/tcp.c ****         if (err == ERR_OK) {
1202:Middlewares/Third_Party/LwIP/src/core/tcp.c ****           tcp_output(prev);
1203:Middlewares/Third_Party/LwIP/src/core/tcp.c ****         }
1204:Middlewares/Third_Party/LwIP/src/core/tcp.c ****       }
1205:Middlewares/Third_Party/LwIP/src/core/tcp.c ****     }
1206:Middlewares/Third_Party/LwIP/src/core/tcp.c ****   }
1207:Middlewares/Third_Party/LwIP/src/core/tcp.c **** 
1208:Middlewares/Third_Party/LwIP/src/core/tcp.c **** 
1209:Middlewares/Third_Party/LwIP/src/core/tcp.c ****   /* Steps through all of the TIME-WAIT PCBs. */
1210:Middlewares/Third_Party/LwIP/src/core/tcp.c ****   prev = NULL;
1211:Middlewares/Third_Party/LwIP/src/core/tcp.c ****   pcb = tcp_tw_pcbs;
1212:Middlewares/Third_Party/LwIP/src/core/tcp.c ****   while (pcb != NULL) {
1213:Middlewares/Third_Party/LwIP/src/core/tcp.c ****     LWIP_ASSERT("tcp_slowtmr: TIME-WAIT pcb->state == TIME-WAIT", pcb->state == TIME_WAIT);
1214:Middlewares/Third_Party/LwIP/src/core/tcp.c ****     pcb_remove = 0;
1215:Middlewares/Third_Party/LwIP/src/core/tcp.c **** 
1216:Middlewares/Third_Party/LwIP/src/core/tcp.c ****     /* Check if this PCB has stayed long enough in TIME-WAIT */
1217:Middlewares/Third_Party/LwIP/src/core/tcp.c ****     if ((u32_t)(tcp_ticks - pcb->tmr) > 2 * TCP_MSL / TCP_SLOW_INTERVAL) {
1218:Middlewares/Third_Party/LwIP/src/core/tcp.c ****       ++pcb_remove;
1219:Middlewares/Third_Party/LwIP/src/core/tcp.c ****     }
1220:Middlewares/Third_Party/LwIP/src/core/tcp.c **** 
1221:Middlewares/Third_Party/LwIP/src/core/tcp.c ****     /* If the PCB should be removed, do it. */
1222:Middlewares/Third_Party/LwIP/src/core/tcp.c ****     if (pcb_remove) {
ARM GAS  C:\Users\Student\AppData\Local\Temp\cc0PPYfp.s 			page 42


1223:Middlewares/Third_Party/LwIP/src/core/tcp.c ****       struct tcp_pcb *pcb2;
1224:Middlewares/Third_Party/LwIP/src/core/tcp.c ****       tcp_pcb_purge(pcb);
1225:Middlewares/Third_Party/LwIP/src/core/tcp.c ****       /* Remove PCB from tcp_tw_pcbs list. */
1226:Middlewares/Third_Party/LwIP/src/core/tcp.c ****       if (prev != NULL) {
1227:Middlewares/Third_Party/LwIP/src/core/tcp.c ****         LWIP_ASSERT("tcp_slowtmr: middle tcp != tcp_tw_pcbs", pcb != tcp_tw_pcbs);
1228:Middlewares/Third_Party/LwIP/src/core/tcp.c ****         prev->next = pcb->next;
1229:Middlewares/Third_Party/LwIP/src/core/tcp.c ****       } else {
1230:Middlewares/Third_Party/LwIP/src/core/tcp.c ****         /* This PCB was the first. */
1231:Middlewares/Third_Party/LwIP/src/core/tcp.c ****         LWIP_ASSERT("tcp_slowtmr: first pcb == tcp_tw_pcbs", tcp_tw_pcbs == pcb);
1232:Middlewares/Third_Party/LwIP/src/core/tcp.c ****         tcp_tw_pcbs = pcb->next;
1233:Middlewares/Third_Party/LwIP/src/core/tcp.c ****       }
1234:Middlewares/Third_Party/LwIP/src/core/tcp.c ****       pcb2 = pcb;
1235:Middlewares/Third_Party/LwIP/src/core/tcp.c ****       pcb = pcb->next;
1236:Middlewares/Third_Party/LwIP/src/core/tcp.c ****       memp_free(MEMP_TCP_PCB, pcb2);
1237:Middlewares/Third_Party/LwIP/src/core/tcp.c ****     } else {
1238:Middlewares/Third_Party/LwIP/src/core/tcp.c ****       prev = pcb;
1239:Middlewares/Third_Party/LwIP/src/core/tcp.c ****       pcb = pcb->next;
1240:Middlewares/Third_Party/LwIP/src/core/tcp.c ****     }
1241:Middlewares/Third_Party/LwIP/src/core/tcp.c ****   }
1242:Middlewares/Third_Party/LwIP/src/core/tcp.c **** }
1243:Middlewares/Third_Party/LwIP/src/core/tcp.c **** 
1244:Middlewares/Third_Party/LwIP/src/core/tcp.c **** /**
1245:Middlewares/Third_Party/LwIP/src/core/tcp.c ****  * Is called every TCP_FAST_INTERVAL (250 ms) and process data previously
1246:Middlewares/Third_Party/LwIP/src/core/tcp.c ****  * "refused" by upper layer (application) and sends delayed ACKs.
1247:Middlewares/Third_Party/LwIP/src/core/tcp.c ****  *
1248:Middlewares/Third_Party/LwIP/src/core/tcp.c ****  * Automatically called from tcp_tmr().
1249:Middlewares/Third_Party/LwIP/src/core/tcp.c ****  */
1250:Middlewares/Third_Party/LwIP/src/core/tcp.c **** void
1251:Middlewares/Third_Party/LwIP/src/core/tcp.c **** tcp_fasttmr(void)
1252:Middlewares/Third_Party/LwIP/src/core/tcp.c **** {
1253:Middlewares/Third_Party/LwIP/src/core/tcp.c ****   struct tcp_pcb *pcb;
1254:Middlewares/Third_Party/LwIP/src/core/tcp.c **** 
1255:Middlewares/Third_Party/LwIP/src/core/tcp.c ****   ++tcp_timer_ctr;
1256:Middlewares/Third_Party/LwIP/src/core/tcp.c **** 
1257:Middlewares/Third_Party/LwIP/src/core/tcp.c **** tcp_fasttmr_start:
1258:Middlewares/Third_Party/LwIP/src/core/tcp.c ****   pcb = tcp_active_pcbs;
1259:Middlewares/Third_Party/LwIP/src/core/tcp.c **** 
1260:Middlewares/Third_Party/LwIP/src/core/tcp.c ****   while (pcb != NULL) {
1261:Middlewares/Third_Party/LwIP/src/core/tcp.c ****     if (pcb->last_timer != tcp_timer_ctr) {
1262:Middlewares/Third_Party/LwIP/src/core/tcp.c ****       struct tcp_pcb *next;
1263:Middlewares/Third_Party/LwIP/src/core/tcp.c ****       pcb->last_timer = tcp_timer_ctr;
1264:Middlewares/Third_Party/LwIP/src/core/tcp.c ****       /* send delayed ACKs */
1265:Middlewares/Third_Party/LwIP/src/core/tcp.c ****       if (pcb->flags & TF_ACK_DELAY) {
1266:Middlewares/Third_Party/LwIP/src/core/tcp.c ****         LWIP_DEBUGF(TCP_DEBUG, ("tcp_fasttmr: delayed ACK\n"));
1267:Middlewares/Third_Party/LwIP/src/core/tcp.c ****         tcp_ack_now(pcb);
1268:Middlewares/Third_Party/LwIP/src/core/tcp.c ****         tcp_output(pcb);
1269:Middlewares/Third_Party/LwIP/src/core/tcp.c ****         pcb->flags &= ~(TF_ACK_DELAY | TF_ACK_NOW);
1270:Middlewares/Third_Party/LwIP/src/core/tcp.c ****       }
1271:Middlewares/Third_Party/LwIP/src/core/tcp.c ****       /* send pending FIN */
1272:Middlewares/Third_Party/LwIP/src/core/tcp.c ****       if (pcb->flags & TF_CLOSEPEND) {
1273:Middlewares/Third_Party/LwIP/src/core/tcp.c ****         LWIP_DEBUGF(TCP_DEBUG, ("tcp_fasttmr: pending FIN\n"));
1274:Middlewares/Third_Party/LwIP/src/core/tcp.c ****         pcb->flags &= ~(TF_CLOSEPEND);
1275:Middlewares/Third_Party/LwIP/src/core/tcp.c ****         tcp_close_shutdown_fin(pcb);
1276:Middlewares/Third_Party/LwIP/src/core/tcp.c ****       }
1277:Middlewares/Third_Party/LwIP/src/core/tcp.c **** 
1278:Middlewares/Third_Party/LwIP/src/core/tcp.c ****       next = pcb->next;
1279:Middlewares/Third_Party/LwIP/src/core/tcp.c **** 
ARM GAS  C:\Users\Student\AppData\Local\Temp\cc0PPYfp.s 			page 43


1280:Middlewares/Third_Party/LwIP/src/core/tcp.c ****       /* If there is data which was previously "refused" by upper layer */
1281:Middlewares/Third_Party/LwIP/src/core/tcp.c ****       if (pcb->refused_data != NULL) {
1282:Middlewares/Third_Party/LwIP/src/core/tcp.c ****         tcp_active_pcbs_changed = 0;
1283:Middlewares/Third_Party/LwIP/src/core/tcp.c ****         tcp_process_refused_data(pcb);
1284:Middlewares/Third_Party/LwIP/src/core/tcp.c ****         if (tcp_active_pcbs_changed) {
1285:Middlewares/Third_Party/LwIP/src/core/tcp.c ****           /* application callback has changed the pcb list: restart the loop */
1286:Middlewares/Third_Party/LwIP/src/core/tcp.c ****           goto tcp_fasttmr_start;
1287:Middlewares/Third_Party/LwIP/src/core/tcp.c ****         }
1288:Middlewares/Third_Party/LwIP/src/core/tcp.c ****       }
1289:Middlewares/Third_Party/LwIP/src/core/tcp.c ****       pcb = next;
1290:Middlewares/Third_Party/LwIP/src/core/tcp.c ****     } else {
1291:Middlewares/Third_Party/LwIP/src/core/tcp.c ****       pcb = pcb->next;
1292:Middlewares/Third_Party/LwIP/src/core/tcp.c ****     }
1293:Middlewares/Third_Party/LwIP/src/core/tcp.c ****   }
1294:Middlewares/Third_Party/LwIP/src/core/tcp.c **** }
1295:Middlewares/Third_Party/LwIP/src/core/tcp.c **** 
1296:Middlewares/Third_Party/LwIP/src/core/tcp.c **** /** Call tcp_output for all active pcbs that have TF_NAGLEMEMERR set */
1297:Middlewares/Third_Party/LwIP/src/core/tcp.c **** void
1298:Middlewares/Third_Party/LwIP/src/core/tcp.c **** tcp_txnow(void)
1299:Middlewares/Third_Party/LwIP/src/core/tcp.c **** {
 998              		.loc 1 1299 0
 999              		.cfi_startproc
 1000              		@ args = 0, pretend = 0, frame = 0
 1001              		@ frame_needed = 0, uses_anonymous_args = 0
 1002 0000 10B5     		push	{r4, lr}
 1003              	.LCFI10:
 1004              		.cfi_def_cfa_offset 8
 1005              		.cfi_offset 4, -8
 1006              		.cfi_offset 14, -4
1300:Middlewares/Third_Party/LwIP/src/core/tcp.c ****   struct tcp_pcb *pcb;
1301:Middlewares/Third_Party/LwIP/src/core/tcp.c **** 
1302:Middlewares/Third_Party/LwIP/src/core/tcp.c ****   for (pcb = tcp_active_pcbs; pcb != NULL; pcb = pcb->next) {
 1007              		.loc 1 1302 0
 1008 0002 074B     		ldr	r3, .L126
 1009 0004 1C68     		ldr	r4, [r3]
 1010              	.LVL120:
 1011 0006 00E0     		b	.L121
 1012              	.L122:
 1013              		.loc 1 1302 0 is_stmt 0 discriminator 2
 1014 0008 E468     		ldr	r4, [r4, #12]
 1015              	.LVL121:
 1016              	.L121:
 1017              		.loc 1 1302 0 discriminator 1
 1018 000a 3CB1     		cbz	r4, .L125
1303:Middlewares/Third_Party/LwIP/src/core/tcp.c ****     if (pcb->flags & TF_NAGLEMEMERR) {
 1019              		.loc 1 1303 0 is_stmt 1
 1020 000c 94F91A30 		ldrsb	r3, [r4, #26]
 1021 0010 002B     		cmp	r3, #0
 1022 0012 F9DA     		bge	.L122
1304:Middlewares/Third_Party/LwIP/src/core/tcp.c ****       tcp_output(pcb);
 1023              		.loc 1 1304 0
 1024 0014 2046     		mov	r0, r4
 1025 0016 FFF7FEFF 		bl	tcp_output
 1026              	.LVL122:
 1027 001a F5E7     		b	.L122
 1028              	.L125:
1305:Middlewares/Third_Party/LwIP/src/core/tcp.c ****     }
ARM GAS  C:\Users\Student\AppData\Local\Temp\cc0PPYfp.s 			page 44


1306:Middlewares/Third_Party/LwIP/src/core/tcp.c ****   }
1307:Middlewares/Third_Party/LwIP/src/core/tcp.c **** }
 1029              		.loc 1 1307 0
 1030 001c 10BD     		pop	{r4, pc}
 1031              	.LVL123:
 1032              	.L127:
 1033 001e 00BF     		.align	2
 1034              	.L126:
 1035 0020 00000000 		.word	tcp_active_pcbs
 1036              		.cfi_endproc
 1037              	.LFE172:
 1039              		.section	.text.tcp_seg_free,"ax",%progbits
 1040              		.align	1
 1041              		.global	tcp_seg_free
 1042              		.syntax unified
 1043              		.thumb
 1044              		.thumb_func
 1045              		.fpu fpv5-sp-d16
 1047              	tcp_seg_free:
 1048              	.LFB175:
1308:Middlewares/Third_Party/LwIP/src/core/tcp.c **** 
1309:Middlewares/Third_Party/LwIP/src/core/tcp.c **** /** Pass pcb->refused_data to the recv callback */
1310:Middlewares/Third_Party/LwIP/src/core/tcp.c **** err_t
1311:Middlewares/Third_Party/LwIP/src/core/tcp.c **** tcp_process_refused_data(struct tcp_pcb *pcb)
1312:Middlewares/Third_Party/LwIP/src/core/tcp.c **** {
1313:Middlewares/Third_Party/LwIP/src/core/tcp.c **** #if TCP_QUEUE_OOSEQ && LWIP_WND_SCALE
1314:Middlewares/Third_Party/LwIP/src/core/tcp.c ****   struct pbuf *rest;
1315:Middlewares/Third_Party/LwIP/src/core/tcp.c ****   while (pcb->refused_data != NULL)
1316:Middlewares/Third_Party/LwIP/src/core/tcp.c **** #endif /* TCP_QUEUE_OOSEQ && LWIP_WND_SCALE */
1317:Middlewares/Third_Party/LwIP/src/core/tcp.c ****   {
1318:Middlewares/Third_Party/LwIP/src/core/tcp.c ****     err_t err;
1319:Middlewares/Third_Party/LwIP/src/core/tcp.c ****     u8_t refused_flags = pcb->refused_data->flags;
1320:Middlewares/Third_Party/LwIP/src/core/tcp.c ****     /* set pcb->refused_data to NULL in case the callback frees it and then
1321:Middlewares/Third_Party/LwIP/src/core/tcp.c ****        closes the pcb */
1322:Middlewares/Third_Party/LwIP/src/core/tcp.c ****     struct pbuf *refused_data = pcb->refused_data;
1323:Middlewares/Third_Party/LwIP/src/core/tcp.c **** #if TCP_QUEUE_OOSEQ && LWIP_WND_SCALE
1324:Middlewares/Third_Party/LwIP/src/core/tcp.c ****     pbuf_split_64k(refused_data, &rest);
1325:Middlewares/Third_Party/LwIP/src/core/tcp.c ****     pcb->refused_data = rest;
1326:Middlewares/Third_Party/LwIP/src/core/tcp.c **** #else /* TCP_QUEUE_OOSEQ && LWIP_WND_SCALE */
1327:Middlewares/Third_Party/LwIP/src/core/tcp.c ****     pcb->refused_data = NULL;
1328:Middlewares/Third_Party/LwIP/src/core/tcp.c **** #endif /* TCP_QUEUE_OOSEQ && LWIP_WND_SCALE */
1329:Middlewares/Third_Party/LwIP/src/core/tcp.c ****     /* Notify again application with data previously received. */
1330:Middlewares/Third_Party/LwIP/src/core/tcp.c ****     LWIP_DEBUGF(TCP_INPUT_DEBUG, ("tcp_input: notify kept packet\n"));
1331:Middlewares/Third_Party/LwIP/src/core/tcp.c ****     TCP_EVENT_RECV(pcb, refused_data, ERR_OK, err);
1332:Middlewares/Third_Party/LwIP/src/core/tcp.c ****     if (err == ERR_OK) {
1333:Middlewares/Third_Party/LwIP/src/core/tcp.c ****       /* did refused_data include a FIN? */
1334:Middlewares/Third_Party/LwIP/src/core/tcp.c ****       if (refused_flags & PBUF_FLAG_TCP_FIN
1335:Middlewares/Third_Party/LwIP/src/core/tcp.c **** #if TCP_QUEUE_OOSEQ && LWIP_WND_SCALE
1336:Middlewares/Third_Party/LwIP/src/core/tcp.c ****           && (rest == NULL)
1337:Middlewares/Third_Party/LwIP/src/core/tcp.c **** #endif /* TCP_QUEUE_OOSEQ && LWIP_WND_SCALE */
1338:Middlewares/Third_Party/LwIP/src/core/tcp.c ****          ) {
1339:Middlewares/Third_Party/LwIP/src/core/tcp.c ****         /* correct rcv_wnd as the application won't call tcp_recved()
1340:Middlewares/Third_Party/LwIP/src/core/tcp.c ****            for the FIN's seqno */
1341:Middlewares/Third_Party/LwIP/src/core/tcp.c ****         if (pcb->rcv_wnd != TCP_WND_MAX(pcb)) {
1342:Middlewares/Third_Party/LwIP/src/core/tcp.c ****           pcb->rcv_wnd++;
1343:Middlewares/Third_Party/LwIP/src/core/tcp.c ****         }
1344:Middlewares/Third_Party/LwIP/src/core/tcp.c ****         TCP_EVENT_CLOSED(pcb, err);
ARM GAS  C:\Users\Student\AppData\Local\Temp\cc0PPYfp.s 			page 45


1345:Middlewares/Third_Party/LwIP/src/core/tcp.c ****         if (err == ERR_ABRT) {
1346:Middlewares/Third_Party/LwIP/src/core/tcp.c ****           return ERR_ABRT;
1347:Middlewares/Third_Party/LwIP/src/core/tcp.c ****         }
1348:Middlewares/Third_Party/LwIP/src/core/tcp.c ****       }
1349:Middlewares/Third_Party/LwIP/src/core/tcp.c ****     } else if (err == ERR_ABRT) {
1350:Middlewares/Third_Party/LwIP/src/core/tcp.c ****       /* if err == ERR_ABRT, 'pcb' is already deallocated */
1351:Middlewares/Third_Party/LwIP/src/core/tcp.c ****       /* Drop incoming packets because pcb is "full" (only if the incoming
1352:Middlewares/Third_Party/LwIP/src/core/tcp.c ****          segment contains data). */
1353:Middlewares/Third_Party/LwIP/src/core/tcp.c ****       LWIP_DEBUGF(TCP_INPUT_DEBUG, ("tcp_input: drop incoming packets, because pcb is \"full\"\n"))
1354:Middlewares/Third_Party/LwIP/src/core/tcp.c ****       return ERR_ABRT;
1355:Middlewares/Third_Party/LwIP/src/core/tcp.c ****     } else {
1356:Middlewares/Third_Party/LwIP/src/core/tcp.c ****       /* data is still refused, pbuf is still valid (go on for ACK-only packets) */
1357:Middlewares/Third_Party/LwIP/src/core/tcp.c **** #if TCP_QUEUE_OOSEQ && LWIP_WND_SCALE
1358:Middlewares/Third_Party/LwIP/src/core/tcp.c ****       if (rest != NULL) {
1359:Middlewares/Third_Party/LwIP/src/core/tcp.c ****         pbuf_cat(refused_data, rest);
1360:Middlewares/Third_Party/LwIP/src/core/tcp.c ****       }
1361:Middlewares/Third_Party/LwIP/src/core/tcp.c **** #endif /* TCP_QUEUE_OOSEQ && LWIP_WND_SCALE */
1362:Middlewares/Third_Party/LwIP/src/core/tcp.c ****       pcb->refused_data = refused_data;
1363:Middlewares/Third_Party/LwIP/src/core/tcp.c ****       return ERR_INPROGRESS;
1364:Middlewares/Third_Party/LwIP/src/core/tcp.c ****     }
1365:Middlewares/Third_Party/LwIP/src/core/tcp.c ****   }
1366:Middlewares/Third_Party/LwIP/src/core/tcp.c ****   return ERR_OK;
1367:Middlewares/Third_Party/LwIP/src/core/tcp.c **** }
1368:Middlewares/Third_Party/LwIP/src/core/tcp.c **** 
1369:Middlewares/Third_Party/LwIP/src/core/tcp.c **** /**
1370:Middlewares/Third_Party/LwIP/src/core/tcp.c ****  * Deallocates a list of TCP segments (tcp_seg structures).
1371:Middlewares/Third_Party/LwIP/src/core/tcp.c ****  *
1372:Middlewares/Third_Party/LwIP/src/core/tcp.c ****  * @param seg tcp_seg list of TCP segments to free
1373:Middlewares/Third_Party/LwIP/src/core/tcp.c ****  */
1374:Middlewares/Third_Party/LwIP/src/core/tcp.c **** void
1375:Middlewares/Third_Party/LwIP/src/core/tcp.c **** tcp_segs_free(struct tcp_seg *seg)
1376:Middlewares/Third_Party/LwIP/src/core/tcp.c **** {
1377:Middlewares/Third_Party/LwIP/src/core/tcp.c ****   while (seg != NULL) {
1378:Middlewares/Third_Party/LwIP/src/core/tcp.c ****     struct tcp_seg *next = seg->next;
1379:Middlewares/Third_Party/LwIP/src/core/tcp.c ****     tcp_seg_free(seg);
1380:Middlewares/Third_Party/LwIP/src/core/tcp.c ****     seg = next;
1381:Middlewares/Third_Party/LwIP/src/core/tcp.c ****   }
1382:Middlewares/Third_Party/LwIP/src/core/tcp.c **** }
1383:Middlewares/Third_Party/LwIP/src/core/tcp.c **** 
1384:Middlewares/Third_Party/LwIP/src/core/tcp.c **** /**
1385:Middlewares/Third_Party/LwIP/src/core/tcp.c ****  * Frees a TCP segment (tcp_seg structure).
1386:Middlewares/Third_Party/LwIP/src/core/tcp.c ****  *
1387:Middlewares/Third_Party/LwIP/src/core/tcp.c ****  * @param seg single tcp_seg to free
1388:Middlewares/Third_Party/LwIP/src/core/tcp.c ****  */
1389:Middlewares/Third_Party/LwIP/src/core/tcp.c **** void
1390:Middlewares/Third_Party/LwIP/src/core/tcp.c **** tcp_seg_free(struct tcp_seg *seg)
1391:Middlewares/Third_Party/LwIP/src/core/tcp.c **** {
 1049              		.loc 1 1391 0
 1050              		.cfi_startproc
 1051              		@ args = 0, pretend = 0, frame = 0
 1052              		@ frame_needed = 0, uses_anonymous_args = 0
 1053              	.LVL124:
1392:Middlewares/Third_Party/LwIP/src/core/tcp.c ****   if (seg != NULL) {
 1054              		.loc 1 1392 0
 1055 0000 50B1     		cbz	r0, .L132
1391:Middlewares/Third_Party/LwIP/src/core/tcp.c ****   if (seg != NULL) {
 1056              		.loc 1 1391 0
ARM GAS  C:\Users\Student\AppData\Local\Temp\cc0PPYfp.s 			page 46


 1057 0002 10B5     		push	{r4, lr}
 1058              	.LCFI11:
 1059              		.cfi_def_cfa_offset 8
 1060              		.cfi_offset 4, -8
 1061              		.cfi_offset 14, -4
 1062 0004 0446     		mov	r4, r0
1393:Middlewares/Third_Party/LwIP/src/core/tcp.c ****     if (seg->p != NULL) {
 1063              		.loc 1 1393 0
 1064 0006 4068     		ldr	r0, [r0, #4]
 1065              	.LVL125:
 1066 0008 08B1     		cbz	r0, .L130
1394:Middlewares/Third_Party/LwIP/src/core/tcp.c ****       pbuf_free(seg->p);
 1067              		.loc 1 1394 0
 1068 000a FFF7FEFF 		bl	pbuf_free
 1069              	.LVL126:
 1070              	.L130:
1395:Middlewares/Third_Party/LwIP/src/core/tcp.c **** #if TCP_DEBUG
1396:Middlewares/Third_Party/LwIP/src/core/tcp.c ****       seg->p = NULL;
1397:Middlewares/Third_Party/LwIP/src/core/tcp.c **** #endif /* TCP_DEBUG */
1398:Middlewares/Third_Party/LwIP/src/core/tcp.c ****     }
1399:Middlewares/Third_Party/LwIP/src/core/tcp.c ****     memp_free(MEMP_TCP_SEG, seg);
 1071              		.loc 1 1399 0
 1072 000e 2146     		mov	r1, r4
 1073 0010 0320     		movs	r0, #3
 1074 0012 FFF7FEFF 		bl	memp_free
 1075              	.LVL127:
 1076 0016 10BD     		pop	{r4, pc}
 1077              	.LVL128:
 1078              	.L132:
 1079              	.LCFI12:
 1080              		.cfi_def_cfa_offset 0
 1081              		.cfi_restore 4
 1082              		.cfi_restore 14
 1083 0018 7047     		bx	lr
 1084              		.cfi_endproc
 1085              	.LFE175:
 1087              		.section	.text.tcp_segs_free,"ax",%progbits
 1088              		.align	1
 1089              		.global	tcp_segs_free
 1090              		.syntax unified
 1091              		.thumb
 1092              		.thumb_func
 1093              		.fpu fpv5-sp-d16
 1095              	tcp_segs_free:
 1096              	.LFB174:
1376:Middlewares/Third_Party/LwIP/src/core/tcp.c ****   while (seg != NULL) {
 1097              		.loc 1 1376 0
 1098              		.cfi_startproc
 1099              		@ args = 0, pretend = 0, frame = 0
 1100              		@ frame_needed = 0, uses_anonymous_args = 0
 1101              	.LVL129:
1377:Middlewares/Third_Party/LwIP/src/core/tcp.c ****     struct tcp_seg *next = seg->next;
 1102              		.loc 1 1377 0
 1103 0000 38B1     		cbz	r0, .L141
1376:Middlewares/Third_Party/LwIP/src/core/tcp.c ****   while (seg != NULL) {
 1104              		.loc 1 1376 0
 1105 0002 10B5     		push	{r4, lr}
ARM GAS  C:\Users\Student\AppData\Local\Temp\cc0PPYfp.s 			page 47


 1106              	.LCFI13:
 1107              		.cfi_def_cfa_offset 8
 1108              		.cfi_offset 4, -8
 1109              		.cfi_offset 14, -4
 1110              	.L137:
 1111              	.LBB6:
1378:Middlewares/Third_Party/LwIP/src/core/tcp.c ****     tcp_seg_free(seg);
 1112              		.loc 1 1378 0
 1113 0004 0468     		ldr	r4, [r0]
 1114              	.LVL130:
1379:Middlewares/Third_Party/LwIP/src/core/tcp.c ****     seg = next;
 1115              		.loc 1 1379 0
 1116 0006 FFF7FEFF 		bl	tcp_seg_free
 1117              	.LVL131:
1380:Middlewares/Third_Party/LwIP/src/core/tcp.c ****   }
 1118              		.loc 1 1380 0
 1119 000a 2046     		mov	r0, r4
 1120              	.LBE6:
1377:Middlewares/Third_Party/LwIP/src/core/tcp.c ****     struct tcp_seg *next = seg->next;
 1121              		.loc 1 1377 0
 1122 000c 002C     		cmp	r4, #0
 1123 000e F9D1     		bne	.L137
1382:Middlewares/Third_Party/LwIP/src/core/tcp.c **** 
 1124              		.loc 1 1382 0
 1125 0010 10BD     		pop	{r4, pc}
 1126              	.LVL132:
 1127              	.L141:
 1128              	.LCFI14:
 1129              		.cfi_def_cfa_offset 0
 1130              		.cfi_restore 4
 1131              		.cfi_restore 14
 1132 0012 7047     		bx	lr
 1133              		.cfi_endproc
 1134              	.LFE174:
 1136              		.section	.text.tcp_setprio,"ax",%progbits
 1137              		.align	1
 1138              		.global	tcp_setprio
 1139              		.syntax unified
 1140              		.thumb
 1141              		.thumb_func
 1142              		.fpu fpv5-sp-d16
 1144              	tcp_setprio:
 1145              	.LFB176:
1400:Middlewares/Third_Party/LwIP/src/core/tcp.c ****   }
1401:Middlewares/Third_Party/LwIP/src/core/tcp.c **** }
1402:Middlewares/Third_Party/LwIP/src/core/tcp.c **** 
1403:Middlewares/Third_Party/LwIP/src/core/tcp.c **** /**
1404:Middlewares/Third_Party/LwIP/src/core/tcp.c ****  * Sets the priority of a connection.
1405:Middlewares/Third_Party/LwIP/src/core/tcp.c ****  *
1406:Middlewares/Third_Party/LwIP/src/core/tcp.c ****  * @param pcb the tcp_pcb to manipulate
1407:Middlewares/Third_Party/LwIP/src/core/tcp.c ****  * @param prio new priority
1408:Middlewares/Third_Party/LwIP/src/core/tcp.c ****  */
1409:Middlewares/Third_Party/LwIP/src/core/tcp.c **** void
1410:Middlewares/Third_Party/LwIP/src/core/tcp.c **** tcp_setprio(struct tcp_pcb *pcb, u8_t prio)
1411:Middlewares/Third_Party/LwIP/src/core/tcp.c **** {
 1146              		.loc 1 1411 0
 1147              		.cfi_startproc
ARM GAS  C:\Users\Student\AppData\Local\Temp\cc0PPYfp.s 			page 48


 1148              		@ args = 0, pretend = 0, frame = 0
 1149              		@ frame_needed = 0, uses_anonymous_args = 0
 1150              		@ link register save eliminated.
 1151              	.LVL133:
1412:Middlewares/Third_Party/LwIP/src/core/tcp.c ****   pcb->prio = prio;
 1152              		.loc 1 1412 0
 1153 0000 4175     		strb	r1, [r0, #21]
 1154 0002 7047     		bx	lr
 1155              		.cfi_endproc
 1156              	.LFE176:
 1158              		.section	.text.tcp_seg_copy,"ax",%progbits
 1159              		.align	1
 1160              		.global	tcp_seg_copy
 1161              		.syntax unified
 1162              		.thumb
 1163              		.thumb_func
 1164              		.fpu fpv5-sp-d16
 1166              	tcp_seg_copy:
 1167              	.LFB177:
1413:Middlewares/Third_Party/LwIP/src/core/tcp.c **** }
1414:Middlewares/Third_Party/LwIP/src/core/tcp.c **** 
1415:Middlewares/Third_Party/LwIP/src/core/tcp.c **** #if TCP_QUEUE_OOSEQ
1416:Middlewares/Third_Party/LwIP/src/core/tcp.c **** /**
1417:Middlewares/Third_Party/LwIP/src/core/tcp.c ****  * Returns a copy of the given TCP segment.
1418:Middlewares/Third_Party/LwIP/src/core/tcp.c ****  * The pbuf and data are not copied, only the pointers
1419:Middlewares/Third_Party/LwIP/src/core/tcp.c ****  *
1420:Middlewares/Third_Party/LwIP/src/core/tcp.c ****  * @param seg the old tcp_seg
1421:Middlewares/Third_Party/LwIP/src/core/tcp.c ****  * @return a copy of seg
1422:Middlewares/Third_Party/LwIP/src/core/tcp.c ****  */
1423:Middlewares/Third_Party/LwIP/src/core/tcp.c **** struct tcp_seg *
1424:Middlewares/Third_Party/LwIP/src/core/tcp.c **** tcp_seg_copy(struct tcp_seg *seg)
1425:Middlewares/Third_Party/LwIP/src/core/tcp.c **** {
 1168              		.loc 1 1425 0
 1169              		.cfi_startproc
 1170              		@ args = 0, pretend = 0, frame = 0
 1171              		@ frame_needed = 0, uses_anonymous_args = 0
 1172              	.LVL134:
 1173 0000 38B5     		push	{r3, r4, r5, lr}
 1174              	.LCFI15:
 1175              		.cfi_def_cfa_offset 16
 1176              		.cfi_offset 3, -16
 1177              		.cfi_offset 4, -12
 1178              		.cfi_offset 5, -8
 1179              		.cfi_offset 14, -4
 1180 0002 0546     		mov	r5, r0
1426:Middlewares/Third_Party/LwIP/src/core/tcp.c ****   struct tcp_seg *cseg;
1427:Middlewares/Third_Party/LwIP/src/core/tcp.c **** 
1428:Middlewares/Third_Party/LwIP/src/core/tcp.c ****   cseg = (struct tcp_seg *)memp_malloc(MEMP_TCP_SEG);
 1181              		.loc 1 1428 0
 1182 0004 0320     		movs	r0, #3
 1183              	.LVL135:
 1184 0006 FFF7FEFF 		bl	memp_malloc
 1185              	.LVL136:
1429:Middlewares/Third_Party/LwIP/src/core/tcp.c ****   if (cseg == NULL) {
 1186              		.loc 1 1429 0
 1187 000a 0446     		mov	r4, r0
 1188 000c 50B1     		cbz	r0, .L143
ARM GAS  C:\Users\Student\AppData\Local\Temp\cc0PPYfp.s 			page 49


1430:Middlewares/Third_Party/LwIP/src/core/tcp.c ****     return NULL;
1431:Middlewares/Third_Party/LwIP/src/core/tcp.c ****   }
1432:Middlewares/Third_Party/LwIP/src/core/tcp.c ****   SMEMCPY((u8_t *)cseg, (const u8_t *)seg, sizeof(struct tcp_seg));
 1189              		.loc 1 1432 0
 1190 000e 2868     		ldr	r0, [r5]	@ unaligned
 1191              	.LVL137:
 1192 0010 6968     		ldr	r1, [r5, #4]	@ unaligned
 1193 0012 AA68     		ldr	r2, [r5, #8]	@ unaligned
 1194 0014 EB68     		ldr	r3, [r5, #12]	@ unaligned
 1195 0016 2060     		str	r0, [r4]	@ unaligned
 1196 0018 6160     		str	r1, [r4, #4]	@ unaligned
 1197 001a A260     		str	r2, [r4, #8]	@ unaligned
 1198 001c E360     		str	r3, [r4, #12]	@ unaligned
1433:Middlewares/Third_Party/LwIP/src/core/tcp.c ****   pbuf_ref(cseg->p);
 1199              		.loc 1 1433 0
 1200 001e 6068     		ldr	r0, [r4, #4]
 1201 0020 FFF7FEFF 		bl	pbuf_ref
 1202              	.LVL138:
 1203              	.L143:
1434:Middlewares/Third_Party/LwIP/src/core/tcp.c ****   return cseg;
1435:Middlewares/Third_Party/LwIP/src/core/tcp.c **** }
 1204              		.loc 1 1435 0
 1205 0024 2046     		mov	r0, r4
 1206 0026 38BD     		pop	{r3, r4, r5, pc}
 1207              		.cfi_endproc
 1208              	.LFE177:
 1210              		.section	.text.tcp_arg,"ax",%progbits
 1211              		.align	1
 1212              		.global	tcp_arg
 1213              		.syntax unified
 1214              		.thumb
 1215              		.thumb_func
 1216              		.fpu fpv5-sp-d16
 1218              	tcp_arg:
 1219              	.LFB185:
1436:Middlewares/Third_Party/LwIP/src/core/tcp.c **** #endif /* TCP_QUEUE_OOSEQ */
1437:Middlewares/Third_Party/LwIP/src/core/tcp.c **** 
1438:Middlewares/Third_Party/LwIP/src/core/tcp.c **** #if LWIP_CALLBACK_API
1439:Middlewares/Third_Party/LwIP/src/core/tcp.c **** /**
1440:Middlewares/Third_Party/LwIP/src/core/tcp.c ****  * Default receive callback that is called if the user didn't register
1441:Middlewares/Third_Party/LwIP/src/core/tcp.c ****  * a recv callback for the pcb.
1442:Middlewares/Third_Party/LwIP/src/core/tcp.c ****  */
1443:Middlewares/Third_Party/LwIP/src/core/tcp.c **** err_t
1444:Middlewares/Third_Party/LwIP/src/core/tcp.c **** tcp_recv_null(void *arg, struct tcp_pcb *pcb, struct pbuf *p, err_t err)
1445:Middlewares/Third_Party/LwIP/src/core/tcp.c **** {
1446:Middlewares/Third_Party/LwIP/src/core/tcp.c ****   LWIP_UNUSED_ARG(arg);
1447:Middlewares/Third_Party/LwIP/src/core/tcp.c ****   if (p != NULL) {
1448:Middlewares/Third_Party/LwIP/src/core/tcp.c ****     tcp_recved(pcb, p->tot_len);
1449:Middlewares/Third_Party/LwIP/src/core/tcp.c ****     pbuf_free(p);
1450:Middlewares/Third_Party/LwIP/src/core/tcp.c ****   } else if (err == ERR_OK) {
1451:Middlewares/Third_Party/LwIP/src/core/tcp.c ****     return tcp_close(pcb);
1452:Middlewares/Third_Party/LwIP/src/core/tcp.c ****   }
1453:Middlewares/Third_Party/LwIP/src/core/tcp.c ****   return ERR_OK;
1454:Middlewares/Third_Party/LwIP/src/core/tcp.c **** }
1455:Middlewares/Third_Party/LwIP/src/core/tcp.c **** #endif /* LWIP_CALLBACK_API */
1456:Middlewares/Third_Party/LwIP/src/core/tcp.c **** 
1457:Middlewares/Third_Party/LwIP/src/core/tcp.c **** /**
ARM GAS  C:\Users\Student\AppData\Local\Temp\cc0PPYfp.s 			page 50


1458:Middlewares/Third_Party/LwIP/src/core/tcp.c ****  * Kills the oldest active connection that has the same or lower priority than
1459:Middlewares/Third_Party/LwIP/src/core/tcp.c ****  * 'prio'.
1460:Middlewares/Third_Party/LwIP/src/core/tcp.c ****  *
1461:Middlewares/Third_Party/LwIP/src/core/tcp.c ****  * @param prio minimum priority
1462:Middlewares/Third_Party/LwIP/src/core/tcp.c ****  */
1463:Middlewares/Third_Party/LwIP/src/core/tcp.c **** static void
1464:Middlewares/Third_Party/LwIP/src/core/tcp.c **** tcp_kill_prio(u8_t prio)
1465:Middlewares/Third_Party/LwIP/src/core/tcp.c **** {
1466:Middlewares/Third_Party/LwIP/src/core/tcp.c ****   struct tcp_pcb *pcb, *inactive;
1467:Middlewares/Third_Party/LwIP/src/core/tcp.c ****   u32_t inactivity;
1468:Middlewares/Third_Party/LwIP/src/core/tcp.c ****   u8_t mprio;
1469:Middlewares/Third_Party/LwIP/src/core/tcp.c **** 
1470:Middlewares/Third_Party/LwIP/src/core/tcp.c ****   mprio = LWIP_MIN(TCP_PRIO_MAX, prio);
1471:Middlewares/Third_Party/LwIP/src/core/tcp.c **** 
1472:Middlewares/Third_Party/LwIP/src/core/tcp.c ****   /* We kill the oldest active connection that has lower priority than prio. */
1473:Middlewares/Third_Party/LwIP/src/core/tcp.c ****   inactivity = 0;
1474:Middlewares/Third_Party/LwIP/src/core/tcp.c ****   inactive = NULL;
1475:Middlewares/Third_Party/LwIP/src/core/tcp.c ****   for (pcb = tcp_active_pcbs; pcb != NULL; pcb = pcb->next) {
1476:Middlewares/Third_Party/LwIP/src/core/tcp.c ****     if (pcb->prio <= mprio &&
1477:Middlewares/Third_Party/LwIP/src/core/tcp.c ****        (u32_t)(tcp_ticks - pcb->tmr) >= inactivity) {
1478:Middlewares/Third_Party/LwIP/src/core/tcp.c ****       inactivity = tcp_ticks - pcb->tmr;
1479:Middlewares/Third_Party/LwIP/src/core/tcp.c ****       inactive = pcb;
1480:Middlewares/Third_Party/LwIP/src/core/tcp.c ****       mprio = pcb->prio;
1481:Middlewares/Third_Party/LwIP/src/core/tcp.c ****     }
1482:Middlewares/Third_Party/LwIP/src/core/tcp.c ****   }
1483:Middlewares/Third_Party/LwIP/src/core/tcp.c ****   if (inactive != NULL) {
1484:Middlewares/Third_Party/LwIP/src/core/tcp.c ****     LWIP_DEBUGF(TCP_DEBUG, ("tcp_kill_prio: killing oldest PCB %p (%"S32_F")\n",
1485:Middlewares/Third_Party/LwIP/src/core/tcp.c ****            (void *)inactive, inactivity));
1486:Middlewares/Third_Party/LwIP/src/core/tcp.c ****     tcp_abort(inactive);
1487:Middlewares/Third_Party/LwIP/src/core/tcp.c ****   }
1488:Middlewares/Third_Party/LwIP/src/core/tcp.c **** }
1489:Middlewares/Third_Party/LwIP/src/core/tcp.c **** 
1490:Middlewares/Third_Party/LwIP/src/core/tcp.c **** /**
1491:Middlewares/Third_Party/LwIP/src/core/tcp.c ****  * Kills the oldest connection that is in specific state.
1492:Middlewares/Third_Party/LwIP/src/core/tcp.c ****  * Called from tcp_alloc() for LAST_ACK and CLOSING if no more connections are available.
1493:Middlewares/Third_Party/LwIP/src/core/tcp.c ****  */
1494:Middlewares/Third_Party/LwIP/src/core/tcp.c **** static void
1495:Middlewares/Third_Party/LwIP/src/core/tcp.c **** tcp_kill_state(enum tcp_state state)
1496:Middlewares/Third_Party/LwIP/src/core/tcp.c **** {
1497:Middlewares/Third_Party/LwIP/src/core/tcp.c ****   struct tcp_pcb *pcb, *inactive;
1498:Middlewares/Third_Party/LwIP/src/core/tcp.c ****   u32_t inactivity;
1499:Middlewares/Third_Party/LwIP/src/core/tcp.c **** 
1500:Middlewares/Third_Party/LwIP/src/core/tcp.c ****   LWIP_ASSERT("invalid state", (state == CLOSING) || (state == LAST_ACK));
1501:Middlewares/Third_Party/LwIP/src/core/tcp.c **** 
1502:Middlewares/Third_Party/LwIP/src/core/tcp.c ****   inactivity = 0;
1503:Middlewares/Third_Party/LwIP/src/core/tcp.c ****   inactive = NULL;
1504:Middlewares/Third_Party/LwIP/src/core/tcp.c ****   /* Go through the list of active pcbs and get the oldest pcb that is in state
1505:Middlewares/Third_Party/LwIP/src/core/tcp.c ****      CLOSING/LAST_ACK. */
1506:Middlewares/Third_Party/LwIP/src/core/tcp.c ****   for (pcb = tcp_active_pcbs; pcb != NULL; pcb = pcb->next) {
1507:Middlewares/Third_Party/LwIP/src/core/tcp.c ****     if (pcb->state == state) {
1508:Middlewares/Third_Party/LwIP/src/core/tcp.c ****       if ((u32_t)(tcp_ticks - pcb->tmr) >= inactivity) {
1509:Middlewares/Third_Party/LwIP/src/core/tcp.c ****         inactivity = tcp_ticks - pcb->tmr;
1510:Middlewares/Third_Party/LwIP/src/core/tcp.c ****         inactive = pcb;
1511:Middlewares/Third_Party/LwIP/src/core/tcp.c ****       }
1512:Middlewares/Third_Party/LwIP/src/core/tcp.c ****     }
1513:Middlewares/Third_Party/LwIP/src/core/tcp.c ****   }
1514:Middlewares/Third_Party/LwIP/src/core/tcp.c ****   if (inactive != NULL) {
ARM GAS  C:\Users\Student\AppData\Local\Temp\cc0PPYfp.s 			page 51


1515:Middlewares/Third_Party/LwIP/src/core/tcp.c ****     LWIP_DEBUGF(TCP_DEBUG, ("tcp_kill_closing: killing oldest %s PCB %p (%"S32_F")\n",
1516:Middlewares/Third_Party/LwIP/src/core/tcp.c ****            tcp_state_str[state], (void *)inactive, inactivity));
1517:Middlewares/Third_Party/LwIP/src/core/tcp.c ****     /* Don't send a RST, since no data is lost. */
1518:Middlewares/Third_Party/LwIP/src/core/tcp.c ****     tcp_abandon(inactive, 0);
1519:Middlewares/Third_Party/LwIP/src/core/tcp.c ****   }
1520:Middlewares/Third_Party/LwIP/src/core/tcp.c **** }
1521:Middlewares/Third_Party/LwIP/src/core/tcp.c **** 
1522:Middlewares/Third_Party/LwIP/src/core/tcp.c **** /**
1523:Middlewares/Third_Party/LwIP/src/core/tcp.c ****  * Kills the oldest connection that is in TIME_WAIT state.
1524:Middlewares/Third_Party/LwIP/src/core/tcp.c ****  * Called from tcp_alloc() if no more connections are available.
1525:Middlewares/Third_Party/LwIP/src/core/tcp.c ****  */
1526:Middlewares/Third_Party/LwIP/src/core/tcp.c **** static void
1527:Middlewares/Third_Party/LwIP/src/core/tcp.c **** tcp_kill_timewait(void)
1528:Middlewares/Third_Party/LwIP/src/core/tcp.c **** {
1529:Middlewares/Third_Party/LwIP/src/core/tcp.c ****   struct tcp_pcb *pcb, *inactive;
1530:Middlewares/Third_Party/LwIP/src/core/tcp.c ****   u32_t inactivity;
1531:Middlewares/Third_Party/LwIP/src/core/tcp.c **** 
1532:Middlewares/Third_Party/LwIP/src/core/tcp.c ****   inactivity = 0;
1533:Middlewares/Third_Party/LwIP/src/core/tcp.c ****   inactive = NULL;
1534:Middlewares/Third_Party/LwIP/src/core/tcp.c ****   /* Go through the list of TIME_WAIT pcbs and get the oldest pcb. */
1535:Middlewares/Third_Party/LwIP/src/core/tcp.c ****   for (pcb = tcp_tw_pcbs; pcb != NULL; pcb = pcb->next) {
1536:Middlewares/Third_Party/LwIP/src/core/tcp.c ****     if ((u32_t)(tcp_ticks - pcb->tmr) >= inactivity) {
1537:Middlewares/Third_Party/LwIP/src/core/tcp.c ****       inactivity = tcp_ticks - pcb->tmr;
1538:Middlewares/Third_Party/LwIP/src/core/tcp.c ****       inactive = pcb;
1539:Middlewares/Third_Party/LwIP/src/core/tcp.c ****     }
1540:Middlewares/Third_Party/LwIP/src/core/tcp.c ****   }
1541:Middlewares/Third_Party/LwIP/src/core/tcp.c ****   if (inactive != NULL) {
1542:Middlewares/Third_Party/LwIP/src/core/tcp.c ****     LWIP_DEBUGF(TCP_DEBUG, ("tcp_kill_timewait: killing oldest TIME-WAIT PCB %p (%"S32_F")\n",
1543:Middlewares/Third_Party/LwIP/src/core/tcp.c ****            (void *)inactive, inactivity));
1544:Middlewares/Third_Party/LwIP/src/core/tcp.c ****     tcp_abort(inactive);
1545:Middlewares/Third_Party/LwIP/src/core/tcp.c ****   }
1546:Middlewares/Third_Party/LwIP/src/core/tcp.c **** }
1547:Middlewares/Third_Party/LwIP/src/core/tcp.c **** 
1548:Middlewares/Third_Party/LwIP/src/core/tcp.c **** /**
1549:Middlewares/Third_Party/LwIP/src/core/tcp.c ****  * Allocate a new tcp_pcb structure.
1550:Middlewares/Third_Party/LwIP/src/core/tcp.c ****  *
1551:Middlewares/Third_Party/LwIP/src/core/tcp.c ****  * @param prio priority for the new pcb
1552:Middlewares/Third_Party/LwIP/src/core/tcp.c ****  * @return a new tcp_pcb that initially is in state CLOSED
1553:Middlewares/Third_Party/LwIP/src/core/tcp.c ****  */
1554:Middlewares/Third_Party/LwIP/src/core/tcp.c **** struct tcp_pcb *
1555:Middlewares/Third_Party/LwIP/src/core/tcp.c **** tcp_alloc(u8_t prio)
1556:Middlewares/Third_Party/LwIP/src/core/tcp.c **** {
1557:Middlewares/Third_Party/LwIP/src/core/tcp.c ****   struct tcp_pcb *pcb;
1558:Middlewares/Third_Party/LwIP/src/core/tcp.c **** 
1559:Middlewares/Third_Party/LwIP/src/core/tcp.c ****   pcb = (struct tcp_pcb *)memp_malloc(MEMP_TCP_PCB);
1560:Middlewares/Third_Party/LwIP/src/core/tcp.c ****   if (pcb == NULL) {
1561:Middlewares/Third_Party/LwIP/src/core/tcp.c ****     /* Try killing oldest connection in TIME-WAIT. */
1562:Middlewares/Third_Party/LwIP/src/core/tcp.c ****     LWIP_DEBUGF(TCP_DEBUG, ("tcp_alloc: killing off oldest TIME-WAIT connection\n"));
1563:Middlewares/Third_Party/LwIP/src/core/tcp.c ****     tcp_kill_timewait();
1564:Middlewares/Third_Party/LwIP/src/core/tcp.c ****     /* Try to allocate a tcp_pcb again. */
1565:Middlewares/Third_Party/LwIP/src/core/tcp.c ****     pcb = (struct tcp_pcb *)memp_malloc(MEMP_TCP_PCB);
1566:Middlewares/Third_Party/LwIP/src/core/tcp.c ****     if (pcb == NULL) {
1567:Middlewares/Third_Party/LwIP/src/core/tcp.c ****       /* Try killing oldest connection in LAST-ACK (these wouldn't go to TIME-WAIT). */
1568:Middlewares/Third_Party/LwIP/src/core/tcp.c ****       LWIP_DEBUGF(TCP_DEBUG, ("tcp_alloc: killing off oldest LAST-ACK connection\n"));
1569:Middlewares/Third_Party/LwIP/src/core/tcp.c ****       tcp_kill_state(LAST_ACK);
1570:Middlewares/Third_Party/LwIP/src/core/tcp.c ****       /* Try to allocate a tcp_pcb again. */
1571:Middlewares/Third_Party/LwIP/src/core/tcp.c ****       pcb = (struct tcp_pcb *)memp_malloc(MEMP_TCP_PCB);
ARM GAS  C:\Users\Student\AppData\Local\Temp\cc0PPYfp.s 			page 52


1572:Middlewares/Third_Party/LwIP/src/core/tcp.c ****       if (pcb == NULL) {
1573:Middlewares/Third_Party/LwIP/src/core/tcp.c ****         /* Try killing oldest connection in CLOSING. */
1574:Middlewares/Third_Party/LwIP/src/core/tcp.c ****         LWIP_DEBUGF(TCP_DEBUG, ("tcp_alloc: killing off oldest CLOSING connection\n"));
1575:Middlewares/Third_Party/LwIP/src/core/tcp.c ****         tcp_kill_state(CLOSING);
1576:Middlewares/Third_Party/LwIP/src/core/tcp.c ****         /* Try to allocate a tcp_pcb again. */
1577:Middlewares/Third_Party/LwIP/src/core/tcp.c ****         pcb = (struct tcp_pcb *)memp_malloc(MEMP_TCP_PCB);
1578:Middlewares/Third_Party/LwIP/src/core/tcp.c ****         if (pcb == NULL) {
1579:Middlewares/Third_Party/LwIP/src/core/tcp.c ****           /* Try killing active connections with lower priority than the new one. */
1580:Middlewares/Third_Party/LwIP/src/core/tcp.c ****           LWIP_DEBUGF(TCP_DEBUG, ("tcp_alloc: killing connection with prio lower than %d\n", prio))
1581:Middlewares/Third_Party/LwIP/src/core/tcp.c ****           tcp_kill_prio(prio);
1582:Middlewares/Third_Party/LwIP/src/core/tcp.c ****           /* Try to allocate a tcp_pcb again. */
1583:Middlewares/Third_Party/LwIP/src/core/tcp.c ****           pcb = (struct tcp_pcb *)memp_malloc(MEMP_TCP_PCB);
1584:Middlewares/Third_Party/LwIP/src/core/tcp.c ****           if (pcb != NULL) {
1585:Middlewares/Third_Party/LwIP/src/core/tcp.c ****             /* adjust err stats: memp_malloc failed multiple times before */
1586:Middlewares/Third_Party/LwIP/src/core/tcp.c ****             MEMP_STATS_DEC(err, MEMP_TCP_PCB);
1587:Middlewares/Third_Party/LwIP/src/core/tcp.c ****           }
1588:Middlewares/Third_Party/LwIP/src/core/tcp.c ****         }
1589:Middlewares/Third_Party/LwIP/src/core/tcp.c ****         if (pcb != NULL) {
1590:Middlewares/Third_Party/LwIP/src/core/tcp.c ****           /* adjust err stats: memp_malloc failed multiple times before */
1591:Middlewares/Third_Party/LwIP/src/core/tcp.c ****           MEMP_STATS_DEC(err, MEMP_TCP_PCB);
1592:Middlewares/Third_Party/LwIP/src/core/tcp.c ****         }
1593:Middlewares/Third_Party/LwIP/src/core/tcp.c ****       }
1594:Middlewares/Third_Party/LwIP/src/core/tcp.c ****       if (pcb != NULL) {
1595:Middlewares/Third_Party/LwIP/src/core/tcp.c ****         /* adjust err stats: memp_malloc failed multiple times before */
1596:Middlewares/Third_Party/LwIP/src/core/tcp.c ****         MEMP_STATS_DEC(err, MEMP_TCP_PCB);
1597:Middlewares/Third_Party/LwIP/src/core/tcp.c ****       }
1598:Middlewares/Third_Party/LwIP/src/core/tcp.c ****     }
1599:Middlewares/Third_Party/LwIP/src/core/tcp.c ****     if (pcb != NULL) {
1600:Middlewares/Third_Party/LwIP/src/core/tcp.c ****       /* adjust err stats: memp_malloc failed above */
1601:Middlewares/Third_Party/LwIP/src/core/tcp.c ****       MEMP_STATS_DEC(err, MEMP_TCP_PCB);
1602:Middlewares/Third_Party/LwIP/src/core/tcp.c ****     }
1603:Middlewares/Third_Party/LwIP/src/core/tcp.c ****   }
1604:Middlewares/Third_Party/LwIP/src/core/tcp.c ****   if (pcb != NULL) {
1605:Middlewares/Third_Party/LwIP/src/core/tcp.c ****     /* zero out the whole pcb, so there is no need to initialize members to zero */
1606:Middlewares/Third_Party/LwIP/src/core/tcp.c ****     memset(pcb, 0, sizeof(struct tcp_pcb));
1607:Middlewares/Third_Party/LwIP/src/core/tcp.c ****     pcb->prio = prio;
1608:Middlewares/Third_Party/LwIP/src/core/tcp.c ****     pcb->snd_buf = TCP_SND_BUF;
1609:Middlewares/Third_Party/LwIP/src/core/tcp.c ****     /* Start with a window that does not need scaling. When window scaling is
1610:Middlewares/Third_Party/LwIP/src/core/tcp.c ****        enabled and used, the window is enlarged when both sides agree on scaling. */
1611:Middlewares/Third_Party/LwIP/src/core/tcp.c ****     pcb->rcv_wnd = pcb->rcv_ann_wnd = TCPWND_MIN16(TCP_WND);
1612:Middlewares/Third_Party/LwIP/src/core/tcp.c ****     pcb->ttl = TCP_TTL;
1613:Middlewares/Third_Party/LwIP/src/core/tcp.c ****     /* As initial send MSS, we use TCP_MSS but limit it to 536.
1614:Middlewares/Third_Party/LwIP/src/core/tcp.c ****        The send MSS is updated when an MSS option is received. */
1615:Middlewares/Third_Party/LwIP/src/core/tcp.c ****     pcb->mss = INITIAL_MSS;
1616:Middlewares/Third_Party/LwIP/src/core/tcp.c ****     pcb->rto = 3000 / TCP_SLOW_INTERVAL;
1617:Middlewares/Third_Party/LwIP/src/core/tcp.c ****     pcb->sv = 3000 / TCP_SLOW_INTERVAL;
1618:Middlewares/Third_Party/LwIP/src/core/tcp.c ****     pcb->rtime = -1;
1619:Middlewares/Third_Party/LwIP/src/core/tcp.c ****     pcb->cwnd = 1;
1620:Middlewares/Third_Party/LwIP/src/core/tcp.c ****     pcb->tmr = tcp_ticks;
1621:Middlewares/Third_Party/LwIP/src/core/tcp.c ****     pcb->last_timer = tcp_timer_ctr;
1622:Middlewares/Third_Party/LwIP/src/core/tcp.c **** 
1623:Middlewares/Third_Party/LwIP/src/core/tcp.c ****     /* RFC 5681 recommends setting ssthresh abritrarily high and gives an example
1624:Middlewares/Third_Party/LwIP/src/core/tcp.c ****     of using the largest advertised receive window.  We've seen complications with
1625:Middlewares/Third_Party/LwIP/src/core/tcp.c ****     receiving TCPs that use window scaling and/or window auto-tuning where the
1626:Middlewares/Third_Party/LwIP/src/core/tcp.c ****     initial advertised window is very small and then grows rapidly once the
1627:Middlewares/Third_Party/LwIP/src/core/tcp.c ****     connection is established. To avoid these complications, we set ssthresh to the
1628:Middlewares/Third_Party/LwIP/src/core/tcp.c ****     largest effective cwnd (amount of in-flight data) that the sender can have. */
ARM GAS  C:\Users\Student\AppData\Local\Temp\cc0PPYfp.s 			page 53


1629:Middlewares/Third_Party/LwIP/src/core/tcp.c ****     pcb->ssthresh = TCP_SND_BUF;
1630:Middlewares/Third_Party/LwIP/src/core/tcp.c **** 
1631:Middlewares/Third_Party/LwIP/src/core/tcp.c **** #if LWIP_CALLBACK_API
1632:Middlewares/Third_Party/LwIP/src/core/tcp.c ****     pcb->recv = tcp_recv_null;
1633:Middlewares/Third_Party/LwIP/src/core/tcp.c **** #endif /* LWIP_CALLBACK_API */
1634:Middlewares/Third_Party/LwIP/src/core/tcp.c **** 
1635:Middlewares/Third_Party/LwIP/src/core/tcp.c ****     /* Init KEEPALIVE timer */
1636:Middlewares/Third_Party/LwIP/src/core/tcp.c ****     pcb->keep_idle  = TCP_KEEPIDLE_DEFAULT;
1637:Middlewares/Third_Party/LwIP/src/core/tcp.c **** 
1638:Middlewares/Third_Party/LwIP/src/core/tcp.c **** #if LWIP_TCP_KEEPALIVE
1639:Middlewares/Third_Party/LwIP/src/core/tcp.c ****     pcb->keep_intvl = TCP_KEEPINTVL_DEFAULT;
1640:Middlewares/Third_Party/LwIP/src/core/tcp.c ****     pcb->keep_cnt   = TCP_KEEPCNT_DEFAULT;
1641:Middlewares/Third_Party/LwIP/src/core/tcp.c **** #endif /* LWIP_TCP_KEEPALIVE */
1642:Middlewares/Third_Party/LwIP/src/core/tcp.c ****   }
1643:Middlewares/Third_Party/LwIP/src/core/tcp.c ****   return pcb;
1644:Middlewares/Third_Party/LwIP/src/core/tcp.c **** }
1645:Middlewares/Third_Party/LwIP/src/core/tcp.c **** 
1646:Middlewares/Third_Party/LwIP/src/core/tcp.c **** /**
1647:Middlewares/Third_Party/LwIP/src/core/tcp.c ****  * @ingroup tcp_raw
1648:Middlewares/Third_Party/LwIP/src/core/tcp.c ****  * Creates a new TCP protocol control block but doesn't place it on
1649:Middlewares/Third_Party/LwIP/src/core/tcp.c ****  * any of the TCP PCB lists.
1650:Middlewares/Third_Party/LwIP/src/core/tcp.c ****  * The pcb is not put on any list until binding using tcp_bind().
1651:Middlewares/Third_Party/LwIP/src/core/tcp.c ****  *
1652:Middlewares/Third_Party/LwIP/src/core/tcp.c ****  * @internal: Maybe there should be a idle TCP PCB list where these
1653:Middlewares/Third_Party/LwIP/src/core/tcp.c ****  * PCBs are put on. Port reservation using tcp_bind() is implemented but
1654:Middlewares/Third_Party/LwIP/src/core/tcp.c ****  * allocated pcbs that are not bound can't be killed automatically if wanting
1655:Middlewares/Third_Party/LwIP/src/core/tcp.c ****  * to allocate a pcb with higher prio (@see tcp_kill_prio())
1656:Middlewares/Third_Party/LwIP/src/core/tcp.c ****  *
1657:Middlewares/Third_Party/LwIP/src/core/tcp.c ****  * @return a new tcp_pcb that initially is in state CLOSED
1658:Middlewares/Third_Party/LwIP/src/core/tcp.c ****  */
1659:Middlewares/Third_Party/LwIP/src/core/tcp.c **** struct tcp_pcb *
1660:Middlewares/Third_Party/LwIP/src/core/tcp.c **** tcp_new(void)
1661:Middlewares/Third_Party/LwIP/src/core/tcp.c **** {
1662:Middlewares/Third_Party/LwIP/src/core/tcp.c ****   return tcp_alloc(TCP_PRIO_NORMAL);
1663:Middlewares/Third_Party/LwIP/src/core/tcp.c **** }
1664:Middlewares/Third_Party/LwIP/src/core/tcp.c **** 
1665:Middlewares/Third_Party/LwIP/src/core/tcp.c **** /**
1666:Middlewares/Third_Party/LwIP/src/core/tcp.c ****  * @ingroup tcp_raw
1667:Middlewares/Third_Party/LwIP/src/core/tcp.c ****  * Creates a new TCP protocol control block but doesn't
1668:Middlewares/Third_Party/LwIP/src/core/tcp.c ****  * place it on any of the TCP PCB lists.
1669:Middlewares/Third_Party/LwIP/src/core/tcp.c ****  * The pcb is not put on any list until binding using tcp_bind().
1670:Middlewares/Third_Party/LwIP/src/core/tcp.c ****  *
1671:Middlewares/Third_Party/LwIP/src/core/tcp.c ****  * @param type IP address type, see @ref lwip_ip_addr_type definitions.
1672:Middlewares/Third_Party/LwIP/src/core/tcp.c ****  * If you want to listen to IPv4 and IPv6 (dual-stack) connections,
1673:Middlewares/Third_Party/LwIP/src/core/tcp.c ****  * supply @ref IPADDR_TYPE_ANY as argument and bind to @ref IP_ANY_TYPE.
1674:Middlewares/Third_Party/LwIP/src/core/tcp.c ****  * @return a new tcp_pcb that initially is in state CLOSED
1675:Middlewares/Third_Party/LwIP/src/core/tcp.c ****  */
1676:Middlewares/Third_Party/LwIP/src/core/tcp.c **** struct tcp_pcb *
1677:Middlewares/Third_Party/LwIP/src/core/tcp.c **** tcp_new_ip_type(u8_t type)
1678:Middlewares/Third_Party/LwIP/src/core/tcp.c **** {
1679:Middlewares/Third_Party/LwIP/src/core/tcp.c ****   struct tcp_pcb * pcb;
1680:Middlewares/Third_Party/LwIP/src/core/tcp.c ****   pcb = tcp_alloc(TCP_PRIO_NORMAL);
1681:Middlewares/Third_Party/LwIP/src/core/tcp.c **** #if LWIP_IPV4 && LWIP_IPV6
1682:Middlewares/Third_Party/LwIP/src/core/tcp.c ****   if (pcb != NULL) {
1683:Middlewares/Third_Party/LwIP/src/core/tcp.c ****     IP_SET_TYPE_VAL(pcb->local_ip, type);
1684:Middlewares/Third_Party/LwIP/src/core/tcp.c ****     IP_SET_TYPE_VAL(pcb->remote_ip, type);
1685:Middlewares/Third_Party/LwIP/src/core/tcp.c ****   }
ARM GAS  C:\Users\Student\AppData\Local\Temp\cc0PPYfp.s 			page 54


1686:Middlewares/Third_Party/LwIP/src/core/tcp.c **** #else
1687:Middlewares/Third_Party/LwIP/src/core/tcp.c ****   LWIP_UNUSED_ARG(type);
1688:Middlewares/Third_Party/LwIP/src/core/tcp.c **** #endif /* LWIP_IPV4 && LWIP_IPV6 */
1689:Middlewares/Third_Party/LwIP/src/core/tcp.c ****   return pcb;
1690:Middlewares/Third_Party/LwIP/src/core/tcp.c **** }
1691:Middlewares/Third_Party/LwIP/src/core/tcp.c **** 
1692:Middlewares/Third_Party/LwIP/src/core/tcp.c **** /**
1693:Middlewares/Third_Party/LwIP/src/core/tcp.c ****  * @ingroup tcp_raw
1694:Middlewares/Third_Party/LwIP/src/core/tcp.c ****  * Used to specify the argument that should be passed callback
1695:Middlewares/Third_Party/LwIP/src/core/tcp.c ****  * functions.
1696:Middlewares/Third_Party/LwIP/src/core/tcp.c ****  *
1697:Middlewares/Third_Party/LwIP/src/core/tcp.c ****  * @param pcb tcp_pcb to set the callback argument
1698:Middlewares/Third_Party/LwIP/src/core/tcp.c ****  * @param arg void pointer argument to pass to callback functions
1699:Middlewares/Third_Party/LwIP/src/core/tcp.c ****  */
1700:Middlewares/Third_Party/LwIP/src/core/tcp.c **** void
1701:Middlewares/Third_Party/LwIP/src/core/tcp.c **** tcp_arg(struct tcp_pcb *pcb, void *arg)
1702:Middlewares/Third_Party/LwIP/src/core/tcp.c **** {
 1220              		.loc 1 1702 0
 1221              		.cfi_startproc
 1222              		@ args = 0, pretend = 0, frame = 0
 1223              		@ frame_needed = 0, uses_anonymous_args = 0
 1224              		@ link register save eliminated.
 1225              	.LVL139:
1703:Middlewares/Third_Party/LwIP/src/core/tcp.c ****   /* This function is allowed to be called for both listen pcbs and
1704:Middlewares/Third_Party/LwIP/src/core/tcp.c ****      connection pcbs. */
1705:Middlewares/Third_Party/LwIP/src/core/tcp.c ****   if (pcb != NULL) {
 1226              		.loc 1 1705 0
 1227 0000 00B1     		cbz	r0, .L146
1706:Middlewares/Third_Party/LwIP/src/core/tcp.c ****     pcb->callback_arg = arg;
 1228              		.loc 1 1706 0
 1229 0002 0161     		str	r1, [r0, #16]
 1230              	.L146:
 1231 0004 7047     		bx	lr
 1232              		.cfi_endproc
 1233              	.LFE185:
 1235              		.section	.text.tcp_recv,"ax",%progbits
 1236              		.align	1
 1237              		.global	tcp_recv
 1238              		.syntax unified
 1239              		.thumb
 1240              		.thumb_func
 1241              		.fpu fpv5-sp-d16
 1243              	tcp_recv:
 1244              	.LFB186:
1707:Middlewares/Third_Party/LwIP/src/core/tcp.c ****   }
1708:Middlewares/Third_Party/LwIP/src/core/tcp.c **** }
1709:Middlewares/Third_Party/LwIP/src/core/tcp.c **** #if LWIP_CALLBACK_API
1710:Middlewares/Third_Party/LwIP/src/core/tcp.c **** 
1711:Middlewares/Third_Party/LwIP/src/core/tcp.c **** /**
1712:Middlewares/Third_Party/LwIP/src/core/tcp.c ****  * @ingroup tcp_raw
1713:Middlewares/Third_Party/LwIP/src/core/tcp.c ****  * Used to specify the function that should be called when a TCP
1714:Middlewares/Third_Party/LwIP/src/core/tcp.c ****  * connection receives data.
1715:Middlewares/Third_Party/LwIP/src/core/tcp.c ****  *
1716:Middlewares/Third_Party/LwIP/src/core/tcp.c ****  * @param pcb tcp_pcb to set the recv callback
1717:Middlewares/Third_Party/LwIP/src/core/tcp.c ****  * @param recv callback function to call for this pcb when data is received
1718:Middlewares/Third_Party/LwIP/src/core/tcp.c ****  */
1719:Middlewares/Third_Party/LwIP/src/core/tcp.c **** void
ARM GAS  C:\Users\Student\AppData\Local\Temp\cc0PPYfp.s 			page 55


1720:Middlewares/Third_Party/LwIP/src/core/tcp.c **** tcp_recv(struct tcp_pcb *pcb, tcp_recv_fn recv)
1721:Middlewares/Third_Party/LwIP/src/core/tcp.c **** {
 1245              		.loc 1 1721 0
 1246              		.cfi_startproc
 1247              		@ args = 0, pretend = 0, frame = 0
 1248              		@ frame_needed = 0, uses_anonymous_args = 0
 1249              	.LVL140:
1722:Middlewares/Third_Party/LwIP/src/core/tcp.c ****   if (pcb != NULL) {
 1250              		.loc 1 1722 0
 1251 0000 80B1     		cbz	r0, .L152
1721:Middlewares/Third_Party/LwIP/src/core/tcp.c ****   if (pcb != NULL) {
 1252              		.loc 1 1721 0
 1253 0002 38B5     		push	{r3, r4, r5, lr}
 1254              	.LCFI16:
 1255              		.cfi_def_cfa_offset 16
 1256              		.cfi_offset 3, -16
 1257              		.cfi_offset 4, -12
 1258              		.cfi_offset 5, -8
 1259              		.cfi_offset 14, -4
 1260 0004 0446     		mov	r4, r0
 1261 0006 0D46     		mov	r5, r1
1723:Middlewares/Third_Party/LwIP/src/core/tcp.c ****     LWIP_ASSERT("invalid socket state for recv callback", pcb->state != LISTEN);
 1262              		.loc 1 1723 0
 1263 0008 037D     		ldrb	r3, [r0, #20]	@ zero_extendqisi2
 1264 000a 012B     		cmp	r3, #1
 1265 000c 02D0     		beq	.L155
 1266              	.LVL141:
 1267              	.L150:
1724:Middlewares/Third_Party/LwIP/src/core/tcp.c ****     pcb->recv = recv;
 1268              		.loc 1 1724 0
 1269 000e C4F88050 		str	r5, [r4, #128]
 1270 0012 38BD     		pop	{r3, r4, r5, pc}
 1271              	.LVL142:
 1272              	.L155:
1723:Middlewares/Third_Party/LwIP/src/core/tcp.c ****     LWIP_ASSERT("invalid socket state for recv callback", pcb->state != LISTEN);
 1273              		.loc 1 1723 0 discriminator 1
 1274 0014 044B     		ldr	r3, .L156
 1275 0016 40F2BB62 		movw	r2, #1723
 1276 001a 0449     		ldr	r1, .L156+4
 1277              	.LVL143:
 1278 001c 0448     		ldr	r0, .L156+8
 1279              	.LVL144:
 1280 001e FFF7FEFF 		bl	printf
 1281              	.LVL145:
 1282 0022 F4E7     		b	.L150
 1283              	.LVL146:
 1284              	.L152:
 1285              	.LCFI17:
 1286              		.cfi_def_cfa_offset 0
 1287              		.cfi_restore 3
 1288              		.cfi_restore 4
 1289              		.cfi_restore 5
 1290              		.cfi_restore 14
 1291 0024 7047     		bx	lr
 1292              	.L157:
 1293 0026 00BF     		.align	2
 1294              	.L156:
ARM GAS  C:\Users\Student\AppData\Local\Temp\cc0PPYfp.s 			page 56


 1295 0028 00000000 		.word	.LC0
 1296 002c 00000000 		.word	.LC9
 1297 0030 38000000 		.word	.LC2
 1298              		.cfi_endproc
 1299              	.LFE186:
 1301              		.section	.text.tcp_sent,"ax",%progbits
 1302              		.align	1
 1303              		.global	tcp_sent
 1304              		.syntax unified
 1305              		.thumb
 1306              		.thumb_func
 1307              		.fpu fpv5-sp-d16
 1309              	tcp_sent:
 1310              	.LFB187:
1725:Middlewares/Third_Party/LwIP/src/core/tcp.c ****   }
1726:Middlewares/Third_Party/LwIP/src/core/tcp.c **** }
1727:Middlewares/Third_Party/LwIP/src/core/tcp.c **** 
1728:Middlewares/Third_Party/LwIP/src/core/tcp.c **** /**
1729:Middlewares/Third_Party/LwIP/src/core/tcp.c ****  * @ingroup tcp_raw
1730:Middlewares/Third_Party/LwIP/src/core/tcp.c ****  * Used to specify the function that should be called when TCP data
1731:Middlewares/Third_Party/LwIP/src/core/tcp.c ****  * has been successfully delivered to the remote host.
1732:Middlewares/Third_Party/LwIP/src/core/tcp.c ****  *
1733:Middlewares/Third_Party/LwIP/src/core/tcp.c ****  * @param pcb tcp_pcb to set the sent callback
1734:Middlewares/Third_Party/LwIP/src/core/tcp.c ****  * @param sent callback function to call for this pcb when data is successfully sent
1735:Middlewares/Third_Party/LwIP/src/core/tcp.c ****  */
1736:Middlewares/Third_Party/LwIP/src/core/tcp.c **** void
1737:Middlewares/Third_Party/LwIP/src/core/tcp.c **** tcp_sent(struct tcp_pcb *pcb, tcp_sent_fn sent)
1738:Middlewares/Third_Party/LwIP/src/core/tcp.c **** {
 1311              		.loc 1 1738 0
 1312              		.cfi_startproc
 1313              		@ args = 0, pretend = 0, frame = 0
 1314              		@ frame_needed = 0, uses_anonymous_args = 0
 1315              	.LVL147:
1739:Middlewares/Third_Party/LwIP/src/core/tcp.c ****   if (pcb != NULL) {
 1316              		.loc 1 1739 0
 1317 0000 78B1     		cbz	r0, .L162
1738:Middlewares/Third_Party/LwIP/src/core/tcp.c ****   if (pcb != NULL) {
 1318              		.loc 1 1738 0
 1319 0002 38B5     		push	{r3, r4, r5, lr}
 1320              	.LCFI18:
 1321              		.cfi_def_cfa_offset 16
 1322              		.cfi_offset 3, -16
 1323              		.cfi_offset 4, -12
 1324              		.cfi_offset 5, -8
 1325              		.cfi_offset 14, -4
 1326 0004 0446     		mov	r4, r0
 1327 0006 0D46     		mov	r5, r1
1740:Middlewares/Third_Party/LwIP/src/core/tcp.c ****     LWIP_ASSERT("invalid socket state for sent callback", pcb->state != LISTEN);
 1328              		.loc 1 1740 0
 1329 0008 037D     		ldrb	r3, [r0, #20]	@ zero_extendqisi2
 1330 000a 012B     		cmp	r3, #1
 1331 000c 01D0     		beq	.L165
 1332              	.LVL148:
 1333              	.L160:
1741:Middlewares/Third_Party/LwIP/src/core/tcp.c ****     pcb->sent = sent;
 1334              		.loc 1 1741 0
 1335 000e E567     		str	r5, [r4, #124]
ARM GAS  C:\Users\Student\AppData\Local\Temp\cc0PPYfp.s 			page 57


 1336 0010 38BD     		pop	{r3, r4, r5, pc}
 1337              	.LVL149:
 1338              	.L165:
1740:Middlewares/Third_Party/LwIP/src/core/tcp.c ****     LWIP_ASSERT("invalid socket state for sent callback", pcb->state != LISTEN);
 1339              		.loc 1 1740 0 discriminator 1
 1340 0012 044B     		ldr	r3, .L166
 1341 0014 40F2CC62 		movw	r2, #1740
 1342 0018 0349     		ldr	r1, .L166+4
 1343              	.LVL150:
 1344 001a 0448     		ldr	r0, .L166+8
 1345              	.LVL151:
 1346 001c FFF7FEFF 		bl	printf
 1347              	.LVL152:
 1348 0020 F5E7     		b	.L160
 1349              	.LVL153:
 1350              	.L162:
 1351              	.LCFI19:
 1352              		.cfi_def_cfa_offset 0
 1353              		.cfi_restore 3
 1354              		.cfi_restore 4
 1355              		.cfi_restore 5
 1356              		.cfi_restore 14
 1357 0022 7047     		bx	lr
 1358              	.L167:
 1359              		.align	2
 1360              	.L166:
 1361 0024 00000000 		.word	.LC0
 1362 0028 00000000 		.word	.LC10
 1363 002c 38000000 		.word	.LC2
 1364              		.cfi_endproc
 1365              	.LFE187:
 1367              		.section	.text.tcp_err,"ax",%progbits
 1368              		.align	1
 1369              		.global	tcp_err
 1370              		.syntax unified
 1371              		.thumb
 1372              		.thumb_func
 1373              		.fpu fpv5-sp-d16
 1375              	tcp_err:
 1376              	.LFB188:
1742:Middlewares/Third_Party/LwIP/src/core/tcp.c ****   }
1743:Middlewares/Third_Party/LwIP/src/core/tcp.c **** }
1744:Middlewares/Third_Party/LwIP/src/core/tcp.c **** 
1745:Middlewares/Third_Party/LwIP/src/core/tcp.c **** /**
1746:Middlewares/Third_Party/LwIP/src/core/tcp.c ****  * @ingroup tcp_raw
1747:Middlewares/Third_Party/LwIP/src/core/tcp.c ****  * Used to specify the function that should be called when a fatal error
1748:Middlewares/Third_Party/LwIP/src/core/tcp.c ****  * has occurred on the connection.
1749:Middlewares/Third_Party/LwIP/src/core/tcp.c ****  *
1750:Middlewares/Third_Party/LwIP/src/core/tcp.c ****  * @note The corresponding pcb is already freed when this callback is called!
1751:Middlewares/Third_Party/LwIP/src/core/tcp.c ****  * 
1752:Middlewares/Third_Party/LwIP/src/core/tcp.c ****  * @param pcb tcp_pcb to set the err callback
1753:Middlewares/Third_Party/LwIP/src/core/tcp.c ****  * @param err callback function to call for this pcb when a fatal error
1754:Middlewares/Third_Party/LwIP/src/core/tcp.c ****  *        has occurred on the connection
1755:Middlewares/Third_Party/LwIP/src/core/tcp.c ****  */
1756:Middlewares/Third_Party/LwIP/src/core/tcp.c **** void
1757:Middlewares/Third_Party/LwIP/src/core/tcp.c **** tcp_err(struct tcp_pcb *pcb, tcp_err_fn err)
1758:Middlewares/Third_Party/LwIP/src/core/tcp.c **** {
ARM GAS  C:\Users\Student\AppData\Local\Temp\cc0PPYfp.s 			page 58


 1377              		.loc 1 1758 0
 1378              		.cfi_startproc
 1379              		@ args = 0, pretend = 0, frame = 0
 1380              		@ frame_needed = 0, uses_anonymous_args = 0
 1381              	.LVL154:
1759:Middlewares/Third_Party/LwIP/src/core/tcp.c ****   if (pcb != NULL) {
 1382              		.loc 1 1759 0
 1383 0000 80B1     		cbz	r0, .L172
1758:Middlewares/Third_Party/LwIP/src/core/tcp.c ****   if (pcb != NULL) {
 1384              		.loc 1 1758 0
 1385 0002 38B5     		push	{r3, r4, r5, lr}
 1386              	.LCFI20:
 1387              		.cfi_def_cfa_offset 16
 1388              		.cfi_offset 3, -16
 1389              		.cfi_offset 4, -12
 1390              		.cfi_offset 5, -8
 1391              		.cfi_offset 14, -4
 1392 0004 0446     		mov	r4, r0
 1393 0006 0D46     		mov	r5, r1
1760:Middlewares/Third_Party/LwIP/src/core/tcp.c ****     LWIP_ASSERT("invalid socket state for err callback", pcb->state != LISTEN);
 1394              		.loc 1 1760 0
 1395 0008 037D     		ldrb	r3, [r0, #20]	@ zero_extendqisi2
 1396 000a 012B     		cmp	r3, #1
 1397 000c 02D0     		beq	.L175
 1398              	.LVL155:
 1399              	.L170:
1761:Middlewares/Third_Party/LwIP/src/core/tcp.c ****     pcb->errf = err;
 1400              		.loc 1 1761 0
 1401 000e C4F88C50 		str	r5, [r4, #140]
 1402 0012 38BD     		pop	{r3, r4, r5, pc}
 1403              	.LVL156:
 1404              	.L175:
1760:Middlewares/Third_Party/LwIP/src/core/tcp.c ****     LWIP_ASSERT("invalid socket state for err callback", pcb->state != LISTEN);
 1405              		.loc 1 1760 0 discriminator 1
 1406 0014 044B     		ldr	r3, .L176
 1407 0016 4FF4DC62 		mov	r2, #1760
 1408 001a 0449     		ldr	r1, .L176+4
 1409              	.LVL157:
 1410 001c 0448     		ldr	r0, .L176+8
 1411              	.LVL158:
 1412 001e FFF7FEFF 		bl	printf
 1413              	.LVL159:
 1414 0022 F4E7     		b	.L170
 1415              	.LVL160:
 1416              	.L172:
 1417              	.LCFI21:
 1418              		.cfi_def_cfa_offset 0
 1419              		.cfi_restore 3
 1420              		.cfi_restore 4
 1421              		.cfi_restore 5
 1422              		.cfi_restore 14
 1423 0024 7047     		bx	lr
 1424              	.L177:
 1425 0026 00BF     		.align	2
 1426              	.L176:
 1427 0028 00000000 		.word	.LC0
 1428 002c 00000000 		.word	.LC11
ARM GAS  C:\Users\Student\AppData\Local\Temp\cc0PPYfp.s 			page 59


 1429 0030 38000000 		.word	.LC2
 1430              		.cfi_endproc
 1431              	.LFE188:
 1433              		.section	.text.tcp_accept,"ax",%progbits
 1434              		.align	1
 1435              		.global	tcp_accept
 1436              		.syntax unified
 1437              		.thumb
 1438              		.thumb_func
 1439              		.fpu fpv5-sp-d16
 1441              	tcp_accept:
 1442              	.LFB189:
1762:Middlewares/Third_Party/LwIP/src/core/tcp.c ****   }
1763:Middlewares/Third_Party/LwIP/src/core/tcp.c **** }
1764:Middlewares/Third_Party/LwIP/src/core/tcp.c **** 
1765:Middlewares/Third_Party/LwIP/src/core/tcp.c **** /**
1766:Middlewares/Third_Party/LwIP/src/core/tcp.c ****  * @ingroup tcp_raw
1767:Middlewares/Third_Party/LwIP/src/core/tcp.c ****  * Used for specifying the function that should be called when a
1768:Middlewares/Third_Party/LwIP/src/core/tcp.c ****  * LISTENing connection has been connected to another host.
1769:Middlewares/Third_Party/LwIP/src/core/tcp.c ****  *
1770:Middlewares/Third_Party/LwIP/src/core/tcp.c ****  * @param pcb tcp_pcb to set the accept callback
1771:Middlewares/Third_Party/LwIP/src/core/tcp.c ****  * @param accept callback function to call for this pcb when LISTENing
1772:Middlewares/Third_Party/LwIP/src/core/tcp.c ****  *        connection has been connected to another host
1773:Middlewares/Third_Party/LwIP/src/core/tcp.c ****  */
1774:Middlewares/Third_Party/LwIP/src/core/tcp.c **** void
1775:Middlewares/Third_Party/LwIP/src/core/tcp.c **** tcp_accept(struct tcp_pcb *pcb, tcp_accept_fn accept)
1776:Middlewares/Third_Party/LwIP/src/core/tcp.c **** {
 1443              		.loc 1 1776 0
 1444              		.cfi_startproc
 1445              		@ args = 0, pretend = 0, frame = 0
 1446              		@ frame_needed = 0, uses_anonymous_args = 0
 1447              		@ link register save eliminated.
 1448              	.LVL161:
1777:Middlewares/Third_Party/LwIP/src/core/tcp.c ****   if ((pcb != NULL) && (pcb->state == LISTEN)) {
 1449              		.loc 1 1777 0
 1450 0000 10B1     		cbz	r0, .L178
 1451              		.loc 1 1777 0 is_stmt 0 discriminator 1
 1452 0002 027D     		ldrb	r2, [r0, #20]	@ zero_extendqisi2
 1453 0004 012A     		cmp	r2, #1
 1454 0006 00D0     		beq	.L180
 1455              	.L178:
 1456 0008 7047     		bx	lr
 1457              	.L180:
 1458              	.LVL162:
 1459              	.LBB7:
1778:Middlewares/Third_Party/LwIP/src/core/tcp.c ****     struct tcp_pcb_listen *lpcb = (struct tcp_pcb_listen*)pcb;
1779:Middlewares/Third_Party/LwIP/src/core/tcp.c ****     lpcb->accept = accept;
 1460              		.loc 1 1779 0 is_stmt 1
 1461 000a 8161     		str	r1, [r0, #24]
 1462              	.LBE7:
1780:Middlewares/Third_Party/LwIP/src/core/tcp.c ****   }
1781:Middlewares/Third_Party/LwIP/src/core/tcp.c **** }
 1463              		.loc 1 1781 0
 1464 000c FCE7     		b	.L178
 1465              		.cfi_endproc
 1466              	.LFE189:
 1468              		.section	.text.tcp_poll,"ax",%progbits
ARM GAS  C:\Users\Student\AppData\Local\Temp\cc0PPYfp.s 			page 60


 1469              		.align	1
 1470              		.global	tcp_poll
 1471              		.syntax unified
 1472              		.thumb
 1473              		.thumb_func
 1474              		.fpu fpv5-sp-d16
 1476              	tcp_poll:
 1477              	.LFB190:
1782:Middlewares/Third_Party/LwIP/src/core/tcp.c **** #endif /* LWIP_CALLBACK_API */
1783:Middlewares/Third_Party/LwIP/src/core/tcp.c **** 
1784:Middlewares/Third_Party/LwIP/src/core/tcp.c **** 
1785:Middlewares/Third_Party/LwIP/src/core/tcp.c **** /**
1786:Middlewares/Third_Party/LwIP/src/core/tcp.c ****  * @ingroup tcp_raw
1787:Middlewares/Third_Party/LwIP/src/core/tcp.c ****  * Used to specify the function that should be called periodically
1788:Middlewares/Third_Party/LwIP/src/core/tcp.c ****  * from TCP. The interval is specified in terms of the TCP coarse
1789:Middlewares/Third_Party/LwIP/src/core/tcp.c ****  * timer interval, which is called twice a second.
1790:Middlewares/Third_Party/LwIP/src/core/tcp.c ****  *
1791:Middlewares/Third_Party/LwIP/src/core/tcp.c ****  */
1792:Middlewares/Third_Party/LwIP/src/core/tcp.c **** void
1793:Middlewares/Third_Party/LwIP/src/core/tcp.c **** tcp_poll(struct tcp_pcb *pcb, tcp_poll_fn poll, u8_t interval)
1794:Middlewares/Third_Party/LwIP/src/core/tcp.c **** {
 1478              		.loc 1 1794 0
 1479              		.cfi_startproc
 1480              		@ args = 0, pretend = 0, frame = 0
 1481              		@ frame_needed = 0, uses_anonymous_args = 0
 1482              	.LVL163:
 1483 0000 70B5     		push	{r4, r5, r6, lr}
 1484              	.LCFI22:
 1485              		.cfi_def_cfa_offset 16
 1486              		.cfi_offset 4, -16
 1487              		.cfi_offset 5, -12
 1488              		.cfi_offset 6, -8
 1489              		.cfi_offset 14, -4
 1490 0002 0446     		mov	r4, r0
 1491 0004 0E46     		mov	r6, r1
 1492 0006 1546     		mov	r5, r2
1795:Middlewares/Third_Party/LwIP/src/core/tcp.c ****   LWIP_ASSERT("invalid socket state for poll", pcb->state != LISTEN);
 1493              		.loc 1 1795 0
 1494 0008 037D     		ldrb	r3, [r0, #20]	@ zero_extendqisi2
 1495 000a 012B     		cmp	r3, #1
 1496 000c 03D0     		beq	.L184
 1497              	.LVL164:
 1498              	.L182:
1796:Middlewares/Third_Party/LwIP/src/core/tcp.c **** #if LWIP_CALLBACK_API
1797:Middlewares/Third_Party/LwIP/src/core/tcp.c ****   pcb->poll = poll;
 1499              		.loc 1 1797 0
 1500 000e C4F88860 		str	r6, [r4, #136]
1798:Middlewares/Third_Party/LwIP/src/core/tcp.c **** #else /* LWIP_CALLBACK_API */
1799:Middlewares/Third_Party/LwIP/src/core/tcp.c ****   LWIP_UNUSED_ARG(poll);
1800:Middlewares/Third_Party/LwIP/src/core/tcp.c **** #endif /* LWIP_CALLBACK_API */
1801:Middlewares/Third_Party/LwIP/src/core/tcp.c ****   pcb->pollinterval = interval;
 1501              		.loc 1 1801 0
 1502 0012 2577     		strb	r5, [r4, #28]
 1503 0014 70BD     		pop	{r4, r5, r6, pc}
 1504              	.LVL165:
 1505              	.L184:
1795:Middlewares/Third_Party/LwIP/src/core/tcp.c **** #if LWIP_CALLBACK_API
ARM GAS  C:\Users\Student\AppData\Local\Temp\cc0PPYfp.s 			page 61


 1506              		.loc 1 1795 0 discriminator 1
 1507 0016 044B     		ldr	r3, .L185
 1508 0018 40F20372 		movw	r2, #1795
 1509              	.LVL166:
 1510 001c 0349     		ldr	r1, .L185+4
 1511              	.LVL167:
 1512 001e 0448     		ldr	r0, .L185+8
 1513              	.LVL168:
 1514 0020 FFF7FEFF 		bl	printf
 1515              	.LVL169:
 1516 0024 F3E7     		b	.L182
 1517              	.L186:
 1518 0026 00BF     		.align	2
 1519              	.L185:
 1520 0028 00000000 		.word	.LC0
 1521 002c 00000000 		.word	.LC12
 1522 0030 38000000 		.word	.LC2
 1523              		.cfi_endproc
 1524              	.LFE190:
 1526              		.section	.text.tcp_pcb_purge,"ax",%progbits
 1527              		.align	1
 1528              		.global	tcp_pcb_purge
 1529              		.syntax unified
 1530              		.thumb
 1531              		.thumb_func
 1532              		.fpu fpv5-sp-d16
 1534              	tcp_pcb_purge:
 1535              	.LFB191:
1802:Middlewares/Third_Party/LwIP/src/core/tcp.c **** }
1803:Middlewares/Third_Party/LwIP/src/core/tcp.c **** 
1804:Middlewares/Third_Party/LwIP/src/core/tcp.c **** /**
1805:Middlewares/Third_Party/LwIP/src/core/tcp.c ****  * Purges a TCP PCB. Removes any buffered data and frees the buffer memory
1806:Middlewares/Third_Party/LwIP/src/core/tcp.c ****  * (pcb->ooseq, pcb->unsent and pcb->unacked are freed).
1807:Middlewares/Third_Party/LwIP/src/core/tcp.c ****  *
1808:Middlewares/Third_Party/LwIP/src/core/tcp.c ****  * @param pcb tcp_pcb to purge. The pcb itself is not deallocated!
1809:Middlewares/Third_Party/LwIP/src/core/tcp.c ****  */
1810:Middlewares/Third_Party/LwIP/src/core/tcp.c **** void
1811:Middlewares/Third_Party/LwIP/src/core/tcp.c **** tcp_pcb_purge(struct tcp_pcb *pcb)
1812:Middlewares/Third_Party/LwIP/src/core/tcp.c **** {
 1536              		.loc 1 1812 0
 1537              		.cfi_startproc
 1538              		@ args = 0, pretend = 0, frame = 0
 1539              		@ frame_needed = 0, uses_anonymous_args = 0
 1540              	.LVL170:
 1541 0000 38B5     		push	{r3, r4, r5, lr}
 1542              	.LCFI23:
 1543              		.cfi_def_cfa_offset 16
 1544              		.cfi_offset 3, -16
 1545              		.cfi_offset 4, -12
 1546              		.cfi_offset 5, -8
 1547              		.cfi_offset 14, -4
1813:Middlewares/Third_Party/LwIP/src/core/tcp.c ****   if (pcb->state != CLOSED &&
 1548              		.loc 1 1813 0
 1549 0002 037D     		ldrb	r3, [r0, #20]	@ zero_extendqisi2
 1550 0004 002B     		cmp	r3, #0
 1551 0006 18BF     		it	ne
 1552 0008 0A2B     		cmpne	r3, #10
ARM GAS  C:\Users\Student\AppData\Local\Temp\cc0PPYfp.s 			page 62


 1553 000a 1AD0     		beq	.L187
1814:Middlewares/Third_Party/LwIP/src/core/tcp.c ****      pcb->state != TIME_WAIT &&
 1554              		.loc 1 1814 0
 1555 000c 012B     		cmp	r3, #1
 1556 000e 18D0     		beq	.L187
 1557 0010 0446     		mov	r4, r0
1815:Middlewares/Third_Party/LwIP/src/core/tcp.c ****      pcb->state != LISTEN) {
1816:Middlewares/Third_Party/LwIP/src/core/tcp.c **** 
1817:Middlewares/Third_Party/LwIP/src/core/tcp.c ****     LWIP_DEBUGF(TCP_DEBUG, ("tcp_pcb_purge\n"));
1818:Middlewares/Third_Party/LwIP/src/core/tcp.c **** 
1819:Middlewares/Third_Party/LwIP/src/core/tcp.c ****     tcp_backlog_accepted(pcb);
1820:Middlewares/Third_Party/LwIP/src/core/tcp.c **** 
1821:Middlewares/Third_Party/LwIP/src/core/tcp.c ****     if (pcb->refused_data != NULL) {
 1558              		.loc 1 1821 0
 1559 0012 406F     		ldr	r0, [r0, #116]
 1560              	.LVL171:
 1561 0014 18B1     		cbz	r0, .L189
1822:Middlewares/Third_Party/LwIP/src/core/tcp.c ****       LWIP_DEBUGF(TCP_DEBUG, ("tcp_pcb_purge: data left on ->refused_data\n"));
1823:Middlewares/Third_Party/LwIP/src/core/tcp.c ****       pbuf_free(pcb->refused_data);
 1562              		.loc 1 1823 0
 1563 0016 FFF7FEFF 		bl	pbuf_free
 1564              	.LVL172:
1824:Middlewares/Third_Party/LwIP/src/core/tcp.c ****       pcb->refused_data = NULL;
 1565              		.loc 1 1824 0
 1566 001a 0023     		movs	r3, #0
 1567 001c 6367     		str	r3, [r4, #116]
 1568              	.L189:
1825:Middlewares/Third_Party/LwIP/src/core/tcp.c ****     }
1826:Middlewares/Third_Party/LwIP/src/core/tcp.c ****     if (pcb->unsent != NULL) {
1827:Middlewares/Third_Party/LwIP/src/core/tcp.c ****       LWIP_DEBUGF(TCP_DEBUG, ("tcp_pcb_purge: not all data sent\n"));
1828:Middlewares/Third_Party/LwIP/src/core/tcp.c ****     }
1829:Middlewares/Third_Party/LwIP/src/core/tcp.c ****     if (pcb->unacked != NULL) {
1830:Middlewares/Third_Party/LwIP/src/core/tcp.c ****       LWIP_DEBUGF(TCP_DEBUG, ("tcp_pcb_purge: data left on ->unacked\n"));
1831:Middlewares/Third_Party/LwIP/src/core/tcp.c ****     }
1832:Middlewares/Third_Party/LwIP/src/core/tcp.c **** #if TCP_QUEUE_OOSEQ
1833:Middlewares/Third_Party/LwIP/src/core/tcp.c ****     if (pcb->ooseq != NULL) {
1834:Middlewares/Third_Party/LwIP/src/core/tcp.c ****       LWIP_DEBUGF(TCP_DEBUG, ("tcp_pcb_purge: data left on ->ooseq\n"));
1835:Middlewares/Third_Party/LwIP/src/core/tcp.c ****     }
1836:Middlewares/Third_Party/LwIP/src/core/tcp.c ****     tcp_segs_free(pcb->ooseq);
 1569              		.loc 1 1836 0
 1570 001e 206F     		ldr	r0, [r4, #112]
 1571 0020 FFF7FEFF 		bl	tcp_segs_free
 1572              	.LVL173:
1837:Middlewares/Third_Party/LwIP/src/core/tcp.c ****     pcb->ooseq = NULL;
 1573              		.loc 1 1837 0
 1574 0024 0025     		movs	r5, #0
 1575 0026 2567     		str	r5, [r4, #112]
1838:Middlewares/Third_Party/LwIP/src/core/tcp.c **** #endif /* TCP_QUEUE_OOSEQ */
1839:Middlewares/Third_Party/LwIP/src/core/tcp.c **** 
1840:Middlewares/Third_Party/LwIP/src/core/tcp.c ****     /* Stop the retransmission timer as it will expect data on unacked
1841:Middlewares/Third_Party/LwIP/src/core/tcp.c ****        queue if it fires */
1842:Middlewares/Third_Party/LwIP/src/core/tcp.c ****     pcb->rtime = -1;
 1576              		.loc 1 1842 0
 1577 0028 4FF6FF73 		movw	r3, #65535
 1578 002c 2386     		strh	r3, [r4, #48]	@ movhi
1843:Middlewares/Third_Party/LwIP/src/core/tcp.c **** 
1844:Middlewares/Third_Party/LwIP/src/core/tcp.c ****     tcp_segs_free(pcb->unsent);
ARM GAS  C:\Users\Student\AppData\Local\Temp\cc0PPYfp.s 			page 63


 1579              		.loc 1 1844 0
 1580 002e A06E     		ldr	r0, [r4, #104]
 1581 0030 FFF7FEFF 		bl	tcp_segs_free
 1582              	.LVL174:
1845:Middlewares/Third_Party/LwIP/src/core/tcp.c ****     tcp_segs_free(pcb->unacked);
 1583              		.loc 1 1845 0
 1584 0034 E06E     		ldr	r0, [r4, #108]
 1585 0036 FFF7FEFF 		bl	tcp_segs_free
 1586              	.LVL175:
1846:Middlewares/Third_Party/LwIP/src/core/tcp.c ****     pcb->unacked = pcb->unsent = NULL;
 1587              		.loc 1 1846 0
 1588 003a A566     		str	r5, [r4, #104]
 1589 003c E566     		str	r5, [r4, #108]
1847:Middlewares/Third_Party/LwIP/src/core/tcp.c **** #if TCP_OVERSIZE
1848:Middlewares/Third_Party/LwIP/src/core/tcp.c ****     pcb->unsent_oversize = 0;
 1590              		.loc 1 1848 0
 1591 003e A4F86450 		strh	r5, [r4, #100]	@ movhi
 1592              	.LVL176:
 1593              	.L187:
 1594 0042 38BD     		pop	{r3, r4, r5, pc}
 1595              		.cfi_endproc
 1596              	.LFE191:
 1598              		.section	.text.tcp_slowtmr,"ax",%progbits
 1599              		.align	1
 1600              		.global	tcp_slowtmr
 1601              		.syntax unified
 1602              		.thumb
 1603              		.thumb_func
 1604              		.fpu fpv5-sp-d16
 1606              	tcp_slowtmr:
 1607              	.LFB170:
 987:Middlewares/Third_Party/LwIP/src/core/tcp.c ****   struct tcp_pcb *pcb, *prev;
 1608              		.loc 1 987 0
 1609              		.cfi_startproc
 1610              		@ args = 0, pretend = 0, frame = 0
 1611              		@ frame_needed = 0, uses_anonymous_args = 0
 1612 0000 2DE9F041 		push	{r4, r5, r6, r7, r8, lr}
 1613              	.LCFI24:
 1614              		.cfi_def_cfa_offset 24
 1615              		.cfi_offset 4, -24
 1616              		.cfi_offset 5, -20
 1617              		.cfi_offset 6, -16
 1618              		.cfi_offset 7, -12
 1619              		.cfi_offset 8, -8
 1620              		.cfi_offset 14, -4
 1621 0004 82B0     		sub	sp, sp, #8
 1622              	.LCFI25:
 1623              		.cfi_def_cfa_offset 32
 1624              	.LVL177:
 996:Middlewares/Third_Party/LwIP/src/core/tcp.c ****   ++tcp_timer_ctr;
 1625              		.loc 1 996 0
 1626 0006 AE4A     		ldr	r2, .L265
 1627 0008 1368     		ldr	r3, [r2]
 1628 000a 0133     		adds	r3, r3, #1
 1629 000c 1360     		str	r3, [r2]
 997:Middlewares/Third_Party/LwIP/src/core/tcp.c **** 
 1630              		.loc 1 997 0
ARM GAS  C:\Users\Student\AppData\Local\Temp\cc0PPYfp.s 			page 64


 1631 000e AD4A     		ldr	r2, .L265+4
 1632 0010 1378     		ldrb	r3, [r2]	@ zero_extendqisi2
 1633 0012 0133     		adds	r3, r3, #1
 1634 0014 1370     		strb	r3, [r2]
 1635              	.L193:
 1636              	.LVL178:
 1637              	.L192:
1002:Middlewares/Third_Party/LwIP/src/core/tcp.c ****   if (pcb == NULL) {
 1638              		.loc 1 1002 0
 1639 0016 AC4B     		ldr	r3, .L265+8
 1640 0018 1C68     		ldr	r4, [r3]
 1641              	.LVL179:
1001:Middlewares/Third_Party/LwIP/src/core/tcp.c ****   pcb = tcp_active_pcbs;
 1642              		.loc 1 1001 0
 1643 001a 0026     		movs	r6, #0
1006:Middlewares/Third_Party/LwIP/src/core/tcp.c ****     LWIP_DEBUGF(TCP_DEBUG, ("tcp_slowtmr: processing active pcb\n"));
 1644              		.loc 1 1006 0
 1645 001c 18E0     		b	.L194
 1646              	.LVL180:
 1647              	.L247:
1008:Middlewares/Third_Party/LwIP/src/core/tcp.c ****     LWIP_ASSERT("tcp_slowtmr: active pcb->state != LISTEN\n", pcb->state != LISTEN);
 1648              		.loc 1 1008 0 discriminator 1
 1649 001e AB4B     		ldr	r3, .L265+12
 1650 0020 4FF47C72 		mov	r2, #1008
 1651 0024 AA49     		ldr	r1, .L265+16
 1652 0026 AB48     		ldr	r0, .L265+20
 1653 0028 FFF7FEFF 		bl	printf
 1654              	.LVL181:
 1655 002c 16E0     		b	.L195
 1656              	.L248:
1009:Middlewares/Third_Party/LwIP/src/core/tcp.c ****     LWIP_ASSERT("tcp_slowtmr: active pcb->state != TIME-WAIT\n", pcb->state != TIME_WAIT);
 1657              		.loc 1 1009 0 discriminator 1
 1658 002e A74B     		ldr	r3, .L265+12
 1659 0030 40F2F132 		movw	r2, #1009
 1660 0034 A849     		ldr	r1, .L265+24
 1661 0036 A748     		ldr	r0, .L265+20
 1662 0038 FFF7FEFF 		bl	printf
 1663              	.LVL182:
 1664 003c 11E0     		b	.L196
 1665              	.L249:
1010:Middlewares/Third_Party/LwIP/src/core/tcp.c ****     if (pcb->last_timer == tcp_timer_ctr) {
 1666              		.loc 1 1010 0 discriminator 1
 1667 003e A34B     		ldr	r3, .L265+12
 1668 0040 40F2F232 		movw	r2, #1010
 1669 0044 A549     		ldr	r1, .L265+28
 1670 0046 A348     		ldr	r0, .L265+20
 1671 0048 FFF7FEFF 		bl	printf
 1672              	.LVL183:
 1673 004c 0CE0     		b	.L197
 1674              	.L250:
1013:Middlewares/Third_Party/LwIP/src/core/tcp.c ****       continue;
 1675              		.loc 1 1013 0
 1676 004e E468     		ldr	r4, [r4, #12]
 1677              	.LVL184:
 1678              	.L194:
1006:Middlewares/Third_Party/LwIP/src/core/tcp.c ****     LWIP_DEBUGF(TCP_DEBUG, ("tcp_slowtmr: processing active pcb\n"));
 1679              		.loc 1 1006 0
ARM GAS  C:\Users\Student\AppData\Local\Temp\cc0PPYfp.s 			page 65


 1680 0050 002C     		cmp	r4, #0
 1681 0052 00F07E81 		beq	.L246
1008:Middlewares/Third_Party/LwIP/src/core/tcp.c ****     LWIP_ASSERT("tcp_slowtmr: active pcb->state != LISTEN\n", pcb->state != LISTEN);
 1682              		.loc 1 1008 0
 1683 0056 237D     		ldrb	r3, [r4, #20]	@ zero_extendqisi2
 1684 0058 002B     		cmp	r3, #0
 1685 005a E0D0     		beq	.L247
 1686              	.L195:
1009:Middlewares/Third_Party/LwIP/src/core/tcp.c ****     LWIP_ASSERT("tcp_slowtmr: active pcb->state != TIME-WAIT\n", pcb->state != TIME_WAIT);
 1687              		.loc 1 1009 0
 1688 005c 237D     		ldrb	r3, [r4, #20]	@ zero_extendqisi2
 1689 005e 012B     		cmp	r3, #1
 1690 0060 E5D0     		beq	.L248
 1691              	.L196:
1010:Middlewares/Third_Party/LwIP/src/core/tcp.c ****     if (pcb->last_timer == tcp_timer_ctr) {
 1692              		.loc 1 1010 0
 1693 0062 237D     		ldrb	r3, [r4, #20]	@ zero_extendqisi2
 1694 0064 0A2B     		cmp	r3, #10
 1695 0066 EAD0     		beq	.L249
 1696              	.L197:
1011:Middlewares/Third_Party/LwIP/src/core/tcp.c ****       /* skip this pcb, we have already processed it */
 1697              		.loc 1 1011 0
 1698 0068 627F     		ldrb	r2, [r4, #29]	@ zero_extendqisi2
 1699 006a 964B     		ldr	r3, .L265+4
 1700 006c 1B78     		ldrb	r3, [r3]	@ zero_extendqisi2
 1701 006e 9A42     		cmp	r2, r3
 1702 0070 EDD0     		beq	.L250
1016:Middlewares/Third_Party/LwIP/src/core/tcp.c **** 
 1703              		.loc 1 1016 0
 1704 0072 6377     		strb	r3, [r4, #29]
 1705              	.LVL185:
1021:Middlewares/Third_Party/LwIP/src/core/tcp.c ****       ++pcb_remove;
 1706              		.loc 1 1021 0
 1707 0074 237D     		ldrb	r3, [r4, #20]	@ zero_extendqisi2
 1708 0076 022B     		cmp	r3, #2
 1709 0078 16D0     		beq	.L251
 1710              	.L200:
1025:Middlewares/Third_Party/LwIP/src/core/tcp.c ****       ++pcb_remove;
 1711              		.loc 1 1025 0
 1712 007a 94F84220 		ldrb	r2, [r4, #66]	@ zero_extendqisi2
 1713 007e 0B2A     		cmp	r2, #11
 1714 0080 60D8     		bhi	.L233
1029:Middlewares/Third_Party/LwIP/src/core/tcp.c ****         /* If snd_wnd is zero, use persist timer to send 1 byte probes
 1715              		.loc 1 1029 0
 1716 0082 94F89550 		ldrb	r5, [r4, #149]	@ zero_extendqisi2
 1717 0086 35B3     		cbz	r5, .L202
 1718              	.LBB8:
1032:Middlewares/Third_Party/LwIP/src/core/tcp.c ****         if (pcb->persist_cnt < backoff_cnt) {
 1719              		.loc 1 1032 0
 1720 0088 013D     		subs	r5, r5, #1
 1721 008a 954B     		ldr	r3, .L265+32
 1722 008c 5A5D     		ldrb	r2, [r3, r5]	@ zero_extendqisi2
 1723              	.LVL186:
1033:Middlewares/Third_Party/LwIP/src/core/tcp.c ****           pcb->persist_cnt++;
 1724              		.loc 1 1033 0
 1725 008e 94F89430 		ldrb	r3, [r4, #148]	@ zero_extendqisi2
 1726 0092 9A42     		cmp	r2, r3
ARM GAS  C:\Users\Student\AppData\Local\Temp\cc0PPYfp.s 			page 66


 1727 0094 02D9     		bls	.L203
1034:Middlewares/Third_Party/LwIP/src/core/tcp.c ****         }
 1728              		.loc 1 1034 0
 1729 0096 0133     		adds	r3, r3, #1
 1730 0098 84F89430 		strb	r3, [r4, #148]
 1731              	.L203:
1036:Middlewares/Third_Party/LwIP/src/core/tcp.c ****           if (tcp_zero_window_probe(pcb) == ERR_OK) {
 1732              		.loc 1 1036 0
 1733 009c 94F89430 		ldrb	r3, [r4, #148]	@ zero_extendqisi2
 1734 00a0 9A42     		cmp	r2, r3
 1735 00a2 07D9     		bls	.L252
 1736              	.LBE8:
1018:Middlewares/Third_Party/LwIP/src/core/tcp.c ****     pcb_reset = 0;
 1737              		.loc 1 1018 0
 1738 00a4 0025     		movs	r5, #0
 1739 00a6 4EE0     		b	.L201
 1740              	.LVL187:
 1741              	.L251:
1021:Middlewares/Third_Party/LwIP/src/core/tcp.c ****       ++pcb_remove;
 1742              		.loc 1 1021 0 discriminator 1
 1743 00a8 94F84220 		ldrb	r2, [r4, #66]	@ zero_extendqisi2
 1744 00ac 052A     		cmp	r2, #5
 1745 00ae E4D9     		bls	.L200
1022:Middlewares/Third_Party/LwIP/src/core/tcp.c ****       LWIP_DEBUGF(TCP_DEBUG, ("tcp_slowtmr: max SYN retries reached\n"));
 1746              		.loc 1 1022 0
 1747 00b0 0125     		movs	r5, #1
 1748 00b2 48E0     		b	.L201
 1749              	.LVL188:
 1750              	.L252:
 1751              	.LBB9:
1037:Middlewares/Third_Party/LwIP/src/core/tcp.c ****             pcb->persist_cnt = 0;
 1752              		.loc 1 1037 0
 1753 00b4 2046     		mov	r0, r4
 1754 00b6 FFF7FEFF 		bl	tcp_zero_window_probe
 1755              	.LVL189:
 1756 00ba 0028     		cmp	r0, #0
 1757 00bc 60D1     		bne	.L235
1038:Middlewares/Third_Party/LwIP/src/core/tcp.c ****             if (pcb->persist_backoff < sizeof(tcp_persist_backoff)) {
 1758              		.loc 1 1038 0
 1759 00be 0023     		movs	r3, #0
 1760 00c0 84F89430 		strb	r3, [r4, #148]
1039:Middlewares/Third_Party/LwIP/src/core/tcp.c ****               pcb->persist_backoff++;
 1761              		.loc 1 1039 0
 1762 00c4 94F89530 		ldrb	r3, [r4, #149]	@ zero_extendqisi2
 1763 00c8 062B     		cmp	r3, #6
 1764 00ca 5BD8     		bhi	.L236
1040:Middlewares/Third_Party/LwIP/src/core/tcp.c ****             }
 1765              		.loc 1 1040 0
 1766 00cc 0133     		adds	r3, r3, #1
 1767 00ce 84F89530 		strb	r3, [r4, #149]
 1768              	.LBE9:
1018:Middlewares/Third_Party/LwIP/src/core/tcp.c ****     pcb_reset = 0;
 1769              		.loc 1 1018 0
 1770 00d2 0025     		movs	r5, #0
 1771              	.LVL190:
 1772 00d4 37E0     		b	.L201
 1773              	.L202:
ARM GAS  C:\Users\Student\AppData\Local\Temp\cc0PPYfp.s 			page 67


1046:Middlewares/Third_Party/LwIP/src/core/tcp.c ****           ++pcb->rtime;
 1774              		.loc 1 1046 0
 1775 00d6 B4F93010 		ldrsh	r1, [r4, #48]
 1776 00da 0029     		cmp	r1, #0
 1777 00dc 01DB     		blt	.L204
1047:Middlewares/Third_Party/LwIP/src/core/tcp.c ****         }
 1778              		.loc 1 1047 0
 1779 00de 0131     		adds	r1, r1, #1
 1780 00e0 2186     		strh	r1, [r4, #48]	@ movhi
 1781              	.L204:
1050:Middlewares/Third_Party/LwIP/src/core/tcp.c ****           /* Time for a retransmission. */
 1782              		.loc 1 1050 0
 1783 00e2 E16E     		ldr	r1, [r4, #108]
 1784 00e4 79B3     		cbz	r1, .L201
1050:Middlewares/Third_Party/LwIP/src/core/tcp.c ****           /* Time for a retransmission. */
 1785              		.loc 1 1050 0 is_stmt 0 discriminator 1
 1786 00e6 B4F93000 		ldrsh	r0, [r4, #48]
 1787 00ea B4F94010 		ldrsh	r1, [r4, #64]
 1788 00ee 8842     		cmp	r0, r1
 1789 00f0 29DB     		blt	.L201
1058:Middlewares/Third_Party/LwIP/src/core/tcp.c ****             u8_t backoff_idx = LWIP_MIN(pcb->nrtx, sizeof(tcp_backoff)-1);
 1790              		.loc 1 1058 0 is_stmt 1
 1791 00f2 022B     		cmp	r3, #2
 1792 00f4 0DD0     		beq	.L205
 1793              	.LBB10:
1059:Middlewares/Third_Party/LwIP/src/core/tcp.c ****             pcb->rto = ((pcb->sa >> 3) + pcb->sv) << tcp_backoff[backoff_idx];
 1794              		.loc 1 1059 0
 1795 00f6 0C2A     		cmp	r2, #12
 1796 00f8 28BF     		it	cs
 1797 00fa 0C22     		movcs	r2, #12
 1798              	.LVL191:
1060:Middlewares/Third_Party/LwIP/src/core/tcp.c ****           }
 1799              		.loc 1 1060 0
 1800 00fc B4F93C10 		ldrsh	r1, [r4, #60]
 1801 0100 B4F93E30 		ldrsh	r3, [r4, #62]
 1802 0104 03EBE103 		add	r3, r3, r1, asr #3
 1803 0108 7649     		ldr	r1, .L265+36
 1804 010a 8A5C     		ldrb	r2, [r1, r2]	@ zero_extendqisi2
 1805              	.LVL192:
 1806 010c 9340     		lsls	r3, r3, r2
 1807 010e A4F84030 		strh	r3, [r4, #64]	@ movhi
 1808              	.LVL193:
 1809              	.L205:
 1810              	.LBE10:
1064:Middlewares/Third_Party/LwIP/src/core/tcp.c **** 
 1811              		.loc 1 1064 0
 1812 0112 0023     		movs	r3, #0
 1813 0114 2386     		strh	r3, [r4, #48]	@ movhi
1067:Middlewares/Third_Party/LwIP/src/core/tcp.c ****           pcb->ssthresh = eff_wnd >> 1;
 1814              		.loc 1 1067 0
 1815 0116 B4F85C30 		ldrh	r3, [r4, #92]
 1816 011a B4F84820 		ldrh	r2, [r4, #72]
 1817 011e 9342     		cmp	r3, r2
 1818 0120 28BF     		it	cs
 1819 0122 1346     		movcs	r3, r2
 1820              	.LVL194:
1068:Middlewares/Third_Party/LwIP/src/core/tcp.c ****           if (pcb->ssthresh < (tcpwnd_size_t)(pcb->mss << 1)) {
ARM GAS  C:\Users\Student\AppData\Local\Temp\cc0PPYfp.s 			page 68


 1821              		.loc 1 1068 0
 1822 0124 5B08     		lsrs	r3, r3, #1
 1823              	.LVL195:
 1824 0126 A4F84A30 		strh	r3, [r4, #74]	@ movhi
1069:Middlewares/Third_Party/LwIP/src/core/tcp.c ****             pcb->ssthresh = (pcb->mss << 1);
 1825              		.loc 1 1069 0
 1826 012a 618E     		ldrh	r1, [r4, #50]
 1827 012c 4A00     		lsls	r2, r1, #1
 1828              	.LVL196:
 1829 012e 92B2     		uxth	r2, r2
 1830 0130 9342     		cmp	r3, r2
 1831              	.LVL197:
 1832 0132 01D2     		bcs	.L206
1070:Middlewares/Third_Party/LwIP/src/core/tcp.c ****           }
 1833              		.loc 1 1070 0
 1834 0134 A4F84A20 		strh	r2, [r4, #74]	@ movhi
 1835              	.L206:
1072:Middlewares/Third_Party/LwIP/src/core/tcp.c ****           LWIP_DEBUGF(TCP_CWND_DEBUG, ("tcp_slowtmr: cwnd %"TCPWNDSIZE_F
 1836              		.loc 1 1072 0
 1837 0138 A4F84810 		strh	r1, [r4, #72]	@ movhi
 1838              	.LVL198:
1079:Middlewares/Third_Party/LwIP/src/core/tcp.c ****         }
 1839              		.loc 1 1079 0
 1840 013c 2046     		mov	r0, r4
 1841 013e FFF7FEFF 		bl	tcp_rexmit_rto
 1842              	.LVL199:
 1843 0142 00E0     		b	.L201
 1844              	.L233:
1026:Middlewares/Third_Party/LwIP/src/core/tcp.c ****       LWIP_DEBUGF(TCP_DEBUG, ("tcp_slowtmr: max DATA retries reached\n"));
 1845              		.loc 1 1026 0
 1846 0144 0125     		movs	r5, #1
 1847              	.L201:
 1848              	.LVL200:
1084:Middlewares/Third_Party/LwIP/src/core/tcp.c ****       /* If this PCB is in FIN_WAIT_2 because of SHUT_WR don't let it time out. */
 1849              		.loc 1 1084 0
 1850 0146 237D     		ldrb	r3, [r4, #20]	@ zero_extendqisi2
 1851 0148 062B     		cmp	r3, #6
 1852 014a 1DD0     		beq	.L253
 1853              	.L207:
1098:Middlewares/Third_Party/LwIP/src/core/tcp.c ****        ((pcb->state == ESTABLISHED) ||
 1854              		.loc 1 1098 0
 1855 014c 227A     		ldrb	r2, [r4, #8]	@ zero_extendqisi2
 1856 014e 12F0080F 		tst	r2, #8
 1857 0152 3FD0     		beq	.L237
1098:Middlewares/Third_Party/LwIP/src/core/tcp.c ****        ((pcb->state == ESTABLISHED) ||
 1858              		.loc 1 1098 0 is_stmt 0 discriminator 1
 1859 0154 072B     		cmp	r3, #7
 1860 0156 18BF     		it	ne
 1861 0158 042B     		cmpne	r3, #4
 1862 015a 70D1     		bne	.L238
1101:Middlewares/Third_Party/LwIP/src/core/tcp.c ****          (pcb->keep_idle + TCP_KEEP_DUR(pcb)) / TCP_SLOW_INTERVAL)
 1863              		.loc 1 1101 0 is_stmt 1
 1864 015c 584B     		ldr	r3, .L265
 1865 015e 1A68     		ldr	r2, [r3]
 1866 0160 236A     		ldr	r3, [r4, #32]
 1867 0162 D21A     		subs	r2, r2, r3
1102:Middlewares/Third_Party/LwIP/src/core/tcp.c ****       {
ARM GAS  C:\Users\Student\AppData\Local\Temp\cc0PPYfp.s 			page 69


 1868              		.loc 1 1102 0
 1869 0164 D4F89010 		ldr	r1, [r4, #144]
 1870 0168 5F4B     		ldr	r3, .L265+40
 1871 016a 0B44     		add	r3, r3, r1
 1872 016c 5F48     		ldr	r0, .L265+44
 1873 016e A0FB0303 		umull	r0, r3, r0, r3
1101:Middlewares/Third_Party/LwIP/src/core/tcp.c ****          (pcb->keep_idle + TCP_KEEP_DUR(pcb)) / TCP_SLOW_INTERVAL)
 1874              		.loc 1 1101 0
 1875 0172 B2EB531F 		cmp	r2, r3, lsr #5
 1876 0176 14D9     		bls	.L209
1108:Middlewares/Third_Party/LwIP/src/core/tcp.c ****         ++pcb_reset;
 1877              		.loc 1 1108 0
 1878 0178 0135     		adds	r5, r5, #1
 1879              	.LVL201:
 1880 017a EDB2     		uxtb	r5, r5
 1881              	.LVL202:
1109:Middlewares/Third_Party/LwIP/src/core/tcp.c ****       } else if ((u32_t)(tcp_ticks - pcb->tmr) >
 1882              		.loc 1 1109 0
 1883 017c 0127     		movs	r7, #1
 1884 017e 2AE0     		b	.L208
 1885              	.LVL203:
 1886              	.L235:
1018:Middlewares/Third_Party/LwIP/src/core/tcp.c ****     pcb_reset = 0;
 1887              		.loc 1 1018 0
 1888 0180 0025     		movs	r5, #0
 1889              	.LVL204:
 1890 0182 E0E7     		b	.L201
 1891              	.LVL205:
 1892              	.L236:
 1893 0184 0025     		movs	r5, #0
 1894              	.LVL206:
 1895 0186 DEE7     		b	.L201
 1896              	.LVL207:
 1897              	.L253:
1086:Middlewares/Third_Party/LwIP/src/core/tcp.c ****         /* PCB was fully closed (either through close() or SHUT_RDWR):
 1898              		.loc 1 1086 0
 1899 0188 A27E     		ldrb	r2, [r4, #26]	@ zero_extendqisi2
 1900 018a 12F0100F 		tst	r2, #16
 1901 018e DDD0     		beq	.L207
1089:Middlewares/Third_Party/LwIP/src/core/tcp.c ****             TCP_FIN_WAIT_TIMEOUT / TCP_SLOW_INTERVAL) {
 1902              		.loc 1 1089 0
 1903 0190 216A     		ldr	r1, [r4, #32]
 1904 0192 4B4A     		ldr	r2, .L265
 1905 0194 1268     		ldr	r2, [r2]
 1906 0196 521A     		subs	r2, r2, r1
 1907 0198 282A     		cmp	r2, #40
 1908 019a D7D9     		bls	.L207
1091:Middlewares/Third_Party/LwIP/src/core/tcp.c ****           LWIP_DEBUGF(TCP_DEBUG, ("tcp_slowtmr: removing pcb stuck in FIN-WAIT-2\n"));
 1909              		.loc 1 1091 0
 1910 019c 0135     		adds	r5, r5, #1
 1911              	.LVL208:
 1912 019e EDB2     		uxtb	r5, r5
 1913              	.LVL209:
 1914 01a0 D4E7     		b	.L207
 1915              	.L209:
1111:Middlewares/Third_Party/LwIP/src/core/tcp.c ****                 / TCP_SLOW_INTERVAL)
 1916              		.loc 1 1111 0
ARM GAS  C:\Users\Student\AppData\Local\Temp\cc0PPYfp.s 			page 70


 1917 01a2 94F89630 		ldrb	r3, [r4, #150]	@ zero_extendqisi2
 1918 01a6 5248     		ldr	r0, .L265+48
 1919 01a8 00FB0313 		mla	r3, r0, r3, r1
1112:Middlewares/Third_Party/LwIP/src/core/tcp.c ****       {
 1920              		.loc 1 1112 0
 1921 01ac 4F49     		ldr	r1, .L265+44
 1922 01ae A1FB0313 		umull	r1, r3, r1, r3
1110:Middlewares/Third_Party/LwIP/src/core/tcp.c ****                 (pcb->keep_idle + pcb->keep_cnt_sent * TCP_KEEP_INTVL(pcb))
 1923              		.loc 1 1110 0
 1924 01b2 B2EB531F 		cmp	r2, r3, lsr #5
 1925 01b6 01D8     		bhi	.L254
1019:Middlewares/Third_Party/LwIP/src/core/tcp.c **** 
 1926              		.loc 1 1019 0
 1927 01b8 0027     		movs	r7, #0
 1928 01ba 0CE0     		b	.L208
 1929              	.L254:
1114:Middlewares/Third_Party/LwIP/src/core/tcp.c ****         if (err == ERR_OK) {
 1930              		.loc 1 1114 0
 1931 01bc 2046     		mov	r0, r4
 1932 01be FFF7FEFF 		bl	tcp_keepalive
 1933              	.LVL210:
1115:Middlewares/Third_Party/LwIP/src/core/tcp.c ****           pcb->keep_cnt_sent++;
 1934              		.loc 1 1115 0
 1935 01c2 0028     		cmp	r0, #0
 1936 01c4 3DD1     		bne	.L240
1116:Middlewares/Third_Party/LwIP/src/core/tcp.c ****         }
 1937              		.loc 1 1116 0
 1938 01c6 94F89630 		ldrb	r3, [r4, #150]	@ zero_extendqisi2
 1939 01ca 0133     		adds	r3, r3, #1
 1940 01cc 84F89630 		strb	r3, [r4, #150]
1019:Middlewares/Third_Party/LwIP/src/core/tcp.c **** 
 1941              		.loc 1 1019 0
 1942 01d0 0027     		movs	r7, #0
 1943 01d2 00E0     		b	.L208
 1944              	.LVL211:
 1945              	.L237:
 1946 01d4 0027     		movs	r7, #0
 1947              	.LVL212:
 1948              	.L208:
1125:Middlewares/Third_Party/LwIP/src/core/tcp.c ****         (u32_t)tcp_ticks - pcb->tmr >= pcb->rto * TCP_OOSEQ_TIMEOUT) {
 1949              		.loc 1 1125 0
 1950 01d6 206F     		ldr	r0, [r4, #112]
 1951 01d8 50B1     		cbz	r0, .L210
1126:Middlewares/Third_Party/LwIP/src/core/tcp.c ****       tcp_segs_free(pcb->ooseq);
 1952              		.loc 1 1126 0 discriminator 1
 1953 01da 394B     		ldr	r3, .L265
 1954 01dc 1A68     		ldr	r2, [r3]
 1955 01de 236A     		ldr	r3, [r4, #32]
 1956 01e0 D21A     		subs	r2, r2, r3
 1957 01e2 B4F94030 		ldrsh	r3, [r4, #64]
 1958 01e6 03EB4303 		add	r3, r3, r3, lsl #1
 1959 01ea 5900     		lsls	r1, r3, #1
1125:Middlewares/Third_Party/LwIP/src/core/tcp.c ****         (u32_t)tcp_ticks - pcb->tmr >= pcb->rto * TCP_OOSEQ_TIMEOUT) {
 1960              		.loc 1 1125 0 discriminator 1
 1961 01ec 8A42     		cmp	r2, r1
 1962 01ee 2AD2     		bcs	.L255
 1963              	.L210:
ARM GAS  C:\Users\Student\AppData\Local\Temp\cc0PPYfp.s 			page 71


