ARM GAS  C:\Users\Patryk\AppData\Local\Temp\cc1Vd65O.s 			page 1


   1              		.cpu cortex-m7
   2              		.eabi_attribute 27, 1
   3              		.eabi_attribute 28, 1
   4              		.eabi_attribute 20, 1
   5              		.eabi_attribute 21, 1
   6              		.eabi_attribute 23, 3
   7              		.eabi_attribute 24, 1
   8              		.eabi_attribute 25, 1
   9              		.eabi_attribute 26, 1
  10              		.eabi_attribute 30, 1
  11              		.eabi_attribute 34, 1
  12              		.eabi_attribute 18, 4
  13              		.file	"tcp.c"
  14              		.text
  15              	.Ltext0:
  16              		.cfi_sections	.debug_frame
  17              		.section	.text.tcp_remove_listener,"ax",%progbits
  18              		.align	1
  19              		.syntax unified
  20              		.thumb
  21              		.thumb_func
  22              		.fpu fpv5-sp-d16
  24              	tcp_remove_listener:
  25              	.LFB156:
  26              		.file 1 "Middlewares/Third_Party/LwIP/src/core/tcp.c"
   1:Middlewares/Third_Party/LwIP/src/core/tcp.c **** /**
   2:Middlewares/Third_Party/LwIP/src/core/tcp.c ****  * @file 
   3:Middlewares/Third_Party/LwIP/src/core/tcp.c ****  * Transmission Control Protocol for IP
   4:Middlewares/Third_Party/LwIP/src/core/tcp.c ****  * See also @ref tcp_raw
   5:Middlewares/Third_Party/LwIP/src/core/tcp.c ****  *
   6:Middlewares/Third_Party/LwIP/src/core/tcp.c ****  * @defgroup tcp_raw TCP
   7:Middlewares/Third_Party/LwIP/src/core/tcp.c ****  * @ingroup callbackstyle_api
   8:Middlewares/Third_Party/LwIP/src/core/tcp.c ****  * Transmission Control Protocol for IP\n
   9:Middlewares/Third_Party/LwIP/src/core/tcp.c ****  * @see @ref raw_api and @ref netconn
  10:Middlewares/Third_Party/LwIP/src/core/tcp.c ****  *
  11:Middlewares/Third_Party/LwIP/src/core/tcp.c ****  * Common functions for the TCP implementation, such as functinos
  12:Middlewares/Third_Party/LwIP/src/core/tcp.c ****  * for manipulating the data structures and the TCP timer functions. TCP functions
  13:Middlewares/Third_Party/LwIP/src/core/tcp.c ****  * related to input and output is found in tcp_in.c and tcp_out.c respectively.\n
  14:Middlewares/Third_Party/LwIP/src/core/tcp.c ****  */
  15:Middlewares/Third_Party/LwIP/src/core/tcp.c **** 
  16:Middlewares/Third_Party/LwIP/src/core/tcp.c **** /*
  17:Middlewares/Third_Party/LwIP/src/core/tcp.c ****  * Copyright (c) 2001-2004 Swedish Institute of Computer Science.
  18:Middlewares/Third_Party/LwIP/src/core/tcp.c ****  * All rights reserved.
  19:Middlewares/Third_Party/LwIP/src/core/tcp.c ****  *
  20:Middlewares/Third_Party/LwIP/src/core/tcp.c ****  * Redistribution and use in source and binary forms, with or without modification,
  21:Middlewares/Third_Party/LwIP/src/core/tcp.c ****  * are permitted provided that the following conditions are met:
  22:Middlewares/Third_Party/LwIP/src/core/tcp.c ****  *
  23:Middlewares/Third_Party/LwIP/src/core/tcp.c ****  * 1. Redistributions of source code must retain the above copyright notice,
  24:Middlewares/Third_Party/LwIP/src/core/tcp.c ****  *    this list of conditions and the following disclaimer.
  25:Middlewares/Third_Party/LwIP/src/core/tcp.c ****  * 2. Redistributions in binary form must reproduce the above copyright notice,
  26:Middlewares/Third_Party/LwIP/src/core/tcp.c ****  *    this list of conditions and the following disclaimer in the documentation
  27:Middlewares/Third_Party/LwIP/src/core/tcp.c ****  *    and/or other materials provided with the distribution.
  28:Middlewares/Third_Party/LwIP/src/core/tcp.c ****  * 3. The name of the author may not be used to endorse or promote products
  29:Middlewares/Third_Party/LwIP/src/core/tcp.c ****  *    derived from this software without specific prior written permission.
  30:Middlewares/Third_Party/LwIP/src/core/tcp.c ****  *
  31:Middlewares/Third_Party/LwIP/src/core/tcp.c ****  * THIS SOFTWARE IS PROVIDED BY THE AUTHOR ``AS IS'' AND ANY EXPRESS OR IMPLIED
  32:Middlewares/Third_Party/LwIP/src/core/tcp.c ****  * WARRANTIES, INCLUDING, BUT NOT LIMITED TO, THE IMPLIED WARRANTIES OF
ARM GAS  C:\Users\Patryk\AppData\Local\Temp\cc1Vd65O.s 			page 2


  33:Middlewares/Third_Party/LwIP/src/core/tcp.c ****  * MERCHANTABILITY AND FITNESS FOR A PARTICULAR PURPOSE ARE DISCLAIMED. IN NO EVENT
  34:Middlewares/Third_Party/LwIP/src/core/tcp.c ****  * SHALL THE AUTHOR BE LIABLE FOR ANY DIRECT, INDIRECT, INCIDENTAL, SPECIAL,
  35:Middlewares/Third_Party/LwIP/src/core/tcp.c ****  * EXEMPLARY, OR CONSEQUENTIAL DAMAGES (INCLUDING, BUT NOT LIMITED TO, PROCUREMENT
  36:Middlewares/Third_Party/LwIP/src/core/tcp.c ****  * OF SUBSTITUTE GOODS OR SERVICES; LOSS OF USE, DATA, OR PROFITS; OR BUSINESS
  37:Middlewares/Third_Party/LwIP/src/core/tcp.c ****  * INTERRUPTION) HOWEVER CAUSED AND ON ANY THEORY OF LIABILITY, WHETHER IN
  38:Middlewares/Third_Party/LwIP/src/core/tcp.c ****  * CONTRACT, STRICT LIABILITY, OR TORT (INCLUDING NEGLIGENCE OR OTHERWISE) ARISING
  39:Middlewares/Third_Party/LwIP/src/core/tcp.c ****  * IN ANY WAY OUT OF THE USE OF THIS SOFTWARE, EVEN IF ADVISED OF THE POSSIBILITY
  40:Middlewares/Third_Party/LwIP/src/core/tcp.c ****  * OF SUCH DAMAGE.
  41:Middlewares/Third_Party/LwIP/src/core/tcp.c ****  *
  42:Middlewares/Third_Party/LwIP/src/core/tcp.c ****  * This file is part of the lwIP TCP/IP stack.
  43:Middlewares/Third_Party/LwIP/src/core/tcp.c ****  *
  44:Middlewares/Third_Party/LwIP/src/core/tcp.c ****  * Author: Adam Dunkels <adam@sics.se>
  45:Middlewares/Third_Party/LwIP/src/core/tcp.c ****  *
  46:Middlewares/Third_Party/LwIP/src/core/tcp.c ****  */
  47:Middlewares/Third_Party/LwIP/src/core/tcp.c **** 
  48:Middlewares/Third_Party/LwIP/src/core/tcp.c **** #include "lwip/opt.h"
  49:Middlewares/Third_Party/LwIP/src/core/tcp.c **** 
  50:Middlewares/Third_Party/LwIP/src/core/tcp.c **** #if LWIP_TCP /* don't build if not configured for use in lwipopts.h */
  51:Middlewares/Third_Party/LwIP/src/core/tcp.c **** 
  52:Middlewares/Third_Party/LwIP/src/core/tcp.c **** #include "lwip/def.h"
  53:Middlewares/Third_Party/LwIP/src/core/tcp.c **** #include "lwip/mem.h"
  54:Middlewares/Third_Party/LwIP/src/core/tcp.c **** #include "lwip/memp.h"
  55:Middlewares/Third_Party/LwIP/src/core/tcp.c **** #include "lwip/tcp.h"
  56:Middlewares/Third_Party/LwIP/src/core/tcp.c **** #include "lwip/priv/tcp_priv.h"
  57:Middlewares/Third_Party/LwIP/src/core/tcp.c **** #include "lwip/debug.h"
  58:Middlewares/Third_Party/LwIP/src/core/tcp.c **** #include "lwip/stats.h"
  59:Middlewares/Third_Party/LwIP/src/core/tcp.c **** #include "lwip/ip6.h"
  60:Middlewares/Third_Party/LwIP/src/core/tcp.c **** #include "lwip/ip6_addr.h"
  61:Middlewares/Third_Party/LwIP/src/core/tcp.c **** #include "lwip/nd6.h"
  62:Middlewares/Third_Party/LwIP/src/core/tcp.c **** 
  63:Middlewares/Third_Party/LwIP/src/core/tcp.c **** #include <string.h>
  64:Middlewares/Third_Party/LwIP/src/core/tcp.c **** 
  65:Middlewares/Third_Party/LwIP/src/core/tcp.c **** #ifdef LWIP_HOOK_FILENAME
  66:Middlewares/Third_Party/LwIP/src/core/tcp.c **** #include LWIP_HOOK_FILENAME
  67:Middlewares/Third_Party/LwIP/src/core/tcp.c **** #endif
  68:Middlewares/Third_Party/LwIP/src/core/tcp.c **** 
  69:Middlewares/Third_Party/LwIP/src/core/tcp.c **** #ifndef TCP_LOCAL_PORT_RANGE_START
  70:Middlewares/Third_Party/LwIP/src/core/tcp.c **** /* From http://www.iana.org/assignments/port-numbers:
  71:Middlewares/Third_Party/LwIP/src/core/tcp.c ****    "The Dynamic and/or Private Ports are those from 49152 through 65535" */
  72:Middlewares/Third_Party/LwIP/src/core/tcp.c **** #define TCP_LOCAL_PORT_RANGE_START        0xc000
  73:Middlewares/Third_Party/LwIP/src/core/tcp.c **** #define TCP_LOCAL_PORT_RANGE_END          0xffff
  74:Middlewares/Third_Party/LwIP/src/core/tcp.c **** #define TCP_ENSURE_LOCAL_PORT_RANGE(port) ((u16_t)(((port) & ~TCP_LOCAL_PORT_RANGE_START) + TCP_LOC
  75:Middlewares/Third_Party/LwIP/src/core/tcp.c **** #endif
  76:Middlewares/Third_Party/LwIP/src/core/tcp.c **** 
  77:Middlewares/Third_Party/LwIP/src/core/tcp.c **** #if LWIP_TCP_KEEPALIVE
  78:Middlewares/Third_Party/LwIP/src/core/tcp.c **** #define TCP_KEEP_DUR(pcb)   ((pcb)->keep_cnt * (pcb)->keep_intvl)
  79:Middlewares/Third_Party/LwIP/src/core/tcp.c **** #define TCP_KEEP_INTVL(pcb) ((pcb)->keep_intvl)
  80:Middlewares/Third_Party/LwIP/src/core/tcp.c **** #else /* LWIP_TCP_KEEPALIVE */
  81:Middlewares/Third_Party/LwIP/src/core/tcp.c **** #define TCP_KEEP_DUR(pcb)   TCP_MAXIDLE
  82:Middlewares/Third_Party/LwIP/src/core/tcp.c **** #define TCP_KEEP_INTVL(pcb) TCP_KEEPINTVL_DEFAULT
  83:Middlewares/Third_Party/LwIP/src/core/tcp.c **** #endif /* LWIP_TCP_KEEPALIVE */
  84:Middlewares/Third_Party/LwIP/src/core/tcp.c **** 
  85:Middlewares/Third_Party/LwIP/src/core/tcp.c **** /* As initial send MSS, we use TCP_MSS but limit it to 536. */
  86:Middlewares/Third_Party/LwIP/src/core/tcp.c **** #if TCP_MSS > 536
  87:Middlewares/Third_Party/LwIP/src/core/tcp.c **** #define INITIAL_MSS 536
  88:Middlewares/Third_Party/LwIP/src/core/tcp.c **** #else
  89:Middlewares/Third_Party/LwIP/src/core/tcp.c **** #define INITIAL_MSS TCP_MSS
ARM GAS  C:\Users\Patryk\AppData\Local\Temp\cc1Vd65O.s 			page 3


  90:Middlewares/Third_Party/LwIP/src/core/tcp.c **** #endif
  91:Middlewares/Third_Party/LwIP/src/core/tcp.c **** 
  92:Middlewares/Third_Party/LwIP/src/core/tcp.c **** static const char * const tcp_state_str[] = {
  93:Middlewares/Third_Party/LwIP/src/core/tcp.c ****   "CLOSED",
  94:Middlewares/Third_Party/LwIP/src/core/tcp.c ****   "LISTEN",
  95:Middlewares/Third_Party/LwIP/src/core/tcp.c ****   "SYN_SENT",
  96:Middlewares/Third_Party/LwIP/src/core/tcp.c ****   "SYN_RCVD",
  97:Middlewares/Third_Party/LwIP/src/core/tcp.c ****   "ESTABLISHED",
  98:Middlewares/Third_Party/LwIP/src/core/tcp.c ****   "FIN_WAIT_1",
  99:Middlewares/Third_Party/LwIP/src/core/tcp.c ****   "FIN_WAIT_2",
 100:Middlewares/Third_Party/LwIP/src/core/tcp.c ****   "CLOSE_WAIT",
 101:Middlewares/Third_Party/LwIP/src/core/tcp.c ****   "CLOSING",
 102:Middlewares/Third_Party/LwIP/src/core/tcp.c ****   "LAST_ACK",
 103:Middlewares/Third_Party/LwIP/src/core/tcp.c ****   "TIME_WAIT"
 104:Middlewares/Third_Party/LwIP/src/core/tcp.c **** };
 105:Middlewares/Third_Party/LwIP/src/core/tcp.c **** 
 106:Middlewares/Third_Party/LwIP/src/core/tcp.c **** /* last local TCP port */
 107:Middlewares/Third_Party/LwIP/src/core/tcp.c **** static u16_t tcp_port = TCP_LOCAL_PORT_RANGE_START;
 108:Middlewares/Third_Party/LwIP/src/core/tcp.c **** 
 109:Middlewares/Third_Party/LwIP/src/core/tcp.c **** /* Incremented every coarse grained timer shot (typically every 500 ms). */
 110:Middlewares/Third_Party/LwIP/src/core/tcp.c **** u32_t tcp_ticks;
 111:Middlewares/Third_Party/LwIP/src/core/tcp.c **** static const u8_t tcp_backoff[13] =
 112:Middlewares/Third_Party/LwIP/src/core/tcp.c ****     { 1, 2, 3, 4, 5, 6, 7, 7, 7, 7, 7, 7, 7};
 113:Middlewares/Third_Party/LwIP/src/core/tcp.c ****  /* Times per slowtmr hits */
 114:Middlewares/Third_Party/LwIP/src/core/tcp.c **** static const u8_t tcp_persist_backoff[7] = { 3, 6, 12, 24, 48, 96, 120 };
 115:Middlewares/Third_Party/LwIP/src/core/tcp.c **** 
 116:Middlewares/Third_Party/LwIP/src/core/tcp.c **** /* The TCP PCB lists. */
 117:Middlewares/Third_Party/LwIP/src/core/tcp.c **** 
 118:Middlewares/Third_Party/LwIP/src/core/tcp.c **** /** List of all TCP PCBs bound but not yet (connected || listening) */
 119:Middlewares/Third_Party/LwIP/src/core/tcp.c **** struct tcp_pcb *tcp_bound_pcbs;
 120:Middlewares/Third_Party/LwIP/src/core/tcp.c **** /** List of all TCP PCBs in LISTEN state */
 121:Middlewares/Third_Party/LwIP/src/core/tcp.c **** union tcp_listen_pcbs_t tcp_listen_pcbs;
 122:Middlewares/Third_Party/LwIP/src/core/tcp.c **** /** List of all TCP PCBs that are in a state in which
 123:Middlewares/Third_Party/LwIP/src/core/tcp.c ****  * they accept or send data. */
 124:Middlewares/Third_Party/LwIP/src/core/tcp.c **** struct tcp_pcb *tcp_active_pcbs;
 125:Middlewares/Third_Party/LwIP/src/core/tcp.c **** /** List of all TCP PCBs in TIME-WAIT state */
 126:Middlewares/Third_Party/LwIP/src/core/tcp.c **** struct tcp_pcb *tcp_tw_pcbs;
 127:Middlewares/Third_Party/LwIP/src/core/tcp.c **** 
 128:Middlewares/Third_Party/LwIP/src/core/tcp.c **** /** An array with all (non-temporary) PCB lists, mainly used for smaller code size */
 129:Middlewares/Third_Party/LwIP/src/core/tcp.c **** struct tcp_pcb ** const tcp_pcb_lists[] = {&tcp_listen_pcbs.pcbs, &tcp_bound_pcbs,
 130:Middlewares/Third_Party/LwIP/src/core/tcp.c ****   &tcp_active_pcbs, &tcp_tw_pcbs};
 131:Middlewares/Third_Party/LwIP/src/core/tcp.c **** 
 132:Middlewares/Third_Party/LwIP/src/core/tcp.c **** u8_t tcp_active_pcbs_changed;
 133:Middlewares/Third_Party/LwIP/src/core/tcp.c **** 
 134:Middlewares/Third_Party/LwIP/src/core/tcp.c **** /** Timer counter to handle calling slow-timer from tcp_tmr() */
 135:Middlewares/Third_Party/LwIP/src/core/tcp.c **** static u8_t tcp_timer;
 136:Middlewares/Third_Party/LwIP/src/core/tcp.c **** static u8_t tcp_timer_ctr;
 137:Middlewares/Third_Party/LwIP/src/core/tcp.c **** static u16_t tcp_new_port(void);
 138:Middlewares/Third_Party/LwIP/src/core/tcp.c **** 
 139:Middlewares/Third_Party/LwIP/src/core/tcp.c **** static err_t tcp_close_shutdown_fin(struct tcp_pcb *pcb);
 140:Middlewares/Third_Party/LwIP/src/core/tcp.c **** 
 141:Middlewares/Third_Party/LwIP/src/core/tcp.c **** /**
 142:Middlewares/Third_Party/LwIP/src/core/tcp.c ****  * Initialize this module.
 143:Middlewares/Third_Party/LwIP/src/core/tcp.c ****  */
 144:Middlewares/Third_Party/LwIP/src/core/tcp.c **** void
 145:Middlewares/Third_Party/LwIP/src/core/tcp.c **** tcp_init(void)
 146:Middlewares/Third_Party/LwIP/src/core/tcp.c **** {
ARM GAS  C:\Users\Patryk\AppData\Local\Temp\cc1Vd65O.s 			page 4


 147:Middlewares/Third_Party/LwIP/src/core/tcp.c **** #if LWIP_RANDOMIZE_INITIAL_LOCAL_PORTS && defined(LWIP_RAND)
 148:Middlewares/Third_Party/LwIP/src/core/tcp.c ****   tcp_port = TCP_ENSURE_LOCAL_PORT_RANGE(LWIP_RAND());
 149:Middlewares/Third_Party/LwIP/src/core/tcp.c **** #endif /* LWIP_RANDOMIZE_INITIAL_LOCAL_PORTS && defined(LWIP_RAND) */
 150:Middlewares/Third_Party/LwIP/src/core/tcp.c **** }
 151:Middlewares/Third_Party/LwIP/src/core/tcp.c **** 
 152:Middlewares/Third_Party/LwIP/src/core/tcp.c **** /**
 153:Middlewares/Third_Party/LwIP/src/core/tcp.c ****  * Called periodically to dispatch TCP timers.
 154:Middlewares/Third_Party/LwIP/src/core/tcp.c ****  */
 155:Middlewares/Third_Party/LwIP/src/core/tcp.c **** void
 156:Middlewares/Third_Party/LwIP/src/core/tcp.c **** tcp_tmr(void)
 157:Middlewares/Third_Party/LwIP/src/core/tcp.c **** {
 158:Middlewares/Third_Party/LwIP/src/core/tcp.c ****   /* Call tcp_fasttmr() every 250 ms */
 159:Middlewares/Third_Party/LwIP/src/core/tcp.c ****   tcp_fasttmr();
 160:Middlewares/Third_Party/LwIP/src/core/tcp.c **** 
 161:Middlewares/Third_Party/LwIP/src/core/tcp.c ****   if (++tcp_timer & 1) {
 162:Middlewares/Third_Party/LwIP/src/core/tcp.c ****     /* Call tcp_slowtmr() every 500 ms, i.e., every other timer
 163:Middlewares/Third_Party/LwIP/src/core/tcp.c ****        tcp_tmr() is called. */
 164:Middlewares/Third_Party/LwIP/src/core/tcp.c ****     tcp_slowtmr();
 165:Middlewares/Third_Party/LwIP/src/core/tcp.c ****   }
 166:Middlewares/Third_Party/LwIP/src/core/tcp.c **** }
 167:Middlewares/Third_Party/LwIP/src/core/tcp.c **** 
 168:Middlewares/Third_Party/LwIP/src/core/tcp.c **** #if LWIP_CALLBACK_API || TCP_LISTEN_BACKLOG
 169:Middlewares/Third_Party/LwIP/src/core/tcp.c **** /** Called when a listen pcb is closed. Iterates one pcb list and removes the
 170:Middlewares/Third_Party/LwIP/src/core/tcp.c ****  * closed listener pcb from pcb->listener if matching.
 171:Middlewares/Third_Party/LwIP/src/core/tcp.c ****  */
 172:Middlewares/Third_Party/LwIP/src/core/tcp.c **** static void
 173:Middlewares/Third_Party/LwIP/src/core/tcp.c **** tcp_remove_listener(struct tcp_pcb *list, struct tcp_pcb_listen *lpcb)
 174:Middlewares/Third_Party/LwIP/src/core/tcp.c **** {
  27              		.loc 1 174 0
  28              		.cfi_startproc
  29              		@ args = 0, pretend = 0, frame = 0
  30              		@ frame_needed = 0, uses_anonymous_args = 0
  31              		@ link register save eliminated.
  32              	.LVL0:
 175:Middlewares/Third_Party/LwIP/src/core/tcp.c ****    struct tcp_pcb *pcb;
 176:Middlewares/Third_Party/LwIP/src/core/tcp.c ****    for (pcb = list; pcb != NULL; pcb = pcb->next) {
  33              		.loc 1 176 0
  34 0000 00E0     		b	.L2
  35              	.LVL1:
  36              	.L3:
  37              		.loc 1 176 0 is_stmt 0 discriminator 2
  38 0002 C068     		ldr	r0, [r0, #12]
  39              	.LVL2:
  40              	.L2:
  41              		.loc 1 176 0 discriminator 1
  42 0004 28B1     		cbz	r0, .L5
 177:Middlewares/Third_Party/LwIP/src/core/tcp.c ****       if (pcb->listener == lpcb) {
  43              		.loc 1 177 0 is_stmt 1
  44 0006 836F     		ldr	r3, [r0, #120]
  45 0008 8B42     		cmp	r3, r1
  46 000a FAD1     		bne	.L3
 178:Middlewares/Third_Party/LwIP/src/core/tcp.c ****          pcb->listener = NULL;
  47              		.loc 1 178 0
  48 000c 0023     		movs	r3, #0
  49 000e 8367     		str	r3, [r0, #120]
  50 0010 F7E7     		b	.L3
  51              	.L5:
ARM GAS  C:\Users\Patryk\AppData\Local\Temp\cc1Vd65O.s 			page 5


 179:Middlewares/Third_Party/LwIP/src/core/tcp.c ****       }
 180:Middlewares/Third_Party/LwIP/src/core/tcp.c ****    }
 181:Middlewares/Third_Party/LwIP/src/core/tcp.c **** }
  52              		.loc 1 181 0
  53 0012 7047     		bx	lr
  54              		.cfi_endproc
  55              	.LFE156:
  57              		.section	.text.tcp_new_port,"ax",%progbits
  58              		.align	1
  59              		.syntax unified
  60              		.thumb
  61              		.thumb_func
  62              		.fpu fpv5-sp-d16
  64              	tcp_new_port:
  65              	.LFB170:
 182:Middlewares/Third_Party/LwIP/src/core/tcp.c **** #endif
 183:Middlewares/Third_Party/LwIP/src/core/tcp.c **** 
 184:Middlewares/Third_Party/LwIP/src/core/tcp.c **** /** Called when a listen pcb is closed. Iterates all pcb lists and removes the
 185:Middlewares/Third_Party/LwIP/src/core/tcp.c ****  * closed listener pcb from pcb->listener if matching.
 186:Middlewares/Third_Party/LwIP/src/core/tcp.c ****  */
 187:Middlewares/Third_Party/LwIP/src/core/tcp.c **** static void
 188:Middlewares/Third_Party/LwIP/src/core/tcp.c **** tcp_listen_closed(struct tcp_pcb *pcb)
 189:Middlewares/Third_Party/LwIP/src/core/tcp.c **** {
 190:Middlewares/Third_Party/LwIP/src/core/tcp.c **** #if LWIP_CALLBACK_API || TCP_LISTEN_BACKLOG
 191:Middlewares/Third_Party/LwIP/src/core/tcp.c ****   size_t i;
 192:Middlewares/Third_Party/LwIP/src/core/tcp.c ****   LWIP_ASSERT("pcb != NULL", pcb != NULL);
 193:Middlewares/Third_Party/LwIP/src/core/tcp.c ****   LWIP_ASSERT("pcb->state == LISTEN", pcb->state == LISTEN);
 194:Middlewares/Third_Party/LwIP/src/core/tcp.c ****   for (i = 1; i < LWIP_ARRAYSIZE(tcp_pcb_lists); i++) {
 195:Middlewares/Third_Party/LwIP/src/core/tcp.c ****     tcp_remove_listener(*tcp_pcb_lists[i], (struct tcp_pcb_listen*)pcb);
 196:Middlewares/Third_Party/LwIP/src/core/tcp.c ****   }
 197:Middlewares/Third_Party/LwIP/src/core/tcp.c **** #endif
 198:Middlewares/Third_Party/LwIP/src/core/tcp.c ****   LWIP_UNUSED_ARG(pcb);
 199:Middlewares/Third_Party/LwIP/src/core/tcp.c **** }
 200:Middlewares/Third_Party/LwIP/src/core/tcp.c **** 
 201:Middlewares/Third_Party/LwIP/src/core/tcp.c **** #if TCP_LISTEN_BACKLOG
 202:Middlewares/Third_Party/LwIP/src/core/tcp.c **** /** @ingroup tcp_raw
 203:Middlewares/Third_Party/LwIP/src/core/tcp.c ****  * Delay accepting a connection in respect to the listen backlog:
 204:Middlewares/Third_Party/LwIP/src/core/tcp.c ****  * the number of outstanding connections is increased until
 205:Middlewares/Third_Party/LwIP/src/core/tcp.c ****  * tcp_backlog_accepted() is called.
 206:Middlewares/Third_Party/LwIP/src/core/tcp.c ****  *
 207:Middlewares/Third_Party/LwIP/src/core/tcp.c ****  * ATTENTION: the caller is responsible for calling tcp_backlog_accepted()
 208:Middlewares/Third_Party/LwIP/src/core/tcp.c ****  * or else the backlog feature will get out of sync!
 209:Middlewares/Third_Party/LwIP/src/core/tcp.c ****  *
 210:Middlewares/Third_Party/LwIP/src/core/tcp.c ****  * @param pcb the connection pcb which is not fully accepted yet
 211:Middlewares/Third_Party/LwIP/src/core/tcp.c ****  */
 212:Middlewares/Third_Party/LwIP/src/core/tcp.c **** void
 213:Middlewares/Third_Party/LwIP/src/core/tcp.c **** tcp_backlog_delayed(struct tcp_pcb* pcb)
 214:Middlewares/Third_Party/LwIP/src/core/tcp.c **** {
 215:Middlewares/Third_Party/LwIP/src/core/tcp.c ****   LWIP_ASSERT("pcb != NULL", pcb != NULL);
 216:Middlewares/Third_Party/LwIP/src/core/tcp.c ****   if ((pcb->flags & TF_BACKLOGPEND) == 0) {
 217:Middlewares/Third_Party/LwIP/src/core/tcp.c ****     if (pcb->listener != NULL) {
 218:Middlewares/Third_Party/LwIP/src/core/tcp.c ****       pcb->listener->accepts_pending++;
 219:Middlewares/Third_Party/LwIP/src/core/tcp.c ****       LWIP_ASSERT("accepts_pending != 0", pcb->listener->accepts_pending != 0);
 220:Middlewares/Third_Party/LwIP/src/core/tcp.c ****       pcb->flags |= TF_BACKLOGPEND;
 221:Middlewares/Third_Party/LwIP/src/core/tcp.c ****     }
 222:Middlewares/Third_Party/LwIP/src/core/tcp.c ****   }
 223:Middlewares/Third_Party/LwIP/src/core/tcp.c **** }
ARM GAS  C:\Users\Patryk\AppData\Local\Temp\cc1Vd65O.s 			page 6


 224:Middlewares/Third_Party/LwIP/src/core/tcp.c **** 
 225:Middlewares/Third_Party/LwIP/src/core/tcp.c **** /** @ingroup tcp_raw
 226:Middlewares/Third_Party/LwIP/src/core/tcp.c ****  * A delayed-accept a connection is accepted (or closed/aborted): decreases
 227:Middlewares/Third_Party/LwIP/src/core/tcp.c ****  * the number of outstanding connections after calling tcp_backlog_delayed().
 228:Middlewares/Third_Party/LwIP/src/core/tcp.c ****  *
 229:Middlewares/Third_Party/LwIP/src/core/tcp.c ****  * ATTENTION: the caller is responsible for calling tcp_backlog_accepted()
 230:Middlewares/Third_Party/LwIP/src/core/tcp.c ****  * or else the backlog feature will get out of sync!
 231:Middlewares/Third_Party/LwIP/src/core/tcp.c ****  *
 232:Middlewares/Third_Party/LwIP/src/core/tcp.c ****  * @param pcb the connection pcb which is now fully accepted (or closed/aborted)
 233:Middlewares/Third_Party/LwIP/src/core/tcp.c ****  */
 234:Middlewares/Third_Party/LwIP/src/core/tcp.c **** void
 235:Middlewares/Third_Party/LwIP/src/core/tcp.c **** tcp_backlog_accepted(struct tcp_pcb* pcb)
 236:Middlewares/Third_Party/LwIP/src/core/tcp.c **** {
 237:Middlewares/Third_Party/LwIP/src/core/tcp.c ****   LWIP_ASSERT("pcb != NULL", pcb != NULL);
 238:Middlewares/Third_Party/LwIP/src/core/tcp.c ****   if ((pcb->flags & TF_BACKLOGPEND) != 0) {
 239:Middlewares/Third_Party/LwIP/src/core/tcp.c ****     if (pcb->listener != NULL) {
 240:Middlewares/Third_Party/LwIP/src/core/tcp.c ****       LWIP_ASSERT("accepts_pending != 0", pcb->listener->accepts_pending != 0);
 241:Middlewares/Third_Party/LwIP/src/core/tcp.c ****       pcb->listener->accepts_pending--;
 242:Middlewares/Third_Party/LwIP/src/core/tcp.c ****       pcb->flags &= ~TF_BACKLOGPEND;
 243:Middlewares/Third_Party/LwIP/src/core/tcp.c ****     }
 244:Middlewares/Third_Party/LwIP/src/core/tcp.c ****   }
 245:Middlewares/Third_Party/LwIP/src/core/tcp.c **** }
 246:Middlewares/Third_Party/LwIP/src/core/tcp.c **** #endif /* TCP_LISTEN_BACKLOG */
 247:Middlewares/Third_Party/LwIP/src/core/tcp.c **** 
 248:Middlewares/Third_Party/LwIP/src/core/tcp.c **** /**
 249:Middlewares/Third_Party/LwIP/src/core/tcp.c ****  * Closes the TX side of a connection held by the PCB.
 250:Middlewares/Third_Party/LwIP/src/core/tcp.c ****  * For tcp_close(), a RST is sent if the application didn't receive all data
 251:Middlewares/Third_Party/LwIP/src/core/tcp.c ****  * (tcp_recved() not called for all data passed to recv callback).
 252:Middlewares/Third_Party/LwIP/src/core/tcp.c ****  *
 253:Middlewares/Third_Party/LwIP/src/core/tcp.c ****  * Listening pcbs are freed and may not be referenced any more.
 254:Middlewares/Third_Party/LwIP/src/core/tcp.c ****  * Connection pcbs are freed if not yet connected and may not be referenced
 255:Middlewares/Third_Party/LwIP/src/core/tcp.c ****  * any more. If a connection is established (at least SYN received or in
 256:Middlewares/Third_Party/LwIP/src/core/tcp.c ****  * a closing state), the connection is closed, and put in a closing state.
 257:Middlewares/Third_Party/LwIP/src/core/tcp.c ****  * The pcb is then automatically freed in tcp_slowtmr(). It is therefore
 258:Middlewares/Third_Party/LwIP/src/core/tcp.c ****  * unsafe to reference it.
 259:Middlewares/Third_Party/LwIP/src/core/tcp.c ****  *
 260:Middlewares/Third_Party/LwIP/src/core/tcp.c ****  * @param pcb the tcp_pcb to close
 261:Middlewares/Third_Party/LwIP/src/core/tcp.c ****  * @return ERR_OK if connection has been closed
 262:Middlewares/Third_Party/LwIP/src/core/tcp.c ****  *         another err_t if closing failed and pcb is not freed
 263:Middlewares/Third_Party/LwIP/src/core/tcp.c ****  */
 264:Middlewares/Third_Party/LwIP/src/core/tcp.c **** static err_t
 265:Middlewares/Third_Party/LwIP/src/core/tcp.c **** tcp_close_shutdown(struct tcp_pcb *pcb, u8_t rst_on_unacked_data)
 266:Middlewares/Third_Party/LwIP/src/core/tcp.c **** {
 267:Middlewares/Third_Party/LwIP/src/core/tcp.c ****   if (rst_on_unacked_data && ((pcb->state == ESTABLISHED) || (pcb->state == CLOSE_WAIT))) {
 268:Middlewares/Third_Party/LwIP/src/core/tcp.c ****     if ((pcb->refused_data != NULL) || (pcb->rcv_wnd != TCP_WND_MAX(pcb))) {
 269:Middlewares/Third_Party/LwIP/src/core/tcp.c ****       /* Not all data received by application, send RST to tell the remote
 270:Middlewares/Third_Party/LwIP/src/core/tcp.c ****          side about this. */
 271:Middlewares/Third_Party/LwIP/src/core/tcp.c ****       LWIP_ASSERT("pcb->flags & TF_RXCLOSED", pcb->flags & TF_RXCLOSED);
 272:Middlewares/Third_Party/LwIP/src/core/tcp.c **** 
 273:Middlewares/Third_Party/LwIP/src/core/tcp.c ****       /* don't call tcp_abort here: we must not deallocate the pcb since
 274:Middlewares/Third_Party/LwIP/src/core/tcp.c ****          that might not be expected when calling tcp_close */
 275:Middlewares/Third_Party/LwIP/src/core/tcp.c ****       tcp_rst(pcb->snd_nxt, pcb->rcv_nxt, &pcb->local_ip, &pcb->remote_ip,
 276:Middlewares/Third_Party/LwIP/src/core/tcp.c ****                pcb->local_port, pcb->remote_port);
 277:Middlewares/Third_Party/LwIP/src/core/tcp.c **** 
 278:Middlewares/Third_Party/LwIP/src/core/tcp.c ****       tcp_pcb_purge(pcb);
 279:Middlewares/Third_Party/LwIP/src/core/tcp.c ****       TCP_RMV_ACTIVE(pcb);
 280:Middlewares/Third_Party/LwIP/src/core/tcp.c ****       if (pcb->state == ESTABLISHED) {
ARM GAS  C:\Users\Patryk\AppData\Local\Temp\cc1Vd65O.s 			page 7


 281:Middlewares/Third_Party/LwIP/src/core/tcp.c ****         /* move to TIME_WAIT since we close actively */
 282:Middlewares/Third_Party/LwIP/src/core/tcp.c ****         pcb->state = TIME_WAIT;
 283:Middlewares/Third_Party/LwIP/src/core/tcp.c ****         TCP_REG(&tcp_tw_pcbs, pcb);
 284:Middlewares/Third_Party/LwIP/src/core/tcp.c ****       } else {
 285:Middlewares/Third_Party/LwIP/src/core/tcp.c ****         /* CLOSE_WAIT: deallocate the pcb since we already sent a RST for it */
 286:Middlewares/Third_Party/LwIP/src/core/tcp.c ****         if (tcp_input_pcb == pcb) {
 287:Middlewares/Third_Party/LwIP/src/core/tcp.c ****           /* prevent using a deallocated pcb: free it from tcp_input later */
 288:Middlewares/Third_Party/LwIP/src/core/tcp.c ****           tcp_trigger_input_pcb_close();
 289:Middlewares/Third_Party/LwIP/src/core/tcp.c ****         } else {
 290:Middlewares/Third_Party/LwIP/src/core/tcp.c ****           memp_free(MEMP_TCP_PCB, pcb);
 291:Middlewares/Third_Party/LwIP/src/core/tcp.c ****         }
 292:Middlewares/Third_Party/LwIP/src/core/tcp.c ****       }
 293:Middlewares/Third_Party/LwIP/src/core/tcp.c ****       return ERR_OK;
 294:Middlewares/Third_Party/LwIP/src/core/tcp.c ****     }
 295:Middlewares/Third_Party/LwIP/src/core/tcp.c ****   }
 296:Middlewares/Third_Party/LwIP/src/core/tcp.c **** 
 297:Middlewares/Third_Party/LwIP/src/core/tcp.c ****   /* - states which free the pcb are handled here,
 298:Middlewares/Third_Party/LwIP/src/core/tcp.c ****      - states which send FIN and change state are handled in tcp_close_shutdown_fin() */
 299:Middlewares/Third_Party/LwIP/src/core/tcp.c ****   switch (pcb->state) {
 300:Middlewares/Third_Party/LwIP/src/core/tcp.c ****   case CLOSED:
 301:Middlewares/Third_Party/LwIP/src/core/tcp.c ****     /* Closing a pcb in the CLOSED state might seem erroneous,
 302:Middlewares/Third_Party/LwIP/src/core/tcp.c ****      * however, it is in this state once allocated and as yet unused
 303:Middlewares/Third_Party/LwIP/src/core/tcp.c ****      * and the user needs some way to free it should the need arise.
 304:Middlewares/Third_Party/LwIP/src/core/tcp.c ****      * Calling tcp_close() with a pcb that has already been closed, (i.e. twice)
 305:Middlewares/Third_Party/LwIP/src/core/tcp.c ****      * or for a pcb that has been used and then entered the CLOSED state
 306:Middlewares/Third_Party/LwIP/src/core/tcp.c ****      * is erroneous, but this should never happen as the pcb has in those cases
 307:Middlewares/Third_Party/LwIP/src/core/tcp.c ****      * been freed, and so any remaining handles are bogus. */
 308:Middlewares/Third_Party/LwIP/src/core/tcp.c ****     if (pcb->local_port != 0) {
 309:Middlewares/Third_Party/LwIP/src/core/tcp.c ****       TCP_RMV(&tcp_bound_pcbs, pcb);
 310:Middlewares/Third_Party/LwIP/src/core/tcp.c ****     }
 311:Middlewares/Third_Party/LwIP/src/core/tcp.c ****     memp_free(MEMP_TCP_PCB, pcb);
 312:Middlewares/Third_Party/LwIP/src/core/tcp.c ****     break;
 313:Middlewares/Third_Party/LwIP/src/core/tcp.c ****   case LISTEN:
 314:Middlewares/Third_Party/LwIP/src/core/tcp.c ****     tcp_listen_closed(pcb);
 315:Middlewares/Third_Party/LwIP/src/core/tcp.c ****     tcp_pcb_remove(&tcp_listen_pcbs.pcbs, pcb);
 316:Middlewares/Third_Party/LwIP/src/core/tcp.c ****     memp_free(MEMP_TCP_PCB_LISTEN, pcb);
 317:Middlewares/Third_Party/LwIP/src/core/tcp.c ****     break;
 318:Middlewares/Third_Party/LwIP/src/core/tcp.c ****   case SYN_SENT:
 319:Middlewares/Third_Party/LwIP/src/core/tcp.c ****     TCP_PCB_REMOVE_ACTIVE(pcb);
 320:Middlewares/Third_Party/LwIP/src/core/tcp.c ****     memp_free(MEMP_TCP_PCB, pcb);
 321:Middlewares/Third_Party/LwIP/src/core/tcp.c ****     MIB2_STATS_INC(mib2.tcpattemptfails);
 322:Middlewares/Third_Party/LwIP/src/core/tcp.c ****     break;
 323:Middlewares/Third_Party/LwIP/src/core/tcp.c ****   default:
 324:Middlewares/Third_Party/LwIP/src/core/tcp.c ****     return tcp_close_shutdown_fin(pcb);
 325:Middlewares/Third_Party/LwIP/src/core/tcp.c ****   }
 326:Middlewares/Third_Party/LwIP/src/core/tcp.c ****   return ERR_OK;
 327:Middlewares/Third_Party/LwIP/src/core/tcp.c **** }
 328:Middlewares/Third_Party/LwIP/src/core/tcp.c **** 
 329:Middlewares/Third_Party/LwIP/src/core/tcp.c **** static err_t
 330:Middlewares/Third_Party/LwIP/src/core/tcp.c **** tcp_close_shutdown_fin(struct tcp_pcb *pcb)
 331:Middlewares/Third_Party/LwIP/src/core/tcp.c **** {
 332:Middlewares/Third_Party/LwIP/src/core/tcp.c ****   err_t err;
 333:Middlewares/Third_Party/LwIP/src/core/tcp.c ****   LWIP_ASSERT("pcb != NULL", pcb != NULL);
 334:Middlewares/Third_Party/LwIP/src/core/tcp.c **** 
 335:Middlewares/Third_Party/LwIP/src/core/tcp.c ****   switch (pcb->state) {
 336:Middlewares/Third_Party/LwIP/src/core/tcp.c ****   case SYN_RCVD:
 337:Middlewares/Third_Party/LwIP/src/core/tcp.c ****     err = tcp_send_fin(pcb);
ARM GAS  C:\Users\Patryk\AppData\Local\Temp\cc1Vd65O.s 			page 8


 338:Middlewares/Third_Party/LwIP/src/core/tcp.c ****     if (err == ERR_OK) {
 339:Middlewares/Third_Party/LwIP/src/core/tcp.c ****       tcp_backlog_accepted(pcb);
 340:Middlewares/Third_Party/LwIP/src/core/tcp.c ****       MIB2_STATS_INC(mib2.tcpattemptfails);
 341:Middlewares/Third_Party/LwIP/src/core/tcp.c ****       pcb->state = FIN_WAIT_1;
 342:Middlewares/Third_Party/LwIP/src/core/tcp.c ****     }
 343:Middlewares/Third_Party/LwIP/src/core/tcp.c ****     break;
 344:Middlewares/Third_Party/LwIP/src/core/tcp.c ****   case ESTABLISHED:
 345:Middlewares/Third_Party/LwIP/src/core/tcp.c ****     err = tcp_send_fin(pcb);
 346:Middlewares/Third_Party/LwIP/src/core/tcp.c ****     if (err == ERR_OK) {
 347:Middlewares/Third_Party/LwIP/src/core/tcp.c ****       MIB2_STATS_INC(mib2.tcpestabresets);
 348:Middlewares/Third_Party/LwIP/src/core/tcp.c ****       pcb->state = FIN_WAIT_1;
 349:Middlewares/Third_Party/LwIP/src/core/tcp.c ****     }
 350:Middlewares/Third_Party/LwIP/src/core/tcp.c ****     break;
 351:Middlewares/Third_Party/LwIP/src/core/tcp.c ****   case CLOSE_WAIT:
 352:Middlewares/Third_Party/LwIP/src/core/tcp.c ****     err = tcp_send_fin(pcb);
 353:Middlewares/Third_Party/LwIP/src/core/tcp.c ****     if (err == ERR_OK) {
 354:Middlewares/Third_Party/LwIP/src/core/tcp.c ****       MIB2_STATS_INC(mib2.tcpestabresets);
 355:Middlewares/Third_Party/LwIP/src/core/tcp.c ****       pcb->state = LAST_ACK;
 356:Middlewares/Third_Party/LwIP/src/core/tcp.c ****     }
 357:Middlewares/Third_Party/LwIP/src/core/tcp.c ****     break;
 358:Middlewares/Third_Party/LwIP/src/core/tcp.c ****   default:
 359:Middlewares/Third_Party/LwIP/src/core/tcp.c ****     /* Has already been closed, do nothing. */
 360:Middlewares/Third_Party/LwIP/src/core/tcp.c ****     return ERR_OK;
 361:Middlewares/Third_Party/LwIP/src/core/tcp.c ****   }
 362:Middlewares/Third_Party/LwIP/src/core/tcp.c **** 
 363:Middlewares/Third_Party/LwIP/src/core/tcp.c ****   if (err == ERR_OK) {
 364:Middlewares/Third_Party/LwIP/src/core/tcp.c ****     /* To ensure all data has been sent when tcp_close returns, we have
 365:Middlewares/Third_Party/LwIP/src/core/tcp.c ****        to make sure tcp_output doesn't fail.
 366:Middlewares/Third_Party/LwIP/src/core/tcp.c ****        Since we don't really have to ensure all data has been sent when tcp_close
 367:Middlewares/Third_Party/LwIP/src/core/tcp.c ****        returns (unsent data is sent from tcp timer functions, also), we don't care
 368:Middlewares/Third_Party/LwIP/src/core/tcp.c ****        for the return value of tcp_output for now. */
 369:Middlewares/Third_Party/LwIP/src/core/tcp.c ****     tcp_output(pcb);
 370:Middlewares/Third_Party/LwIP/src/core/tcp.c ****   } else if (err == ERR_MEM) {
 371:Middlewares/Third_Party/LwIP/src/core/tcp.c ****     /* Mark this pcb for closing. Closing is retried from tcp_tmr. */
 372:Middlewares/Third_Party/LwIP/src/core/tcp.c ****     pcb->flags |= TF_CLOSEPEND;
 373:Middlewares/Third_Party/LwIP/src/core/tcp.c ****     /* We have to return ERR_OK from here to indicate to the callers that this
 374:Middlewares/Third_Party/LwIP/src/core/tcp.c ****        pcb should not be used any more as it will be freed soon via tcp_tmr.
 375:Middlewares/Third_Party/LwIP/src/core/tcp.c ****        This is OK here since sending FIN does not guarantee a time frime for
 376:Middlewares/Third_Party/LwIP/src/core/tcp.c ****        actually freeing the pcb, either (it is left in closure states for
 377:Middlewares/Third_Party/LwIP/src/core/tcp.c ****        remote ACK or timeout) */
 378:Middlewares/Third_Party/LwIP/src/core/tcp.c ****     return ERR_OK;
 379:Middlewares/Third_Party/LwIP/src/core/tcp.c ****   }
 380:Middlewares/Third_Party/LwIP/src/core/tcp.c ****   return err;
 381:Middlewares/Third_Party/LwIP/src/core/tcp.c **** }
 382:Middlewares/Third_Party/LwIP/src/core/tcp.c **** 
 383:Middlewares/Third_Party/LwIP/src/core/tcp.c **** /**
 384:Middlewares/Third_Party/LwIP/src/core/tcp.c ****  * @ingroup tcp_raw
 385:Middlewares/Third_Party/LwIP/src/core/tcp.c ****  * Closes the connection held by the PCB.
 386:Middlewares/Third_Party/LwIP/src/core/tcp.c ****  *
 387:Middlewares/Third_Party/LwIP/src/core/tcp.c ****  * Listening pcbs are freed and may not be referenced any more.
 388:Middlewares/Third_Party/LwIP/src/core/tcp.c ****  * Connection pcbs are freed if not yet connected and may not be referenced
 389:Middlewares/Third_Party/LwIP/src/core/tcp.c ****  * any more. If a connection is established (at least SYN received or in
 390:Middlewares/Third_Party/LwIP/src/core/tcp.c ****  * a closing state), the connection is closed, and put in a closing state.
 391:Middlewares/Third_Party/LwIP/src/core/tcp.c ****  * The pcb is then automatically freed in tcp_slowtmr(). It is therefore
 392:Middlewares/Third_Party/LwIP/src/core/tcp.c ****  * unsafe to reference it (unless an error is returned).
 393:Middlewares/Third_Party/LwIP/src/core/tcp.c ****  *
 394:Middlewares/Third_Party/LwIP/src/core/tcp.c ****  * @param pcb the tcp_pcb to close
ARM GAS  C:\Users\Patryk\AppData\Local\Temp\cc1Vd65O.s 			page 9


 395:Middlewares/Third_Party/LwIP/src/core/tcp.c ****  * @return ERR_OK if connection has been closed
 396:Middlewares/Third_Party/LwIP/src/core/tcp.c ****  *         another err_t if closing failed and pcb is not freed
 397:Middlewares/Third_Party/LwIP/src/core/tcp.c ****  */
 398:Middlewares/Third_Party/LwIP/src/core/tcp.c **** err_t
 399:Middlewares/Third_Party/LwIP/src/core/tcp.c **** tcp_close(struct tcp_pcb *pcb)
 400:Middlewares/Third_Party/LwIP/src/core/tcp.c **** {
 401:Middlewares/Third_Party/LwIP/src/core/tcp.c ****   LWIP_DEBUGF(TCP_DEBUG, ("tcp_close: closing in "));
 402:Middlewares/Third_Party/LwIP/src/core/tcp.c ****   tcp_debug_print_state(pcb->state);
 403:Middlewares/Third_Party/LwIP/src/core/tcp.c **** 
 404:Middlewares/Third_Party/LwIP/src/core/tcp.c ****   if (pcb->state != LISTEN) {
 405:Middlewares/Third_Party/LwIP/src/core/tcp.c ****     /* Set a flag not to receive any more data... */
 406:Middlewares/Third_Party/LwIP/src/core/tcp.c ****     pcb->flags |= TF_RXCLOSED;
 407:Middlewares/Third_Party/LwIP/src/core/tcp.c ****   }
 408:Middlewares/Third_Party/LwIP/src/core/tcp.c ****   /* ... and close */
 409:Middlewares/Third_Party/LwIP/src/core/tcp.c ****   return tcp_close_shutdown(pcb, 1);
 410:Middlewares/Third_Party/LwIP/src/core/tcp.c **** }
 411:Middlewares/Third_Party/LwIP/src/core/tcp.c **** 
 412:Middlewares/Third_Party/LwIP/src/core/tcp.c **** /**
 413:Middlewares/Third_Party/LwIP/src/core/tcp.c ****  * @ingroup tcp_raw
 414:Middlewares/Third_Party/LwIP/src/core/tcp.c ****  * Causes all or part of a full-duplex connection of this PCB to be shut down.
 415:Middlewares/Third_Party/LwIP/src/core/tcp.c ****  * This doesn't deallocate the PCB unless shutting down both sides!
 416:Middlewares/Third_Party/LwIP/src/core/tcp.c ****  * Shutting down both sides is the same as calling tcp_close, so if it succeds
 417:Middlewares/Third_Party/LwIP/src/core/tcp.c ****  * (i.e. returns ER_OK), the PCB must not be referenced any more!
 418:Middlewares/Third_Party/LwIP/src/core/tcp.c ****  *
 419:Middlewares/Third_Party/LwIP/src/core/tcp.c ****  * @param pcb PCB to shutdown
 420:Middlewares/Third_Party/LwIP/src/core/tcp.c ****  * @param shut_rx shut down receive side if this is != 0
 421:Middlewares/Third_Party/LwIP/src/core/tcp.c ****  * @param shut_tx shut down send side if this is != 0
 422:Middlewares/Third_Party/LwIP/src/core/tcp.c ****  * @return ERR_OK if shutdown succeeded (or the PCB has already been shut down)
 423:Middlewares/Third_Party/LwIP/src/core/tcp.c ****  *         another err_t on error.
 424:Middlewares/Third_Party/LwIP/src/core/tcp.c ****  */
 425:Middlewares/Third_Party/LwIP/src/core/tcp.c **** err_t
 426:Middlewares/Third_Party/LwIP/src/core/tcp.c **** tcp_shutdown(struct tcp_pcb *pcb, int shut_rx, int shut_tx)
 427:Middlewares/Third_Party/LwIP/src/core/tcp.c **** {
 428:Middlewares/Third_Party/LwIP/src/core/tcp.c ****   if (pcb->state == LISTEN) {
 429:Middlewares/Third_Party/LwIP/src/core/tcp.c ****     return ERR_CONN;
 430:Middlewares/Third_Party/LwIP/src/core/tcp.c ****   }
 431:Middlewares/Third_Party/LwIP/src/core/tcp.c ****   if (shut_rx) {
 432:Middlewares/Third_Party/LwIP/src/core/tcp.c ****     /* shut down the receive side: set a flag not to receive any more data... */
 433:Middlewares/Third_Party/LwIP/src/core/tcp.c ****     pcb->flags |= TF_RXCLOSED;
 434:Middlewares/Third_Party/LwIP/src/core/tcp.c ****     if (shut_tx) {
 435:Middlewares/Third_Party/LwIP/src/core/tcp.c ****       /* shutting down the tx AND rx side is the same as closing for the raw API */
 436:Middlewares/Third_Party/LwIP/src/core/tcp.c ****       return tcp_close_shutdown(pcb, 1);
 437:Middlewares/Third_Party/LwIP/src/core/tcp.c ****     }
 438:Middlewares/Third_Party/LwIP/src/core/tcp.c ****     /* ... and free buffered data */
 439:Middlewares/Third_Party/LwIP/src/core/tcp.c ****     if (pcb->refused_data != NULL) {
 440:Middlewares/Third_Party/LwIP/src/core/tcp.c ****       pbuf_free(pcb->refused_data);
 441:Middlewares/Third_Party/LwIP/src/core/tcp.c ****       pcb->refused_data = NULL;
 442:Middlewares/Third_Party/LwIP/src/core/tcp.c ****     }
 443:Middlewares/Third_Party/LwIP/src/core/tcp.c ****   }
 444:Middlewares/Third_Party/LwIP/src/core/tcp.c ****   if (shut_tx) {
 445:Middlewares/Third_Party/LwIP/src/core/tcp.c ****     /* This can't happen twice since if it succeeds, the pcb's state is changed.
 446:Middlewares/Third_Party/LwIP/src/core/tcp.c ****        Only close in these states as the others directly deallocate the PCB */
 447:Middlewares/Third_Party/LwIP/src/core/tcp.c ****     switch (pcb->state) {
 448:Middlewares/Third_Party/LwIP/src/core/tcp.c ****     case SYN_RCVD:
 449:Middlewares/Third_Party/LwIP/src/core/tcp.c ****     case ESTABLISHED:
 450:Middlewares/Third_Party/LwIP/src/core/tcp.c ****     case CLOSE_WAIT:
 451:Middlewares/Third_Party/LwIP/src/core/tcp.c ****       return tcp_close_shutdown(pcb, (u8_t)shut_rx);
ARM GAS  C:\Users\Patryk\AppData\Local\Temp\cc1Vd65O.s 			page 10


 452:Middlewares/Third_Party/LwIP/src/core/tcp.c ****     default:
 453:Middlewares/Third_Party/LwIP/src/core/tcp.c ****       /* Not (yet?) connected, cannot shutdown the TX side as that would bring us
 454:Middlewares/Third_Party/LwIP/src/core/tcp.c ****         into CLOSED state, where the PCB is deallocated. */
 455:Middlewares/Third_Party/LwIP/src/core/tcp.c ****       return ERR_CONN;
 456:Middlewares/Third_Party/LwIP/src/core/tcp.c ****     }
 457:Middlewares/Third_Party/LwIP/src/core/tcp.c ****   }
 458:Middlewares/Third_Party/LwIP/src/core/tcp.c ****   return ERR_OK;
 459:Middlewares/Third_Party/LwIP/src/core/tcp.c **** }
 460:Middlewares/Third_Party/LwIP/src/core/tcp.c **** 
 461:Middlewares/Third_Party/LwIP/src/core/tcp.c **** /**
 462:Middlewares/Third_Party/LwIP/src/core/tcp.c ****  * Abandons a connection and optionally sends a RST to the remote
 463:Middlewares/Third_Party/LwIP/src/core/tcp.c ****  * host.  Deletes the local protocol control block. This is done when
 464:Middlewares/Third_Party/LwIP/src/core/tcp.c ****  * a connection is killed because of shortage of memory.
 465:Middlewares/Third_Party/LwIP/src/core/tcp.c ****  *
 466:Middlewares/Third_Party/LwIP/src/core/tcp.c ****  * @param pcb the tcp_pcb to abort
 467:Middlewares/Third_Party/LwIP/src/core/tcp.c ****  * @param reset boolean to indicate whether a reset should be sent
 468:Middlewares/Third_Party/LwIP/src/core/tcp.c ****  */
 469:Middlewares/Third_Party/LwIP/src/core/tcp.c **** void
 470:Middlewares/Third_Party/LwIP/src/core/tcp.c **** tcp_abandon(struct tcp_pcb *pcb, int reset)
 471:Middlewares/Third_Party/LwIP/src/core/tcp.c **** {
 472:Middlewares/Third_Party/LwIP/src/core/tcp.c ****   u32_t seqno, ackno;
 473:Middlewares/Third_Party/LwIP/src/core/tcp.c **** #if LWIP_CALLBACK_API
 474:Middlewares/Third_Party/LwIP/src/core/tcp.c ****   tcp_err_fn errf;
 475:Middlewares/Third_Party/LwIP/src/core/tcp.c **** #endif /* LWIP_CALLBACK_API */
 476:Middlewares/Third_Party/LwIP/src/core/tcp.c ****   void *errf_arg;
 477:Middlewares/Third_Party/LwIP/src/core/tcp.c **** 
 478:Middlewares/Third_Party/LwIP/src/core/tcp.c ****   /* pcb->state LISTEN not allowed here */
 479:Middlewares/Third_Party/LwIP/src/core/tcp.c ****   LWIP_ASSERT("don't call tcp_abort/tcp_abandon for listen-pcbs",
 480:Middlewares/Third_Party/LwIP/src/core/tcp.c ****     pcb->state != LISTEN);
 481:Middlewares/Third_Party/LwIP/src/core/tcp.c ****   /* Figure out on which TCP PCB list we are, and remove us. If we
 482:Middlewares/Third_Party/LwIP/src/core/tcp.c ****      are in an active state, call the receive function associated with
 483:Middlewares/Third_Party/LwIP/src/core/tcp.c ****      the PCB with a NULL argument, and send an RST to the remote end. */
 484:Middlewares/Third_Party/LwIP/src/core/tcp.c ****   if (pcb->state == TIME_WAIT) {
 485:Middlewares/Third_Party/LwIP/src/core/tcp.c ****     tcp_pcb_remove(&tcp_tw_pcbs, pcb);
 486:Middlewares/Third_Party/LwIP/src/core/tcp.c ****     memp_free(MEMP_TCP_PCB, pcb);
 487:Middlewares/Third_Party/LwIP/src/core/tcp.c ****   } else {
 488:Middlewares/Third_Party/LwIP/src/core/tcp.c ****     int send_rst = 0;
 489:Middlewares/Third_Party/LwIP/src/core/tcp.c ****     u16_t local_port = 0;
 490:Middlewares/Third_Party/LwIP/src/core/tcp.c ****     enum tcp_state last_state;
 491:Middlewares/Third_Party/LwIP/src/core/tcp.c ****     seqno = pcb->snd_nxt;
 492:Middlewares/Third_Party/LwIP/src/core/tcp.c ****     ackno = pcb->rcv_nxt;
 493:Middlewares/Third_Party/LwIP/src/core/tcp.c **** #if LWIP_CALLBACK_API
 494:Middlewares/Third_Party/LwIP/src/core/tcp.c ****     errf = pcb->errf;
 495:Middlewares/Third_Party/LwIP/src/core/tcp.c **** #endif /* LWIP_CALLBACK_API */
 496:Middlewares/Third_Party/LwIP/src/core/tcp.c ****     errf_arg = pcb->callback_arg;
 497:Middlewares/Third_Party/LwIP/src/core/tcp.c ****     if (pcb->state == CLOSED) {
 498:Middlewares/Third_Party/LwIP/src/core/tcp.c ****       if (pcb->local_port != 0) {
 499:Middlewares/Third_Party/LwIP/src/core/tcp.c ****         /* bound, not yet opened */
 500:Middlewares/Third_Party/LwIP/src/core/tcp.c ****         TCP_RMV(&tcp_bound_pcbs, pcb);
 501:Middlewares/Third_Party/LwIP/src/core/tcp.c ****       }
 502:Middlewares/Third_Party/LwIP/src/core/tcp.c ****     } else {
 503:Middlewares/Third_Party/LwIP/src/core/tcp.c ****       send_rst = reset;
 504:Middlewares/Third_Party/LwIP/src/core/tcp.c ****       local_port = pcb->local_port;
 505:Middlewares/Third_Party/LwIP/src/core/tcp.c ****       TCP_PCB_REMOVE_ACTIVE(pcb);
 506:Middlewares/Third_Party/LwIP/src/core/tcp.c ****     }
 507:Middlewares/Third_Party/LwIP/src/core/tcp.c ****     if (pcb->unacked != NULL) {
 508:Middlewares/Third_Party/LwIP/src/core/tcp.c ****       tcp_segs_free(pcb->unacked);
ARM GAS  C:\Users\Patryk\AppData\Local\Temp\cc1Vd65O.s 			page 11


 509:Middlewares/Third_Party/LwIP/src/core/tcp.c ****     }
 510:Middlewares/Third_Party/LwIP/src/core/tcp.c ****     if (pcb->unsent != NULL) {
 511:Middlewares/Third_Party/LwIP/src/core/tcp.c ****       tcp_segs_free(pcb->unsent);
 512:Middlewares/Third_Party/LwIP/src/core/tcp.c ****     }
 513:Middlewares/Third_Party/LwIP/src/core/tcp.c **** #if TCP_QUEUE_OOSEQ
 514:Middlewares/Third_Party/LwIP/src/core/tcp.c ****     if (pcb->ooseq != NULL) {
 515:Middlewares/Third_Party/LwIP/src/core/tcp.c ****       tcp_segs_free(pcb->ooseq);
 516:Middlewares/Third_Party/LwIP/src/core/tcp.c ****     }
 517:Middlewares/Third_Party/LwIP/src/core/tcp.c **** #endif /* TCP_QUEUE_OOSEQ */
 518:Middlewares/Third_Party/LwIP/src/core/tcp.c ****     tcp_backlog_accepted(pcb);
 519:Middlewares/Third_Party/LwIP/src/core/tcp.c ****     if (send_rst) {
 520:Middlewares/Third_Party/LwIP/src/core/tcp.c ****       LWIP_DEBUGF(TCP_RST_DEBUG, ("tcp_abandon: sending RST\n"));
 521:Middlewares/Third_Party/LwIP/src/core/tcp.c ****       tcp_rst(seqno, ackno, &pcb->local_ip, &pcb->remote_ip, local_port, pcb->remote_port);
 522:Middlewares/Third_Party/LwIP/src/core/tcp.c ****     }
 523:Middlewares/Third_Party/LwIP/src/core/tcp.c ****     last_state = pcb->state;
 524:Middlewares/Third_Party/LwIP/src/core/tcp.c ****     memp_free(MEMP_TCP_PCB, pcb);
 525:Middlewares/Third_Party/LwIP/src/core/tcp.c ****     TCP_EVENT_ERR(last_state, errf, errf_arg, ERR_ABRT);
 526:Middlewares/Third_Party/LwIP/src/core/tcp.c ****   }
 527:Middlewares/Third_Party/LwIP/src/core/tcp.c **** }
 528:Middlewares/Third_Party/LwIP/src/core/tcp.c **** 
 529:Middlewares/Third_Party/LwIP/src/core/tcp.c **** /**
 530:Middlewares/Third_Party/LwIP/src/core/tcp.c ****  * @ingroup tcp_raw
 531:Middlewares/Third_Party/LwIP/src/core/tcp.c ****  * Aborts the connection by sending a RST (reset) segment to the remote
 532:Middlewares/Third_Party/LwIP/src/core/tcp.c ****  * host. The pcb is deallocated. This function never fails.
 533:Middlewares/Third_Party/LwIP/src/core/tcp.c ****  *
 534:Middlewares/Third_Party/LwIP/src/core/tcp.c ****  * ATTENTION: When calling this from one of the TCP callbacks, make
 535:Middlewares/Third_Party/LwIP/src/core/tcp.c ****  * sure you always return ERR_ABRT (and never return ERR_ABRT otherwise
 536:Middlewares/Third_Party/LwIP/src/core/tcp.c ****  * or you will risk accessing deallocated memory or memory leaks!
 537:Middlewares/Third_Party/LwIP/src/core/tcp.c ****  *
 538:Middlewares/Third_Party/LwIP/src/core/tcp.c ****  * @param pcb the tcp pcb to abort
 539:Middlewares/Third_Party/LwIP/src/core/tcp.c ****  */
 540:Middlewares/Third_Party/LwIP/src/core/tcp.c **** void
 541:Middlewares/Third_Party/LwIP/src/core/tcp.c **** tcp_abort(struct tcp_pcb *pcb)
 542:Middlewares/Third_Party/LwIP/src/core/tcp.c **** {
 543:Middlewares/Third_Party/LwIP/src/core/tcp.c ****   tcp_abandon(pcb, 1);
 544:Middlewares/Third_Party/LwIP/src/core/tcp.c **** }
 545:Middlewares/Third_Party/LwIP/src/core/tcp.c **** 
 546:Middlewares/Third_Party/LwIP/src/core/tcp.c **** /**
 547:Middlewares/Third_Party/LwIP/src/core/tcp.c ****  * @ingroup tcp_raw
 548:Middlewares/Third_Party/LwIP/src/core/tcp.c ****  * Binds the connection to a local port number and IP address. If the
 549:Middlewares/Third_Party/LwIP/src/core/tcp.c ****  * IP address is not given (i.e., ipaddr == NULL), the IP address of
 550:Middlewares/Third_Party/LwIP/src/core/tcp.c ****  * the outgoing network interface is used instead.
 551:Middlewares/Third_Party/LwIP/src/core/tcp.c ****  *
 552:Middlewares/Third_Party/LwIP/src/core/tcp.c ****  * @param pcb the tcp_pcb to bind (no check is done whether this pcb is
 553:Middlewares/Third_Party/LwIP/src/core/tcp.c ****  *        already bound!)
 554:Middlewares/Third_Party/LwIP/src/core/tcp.c ****  * @param ipaddr the local ip address to bind to (use IP4_ADDR_ANY to bind
 555:Middlewares/Third_Party/LwIP/src/core/tcp.c ****  *        to any local address
 556:Middlewares/Third_Party/LwIP/src/core/tcp.c ****  * @param port the local port to bind to
 557:Middlewares/Third_Party/LwIP/src/core/tcp.c ****  * @return ERR_USE if the port is already in use
 558:Middlewares/Third_Party/LwIP/src/core/tcp.c ****  *         ERR_VAL if bind failed because the PCB is not in a valid state
 559:Middlewares/Third_Party/LwIP/src/core/tcp.c ****  *         ERR_OK if bound
 560:Middlewares/Third_Party/LwIP/src/core/tcp.c ****  */
 561:Middlewares/Third_Party/LwIP/src/core/tcp.c **** err_t
 562:Middlewares/Third_Party/LwIP/src/core/tcp.c **** tcp_bind(struct tcp_pcb *pcb, const ip_addr_t *ipaddr, u16_t port)
 563:Middlewares/Third_Party/LwIP/src/core/tcp.c **** {
 564:Middlewares/Third_Party/LwIP/src/core/tcp.c ****   int i;
 565:Middlewares/Third_Party/LwIP/src/core/tcp.c ****   int max_pcb_list = NUM_TCP_PCB_LISTS;
ARM GAS  C:\Users\Patryk\AppData\Local\Temp\cc1Vd65O.s 			page 12


 566:Middlewares/Third_Party/LwIP/src/core/tcp.c ****   struct tcp_pcb *cpcb;
 567:Middlewares/Third_Party/LwIP/src/core/tcp.c **** 
 568:Middlewares/Third_Party/LwIP/src/core/tcp.c **** #if LWIP_IPV4
 569:Middlewares/Third_Party/LwIP/src/core/tcp.c ****   /* Don't propagate NULL pointer (IPv4 ANY) to subsequent functions */
 570:Middlewares/Third_Party/LwIP/src/core/tcp.c ****   if (ipaddr == NULL) {
 571:Middlewares/Third_Party/LwIP/src/core/tcp.c ****     ipaddr = IP4_ADDR_ANY;
 572:Middlewares/Third_Party/LwIP/src/core/tcp.c ****   }
 573:Middlewares/Third_Party/LwIP/src/core/tcp.c **** #endif /* LWIP_IPV4 */
 574:Middlewares/Third_Party/LwIP/src/core/tcp.c **** 
 575:Middlewares/Third_Party/LwIP/src/core/tcp.c ****   /* still need to check for ipaddr == NULL in IPv6 only case */
 576:Middlewares/Third_Party/LwIP/src/core/tcp.c ****   if ((pcb == NULL) || (ipaddr == NULL)) {
 577:Middlewares/Third_Party/LwIP/src/core/tcp.c ****     return ERR_VAL;
 578:Middlewares/Third_Party/LwIP/src/core/tcp.c ****   }
 579:Middlewares/Third_Party/LwIP/src/core/tcp.c **** 
 580:Middlewares/Third_Party/LwIP/src/core/tcp.c ****   LWIP_ERROR("tcp_bind: can only bind in state CLOSED", pcb->state == CLOSED, return ERR_VAL);
 581:Middlewares/Third_Party/LwIP/src/core/tcp.c **** 
 582:Middlewares/Third_Party/LwIP/src/core/tcp.c **** #if SO_REUSE
 583:Middlewares/Third_Party/LwIP/src/core/tcp.c ****   /* Unless the REUSEADDR flag is set,
 584:Middlewares/Third_Party/LwIP/src/core/tcp.c ****      we have to check the pcbs in TIME-WAIT state, also.
 585:Middlewares/Third_Party/LwIP/src/core/tcp.c ****      We do not dump TIME_WAIT pcb's; they can still be matched by incoming
 586:Middlewares/Third_Party/LwIP/src/core/tcp.c ****      packets using both local and remote IP addresses and ports to distinguish.
 587:Middlewares/Third_Party/LwIP/src/core/tcp.c ****    */
 588:Middlewares/Third_Party/LwIP/src/core/tcp.c ****   if (ip_get_option(pcb, SOF_REUSEADDR)) {
 589:Middlewares/Third_Party/LwIP/src/core/tcp.c ****     max_pcb_list = NUM_TCP_PCB_LISTS_NO_TIME_WAIT;
 590:Middlewares/Third_Party/LwIP/src/core/tcp.c ****   }
 591:Middlewares/Third_Party/LwIP/src/core/tcp.c **** #endif /* SO_REUSE */
 592:Middlewares/Third_Party/LwIP/src/core/tcp.c **** 
 593:Middlewares/Third_Party/LwIP/src/core/tcp.c ****   if (port == 0) {
 594:Middlewares/Third_Party/LwIP/src/core/tcp.c ****     port = tcp_new_port();
 595:Middlewares/Third_Party/LwIP/src/core/tcp.c ****     if (port == 0) {
 596:Middlewares/Third_Party/LwIP/src/core/tcp.c ****       return ERR_BUF;
 597:Middlewares/Third_Party/LwIP/src/core/tcp.c ****     }
 598:Middlewares/Third_Party/LwIP/src/core/tcp.c ****   } else {
 599:Middlewares/Third_Party/LwIP/src/core/tcp.c ****     /* Check if the address already is in use (on all lists) */
 600:Middlewares/Third_Party/LwIP/src/core/tcp.c ****     for (i = 0; i < max_pcb_list; i++) {
 601:Middlewares/Third_Party/LwIP/src/core/tcp.c ****       for (cpcb = *tcp_pcb_lists[i]; cpcb != NULL; cpcb = cpcb->next) {
 602:Middlewares/Third_Party/LwIP/src/core/tcp.c ****         if (cpcb->local_port == port) {
 603:Middlewares/Third_Party/LwIP/src/core/tcp.c **** #if SO_REUSE
 604:Middlewares/Third_Party/LwIP/src/core/tcp.c ****           /* Omit checking for the same port if both pcbs have REUSEADDR set.
 605:Middlewares/Third_Party/LwIP/src/core/tcp.c ****              For SO_REUSEADDR, the duplicate-check for a 5-tuple is done in
 606:Middlewares/Third_Party/LwIP/src/core/tcp.c ****              tcp_connect. */
 607:Middlewares/Third_Party/LwIP/src/core/tcp.c ****           if (!ip_get_option(pcb, SOF_REUSEADDR) ||
 608:Middlewares/Third_Party/LwIP/src/core/tcp.c ****               !ip_get_option(cpcb, SOF_REUSEADDR))
 609:Middlewares/Third_Party/LwIP/src/core/tcp.c **** #endif /* SO_REUSE */
 610:Middlewares/Third_Party/LwIP/src/core/tcp.c ****           {
 611:Middlewares/Third_Party/LwIP/src/core/tcp.c ****             /* @todo: check accept_any_ip_version */
 612:Middlewares/Third_Party/LwIP/src/core/tcp.c ****             if ((IP_IS_V6(ipaddr) == IP_IS_V6_VAL(cpcb->local_ip)) &&
 613:Middlewares/Third_Party/LwIP/src/core/tcp.c ****                 (ip_addr_isany(&cpcb->local_ip) ||
 614:Middlewares/Third_Party/LwIP/src/core/tcp.c ****                 ip_addr_isany(ipaddr) ||
 615:Middlewares/Third_Party/LwIP/src/core/tcp.c ****                 ip_addr_cmp(&cpcb->local_ip, ipaddr))) {
 616:Middlewares/Third_Party/LwIP/src/core/tcp.c ****               return ERR_USE;
 617:Middlewares/Third_Party/LwIP/src/core/tcp.c ****             }
 618:Middlewares/Third_Party/LwIP/src/core/tcp.c ****           }
 619:Middlewares/Third_Party/LwIP/src/core/tcp.c ****         }
 620:Middlewares/Third_Party/LwIP/src/core/tcp.c ****       }
 621:Middlewares/Third_Party/LwIP/src/core/tcp.c ****     }
 622:Middlewares/Third_Party/LwIP/src/core/tcp.c ****   }
ARM GAS  C:\Users\Patryk\AppData\Local\Temp\cc1Vd65O.s 			page 13


 623:Middlewares/Third_Party/LwIP/src/core/tcp.c **** 
 624:Middlewares/Third_Party/LwIP/src/core/tcp.c ****   if (!ip_addr_isany(ipaddr)) {
 625:Middlewares/Third_Party/LwIP/src/core/tcp.c ****     ip_addr_set(&pcb->local_ip, ipaddr);
 626:Middlewares/Third_Party/LwIP/src/core/tcp.c ****   }
 627:Middlewares/Third_Party/LwIP/src/core/tcp.c ****   pcb->local_port = port;
 628:Middlewares/Third_Party/LwIP/src/core/tcp.c ****   TCP_REG(&tcp_bound_pcbs, pcb);
 629:Middlewares/Third_Party/LwIP/src/core/tcp.c ****   LWIP_DEBUGF(TCP_DEBUG, ("tcp_bind: bind to port %"U16_F"\n", port));
 630:Middlewares/Third_Party/LwIP/src/core/tcp.c ****   return ERR_OK;
 631:Middlewares/Third_Party/LwIP/src/core/tcp.c **** }
 632:Middlewares/Third_Party/LwIP/src/core/tcp.c **** #if LWIP_CALLBACK_API
 633:Middlewares/Third_Party/LwIP/src/core/tcp.c **** /**
 634:Middlewares/Third_Party/LwIP/src/core/tcp.c ****  * Default accept callback if no accept callback is specified by the user.
 635:Middlewares/Third_Party/LwIP/src/core/tcp.c ****  */
 636:Middlewares/Third_Party/LwIP/src/core/tcp.c **** static err_t
 637:Middlewares/Third_Party/LwIP/src/core/tcp.c **** tcp_accept_null(void *arg, struct tcp_pcb *pcb, err_t err)
 638:Middlewares/Third_Party/LwIP/src/core/tcp.c **** {
 639:Middlewares/Third_Party/LwIP/src/core/tcp.c ****   LWIP_UNUSED_ARG(arg);
 640:Middlewares/Third_Party/LwIP/src/core/tcp.c ****   LWIP_UNUSED_ARG(err);
 641:Middlewares/Third_Party/LwIP/src/core/tcp.c **** 
 642:Middlewares/Third_Party/LwIP/src/core/tcp.c ****   tcp_abort(pcb);
 643:Middlewares/Third_Party/LwIP/src/core/tcp.c **** 
 644:Middlewares/Third_Party/LwIP/src/core/tcp.c ****   return ERR_ABRT;
 645:Middlewares/Third_Party/LwIP/src/core/tcp.c **** }
 646:Middlewares/Third_Party/LwIP/src/core/tcp.c **** #endif /* LWIP_CALLBACK_API */
 647:Middlewares/Third_Party/LwIP/src/core/tcp.c **** 
 648:Middlewares/Third_Party/LwIP/src/core/tcp.c **** /**
 649:Middlewares/Third_Party/LwIP/src/core/tcp.c ****  * @ingroup tcp_raw
 650:Middlewares/Third_Party/LwIP/src/core/tcp.c ****  * Set the state of the connection to be LISTEN, which means that it
 651:Middlewares/Third_Party/LwIP/src/core/tcp.c ****  * is able to accept incoming connections. The protocol control block
 652:Middlewares/Third_Party/LwIP/src/core/tcp.c ****  * is reallocated in order to consume less memory. Setting the
 653:Middlewares/Third_Party/LwIP/src/core/tcp.c ****  * connection to LISTEN is an irreversible process.
 654:Middlewares/Third_Party/LwIP/src/core/tcp.c ****  *
 655:Middlewares/Third_Party/LwIP/src/core/tcp.c ****  * @param pcb the original tcp_pcb
 656:Middlewares/Third_Party/LwIP/src/core/tcp.c ****  * @param backlog the incoming connections queue limit
 657:Middlewares/Third_Party/LwIP/src/core/tcp.c ****  * @return tcp_pcb used for listening, consumes less memory.
 658:Middlewares/Third_Party/LwIP/src/core/tcp.c ****  *
 659:Middlewares/Third_Party/LwIP/src/core/tcp.c ****  * @note The original tcp_pcb is freed. This function therefore has to be
 660:Middlewares/Third_Party/LwIP/src/core/tcp.c ****  *       called like this:
 661:Middlewares/Third_Party/LwIP/src/core/tcp.c ****  *             tpcb = tcp_listen_with_backlog(tpcb, backlog);
 662:Middlewares/Third_Party/LwIP/src/core/tcp.c ****  */
 663:Middlewares/Third_Party/LwIP/src/core/tcp.c **** struct tcp_pcb *
 664:Middlewares/Third_Party/LwIP/src/core/tcp.c **** tcp_listen_with_backlog(struct tcp_pcb *pcb, u8_t backlog)
 665:Middlewares/Third_Party/LwIP/src/core/tcp.c **** {
 666:Middlewares/Third_Party/LwIP/src/core/tcp.c ****   return tcp_listen_with_backlog_and_err(pcb, backlog, NULL);
 667:Middlewares/Third_Party/LwIP/src/core/tcp.c **** }
 668:Middlewares/Third_Party/LwIP/src/core/tcp.c **** 
 669:Middlewares/Third_Party/LwIP/src/core/tcp.c **** /**
 670:Middlewares/Third_Party/LwIP/src/core/tcp.c ****  * @ingroup tcp_raw
 671:Middlewares/Third_Party/LwIP/src/core/tcp.c ****  * Set the state of the connection to be LISTEN, which means that it
 672:Middlewares/Third_Party/LwIP/src/core/tcp.c ****  * is able to accept incoming connections. The protocol control block
 673:Middlewares/Third_Party/LwIP/src/core/tcp.c ****  * is reallocated in order to consume less memory. Setting the
 674:Middlewares/Third_Party/LwIP/src/core/tcp.c ****  * connection to LISTEN is an irreversible process.
 675:Middlewares/Third_Party/LwIP/src/core/tcp.c ****  *
 676:Middlewares/Third_Party/LwIP/src/core/tcp.c ****  * @param pcb the original tcp_pcb
 677:Middlewares/Third_Party/LwIP/src/core/tcp.c ****  * @param backlog the incoming connections queue limit
 678:Middlewares/Third_Party/LwIP/src/core/tcp.c ****  * @param err when NULL is returned, this contains the error reason
 679:Middlewares/Third_Party/LwIP/src/core/tcp.c ****  * @return tcp_pcb used for listening, consumes less memory.
ARM GAS  C:\Users\Patryk\AppData\Local\Temp\cc1Vd65O.s 			page 14


 680:Middlewares/Third_Party/LwIP/src/core/tcp.c ****  *
 681:Middlewares/Third_Party/LwIP/src/core/tcp.c ****  * @note The original tcp_pcb is freed. This function therefore has to be
 682:Middlewares/Third_Party/LwIP/src/core/tcp.c ****  *       called like this:
 683:Middlewares/Third_Party/LwIP/src/core/tcp.c ****  *             tpcb = tcp_listen_with_backlog_and_err(tpcb, backlog, &err);
 684:Middlewares/Third_Party/LwIP/src/core/tcp.c ****  */
 685:Middlewares/Third_Party/LwIP/src/core/tcp.c **** struct tcp_pcb *
 686:Middlewares/Third_Party/LwIP/src/core/tcp.c **** tcp_listen_with_backlog_and_err(struct tcp_pcb *pcb, u8_t backlog, err_t *err)
 687:Middlewares/Third_Party/LwIP/src/core/tcp.c **** {
 688:Middlewares/Third_Party/LwIP/src/core/tcp.c ****   struct tcp_pcb_listen *lpcb = NULL;
 689:Middlewares/Third_Party/LwIP/src/core/tcp.c ****   err_t res;
 690:Middlewares/Third_Party/LwIP/src/core/tcp.c **** 
 691:Middlewares/Third_Party/LwIP/src/core/tcp.c ****   LWIP_UNUSED_ARG(backlog);
 692:Middlewares/Third_Party/LwIP/src/core/tcp.c ****   LWIP_ERROR("tcp_listen: pcb already connected", pcb->state == CLOSED, res = ERR_CLSD; goto done);
 693:Middlewares/Third_Party/LwIP/src/core/tcp.c **** 
 694:Middlewares/Third_Party/LwIP/src/core/tcp.c ****   /* already listening? */
 695:Middlewares/Third_Party/LwIP/src/core/tcp.c ****   if (pcb->state == LISTEN) {
 696:Middlewares/Third_Party/LwIP/src/core/tcp.c ****     lpcb = (struct tcp_pcb_listen*)pcb;
 697:Middlewares/Third_Party/LwIP/src/core/tcp.c ****     res = ERR_ALREADY;
 698:Middlewares/Third_Party/LwIP/src/core/tcp.c ****     goto done;
 699:Middlewares/Third_Party/LwIP/src/core/tcp.c ****   }
 700:Middlewares/Third_Party/LwIP/src/core/tcp.c **** #if SO_REUSE
 701:Middlewares/Third_Party/LwIP/src/core/tcp.c ****   if (ip_get_option(pcb, SOF_REUSEADDR)) {
 702:Middlewares/Third_Party/LwIP/src/core/tcp.c ****     /* Since SOF_REUSEADDR allows reusing a local address before the pcb's usage
 703:Middlewares/Third_Party/LwIP/src/core/tcp.c ****        is declared (listen-/connection-pcb), we have to make sure now that
 704:Middlewares/Third_Party/LwIP/src/core/tcp.c ****        this port is only used once for every local IP. */
 705:Middlewares/Third_Party/LwIP/src/core/tcp.c ****     for (lpcb = tcp_listen_pcbs.listen_pcbs; lpcb != NULL; lpcb = lpcb->next) {
 706:Middlewares/Third_Party/LwIP/src/core/tcp.c ****       if ((lpcb->local_port == pcb->local_port) &&
 707:Middlewares/Third_Party/LwIP/src/core/tcp.c ****           ip_addr_cmp(&lpcb->local_ip, &pcb->local_ip)) {
 708:Middlewares/Third_Party/LwIP/src/core/tcp.c ****         /* this address/port is already used */
 709:Middlewares/Third_Party/LwIP/src/core/tcp.c ****         lpcb = NULL;
 710:Middlewares/Third_Party/LwIP/src/core/tcp.c ****         res = ERR_USE;
 711:Middlewares/Third_Party/LwIP/src/core/tcp.c ****         goto done;
 712:Middlewares/Third_Party/LwIP/src/core/tcp.c ****       }
 713:Middlewares/Third_Party/LwIP/src/core/tcp.c ****     }
 714:Middlewares/Third_Party/LwIP/src/core/tcp.c ****   }
 715:Middlewares/Third_Party/LwIP/src/core/tcp.c **** #endif /* SO_REUSE */
 716:Middlewares/Third_Party/LwIP/src/core/tcp.c ****   lpcb = (struct tcp_pcb_listen *)memp_malloc(MEMP_TCP_PCB_LISTEN);
 717:Middlewares/Third_Party/LwIP/src/core/tcp.c ****   if (lpcb == NULL) {
 718:Middlewares/Third_Party/LwIP/src/core/tcp.c ****     res = ERR_MEM;
 719:Middlewares/Third_Party/LwIP/src/core/tcp.c ****     goto done;
 720:Middlewares/Third_Party/LwIP/src/core/tcp.c ****   }
 721:Middlewares/Third_Party/LwIP/src/core/tcp.c ****   lpcb->callback_arg = pcb->callback_arg;
 722:Middlewares/Third_Party/LwIP/src/core/tcp.c ****   lpcb->local_port = pcb->local_port;
 723:Middlewares/Third_Party/LwIP/src/core/tcp.c ****   lpcb->state = LISTEN;
 724:Middlewares/Third_Party/LwIP/src/core/tcp.c ****   lpcb->prio = pcb->prio;
 725:Middlewares/Third_Party/LwIP/src/core/tcp.c ****   lpcb->so_options = pcb->so_options;
 726:Middlewares/Third_Party/LwIP/src/core/tcp.c ****   lpcb->ttl = pcb->ttl;
 727:Middlewares/Third_Party/LwIP/src/core/tcp.c ****   lpcb->tos = pcb->tos;
 728:Middlewares/Third_Party/LwIP/src/core/tcp.c **** #if LWIP_IPV4 && LWIP_IPV6
 729:Middlewares/Third_Party/LwIP/src/core/tcp.c ****   IP_SET_TYPE_VAL(lpcb->remote_ip, pcb->local_ip.type);
 730:Middlewares/Third_Party/LwIP/src/core/tcp.c **** #endif /* LWIP_IPV4 && LWIP_IPV6 */
 731:Middlewares/Third_Party/LwIP/src/core/tcp.c ****   ip_addr_copy(lpcb->local_ip, pcb->local_ip);
 732:Middlewares/Third_Party/LwIP/src/core/tcp.c ****   if (pcb->local_port != 0) {
 733:Middlewares/Third_Party/LwIP/src/core/tcp.c ****     TCP_RMV(&tcp_bound_pcbs, pcb);
 734:Middlewares/Third_Party/LwIP/src/core/tcp.c ****   }
 735:Middlewares/Third_Party/LwIP/src/core/tcp.c ****   memp_free(MEMP_TCP_PCB, pcb);
 736:Middlewares/Third_Party/LwIP/src/core/tcp.c **** #if LWIP_CALLBACK_API
ARM GAS  C:\Users\Patryk\AppData\Local\Temp\cc1Vd65O.s 			page 15


 737:Middlewares/Third_Party/LwIP/src/core/tcp.c ****   lpcb->accept = tcp_accept_null;
 738:Middlewares/Third_Party/LwIP/src/core/tcp.c **** #endif /* LWIP_CALLBACK_API */
 739:Middlewares/Third_Party/LwIP/src/core/tcp.c **** #if TCP_LISTEN_BACKLOG
 740:Middlewares/Third_Party/LwIP/src/core/tcp.c ****   lpcb->accepts_pending = 0;
 741:Middlewares/Third_Party/LwIP/src/core/tcp.c ****   tcp_backlog_set(lpcb, backlog);
 742:Middlewares/Third_Party/LwIP/src/core/tcp.c **** #endif /* TCP_LISTEN_BACKLOG */
 743:Middlewares/Third_Party/LwIP/src/core/tcp.c ****   TCP_REG(&tcp_listen_pcbs.pcbs, (struct tcp_pcb *)lpcb);
 744:Middlewares/Third_Party/LwIP/src/core/tcp.c ****   res = ERR_OK;
 745:Middlewares/Third_Party/LwIP/src/core/tcp.c **** done:
 746:Middlewares/Third_Party/LwIP/src/core/tcp.c ****   if (err != NULL) {
 747:Middlewares/Third_Party/LwIP/src/core/tcp.c ****     *err = res;
 748:Middlewares/Third_Party/LwIP/src/core/tcp.c ****   }
 749:Middlewares/Third_Party/LwIP/src/core/tcp.c ****   return (struct tcp_pcb *)lpcb;
 750:Middlewares/Third_Party/LwIP/src/core/tcp.c **** }
 751:Middlewares/Third_Party/LwIP/src/core/tcp.c **** 
 752:Middlewares/Third_Party/LwIP/src/core/tcp.c **** /**
 753:Middlewares/Third_Party/LwIP/src/core/tcp.c ****  * Update the state that tracks the available window space to advertise.
 754:Middlewares/Third_Party/LwIP/src/core/tcp.c ****  *
 755:Middlewares/Third_Party/LwIP/src/core/tcp.c ****  * Returns how much extra window would be advertised if we sent an
 756:Middlewares/Third_Party/LwIP/src/core/tcp.c ****  * update now.
 757:Middlewares/Third_Party/LwIP/src/core/tcp.c ****  */
 758:Middlewares/Third_Party/LwIP/src/core/tcp.c **** u32_t
 759:Middlewares/Third_Party/LwIP/src/core/tcp.c **** tcp_update_rcv_ann_wnd(struct tcp_pcb *pcb)
 760:Middlewares/Third_Party/LwIP/src/core/tcp.c **** {
 761:Middlewares/Third_Party/LwIP/src/core/tcp.c ****   u32_t new_right_edge = pcb->rcv_nxt + pcb->rcv_wnd;
 762:Middlewares/Third_Party/LwIP/src/core/tcp.c **** 
 763:Middlewares/Third_Party/LwIP/src/core/tcp.c ****   if (TCP_SEQ_GEQ(new_right_edge, pcb->rcv_ann_right_edge + LWIP_MIN((TCP_WND / 2), pcb->mss))) {
 764:Middlewares/Third_Party/LwIP/src/core/tcp.c ****     /* we can advertise more window */
 765:Middlewares/Third_Party/LwIP/src/core/tcp.c ****     pcb->rcv_ann_wnd = pcb->rcv_wnd;
 766:Middlewares/Third_Party/LwIP/src/core/tcp.c ****     return new_right_edge - pcb->rcv_ann_right_edge;
 767:Middlewares/Third_Party/LwIP/src/core/tcp.c ****   } else {
 768:Middlewares/Third_Party/LwIP/src/core/tcp.c ****     if (TCP_SEQ_GT(pcb->rcv_nxt, pcb->rcv_ann_right_edge)) {
 769:Middlewares/Third_Party/LwIP/src/core/tcp.c ****       /* Can happen due to other end sending out of advertised window,
 770:Middlewares/Third_Party/LwIP/src/core/tcp.c ****        * but within actual available (but not yet advertised) window */
 771:Middlewares/Third_Party/LwIP/src/core/tcp.c ****       pcb->rcv_ann_wnd = 0;
 772:Middlewares/Third_Party/LwIP/src/core/tcp.c ****     } else {
 773:Middlewares/Third_Party/LwIP/src/core/tcp.c ****       /* keep the right edge of window constant */
 774:Middlewares/Third_Party/LwIP/src/core/tcp.c ****       u32_t new_rcv_ann_wnd = pcb->rcv_ann_right_edge - pcb->rcv_nxt;
 775:Middlewares/Third_Party/LwIP/src/core/tcp.c **** #if !LWIP_WND_SCALE
 776:Middlewares/Third_Party/LwIP/src/core/tcp.c ****       LWIP_ASSERT("new_rcv_ann_wnd <= 0xffff", new_rcv_ann_wnd <= 0xffff);
 777:Middlewares/Third_Party/LwIP/src/core/tcp.c **** #endif
 778:Middlewares/Third_Party/LwIP/src/core/tcp.c ****       pcb->rcv_ann_wnd = (tcpwnd_size_t)new_rcv_ann_wnd;
 779:Middlewares/Third_Party/LwIP/src/core/tcp.c ****     }
 780:Middlewares/Third_Party/LwIP/src/core/tcp.c ****     return 0;
 781:Middlewares/Third_Party/LwIP/src/core/tcp.c ****   }
 782:Middlewares/Third_Party/LwIP/src/core/tcp.c **** }
 783:Middlewares/Third_Party/LwIP/src/core/tcp.c **** 
 784:Middlewares/Third_Party/LwIP/src/core/tcp.c **** /**
 785:Middlewares/Third_Party/LwIP/src/core/tcp.c ****  * @ingroup tcp_raw
 786:Middlewares/Third_Party/LwIP/src/core/tcp.c ****  * This function should be called by the application when it has
 787:Middlewares/Third_Party/LwIP/src/core/tcp.c ****  * processed the data. The purpose is to advertise a larger window
 788:Middlewares/Third_Party/LwIP/src/core/tcp.c ****  * when the data has been processed.
 789:Middlewares/Third_Party/LwIP/src/core/tcp.c ****  *
 790:Middlewares/Third_Party/LwIP/src/core/tcp.c ****  * @param pcb the tcp_pcb for which data is read
 791:Middlewares/Third_Party/LwIP/src/core/tcp.c ****  * @param len the amount of bytes that have been read by the application
 792:Middlewares/Third_Party/LwIP/src/core/tcp.c ****  */
 793:Middlewares/Third_Party/LwIP/src/core/tcp.c **** void
ARM GAS  C:\Users\Patryk\AppData\Local\Temp\cc1Vd65O.s 			page 16


 794:Middlewares/Third_Party/LwIP/src/core/tcp.c **** tcp_recved(struct tcp_pcb *pcb, u16_t len)
 795:Middlewares/Third_Party/LwIP/src/core/tcp.c **** {
 796:Middlewares/Third_Party/LwIP/src/core/tcp.c ****   int wnd_inflation;
 797:Middlewares/Third_Party/LwIP/src/core/tcp.c **** 
 798:Middlewares/Third_Party/LwIP/src/core/tcp.c ****   /* pcb->state LISTEN not allowed here */
 799:Middlewares/Third_Party/LwIP/src/core/tcp.c ****   LWIP_ASSERT("don't call tcp_recved for listen-pcbs",
 800:Middlewares/Third_Party/LwIP/src/core/tcp.c ****     pcb->state != LISTEN);
 801:Middlewares/Third_Party/LwIP/src/core/tcp.c **** 
 802:Middlewares/Third_Party/LwIP/src/core/tcp.c ****   pcb->rcv_wnd += len;
 803:Middlewares/Third_Party/LwIP/src/core/tcp.c ****   if (pcb->rcv_wnd > TCP_WND_MAX(pcb)) {
 804:Middlewares/Third_Party/LwIP/src/core/tcp.c ****     pcb->rcv_wnd = TCP_WND_MAX(pcb);
 805:Middlewares/Third_Party/LwIP/src/core/tcp.c ****   } else if (pcb->rcv_wnd == 0) {
 806:Middlewares/Third_Party/LwIP/src/core/tcp.c ****     /* rcv_wnd overflowed */
 807:Middlewares/Third_Party/LwIP/src/core/tcp.c ****     if ((pcb->state == CLOSE_WAIT) || (pcb->state == LAST_ACK)) {
 808:Middlewares/Third_Party/LwIP/src/core/tcp.c ****       /* In passive close, we allow this, since the FIN bit is added to rcv_wnd
 809:Middlewares/Third_Party/LwIP/src/core/tcp.c ****          by the stack itself, since it is not mandatory for an application
 810:Middlewares/Third_Party/LwIP/src/core/tcp.c ****          to call tcp_recved() for the FIN bit, but e.g. the netconn API does so. */
 811:Middlewares/Third_Party/LwIP/src/core/tcp.c ****       pcb->rcv_wnd = TCP_WND_MAX(pcb);
 812:Middlewares/Third_Party/LwIP/src/core/tcp.c ****     } else {
 813:Middlewares/Third_Party/LwIP/src/core/tcp.c ****       LWIP_ASSERT("tcp_recved: len wrapped rcv_wnd\n", 0);
 814:Middlewares/Third_Party/LwIP/src/core/tcp.c ****     }
 815:Middlewares/Third_Party/LwIP/src/core/tcp.c ****   }
 816:Middlewares/Third_Party/LwIP/src/core/tcp.c **** 
 817:Middlewares/Third_Party/LwIP/src/core/tcp.c ****   wnd_inflation = tcp_update_rcv_ann_wnd(pcb);
 818:Middlewares/Third_Party/LwIP/src/core/tcp.c **** 
 819:Middlewares/Third_Party/LwIP/src/core/tcp.c ****   /* If the change in the right edge of window is significant (default
 820:Middlewares/Third_Party/LwIP/src/core/tcp.c ****    * watermark is TCP_WND/4), then send an explicit update now.
 821:Middlewares/Third_Party/LwIP/src/core/tcp.c ****    * Otherwise wait for a packet to be sent in the normal course of
 822:Middlewares/Third_Party/LwIP/src/core/tcp.c ****    * events (or more window to be available later) */
 823:Middlewares/Third_Party/LwIP/src/core/tcp.c ****   if (wnd_inflation >= TCP_WND_UPDATE_THRESHOLD) {
 824:Middlewares/Third_Party/LwIP/src/core/tcp.c ****     tcp_ack_now(pcb);
 825:Middlewares/Third_Party/LwIP/src/core/tcp.c ****     tcp_output(pcb);
 826:Middlewares/Third_Party/LwIP/src/core/tcp.c ****   }
 827:Middlewares/Third_Party/LwIP/src/core/tcp.c **** 
 828:Middlewares/Third_Party/LwIP/src/core/tcp.c ****   LWIP_DEBUGF(TCP_DEBUG, ("tcp_recved: received %"U16_F" bytes, wnd %"TCPWNDSIZE_F" (%"TCPWNDSIZE_F
 829:Middlewares/Third_Party/LwIP/src/core/tcp.c ****          len, pcb->rcv_wnd, (u16_t)(TCP_WND_MAX(pcb) - pcb->rcv_wnd)));
 830:Middlewares/Third_Party/LwIP/src/core/tcp.c **** }
 831:Middlewares/Third_Party/LwIP/src/core/tcp.c **** 
 832:Middlewares/Third_Party/LwIP/src/core/tcp.c **** /**
 833:Middlewares/Third_Party/LwIP/src/core/tcp.c ****  * Allocate a new local TCP port.
 834:Middlewares/Third_Party/LwIP/src/core/tcp.c ****  *
 835:Middlewares/Third_Party/LwIP/src/core/tcp.c ****  * @return a new (free) local TCP port number
 836:Middlewares/Third_Party/LwIP/src/core/tcp.c ****  */
 837:Middlewares/Third_Party/LwIP/src/core/tcp.c **** static u16_t
 838:Middlewares/Third_Party/LwIP/src/core/tcp.c **** tcp_new_port(void)
 839:Middlewares/Third_Party/LwIP/src/core/tcp.c **** {
  66              		.loc 1 839 0
  67              		.cfi_startproc
  68              		@ args = 0, pretend = 0, frame = 0
  69              		@ frame_needed = 0, uses_anonymous_args = 0
  70              		@ link register save eliminated.
  71 0000 10B4     		push	{r4}
  72              	.LCFI0:
  73              		.cfi_def_cfa_offset 4
  74              		.cfi_offset 4, -4
  75              	.LVL3:
 840:Middlewares/Third_Party/LwIP/src/core/tcp.c ****   u8_t i;
ARM GAS  C:\Users\Patryk\AppData\Local\Temp\cc1Vd65O.s 			page 17


 841:Middlewares/Third_Party/LwIP/src/core/tcp.c ****   u16_t n = 0;
  76              		.loc 1 841 0
  77 0002 0024     		movs	r4, #0
  78 0004 09E0     		b	.L7
  79              	.LVL4:
  80              	.L18:
 842:Middlewares/Third_Party/LwIP/src/core/tcp.c ****   struct tcp_pcb *pcb;
 843:Middlewares/Third_Party/LwIP/src/core/tcp.c **** 
 844:Middlewares/Third_Party/LwIP/src/core/tcp.c **** again:
 845:Middlewares/Third_Party/LwIP/src/core/tcp.c ****   if (tcp_port++ == TCP_LOCAL_PORT_RANGE_END) {
 846:Middlewares/Third_Party/LwIP/src/core/tcp.c ****     tcp_port = TCP_LOCAL_PORT_RANGE_START;
  81              		.loc 1 846 0
  82 0006 154B     		ldr	r3, .L22
  83 0008 4FF44042 		mov	r2, #49152
  84 000c 1A80     		strh	r2, [r3]	@ movhi
  85 000e 0CE0     		b	.L8
  86              	.LVL5:
  87              	.L21:
 847:Middlewares/Third_Party/LwIP/src/core/tcp.c ****   }
 848:Middlewares/Third_Party/LwIP/src/core/tcp.c ****   /* Check all PCB lists. */
 849:Middlewares/Third_Party/LwIP/src/core/tcp.c ****   for (i = 0; i < NUM_TCP_PCB_LISTS; i++) {
 850:Middlewares/Third_Party/LwIP/src/core/tcp.c ****     for (pcb = *tcp_pcb_lists[i]; pcb != NULL; pcb = pcb->next) {
 851:Middlewares/Third_Party/LwIP/src/core/tcp.c ****       if (pcb->local_port == tcp_port) {
 852:Middlewares/Third_Party/LwIP/src/core/tcp.c ****         if (++n > (TCP_LOCAL_PORT_RANGE_END - TCP_LOCAL_PORT_RANGE_START)) {
  88              		.loc 1 852 0
  89 0010 0134     		adds	r4, r4, #1
  90              	.LVL6:
  91 0012 A4B2     		uxth	r4, r4
  92              	.LVL7:
  93 0014 B4F5804F 		cmp	r4, #16384
  94 0018 1ED2     		bcs	.L17
  95              	.LVL8:
  96              	.L7:
 845:Middlewares/Third_Party/LwIP/src/core/tcp.c ****     tcp_port = TCP_LOCAL_PORT_RANGE_START;
  97              		.loc 1 845 0
  98 001a 104A     		ldr	r2, .L22
  99 001c 1388     		ldrh	r3, [r2]
 100 001e 591C     		adds	r1, r3, #1
 101 0020 1180     		strh	r1, [r2]	@ movhi
 102 0022 4FF6FF72 		movw	r2, #65535
 103 0026 9342     		cmp	r3, r2
 104 0028 EDD0     		beq	.L18
 105              	.L8:
 106              	.LVL9:
 849:Middlewares/Third_Party/LwIP/src/core/tcp.c ****     for (pcb = *tcp_pcb_lists[i]; pcb != NULL; pcb = pcb->next) {
 107              		.loc 1 849 0
 108 002a 0020     		movs	r0, #0
 109              	.LVL10:
 110              	.L9:
 849:Middlewares/Third_Party/LwIP/src/core/tcp.c ****     for (pcb = *tcp_pcb_lists[i]; pcb != NULL; pcb = pcb->next) {
 111              		.loc 1 849 0 is_stmt 0 discriminator 1
 112 002c 0328     		cmp	r0, #3
 113 002e 0ED8     		bhi	.L19
 850:Middlewares/Third_Party/LwIP/src/core/tcp.c ****       if (pcb->local_port == tcp_port) {
 114              		.loc 1 850 0 is_stmt 1
 115 0030 0B4B     		ldr	r3, .L22+4
 116 0032 53F82030 		ldr	r3, [r3, r0, lsl #2]
ARM GAS  C:\Users\Patryk\AppData\Local\Temp\cc1Vd65O.s 			page 18


 117 0036 1B68     		ldr	r3, [r3]
 118              	.LVL11:
 119              	.L10:
 850:Middlewares/Third_Party/LwIP/src/core/tcp.c ****       if (pcb->local_port == tcp_port) {
 120              		.loc 1 850 0 is_stmt 0 discriminator 1
 121 0038 33B1     		cbz	r3, .L20
 851:Middlewares/Third_Party/LwIP/src/core/tcp.c ****         if (++n > (TCP_LOCAL_PORT_RANGE_END - TCP_LOCAL_PORT_RANGE_START)) {
 122              		.loc 1 851 0 is_stmt 1
 123 003a D98A     		ldrh	r1, [r3, #22]
 124 003c 074A     		ldr	r2, .L22
 125 003e 1288     		ldrh	r2, [r2]
 126 0040 9142     		cmp	r1, r2
 127 0042 E5D0     		beq	.L21
 850:Middlewares/Third_Party/LwIP/src/core/tcp.c ****       if (pcb->local_port == tcp_port) {
 128              		.loc 1 850 0 discriminator 2
 129 0044 DB68     		ldr	r3, [r3, #12]
 130              	.LVL12:
 131 0046 F7E7     		b	.L10
 132              	.L20:
 849:Middlewares/Third_Party/LwIP/src/core/tcp.c ****     for (pcb = *tcp_pcb_lists[i]; pcb != NULL; pcb = pcb->next) {
 133              		.loc 1 849 0 discriminator 2
 134 0048 0130     		adds	r0, r0, #1
 135              	.LVL13:
 136 004a C0B2     		uxtb	r0, r0
 137              	.LVL14:
 138 004c EEE7     		b	.L9
 139              	.LVL15:
 140              	.L19:
 853:Middlewares/Third_Party/LwIP/src/core/tcp.c ****           return 0;
 854:Middlewares/Third_Party/LwIP/src/core/tcp.c ****         }
 855:Middlewares/Third_Party/LwIP/src/core/tcp.c ****         goto again;
 856:Middlewares/Third_Party/LwIP/src/core/tcp.c ****       }
 857:Middlewares/Third_Party/LwIP/src/core/tcp.c ****     }
 858:Middlewares/Third_Party/LwIP/src/core/tcp.c ****   }
 859:Middlewares/Third_Party/LwIP/src/core/tcp.c ****   return tcp_port;
 141              		.loc 1 859 0
 142 004e 034B     		ldr	r3, .L22
 143 0050 1888     		ldrh	r0, [r3]
 144              	.LVL16:
 145              	.L12:
 860:Middlewares/Third_Party/LwIP/src/core/tcp.c **** }
 146              		.loc 1 860 0
 147 0052 5DF8044B 		ldr	r4, [sp], #4
 148              	.LCFI1:
 149              		.cfi_remember_state
 150              		.cfi_restore 4
 151              		.cfi_def_cfa_offset 0
 152              	.LVL17:
 153 0056 7047     		bx	lr
 154              	.LVL18:
 155              	.L17:
 156              	.LCFI2:
 157              		.cfi_restore_state
 853:Middlewares/Third_Party/LwIP/src/core/tcp.c ****           return 0;
 158              		.loc 1 853 0
 159 0058 0020     		movs	r0, #0
 160              	.LVL19:
ARM GAS  C:\Users\Patryk\AppData\Local\Temp\cc1Vd65O.s 			page 19


 161 005a FAE7     		b	.L12
 162              	.L23:
 163              		.align	2
 164              	.L22:
 165 005c 00000000 		.word	.LANCHOR0
 166 0060 00000000 		.word	.LANCHOR1
 167              		.cfi_endproc
 168              	.LFE170:
 170              		.section	.text.tcp_listen_closed,"ax",%progbits
 171              		.align	1
 172              		.syntax unified
 173              		.thumb
 174              		.thumb_func
 175              		.fpu fpv5-sp-d16
 177              	tcp_listen_closed:
 178              	.LFB157:
 189:Middlewares/Third_Party/LwIP/src/core/tcp.c **** #if LWIP_CALLBACK_API || TCP_LISTEN_BACKLOG
 179              		.loc 1 189 0
 180              		.cfi_startproc
 181              		@ args = 0, pretend = 0, frame = 0
 182              		@ frame_needed = 0, uses_anonymous_args = 0
 183              	.LVL20:
 184 0000 38B5     		push	{r3, r4, r5, lr}
 185              	.LCFI3:
 186              		.cfi_def_cfa_offset 16
 187              		.cfi_offset 3, -16
 188              		.cfi_offset 4, -12
 189              		.cfi_offset 5, -8
 190              		.cfi_offset 14, -4
 192:Middlewares/Third_Party/LwIP/src/core/tcp.c ****   LWIP_ASSERT("pcb->state == LISTEN", pcb->state == LISTEN);
 191              		.loc 1 192 0
 192 0002 0546     		mov	r5, r0
 193 0004 20B1     		cbz	r0, .L30
 194              	.LVL21:
 195              	.L25:
 193:Middlewares/Third_Party/LwIP/src/core/tcp.c ****   for (i = 1; i < LWIP_ARRAYSIZE(tcp_pcb_lists); i++) {
 196              		.loc 1 193 0
 197 0006 2B7D     		ldrb	r3, [r5, #20]	@ zero_extendqisi2
 198 0008 012B     		cmp	r3, #1
 199 000a 08D1     		bne	.L31
 200              	.L26:
 189:Middlewares/Third_Party/LwIP/src/core/tcp.c **** #if LWIP_CALLBACK_API || TCP_LISTEN_BACKLOG
 201              		.loc 1 189 0 discriminator 1
 202 000c 0124     		movs	r4, #1
 203 000e 15E0     		b	.L27
 204              	.LVL22:
 205              	.L30:
 192:Middlewares/Third_Party/LwIP/src/core/tcp.c ****   LWIP_ASSERT("pcb->state == LISTEN", pcb->state == LISTEN);
 206              		.loc 1 192 0 discriminator 1
 207 0010 0C4B     		ldr	r3, .L32
 208 0012 C022     		movs	r2, #192
 209 0014 0C49     		ldr	r1, .L32+4
 210 0016 0D48     		ldr	r0, .L32+8
 211              	.LVL23:
 212 0018 FFF7FEFF 		bl	printf
 213              	.LVL24:
 214 001c F3E7     		b	.L25
ARM GAS  C:\Users\Patryk\AppData\Local\Temp\cc1Vd65O.s 			page 20


 215              	.L31:
 193:Middlewares/Third_Party/LwIP/src/core/tcp.c ****   for (i = 1; i < LWIP_ARRAYSIZE(tcp_pcb_lists); i++) {
 216              		.loc 1 193 0 discriminator 1
 217 001e 094B     		ldr	r3, .L32
 218 0020 C122     		movs	r2, #193
 219 0022 0B49     		ldr	r1, .L32+12
 220 0024 0948     		ldr	r0, .L32+8
 221 0026 FFF7FEFF 		bl	printf
 222              	.LVL25:
 223 002a EFE7     		b	.L26
 224              	.LVL26:
 225              	.L28:
 195:Middlewares/Third_Party/LwIP/src/core/tcp.c ****   }
 226              		.loc 1 195 0 discriminator 3
 227 002c 094B     		ldr	r3, .L32+16
 228 002e 53F82430 		ldr	r3, [r3, r4, lsl #2]
 229 0032 2946     		mov	r1, r5
 230 0034 1868     		ldr	r0, [r3]
 231 0036 FFF7FEFF 		bl	tcp_remove_listener
 232              	.LVL27:
 194:Middlewares/Third_Party/LwIP/src/core/tcp.c ****     tcp_remove_listener(*tcp_pcb_lists[i], (struct tcp_pcb_listen*)pcb);
 233              		.loc 1 194 0 discriminator 3
 234 003a 0134     		adds	r4, r4, #1
 235              	.LVL28:
 236              	.L27:
 194:Middlewares/Third_Party/LwIP/src/core/tcp.c ****     tcp_remove_listener(*tcp_pcb_lists[i], (struct tcp_pcb_listen*)pcb);
 237              		.loc 1 194 0 is_stmt 0 discriminator 1
 238 003c 032C     		cmp	r4, #3
 239 003e F5D9     		bls	.L28
 199:Middlewares/Third_Party/LwIP/src/core/tcp.c **** 
 240              		.loc 1 199 0 is_stmt 1
 241 0040 38BD     		pop	{r3, r4, r5, pc}
 242              	.LVL29:
 243              	.L33:
 244 0042 00BF     		.align	2
 245              	.L32:
 246 0044 00000000 		.word	.LC0
 247 0048 2C000000 		.word	.LC1
 248 004c 38000000 		.word	.LC2
 249 0050 60000000 		.word	.LC3
 250 0054 00000000 		.word	.LANCHOR1
 251              		.cfi_endproc
 252              	.LFE157:
 254              		.section	.text.tcp_close_shutdown_fin,"ax",%progbits
 255              		.align	1
 256              		.syntax unified
 257              		.thumb
 258              		.thumb_func
 259              		.fpu fpv5-sp-d16
 261              	tcp_close_shutdown_fin:
 262              	.LFB159:
 331:Middlewares/Third_Party/LwIP/src/core/tcp.c ****   err_t err;
 263              		.loc 1 331 0
 264              		.cfi_startproc
 265              		@ args = 0, pretend = 0, frame = 0
 266              		@ frame_needed = 0, uses_anonymous_args = 0
 267              	.LVL30:
ARM GAS  C:\Users\Patryk\AppData\Local\Temp\cc1Vd65O.s 			page 21


 268 0000 38B5     		push	{r3, r4, r5, lr}
 269              	.LCFI4:
 270              		.cfi_def_cfa_offset 16
 271              		.cfi_offset 3, -16
 272              		.cfi_offset 4, -12
 273              		.cfi_offset 5, -8
 274              		.cfi_offset 14, -4
 333:Middlewares/Third_Party/LwIP/src/core/tcp.c **** 
 275              		.loc 1 333 0
 276 0002 0446     		mov	r4, r0
 277 0004 40B1     		cbz	r0, .L45
 278              	.LVL31:
 279              	.L35:
 335:Middlewares/Third_Party/LwIP/src/core/tcp.c ****   case SYN_RCVD:
 280              		.loc 1 335 0
 281 0006 237D     		ldrb	r3, [r4, #20]	@ zero_extendqisi2
 282 0008 042B     		cmp	r3, #4
 283 000a 1AD0     		beq	.L37
 284 000c 072B     		cmp	r3, #7
 285 000e 21D0     		beq	.L38
 286 0010 032B     		cmp	r3, #3
 287 0012 09D0     		beq	.L46
 360:Middlewares/Third_Party/LwIP/src/core/tcp.c ****   }
 288              		.loc 1 360 0
 289 0014 0025     		movs	r5, #0
 290 0016 12E0     		b	.L36
 291              	.LVL32:
 292              	.L45:
 333:Middlewares/Third_Party/LwIP/src/core/tcp.c **** 
 293              		.loc 1 333 0 discriminator 1
 294 0018 184B     		ldr	r3, .L49
 295 001a 40F24D12 		movw	r2, #333
 296 001e 1849     		ldr	r1, .L49+4
 297 0020 1848     		ldr	r0, .L49+8
 298              	.LVL33:
 299 0022 FFF7FEFF 		bl	printf
 300              	.LVL34:
 301 0026 EEE7     		b	.L35
 302              	.L46:
 337:Middlewares/Third_Party/LwIP/src/core/tcp.c ****     if (err == ERR_OK) {
 303              		.loc 1 337 0
 304 0028 2046     		mov	r0, r4
 305 002a FFF7FEFF 		bl	tcp_send_fin
 306              	.LVL35:
 338:Middlewares/Third_Party/LwIP/src/core/tcp.c ****       tcp_backlog_accepted(pcb);
 307              		.loc 1 338 0
 308 002e 0546     		mov	r5, r0
 309 0030 08B9     		cbnz	r0, .L40
 341:Middlewares/Third_Party/LwIP/src/core/tcp.c ****     }
 310              		.loc 1 341 0
 311 0032 0523     		movs	r3, #5
 312 0034 2375     		strb	r3, [r4, #20]
 313              	.L40:
 314              	.LVL36:
 363:Middlewares/Third_Party/LwIP/src/core/tcp.c ****     /* To ensure all data has been sent when tcp_close returns, we have
 315              		.loc 1 363 0
 316 0036 B5B1     		cbz	r5, .L47
ARM GAS  C:\Users\Patryk\AppData\Local\Temp\cc1Vd65O.s 			page 22


 370:Middlewares/Third_Party/LwIP/src/core/tcp.c ****     /* Mark this pcb for closing. Closing is retried from tcp_tmr. */
 317              		.loc 1 370 0
 318 0038 B5F1FF3F 		cmp	r5, #-1
 319 003c 17D0     		beq	.L48
 320              	.LVL37:
 321              	.L36:
 381:Middlewares/Third_Party/LwIP/src/core/tcp.c **** 
 322              		.loc 1 381 0
 323 003e 2846     		mov	r0, r5
 324 0040 38BD     		pop	{r3, r4, r5, pc}
 325              	.LVL38:
 326              	.L37:
 345:Middlewares/Third_Party/LwIP/src/core/tcp.c ****     if (err == ERR_OK) {
 327              		.loc 1 345 0
 328 0042 2046     		mov	r0, r4
 329 0044 FFF7FEFF 		bl	tcp_send_fin
 330              	.LVL39:
 346:Middlewares/Third_Party/LwIP/src/core/tcp.c ****       MIB2_STATS_INC(mib2.tcpestabresets);
 331              		.loc 1 346 0
 332 0048 0546     		mov	r5, r0
 333 004a 0028     		cmp	r0, #0
 334 004c F3D1     		bne	.L40
 348:Middlewares/Third_Party/LwIP/src/core/tcp.c ****     }
 335              		.loc 1 348 0
 336 004e 0523     		movs	r3, #5
 337 0050 2375     		strb	r3, [r4, #20]
 338 0052 F0E7     		b	.L40
 339              	.LVL40:
 340              	.L38:
 352:Middlewares/Third_Party/LwIP/src/core/tcp.c ****     if (err == ERR_OK) {
 341              		.loc 1 352 0
 342 0054 2046     		mov	r0, r4
 343 0056 FFF7FEFF 		bl	tcp_send_fin
 344              	.LVL41:
 353:Middlewares/Third_Party/LwIP/src/core/tcp.c ****       MIB2_STATS_INC(mib2.tcpestabresets);
 345              		.loc 1 353 0
 346 005a 0546     		mov	r5, r0
 347 005c 0028     		cmp	r0, #0
 348 005e EAD1     		bne	.L40
 355:Middlewares/Third_Party/LwIP/src/core/tcp.c ****     }
 349              		.loc 1 355 0
 350 0060 0923     		movs	r3, #9
 351 0062 2375     		strb	r3, [r4, #20]
 352 0064 E7E7     		b	.L40
 353              	.LVL42:
 354              	.L47:
 369:Middlewares/Third_Party/LwIP/src/core/tcp.c ****   } else if (err == ERR_MEM) {
 355              		.loc 1 369 0
 356 0066 2046     		mov	r0, r4
 357 0068 FFF7FEFF 		bl	tcp_output
 358              	.LVL43:
 359 006c E7E7     		b	.L36
 360              	.L48:
 372:Middlewares/Third_Party/LwIP/src/core/tcp.c ****     /* We have to return ERR_OK from here to indicate to the callers that this
 361              		.loc 1 372 0
 362 006e A37E     		ldrb	r3, [r4, #26]	@ zero_extendqisi2
 363 0070 43F00803 		orr	r3, r3, #8
ARM GAS  C:\Users\Patryk\AppData\Local\Temp\cc1Vd65O.s 			page 23


 364 0074 A376     		strb	r3, [r4, #26]
 378:Middlewares/Third_Party/LwIP/src/core/tcp.c ****   }
 365              		.loc 1 378 0
 366 0076 0025     		movs	r5, #0
 367              	.LVL44:
 368 0078 E1E7     		b	.L36
 369              	.L50:
 370 007a 00BF     		.align	2
 371              	.L49:
 372 007c 00000000 		.word	.LC0
 373 0080 2C000000 		.word	.LC1
 374 0084 38000000 		.word	.LC2
 375              		.cfi_endproc
 376              	.LFE159:
 378              		.section	.text.tcp_init,"ax",%progbits
 379              		.align	1
 380              		.global	tcp_init
 381              		.syntax unified
 382              		.thumb
 383              		.thumb_func
 384              		.fpu fpv5-sp-d16
 386              	tcp_init:
 387              	.LFB154:
 146:Middlewares/Third_Party/LwIP/src/core/tcp.c **** #if LWIP_RANDOMIZE_INITIAL_LOCAL_PORTS && defined(LWIP_RAND)
 388              		.loc 1 146 0
 389              		.cfi_startproc
 390              		@ args = 0, pretend = 0, frame = 0
 391              		@ frame_needed = 0, uses_anonymous_args = 0
 392              		@ link register save eliminated.
 150:Middlewares/Third_Party/LwIP/src/core/tcp.c **** 
 393              		.loc 1 150 0
 394 0000 7047     		bx	lr
 395              		.cfi_endproc
 396              	.LFE154:
 398              		.section	.text.tcp_bind,"ax",%progbits
 399              		.align	1
 400              		.global	tcp_bind
 401              		.syntax unified
 402              		.thumb
 403              		.thumb_func
 404              		.fpu fpv5-sp-d16
 406              	tcp_bind:
 407              	.LFB164:
 563:Middlewares/Third_Party/LwIP/src/core/tcp.c ****   int i;
 408              		.loc 1 563 0
 409              		.cfi_startproc
 410              		@ args = 0, pretend = 0, frame = 0
 411              		@ frame_needed = 0, uses_anonymous_args = 0
 412              	.LVL45:
 413 0000 70B5     		push	{r4, r5, r6, lr}
 414              	.LCFI5:
 415              		.cfi_def_cfa_offset 16
 416              		.cfi_offset 4, -16
 417              		.cfi_offset 5, -12
 418              		.cfi_offset 6, -8
 419              		.cfi_offset 14, -4
 420 0002 0546     		mov	r5, r0
ARM GAS  C:\Users\Patryk\AppData\Local\Temp\cc1Vd65O.s 			page 24


 421              	.LVL46:
 570:Middlewares/Third_Party/LwIP/src/core/tcp.c ****     ipaddr = IP4_ADDR_ANY;
 422              		.loc 1 570 0
 423 0004 0C46     		mov	r4, r1
 424 0006 91B1     		cbz	r1, .L73
 425              	.L53:
 426              	.LVL47:
 576:Middlewares/Third_Party/LwIP/src/core/tcp.c ****     return ERR_VAL;
 427              		.loc 1 576 0
 428 0008 B4FA84F3 		clz	r3, r4
 429 000c 5B09     		lsrs	r3, r3, #5
 430 000e 002D     		cmp	r5, #0
 431 0010 08BF     		it	eq
 432 0012 0123     		moveq	r3, #1
 433 0014 002B     		cmp	r3, #0
 434 0016 39D1     		bne	.L64
 580:Middlewares/Third_Party/LwIP/src/core/tcp.c **** 
 435              		.loc 1 580 0
 436 0018 2B7D     		ldrb	r3, [r5, #20]	@ zero_extendqisi2
 437 001a 53B9     		cbnz	r3, .L74
 593:Middlewares/Third_Party/LwIP/src/core/tcp.c ****     port = tcp_new_port();
 438              		.loc 1 593 0
 439 001c 9AB1     		cbz	r2, .L75
 600:Middlewares/Third_Party/LwIP/src/core/tcp.c ****       for (cpcb = *tcp_pcb_lists[i]; cpcb != NULL; cpcb = cpcb->next) {
 440              		.loc 1 600 0
 441 001e 0026     		movs	r6, #0
 442              	.LVL48:
 443              	.L56:
 600:Middlewares/Third_Party/LwIP/src/core/tcp.c ****       for (cpcb = *tcp_pcb_lists[i]; cpcb != NULL; cpcb = cpcb->next) {
 444              		.loc 1 600 0 is_stmt 0 discriminator 1
 445 0020 032E     		cmp	r6, #3
 446 0022 14DC     		bgt	.L57
 601:Middlewares/Third_Party/LwIP/src/core/tcp.c ****         if (cpcb->local_port == port) {
 447              		.loc 1 601 0 is_stmt 1
 448 0024 224B     		ldr	r3, .L78
 449 0026 53F82630 		ldr	r3, [r3, r6, lsl #2]
 450 002a 1B68     		ldr	r3, [r3]
 451              	.LVL49:
 452 002c 1DE0     		b	.L58
 453              	.LVL50:
 454              	.L73:
 571:Middlewares/Third_Party/LwIP/src/core/tcp.c ****   }
 455              		.loc 1 571 0
 456 002e 214C     		ldr	r4, .L78+4
 457 0030 EAE7     		b	.L53
 458              	.LVL51:
 459              	.L74:
 580:Middlewares/Third_Party/LwIP/src/core/tcp.c **** 
 460              		.loc 1 580 0 discriminator 1
 461 0032 214B     		ldr	r3, .L78+8
 462 0034 4FF41172 		mov	r2, #580
 463              	.LVL52:
 464 0038 2049     		ldr	r1, .L78+12
 465 003a 2148     		ldr	r0, .L78+16
 466              	.LVL53:
 467 003c FFF7FEFF 		bl	printf
 468              	.LVL54:
ARM GAS  C:\Users\Patryk\AppData\Local\Temp\cc1Vd65O.s 			page 25


 469 0040 6FF00500 		mvn	r0, #5
 470 0044 0FE0     		b	.L54
 471              	.LVL55:
 472              	.L75:
 594:Middlewares/Third_Party/LwIP/src/core/tcp.c ****     if (port == 0) {
 473              		.loc 1 594 0
 474 0046 FFF7FEFF 		bl	tcp_new_port
 475              	.LVL56:
 595:Middlewares/Third_Party/LwIP/src/core/tcp.c ****       return ERR_BUF;
 476              		.loc 1 595 0
 477 004a 0246     		mov	r2, r0
 478 004c 08B3     		cbz	r0, .L76
 479              	.LVL57:
 480              	.L57:
 624:Middlewares/Third_Party/LwIP/src/core/tcp.c ****     ip_addr_set(&pcb->local_ip, ipaddr);
 481              		.loc 1 624 0
 482 004e 14B1     		cbz	r4, .L62
 624:Middlewares/Third_Party/LwIP/src/core/tcp.c ****     ip_addr_set(&pcb->local_ip, ipaddr);
 483              		.loc 1 624 0 is_stmt 0 discriminator 1
 484 0050 2368     		ldr	r3, [r4]
 485 0052 03B1     		cbz	r3, .L62
 625:Middlewares/Third_Party/LwIP/src/core/tcp.c ****   }
 486              		.loc 1 625 0 is_stmt 1 discriminator 4
 487 0054 2B60     		str	r3, [r5]
 488              	.L62:
 627:Middlewares/Third_Party/LwIP/src/core/tcp.c ****   TCP_REG(&tcp_bound_pcbs, pcb);
 489              		.loc 1 627 0
 490 0056 EA82     		strh	r2, [r5, #22]	@ movhi
 628:Middlewares/Third_Party/LwIP/src/core/tcp.c ****   LWIP_DEBUGF(TCP_DEBUG, ("tcp_bind: bind to port %"U16_F"\n", port));
 491              		.loc 1 628 0
 492 0058 1A4B     		ldr	r3, .L78+20
 493 005a 1A68     		ldr	r2, [r3]
 494              	.LVL58:
 495 005c EA60     		str	r2, [r5, #12]
 496 005e 1D60     		str	r5, [r3]
 497 0060 FFF7FEFF 		bl	tcp_timer_needed
 498              	.LVL59:
 630:Middlewares/Third_Party/LwIP/src/core/tcp.c **** }
 499              		.loc 1 630 0
 500 0064 0020     		movs	r0, #0
 501              	.L54:
 631:Middlewares/Third_Party/LwIP/src/core/tcp.c **** #if LWIP_CALLBACK_API
 502              		.loc 1 631 0
 503 0066 70BD     		pop	{r4, r5, r6, pc}
 504              	.LVL60:
 505              	.L59:
 601:Middlewares/Third_Party/LwIP/src/core/tcp.c ****         if (cpcb->local_port == port) {
 506              		.loc 1 601 0 discriminator 2
 507 0068 DB68     		ldr	r3, [r3, #12]
 508              	.LVL61:
 509              	.L58:
 601:Middlewares/Third_Party/LwIP/src/core/tcp.c ****         if (cpcb->local_port == port) {
 510              		.loc 1 601 0 is_stmt 0 discriminator 1
 511 006a 6BB1     		cbz	r3, .L77
 602:Middlewares/Third_Party/LwIP/src/core/tcp.c **** #if SO_REUSE
 512              		.loc 1 602 0 is_stmt 1
 513 006c D98A     		ldrh	r1, [r3, #22]
ARM GAS  C:\Users\Patryk\AppData\Local\Temp\cc1Vd65O.s 			page 26


 514 006e 9142     		cmp	r1, r2
 515 0070 FAD1     		bne	.L59
 612:Middlewares/Third_Party/LwIP/src/core/tcp.c ****                 (ip_addr_isany(&cpcb->local_ip) ||
 516              		.loc 1 612 0
 517 0072 8BB1     		cbz	r3, .L67
 613:Middlewares/Third_Party/LwIP/src/core/tcp.c ****                 ip_addr_isany(ipaddr) ||
 518              		.loc 1 613 0
 519 0074 1968     		ldr	r1, [r3]
 520 0076 91B1     		cbz	r1, .L68
 613:Middlewares/Third_Party/LwIP/src/core/tcp.c ****                 ip_addr_isany(ipaddr) ||
 521              		.loc 1 613 0 is_stmt 0 discriminator 1
 522 0078 A4B1     		cbz	r4, .L69
 614:Middlewares/Third_Party/LwIP/src/core/tcp.c ****                 ip_addr_cmp(&cpcb->local_ip, ipaddr))) {
 523              		.loc 1 614 0 is_stmt 1
 524 007a 2068     		ldr	r0, [r4]
 525 007c A8B1     		cbz	r0, .L70
 612:Middlewares/Third_Party/LwIP/src/core/tcp.c ****                 (ip_addr_isany(&cpcb->local_ip) ||
 526              		.loc 1 612 0
 527 007e 8142     		cmp	r1, r0
 528 0080 F2D1     		bne	.L59
 616:Middlewares/Third_Party/LwIP/src/core/tcp.c ****             }
 529              		.loc 1 616 0
 530 0082 6FF00700 		mvn	r0, #7
 531 0086 EEE7     		b	.L54
 532              	.L77:
 600:Middlewares/Third_Party/LwIP/src/core/tcp.c ****       for (cpcb = *tcp_pcb_lists[i]; cpcb != NULL; cpcb = cpcb->next) {
 533              		.loc 1 600 0 discriminator 2
 534 0088 0136     		adds	r6, r6, #1
 535              	.LVL62:
 536 008a C9E7     		b	.L56
 537              	.LVL63:
 538              	.L64:
 577:Middlewares/Third_Party/LwIP/src/core/tcp.c ****   }
 539              		.loc 1 577 0
 540 008c 6FF00500 		mvn	r0, #5
 541              	.LVL64:
 542 0090 E9E7     		b	.L54
 543              	.LVL65:
 544              	.L76:
 596:Middlewares/Third_Party/LwIP/src/core/tcp.c ****     }
 545              		.loc 1 596 0
 546 0092 6FF00100 		mvn	r0, #1
 547              	.LVL66:
 548 0096 E6E7     		b	.L54
 549              	.LVL67:
 550              	.L67:
 616:Middlewares/Third_Party/LwIP/src/core/tcp.c ****             }
 551              		.loc 1 616 0
 552 0098 6FF00700 		mvn	r0, #7
 553 009c E3E7     		b	.L54
 554              	.L68:
 555 009e 6FF00700 		mvn	r0, #7
 556 00a2 E0E7     		b	.L54
 557              	.L69:
 558 00a4 6FF00700 		mvn	r0, #7
 559 00a8 DDE7     		b	.L54
 560              	.L70:
ARM GAS  C:\Users\Patryk\AppData\Local\Temp\cc1Vd65O.s 			page 27


 561 00aa 6FF00700 		mvn	r0, #7
 562 00ae DAE7     		b	.L54
 563              	.L79:
 564              		.align	2
 565              	.L78:
 566 00b0 00000000 		.word	.LANCHOR1
 567 00b4 00000000 		.word	ip_addr_any
 568 00b8 00000000 		.word	.LC0
 569 00bc 00000000 		.word	.LC4
 570 00c0 38000000 		.word	.LC2
 571 00c4 00000000 		.word	tcp_bound_pcbs
 572              		.cfi_endproc
 573              	.LFE164:
 575              		.section	.text.tcp_listen_with_backlog_and_err,"ax",%progbits
 576              		.align	1
 577              		.global	tcp_listen_with_backlog_and_err
 578              		.syntax unified
 579              		.thumb
 580              		.thumb_func
 581              		.fpu fpv5-sp-d16
 583              	tcp_listen_with_backlog_and_err:
 584              	.LFB167:
 687:Middlewares/Third_Party/LwIP/src/core/tcp.c ****   struct tcp_pcb_listen *lpcb = NULL;
 585              		.loc 1 687 0
 586              		.cfi_startproc
 587              		@ args = 0, pretend = 0, frame = 0
 588              		@ frame_needed = 0, uses_anonymous_args = 0
 589              	.LVL68:
 590 0000 70B5     		push	{r4, r5, r6, lr}
 591              	.LCFI6:
 592              		.cfi_def_cfa_offset 16
 593              		.cfi_offset 4, -16
 594              		.cfi_offset 5, -12
 595              		.cfi_offset 6, -8
 596              		.cfi_offset 14, -4
 597 0002 1646     		mov	r6, r2
 598              	.LVL69:
 692:Middlewares/Third_Party/LwIP/src/core/tcp.c **** 
 599              		.loc 1 692 0
 600 0004 037D     		ldrb	r3, [r0, #20]	@ zero_extendqisi2
 601 0006 4BB9     		cbnz	r3, .L92
 602 0008 0446     		mov	r4, r0
 695:Middlewares/Third_Party/LwIP/src/core/tcp.c ****     lpcb = (struct tcp_pcb_listen*)pcb;
 603              		.loc 1 695 0
 604 000a 012B     		cmp	r3, #1
 605 000c 11D1     		bne	.L93
 696:Middlewares/Third_Party/LwIP/src/core/tcp.c ****     res = ERR_ALREADY;
 606              		.loc 1 696 0
 607 000e 0546     		mov	r5, r0
 697:Middlewares/Third_Party/LwIP/src/core/tcp.c ****     goto done;
 608              		.loc 1 697 0
 609 0010 6FF00803 		mvn	r3, #8
 610              	.LVL70:
 611              	.L82:
 746:Middlewares/Third_Party/LwIP/src/core/tcp.c ****     *err = res;
 612              		.loc 1 746 0
 613 0014 06B1     		cbz	r6, .L80
ARM GAS  C:\Users\Patryk\AppData\Local\Temp\cc1Vd65O.s 			page 28


 747:Middlewares/Third_Party/LwIP/src/core/tcp.c ****   }
 614              		.loc 1 747 0
 615 0016 3370     		strb	r3, [r6]
 616              	.L80:
 750:Middlewares/Third_Party/LwIP/src/core/tcp.c **** 
 617              		.loc 1 750 0
 618 0018 2846     		mov	r0, r5
 619 001a 70BD     		pop	{r4, r5, r6, pc}
 620              	.LVL71:
 621              	.L92:
 692:Middlewares/Third_Party/LwIP/src/core/tcp.c **** 
 622              		.loc 1 692 0 discriminator 1
 623 001c 224B     		ldr	r3, .L96
 624 001e 4FF42D72 		mov	r2, #692
 625              	.LVL72:
 626 0022 2249     		ldr	r1, .L96+4
 627              	.LVL73:
 628 0024 2248     		ldr	r0, .L96+8
 629              	.LVL74:
 630 0026 FFF7FEFF 		bl	printf
 631              	.LVL75:
 632 002a 6FF00E03 		mvn	r3, #14
 688:Middlewares/Third_Party/LwIP/src/core/tcp.c ****   err_t res;
 633              		.loc 1 688 0 discriminator 1
 634 002e 0025     		movs	r5, #0
 692:Middlewares/Third_Party/LwIP/src/core/tcp.c **** 
 635              		.loc 1 692 0 discriminator 1
 636 0030 F0E7     		b	.L82
 637              	.LVL76:
 638              	.L93:
 716:Middlewares/Third_Party/LwIP/src/core/tcp.c ****   if (lpcb == NULL) {
 639              		.loc 1 716 0
 640 0032 0220     		movs	r0, #2
 641              	.LVL77:
 642 0034 FFF7FEFF 		bl	memp_malloc
 643              	.LVL78:
 717:Middlewares/Third_Party/LwIP/src/core/tcp.c ****     res = ERR_MEM;
 644              		.loc 1 717 0
 645 0038 0546     		mov	r5, r0
 646 003a 0028     		cmp	r0, #0
 647 003c 31D0     		beq	.L89
 721:Middlewares/Third_Party/LwIP/src/core/tcp.c ****   lpcb->local_port = pcb->local_port;
 648              		.loc 1 721 0
 649 003e 2369     		ldr	r3, [r4, #16]
 650 0040 0361     		str	r3, [r0, #16]
 722:Middlewares/Third_Party/LwIP/src/core/tcp.c ****   lpcb->state = LISTEN;
 651              		.loc 1 722 0
 652 0042 E38A     		ldrh	r3, [r4, #22]
 653 0044 C382     		strh	r3, [r0, #22]	@ movhi
 723:Middlewares/Third_Party/LwIP/src/core/tcp.c ****   lpcb->prio = pcb->prio;
 654              		.loc 1 723 0
 655 0046 0123     		movs	r3, #1
 656 0048 0375     		strb	r3, [r0, #20]
 724:Middlewares/Third_Party/LwIP/src/core/tcp.c ****   lpcb->so_options = pcb->so_options;
 657              		.loc 1 724 0
 658 004a 637D     		ldrb	r3, [r4, #21]	@ zero_extendqisi2
 659 004c 4375     		strb	r3, [r0, #21]
ARM GAS  C:\Users\Patryk\AppData\Local\Temp\cc1Vd65O.s 			page 29


 725:Middlewares/Third_Party/LwIP/src/core/tcp.c ****   lpcb->ttl = pcb->ttl;
 660              		.loc 1 725 0
 661 004e 237A     		ldrb	r3, [r4, #8]	@ zero_extendqisi2
 662 0050 0372     		strb	r3, [r0, #8]
 726:Middlewares/Third_Party/LwIP/src/core/tcp.c ****   lpcb->tos = pcb->tos;
 663              		.loc 1 726 0
 664 0052 A37A     		ldrb	r3, [r4, #10]	@ zero_extendqisi2
 665 0054 8372     		strb	r3, [r0, #10]
 727:Middlewares/Third_Party/LwIP/src/core/tcp.c **** #if LWIP_IPV4 && LWIP_IPV6
 666              		.loc 1 727 0
 667 0056 637A     		ldrb	r3, [r4, #9]	@ zero_extendqisi2
 668 0058 4372     		strb	r3, [r0, #9]
 731:Middlewares/Third_Party/LwIP/src/core/tcp.c ****   if (pcb->local_port != 0) {
 669              		.loc 1 731 0
 670 005a 2368     		ldr	r3, [r4]
 671 005c 0360     		str	r3, [r0]
 732:Middlewares/Third_Party/LwIP/src/core/tcp.c ****     TCP_RMV(&tcp_bound_pcbs, pcb);
 672              		.loc 1 732 0
 673 005e E38A     		ldrh	r3, [r4, #22]
 674 0060 8BB1     		cbz	r3, .L83
 733:Middlewares/Third_Party/LwIP/src/core/tcp.c ****   }
 675              		.loc 1 733 0
 676 0062 144B     		ldr	r3, .L96+12
 677 0064 1B68     		ldr	r3, [r3]
 678 0066 A342     		cmp	r3, r4
 679 0068 05D0     		beq	.L94
 680              	.L84:
 681              	.LVL79:
 682              	.LBB2:
 733:Middlewares/Third_Party/LwIP/src/core/tcp.c ****   }
 683              		.loc 1 733 0 is_stmt 0 discriminator 8
 684 006a 53B1     		cbz	r3, .L85
 733:Middlewares/Third_Party/LwIP/src/core/tcp.c ****   }
 685              		.loc 1 733 0 discriminator 9
 686 006c DA68     		ldr	r2, [r3, #12]
 687 006e A242     		cmp	r2, r4
 688 0070 05D0     		beq	.L95
 733:Middlewares/Third_Party/LwIP/src/core/tcp.c ****   }
 689              		.loc 1 733 0
 690 0072 1346     		mov	r3, r2
 691              	.LVL80:
 692 0074 F9E7     		b	.L84
 693              	.L94:
 694              	.LBE2:
 733:Middlewares/Third_Party/LwIP/src/core/tcp.c ****   }
 695              		.loc 1 733 0 discriminator 1
 696 0076 DA68     		ldr	r2, [r3, #12]
 697 0078 0E4B     		ldr	r3, .L96+12
 698 007a 1A60     		str	r2, [r3]
 699 007c 01E0     		b	.L85
 700              	.LVL81:
 701              	.L95:
 702              	.LBB3:
 733:Middlewares/Third_Party/LwIP/src/core/tcp.c ****   }
 703              		.loc 1 733 0 discriminator 5
 704 007e E268     		ldr	r2, [r4, #12]
 705 0080 DA60     		str	r2, [r3, #12]
ARM GAS  C:\Users\Patryk\AppData\Local\Temp\cc1Vd65O.s 			page 30


 706              	.LVL82:
 707              	.L85:
 708              	.LBE3:
 733:Middlewares/Third_Party/LwIP/src/core/tcp.c ****   }
 709              		.loc 1 733 0 discriminator 10
 710 0082 0023     		movs	r3, #0
 711 0084 E360     		str	r3, [r4, #12]
 712              	.L83:
 735:Middlewares/Third_Party/LwIP/src/core/tcp.c **** #if LWIP_CALLBACK_API
 713              		.loc 1 735 0 is_stmt 1
 714 0086 2146     		mov	r1, r4
 715 0088 0120     		movs	r0, #1
 716              	.LVL83:
 717 008a FFF7FEFF 		bl	memp_free
 718              	.LVL84:
 737:Middlewares/Third_Party/LwIP/src/core/tcp.c **** #endif /* LWIP_CALLBACK_API */
 719              		.loc 1 737 0
 720 008e 0A4B     		ldr	r3, .L96+16
 721 0090 AB61     		str	r3, [r5, #24]
 743:Middlewares/Third_Party/LwIP/src/core/tcp.c ****   res = ERR_OK;
 722              		.loc 1 743 0
 723 0092 0A4B     		ldr	r3, .L96+20
 724 0094 1A68     		ldr	r2, [r3]
 725 0096 EA60     		str	r2, [r5, #12]
 726 0098 1D60     		str	r5, [r3]
 727 009a FFF7FEFF 		bl	tcp_timer_needed
 728              	.LVL85:
 744:Middlewares/Third_Party/LwIP/src/core/tcp.c **** done:
 729              		.loc 1 744 0
 730 009e 0023     		movs	r3, #0
 731 00a0 B8E7     		b	.L82
 732              	.LVL86:
 733              	.L89:
 718:Middlewares/Third_Party/LwIP/src/core/tcp.c ****     goto done;
 734              		.loc 1 718 0
 735 00a2 4FF0FF33 		mov	r3, #-1
 736 00a6 B5E7     		b	.L82
 737              	.L97:
 738              		.align	2
 739              	.L96:
 740 00a8 00000000 		.word	.LC0
 741 00ac 00000000 		.word	.LC5
 742 00b0 38000000 		.word	.LC2
 743 00b4 00000000 		.word	tcp_bound_pcbs
 744 00b8 00000000 		.word	tcp_accept_null
 745 00bc 00000000 		.word	tcp_listen_pcbs
 746              		.cfi_endproc
 747              	.LFE167:
 749              		.section	.text.tcp_listen_with_backlog,"ax",%progbits
 750              		.align	1
 751              		.global	tcp_listen_with_backlog
 752              		.syntax unified
 753              		.thumb
 754              		.thumb_func
 755              		.fpu fpv5-sp-d16
 757              	tcp_listen_with_backlog:
 758              	.LFB166:
ARM GAS  C:\Users\Patryk\AppData\Local\Temp\cc1Vd65O.s 			page 31


 665:Middlewares/Third_Party/LwIP/src/core/tcp.c ****   return tcp_listen_with_backlog_and_err(pcb, backlog, NULL);
 759              		.loc 1 665 0
 760              		.cfi_startproc
 761              		@ args = 0, pretend = 0, frame = 0
 762              		@ frame_needed = 0, uses_anonymous_args = 0
 763              	.LVL87:
 764 0000 08B5     		push	{r3, lr}
 765              	.LCFI7:
 766              		.cfi_def_cfa_offset 8
 767              		.cfi_offset 3, -8
 768              		.cfi_offset 14, -4
 666:Middlewares/Third_Party/LwIP/src/core/tcp.c **** }
 769              		.loc 1 666 0
 770 0002 0022     		movs	r2, #0
 771 0004 FFF7FEFF 		bl	tcp_listen_with_backlog_and_err
 772              	.LVL88:
 667:Middlewares/Third_Party/LwIP/src/core/tcp.c **** 
 773              		.loc 1 667 0
 774 0008 08BD     		pop	{r3, pc}
 775              		.cfi_endproc
 776              	.LFE166:
 778              		.section	.text.tcp_update_rcv_ann_wnd,"ax",%progbits
 779              		.align	1
 780              		.global	tcp_update_rcv_ann_wnd
 781              		.syntax unified
 782              		.thumb
 783              		.thumb_func
 784              		.fpu fpv5-sp-d16
 786              	tcp_update_rcv_ann_wnd:
 787              	.LFB168:
 760:Middlewares/Third_Party/LwIP/src/core/tcp.c ****   u32_t new_right_edge = pcb->rcv_nxt + pcb->rcv_wnd;
 788              		.loc 1 760 0
 789              		.cfi_startproc
 790              		@ args = 0, pretend = 0, frame = 0
 791              		@ frame_needed = 0, uses_anonymous_args = 0
 792              	.LVL89:
 793 0000 38B5     		push	{r3, r4, r5, lr}
 794              	.LCFI8:
 795              		.cfi_def_cfa_offset 16
 796              		.cfi_offset 3, -16
 797              		.cfi_offset 4, -12
 798              		.cfi_offset 5, -8
 799              		.cfi_offset 14, -4
 761:Middlewares/Third_Party/LwIP/src/core/tcp.c **** 
 800              		.loc 1 761 0
 801 0002 456A     		ldr	r5, [r0, #36]
 802 0004 048D     		ldrh	r4, [r0, #40]
 803 0006 2A19     		adds	r2, r5, r4
 804              	.LVL90:
 763:Middlewares/Third_Party/LwIP/src/core/tcp.c ****     /* we can advertise more window */
 805              		.loc 1 763 0
 806 0008 C16A     		ldr	r1, [r0, #44]
 807 000a 438E     		ldrh	r3, [r0, #50]
 808 000c B3F5866F 		cmp	r3, #1072
 809 0010 94BF     		ite	ls
 810 0012 CB18     		addls	r3, r1, r3
 811 0014 01F58663 		addhi	r3, r1, #1072
ARM GAS  C:\Users\Patryk\AppData\Local\Temp\cc1Vd65O.s 			page 32


 812 0018 D31A     		subs	r3, r2, r3
 813 001a 002B     		cmp	r3, #0
 814 001c 02DB     		blt	.L101
 765:Middlewares/Third_Party/LwIP/src/core/tcp.c ****     return new_right_edge - pcb->rcv_ann_right_edge;
 815              		.loc 1 765 0
 816 001e 4485     		strh	r4, [r0, #42]	@ movhi
 766:Middlewares/Third_Party/LwIP/src/core/tcp.c ****   } else {
 817              		.loc 1 766 0
 818 0020 501A     		subs	r0, r2, r1
 819              	.LVL91:
 820              	.L100:
 782:Middlewares/Third_Party/LwIP/src/core/tcp.c **** 
 821              		.loc 1 782 0
 822 0022 38BD     		pop	{r3, r4, r5, pc}
 823              	.LVL92:
 824              	.L101:
 768:Middlewares/Third_Party/LwIP/src/core/tcp.c ****       /* Can happen due to other end sending out of advertised window,
 825              		.loc 1 768 0
 826 0024 6B1A     		subs	r3, r5, r1
 827 0026 002B     		cmp	r3, #0
 828 0028 03DD     		ble	.L103
 771:Middlewares/Third_Party/LwIP/src/core/tcp.c ****     } else {
 829              		.loc 1 771 0
 830 002a 0022     		movs	r2, #0
 831              	.LVL93:
 832 002c 4285     		strh	r2, [r0, #42]	@ movhi
 780:Middlewares/Third_Party/LwIP/src/core/tcp.c ****   }
 833              		.loc 1 780 0
 834 002e 1046     		mov	r0, r2
 835              	.LVL94:
 836 0030 F7E7     		b	.L100
 837              	.LVL95:
 838              	.L103:
 839 0032 0446     		mov	r4, r0
 840              	.LBB4:
 774:Middlewares/Third_Party/LwIP/src/core/tcp.c **** #if !LWIP_WND_SCALE
 841              		.loc 1 774 0
 842 0034 4D1B     		subs	r5, r1, r5
 843              	.LVL96:
 776:Middlewares/Third_Party/LwIP/src/core/tcp.c **** #endif
 844              		.loc 1 776 0
 845 0036 B5F5803F 		cmp	r5, #65536
 846 003a 02D2     		bcs	.L106
 847              	.LVL97:
 848              	.L104:
 778:Middlewares/Third_Party/LwIP/src/core/tcp.c ****     }
 849              		.loc 1 778 0
 850 003c 6585     		strh	r5, [r4, #42]	@ movhi
 851              	.LBE4:
 780:Middlewares/Third_Party/LwIP/src/core/tcp.c ****   }
 852              		.loc 1 780 0
 853 003e 0020     		movs	r0, #0
 854 0040 EFE7     		b	.L100
 855              	.LVL98:
 856              	.L106:
 857              	.LBB5:
 776:Middlewares/Third_Party/LwIP/src/core/tcp.c **** #endif
ARM GAS  C:\Users\Patryk\AppData\Local\Temp\cc1Vd65O.s 			page 33


 858              		.loc 1 776 0 discriminator 1
 859 0042 044B     		ldr	r3, .L107
 860 0044 4FF44272 		mov	r2, #776
 861              	.LVL99:
 862 0048 0349     		ldr	r1, .L107+4
 863 004a 0448     		ldr	r0, .L107+8
 864              	.LVL100:
 865 004c FFF7FEFF 		bl	printf
 866              	.LVL101:
 867 0050 F4E7     		b	.L104
 868              	.L108:
 869 0052 00BF     		.align	2
 870              	.L107:
 871 0054 00000000 		.word	.LC0
 872 0058 00000000 		.word	.LC6
 873 005c 38000000 		.word	.LC2
 874              	.LBE5:
 875              		.cfi_endproc
 876              	.LFE168:
 878              		.section	.text.tcp_recved,"ax",%progbits
 879              		.align	1
 880              		.global	tcp_recved
 881              		.syntax unified
 882              		.thumb
 883              		.thumb_func
 884              		.fpu fpv5-sp-d16
 886              	tcp_recved:
 887              	.LFB169:
 795:Middlewares/Third_Party/LwIP/src/core/tcp.c ****   int wnd_inflation;
 888              		.loc 1 795 0
 889              		.cfi_startproc
 890              		@ args = 0, pretend = 0, frame = 0
 891              		@ frame_needed = 0, uses_anonymous_args = 0
 892              	.LVL102:
 893 0000 38B5     		push	{r3, r4, r5, lr}
 894              	.LCFI9:
 895              		.cfi_def_cfa_offset 16
 896              		.cfi_offset 3, -16
 897              		.cfi_offset 4, -12
 898              		.cfi_offset 5, -8
 899              		.cfi_offset 14, -4
 900 0002 0546     		mov	r5, r0
 901 0004 0C46     		mov	r4, r1
 799:Middlewares/Third_Party/LwIP/src/core/tcp.c ****     pcb->state != LISTEN);
 902              		.loc 1 799 0
 903 0006 037D     		ldrb	r3, [r0, #20]	@ zero_extendqisi2
 904 0008 012B     		cmp	r3, #1
 905 000a 10D0     		beq	.L116
 906              	.LVL103:
 907              	.L110:
 802:Middlewares/Third_Party/LwIP/src/core/tcp.c ****   if (pcb->rcv_wnd > TCP_WND_MAX(pcb)) {
 908              		.loc 1 802 0
 909 000c 298D     		ldrh	r1, [r5, #40]
 910 000e 2144     		add	r1, r1, r4
 911 0010 89B2     		uxth	r1, r1
 912 0012 2985     		strh	r1, [r5, #40]	@ movhi
 803:Middlewares/Third_Party/LwIP/src/core/tcp.c ****     pcb->rcv_wnd = TCP_WND_MAX(pcb);
ARM GAS  C:\Users\Patryk\AppData\Local\Temp\cc1Vd65O.s 			page 34


 913              		.loc 1 803 0
 914 0014 B1F5066F 		cmp	r1, #2144
 915 0018 11D9     		bls	.L111
 804:Middlewares/Third_Party/LwIP/src/core/tcp.c ****   } else if (pcb->rcv_wnd == 0) {
 916              		.loc 1 804 0
 917 001a 4FF40663 		mov	r3, #2144
 918 001e 2B85     		strh	r3, [r5, #40]	@ movhi
 919              	.L112:
 817:Middlewares/Third_Party/LwIP/src/core/tcp.c **** 
 920              		.loc 1 817 0
 921 0020 2846     		mov	r0, r5
 922 0022 FFF7FEFF 		bl	tcp_update_rcv_ann_wnd
 923              	.LVL104:
 823:Middlewares/Third_Party/LwIP/src/core/tcp.c ****     tcp_ack_now(pcb);
 924              		.loc 1 823 0
 925 0026 B0F5067F 		cmp	r0, #536
 926 002a 1BDA     		bge	.L117
 927              	.LVL105:
 928              	.L109:
 830:Middlewares/Third_Party/LwIP/src/core/tcp.c **** 
 929              		.loc 1 830 0
 930 002c 38BD     		pop	{r3, r4, r5, pc}
 931              	.LVL106:
 932              	.L116:
 799:Middlewares/Third_Party/LwIP/src/core/tcp.c ****     pcb->state != LISTEN);
 933              		.loc 1 799 0 discriminator 1
 934 002e 114B     		ldr	r3, .L118
 935 0030 4FF44872 		mov	r2, #800
 936 0034 1049     		ldr	r1, .L118+4
 937              	.LVL107:
 938 0036 1148     		ldr	r0, .L118+8
 939              	.LVL108:
 940 0038 FFF7FEFF 		bl	printf
 941              	.LVL109:
 942 003c E6E7     		b	.L110
 943              	.L111:
 805:Middlewares/Third_Party/LwIP/src/core/tcp.c ****     /* rcv_wnd overflowed */
 944              		.loc 1 805 0
 945 003e 0029     		cmp	r1, #0
 946 0040 EED1     		bne	.L112
 807:Middlewares/Third_Party/LwIP/src/core/tcp.c ****       /* In passive close, we allow this, since the FIN bit is added to rcv_wnd
 947              		.loc 1 807 0
 948 0042 2B7D     		ldrb	r3, [r5, #20]	@ zero_extendqisi2
 949 0044 092B     		cmp	r3, #9
 950 0046 18BF     		it	ne
 951 0048 072B     		cmpne	r3, #7
 952 004a 03D1     		bne	.L113
 811:Middlewares/Third_Party/LwIP/src/core/tcp.c ****     } else {
 953              		.loc 1 811 0
 954 004c 4FF40663 		mov	r3, #2144
 955 0050 2B85     		strh	r3, [r5, #40]	@ movhi
 956 0052 E5E7     		b	.L112
 957              	.L113:
 813:Middlewares/Third_Party/LwIP/src/core/tcp.c ****     }
 958              		.loc 1 813 0 discriminator 1
 959 0054 074B     		ldr	r3, .L118
 960 0056 40F22D32 		movw	r2, #813
ARM GAS  C:\Users\Patryk\AppData\Local\Temp\cc1Vd65O.s 			page 35


 961 005a 0949     		ldr	r1, .L118+12
 962 005c 0748     		ldr	r0, .L118+8
 963 005e FFF7FEFF 		bl	printf
 964              	.LVL110:
 965 0062 DDE7     		b	.L112
 966              	.LVL111:
 967              	.L117:
 824:Middlewares/Third_Party/LwIP/src/core/tcp.c ****     tcp_output(pcb);
 968              		.loc 1 824 0
 969 0064 AB7E     		ldrb	r3, [r5, #26]	@ zero_extendqisi2
 970 0066 43F00203 		orr	r3, r3, #2
 971 006a AB76     		strb	r3, [r5, #26]
 825:Middlewares/Third_Party/LwIP/src/core/tcp.c ****   }
 972              		.loc 1 825 0
 973 006c 2846     		mov	r0, r5
 974              	.LVL112:
 975 006e FFF7FEFF 		bl	tcp_output
 976              	.LVL113:
 830:Middlewares/Third_Party/LwIP/src/core/tcp.c **** 
 977              		.loc 1 830 0
 978 0072 DBE7     		b	.L109
 979              	.L119:
 980              		.align	2
 981              	.L118:
 982 0074 00000000 		.word	.LC0
 983 0078 00000000 		.word	.LC7
 984 007c 38000000 		.word	.LC2
 985 0080 28000000 		.word	.LC8
 986              		.cfi_endproc
 987              	.LFE169:
 989              		.section	.text.tcp_txnow,"ax",%progbits
 990              		.align	1
 991              		.global	tcp_txnow
 992              		.syntax unified
 993              		.thumb
 994              		.thumb_func
 995              		.fpu fpv5-sp-d16
 997              	tcp_txnow:
 998              	.LFB174:
 861:Middlewares/Third_Party/LwIP/src/core/tcp.c **** 
 862:Middlewares/Third_Party/LwIP/src/core/tcp.c **** /**
 863:Middlewares/Third_Party/LwIP/src/core/tcp.c ****  * @ingroup tcp_raw
 864:Middlewares/Third_Party/LwIP/src/core/tcp.c ****  * Connects to another host. The function given as the "connected"
 865:Middlewares/Third_Party/LwIP/src/core/tcp.c ****  * argument will be called when the connection has been established.
 866:Middlewares/Third_Party/LwIP/src/core/tcp.c ****  *
 867:Middlewares/Third_Party/LwIP/src/core/tcp.c ****  * @param pcb the tcp_pcb used to establish the connection
 868:Middlewares/Third_Party/LwIP/src/core/tcp.c ****  * @param ipaddr the remote ip address to connect to
 869:Middlewares/Third_Party/LwIP/src/core/tcp.c ****  * @param port the remote tcp port to connect to
 870:Middlewares/Third_Party/LwIP/src/core/tcp.c ****  * @param connected callback function to call when connected (on error,
 871:Middlewares/Third_Party/LwIP/src/core/tcp.c ****                     the err calback will be called)
 872:Middlewares/Third_Party/LwIP/src/core/tcp.c ****  * @return ERR_VAL if invalid arguments are given
 873:Middlewares/Third_Party/LwIP/src/core/tcp.c ****  *         ERR_OK if connect request has been sent
 874:Middlewares/Third_Party/LwIP/src/core/tcp.c ****  *         other err_t values if connect request couldn't be sent
 875:Middlewares/Third_Party/LwIP/src/core/tcp.c ****  */
 876:Middlewares/Third_Party/LwIP/src/core/tcp.c **** err_t
 877:Middlewares/Third_Party/LwIP/src/core/tcp.c **** tcp_connect(struct tcp_pcb *pcb, const ip_addr_t *ipaddr, u16_t port,
 878:Middlewares/Third_Party/LwIP/src/core/tcp.c ****       tcp_connected_fn connected)
ARM GAS  C:\Users\Patryk\AppData\Local\Temp\cc1Vd65O.s 			page 36


 879:Middlewares/Third_Party/LwIP/src/core/tcp.c **** {
 880:Middlewares/Third_Party/LwIP/src/core/tcp.c ****   err_t ret;
 881:Middlewares/Third_Party/LwIP/src/core/tcp.c ****   u32_t iss;
 882:Middlewares/Third_Party/LwIP/src/core/tcp.c ****   u16_t old_local_port;
 883:Middlewares/Third_Party/LwIP/src/core/tcp.c **** 
 884:Middlewares/Third_Party/LwIP/src/core/tcp.c ****   if ((pcb == NULL) || (ipaddr == NULL)) {
 885:Middlewares/Third_Party/LwIP/src/core/tcp.c ****     return ERR_VAL;
 886:Middlewares/Third_Party/LwIP/src/core/tcp.c ****   }
 887:Middlewares/Third_Party/LwIP/src/core/tcp.c **** 
 888:Middlewares/Third_Party/LwIP/src/core/tcp.c ****   LWIP_ERROR("tcp_connect: can only connect from state CLOSED", pcb->state == CLOSED, return ERR_IS
 889:Middlewares/Third_Party/LwIP/src/core/tcp.c **** 
 890:Middlewares/Third_Party/LwIP/src/core/tcp.c ****   LWIP_DEBUGF(TCP_DEBUG, ("tcp_connect to port %"U16_F"\n", port));
 891:Middlewares/Third_Party/LwIP/src/core/tcp.c ****   ip_addr_set(&pcb->remote_ip, ipaddr);
 892:Middlewares/Third_Party/LwIP/src/core/tcp.c ****   pcb->remote_port = port;
 893:Middlewares/Third_Party/LwIP/src/core/tcp.c **** 
 894:Middlewares/Third_Party/LwIP/src/core/tcp.c ****   /* check if we have a route to the remote host */
 895:Middlewares/Third_Party/LwIP/src/core/tcp.c ****   if (ip_addr_isany(&pcb->local_ip)) {
 896:Middlewares/Third_Party/LwIP/src/core/tcp.c ****     /* no local IP address set, yet. */
 897:Middlewares/Third_Party/LwIP/src/core/tcp.c ****     struct netif *netif;
 898:Middlewares/Third_Party/LwIP/src/core/tcp.c ****     const ip_addr_t *local_ip;
 899:Middlewares/Third_Party/LwIP/src/core/tcp.c ****     ip_route_get_local_ip(&pcb->local_ip, &pcb->remote_ip, netif, local_ip);
 900:Middlewares/Third_Party/LwIP/src/core/tcp.c ****     if ((netif == NULL) || (local_ip == NULL)) {
 901:Middlewares/Third_Party/LwIP/src/core/tcp.c ****       /* Don't even try to send a SYN packet if we have no route
 902:Middlewares/Third_Party/LwIP/src/core/tcp.c ****          since that will fail. */
 903:Middlewares/Third_Party/LwIP/src/core/tcp.c ****       return ERR_RTE;
 904:Middlewares/Third_Party/LwIP/src/core/tcp.c ****     }
 905:Middlewares/Third_Party/LwIP/src/core/tcp.c ****     /* Use the address as local address of the pcb. */
 906:Middlewares/Third_Party/LwIP/src/core/tcp.c ****     ip_addr_copy(pcb->local_ip, *local_ip);
 907:Middlewares/Third_Party/LwIP/src/core/tcp.c ****   }
 908:Middlewares/Third_Party/LwIP/src/core/tcp.c **** 
 909:Middlewares/Third_Party/LwIP/src/core/tcp.c ****   old_local_port = pcb->local_port;
 910:Middlewares/Third_Party/LwIP/src/core/tcp.c ****   if (pcb->local_port == 0) {
 911:Middlewares/Third_Party/LwIP/src/core/tcp.c ****     pcb->local_port = tcp_new_port();
 912:Middlewares/Third_Party/LwIP/src/core/tcp.c ****     if (pcb->local_port == 0) {
 913:Middlewares/Third_Party/LwIP/src/core/tcp.c ****       return ERR_BUF;
 914:Middlewares/Third_Party/LwIP/src/core/tcp.c ****     }
 915:Middlewares/Third_Party/LwIP/src/core/tcp.c ****   } else {
 916:Middlewares/Third_Party/LwIP/src/core/tcp.c **** #if SO_REUSE
 917:Middlewares/Third_Party/LwIP/src/core/tcp.c ****     if (ip_get_option(pcb, SOF_REUSEADDR)) {
 918:Middlewares/Third_Party/LwIP/src/core/tcp.c ****       /* Since SOF_REUSEADDR allows reusing a local address, we have to make sure
 919:Middlewares/Third_Party/LwIP/src/core/tcp.c ****          now that the 5-tuple is unique. */
 920:Middlewares/Third_Party/LwIP/src/core/tcp.c ****       struct tcp_pcb *cpcb;
 921:Middlewares/Third_Party/LwIP/src/core/tcp.c ****       int i;
 922:Middlewares/Third_Party/LwIP/src/core/tcp.c ****       /* Don't check listen- and bound-PCBs, check active- and TIME-WAIT PCBs. */
 923:Middlewares/Third_Party/LwIP/src/core/tcp.c ****       for (i = 2; i < NUM_TCP_PCB_LISTS; i++) {
 924:Middlewares/Third_Party/LwIP/src/core/tcp.c ****         for (cpcb = *tcp_pcb_lists[i]; cpcb != NULL; cpcb = cpcb->next) {
 925:Middlewares/Third_Party/LwIP/src/core/tcp.c ****           if ((cpcb->local_port == pcb->local_port) &&
 926:Middlewares/Third_Party/LwIP/src/core/tcp.c ****               (cpcb->remote_port == port) &&
 927:Middlewares/Third_Party/LwIP/src/core/tcp.c ****               ip_addr_cmp(&cpcb->local_ip, &pcb->local_ip) &&
 928:Middlewares/Third_Party/LwIP/src/core/tcp.c ****               ip_addr_cmp(&cpcb->remote_ip, ipaddr)) {
 929:Middlewares/Third_Party/LwIP/src/core/tcp.c ****             /* linux returns EISCONN here, but ERR_USE should be OK for us */
 930:Middlewares/Third_Party/LwIP/src/core/tcp.c ****             return ERR_USE;
 931:Middlewares/Third_Party/LwIP/src/core/tcp.c ****           }
 932:Middlewares/Third_Party/LwIP/src/core/tcp.c ****         }
 933:Middlewares/Third_Party/LwIP/src/core/tcp.c ****       }
 934:Middlewares/Third_Party/LwIP/src/core/tcp.c ****     }
 935:Middlewares/Third_Party/LwIP/src/core/tcp.c **** #endif /* SO_REUSE */
ARM GAS  C:\Users\Patryk\AppData\Local\Temp\cc1Vd65O.s 			page 37


 936:Middlewares/Third_Party/LwIP/src/core/tcp.c ****   }
 937:Middlewares/Third_Party/LwIP/src/core/tcp.c **** 
 938:Middlewares/Third_Party/LwIP/src/core/tcp.c ****   iss = tcp_next_iss(pcb);
 939:Middlewares/Third_Party/LwIP/src/core/tcp.c ****   pcb->rcv_nxt = 0;
 940:Middlewares/Third_Party/LwIP/src/core/tcp.c ****   pcb->snd_nxt = iss;
 941:Middlewares/Third_Party/LwIP/src/core/tcp.c ****   pcb->lastack = iss - 1;
 942:Middlewares/Third_Party/LwIP/src/core/tcp.c ****   pcb->snd_wl2 = iss - 1;
 943:Middlewares/Third_Party/LwIP/src/core/tcp.c ****   pcb->snd_lbb = iss - 1;
 944:Middlewares/Third_Party/LwIP/src/core/tcp.c ****   /* Start with a window that does not need scaling. When window scaling is
 945:Middlewares/Third_Party/LwIP/src/core/tcp.c ****      enabled and used, the window is enlarged when both sides agree on scaling. */
 946:Middlewares/Third_Party/LwIP/src/core/tcp.c ****   pcb->rcv_wnd = pcb->rcv_ann_wnd = TCPWND_MIN16(TCP_WND);
 947:Middlewares/Third_Party/LwIP/src/core/tcp.c ****   pcb->rcv_ann_right_edge = pcb->rcv_nxt;
 948:Middlewares/Third_Party/LwIP/src/core/tcp.c ****   pcb->snd_wnd = TCP_WND;
 949:Middlewares/Third_Party/LwIP/src/core/tcp.c ****   /* As initial send MSS, we use TCP_MSS but limit it to 536.
 950:Middlewares/Third_Party/LwIP/src/core/tcp.c ****      The send MSS is updated when an MSS option is received. */
 951:Middlewares/Third_Party/LwIP/src/core/tcp.c ****   pcb->mss = INITIAL_MSS;
 952:Middlewares/Third_Party/LwIP/src/core/tcp.c **** #if TCP_CALCULATE_EFF_SEND_MSS
 953:Middlewares/Third_Party/LwIP/src/core/tcp.c ****   pcb->mss = tcp_eff_send_mss(pcb->mss, &pcb->local_ip, &pcb->remote_ip);
 954:Middlewares/Third_Party/LwIP/src/core/tcp.c **** #endif /* TCP_CALCULATE_EFF_SEND_MSS */
 955:Middlewares/Third_Party/LwIP/src/core/tcp.c ****   pcb->cwnd = 1;
 956:Middlewares/Third_Party/LwIP/src/core/tcp.c **** #if LWIP_CALLBACK_API
 957:Middlewares/Third_Party/LwIP/src/core/tcp.c ****   pcb->connected = connected;
 958:Middlewares/Third_Party/LwIP/src/core/tcp.c **** #else /* LWIP_CALLBACK_API */
 959:Middlewares/Third_Party/LwIP/src/core/tcp.c ****   LWIP_UNUSED_ARG(connected);
 960:Middlewares/Third_Party/LwIP/src/core/tcp.c **** #endif /* LWIP_CALLBACK_API */
 961:Middlewares/Third_Party/LwIP/src/core/tcp.c **** 
 962:Middlewares/Third_Party/LwIP/src/core/tcp.c ****   /* Send a SYN together with the MSS option. */
 963:Middlewares/Third_Party/LwIP/src/core/tcp.c ****   ret = tcp_enqueue_flags(pcb, TCP_SYN);
 964:Middlewares/Third_Party/LwIP/src/core/tcp.c ****   if (ret == ERR_OK) {
 965:Middlewares/Third_Party/LwIP/src/core/tcp.c ****     /* SYN segment was enqueued, changed the pcbs state now */
 966:Middlewares/Third_Party/LwIP/src/core/tcp.c ****     pcb->state = SYN_SENT;
 967:Middlewares/Third_Party/LwIP/src/core/tcp.c ****     if (old_local_port != 0) {
 968:Middlewares/Third_Party/LwIP/src/core/tcp.c ****       TCP_RMV(&tcp_bound_pcbs, pcb);
 969:Middlewares/Third_Party/LwIP/src/core/tcp.c ****     }
 970:Middlewares/Third_Party/LwIP/src/core/tcp.c ****     TCP_REG_ACTIVE(pcb);
 971:Middlewares/Third_Party/LwIP/src/core/tcp.c ****     MIB2_STATS_INC(mib2.tcpactiveopens);
 972:Middlewares/Third_Party/LwIP/src/core/tcp.c **** 
 973:Middlewares/Third_Party/LwIP/src/core/tcp.c ****     tcp_output(pcb);
 974:Middlewares/Third_Party/LwIP/src/core/tcp.c ****   }
 975:Middlewares/Third_Party/LwIP/src/core/tcp.c ****   return ret;
 976:Middlewares/Third_Party/LwIP/src/core/tcp.c **** }
 977:Middlewares/Third_Party/LwIP/src/core/tcp.c **** 
 978:Middlewares/Third_Party/LwIP/src/core/tcp.c **** /**
 979:Middlewares/Third_Party/LwIP/src/core/tcp.c ****  * Called every 500 ms and implements the retransmission timer and the timer that
 980:Middlewares/Third_Party/LwIP/src/core/tcp.c ****  * removes PCBs that have been in TIME-WAIT for enough time. It also increments
 981:Middlewares/Third_Party/LwIP/src/core/tcp.c ****  * various timers such as the inactivity timer in each PCB.
 982:Middlewares/Third_Party/LwIP/src/core/tcp.c ****  *
 983:Middlewares/Third_Party/LwIP/src/core/tcp.c ****  * Automatically called from tcp_tmr().
 984:Middlewares/Third_Party/LwIP/src/core/tcp.c ****  */
 985:Middlewares/Third_Party/LwIP/src/core/tcp.c **** void
 986:Middlewares/Third_Party/LwIP/src/core/tcp.c **** tcp_slowtmr(void)
 987:Middlewares/Third_Party/LwIP/src/core/tcp.c **** {
 988:Middlewares/Third_Party/LwIP/src/core/tcp.c ****   struct tcp_pcb *pcb, *prev;
 989:Middlewares/Third_Party/LwIP/src/core/tcp.c ****   tcpwnd_size_t eff_wnd;
 990:Middlewares/Third_Party/LwIP/src/core/tcp.c ****   u8_t pcb_remove;      /* flag if a PCB should be removed */
 991:Middlewares/Third_Party/LwIP/src/core/tcp.c ****   u8_t pcb_reset;       /* flag if a RST should be sent when removing */
 992:Middlewares/Third_Party/LwIP/src/core/tcp.c ****   err_t err;
ARM GAS  C:\Users\Patryk\AppData\Local\Temp\cc1Vd65O.s 			page 38


 993:Middlewares/Third_Party/LwIP/src/core/tcp.c **** 
 994:Middlewares/Third_Party/LwIP/src/core/tcp.c ****   err = ERR_OK;
 995:Middlewares/Third_Party/LwIP/src/core/tcp.c **** 
 996:Middlewares/Third_Party/LwIP/src/core/tcp.c ****   ++tcp_ticks;
 997:Middlewares/Third_Party/LwIP/src/core/tcp.c ****   ++tcp_timer_ctr;
 998:Middlewares/Third_Party/LwIP/src/core/tcp.c **** 
 999:Middlewares/Third_Party/LwIP/src/core/tcp.c **** tcp_slowtmr_start:
1000:Middlewares/Third_Party/LwIP/src/core/tcp.c ****   /* Steps through all of the active PCBs. */
1001:Middlewares/Third_Party/LwIP/src/core/tcp.c ****   prev = NULL;
1002:Middlewares/Third_Party/LwIP/src/core/tcp.c ****   pcb = tcp_active_pcbs;
1003:Middlewares/Third_Party/LwIP/src/core/tcp.c ****   if (pcb == NULL) {
1004:Middlewares/Third_Party/LwIP/src/core/tcp.c ****     LWIP_DEBUGF(TCP_DEBUG, ("tcp_slowtmr: no active pcbs\n"));
1005:Middlewares/Third_Party/LwIP/src/core/tcp.c ****   }
1006:Middlewares/Third_Party/LwIP/src/core/tcp.c ****   while (pcb != NULL) {
1007:Middlewares/Third_Party/LwIP/src/core/tcp.c ****     LWIP_DEBUGF(TCP_DEBUG, ("tcp_slowtmr: processing active pcb\n"));
1008:Middlewares/Third_Party/LwIP/src/core/tcp.c ****     LWIP_ASSERT("tcp_slowtmr: active pcb->state != CLOSED\n", pcb->state != CLOSED);
1009:Middlewares/Third_Party/LwIP/src/core/tcp.c ****     LWIP_ASSERT("tcp_slowtmr: active pcb->state != LISTEN\n", pcb->state != LISTEN);
1010:Middlewares/Third_Party/LwIP/src/core/tcp.c ****     LWIP_ASSERT("tcp_slowtmr: active pcb->state != TIME-WAIT\n", pcb->state != TIME_WAIT);
1011:Middlewares/Third_Party/LwIP/src/core/tcp.c ****     if (pcb->last_timer == tcp_timer_ctr) {
1012:Middlewares/Third_Party/LwIP/src/core/tcp.c ****       /* skip this pcb, we have already processed it */
1013:Middlewares/Third_Party/LwIP/src/core/tcp.c ****       pcb = pcb->next;
1014:Middlewares/Third_Party/LwIP/src/core/tcp.c ****       continue;
1015:Middlewares/Third_Party/LwIP/src/core/tcp.c ****     }
1016:Middlewares/Third_Party/LwIP/src/core/tcp.c ****     pcb->last_timer = tcp_timer_ctr;
1017:Middlewares/Third_Party/LwIP/src/core/tcp.c **** 
1018:Middlewares/Third_Party/LwIP/src/core/tcp.c ****     pcb_remove = 0;
1019:Middlewares/Third_Party/LwIP/src/core/tcp.c ****     pcb_reset = 0;
1020:Middlewares/Third_Party/LwIP/src/core/tcp.c **** 
1021:Middlewares/Third_Party/LwIP/src/core/tcp.c ****     if (pcb->state == SYN_SENT && pcb->nrtx >= TCP_SYNMAXRTX) {
1022:Middlewares/Third_Party/LwIP/src/core/tcp.c ****       ++pcb_remove;
1023:Middlewares/Third_Party/LwIP/src/core/tcp.c ****       LWIP_DEBUGF(TCP_DEBUG, ("tcp_slowtmr: max SYN retries reached\n"));
1024:Middlewares/Third_Party/LwIP/src/core/tcp.c ****     }
1025:Middlewares/Third_Party/LwIP/src/core/tcp.c ****     else if (pcb->nrtx >= TCP_MAXRTX) {
1026:Middlewares/Third_Party/LwIP/src/core/tcp.c ****       ++pcb_remove;
1027:Middlewares/Third_Party/LwIP/src/core/tcp.c ****       LWIP_DEBUGF(TCP_DEBUG, ("tcp_slowtmr: max DATA retries reached\n"));
1028:Middlewares/Third_Party/LwIP/src/core/tcp.c ****     } else {
1029:Middlewares/Third_Party/LwIP/src/core/tcp.c ****       if (pcb->persist_backoff > 0) {
1030:Middlewares/Third_Party/LwIP/src/core/tcp.c ****         /* If snd_wnd is zero, use persist timer to send 1 byte probes
1031:Middlewares/Third_Party/LwIP/src/core/tcp.c ****          * instead of using the standard retransmission mechanism. */
1032:Middlewares/Third_Party/LwIP/src/core/tcp.c ****         u8_t backoff_cnt = tcp_persist_backoff[pcb->persist_backoff-1];
1033:Middlewares/Third_Party/LwIP/src/core/tcp.c ****         if (pcb->persist_cnt < backoff_cnt) {
1034:Middlewares/Third_Party/LwIP/src/core/tcp.c ****           pcb->persist_cnt++;
1035:Middlewares/Third_Party/LwIP/src/core/tcp.c ****         }
1036:Middlewares/Third_Party/LwIP/src/core/tcp.c ****         if (pcb->persist_cnt >= backoff_cnt) {
1037:Middlewares/Third_Party/LwIP/src/core/tcp.c ****           if (tcp_zero_window_probe(pcb) == ERR_OK) {
1038:Middlewares/Third_Party/LwIP/src/core/tcp.c ****             pcb->persist_cnt = 0;
1039:Middlewares/Third_Party/LwIP/src/core/tcp.c ****             if (pcb->persist_backoff < sizeof(tcp_persist_backoff)) {
1040:Middlewares/Third_Party/LwIP/src/core/tcp.c ****               pcb->persist_backoff++;
1041:Middlewares/Third_Party/LwIP/src/core/tcp.c ****             }
1042:Middlewares/Third_Party/LwIP/src/core/tcp.c ****           }
1043:Middlewares/Third_Party/LwIP/src/core/tcp.c ****         }
1044:Middlewares/Third_Party/LwIP/src/core/tcp.c ****       } else {
1045:Middlewares/Third_Party/LwIP/src/core/tcp.c ****         /* Increase the retransmission timer if it is running */
1046:Middlewares/Third_Party/LwIP/src/core/tcp.c ****         if (pcb->rtime >= 0) {
1047:Middlewares/Third_Party/LwIP/src/core/tcp.c ****           ++pcb->rtime;
1048:Middlewares/Third_Party/LwIP/src/core/tcp.c ****         }
1049:Middlewares/Third_Party/LwIP/src/core/tcp.c **** 
ARM GAS  C:\Users\Patryk\AppData\Local\Temp\cc1Vd65O.s 			page 39


1050:Middlewares/Third_Party/LwIP/src/core/tcp.c ****         if (pcb->unacked != NULL && pcb->rtime >= pcb->rto) {
1051:Middlewares/Third_Party/LwIP/src/core/tcp.c ****           /* Time for a retransmission. */
1052:Middlewares/Third_Party/LwIP/src/core/tcp.c ****           LWIP_DEBUGF(TCP_RTO_DEBUG, ("tcp_slowtmr: rtime %"S16_F
1053:Middlewares/Third_Party/LwIP/src/core/tcp.c ****                                       " pcb->rto %"S16_F"\n",
1054:Middlewares/Third_Party/LwIP/src/core/tcp.c ****                                       pcb->rtime, pcb->rto));
1055:Middlewares/Third_Party/LwIP/src/core/tcp.c **** 
1056:Middlewares/Third_Party/LwIP/src/core/tcp.c ****           /* Double retransmission time-out unless we are trying to
1057:Middlewares/Third_Party/LwIP/src/core/tcp.c ****            * connect to somebody (i.e., we are in SYN_SENT). */
1058:Middlewares/Third_Party/LwIP/src/core/tcp.c ****           if (pcb->state != SYN_SENT) {
1059:Middlewares/Third_Party/LwIP/src/core/tcp.c ****             u8_t backoff_idx = LWIP_MIN(pcb->nrtx, sizeof(tcp_backoff)-1);
1060:Middlewares/Third_Party/LwIP/src/core/tcp.c ****             pcb->rto = ((pcb->sa >> 3) + pcb->sv) << tcp_backoff[backoff_idx];
1061:Middlewares/Third_Party/LwIP/src/core/tcp.c ****           }
1062:Middlewares/Third_Party/LwIP/src/core/tcp.c **** 
1063:Middlewares/Third_Party/LwIP/src/core/tcp.c ****           /* Reset the retransmission timer. */
1064:Middlewares/Third_Party/LwIP/src/core/tcp.c ****           pcb->rtime = 0;
1065:Middlewares/Third_Party/LwIP/src/core/tcp.c **** 
1066:Middlewares/Third_Party/LwIP/src/core/tcp.c ****           /* Reduce congestion window and ssthresh. */
1067:Middlewares/Third_Party/LwIP/src/core/tcp.c ****           eff_wnd = LWIP_MIN(pcb->cwnd, pcb->snd_wnd);
1068:Middlewares/Third_Party/LwIP/src/core/tcp.c ****           pcb->ssthresh = eff_wnd >> 1;
1069:Middlewares/Third_Party/LwIP/src/core/tcp.c ****           if (pcb->ssthresh < (tcpwnd_size_t)(pcb->mss << 1)) {
1070:Middlewares/Third_Party/LwIP/src/core/tcp.c ****             pcb->ssthresh = (pcb->mss << 1);
1071:Middlewares/Third_Party/LwIP/src/core/tcp.c ****           }
1072:Middlewares/Third_Party/LwIP/src/core/tcp.c ****           pcb->cwnd = pcb->mss;
1073:Middlewares/Third_Party/LwIP/src/core/tcp.c ****           LWIP_DEBUGF(TCP_CWND_DEBUG, ("tcp_slowtmr: cwnd %"TCPWNDSIZE_F
1074:Middlewares/Third_Party/LwIP/src/core/tcp.c ****                                        " ssthresh %"TCPWNDSIZE_F"\n",
1075:Middlewares/Third_Party/LwIP/src/core/tcp.c ****                                        pcb->cwnd, pcb->ssthresh));
1076:Middlewares/Third_Party/LwIP/src/core/tcp.c **** 
1077:Middlewares/Third_Party/LwIP/src/core/tcp.c ****           /* The following needs to be called AFTER cwnd is set to one
1078:Middlewares/Third_Party/LwIP/src/core/tcp.c ****              mss - STJ */
1079:Middlewares/Third_Party/LwIP/src/core/tcp.c ****           tcp_rexmit_rto(pcb);
1080:Middlewares/Third_Party/LwIP/src/core/tcp.c ****         }
1081:Middlewares/Third_Party/LwIP/src/core/tcp.c ****       }
1082:Middlewares/Third_Party/LwIP/src/core/tcp.c ****     }
1083:Middlewares/Third_Party/LwIP/src/core/tcp.c ****     /* Check if this PCB has stayed too long in FIN-WAIT-2 */
1084:Middlewares/Third_Party/LwIP/src/core/tcp.c ****     if (pcb->state == FIN_WAIT_2) {
1085:Middlewares/Third_Party/LwIP/src/core/tcp.c ****       /* If this PCB is in FIN_WAIT_2 because of SHUT_WR don't let it time out. */
1086:Middlewares/Third_Party/LwIP/src/core/tcp.c ****       if (pcb->flags & TF_RXCLOSED) {
1087:Middlewares/Third_Party/LwIP/src/core/tcp.c ****         /* PCB was fully closed (either through close() or SHUT_RDWR):
1088:Middlewares/Third_Party/LwIP/src/core/tcp.c ****            normal FIN-WAIT timeout handling. */
1089:Middlewares/Third_Party/LwIP/src/core/tcp.c ****         if ((u32_t)(tcp_ticks - pcb->tmr) >
1090:Middlewares/Third_Party/LwIP/src/core/tcp.c ****             TCP_FIN_WAIT_TIMEOUT / TCP_SLOW_INTERVAL) {
1091:Middlewares/Third_Party/LwIP/src/core/tcp.c ****           ++pcb_remove;
1092:Middlewares/Third_Party/LwIP/src/core/tcp.c ****           LWIP_DEBUGF(TCP_DEBUG, ("tcp_slowtmr: removing pcb stuck in FIN-WAIT-2\n"));
1093:Middlewares/Third_Party/LwIP/src/core/tcp.c ****         }
1094:Middlewares/Third_Party/LwIP/src/core/tcp.c ****       }
1095:Middlewares/Third_Party/LwIP/src/core/tcp.c ****     }
1096:Middlewares/Third_Party/LwIP/src/core/tcp.c **** 
1097:Middlewares/Third_Party/LwIP/src/core/tcp.c ****     /* Check if KEEPALIVE should be sent */
1098:Middlewares/Third_Party/LwIP/src/core/tcp.c ****     if (ip_get_option(pcb, SOF_KEEPALIVE) &&
1099:Middlewares/Third_Party/LwIP/src/core/tcp.c ****        ((pcb->state == ESTABLISHED) ||
1100:Middlewares/Third_Party/LwIP/src/core/tcp.c ****         (pcb->state == CLOSE_WAIT))) {
1101:Middlewares/Third_Party/LwIP/src/core/tcp.c ****       if ((u32_t)(tcp_ticks - pcb->tmr) >
1102:Middlewares/Third_Party/LwIP/src/core/tcp.c ****          (pcb->keep_idle + TCP_KEEP_DUR(pcb)) / TCP_SLOW_INTERVAL)
1103:Middlewares/Third_Party/LwIP/src/core/tcp.c ****       {
1104:Middlewares/Third_Party/LwIP/src/core/tcp.c ****         LWIP_DEBUGF(TCP_DEBUG, ("tcp_slowtmr: KEEPALIVE timeout. Aborting connection to "));
1105:Middlewares/Third_Party/LwIP/src/core/tcp.c ****         ip_addr_debug_print(TCP_DEBUG, &pcb->remote_ip);
1106:Middlewares/Third_Party/LwIP/src/core/tcp.c ****         LWIP_DEBUGF(TCP_DEBUG, ("\n"));
ARM GAS  C:\Users\Patryk\AppData\Local\Temp\cc1Vd65O.s 			page 40


1107:Middlewares/Third_Party/LwIP/src/core/tcp.c **** 
1108:Middlewares/Third_Party/LwIP/src/core/tcp.c ****         ++pcb_remove;
1109:Middlewares/Third_Party/LwIP/src/core/tcp.c ****         ++pcb_reset;
1110:Middlewares/Third_Party/LwIP/src/core/tcp.c ****       } else if ((u32_t)(tcp_ticks - pcb->tmr) >
1111:Middlewares/Third_Party/LwIP/src/core/tcp.c ****                 (pcb->keep_idle + pcb->keep_cnt_sent * TCP_KEEP_INTVL(pcb))
1112:Middlewares/Third_Party/LwIP/src/core/tcp.c ****                 / TCP_SLOW_INTERVAL)
1113:Middlewares/Third_Party/LwIP/src/core/tcp.c ****       {
1114:Middlewares/Third_Party/LwIP/src/core/tcp.c ****         err = tcp_keepalive(pcb);
1115:Middlewares/Third_Party/LwIP/src/core/tcp.c ****         if (err == ERR_OK) {
1116:Middlewares/Third_Party/LwIP/src/core/tcp.c ****           pcb->keep_cnt_sent++;
1117:Middlewares/Third_Party/LwIP/src/core/tcp.c ****         }
1118:Middlewares/Third_Party/LwIP/src/core/tcp.c ****       }
1119:Middlewares/Third_Party/LwIP/src/core/tcp.c ****     }
1120:Middlewares/Third_Party/LwIP/src/core/tcp.c **** 
1121:Middlewares/Third_Party/LwIP/src/core/tcp.c ****     /* If this PCB has queued out of sequence data, but has been
1122:Middlewares/Third_Party/LwIP/src/core/tcp.c ****        inactive for too long, will drop the data (it will eventually
1123:Middlewares/Third_Party/LwIP/src/core/tcp.c ****        be retransmitted). */
1124:Middlewares/Third_Party/LwIP/src/core/tcp.c **** #if TCP_QUEUE_OOSEQ
1125:Middlewares/Third_Party/LwIP/src/core/tcp.c ****     if (pcb->ooseq != NULL &&
1126:Middlewares/Third_Party/LwIP/src/core/tcp.c ****         (u32_t)tcp_ticks - pcb->tmr >= pcb->rto * TCP_OOSEQ_TIMEOUT) {
1127:Middlewares/Third_Party/LwIP/src/core/tcp.c ****       tcp_segs_free(pcb->ooseq);
1128:Middlewares/Third_Party/LwIP/src/core/tcp.c ****       pcb->ooseq = NULL;
1129:Middlewares/Third_Party/LwIP/src/core/tcp.c ****       LWIP_DEBUGF(TCP_CWND_DEBUG, ("tcp_slowtmr: dropping OOSEQ queued data\n"));
1130:Middlewares/Third_Party/LwIP/src/core/tcp.c ****     }
1131:Middlewares/Third_Party/LwIP/src/core/tcp.c **** #endif /* TCP_QUEUE_OOSEQ */
1132:Middlewares/Third_Party/LwIP/src/core/tcp.c **** 
1133:Middlewares/Third_Party/LwIP/src/core/tcp.c ****     /* Check if this PCB has stayed too long in SYN-RCVD */
1134:Middlewares/Third_Party/LwIP/src/core/tcp.c ****     if (pcb->state == SYN_RCVD) {
1135:Middlewares/Third_Party/LwIP/src/core/tcp.c ****       if ((u32_t)(tcp_ticks - pcb->tmr) >
1136:Middlewares/Third_Party/LwIP/src/core/tcp.c ****           TCP_SYN_RCVD_TIMEOUT / TCP_SLOW_INTERVAL) {
1137:Middlewares/Third_Party/LwIP/src/core/tcp.c ****         ++pcb_remove;
1138:Middlewares/Third_Party/LwIP/src/core/tcp.c ****         LWIP_DEBUGF(TCP_DEBUG, ("tcp_slowtmr: removing pcb stuck in SYN-RCVD\n"));
1139:Middlewares/Third_Party/LwIP/src/core/tcp.c ****       }
1140:Middlewares/Third_Party/LwIP/src/core/tcp.c ****     }
1141:Middlewares/Third_Party/LwIP/src/core/tcp.c **** 
1142:Middlewares/Third_Party/LwIP/src/core/tcp.c ****     /* Check if this PCB has stayed too long in LAST-ACK */
1143:Middlewares/Third_Party/LwIP/src/core/tcp.c ****     if (pcb->state == LAST_ACK) {
1144:Middlewares/Third_Party/LwIP/src/core/tcp.c ****       if ((u32_t)(tcp_ticks - pcb->tmr) > 2 * TCP_MSL / TCP_SLOW_INTERVAL) {
1145:Middlewares/Third_Party/LwIP/src/core/tcp.c ****         ++pcb_remove;
1146:Middlewares/Third_Party/LwIP/src/core/tcp.c ****         LWIP_DEBUGF(TCP_DEBUG, ("tcp_slowtmr: removing pcb stuck in LAST-ACK\n"));
1147:Middlewares/Third_Party/LwIP/src/core/tcp.c ****       }
1148:Middlewares/Third_Party/LwIP/src/core/tcp.c ****     }
1149:Middlewares/Third_Party/LwIP/src/core/tcp.c **** 
1150:Middlewares/Third_Party/LwIP/src/core/tcp.c ****     /* If the PCB should be removed, do it. */
1151:Middlewares/Third_Party/LwIP/src/core/tcp.c ****     if (pcb_remove) {
1152:Middlewares/Third_Party/LwIP/src/core/tcp.c ****       struct tcp_pcb *pcb2;
1153:Middlewares/Third_Party/LwIP/src/core/tcp.c **** #if LWIP_CALLBACK_API
1154:Middlewares/Third_Party/LwIP/src/core/tcp.c ****       tcp_err_fn err_fn = pcb->errf;
1155:Middlewares/Third_Party/LwIP/src/core/tcp.c **** #endif /* LWIP_CALLBACK_API */
1156:Middlewares/Third_Party/LwIP/src/core/tcp.c ****       void *err_arg;
1157:Middlewares/Third_Party/LwIP/src/core/tcp.c ****       enum tcp_state last_state;
1158:Middlewares/Third_Party/LwIP/src/core/tcp.c ****       tcp_pcb_purge(pcb);
1159:Middlewares/Third_Party/LwIP/src/core/tcp.c ****       /* Remove PCB from tcp_active_pcbs list. */
1160:Middlewares/Third_Party/LwIP/src/core/tcp.c ****       if (prev != NULL) {
1161:Middlewares/Third_Party/LwIP/src/core/tcp.c ****         LWIP_ASSERT("tcp_slowtmr: middle tcp != tcp_active_pcbs", pcb != tcp_active_pcbs);
1162:Middlewares/Third_Party/LwIP/src/core/tcp.c ****         prev->next = pcb->next;
1163:Middlewares/Third_Party/LwIP/src/core/tcp.c ****       } else {
ARM GAS  C:\Users\Patryk\AppData\Local\Temp\cc1Vd65O.s 			page 41


1164:Middlewares/Third_Party/LwIP/src/core/tcp.c ****         /* This PCB was the first. */
1165:Middlewares/Third_Party/LwIP/src/core/tcp.c ****         LWIP_ASSERT("tcp_slowtmr: first pcb == tcp_active_pcbs", tcp_active_pcbs == pcb);
1166:Middlewares/Third_Party/LwIP/src/core/tcp.c ****         tcp_active_pcbs = pcb->next;
1167:Middlewares/Third_Party/LwIP/src/core/tcp.c ****       }
1168:Middlewares/Third_Party/LwIP/src/core/tcp.c **** 
1169:Middlewares/Third_Party/LwIP/src/core/tcp.c ****       if (pcb_reset) {
1170:Middlewares/Third_Party/LwIP/src/core/tcp.c ****         tcp_rst(pcb->snd_nxt, pcb->rcv_nxt, &pcb->local_ip, &pcb->remote_ip,
1171:Middlewares/Third_Party/LwIP/src/core/tcp.c ****                  pcb->local_port, pcb->remote_port);
1172:Middlewares/Third_Party/LwIP/src/core/tcp.c ****       }
1173:Middlewares/Third_Party/LwIP/src/core/tcp.c **** 
1174:Middlewares/Third_Party/LwIP/src/core/tcp.c ****       err_arg = pcb->callback_arg;
1175:Middlewares/Third_Party/LwIP/src/core/tcp.c ****       last_state = pcb->state;
1176:Middlewares/Third_Party/LwIP/src/core/tcp.c ****       pcb2 = pcb;
1177:Middlewares/Third_Party/LwIP/src/core/tcp.c ****       pcb = pcb->next;
1178:Middlewares/Third_Party/LwIP/src/core/tcp.c ****       memp_free(MEMP_TCP_PCB, pcb2);
1179:Middlewares/Third_Party/LwIP/src/core/tcp.c **** 
1180:Middlewares/Third_Party/LwIP/src/core/tcp.c ****       tcp_active_pcbs_changed = 0;
1181:Middlewares/Third_Party/LwIP/src/core/tcp.c ****       TCP_EVENT_ERR(last_state, err_fn, err_arg, ERR_ABRT);
1182:Middlewares/Third_Party/LwIP/src/core/tcp.c ****       if (tcp_active_pcbs_changed) {
1183:Middlewares/Third_Party/LwIP/src/core/tcp.c ****         goto tcp_slowtmr_start;
1184:Middlewares/Third_Party/LwIP/src/core/tcp.c ****       }
1185:Middlewares/Third_Party/LwIP/src/core/tcp.c ****     } else {
1186:Middlewares/Third_Party/LwIP/src/core/tcp.c ****       /* get the 'next' element now and work with 'prev' below (in case of abort) */
1187:Middlewares/Third_Party/LwIP/src/core/tcp.c ****       prev = pcb;
1188:Middlewares/Third_Party/LwIP/src/core/tcp.c ****       pcb = pcb->next;
1189:Middlewares/Third_Party/LwIP/src/core/tcp.c **** 
1190:Middlewares/Third_Party/LwIP/src/core/tcp.c ****       /* We check if we should poll the connection. */
1191:Middlewares/Third_Party/LwIP/src/core/tcp.c ****       ++prev->polltmr;
1192:Middlewares/Third_Party/LwIP/src/core/tcp.c ****       if (prev->polltmr >= prev->pollinterval) {
1193:Middlewares/Third_Party/LwIP/src/core/tcp.c ****         prev->polltmr = 0;
1194:Middlewares/Third_Party/LwIP/src/core/tcp.c ****         LWIP_DEBUGF(TCP_DEBUG, ("tcp_slowtmr: polling application\n"));
1195:Middlewares/Third_Party/LwIP/src/core/tcp.c ****         tcp_active_pcbs_changed = 0;
1196:Middlewares/Third_Party/LwIP/src/core/tcp.c ****         TCP_EVENT_POLL(prev, err);
1197:Middlewares/Third_Party/LwIP/src/core/tcp.c ****         if (tcp_active_pcbs_changed) {
1198:Middlewares/Third_Party/LwIP/src/core/tcp.c ****           goto tcp_slowtmr_start;
1199:Middlewares/Third_Party/LwIP/src/core/tcp.c ****         }
1200:Middlewares/Third_Party/LwIP/src/core/tcp.c ****         /* if err == ERR_ABRT, 'prev' is already deallocated */
1201:Middlewares/Third_Party/LwIP/src/core/tcp.c ****         if (err == ERR_OK) {
1202:Middlewares/Third_Party/LwIP/src/core/tcp.c ****           tcp_output(prev);
1203:Middlewares/Third_Party/LwIP/src/core/tcp.c ****         }
1204:Middlewares/Third_Party/LwIP/src/core/tcp.c ****       }
1205:Middlewares/Third_Party/LwIP/src/core/tcp.c ****     }
1206:Middlewares/Third_Party/LwIP/src/core/tcp.c ****   }
1207:Middlewares/Third_Party/LwIP/src/core/tcp.c **** 
1208:Middlewares/Third_Party/LwIP/src/core/tcp.c **** 
1209:Middlewares/Third_Party/LwIP/src/core/tcp.c ****   /* Steps through all of the TIME-WAIT PCBs. */
1210:Middlewares/Third_Party/LwIP/src/core/tcp.c ****   prev = NULL;
1211:Middlewares/Third_Party/LwIP/src/core/tcp.c ****   pcb = tcp_tw_pcbs;
1212:Middlewares/Third_Party/LwIP/src/core/tcp.c ****   while (pcb != NULL) {
1213:Middlewares/Third_Party/LwIP/src/core/tcp.c ****     LWIP_ASSERT("tcp_slowtmr: TIME-WAIT pcb->state == TIME-WAIT", pcb->state == TIME_WAIT);
1214:Middlewares/Third_Party/LwIP/src/core/tcp.c ****     pcb_remove = 0;
1215:Middlewares/Third_Party/LwIP/src/core/tcp.c **** 
1216:Middlewares/Third_Party/LwIP/src/core/tcp.c ****     /* Check if this PCB has stayed long enough in TIME-WAIT */
1217:Middlewares/Third_Party/LwIP/src/core/tcp.c ****     if ((u32_t)(tcp_ticks - pcb->tmr) > 2 * TCP_MSL / TCP_SLOW_INTERVAL) {
1218:Middlewares/Third_Party/LwIP/src/core/tcp.c ****       ++pcb_remove;
1219:Middlewares/Third_Party/LwIP/src/core/tcp.c ****     }
1220:Middlewares/Third_Party/LwIP/src/core/tcp.c **** 
ARM GAS  C:\Users\Patryk\AppData\Local\Temp\cc1Vd65O.s 			page 42


1221:Middlewares/Third_Party/LwIP/src/core/tcp.c ****     /* If the PCB should be removed, do it. */
1222:Middlewares/Third_Party/LwIP/src/core/tcp.c ****     if (pcb_remove) {
1223:Middlewares/Third_Party/LwIP/src/core/tcp.c ****       struct tcp_pcb *pcb2;
1224:Middlewares/Third_Party/LwIP/src/core/tcp.c ****       tcp_pcb_purge(pcb);
1225:Middlewares/Third_Party/LwIP/src/core/tcp.c ****       /* Remove PCB from tcp_tw_pcbs list. */
1226:Middlewares/Third_Party/LwIP/src/core/tcp.c ****       if (prev != NULL) {
1227:Middlewares/Third_Party/LwIP/src/core/tcp.c ****         LWIP_ASSERT("tcp_slowtmr: middle tcp != tcp_tw_pcbs", pcb != tcp_tw_pcbs);
1228:Middlewares/Third_Party/LwIP/src/core/tcp.c ****         prev->next = pcb->next;
1229:Middlewares/Third_Party/LwIP/src/core/tcp.c ****       } else {
1230:Middlewares/Third_Party/LwIP/src/core/tcp.c ****         /* This PCB was the first. */
1231:Middlewares/Third_Party/LwIP/src/core/tcp.c ****         LWIP_ASSERT("tcp_slowtmr: first pcb == tcp_tw_pcbs", tcp_tw_pcbs == pcb);
1232:Middlewares/Third_Party/LwIP/src/core/tcp.c ****         tcp_tw_pcbs = pcb->next;
1233:Middlewares/Third_Party/LwIP/src/core/tcp.c ****       }
1234:Middlewares/Third_Party/LwIP/src/core/tcp.c ****       pcb2 = pcb;
1235:Middlewares/Third_Party/LwIP/src/core/tcp.c ****       pcb = pcb->next;
1236:Middlewares/Third_Party/LwIP/src/core/tcp.c ****       memp_free(MEMP_TCP_PCB, pcb2);
1237:Middlewares/Third_Party/LwIP/src/core/tcp.c ****     } else {
1238:Middlewares/Third_Party/LwIP/src/core/tcp.c ****       prev = pcb;
1239:Middlewares/Third_Party/LwIP/src/core/tcp.c ****       pcb = pcb->next;
1240:Middlewares/Third_Party/LwIP/src/core/tcp.c ****     }
1241:Middlewares/Third_Party/LwIP/src/core/tcp.c ****   }
1242:Middlewares/Third_Party/LwIP/src/core/tcp.c **** }
1243:Middlewares/Third_Party/LwIP/src/core/tcp.c **** 
1244:Middlewares/Third_Party/LwIP/src/core/tcp.c **** /**
1245:Middlewares/Third_Party/LwIP/src/core/tcp.c ****  * Is called every TCP_FAST_INTERVAL (250 ms) and process data previously
1246:Middlewares/Third_Party/LwIP/src/core/tcp.c ****  * "refused" by upper layer (application) and sends delayed ACKs.
1247:Middlewares/Third_Party/LwIP/src/core/tcp.c ****  *
1248:Middlewares/Third_Party/LwIP/src/core/tcp.c ****  * Automatically called from tcp_tmr().
1249:Middlewares/Third_Party/LwIP/src/core/tcp.c ****  */
1250:Middlewares/Third_Party/LwIP/src/core/tcp.c **** void
1251:Middlewares/Third_Party/LwIP/src/core/tcp.c **** tcp_fasttmr(void)
1252:Middlewares/Third_Party/LwIP/src/core/tcp.c **** {
1253:Middlewares/Third_Party/LwIP/src/core/tcp.c ****   struct tcp_pcb *pcb;
1254:Middlewares/Third_Party/LwIP/src/core/tcp.c **** 
1255:Middlewares/Third_Party/LwIP/src/core/tcp.c ****   ++tcp_timer_ctr;
1256:Middlewares/Third_Party/LwIP/src/core/tcp.c **** 
1257:Middlewares/Third_Party/LwIP/src/core/tcp.c **** tcp_fasttmr_start:
1258:Middlewares/Third_Party/LwIP/src/core/tcp.c ****   pcb = tcp_active_pcbs;
1259:Middlewares/Third_Party/LwIP/src/core/tcp.c **** 
1260:Middlewares/Third_Party/LwIP/src/core/tcp.c ****   while (pcb != NULL) {
1261:Middlewares/Third_Party/LwIP/src/core/tcp.c ****     if (pcb->last_timer != tcp_timer_ctr) {
1262:Middlewares/Third_Party/LwIP/src/core/tcp.c ****       struct tcp_pcb *next;
1263:Middlewares/Third_Party/LwIP/src/core/tcp.c ****       pcb->last_timer = tcp_timer_ctr;
1264:Middlewares/Third_Party/LwIP/src/core/tcp.c ****       /* send delayed ACKs */
1265:Middlewares/Third_Party/LwIP/src/core/tcp.c ****       if (pcb->flags & TF_ACK_DELAY) {
1266:Middlewares/Third_Party/LwIP/src/core/tcp.c ****         LWIP_DEBUGF(TCP_DEBUG, ("tcp_fasttmr: delayed ACK\n"));
1267:Middlewares/Third_Party/LwIP/src/core/tcp.c ****         tcp_ack_now(pcb);
1268:Middlewares/Third_Party/LwIP/src/core/tcp.c ****         tcp_output(pcb);
1269:Middlewares/Third_Party/LwIP/src/core/tcp.c ****         pcb->flags &= ~(TF_ACK_DELAY | TF_ACK_NOW);
1270:Middlewares/Third_Party/LwIP/src/core/tcp.c ****       }
1271:Middlewares/Third_Party/LwIP/src/core/tcp.c ****       /* send pending FIN */
1272:Middlewares/Third_Party/LwIP/src/core/tcp.c ****       if (pcb->flags & TF_CLOSEPEND) {
1273:Middlewares/Third_Party/LwIP/src/core/tcp.c ****         LWIP_DEBUGF(TCP_DEBUG, ("tcp_fasttmr: pending FIN\n"));
1274:Middlewares/Third_Party/LwIP/src/core/tcp.c ****         pcb->flags &= ~(TF_CLOSEPEND);
1275:Middlewares/Third_Party/LwIP/src/core/tcp.c ****         tcp_close_shutdown_fin(pcb);
1276:Middlewares/Third_Party/LwIP/src/core/tcp.c ****       }
1277:Middlewares/Third_Party/LwIP/src/core/tcp.c **** 
ARM GAS  C:\Users\Patryk\AppData\Local\Temp\cc1Vd65O.s 			page 43


1278:Middlewares/Third_Party/LwIP/src/core/tcp.c ****       next = pcb->next;
1279:Middlewares/Third_Party/LwIP/src/core/tcp.c **** 
1280:Middlewares/Third_Party/LwIP/src/core/tcp.c ****       /* If there is data which was previously "refused" by upper layer */
1281:Middlewares/Third_Party/LwIP/src/core/tcp.c ****       if (pcb->refused_data != NULL) {
1282:Middlewares/Third_Party/LwIP/src/core/tcp.c ****         tcp_active_pcbs_changed = 0;
1283:Middlewares/Third_Party/LwIP/src/core/tcp.c ****         tcp_process_refused_data(pcb);
1284:Middlewares/Third_Party/LwIP/src/core/tcp.c ****         if (tcp_active_pcbs_changed) {
1285:Middlewares/Third_Party/LwIP/src/core/tcp.c ****           /* application callback has changed the pcb list: restart the loop */
1286:Middlewares/Third_Party/LwIP/src/core/tcp.c ****           goto tcp_fasttmr_start;
1287:Middlewares/Third_Party/LwIP/src/core/tcp.c ****         }
1288:Middlewares/Third_Party/LwIP/src/core/tcp.c ****       }
1289:Middlewares/Third_Party/LwIP/src/core/tcp.c ****       pcb = next;
1290:Middlewares/Third_Party/LwIP/src/core/tcp.c ****     } else {
1291:Middlewares/Third_Party/LwIP/src/core/tcp.c ****       pcb = pcb->next;
1292:Middlewares/Third_Party/LwIP/src/core/tcp.c ****     }
1293:Middlewares/Third_Party/LwIP/src/core/tcp.c ****   }
1294:Middlewares/Third_Party/LwIP/src/core/tcp.c **** }
1295:Middlewares/Third_Party/LwIP/src/core/tcp.c **** 
1296:Middlewares/Third_Party/LwIP/src/core/tcp.c **** /** Call tcp_output for all active pcbs that have TF_NAGLEMEMERR set */
1297:Middlewares/Third_Party/LwIP/src/core/tcp.c **** void
1298:Middlewares/Third_Party/LwIP/src/core/tcp.c **** tcp_txnow(void)
1299:Middlewares/Third_Party/LwIP/src/core/tcp.c **** {
 999              		.loc 1 1299 0
 1000              		.cfi_startproc
 1001              		@ args = 0, pretend = 0, frame = 0
 1002              		@ frame_needed = 0, uses_anonymous_args = 0
 1003 0000 10B5     		push	{r4, lr}
 1004              	.LCFI10:
 1005              		.cfi_def_cfa_offset 8
 1006              		.cfi_offset 4, -8
 1007              		.cfi_offset 14, -4
1300:Middlewares/Third_Party/LwIP/src/core/tcp.c ****   struct tcp_pcb *pcb;
1301:Middlewares/Third_Party/LwIP/src/core/tcp.c **** 
1302:Middlewares/Third_Party/LwIP/src/core/tcp.c ****   for (pcb = tcp_active_pcbs; pcb != NULL; pcb = pcb->next) {
 1008              		.loc 1 1302 0
 1009 0002 074B     		ldr	r3, .L126
 1010 0004 1C68     		ldr	r4, [r3]
 1011              	.LVL114:
 1012 0006 00E0     		b	.L121
 1013              	.L122:
 1014              		.loc 1 1302 0 is_stmt 0 discriminator 2
 1015 0008 E468     		ldr	r4, [r4, #12]
 1016              	.LVL115:
 1017              	.L121:
 1018              		.loc 1 1302 0 discriminator 1
 1019 000a 3CB1     		cbz	r4, .L125
1303:Middlewares/Third_Party/LwIP/src/core/tcp.c ****     if (pcb->flags & TF_NAGLEMEMERR) {
 1020              		.loc 1 1303 0 is_stmt 1
 1021 000c 94F91A30 		ldrsb	r3, [r4, #26]
 1022 0010 002B     		cmp	r3, #0
 1023 0012 F9DA     		bge	.L122
1304:Middlewares/Third_Party/LwIP/src/core/tcp.c ****       tcp_output(pcb);
 1024              		.loc 1 1304 0
 1025 0014 2046     		mov	r0, r4
 1026 0016 FFF7FEFF 		bl	tcp_output
 1027              	.LVL116:
 1028 001a F5E7     		b	.L122
ARM GAS  C:\Users\Patryk\AppData\Local\Temp\cc1Vd65O.s 			page 44


 1029              	.L125:
1305:Middlewares/Third_Party/LwIP/src/core/tcp.c ****     }
1306:Middlewares/Third_Party/LwIP/src/core/tcp.c ****   }
1307:Middlewares/Third_Party/LwIP/src/core/tcp.c **** }
 1030              		.loc 1 1307 0
 1031 001c 10BD     		pop	{r4, pc}
 1032              	.LVL117:
 1033              	.L127:
 1034 001e 00BF     		.align	2
 1035              	.L126:
 1036 0020 00000000 		.word	tcp_active_pcbs
 1037              		.cfi_endproc
 1038              	.LFE174:
 1040              		.section	.text.tcp_seg_free,"ax",%progbits
 1041              		.align	1
 1042              		.global	tcp_seg_free
 1043              		.syntax unified
 1044              		.thumb
 1045              		.thumb_func
 1046              		.fpu fpv5-sp-d16
 1048              	tcp_seg_free:
 1049              	.LFB177:
1308:Middlewares/Third_Party/LwIP/src/core/tcp.c **** 
1309:Middlewares/Third_Party/LwIP/src/core/tcp.c **** /** Pass pcb->refused_data to the recv callback */
1310:Middlewares/Third_Party/LwIP/src/core/tcp.c **** err_t
1311:Middlewares/Third_Party/LwIP/src/core/tcp.c **** tcp_process_refused_data(struct tcp_pcb *pcb)
1312:Middlewares/Third_Party/LwIP/src/core/tcp.c **** {
1313:Middlewares/Third_Party/LwIP/src/core/tcp.c **** #if TCP_QUEUE_OOSEQ && LWIP_WND_SCALE
1314:Middlewares/Third_Party/LwIP/src/core/tcp.c ****   struct pbuf *rest;
1315:Middlewares/Third_Party/LwIP/src/core/tcp.c ****   while (pcb->refused_data != NULL)
1316:Middlewares/Third_Party/LwIP/src/core/tcp.c **** #endif /* TCP_QUEUE_OOSEQ && LWIP_WND_SCALE */
1317:Middlewares/Third_Party/LwIP/src/core/tcp.c ****   {
1318:Middlewares/Third_Party/LwIP/src/core/tcp.c ****     err_t err;
1319:Middlewares/Third_Party/LwIP/src/core/tcp.c ****     u8_t refused_flags = pcb->refused_data->flags;
1320:Middlewares/Third_Party/LwIP/src/core/tcp.c ****     /* set pcb->refused_data to NULL in case the callback frees it and then
1321:Middlewares/Third_Party/LwIP/src/core/tcp.c ****        closes the pcb */
1322:Middlewares/Third_Party/LwIP/src/core/tcp.c ****     struct pbuf *refused_data = pcb->refused_data;
1323:Middlewares/Third_Party/LwIP/src/core/tcp.c **** #if TCP_QUEUE_OOSEQ && LWIP_WND_SCALE
1324:Middlewares/Third_Party/LwIP/src/core/tcp.c ****     pbuf_split_64k(refused_data, &rest);
1325:Middlewares/Third_Party/LwIP/src/core/tcp.c ****     pcb->refused_data = rest;
1326:Middlewares/Third_Party/LwIP/src/core/tcp.c **** #else /* TCP_QUEUE_OOSEQ && LWIP_WND_SCALE */
1327:Middlewares/Third_Party/LwIP/src/core/tcp.c ****     pcb->refused_data = NULL;
1328:Middlewares/Third_Party/LwIP/src/core/tcp.c **** #endif /* TCP_QUEUE_OOSEQ && LWIP_WND_SCALE */
1329:Middlewares/Third_Party/LwIP/src/core/tcp.c ****     /* Notify again application with data previously received. */
1330:Middlewares/Third_Party/LwIP/src/core/tcp.c ****     LWIP_DEBUGF(TCP_INPUT_DEBUG, ("tcp_input: notify kept packet\n"));
1331:Middlewares/Third_Party/LwIP/src/core/tcp.c ****     TCP_EVENT_RECV(pcb, refused_data, ERR_OK, err);
1332:Middlewares/Third_Party/LwIP/src/core/tcp.c ****     if (err == ERR_OK) {
1333:Middlewares/Third_Party/LwIP/src/core/tcp.c ****       /* did refused_data include a FIN? */
1334:Middlewares/Third_Party/LwIP/src/core/tcp.c ****       if (refused_flags & PBUF_FLAG_TCP_FIN
1335:Middlewares/Third_Party/LwIP/src/core/tcp.c **** #if TCP_QUEUE_OOSEQ && LWIP_WND_SCALE
1336:Middlewares/Third_Party/LwIP/src/core/tcp.c ****           && (rest == NULL)
1337:Middlewares/Third_Party/LwIP/src/core/tcp.c **** #endif /* TCP_QUEUE_OOSEQ && LWIP_WND_SCALE */
1338:Middlewares/Third_Party/LwIP/src/core/tcp.c ****          ) {
1339:Middlewares/Third_Party/LwIP/src/core/tcp.c ****         /* correct rcv_wnd as the application won't call tcp_recved()
1340:Middlewares/Third_Party/LwIP/src/core/tcp.c ****            for the FIN's seqno */
1341:Middlewares/Third_Party/LwIP/src/core/tcp.c ****         if (pcb->rcv_wnd != TCP_WND_MAX(pcb)) {
1342:Middlewares/Third_Party/LwIP/src/core/tcp.c ****           pcb->rcv_wnd++;
ARM GAS  C:\Users\Patryk\AppData\Local\Temp\cc1Vd65O.s 			page 45


1343:Middlewares/Third_Party/LwIP/src/core/tcp.c ****         }
1344:Middlewares/Third_Party/LwIP/src/core/tcp.c ****         TCP_EVENT_CLOSED(pcb, err);
1345:Middlewares/Third_Party/LwIP/src/core/tcp.c ****         if (err == ERR_ABRT) {
1346:Middlewares/Third_Party/LwIP/src/core/tcp.c ****           return ERR_ABRT;
1347:Middlewares/Third_Party/LwIP/src/core/tcp.c ****         }
1348:Middlewares/Third_Party/LwIP/src/core/tcp.c ****       }
1349:Middlewares/Third_Party/LwIP/src/core/tcp.c ****     } else if (err == ERR_ABRT) {
1350:Middlewares/Third_Party/LwIP/src/core/tcp.c ****       /* if err == ERR_ABRT, 'pcb' is already deallocated */
1351:Middlewares/Third_Party/LwIP/src/core/tcp.c ****       /* Drop incoming packets because pcb is "full" (only if the incoming
1352:Middlewares/Third_Party/LwIP/src/core/tcp.c ****          segment contains data). */
1353:Middlewares/Third_Party/LwIP/src/core/tcp.c ****       LWIP_DEBUGF(TCP_INPUT_DEBUG, ("tcp_input: drop incoming packets, because pcb is \"full\"\n"))
1354:Middlewares/Third_Party/LwIP/src/core/tcp.c ****       return ERR_ABRT;
1355:Middlewares/Third_Party/LwIP/src/core/tcp.c ****     } else {
1356:Middlewares/Third_Party/LwIP/src/core/tcp.c ****       /* data is still refused, pbuf is still valid (go on for ACK-only packets) */
1357:Middlewares/Third_Party/LwIP/src/core/tcp.c **** #if TCP_QUEUE_OOSEQ && LWIP_WND_SCALE
1358:Middlewares/Third_Party/LwIP/src/core/tcp.c ****       if (rest != NULL) {
1359:Middlewares/Third_Party/LwIP/src/core/tcp.c ****         pbuf_cat(refused_data, rest);
1360:Middlewares/Third_Party/LwIP/src/core/tcp.c ****       }
1361:Middlewares/Third_Party/LwIP/src/core/tcp.c **** #endif /* TCP_QUEUE_OOSEQ && LWIP_WND_SCALE */
1362:Middlewares/Third_Party/LwIP/src/core/tcp.c ****       pcb->refused_data = refused_data;
1363:Middlewares/Third_Party/LwIP/src/core/tcp.c ****       return ERR_INPROGRESS;
1364:Middlewares/Third_Party/LwIP/src/core/tcp.c ****     }
1365:Middlewares/Third_Party/LwIP/src/core/tcp.c ****   }
1366:Middlewares/Third_Party/LwIP/src/core/tcp.c ****   return ERR_OK;
1367:Middlewares/Third_Party/LwIP/src/core/tcp.c **** }
1368:Middlewares/Third_Party/LwIP/src/core/tcp.c **** 
1369:Middlewares/Third_Party/LwIP/src/core/tcp.c **** /**
1370:Middlewares/Third_Party/LwIP/src/core/tcp.c ****  * Deallocates a list of TCP segments (tcp_seg structures).
1371:Middlewares/Third_Party/LwIP/src/core/tcp.c ****  *
1372:Middlewares/Third_Party/LwIP/src/core/tcp.c ****  * @param seg tcp_seg list of TCP segments to free
1373:Middlewares/Third_Party/LwIP/src/core/tcp.c ****  */
1374:Middlewares/Third_Party/LwIP/src/core/tcp.c **** void
1375:Middlewares/Third_Party/LwIP/src/core/tcp.c **** tcp_segs_free(struct tcp_seg *seg)
1376:Middlewares/Third_Party/LwIP/src/core/tcp.c **** {
1377:Middlewares/Third_Party/LwIP/src/core/tcp.c ****   while (seg != NULL) {
1378:Middlewares/Third_Party/LwIP/src/core/tcp.c ****     struct tcp_seg *next = seg->next;
1379:Middlewares/Third_Party/LwIP/src/core/tcp.c ****     tcp_seg_free(seg);
1380:Middlewares/Third_Party/LwIP/src/core/tcp.c ****     seg = next;
1381:Middlewares/Third_Party/LwIP/src/core/tcp.c ****   }
1382:Middlewares/Third_Party/LwIP/src/core/tcp.c **** }
1383:Middlewares/Third_Party/LwIP/src/core/tcp.c **** 
1384:Middlewares/Third_Party/LwIP/src/core/tcp.c **** /**
1385:Middlewares/Third_Party/LwIP/src/core/tcp.c ****  * Frees a TCP segment (tcp_seg structure).
1386:Middlewares/Third_Party/LwIP/src/core/tcp.c ****  *
1387:Middlewares/Third_Party/LwIP/src/core/tcp.c ****  * @param seg single tcp_seg to free
1388:Middlewares/Third_Party/LwIP/src/core/tcp.c ****  */
1389:Middlewares/Third_Party/LwIP/src/core/tcp.c **** void
1390:Middlewares/Third_Party/LwIP/src/core/tcp.c **** tcp_seg_free(struct tcp_seg *seg)
1391:Middlewares/Third_Party/LwIP/src/core/tcp.c **** {
 1050              		.loc 1 1391 0
 1051              		.cfi_startproc
 1052              		@ args = 0, pretend = 0, frame = 0
 1053              		@ frame_needed = 0, uses_anonymous_args = 0
 1054              	.LVL118:
1392:Middlewares/Third_Party/LwIP/src/core/tcp.c ****   if (seg != NULL) {
 1055              		.loc 1 1392 0
 1056 0000 50B1     		cbz	r0, .L132
ARM GAS  C:\Users\Patryk\AppData\Local\Temp\cc1Vd65O.s 			page 46


1391:Middlewares/Third_Party/LwIP/src/core/tcp.c ****   if (seg != NULL) {
 1057              		.loc 1 1391 0
 1058 0002 10B5     		push	{r4, lr}
 1059              	.LCFI11:
 1060              		.cfi_def_cfa_offset 8
 1061              		.cfi_offset 4, -8
 1062              		.cfi_offset 14, -4
 1063 0004 0446     		mov	r4, r0
1393:Middlewares/Third_Party/LwIP/src/core/tcp.c ****     if (seg->p != NULL) {
 1064              		.loc 1 1393 0
 1065 0006 4068     		ldr	r0, [r0, #4]
 1066              	.LVL119:
 1067 0008 08B1     		cbz	r0, .L130
1394:Middlewares/Third_Party/LwIP/src/core/tcp.c ****       pbuf_free(seg->p);
 1068              		.loc 1 1394 0
 1069 000a FFF7FEFF 		bl	pbuf_free
 1070              	.LVL120:
 1071              	.L130:
1395:Middlewares/Third_Party/LwIP/src/core/tcp.c **** #if TCP_DEBUG
1396:Middlewares/Third_Party/LwIP/src/core/tcp.c ****       seg->p = NULL;
1397:Middlewares/Third_Party/LwIP/src/core/tcp.c **** #endif /* TCP_DEBUG */
1398:Middlewares/Third_Party/LwIP/src/core/tcp.c ****     }
1399:Middlewares/Third_Party/LwIP/src/core/tcp.c ****     memp_free(MEMP_TCP_SEG, seg);
 1072              		.loc 1 1399 0
 1073 000e 2146     		mov	r1, r4
 1074 0010 0320     		movs	r0, #3
 1075 0012 FFF7FEFF 		bl	memp_free
 1076              	.LVL121:
1400:Middlewares/Third_Party/LwIP/src/core/tcp.c ****   }
1401:Middlewares/Third_Party/LwIP/src/core/tcp.c **** }
 1077              		.loc 1 1401 0
 1078 0016 10BD     		pop	{r4, pc}
 1079              	.LVL122:
 1080              	.L132:
 1081              	.LCFI12:
 1082              		.cfi_def_cfa_offset 0
 1083              		.cfi_restore 4
 1084              		.cfi_restore 14
 1085 0018 7047     		bx	lr
 1086              		.cfi_endproc
 1087              	.LFE177:
 1089              		.section	.text.tcp_segs_free,"ax",%progbits
 1090              		.align	1
 1091              		.global	tcp_segs_free
 1092              		.syntax unified
 1093              		.thumb
 1094              		.thumb_func
 1095              		.fpu fpv5-sp-d16
 1097              	tcp_segs_free:
 1098              	.LFB176:
1376:Middlewares/Third_Party/LwIP/src/core/tcp.c ****   while (seg != NULL) {
 1099              		.loc 1 1376 0
 1100              		.cfi_startproc
 1101              		@ args = 0, pretend = 0, frame = 0
 1102              		@ frame_needed = 0, uses_anonymous_args = 0
 1103              	.LVL123:
1377:Middlewares/Third_Party/LwIP/src/core/tcp.c ****     struct tcp_seg *next = seg->next;
ARM GAS  C:\Users\Patryk\AppData\Local\Temp\cc1Vd65O.s 			page 47


 1104              		.loc 1 1377 0
 1105 0000 38B1     		cbz	r0, .L141
1376:Middlewares/Third_Party/LwIP/src/core/tcp.c ****   while (seg != NULL) {
 1106              		.loc 1 1376 0
 1107 0002 10B5     		push	{r4, lr}
 1108              	.LCFI13:
 1109              		.cfi_def_cfa_offset 8
 1110              		.cfi_offset 4, -8
 1111              		.cfi_offset 14, -4
 1112              	.L137:
 1113              	.LBB6:
1378:Middlewares/Third_Party/LwIP/src/core/tcp.c ****     tcp_seg_free(seg);
 1114              		.loc 1 1378 0
 1115 0004 0468     		ldr	r4, [r0]
 1116              	.LVL124:
1379:Middlewares/Third_Party/LwIP/src/core/tcp.c ****     seg = next;
 1117              		.loc 1 1379 0
 1118 0006 FFF7FEFF 		bl	tcp_seg_free
 1119              	.LVL125:
1380:Middlewares/Third_Party/LwIP/src/core/tcp.c ****   }
 1120              		.loc 1 1380 0
 1121 000a 2046     		mov	r0, r4
 1122              	.LBE6:
1377:Middlewares/Third_Party/LwIP/src/core/tcp.c ****     struct tcp_seg *next = seg->next;
 1123              		.loc 1 1377 0
 1124 000c 002C     		cmp	r4, #0
 1125 000e F9D1     		bne	.L137
1382:Middlewares/Third_Party/LwIP/src/core/tcp.c **** 
 1126              		.loc 1 1382 0
 1127 0010 10BD     		pop	{r4, pc}
 1128              	.LVL126:
 1129              	.L141:
 1130              	.LCFI14:
 1131              		.cfi_def_cfa_offset 0
 1132              		.cfi_restore 4
 1133              		.cfi_restore 14
 1134 0012 7047     		bx	lr
 1135              		.cfi_endproc
 1136              	.LFE176:
 1138              		.section	.text.tcp_setprio,"ax",%progbits
 1139              		.align	1
 1140              		.global	tcp_setprio
 1141              		.syntax unified
 1142              		.thumb
 1143              		.thumb_func
 1144              		.fpu fpv5-sp-d16
 1146              	tcp_setprio:
 1147              	.LFB178:
1402:Middlewares/Third_Party/LwIP/src/core/tcp.c **** 
1403:Middlewares/Third_Party/LwIP/src/core/tcp.c **** /**
1404:Middlewares/Third_Party/LwIP/src/core/tcp.c ****  * Sets the priority of a connection.
1405:Middlewares/Third_Party/LwIP/src/core/tcp.c ****  *
1406:Middlewares/Third_Party/LwIP/src/core/tcp.c ****  * @param pcb the tcp_pcb to manipulate
1407:Middlewares/Third_Party/LwIP/src/core/tcp.c ****  * @param prio new priority
1408:Middlewares/Third_Party/LwIP/src/core/tcp.c ****  */
1409:Middlewares/Third_Party/LwIP/src/core/tcp.c **** void
1410:Middlewares/Third_Party/LwIP/src/core/tcp.c **** tcp_setprio(struct tcp_pcb *pcb, u8_t prio)
ARM GAS  C:\Users\Patryk\AppData\Local\Temp\cc1Vd65O.s 			page 48


1411:Middlewares/Third_Party/LwIP/src/core/tcp.c **** {
 1148              		.loc 1 1411 0
 1149              		.cfi_startproc
 1150              		@ args = 0, pretend = 0, frame = 0
 1151              		@ frame_needed = 0, uses_anonymous_args = 0
 1152              		@ link register save eliminated.
 1153              	.LVL127:
1412:Middlewares/Third_Party/LwIP/src/core/tcp.c ****   pcb->prio = prio;
 1154              		.loc 1 1412 0
 1155 0000 4175     		strb	r1, [r0, #21]
1413:Middlewares/Third_Party/LwIP/src/core/tcp.c **** }
 1156              		.loc 1 1413 0
 1157 0002 7047     		bx	lr
 1158              		.cfi_endproc
 1159              	.LFE178:
 1161              		.section	.text.tcp_seg_copy,"ax",%progbits
 1162              		.align	1
 1163              		.global	tcp_seg_copy
 1164              		.syntax unified
 1165              		.thumb
 1166              		.thumb_func
 1167              		.fpu fpv5-sp-d16
 1169              	tcp_seg_copy:
 1170              	.LFB179:
1414:Middlewares/Third_Party/LwIP/src/core/tcp.c **** 
1415:Middlewares/Third_Party/LwIP/src/core/tcp.c **** #if TCP_QUEUE_OOSEQ
1416:Middlewares/Third_Party/LwIP/src/core/tcp.c **** /**
1417:Middlewares/Third_Party/LwIP/src/core/tcp.c ****  * Returns a copy of the given TCP segment.
1418:Middlewares/Third_Party/LwIP/src/core/tcp.c ****  * The pbuf and data are not copied, only the pointers
1419:Middlewares/Third_Party/LwIP/src/core/tcp.c ****  *
1420:Middlewares/Third_Party/LwIP/src/core/tcp.c ****  * @param seg the old tcp_seg
1421:Middlewares/Third_Party/LwIP/src/core/tcp.c ****  * @return a copy of seg
1422:Middlewares/Third_Party/LwIP/src/core/tcp.c ****  */
1423:Middlewares/Third_Party/LwIP/src/core/tcp.c **** struct tcp_seg *
1424:Middlewares/Third_Party/LwIP/src/core/tcp.c **** tcp_seg_copy(struct tcp_seg *seg)
1425:Middlewares/Third_Party/LwIP/src/core/tcp.c **** {
 1171              		.loc 1 1425 0
 1172              		.cfi_startproc
 1173              		@ args = 0, pretend = 0, frame = 0
 1174              		@ frame_needed = 0, uses_anonymous_args = 0
 1175              	.LVL128:
 1176 0000 38B5     		push	{r3, r4, r5, lr}
 1177              	.LCFI15:
 1178              		.cfi_def_cfa_offset 16
 1179              		.cfi_offset 3, -16
 1180              		.cfi_offset 4, -12
 1181              		.cfi_offset 5, -8
 1182              		.cfi_offset 14, -4
 1183 0002 0546     		mov	r5, r0
1426:Middlewares/Third_Party/LwIP/src/core/tcp.c ****   struct tcp_seg *cseg;
1427:Middlewares/Third_Party/LwIP/src/core/tcp.c **** 
1428:Middlewares/Third_Party/LwIP/src/core/tcp.c ****   cseg = (struct tcp_seg *)memp_malloc(MEMP_TCP_SEG);
 1184              		.loc 1 1428 0
 1185 0004 0320     		movs	r0, #3
 1186              	.LVL129:
 1187 0006 FFF7FEFF 		bl	memp_malloc
 1188              	.LVL130:
ARM GAS  C:\Users\Patryk\AppData\Local\Temp\cc1Vd65O.s 			page 49


1429:Middlewares/Third_Party/LwIP/src/core/tcp.c ****   if (cseg == NULL) {
 1189              		.loc 1 1429 0
 1190 000a 0446     		mov	r4, r0
 1191 000c 50B1     		cbz	r0, .L143
1430:Middlewares/Third_Party/LwIP/src/core/tcp.c ****     return NULL;
1431:Middlewares/Third_Party/LwIP/src/core/tcp.c ****   }
1432:Middlewares/Third_Party/LwIP/src/core/tcp.c ****   SMEMCPY((u8_t *)cseg, (const u8_t *)seg, sizeof(struct tcp_seg));
 1192              		.loc 1 1432 0
 1193 000e 2868     		ldr	r0, [r5]	@ unaligned
 1194              	.LVL131:
 1195 0010 6968     		ldr	r1, [r5, #4]	@ unaligned
 1196 0012 AA68     		ldr	r2, [r5, #8]	@ unaligned
 1197 0014 EB68     		ldr	r3, [r5, #12]	@ unaligned
 1198 0016 2060     		str	r0, [r4]	@ unaligned
 1199 0018 6160     		str	r1, [r4, #4]	@ unaligned
 1200 001a A260     		str	r2, [r4, #8]	@ unaligned
 1201 001c E360     		str	r3, [r4, #12]	@ unaligned
1433:Middlewares/Third_Party/LwIP/src/core/tcp.c ****   pbuf_ref(cseg->p);
 1202              		.loc 1 1433 0
 1203 001e 6068     		ldr	r0, [r4, #4]
 1204 0020 FFF7FEFF 		bl	pbuf_ref
 1205              	.LVL132:
 1206              	.L143:
1434:Middlewares/Third_Party/LwIP/src/core/tcp.c ****   return cseg;
1435:Middlewares/Third_Party/LwIP/src/core/tcp.c **** }
 1207              		.loc 1 1435 0
 1208 0024 2046     		mov	r0, r4
 1209 0026 38BD     		pop	{r3, r4, r5, pc}
 1210              		.cfi_endproc
 1211              	.LFE179:
 1213              		.section	.text.tcp_arg,"ax",%progbits
 1214              		.align	1
 1215              		.global	tcp_arg
 1216              		.syntax unified
 1217              		.thumb
 1218              		.thumb_func
 1219              		.fpu fpv5-sp-d16
 1221              	tcp_arg:
 1222              	.LFB187:
1436:Middlewares/Third_Party/LwIP/src/core/tcp.c **** #endif /* TCP_QUEUE_OOSEQ */
1437:Middlewares/Third_Party/LwIP/src/core/tcp.c **** 
1438:Middlewares/Third_Party/LwIP/src/core/tcp.c **** #if LWIP_CALLBACK_API
1439:Middlewares/Third_Party/LwIP/src/core/tcp.c **** /**
1440:Middlewares/Third_Party/LwIP/src/core/tcp.c ****  * Default receive callback that is called if the user didn't register
1441:Middlewares/Third_Party/LwIP/src/core/tcp.c ****  * a recv callback for the pcb.
1442:Middlewares/Third_Party/LwIP/src/core/tcp.c ****  */
1443:Middlewares/Third_Party/LwIP/src/core/tcp.c **** err_t
1444:Middlewares/Third_Party/LwIP/src/core/tcp.c **** tcp_recv_null(void *arg, struct tcp_pcb *pcb, struct pbuf *p, err_t err)
1445:Middlewares/Third_Party/LwIP/src/core/tcp.c **** {
1446:Middlewares/Third_Party/LwIP/src/core/tcp.c ****   LWIP_UNUSED_ARG(arg);
1447:Middlewares/Third_Party/LwIP/src/core/tcp.c ****   if (p != NULL) {
1448:Middlewares/Third_Party/LwIP/src/core/tcp.c ****     tcp_recved(pcb, p->tot_len);
1449:Middlewares/Third_Party/LwIP/src/core/tcp.c ****     pbuf_free(p);
1450:Middlewares/Third_Party/LwIP/src/core/tcp.c ****   } else if (err == ERR_OK) {
1451:Middlewares/Third_Party/LwIP/src/core/tcp.c ****     return tcp_close(pcb);
1452:Middlewares/Third_Party/LwIP/src/core/tcp.c ****   }
1453:Middlewares/Third_Party/LwIP/src/core/tcp.c ****   return ERR_OK;
ARM GAS  C:\Users\Patryk\AppData\Local\Temp\cc1Vd65O.s 			page 50


1454:Middlewares/Third_Party/LwIP/src/core/tcp.c **** }
1455:Middlewares/Third_Party/LwIP/src/core/tcp.c **** #endif /* LWIP_CALLBACK_API */
1456:Middlewares/Third_Party/LwIP/src/core/tcp.c **** 
1457:Middlewares/Third_Party/LwIP/src/core/tcp.c **** /**
1458:Middlewares/Third_Party/LwIP/src/core/tcp.c ****  * Kills the oldest active connection that has the same or lower priority than
1459:Middlewares/Third_Party/LwIP/src/core/tcp.c ****  * 'prio'.
1460:Middlewares/Third_Party/LwIP/src/core/tcp.c ****  *
1461:Middlewares/Third_Party/LwIP/src/core/tcp.c ****  * @param prio minimum priority
1462:Middlewares/Third_Party/LwIP/src/core/tcp.c ****  */
1463:Middlewares/Third_Party/LwIP/src/core/tcp.c **** static void
1464:Middlewares/Third_Party/LwIP/src/core/tcp.c **** tcp_kill_prio(u8_t prio)
1465:Middlewares/Third_Party/LwIP/src/core/tcp.c **** {
1466:Middlewares/Third_Party/LwIP/src/core/tcp.c ****   struct tcp_pcb *pcb, *inactive;
1467:Middlewares/Third_Party/LwIP/src/core/tcp.c ****   u32_t inactivity;
1468:Middlewares/Third_Party/LwIP/src/core/tcp.c ****   u8_t mprio;
1469:Middlewares/Third_Party/LwIP/src/core/tcp.c **** 
1470:Middlewares/Third_Party/LwIP/src/core/tcp.c ****   mprio = LWIP_MIN(TCP_PRIO_MAX, prio);
1471:Middlewares/Third_Party/LwIP/src/core/tcp.c **** 
1472:Middlewares/Third_Party/LwIP/src/core/tcp.c ****   /* We kill the oldest active connection that has lower priority than prio. */
1473:Middlewares/Third_Party/LwIP/src/core/tcp.c ****   inactivity = 0;
1474:Middlewares/Third_Party/LwIP/src/core/tcp.c ****   inactive = NULL;
1475:Middlewares/Third_Party/LwIP/src/core/tcp.c ****   for (pcb = tcp_active_pcbs; pcb != NULL; pcb = pcb->next) {
1476:Middlewares/Third_Party/LwIP/src/core/tcp.c ****     if (pcb->prio <= mprio &&
1477:Middlewares/Third_Party/LwIP/src/core/tcp.c ****        (u32_t)(tcp_ticks - pcb->tmr) >= inactivity) {
1478:Middlewares/Third_Party/LwIP/src/core/tcp.c ****       inactivity = tcp_ticks - pcb->tmr;
1479:Middlewares/Third_Party/LwIP/src/core/tcp.c ****       inactive = pcb;
1480:Middlewares/Third_Party/LwIP/src/core/tcp.c ****       mprio = pcb->prio;
1481:Middlewares/Third_Party/LwIP/src/core/tcp.c ****     }
1482:Middlewares/Third_Party/LwIP/src/core/tcp.c ****   }
1483:Middlewares/Third_Party/LwIP/src/core/tcp.c ****   if (inactive != NULL) {
1484:Middlewares/Third_Party/LwIP/src/core/tcp.c ****     LWIP_DEBUGF(TCP_DEBUG, ("tcp_kill_prio: killing oldest PCB %p (%"S32_F")\n",
1485:Middlewares/Third_Party/LwIP/src/core/tcp.c ****            (void *)inactive, inactivity));
1486:Middlewares/Third_Party/LwIP/src/core/tcp.c ****     tcp_abort(inactive);
1487:Middlewares/Third_Party/LwIP/src/core/tcp.c ****   }
1488:Middlewares/Third_Party/LwIP/src/core/tcp.c **** }
1489:Middlewares/Third_Party/LwIP/src/core/tcp.c **** 
1490:Middlewares/Third_Party/LwIP/src/core/tcp.c **** /**
1491:Middlewares/Third_Party/LwIP/src/core/tcp.c ****  * Kills the oldest connection that is in specific state.
1492:Middlewares/Third_Party/LwIP/src/core/tcp.c ****  * Called from tcp_alloc() for LAST_ACK and CLOSING if no more connections are available.
1493:Middlewares/Third_Party/LwIP/src/core/tcp.c ****  */
1494:Middlewares/Third_Party/LwIP/src/core/tcp.c **** static void
1495:Middlewares/Third_Party/LwIP/src/core/tcp.c **** tcp_kill_state(enum tcp_state state)
1496:Middlewares/Third_Party/LwIP/src/core/tcp.c **** {
1497:Middlewares/Third_Party/LwIP/src/core/tcp.c ****   struct tcp_pcb *pcb, *inactive;
1498:Middlewares/Third_Party/LwIP/src/core/tcp.c ****   u32_t inactivity;
1499:Middlewares/Third_Party/LwIP/src/core/tcp.c **** 
1500:Middlewares/Third_Party/LwIP/src/core/tcp.c ****   LWIP_ASSERT("invalid state", (state == CLOSING) || (state == LAST_ACK));
1501:Middlewares/Third_Party/LwIP/src/core/tcp.c **** 
1502:Middlewares/Third_Party/LwIP/src/core/tcp.c ****   inactivity = 0;
1503:Middlewares/Third_Party/LwIP/src/core/tcp.c ****   inactive = NULL;
1504:Middlewares/Third_Party/LwIP/src/core/tcp.c ****   /* Go through the list of active pcbs and get the oldest pcb that is in state
1505:Middlewares/Third_Party/LwIP/src/core/tcp.c ****      CLOSING/LAST_ACK. */
1506:Middlewares/Third_Party/LwIP/src/core/tcp.c ****   for (pcb = tcp_active_pcbs; pcb != NULL; pcb = pcb->next) {
1507:Middlewares/Third_Party/LwIP/src/core/tcp.c ****     if (pcb->state == state) {
1508:Middlewares/Third_Party/LwIP/src/core/tcp.c ****       if ((u32_t)(tcp_ticks - pcb->tmr) >= inactivity) {
1509:Middlewares/Third_Party/LwIP/src/core/tcp.c ****         inactivity = tcp_ticks - pcb->tmr;
1510:Middlewares/Third_Party/LwIP/src/core/tcp.c ****         inactive = pcb;
ARM GAS  C:\Users\Patryk\AppData\Local\Temp\cc1Vd65O.s 			page 51


1511:Middlewares/Third_Party/LwIP/src/core/tcp.c ****       }
1512:Middlewares/Third_Party/LwIP/src/core/tcp.c ****     }
1513:Middlewares/Third_Party/LwIP/src/core/tcp.c ****   }
1514:Middlewares/Third_Party/LwIP/src/core/tcp.c ****   if (inactive != NULL) {
1515:Middlewares/Third_Party/LwIP/src/core/tcp.c ****     LWIP_DEBUGF(TCP_DEBUG, ("tcp_kill_closing: killing oldest %s PCB %p (%"S32_F")\n",
1516:Middlewares/Third_Party/LwIP/src/core/tcp.c ****            tcp_state_str[state], (void *)inactive, inactivity));
1517:Middlewares/Third_Party/LwIP/src/core/tcp.c ****     /* Don't send a RST, since no data is lost. */
1518:Middlewares/Third_Party/LwIP/src/core/tcp.c ****     tcp_abandon(inactive, 0);
1519:Middlewares/Third_Party/LwIP/src/core/tcp.c ****   }
1520:Middlewares/Third_Party/LwIP/src/core/tcp.c **** }
1521:Middlewares/Third_Party/LwIP/src/core/tcp.c **** 
1522:Middlewares/Third_Party/LwIP/src/core/tcp.c **** /**
1523:Middlewares/Third_Party/LwIP/src/core/tcp.c ****  * Kills the oldest connection that is in TIME_WAIT state.
1524:Middlewares/Third_Party/LwIP/src/core/tcp.c ****  * Called from tcp_alloc() if no more connections are available.
1525:Middlewares/Third_Party/LwIP/src/core/tcp.c ****  */
1526:Middlewares/Third_Party/LwIP/src/core/tcp.c **** static void
1527:Middlewares/Third_Party/LwIP/src/core/tcp.c **** tcp_kill_timewait(void)
1528:Middlewares/Third_Party/LwIP/src/core/tcp.c **** {
1529:Middlewares/Third_Party/LwIP/src/core/tcp.c ****   struct tcp_pcb *pcb, *inactive;
1530:Middlewares/Third_Party/LwIP/src/core/tcp.c ****   u32_t inactivity;
1531:Middlewares/Third_Party/LwIP/src/core/tcp.c **** 
1532:Middlewares/Third_Party/LwIP/src/core/tcp.c ****   inactivity = 0;
1533:Middlewares/Third_Party/LwIP/src/core/tcp.c ****   inactive = NULL;
1534:Middlewares/Third_Party/LwIP/src/core/tcp.c ****   /* Go through the list of TIME_WAIT pcbs and get the oldest pcb. */
1535:Middlewares/Third_Party/LwIP/src/core/tcp.c ****   for (pcb = tcp_tw_pcbs; pcb != NULL; pcb = pcb->next) {
1536:Middlewares/Third_Party/LwIP/src/core/tcp.c ****     if ((u32_t)(tcp_ticks - pcb->tmr) >= inactivity) {
1537:Middlewares/Third_Party/LwIP/src/core/tcp.c ****       inactivity = tcp_ticks - pcb->tmr;
1538:Middlewares/Third_Party/LwIP/src/core/tcp.c ****       inactive = pcb;
1539:Middlewares/Third_Party/LwIP/src/core/tcp.c ****     }
1540:Middlewares/Third_Party/LwIP/src/core/tcp.c ****   }
1541:Middlewares/Third_Party/LwIP/src/core/tcp.c ****   if (inactive != NULL) {
1542:Middlewares/Third_Party/LwIP/src/core/tcp.c ****     LWIP_DEBUGF(TCP_DEBUG, ("tcp_kill_timewait: killing oldest TIME-WAIT PCB %p (%"S32_F")\n",
1543:Middlewares/Third_Party/LwIP/src/core/tcp.c ****            (void *)inactive, inactivity));
1544:Middlewares/Third_Party/LwIP/src/core/tcp.c ****     tcp_abort(inactive);
1545:Middlewares/Third_Party/LwIP/src/core/tcp.c ****   }
1546:Middlewares/Third_Party/LwIP/src/core/tcp.c **** }
1547:Middlewares/Third_Party/LwIP/src/core/tcp.c **** 
1548:Middlewares/Third_Party/LwIP/src/core/tcp.c **** /**
1549:Middlewares/Third_Party/LwIP/src/core/tcp.c ****  * Allocate a new tcp_pcb structure.
1550:Middlewares/Third_Party/LwIP/src/core/tcp.c ****  *
1551:Middlewares/Third_Party/LwIP/src/core/tcp.c ****  * @param prio priority for the new pcb
1552:Middlewares/Third_Party/LwIP/src/core/tcp.c ****  * @return a new tcp_pcb that initially is in state CLOSED
1553:Middlewares/Third_Party/LwIP/src/core/tcp.c ****  */
1554:Middlewares/Third_Party/LwIP/src/core/tcp.c **** struct tcp_pcb *
1555:Middlewares/Third_Party/LwIP/src/core/tcp.c **** tcp_alloc(u8_t prio)
1556:Middlewares/Third_Party/LwIP/src/core/tcp.c **** {
1557:Middlewares/Third_Party/LwIP/src/core/tcp.c ****   struct tcp_pcb *pcb;
1558:Middlewares/Third_Party/LwIP/src/core/tcp.c **** 
1559:Middlewares/Third_Party/LwIP/src/core/tcp.c ****   pcb = (struct tcp_pcb *)memp_malloc(MEMP_TCP_PCB);
1560:Middlewares/Third_Party/LwIP/src/core/tcp.c ****   if (pcb == NULL) {
1561:Middlewares/Third_Party/LwIP/src/core/tcp.c ****     /* Try killing oldest connection in TIME-WAIT. */
1562:Middlewares/Third_Party/LwIP/src/core/tcp.c ****     LWIP_DEBUGF(TCP_DEBUG, ("tcp_alloc: killing off oldest TIME-WAIT connection\n"));
1563:Middlewares/Third_Party/LwIP/src/core/tcp.c ****     tcp_kill_timewait();
1564:Middlewares/Third_Party/LwIP/src/core/tcp.c ****     /* Try to allocate a tcp_pcb again. */
1565:Middlewares/Third_Party/LwIP/src/core/tcp.c ****     pcb = (struct tcp_pcb *)memp_malloc(MEMP_TCP_PCB);
1566:Middlewares/Third_Party/LwIP/src/core/tcp.c ****     if (pcb == NULL) {
1567:Middlewares/Third_Party/LwIP/src/core/tcp.c ****       /* Try killing oldest connection in LAST-ACK (these wouldn't go to TIME-WAIT). */
ARM GAS  C:\Users\Patryk\AppData\Local\Temp\cc1Vd65O.s 			page 52


1568:Middlewares/Third_Party/LwIP/src/core/tcp.c ****       LWIP_DEBUGF(TCP_DEBUG, ("tcp_alloc: killing off oldest LAST-ACK connection\n"));
1569:Middlewares/Third_Party/LwIP/src/core/tcp.c ****       tcp_kill_state(LAST_ACK);
1570:Middlewares/Third_Party/LwIP/src/core/tcp.c ****       /* Try to allocate a tcp_pcb again. */
1571:Middlewares/Third_Party/LwIP/src/core/tcp.c ****       pcb = (struct tcp_pcb *)memp_malloc(MEMP_TCP_PCB);
1572:Middlewares/Third_Party/LwIP/src/core/tcp.c ****       if (pcb == NULL) {
1573:Middlewares/Third_Party/LwIP/src/core/tcp.c ****         /* Try killing oldest connection in CLOSING. */
1574:Middlewares/Third_Party/LwIP/src/core/tcp.c ****         LWIP_DEBUGF(TCP_DEBUG, ("tcp_alloc: killing off oldest CLOSING connection\n"));
1575:Middlewares/Third_Party/LwIP/src/core/tcp.c ****         tcp_kill_state(CLOSING);
1576:Middlewares/Third_Party/LwIP/src/core/tcp.c ****         /* Try to allocate a tcp_pcb again. */
1577:Middlewares/Third_Party/LwIP/src/core/tcp.c ****         pcb = (struct tcp_pcb *)memp_malloc(MEMP_TCP_PCB);
1578:Middlewares/Third_Party/LwIP/src/core/tcp.c ****         if (pcb == NULL) {
1579:Middlewares/Third_Party/LwIP/src/core/tcp.c ****           /* Try killing active connections with lower priority than the new one. */
1580:Middlewares/Third_Party/LwIP/src/core/tcp.c ****           LWIP_DEBUGF(TCP_DEBUG, ("tcp_alloc: killing connection with prio lower than %d\n", prio))
1581:Middlewares/Third_Party/LwIP/src/core/tcp.c ****           tcp_kill_prio(prio);
1582:Middlewares/Third_Party/LwIP/src/core/tcp.c ****           /* Try to allocate a tcp_pcb again. */
1583:Middlewares/Third_Party/LwIP/src/core/tcp.c ****           pcb = (struct tcp_pcb *)memp_malloc(MEMP_TCP_PCB);
1584:Middlewares/Third_Party/LwIP/src/core/tcp.c ****           if (pcb != NULL) {
1585:Middlewares/Third_Party/LwIP/src/core/tcp.c ****             /* adjust err stats: memp_malloc failed multiple times before */
1586:Middlewares/Third_Party/LwIP/src/core/tcp.c ****             MEMP_STATS_DEC(err, MEMP_TCP_PCB);
1587:Middlewares/Third_Party/LwIP/src/core/tcp.c ****           }
1588:Middlewares/Third_Party/LwIP/src/core/tcp.c ****         }
1589:Middlewares/Third_Party/LwIP/src/core/tcp.c ****         if (pcb != NULL) {
1590:Middlewares/Third_Party/LwIP/src/core/tcp.c ****           /* adjust err stats: memp_malloc failed multiple times before */
1591:Middlewares/Third_Party/LwIP/src/core/tcp.c ****           MEMP_STATS_DEC(err, MEMP_TCP_PCB);
1592:Middlewares/Third_Party/LwIP/src/core/tcp.c ****         }
1593:Middlewares/Third_Party/LwIP/src/core/tcp.c ****       }
1594:Middlewares/Third_Party/LwIP/src/core/tcp.c ****       if (pcb != NULL) {
1595:Middlewares/Third_Party/LwIP/src/core/tcp.c ****         /* adjust err stats: memp_malloc failed multiple times before */
1596:Middlewares/Third_Party/LwIP/src/core/tcp.c ****         MEMP_STATS_DEC(err, MEMP_TCP_PCB);
1597:Middlewares/Third_Party/LwIP/src/core/tcp.c ****       }
1598:Middlewares/Third_Party/LwIP/src/core/tcp.c ****     }
1599:Middlewares/Third_Party/LwIP/src/core/tcp.c ****     if (pcb != NULL) {
1600:Middlewares/Third_Party/LwIP/src/core/tcp.c ****       /* adjust err stats: memp_malloc failed above */
1601:Middlewares/Third_Party/LwIP/src/core/tcp.c ****       MEMP_STATS_DEC(err, MEMP_TCP_PCB);
1602:Middlewares/Third_Party/LwIP/src/core/tcp.c ****     }
1603:Middlewares/Third_Party/LwIP/src/core/tcp.c ****   }
1604:Middlewares/Third_Party/LwIP/src/core/tcp.c ****   if (pcb != NULL) {
1605:Middlewares/Third_Party/LwIP/src/core/tcp.c ****     /* zero out the whole pcb, so there is no need to initialize members to zero */
1606:Middlewares/Third_Party/LwIP/src/core/tcp.c ****     memset(pcb, 0, sizeof(struct tcp_pcb));
1607:Middlewares/Third_Party/LwIP/src/core/tcp.c ****     pcb->prio = prio;
1608:Middlewares/Third_Party/LwIP/src/core/tcp.c ****     pcb->snd_buf = TCP_SND_BUF;
1609:Middlewares/Third_Party/LwIP/src/core/tcp.c ****     /* Start with a window that does not need scaling. When window scaling is
1610:Middlewares/Third_Party/LwIP/src/core/tcp.c ****        enabled and used, the window is enlarged when both sides agree on scaling. */
1611:Middlewares/Third_Party/LwIP/src/core/tcp.c ****     pcb->rcv_wnd = pcb->rcv_ann_wnd = TCPWND_MIN16(TCP_WND);
1612:Middlewares/Third_Party/LwIP/src/core/tcp.c ****     pcb->ttl = TCP_TTL;
1613:Middlewares/Third_Party/LwIP/src/core/tcp.c ****     /* As initial send MSS, we use TCP_MSS but limit it to 536.
1614:Middlewares/Third_Party/LwIP/src/core/tcp.c ****        The send MSS is updated when an MSS option is received. */
1615:Middlewares/Third_Party/LwIP/src/core/tcp.c ****     pcb->mss = INITIAL_MSS;
1616:Middlewares/Third_Party/LwIP/src/core/tcp.c ****     pcb->rto = 3000 / TCP_SLOW_INTERVAL;
1617:Middlewares/Third_Party/LwIP/src/core/tcp.c ****     pcb->sv = 3000 / TCP_SLOW_INTERVAL;
1618:Middlewares/Third_Party/LwIP/src/core/tcp.c ****     pcb->rtime = -1;
1619:Middlewares/Third_Party/LwIP/src/core/tcp.c ****     pcb->cwnd = 1;
1620:Middlewares/Third_Party/LwIP/src/core/tcp.c ****     pcb->tmr = tcp_ticks;
1621:Middlewares/Third_Party/LwIP/src/core/tcp.c ****     pcb->last_timer = tcp_timer_ctr;
1622:Middlewares/Third_Party/LwIP/src/core/tcp.c **** 
1623:Middlewares/Third_Party/LwIP/src/core/tcp.c ****     /* RFC 5681 recommends setting ssthresh abritrarily high and gives an example
1624:Middlewares/Third_Party/LwIP/src/core/tcp.c ****     of using the largest advertised receive window.  We've seen complications with
ARM GAS  C:\Users\Patryk\AppData\Local\Temp\cc1Vd65O.s 			page 53


1625:Middlewares/Third_Party/LwIP/src/core/tcp.c ****     receiving TCPs that use window scaling and/or window auto-tuning where the
1626:Middlewares/Third_Party/LwIP/src/core/tcp.c ****     initial advertised window is very small and then grows rapidly once the
1627:Middlewares/Third_Party/LwIP/src/core/tcp.c ****     connection is established. To avoid these complications, we set ssthresh to the
1628:Middlewares/Third_Party/LwIP/src/core/tcp.c ****     largest effective cwnd (amount of in-flight data) that the sender can have. */
1629:Middlewares/Third_Party/LwIP/src/core/tcp.c ****     pcb->ssthresh = TCP_SND_BUF;
1630:Middlewares/Third_Party/LwIP/src/core/tcp.c **** 
1631:Middlewares/Third_Party/LwIP/src/core/tcp.c **** #if LWIP_CALLBACK_API
1632:Middlewares/Third_Party/LwIP/src/core/tcp.c ****     pcb->recv = tcp_recv_null;
1633:Middlewares/Third_Party/LwIP/src/core/tcp.c **** #endif /* LWIP_CALLBACK_API */
1634:Middlewares/Third_Party/LwIP/src/core/tcp.c **** 
1635:Middlewares/Third_Party/LwIP/src/core/tcp.c ****     /* Init KEEPALIVE timer */
1636:Middlewares/Third_Party/LwIP/src/core/tcp.c ****     pcb->keep_idle  = TCP_KEEPIDLE_DEFAULT;
1637:Middlewares/Third_Party/LwIP/src/core/tcp.c **** 
1638:Middlewares/Third_Party/LwIP/src/core/tcp.c **** #if LWIP_TCP_KEEPALIVE
1639:Middlewares/Third_Party/LwIP/src/core/tcp.c ****     pcb->keep_intvl = TCP_KEEPINTVL_DEFAULT;
1640:Middlewares/Third_Party/LwIP/src/core/tcp.c ****     pcb->keep_cnt   = TCP_KEEPCNT_DEFAULT;
1641:Middlewares/Third_Party/LwIP/src/core/tcp.c **** #endif /* LWIP_TCP_KEEPALIVE */
1642:Middlewares/Third_Party/LwIP/src/core/tcp.c ****   }
1643:Middlewares/Third_Party/LwIP/src/core/tcp.c ****   return pcb;
1644:Middlewares/Third_Party/LwIP/src/core/tcp.c **** }
1645:Middlewares/Third_Party/LwIP/src/core/tcp.c **** 
1646:Middlewares/Third_Party/LwIP/src/core/tcp.c **** /**
1647:Middlewares/Third_Party/LwIP/src/core/tcp.c ****  * @ingroup tcp_raw
1648:Middlewares/Third_Party/LwIP/src/core/tcp.c ****  * Creates a new TCP protocol control block but doesn't place it on
1649:Middlewares/Third_Party/LwIP/src/core/tcp.c ****  * any of the TCP PCB lists.
1650:Middlewares/Third_Party/LwIP/src/core/tcp.c ****  * The pcb is not put on any list until binding using tcp_bind().
1651:Middlewares/Third_Party/LwIP/src/core/tcp.c ****  *
1652:Middlewares/Third_Party/LwIP/src/core/tcp.c ****  * @internal: Maybe there should be a idle TCP PCB list where these
1653:Middlewares/Third_Party/LwIP/src/core/tcp.c ****  * PCBs are put on. Port reservation using tcp_bind() is implemented but
1654:Middlewares/Third_Party/LwIP/src/core/tcp.c ****  * allocated pcbs that are not bound can't be killed automatically if wanting
1655:Middlewares/Third_Party/LwIP/src/core/tcp.c ****  * to allocate a pcb with higher prio (@see tcp_kill_prio())
1656:Middlewares/Third_Party/LwIP/src/core/tcp.c ****  *
1657:Middlewares/Third_Party/LwIP/src/core/tcp.c ****  * @return a new tcp_pcb that initially is in state CLOSED
1658:Middlewares/Third_Party/LwIP/src/core/tcp.c ****  */
1659:Middlewares/Third_Party/LwIP/src/core/tcp.c **** struct tcp_pcb *
1660:Middlewares/Third_Party/LwIP/src/core/tcp.c **** tcp_new(void)
1661:Middlewares/Third_Party/LwIP/src/core/tcp.c **** {
1662:Middlewares/Third_Party/LwIP/src/core/tcp.c ****   return tcp_alloc(TCP_PRIO_NORMAL);
1663:Middlewares/Third_Party/LwIP/src/core/tcp.c **** }
1664:Middlewares/Third_Party/LwIP/src/core/tcp.c **** 
1665:Middlewares/Third_Party/LwIP/src/core/tcp.c **** /**
1666:Middlewares/Third_Party/LwIP/src/core/tcp.c ****  * @ingroup tcp_raw
1667:Middlewares/Third_Party/LwIP/src/core/tcp.c ****  * Creates a new TCP protocol control block but doesn't
1668:Middlewares/Third_Party/LwIP/src/core/tcp.c ****  * place it on any of the TCP PCB lists.
1669:Middlewares/Third_Party/LwIP/src/core/tcp.c ****  * The pcb is not put on any list until binding using tcp_bind().
1670:Middlewares/Third_Party/LwIP/src/core/tcp.c ****  *
1671:Middlewares/Third_Party/LwIP/src/core/tcp.c ****  * @param type IP address type, see @ref lwip_ip_addr_type definitions.
1672:Middlewares/Third_Party/LwIP/src/core/tcp.c ****  * If you want to listen to IPv4 and IPv6 (dual-stack) connections,
1673:Middlewares/Third_Party/LwIP/src/core/tcp.c ****  * supply @ref IPADDR_TYPE_ANY as argument and bind to @ref IP_ANY_TYPE.
1674:Middlewares/Third_Party/LwIP/src/core/tcp.c ****  * @return a new tcp_pcb that initially is in state CLOSED
1675:Middlewares/Third_Party/LwIP/src/core/tcp.c ****  */
1676:Middlewares/Third_Party/LwIP/src/core/tcp.c **** struct tcp_pcb *
1677:Middlewares/Third_Party/LwIP/src/core/tcp.c **** tcp_new_ip_type(u8_t type)
1678:Middlewares/Third_Party/LwIP/src/core/tcp.c **** {
1679:Middlewares/Third_Party/LwIP/src/core/tcp.c ****   struct tcp_pcb * pcb;
1680:Middlewares/Third_Party/LwIP/src/core/tcp.c ****   pcb = tcp_alloc(TCP_PRIO_NORMAL);
1681:Middlewares/Third_Party/LwIP/src/core/tcp.c **** #if LWIP_IPV4 && LWIP_IPV6
ARM GAS  C:\Users\Patryk\AppData\Local\Temp\cc1Vd65O.s 			page 54


1682:Middlewares/Third_Party/LwIP/src/core/tcp.c ****   if (pcb != NULL) {
1683:Middlewares/Third_Party/LwIP/src/core/tcp.c ****     IP_SET_TYPE_VAL(pcb->local_ip, type);
1684:Middlewares/Third_Party/LwIP/src/core/tcp.c ****     IP_SET_TYPE_VAL(pcb->remote_ip, type);
1685:Middlewares/Third_Party/LwIP/src/core/tcp.c ****   }
1686:Middlewares/Third_Party/LwIP/src/core/tcp.c **** #else
1687:Middlewares/Third_Party/LwIP/src/core/tcp.c ****   LWIP_UNUSED_ARG(type);
1688:Middlewares/Third_Party/LwIP/src/core/tcp.c **** #endif /* LWIP_IPV4 && LWIP_IPV6 */
1689:Middlewares/Third_Party/LwIP/src/core/tcp.c ****   return pcb;
1690:Middlewares/Third_Party/LwIP/src/core/tcp.c **** }
1691:Middlewares/Third_Party/LwIP/src/core/tcp.c **** 
1692:Middlewares/Third_Party/LwIP/src/core/tcp.c **** /**
1693:Middlewares/Third_Party/LwIP/src/core/tcp.c ****  * @ingroup tcp_raw
1694:Middlewares/Third_Party/LwIP/src/core/tcp.c ****  * Used to specify the argument that should be passed callback
1695:Middlewares/Third_Party/LwIP/src/core/tcp.c ****  * functions.
1696:Middlewares/Third_Party/LwIP/src/core/tcp.c ****  *
1697:Middlewares/Third_Party/LwIP/src/core/tcp.c ****  * @param pcb tcp_pcb to set the callback argument
1698:Middlewares/Third_Party/LwIP/src/core/tcp.c ****  * @param arg void pointer argument to pass to callback functions
1699:Middlewares/Third_Party/LwIP/src/core/tcp.c ****  */
1700:Middlewares/Third_Party/LwIP/src/core/tcp.c **** void
1701:Middlewares/Third_Party/LwIP/src/core/tcp.c **** tcp_arg(struct tcp_pcb *pcb, void *arg)
1702:Middlewares/Third_Party/LwIP/src/core/tcp.c **** {
 1223              		.loc 1 1702 0
 1224              		.cfi_startproc
 1225              		@ args = 0, pretend = 0, frame = 0
 1226              		@ frame_needed = 0, uses_anonymous_args = 0
 1227              		@ link register save eliminated.
 1228              	.LVL133:
1703:Middlewares/Third_Party/LwIP/src/core/tcp.c ****   /* This function is allowed to be called for both listen pcbs and
1704:Middlewares/Third_Party/LwIP/src/core/tcp.c ****      connection pcbs. */
1705:Middlewares/Third_Party/LwIP/src/core/tcp.c ****   if (pcb != NULL) {
 1229              		.loc 1 1705 0
 1230 0000 00B1     		cbz	r0, .L146
1706:Middlewares/Third_Party/LwIP/src/core/tcp.c ****     pcb->callback_arg = arg;
 1231              		.loc 1 1706 0
 1232 0002 0161     		str	r1, [r0, #16]
 1233              	.L146:
1707:Middlewares/Third_Party/LwIP/src/core/tcp.c ****   }
1708:Middlewares/Third_Party/LwIP/src/core/tcp.c **** }
 1234              		.loc 1 1708 0
 1235 0004 7047     		bx	lr
 1236              		.cfi_endproc
 1237              	.LFE187:
 1239              		.section	.text.tcp_recv,"ax",%progbits
 1240              		.align	1
 1241              		.global	tcp_recv
 1242              		.syntax unified
 1243              		.thumb
 1244              		.thumb_func
 1245              		.fpu fpv5-sp-d16
 1247              	tcp_recv:
 1248              	.LFB188:
1709:Middlewares/Third_Party/LwIP/src/core/tcp.c **** #if LWIP_CALLBACK_API
1710:Middlewares/Third_Party/LwIP/src/core/tcp.c **** 
1711:Middlewares/Third_Party/LwIP/src/core/tcp.c **** /**
1712:Middlewares/Third_Party/LwIP/src/core/tcp.c ****  * @ingroup tcp_raw
1713:Middlewares/Third_Party/LwIP/src/core/tcp.c ****  * Used to specify the function that should be called when a TCP
1714:Middlewares/Third_Party/LwIP/src/core/tcp.c ****  * connection receives data.
ARM GAS  C:\Users\Patryk\AppData\Local\Temp\cc1Vd65O.s 			page 55


1715:Middlewares/Third_Party/LwIP/src/core/tcp.c ****  *
1716:Middlewares/Third_Party/LwIP/src/core/tcp.c ****  * @param pcb tcp_pcb to set the recv callback
1717:Middlewares/Third_Party/LwIP/src/core/tcp.c ****  * @param recv callback function to call for this pcb when data is received
1718:Middlewares/Third_Party/LwIP/src/core/tcp.c ****  */
1719:Middlewares/Third_Party/LwIP/src/core/tcp.c **** void
1720:Middlewares/Third_Party/LwIP/src/core/tcp.c **** tcp_recv(struct tcp_pcb *pcb, tcp_recv_fn recv)
1721:Middlewares/Third_Party/LwIP/src/core/tcp.c **** {
 1249              		.loc 1 1721 0
 1250              		.cfi_startproc
 1251              		@ args = 0, pretend = 0, frame = 0
 1252              		@ frame_needed = 0, uses_anonymous_args = 0
 1253              	.LVL134:
1722:Middlewares/Third_Party/LwIP/src/core/tcp.c ****   if (pcb != NULL) {
 1254              		.loc 1 1722 0
 1255 0000 80B1     		cbz	r0, .L152
1721:Middlewares/Third_Party/LwIP/src/core/tcp.c ****   if (pcb != NULL) {
 1256              		.loc 1 1721 0
 1257 0002 38B5     		push	{r3, r4, r5, lr}
 1258              	.LCFI16:
 1259              		.cfi_def_cfa_offset 16
 1260              		.cfi_offset 3, -16
 1261              		.cfi_offset 4, -12
 1262              		.cfi_offset 5, -8
 1263              		.cfi_offset 14, -4
 1264 0004 0446     		mov	r4, r0
 1265 0006 0D46     		mov	r5, r1
1723:Middlewares/Third_Party/LwIP/src/core/tcp.c ****     LWIP_ASSERT("invalid socket state for recv callback", pcb->state != LISTEN);
 1266              		.loc 1 1723 0
 1267 0008 037D     		ldrb	r3, [r0, #20]	@ zero_extendqisi2
 1268 000a 012B     		cmp	r3, #1
 1269 000c 02D0     		beq	.L155
 1270              	.LVL135:
 1271              	.L150:
1724:Middlewares/Third_Party/LwIP/src/core/tcp.c ****     pcb->recv = recv;
 1272              		.loc 1 1724 0
 1273 000e C4F88050 		str	r5, [r4, #128]
1725:Middlewares/Third_Party/LwIP/src/core/tcp.c ****   }
1726:Middlewares/Third_Party/LwIP/src/core/tcp.c **** }
 1274              		.loc 1 1726 0
 1275 0012 38BD     		pop	{r3, r4, r5, pc}
 1276              	.LVL136:
 1277              	.L155:
1723:Middlewares/Third_Party/LwIP/src/core/tcp.c ****     pcb->recv = recv;
 1278              		.loc 1 1723 0 discriminator 1
 1279 0014 044B     		ldr	r3, .L156
 1280 0016 40F2BB62 		movw	r2, #1723
 1281 001a 0449     		ldr	r1, .L156+4
 1282              	.LVL137:
 1283 001c 0448     		ldr	r0, .L156+8
 1284              	.LVL138:
 1285 001e FFF7FEFF 		bl	printf
 1286              	.LVL139:
 1287 0022 F4E7     		b	.L150
 1288              	.LVL140:
 1289              	.L152:
 1290              	.LCFI17:
 1291              		.cfi_def_cfa_offset 0
ARM GAS  C:\Users\Patryk\AppData\Local\Temp\cc1Vd65O.s 			page 56


 1292              		.cfi_restore 3
 1293              		.cfi_restore 4
 1294              		.cfi_restore 5
 1295              		.cfi_restore 14
 1296 0024 7047     		bx	lr
 1297              	.L157:
 1298 0026 00BF     		.align	2
 1299              	.L156:
 1300 0028 00000000 		.word	.LC0
 1301 002c 00000000 		.word	.LC9
 1302 0030 38000000 		.word	.LC2
 1303              		.cfi_endproc
 1304              	.LFE188:
 1306              		.section	.text.tcp_sent,"ax",%progbits
 1307              		.align	1
 1308              		.global	tcp_sent
 1309              		.syntax unified
 1310              		.thumb
 1311              		.thumb_func
 1312              		.fpu fpv5-sp-d16
 1314              	tcp_sent:
 1315              	.LFB189:
1727:Middlewares/Third_Party/LwIP/src/core/tcp.c **** 
1728:Middlewares/Third_Party/LwIP/src/core/tcp.c **** /**
1729:Middlewares/Third_Party/LwIP/src/core/tcp.c ****  * @ingroup tcp_raw
1730:Middlewares/Third_Party/LwIP/src/core/tcp.c ****  * Used to specify the function that should be called when TCP data
1731:Middlewares/Third_Party/LwIP/src/core/tcp.c ****  * has been successfully delivered to the remote host.
1732:Middlewares/Third_Party/LwIP/src/core/tcp.c ****  *
1733:Middlewares/Third_Party/LwIP/src/core/tcp.c ****  * @param pcb tcp_pcb to set the sent callback
1734:Middlewares/Third_Party/LwIP/src/core/tcp.c ****  * @param sent callback function to call for this pcb when data is successfully sent
1735:Middlewares/Third_Party/LwIP/src/core/tcp.c ****  */
1736:Middlewares/Third_Party/LwIP/src/core/tcp.c **** void
1737:Middlewares/Third_Party/LwIP/src/core/tcp.c **** tcp_sent(struct tcp_pcb *pcb, tcp_sent_fn sent)
1738:Middlewares/Third_Party/LwIP/src/core/tcp.c **** {
 1316              		.loc 1 1738 0
 1317              		.cfi_startproc
 1318              		@ args = 0, pretend = 0, frame = 0
 1319              		@ frame_needed = 0, uses_anonymous_args = 0
 1320              	.LVL141:
1739:Middlewares/Third_Party/LwIP/src/core/tcp.c ****   if (pcb != NULL) {
 1321              		.loc 1 1739 0
 1322 0000 78B1     		cbz	r0, .L162
1738:Middlewares/Third_Party/LwIP/src/core/tcp.c ****   if (pcb != NULL) {
 1323              		.loc 1 1738 0
 1324 0002 38B5     		push	{r3, r4, r5, lr}
 1325              	.LCFI18:
 1326              		.cfi_def_cfa_offset 16
 1327              		.cfi_offset 3, -16
 1328              		.cfi_offset 4, -12
 1329              		.cfi_offset 5, -8
 1330              		.cfi_offset 14, -4
 1331 0004 0446     		mov	r4, r0
 1332 0006 0D46     		mov	r5, r1
1740:Middlewares/Third_Party/LwIP/src/core/tcp.c ****     LWIP_ASSERT("invalid socket state for sent callback", pcb->state != LISTEN);
 1333              		.loc 1 1740 0
 1334 0008 037D     		ldrb	r3, [r0, #20]	@ zero_extendqisi2
 1335 000a 012B     		cmp	r3, #1
ARM GAS  C:\Users\Patryk\AppData\Local\Temp\cc1Vd65O.s 			page 57


 1336 000c 01D0     		beq	.L165
 1337              	.LVL142:
 1338              	.L160:
1741:Middlewares/Third_Party/LwIP/src/core/tcp.c ****     pcb->sent = sent;
 1339              		.loc 1 1741 0
 1340 000e E567     		str	r5, [r4, #124]
1742:Middlewares/Third_Party/LwIP/src/core/tcp.c ****   }
1743:Middlewares/Third_Party/LwIP/src/core/tcp.c **** }
 1341              		.loc 1 1743 0
 1342 0010 38BD     		pop	{r3, r4, r5, pc}
 1343              	.LVL143:
 1344              	.L165:
1740:Middlewares/Third_Party/LwIP/src/core/tcp.c ****     pcb->sent = sent;
 1345              		.loc 1 1740 0 discriminator 1
 1346 0012 044B     		ldr	r3, .L166
 1347 0014 40F2CC62 		movw	r2, #1740
 1348 0018 0349     		ldr	r1, .L166+4
 1349              	.LVL144:
 1350 001a 0448     		ldr	r0, .L166+8
 1351              	.LVL145:
 1352 001c FFF7FEFF 		bl	printf
 1353              	.LVL146:
 1354 0020 F5E7     		b	.L160
 1355              	.LVL147:
 1356              	.L162:
 1357              	.LCFI19:
 1358              		.cfi_def_cfa_offset 0
 1359              		.cfi_restore 3
 1360              		.cfi_restore 4
 1361              		.cfi_restore 5
 1362              		.cfi_restore 14
 1363 0022 7047     		bx	lr
 1364              	.L167:
 1365              		.align	2
 1366              	.L166:
 1367 0024 00000000 		.word	.LC0
 1368 0028 00000000 		.word	.LC10
 1369 002c 38000000 		.word	.LC2
 1370              		.cfi_endproc
 1371              	.LFE189:
 1373              		.section	.text.tcp_err,"ax",%progbits
 1374              		.align	1
 1375              		.global	tcp_err
 1376              		.syntax unified
 1377              		.thumb
 1378              		.thumb_func
 1379              		.fpu fpv5-sp-d16
 1381              	tcp_err:
 1382              	.LFB190:
1744:Middlewares/Third_Party/LwIP/src/core/tcp.c **** 
1745:Middlewares/Third_Party/LwIP/src/core/tcp.c **** /**
1746:Middlewares/Third_Party/LwIP/src/core/tcp.c ****  * @ingroup tcp_raw
1747:Middlewares/Third_Party/LwIP/src/core/tcp.c ****  * Used to specify the function that should be called when a fatal error
1748:Middlewares/Third_Party/LwIP/src/core/tcp.c ****  * has occurred on the connection.
1749:Middlewares/Third_Party/LwIP/src/core/tcp.c ****  *
1750:Middlewares/Third_Party/LwIP/src/core/tcp.c ****  * @note The corresponding pcb is already freed when this callback is called!
1751:Middlewares/Third_Party/LwIP/src/core/tcp.c ****  * 
ARM GAS  C:\Users\Patryk\AppData\Local\Temp\cc1Vd65O.s 			page 58


1752:Middlewares/Third_Party/LwIP/src/core/tcp.c ****  * @param pcb tcp_pcb to set the err callback
1753:Middlewares/Third_Party/LwIP/src/core/tcp.c ****  * @param err callback function to call for this pcb when a fatal error
1754:Middlewares/Third_Party/LwIP/src/core/tcp.c ****  *        has occurred on the connection
1755:Middlewares/Third_Party/LwIP/src/core/tcp.c ****  */
1756:Middlewares/Third_Party/LwIP/src/core/tcp.c **** void
1757:Middlewares/Third_Party/LwIP/src/core/tcp.c **** tcp_err(struct tcp_pcb *pcb, tcp_err_fn err)
1758:Middlewares/Third_Party/LwIP/src/core/tcp.c **** {
 1383              		.loc 1 1758 0
 1384              		.cfi_startproc
 1385              		@ args = 0, pretend = 0, frame = 0
 1386              		@ frame_needed = 0, uses_anonymous_args = 0
 1387              	.LVL148:
1759:Middlewares/Third_Party/LwIP/src/core/tcp.c ****   if (pcb != NULL) {
 1388              		.loc 1 1759 0
 1389 0000 80B1     		cbz	r0, .L172
1758:Middlewares/Third_Party/LwIP/src/core/tcp.c ****   if (pcb != NULL) {
 1390              		.loc 1 1758 0
 1391 0002 38B5     		push	{r3, r4, r5, lr}
 1392              	.LCFI20:
 1393              		.cfi_def_cfa_offset 16
 1394              		.cfi_offset 3, -16
 1395              		.cfi_offset 4, -12
 1396              		.cfi_offset 5, -8
 1397              		.cfi_offset 14, -4
 1398 0004 0446     		mov	r4, r0
 1399 0006 0D46     		mov	r5, r1
1760:Middlewares/Third_Party/LwIP/src/core/tcp.c ****     LWIP_ASSERT("invalid socket state for err callback", pcb->state != LISTEN);
 1400              		.loc 1 1760 0
 1401 0008 037D     		ldrb	r3, [r0, #20]	@ zero_extendqisi2
 1402 000a 012B     		cmp	r3, #1
 1403 000c 02D0     		beq	.L175
 1404              	.LVL149:
 1405              	.L170:
1761:Middlewares/Third_Party/LwIP/src/core/tcp.c ****     pcb->errf = err;
 1406              		.loc 1 1761 0
 1407 000e C4F88C50 		str	r5, [r4, #140]
1762:Middlewares/Third_Party/LwIP/src/core/tcp.c ****   }
1763:Middlewares/Third_Party/LwIP/src/core/tcp.c **** }
 1408              		.loc 1 1763 0
 1409 0012 38BD     		pop	{r3, r4, r5, pc}
 1410              	.LVL150:
 1411              	.L175:
1760:Middlewares/Third_Party/LwIP/src/core/tcp.c ****     pcb->errf = err;
 1412              		.loc 1 1760 0 discriminator 1
 1413 0014 044B     		ldr	r3, .L176
 1414 0016 4FF4DC62 		mov	r2, #1760
 1415 001a 0449     		ldr	r1, .L176+4
 1416              	.LVL151:
 1417 001c 0448     		ldr	r0, .L176+8
 1418              	.LVL152:
 1419 001e FFF7FEFF 		bl	printf
 1420              	.LVL153:
 1421 0022 F4E7     		b	.L170
 1422              	.LVL154:
 1423              	.L172:
 1424              	.LCFI21:
 1425              		.cfi_def_cfa_offset 0
ARM GAS  C:\Users\Patryk\AppData\Local\Temp\cc1Vd65O.s 			page 59


 1426              		.cfi_restore 3
 1427              		.cfi_restore 4
 1428              		.cfi_restore 5
 1429              		.cfi_restore 14
 1430 0024 7047     		bx	lr
 1431              	.L177:
 1432 0026 00BF     		.align	2
 1433              	.L176:
 1434 0028 00000000 		.word	.LC0
 1435 002c 00000000 		.word	.LC11
 1436 0030 38000000 		.word	.LC2
 1437              		.cfi_endproc
 1438              	.LFE190:
 1440              		.section	.text.tcp_accept,"ax",%progbits
 1441              		.align	1
 1442              		.global	tcp_accept
 1443              		.syntax unified
 1444              		.thumb
 1445              		.thumb_func
 1446              		.fpu fpv5-sp-d16
 1448              	tcp_accept:
 1449              	.LFB191:
1764:Middlewares/Third_Party/LwIP/src/core/tcp.c **** 
1765:Middlewares/Third_Party/LwIP/src/core/tcp.c **** /**
1766:Middlewares/Third_Party/LwIP/src/core/tcp.c ****  * @ingroup tcp_raw
1767:Middlewares/Third_Party/LwIP/src/core/tcp.c ****  * Used for specifying the function that should be called when a
1768:Middlewares/Third_Party/LwIP/src/core/tcp.c ****  * LISTENing connection has been connected to another host.
1769:Middlewares/Third_Party/LwIP/src/core/tcp.c ****  *
1770:Middlewares/Third_Party/LwIP/src/core/tcp.c ****  * @param pcb tcp_pcb to set the accept callback
1771:Middlewares/Third_Party/LwIP/src/core/tcp.c ****  * @param accept callback function to call for this pcb when LISTENing
1772:Middlewares/Third_Party/LwIP/src/core/tcp.c ****  *        connection has been connected to another host
1773:Middlewares/Third_Party/LwIP/src/core/tcp.c ****  */
1774:Middlewares/Third_Party/LwIP/src/core/tcp.c **** void
1775:Middlewares/Third_Party/LwIP/src/core/tcp.c **** tcp_accept(struct tcp_pcb *pcb, tcp_accept_fn accept)
1776:Middlewares/Third_Party/LwIP/src/core/tcp.c **** {
 1450              		.loc 1 1776 0
 1451              		.cfi_startproc
 1452              		@ args = 0, pretend = 0, frame = 0
 1453              		@ frame_needed = 0, uses_anonymous_args = 0
 1454              		@ link register save eliminated.
 1455              	.LVL155:
1777:Middlewares/Third_Party/LwIP/src/core/tcp.c ****   if ((pcb != NULL) && (pcb->state == LISTEN)) {
 1456              		.loc 1 1777 0
 1457 0000 10B1     		cbz	r0, .L178
 1458              		.loc 1 1777 0 is_stmt 0 discriminator 1
 1459 0002 027D     		ldrb	r2, [r0, #20]	@ zero_extendqisi2
 1460 0004 012A     		cmp	r2, #1
 1461 0006 00D0     		beq	.L180
 1462              	.L178:
1778:Middlewares/Third_Party/LwIP/src/core/tcp.c ****     struct tcp_pcb_listen *lpcb = (struct tcp_pcb_listen*)pcb;
1779:Middlewares/Third_Party/LwIP/src/core/tcp.c ****     lpcb->accept = accept;
1780:Middlewares/Third_Party/LwIP/src/core/tcp.c ****   }
1781:Middlewares/Third_Party/LwIP/src/core/tcp.c **** }
 1463              		.loc 1 1781 0 is_stmt 1
 1464 0008 7047     		bx	lr
 1465              	.L180:
 1466              	.LVL156:
ARM GAS  C:\Users\Patryk\AppData\Local\Temp\cc1Vd65O.s 			page 60


 1467              	.LBB7:
1779:Middlewares/Third_Party/LwIP/src/core/tcp.c ****   }
 1468              		.loc 1 1779 0
 1469 000a 8161     		str	r1, [r0, #24]
 1470              	.LBE7:
 1471              		.loc 1 1781 0
 1472 000c FCE7     		b	.L178
 1473              		.cfi_endproc
 1474              	.LFE191:
 1476              		.section	.text.tcp_poll,"ax",%progbits
 1477              		.align	1
 1478              		.global	tcp_poll
 1479              		.syntax unified
 1480              		.thumb
 1481              		.thumb_func
 1482              		.fpu fpv5-sp-d16
 1484              	tcp_poll:
 1485              	.LFB192:
1782:Middlewares/Third_Party/LwIP/src/core/tcp.c **** #endif /* LWIP_CALLBACK_API */
1783:Middlewares/Third_Party/LwIP/src/core/tcp.c **** 
1784:Middlewares/Third_Party/LwIP/src/core/tcp.c **** 
1785:Middlewares/Third_Party/LwIP/src/core/tcp.c **** /**
1786:Middlewares/Third_Party/LwIP/src/core/tcp.c ****  * @ingroup tcp_raw
1787:Middlewares/Third_Party/LwIP/src/core/tcp.c ****  * Used to specify the function that should be called periodically
1788:Middlewares/Third_Party/LwIP/src/core/tcp.c ****  * from TCP. The interval is specified in terms of the TCP coarse
1789:Middlewares/Third_Party/LwIP/src/core/tcp.c ****  * timer interval, which is called twice a second.
1790:Middlewares/Third_Party/LwIP/src/core/tcp.c ****  *
1791:Middlewares/Third_Party/LwIP/src/core/tcp.c ****  */
1792:Middlewares/Third_Party/LwIP/src/core/tcp.c **** void
1793:Middlewares/Third_Party/LwIP/src/core/tcp.c **** tcp_poll(struct tcp_pcb *pcb, tcp_poll_fn poll, u8_t interval)
1794:Middlewares/Third_Party/LwIP/src/core/tcp.c **** {
 1486              		.loc 1 1794 0
 1487              		.cfi_startproc
 1488              		@ args = 0, pretend = 0, frame = 0
 1489              		@ frame_needed = 0, uses_anonymous_args = 0
 1490              	.LVL157:
 1491 0000 70B5     		push	{r4, r5, r6, lr}
 1492              	.LCFI22:
 1493              		.cfi_def_cfa_offset 16
 1494              		.cfi_offset 4, -16
 1495              		.cfi_offset 5, -12
 1496              		.cfi_offset 6, -8
 1497              		.cfi_offset 14, -4
 1498 0002 0446     		mov	r4, r0
 1499 0004 0E46     		mov	r6, r1
 1500 0006 1546     		mov	r5, r2
1795:Middlewares/Third_Party/LwIP/src/core/tcp.c ****   LWIP_ASSERT("invalid socket state for poll", pcb->state != LISTEN);
 1501              		.loc 1 1795 0
 1502 0008 037D     		ldrb	r3, [r0, #20]	@ zero_extendqisi2
 1503 000a 012B     		cmp	r3, #1
 1504 000c 03D0     		beq	.L184
 1505              	.LVL158:
 1506              	.L182:
1796:Middlewares/Third_Party/LwIP/src/core/tcp.c **** #if LWIP_CALLBACK_API
1797:Middlewares/Third_Party/LwIP/src/core/tcp.c ****   pcb->poll = poll;
 1507              		.loc 1 1797 0
 1508 000e C4F88860 		str	r6, [r4, #136]
ARM GAS  C:\Users\Patryk\AppData\Local\Temp\cc1Vd65O.s 			page 61


1798:Middlewares/Third_Party/LwIP/src/core/tcp.c **** #else /* LWIP_CALLBACK_API */
1799:Middlewares/Third_Party/LwIP/src/core/tcp.c ****   LWIP_UNUSED_ARG(poll);
1800:Middlewares/Third_Party/LwIP/src/core/tcp.c **** #endif /* LWIP_CALLBACK_API */
1801:Middlewares/Third_Party/LwIP/src/core/tcp.c ****   pcb->pollinterval = interval;
 1509              		.loc 1 1801 0
 1510 0012 2577     		strb	r5, [r4, #28]
1802:Middlewares/Third_Party/LwIP/src/core/tcp.c **** }
 1511              		.loc 1 1802 0
 1512 0014 70BD     		pop	{r4, r5, r6, pc}
 1513              	.LVL159:
 1514              	.L184:
1795:Middlewares/Third_Party/LwIP/src/core/tcp.c **** #if LWIP_CALLBACK_API
 1515              		.loc 1 1795 0 discriminator 1
 1516 0016 044B     		ldr	r3, .L185
 1517 0018 40F20372 		movw	r2, #1795
 1518              	.LVL160:
 1519 001c 0349     		ldr	r1, .L185+4
 1520              	.LVL161:
 1521 001e 0448     		ldr	r0, .L185+8
 1522              	.LVL162:
 1523 0020 FFF7FEFF 		bl	printf
 1524              	.LVL163:
 1525 0024 F3E7     		b	.L182
 1526              	.L186:
 1527 0026 00BF     		.align	2
 1528              	.L185:
 1529 0028 00000000 		.word	.LC0
 1530 002c 00000000 		.word	.LC12
 1531 0030 38000000 		.word	.LC2
 1532              		.cfi_endproc
 1533              	.LFE192:
 1535              		.section	.text.tcp_pcb_purge,"ax",%progbits
 1536              		.align	1
 1537              		.global	tcp_pcb_purge
 1538              		.syntax unified
 1539              		.thumb
 1540              		.thumb_func
 1541              		.fpu fpv5-sp-d16
 1543              	tcp_pcb_purge:
 1544              	.LFB193:
1803:Middlewares/Third_Party/LwIP/src/core/tcp.c **** 
1804:Middlewares/Third_Party/LwIP/src/core/tcp.c **** /**
1805:Middlewares/Third_Party/LwIP/src/core/tcp.c ****  * Purges a TCP PCB. Removes any buffered data and frees the buffer memory
1806:Middlewares/Third_Party/LwIP/src/core/tcp.c ****  * (pcb->ooseq, pcb->unsent and pcb->unacked are freed).
1807:Middlewares/Third_Party/LwIP/src/core/tcp.c ****  *
1808:Middlewares/Third_Party/LwIP/src/core/tcp.c ****  * @param pcb tcp_pcb to purge. The pcb itself is not deallocated!
1809:Middlewares/Third_Party/LwIP/src/core/tcp.c ****  */
1810:Middlewares/Third_Party/LwIP/src/core/tcp.c **** void
1811:Middlewares/Third_Party/LwIP/src/core/tcp.c **** tcp_pcb_purge(struct tcp_pcb *pcb)
1812:Middlewares/Third_Party/LwIP/src/core/tcp.c **** {
 1545              		.loc 1 1812 0
 1546              		.cfi_startproc
 1547              		@ args = 0, pretend = 0, frame = 0
 1548              		@ frame_needed = 0, uses_anonymous_args = 0
 1549              	.LVL164:
 1550 0000 38B5     		push	{r3, r4, r5, lr}
 1551              	.LCFI23:
ARM GAS  C:\Users\Patryk\AppData\Local\Temp\cc1Vd65O.s 			page 62


 1552              		.cfi_def_cfa_offset 16
 1553              		.cfi_offset 3, -16
 1554              		.cfi_offset 4, -12
 1555              		.cfi_offset 5, -8
 1556              		.cfi_offset 14, -4
1813:Middlewares/Third_Party/LwIP/src/core/tcp.c ****   if (pcb->state != CLOSED &&
 1557              		.loc 1 1813 0
 1558 0002 027D     		ldrb	r2, [r0, #20]	@ zero_extendqisi2
 1559 0004 B2F10A03 		subs	r3, r2, #10
 1560 0008 18BF     		it	ne
 1561 000a 0123     		movne	r3, #1
 1562 000c 002A     		cmp	r2, #0
 1563 000e 08BF     		it	eq
 1564 0010 0023     		moveq	r3, #0
 1565 0012 D3B1     		cbz	r3, .L187
1814:Middlewares/Third_Party/LwIP/src/core/tcp.c ****      pcb->state != TIME_WAIT &&
 1566              		.loc 1 1814 0
 1567 0014 012A     		cmp	r2, #1
 1568 0016 18D0     		beq	.L187
 1569 0018 0446     		mov	r4, r0
1815:Middlewares/Third_Party/LwIP/src/core/tcp.c ****      pcb->state != LISTEN) {
1816:Middlewares/Third_Party/LwIP/src/core/tcp.c **** 
1817:Middlewares/Third_Party/LwIP/src/core/tcp.c ****     LWIP_DEBUGF(TCP_DEBUG, ("tcp_pcb_purge\n"));
1818:Middlewares/Third_Party/LwIP/src/core/tcp.c **** 
1819:Middlewares/Third_Party/LwIP/src/core/tcp.c ****     tcp_backlog_accepted(pcb);
1820:Middlewares/Third_Party/LwIP/src/core/tcp.c **** 
1821:Middlewares/Third_Party/LwIP/src/core/tcp.c ****     if (pcb->refused_data != NULL) {
 1570              		.loc 1 1821 0
 1571 001a 406F     		ldr	r0, [r0, #116]
 1572              	.LVL165:
 1573 001c 18B1     		cbz	r0, .L189
1822:Middlewares/Third_Party/LwIP/src/core/tcp.c ****       LWIP_DEBUGF(TCP_DEBUG, ("tcp_pcb_purge: data left on ->refused_data\n"));
1823:Middlewares/Third_Party/LwIP/src/core/tcp.c ****       pbuf_free(pcb->refused_data);
 1574              		.loc 1 1823 0
 1575 001e FFF7FEFF 		bl	pbuf_free
 1576              	.LVL166:
1824:Middlewares/Third_Party/LwIP/src/core/tcp.c ****       pcb->refused_data = NULL;
 1577              		.loc 1 1824 0
 1578 0022 0023     		movs	r3, #0
 1579 0024 6367     		str	r3, [r4, #116]
 1580              	.L189:
1825:Middlewares/Third_Party/LwIP/src/core/tcp.c ****     }
1826:Middlewares/Third_Party/LwIP/src/core/tcp.c ****     if (pcb->unsent != NULL) {
1827:Middlewares/Third_Party/LwIP/src/core/tcp.c ****       LWIP_DEBUGF(TCP_DEBUG, ("tcp_pcb_purge: not all data sent\n"));
1828:Middlewares/Third_Party/LwIP/src/core/tcp.c ****     }
1829:Middlewares/Third_Party/LwIP/src/core/tcp.c ****     if (pcb->unacked != NULL) {
1830:Middlewares/Third_Party/LwIP/src/core/tcp.c ****       LWIP_DEBUGF(TCP_DEBUG, ("tcp_pcb_purge: data left on ->unacked\n"));
1831:Middlewares/Third_Party/LwIP/src/core/tcp.c ****     }
1832:Middlewares/Third_Party/LwIP/src/core/tcp.c **** #if TCP_QUEUE_OOSEQ
1833:Middlewares/Third_Party/LwIP/src/core/tcp.c ****     if (pcb->ooseq != NULL) {
1834:Middlewares/Third_Party/LwIP/src/core/tcp.c ****       LWIP_DEBUGF(TCP_DEBUG, ("tcp_pcb_purge: data left on ->ooseq\n"));
1835:Middlewares/Third_Party/LwIP/src/core/tcp.c ****     }
1836:Middlewares/Third_Party/LwIP/src/core/tcp.c ****     tcp_segs_free(pcb->ooseq);
 1581              		.loc 1 1836 0
 1582 0026 206F     		ldr	r0, [r4, #112]
 1583 0028 FFF7FEFF 		bl	tcp_segs_free
 1584              	.LVL167:
ARM GAS  C:\Users\Patryk\AppData\Local\Temp\cc1Vd65O.s 			page 63


1837:Middlewares/Third_Party/LwIP/src/core/tcp.c ****     pcb->ooseq = NULL;
 1585              		.loc 1 1837 0
 1586 002c 0025     		movs	r5, #0
 1587 002e 2567     		str	r5, [r4, #112]
1838:Middlewares/Third_Party/LwIP/src/core/tcp.c **** #endif /* TCP_QUEUE_OOSEQ */
1839:Middlewares/Third_Party/LwIP/src/core/tcp.c **** 
1840:Middlewares/Third_Party/LwIP/src/core/tcp.c ****     /* Stop the retransmission timer as it will expect data on unacked
1841:Middlewares/Third_Party/LwIP/src/core/tcp.c ****        queue if it fires */
1842:Middlewares/Third_Party/LwIP/src/core/tcp.c ****     pcb->rtime = -1;
 1588              		.loc 1 1842 0
 1589 0030 4FF6FF73 		movw	r3, #65535
 1590 0034 2386     		strh	r3, [r4, #48]	@ movhi
1843:Middlewares/Third_Party/LwIP/src/core/tcp.c **** 
1844:Middlewares/Third_Party/LwIP/src/core/tcp.c ****     tcp_segs_free(pcb->unsent);
 1591              		.loc 1 1844 0
 1592 0036 A06E     		ldr	r0, [r4, #104]
 1593 0038 FFF7FEFF 		bl	tcp_segs_free
 1594              	.LVL168:
1845:Middlewares/Third_Party/LwIP/src/core/tcp.c ****     tcp_segs_free(pcb->unacked);
 1595              		.loc 1 1845 0
 1596 003c E06E     		ldr	r0, [r4, #108]
 1597 003e FFF7FEFF 		bl	tcp_segs_free
 1598              	.LVL169:
1846:Middlewares/Third_Party/LwIP/src/core/tcp.c ****     pcb->unacked = pcb->unsent = NULL;
 1599              		.loc 1 1846 0
 1600 0042 A566     		str	r5, [r4, #104]
 1601 0044 E566     		str	r5, [r4, #108]
1847:Middlewares/Third_Party/LwIP/src/core/tcp.c **** #if TCP_OVERSIZE
1848:Middlewares/Third_Party/LwIP/src/core/tcp.c ****     pcb->unsent_oversize = 0;
 1602              		.loc 1 1848 0
 1603 0046 A4F86450 		strh	r5, [r4, #100]	@ movhi
 1604              	.LVL170:
 1605              	.L187:
1849:Middlewares/Third_Party/LwIP/src/core/tcp.c **** #endif /* TCP_OVERSIZE */
1850:Middlewares/Third_Party/LwIP/src/core/tcp.c ****   }
1851:Middlewares/Third_Party/LwIP/src/core/tcp.c **** }
 1606              		.loc 1 1851 0
 1607 004a 38BD     		pop	{r3, r4, r5, pc}
 1608              		.cfi_endproc
 1609              	.LFE193:
 1611              		.section	.text.tcp_slowtmr,"ax",%progbits
 1612              		.align	1
 1613              		.global	tcp_slowtmr
 1614              		.syntax unified
 1615              		.thumb
 1616              		.thumb_func
 1617              		.fpu fpv5-sp-d16
 1619              	tcp_slowtmr:
 1620              	.LFB172:
 987:Middlewares/Third_Party/LwIP/src/core/tcp.c ****   struct tcp_pcb *pcb, *prev;
 1621              		.loc 1 987 0
 1622              		.cfi_startproc
 1623              		@ args = 0, pretend = 0, frame = 0
 1624              		@ frame_needed = 0, uses_anonymous_args = 0
 1625 0000 2DE9F041 		push	{r4, r5, r6, r7, r8, lr}
 1626              	.LCFI24:
 1627              		.cfi_def_cfa_offset 24
ARM GAS  C:\Users\Patryk\AppData\Local\Temp\cc1Vd65O.s 			page 64


 1628              		.cfi_offset 4, -24
 1629              		.cfi_offset 5, -20
 1630              		.cfi_offset 6, -16
 1631              		.cfi_offset 7, -12
 1632              		.cfi_offset 8, -8
 1633              		.cfi_offset 14, -4
 1634 0004 82B0     		sub	sp, sp, #8
 1635              	.LCFI25:
 1636              		.cfi_def_cfa_offset 32
 1637              	.LVL171:
 996:Middlewares/Third_Party/LwIP/src/core/tcp.c ****   ++tcp_timer_ctr;
 1638              		.loc 1 996 0
 1639 0006 AC4A     		ldr	r2, .L262
 1640 0008 1368     		ldr	r3, [r2]
 1641 000a 0133     		adds	r3, r3, #1
 1642 000c 1360     		str	r3, [r2]
 997:Middlewares/Third_Party/LwIP/src/core/tcp.c **** 
 1643              		.loc 1 997 0
 1644 000e AB4A     		ldr	r2, .L262+4
 1645 0010 1378     		ldrb	r3, [r2]	@ zero_extendqisi2
 1646 0012 0133     		adds	r3, r3, #1
 1647 0014 1370     		strb	r3, [r2]
 1648              	.L193:
 1649              	.LVL172:
 1650              	.L192:
1002:Middlewares/Third_Party/LwIP/src/core/tcp.c ****   if (pcb == NULL) {
 1651              		.loc 1 1002 0
 1652 0016 AA4B     		ldr	r3, .L262+8
 1653 0018 1C68     		ldr	r4, [r3]
 1654              	.LVL173:
1001:Middlewares/Third_Party/LwIP/src/core/tcp.c ****   pcb = tcp_active_pcbs;
 1655              		.loc 1 1001 0
 1656 001a 0026     		movs	r6, #0
1006:Middlewares/Third_Party/LwIP/src/core/tcp.c ****     LWIP_DEBUGF(TCP_DEBUG, ("tcp_slowtmr: processing active pcb\n"));
 1657              		.loc 1 1006 0
 1658 001c 6CE1     		b	.L194
 1659              	.LVL174:
 1660              	.L254:
1008:Middlewares/Third_Party/LwIP/src/core/tcp.c ****     LWIP_ASSERT("tcp_slowtmr: active pcb->state != LISTEN\n", pcb->state != LISTEN);
 1661              		.loc 1 1008 0 discriminator 1
 1662 001e A94B     		ldr	r3, .L262+12
 1663 0020 4FF47C72 		mov	r2, #1008
 1664 0024 A849     		ldr	r1, .L262+16
 1665 0026 A948     		ldr	r0, .L262+20
 1666 0028 FFF7FEFF 		bl	printf
 1667              	.LVL175:
 1668 002c 69E1     		b	.L195
 1669              	.L255:
1009:Middlewares/Third_Party/LwIP/src/core/tcp.c ****     LWIP_ASSERT("tcp_slowtmr: active pcb->state != TIME-WAIT\n", pcb->state != TIME_WAIT);
 1670              		.loc 1 1009 0 discriminator 1
 1671 002e A54B     		ldr	r3, .L262+12
 1672 0030 40F2F132 		movw	r2, #1009
 1673 0034 A649     		ldr	r1, .L262+24
 1674 0036 A548     		ldr	r0, .L262+20
 1675 0038 FFF7FEFF 		bl	printf
 1676              	.LVL176:
 1677 003c 65E1     		b	.L196
ARM GAS  C:\Users\Patryk\AppData\Local\Temp\cc1Vd65O.s 			page 65


 1678              	.L256:
1010:Middlewares/Third_Party/LwIP/src/core/tcp.c ****     if (pcb->last_timer == tcp_timer_ctr) {
 1679              		.loc 1 1010 0 discriminator 1
 1680 003e A14B     		ldr	r3, .L262+12
 1681 0040 40F2F232 		movw	r2, #1010
 1682 0044 A349     		ldr	r1, .L262+28
 1683 0046 A148     		ldr	r0, .L262+20
 1684 0048 FFF7FEFF 		bl	printf
 1685              	.LVL177:
 1686 004c 61E1     		b	.L197
 1687              	.L257:
1013:Middlewares/Third_Party/LwIP/src/core/tcp.c ****       continue;
 1688              		.loc 1 1013 0
 1689 004e E468     		ldr	r4, [r4, #12]
 1690              	.LVL178:
1014:Middlewares/Third_Party/LwIP/src/core/tcp.c ****     }
 1691              		.loc 1 1014 0
 1692 0050 52E1     		b	.L194
 1693              	.LVL179:
 1694              	.L258:
1021:Middlewares/Third_Party/LwIP/src/core/tcp.c ****       ++pcb_remove;
 1695              		.loc 1 1021 0 discriminator 1
 1696 0052 94F84220 		ldrb	r2, [r4, #66]	@ zero_extendqisi2
 1697 0056 052A     		cmp	r2, #5
 1698 0058 40F26681 		bls	.L200
1022:Middlewares/Third_Party/LwIP/src/core/tcp.c ****       LWIP_DEBUGF(TCP_DEBUG, ("tcp_slowtmr: max SYN retries reached\n"));
 1699              		.loc 1 1022 0
 1700 005c 0125     		movs	r5, #1
 1701 005e 48E0     		b	.L201
 1702              	.LVL180:
 1703              	.L259:
 1704              	.LBB8:
1037:Middlewares/Third_Party/LwIP/src/core/tcp.c ****             pcb->persist_cnt = 0;
 1705              		.loc 1 1037 0
 1706 0060 2046     		mov	r0, r4
 1707 0062 FFF7FEFF 		bl	tcp_zero_window_probe
 1708              	.LVL181:
 1709 0066 0028     		cmp	r0, #0
 1710 0068 60D1     		bne	.L234
1038:Middlewares/Third_Party/LwIP/src/core/tcp.c ****             if (pcb->persist_backoff < sizeof(tcp_persist_backoff)) {
 1711              		.loc 1 1038 0
 1712 006a 0023     		movs	r3, #0
 1713 006c 84F89430 		strb	r3, [r4, #148]
1039:Middlewares/Third_Party/LwIP/src/core/tcp.c ****               pcb->persist_backoff++;
 1714              		.loc 1 1039 0
 1715 0070 94F89530 		ldrb	r3, [r4, #149]	@ zero_extendqisi2
 1716 0074 062B     		cmp	r3, #6
 1717 0076 5BD8     		bhi	.L235
1040:Middlewares/Third_Party/LwIP/src/core/tcp.c ****             }
 1718              		.loc 1 1040 0
 1719 0078 0133     		adds	r3, r3, #1
 1720 007a 84F89530 		strb	r3, [r4, #149]
 1721              	.LBE8:
1018:Middlewares/Third_Party/LwIP/src/core/tcp.c ****     pcb_reset = 0;
 1722              		.loc 1 1018 0
 1723 007e 0025     		movs	r5, #0
 1724              	.LVL182:
ARM GAS  C:\Users\Patryk\AppData\Local\Temp\cc1Vd65O.s 			page 66


 1725 0080 37E0     		b	.L201
 1726              	.L202:
1046:Middlewares/Third_Party/LwIP/src/core/tcp.c ****           ++pcb->rtime;
 1727              		.loc 1 1046 0
 1728 0082 B4F93010 		ldrsh	r1, [r4, #48]
 1729 0086 0029     		cmp	r1, #0
 1730 0088 01DB     		blt	.L204
1047:Middlewares/Third_Party/LwIP/src/core/tcp.c ****         }
 1731              		.loc 1 1047 0
 1732 008a 0131     		adds	r1, r1, #1
 1733 008c 2186     		strh	r1, [r4, #48]	@ movhi
 1734              	.L204:
1050:Middlewares/Third_Party/LwIP/src/core/tcp.c ****           /* Time for a retransmission. */
 1735              		.loc 1 1050 0
 1736 008e E16E     		ldr	r1, [r4, #108]
 1737 0090 79B3     		cbz	r1, .L201
1050:Middlewares/Third_Party/LwIP/src/core/tcp.c ****           /* Time for a retransmission. */
 1738              		.loc 1 1050 0 is_stmt 0 discriminator 1
 1739 0092 B4F93000 		ldrsh	r0, [r4, #48]
 1740 0096 B4F94010 		ldrsh	r1, [r4, #64]
 1741 009a 8842     		cmp	r0, r1
 1742 009c 29DB     		blt	.L201
1058:Middlewares/Third_Party/LwIP/src/core/tcp.c ****             u8_t backoff_idx = LWIP_MIN(pcb->nrtx, sizeof(tcp_backoff)-1);
 1743              		.loc 1 1058 0 is_stmt 1
 1744 009e 022B     		cmp	r3, #2
 1745 00a0 0DD0     		beq	.L205
 1746              	.LBB9:
1059:Middlewares/Third_Party/LwIP/src/core/tcp.c ****             pcb->rto = ((pcb->sa >> 3) + pcb->sv) << tcp_backoff[backoff_idx];
 1747              		.loc 1 1059 0
 1748 00a2 0C2A     		cmp	r2, #12
 1749 00a4 28BF     		it	cs
 1750 00a6 0C22     		movcs	r2, #12
 1751              	.LVL183:
1060:Middlewares/Third_Party/LwIP/src/core/tcp.c ****           }
 1752              		.loc 1 1060 0
 1753 00a8 B4F93C10 		ldrsh	r1, [r4, #60]
 1754 00ac B4F93E30 		ldrsh	r3, [r4, #62]
 1755 00b0 03EBE103 		add	r3, r3, r1, asr #3
 1756 00b4 8849     		ldr	r1, .L262+32
 1757 00b6 8A5C     		ldrb	r2, [r1, r2]	@ zero_extendqisi2
 1758              	.LVL184:
 1759 00b8 9340     		lsls	r3, r3, r2
 1760 00ba A4F84030 		strh	r3, [r4, #64]	@ movhi
 1761              	.LVL185:
 1762              	.L205:
 1763              	.LBE9:
1064:Middlewares/Third_Party/LwIP/src/core/tcp.c **** 
 1764              		.loc 1 1064 0
 1765 00be 0023     		movs	r3, #0
 1766 00c0 2386     		strh	r3, [r4, #48]	@ movhi
1067:Middlewares/Third_Party/LwIP/src/core/tcp.c ****           pcb->ssthresh = eff_wnd >> 1;
 1767              		.loc 1 1067 0
 1768 00c2 B4F85C30 		ldrh	r3, [r4, #92]
 1769 00c6 B4F84820 		ldrh	r2, [r4, #72]
 1770 00ca 9342     		cmp	r3, r2
 1771 00cc 28BF     		it	cs
 1772 00ce 1346     		movcs	r3, r2
ARM GAS  C:\Users\Patryk\AppData\Local\Temp\cc1Vd65O.s 			page 67


 1773              	.LVL186:
1068:Middlewares/Third_Party/LwIP/src/core/tcp.c ****           if (pcb->ssthresh < (tcpwnd_size_t)(pcb->mss << 1)) {
 1774              		.loc 1 1068 0
 1775 00d0 5B08     		lsrs	r3, r3, #1
 1776              	.LVL187:
 1777 00d2 A4F84A30 		strh	r3, [r4, #74]	@ movhi
1069:Middlewares/Third_Party/LwIP/src/core/tcp.c ****             pcb->ssthresh = (pcb->mss << 1);
 1778              		.loc 1 1069 0
 1779 00d6 618E     		ldrh	r1, [r4, #50]
 1780 00d8 4A00     		lsls	r2, r1, #1
 1781              	.LVL188:
 1782 00da 92B2     		uxth	r2, r2
 1783 00dc 9342     		cmp	r3, r2
 1784              	.LVL189:
 1785 00de 01D2     		bcs	.L206
1070:Middlewares/Third_Party/LwIP/src/core/tcp.c ****           }
 1786              		.loc 1 1070 0
 1787 00e0 A4F84A20 		strh	r2, [r4, #74]	@ movhi
 1788              	.L206:
1072:Middlewares/Third_Party/LwIP/src/core/tcp.c ****           LWIP_DEBUGF(TCP_CWND_DEBUG, ("tcp_slowtmr: cwnd %"TCPWNDSIZE_F
 1789              		.loc 1 1072 0
 1790 00e4 A4F84810 		strh	r1, [r4, #72]	@ movhi
 1791              	.LVL190:
1079:Middlewares/Third_Party/LwIP/src/core/tcp.c ****         }
 1792              		.loc 1 1079 0
 1793 00e8 2046     		mov	r0, r4
 1794 00ea FFF7FEFF 		bl	tcp_rexmit_rto
 1795              	.LVL191:
 1796 00ee 00E0     		b	.L201
 1797              	.L232:
1026:Middlewares/Third_Party/LwIP/src/core/tcp.c ****       LWIP_DEBUGF(TCP_DEBUG, ("tcp_slowtmr: max DATA retries reached\n"));
 1798              		.loc 1 1026 0
 1799 00f0 0125     		movs	r5, #1
 1800              	.L201:
 1801              	.LVL192:
1084:Middlewares/Third_Party/LwIP/src/core/tcp.c ****       /* If this PCB is in FIN_WAIT_2 because of SHUT_WR don't let it time out. */
 1802              		.loc 1 1084 0
 1803 00f2 237D     		ldrb	r3, [r4, #20]	@ zero_extendqisi2
 1804 00f4 062B     		cmp	r3, #6
 1805 00f6 1DD0     		beq	.L244
 1806              	.L207:
1098:Middlewares/Third_Party/LwIP/src/core/tcp.c ****        ((pcb->state == ESTABLISHED) ||
 1807              		.loc 1 1098 0
 1808 00f8 227A     		ldrb	r2, [r4, #8]	@ zero_extendqisi2
 1809 00fa 12F0080F 		tst	r2, #8
 1810 00fe 3FD0     		beq	.L236
1098:Middlewares/Third_Party/LwIP/src/core/tcp.c ****        ((pcb->state == ESTABLISHED) ||
 1811              		.loc 1 1098 0 is_stmt 0 discriminator 1
 1812 0100 072B     		cmp	r3, #7
 1813 0102 18BF     		it	ne
 1814 0104 042B     		cmpne	r3, #4
 1815 0106 6ED1     		bne	.L237
1101:Middlewares/Third_Party/LwIP/src/core/tcp.c ****          (pcb->keep_idle + TCP_KEEP_DUR(pcb)) / TCP_SLOW_INTERVAL)
 1816              		.loc 1 1101 0 is_stmt 1
 1817 0108 6B4B     		ldr	r3, .L262
 1818 010a 1A68     		ldr	r2, [r3]
 1819 010c 236A     		ldr	r3, [r4, #32]
ARM GAS  C:\Users\Patryk\AppData\Local\Temp\cc1Vd65O.s 			page 68


 1820 010e D21A     		subs	r2, r2, r3
1102:Middlewares/Third_Party/LwIP/src/core/tcp.c ****       {
 1821              		.loc 1 1102 0
 1822 0110 D4F89010 		ldr	r1, [r4, #144]
 1823 0114 714B     		ldr	r3, .L262+36
 1824 0116 0B44     		add	r3, r3, r1
 1825 0118 7148     		ldr	r0, .L262+40
 1826 011a A0FB0303 		umull	r0, r3, r0, r3
1101:Middlewares/Third_Party/LwIP/src/core/tcp.c ****          (pcb->keep_idle + TCP_KEEP_DUR(pcb)) / TCP_SLOW_INTERVAL)
 1827              		.loc 1 1101 0
 1828 011e B2EB531F 		cmp	r2, r3, lsr #5
 1829 0122 14D9     		bls	.L209
1108:Middlewares/Third_Party/LwIP/src/core/tcp.c ****         ++pcb_reset;
 1830              		.loc 1 1108 0
 1831 0124 0135     		adds	r5, r5, #1
 1832              	.LVL193:
 1833 0126 EDB2     		uxtb	r5, r5
 1834              	.LVL194:
1109:Middlewares/Third_Party/LwIP/src/core/tcp.c ****       } else if ((u32_t)(tcp_ticks - pcb->tmr) >
 1835              		.loc 1 1109 0
 1836 0128 0127     		movs	r7, #1
 1837 012a 2AE0     		b	.L208
 1838              	.LVL195:
 1839              	.L234:
1018:Middlewares/Third_Party/LwIP/src/core/tcp.c ****     pcb_reset = 0;
 1840              		.loc 1 1018 0
 1841 012c 0025     		movs	r5, #0
 1842              	.LVL196:
 1843 012e E0E7     		b	.L201
 1844              	.LVL197:
 1845              	.L235:
 1846 0130 0025     		movs	r5, #0
 1847              	.LVL198:
 1848 0132 DEE7     		b	.L201
 1849              	.LVL199:
 1850              	.L244:
1086:Middlewares/Third_Party/LwIP/src/core/tcp.c ****         /* PCB was fully closed (either through close() or SHUT_RDWR):
 1851              		.loc 1 1086 0
 1852 0134 A27E     		ldrb	r2, [r4, #26]	@ zero_extendqisi2
 1853 0136 12F0100F 		tst	r2, #16
 1854 013a DDD0     		beq	.L207
1089:Middlewares/Third_Party/LwIP/src/core/tcp.c ****             TCP_FIN_WAIT_TIMEOUT / TCP_SLOW_INTERVAL) {
 1855              		.loc 1 1089 0
 1856 013c 216A     		ldr	r1, [r4, #32]
 1857 013e 5E4A     		ldr	r2, .L262
 1858 0140 1268     		ldr	r2, [r2]
 1859 0142 521A     		subs	r2, r2, r1
 1860 0144 282A     		cmp	r2, #40
 1861 0146 D7D9     		bls	.L207
1091:Middlewares/Third_Party/LwIP/src/core/tcp.c ****           LWIP_DEBUGF(TCP_DEBUG, ("tcp_slowtmr: removing pcb stuck in FIN-WAIT-2\n"));
 1862              		.loc 1 1091 0
 1863 0148 0135     		adds	r5, r5, #1
 1864              	.LVL200:
 1865 014a EDB2     		uxtb	r5, r5
 1866              	.LVL201:
 1867 014c D4E7     		b	.L207
 1868              	.L209:
ARM GAS  C:\Users\Patryk\AppData\Local\Temp\cc1Vd65O.s 			page 69


1111:Middlewares/Third_Party/LwIP/src/core/tcp.c ****                 / TCP_SLOW_INTERVAL)
 1869              		.loc 1 1111 0
 1870 014e 94F89630 		ldrb	r3, [r4, #150]	@ zero_extendqisi2
 1871 0152 6448     		ldr	r0, .L262+44
 1872 0154 00FB0313 		mla	r3, r0, r3, r1
1112:Middlewares/Third_Party/LwIP/src/core/tcp.c ****       {
 1873              		.loc 1 1112 0
 1874 0158 6149     		ldr	r1, .L262+40
 1875 015a A1FB0313 		umull	r1, r3, r1, r3
1110:Middlewares/Third_Party/LwIP/src/core/tcp.c ****                 (pcb->keep_idle + pcb->keep_cnt_sent * TCP_KEEP_INTVL(pcb))
 1876              		.loc 1 1110 0
 1877 015e B2EB531F 		cmp	r2, r3, lsr #5
 1878 0162 01D8     		bhi	.L245
1019:Middlewares/Third_Party/LwIP/src/core/tcp.c **** 
 1879              		.loc 1 1019 0
 1880 0164 0027     		movs	r7, #0
 1881 0166 0CE0     		b	.L208
 1882              	.L245:
1114:Middlewares/Third_Party/LwIP/src/core/tcp.c ****         if (err == ERR_OK) {
 1883              		.loc 1 1114 0
 1884 0168 2046     		mov	r0, r4
 1885 016a FFF7FEFF 		bl	tcp_keepalive
 1886              	.LVL202:
1115:Middlewares/Third_Party/LwIP/src/core/tcp.c ****           pcb->keep_cnt_sent++;
 1887              		.loc 1 1115 0
 1888 016e 0028     		cmp	r0, #0
 1889 0170 3BD1     		bne	.L239
1116:Middlewares/Third_Party/LwIP/src/core/tcp.c ****         }
 1890              		.loc 1 1116 0
 1891 0172 94F89630 		ldrb	r3, [r4, #150]	@ zero_extendqisi2
 1892 0176 0133     		adds	r3, r3, #1
 1893 0178 84F89630 		strb	r3, [r4, #150]
1019:Middlewares/Third_Party/LwIP/src/core/tcp.c **** 
 1894              		.loc 1 1019 0
 1895 017c 0027     		movs	r7, #0
 1896 017e 00E0     		b	.L208
 1897              	.LVL203:
 1898              	.L236:
 1899 0180 0027     		movs	r7, #0
 1900              	.LVL204:
 1901              	.L208:
1125:Middlewares/Third_Party/LwIP/src/core/tcp.c ****         (u32_t)tcp_ticks - pcb->tmr >= pcb->rto * TCP_OOSEQ_TIMEOUT) {
 1902              		.loc 1 1125 0
 1903 0182 206F     		ldr	r0, [r4, #112]
 1904 0184 50B1     		cbz	r0, .L210
1126:Middlewares/Third_Party/LwIP/src/core/tcp.c ****       tcp_segs_free(pcb->ooseq);
 1905              		.loc 1 1126 0 discriminator 1
 1906 0186 4C4B     		ldr	r3, .L262
 1907 0188 1A68     		ldr	r2, [r3]
 1908 018a 236A     		ldr	r3, [r4, #32]
 1909 018c D21A     		subs	r2, r2, r3
 1910 018e B4F94030 		ldrsh	r3, [r4, #64]
 1911 0192 03EB4303 		add	r3, r3, r3, lsl #1
 1912 0196 5900     		lsls	r1, r3, #1
1125:Middlewares/Third_Party/LwIP/src/core/tcp.c ****         (u32_t)tcp_ticks - pcb->tmr >= pcb->rto * TCP_OOSEQ_TIMEOUT) {
 1913              		.loc 1 1125 0 discriminator 1
 1914 0198 8A42     		cmp	r2, r1
ARM GAS  C:\Users\Patryk\AppData\Local\Temp\cc1Vd65O.s 			page 70


 1915 019a 28D2     		bcs	.L246
 1916              	.L210:
1134:Middlewares/Third_Party/LwIP/src/core/tcp.c ****       if ((u32_t)(tcp_ticks - pcb->tmr) >
 1917              		.loc 1 1134 0
 1918 019c 237D     		ldrb	r3, [r4, #20]	@ zero_extendqisi2
 1919 019e 032B     		cmp	r3, #3
 1920 01a0 2AD0     		beq	.L247
 1921              	.L211:
1143:Middlewares/Third_Party/LwIP/src/core/tcp.c ****       if ((u32_t)(tcp_ticks - pcb->tmr) > 2 * TCP_MSL / TCP_SLOW_INTERVAL) {
 1922              		.loc 1 1143 0
 1923 01a2 092B     		cmp	r3, #9
 1924 01a4 31D0     		beq	.L248
 1925              	.L212:
1151:Middlewares/Third_Party/LwIP/src/core/tcp.c ****       struct tcp_pcb *pcb2;
 1926              		.loc 1 1151 0
 1927 01a6 002D     		cmp	r5, #0
 1928 01a8 38D1     		bne	.L249
 1929              	.LVL205:
1188:Middlewares/Third_Party/LwIP/src/core/tcp.c **** 
 1930              		.loc 1 1188 0
 1931 01aa E568     		ldr	r5, [r4, #12]
 1932              	.LVL206:
1191:Middlewares/Third_Party/LwIP/src/core/tcp.c ****       if (prev->polltmr >= prev->pollinterval) {
 1933              		.loc 1 1191 0
 1934 01ac E37E     		ldrb	r3, [r4, #27]	@ zero_extendqisi2
 1935 01ae 0133     		adds	r3, r3, #1
 1936 01b0 DBB2     		uxtb	r3, r3
 1937 01b2 E376     		strb	r3, [r4, #27]
1192:Middlewares/Third_Party/LwIP/src/core/tcp.c ****         prev->polltmr = 0;
 1938              		.loc 1 1192 0
 1939 01b4 227F     		ldrb	r2, [r4, #28]	@ zero_extendqisi2
 1940 01b6 9342     		cmp	r3, r2
 1941 01b8 C0F09C80 		bcc	.L240
1193:Middlewares/Third_Party/LwIP/src/core/tcp.c ****         LWIP_DEBUGF(TCP_DEBUG, ("tcp_slowtmr: polling application\n"));
 1942              		.loc 1 1193 0
 1943 01bc 0023     		movs	r3, #0
 1944 01be E376     		strb	r3, [r4, #27]
1195:Middlewares/Third_Party/LwIP/src/core/tcp.c ****         TCP_EVENT_POLL(prev, err);
 1945              		.loc 1 1195 0
 1946 01c0 494A     		ldr	r2, .L262+48
 1947 01c2 1370     		strb	r3, [r2]
1196:Middlewares/Third_Party/LwIP/src/core/tcp.c ****         if (tcp_active_pcbs_changed) {
 1948              		.loc 1 1196 0
 1949 01c4 D4F88830 		ldr	r3, [r4, #136]
 1950 01c8 002B     		cmp	r3, #0
 1951 01ca 6CD0     		beq	.L241
1196:Middlewares/Third_Party/LwIP/src/core/tcp.c ****         if (tcp_active_pcbs_changed) {
 1952              		.loc 1 1196 0 is_stmt 0 discriminator 1
 1953 01cc 2146     		mov	r1, r4
 1954 01ce 2069     		ldr	r0, [r4, #16]
 1955 01d0 9847     		blx	r3
 1956              	.LVL207:
 1957              	.L220:
1197:Middlewares/Third_Party/LwIP/src/core/tcp.c ****           goto tcp_slowtmr_start;
 1958              		.loc 1 1197 0 is_stmt 1
 1959 01d2 454B     		ldr	r3, .L262+48
 1960 01d4 1B78     		ldrb	r3, [r3]	@ zero_extendqisi2
ARM GAS  C:\Users\Patryk\AppData\Local\Temp\cc1Vd65O.s 			page 71


 1961 01d6 002B     		cmp	r3, #0
 1962 01d8 7FF41DAF 		bne	.L192
1201:Middlewares/Third_Party/LwIP/src/core/tcp.c ****           tcp_output(prev);
 1963              		.loc 1 1201 0
 1964 01dc 0028     		cmp	r0, #0
 1965 01de 64D0     		beq	.L250
1187:Middlewares/Third_Party/LwIP/src/core/tcp.c ****       pcb = pcb->next;
 1966              		.loc 1 1187 0
 1967 01e0 2646     		mov	r6, r4
1188:Middlewares/Third_Party/LwIP/src/core/tcp.c **** 
 1968              		.loc 1 1188 0
 1969 01e2 2C46     		mov	r4, r5
 1970              	.LVL208:
 1971 01e4 88E0     		b	.L194
 1972              	.LVL209:
 1973              	.L237:
1019:Middlewares/Third_Party/LwIP/src/core/tcp.c **** 
 1974              		.loc 1 1019 0
 1975 01e6 0027     		movs	r7, #0
 1976 01e8 CBE7     		b	.L208
 1977              	.LVL210:
 1978              	.L239:
 1979 01ea 0027     		movs	r7, #0
 1980 01ec C9E7     		b	.L208
 1981              	.LVL211:
 1982              	.L246:
1127:Middlewares/Third_Party/LwIP/src/core/tcp.c ****       pcb->ooseq = NULL;
 1983              		.loc 1 1127 0
 1984 01ee FFF7FEFF 		bl	tcp_segs_free
 1985              	.LVL212:
1128:Middlewares/Third_Party/LwIP/src/core/tcp.c ****       LWIP_DEBUGF(TCP_CWND_DEBUG, ("tcp_slowtmr: dropping OOSEQ queued data\n"));
 1986              		.loc 1 1128 0
 1987 01f2 0023     		movs	r3, #0
 1988 01f4 2367     		str	r3, [r4, #112]
 1989 01f6 D1E7     		b	.L210
 1990              	.L247:
1135:Middlewares/Third_Party/LwIP/src/core/tcp.c ****           TCP_SYN_RCVD_TIMEOUT / TCP_SLOW_INTERVAL) {
 1991              		.loc 1 1135 0
 1992 01f8 216A     		ldr	r1, [r4, #32]
 1993 01fa 2F4A     		ldr	r2, .L262
 1994 01fc 1268     		ldr	r2, [r2]
 1995 01fe 521A     		subs	r2, r2, r1
 1996 0200 282A     		cmp	r2, #40
 1997 0202 CED9     		bls	.L211
1137:Middlewares/Third_Party/LwIP/src/core/tcp.c ****         LWIP_DEBUGF(TCP_DEBUG, ("tcp_slowtmr: removing pcb stuck in SYN-RCVD\n"));
 1998              		.loc 1 1137 0
 1999 0204 0135     		adds	r5, r5, #1
 2000              	.LVL213:
 2001 0206 EDB2     		uxtb	r5, r5
 2002              	.LVL214:
 2003 0208 CBE7     		b	.L211
 2004              	.L248:
1144:Middlewares/Third_Party/LwIP/src/core/tcp.c ****         ++pcb_remove;
 2005              		.loc 1 1144 0
 2006 020a 226A     		ldr	r2, [r4, #32]
 2007 020c 2A4B     		ldr	r3, .L262
 2008 020e 1B68     		ldr	r3, [r3]
ARM GAS  C:\Users\Patryk\AppData\Local\Temp\cc1Vd65O.s 			page 72


 2009 0210 9B1A     		subs	r3, r3, r2
 2010 0212 F02B     		cmp	r3, #240
 2011 0214 C7D9     		bls	.L212
1145:Middlewares/Third_Party/LwIP/src/core/tcp.c ****         LWIP_DEBUGF(TCP_DEBUG, ("tcp_slowtmr: removing pcb stuck in LAST-ACK\n"));
 2012              		.loc 1 1145 0
 2013 0216 0135     		adds	r5, r5, #1
 2014              	.LVL215:
 2015 0218 EDB2     		uxtb	r5, r5
 2016              	.LVL216:
 2017 021a C4E7     		b	.L212
 2018              	.L249:
 2019              	.LBB10:
1154:Middlewares/Third_Party/LwIP/src/core/tcp.c **** #endif /* LWIP_CALLBACK_API */
 2020              		.loc 1 1154 0
 2021 021c D4F88C50 		ldr	r5, [r4, #140]
 2022              	.LVL217:
1158:Middlewares/Third_Party/LwIP/src/core/tcp.c ****       /* Remove PCB from tcp_active_pcbs list. */
 2023              		.loc 1 1158 0
 2024 0220 2046     		mov	r0, r4
 2025 0222 FFF7FEFF 		bl	tcp_pcb_purge
 2026              	.LVL218:
1160:Middlewares/Third_Party/LwIP/src/core/tcp.c ****         LWIP_ASSERT("tcp_slowtmr: middle tcp != tcp_active_pcbs", pcb != tcp_active_pcbs);
 2027              		.loc 1 1160 0
 2028 0226 26B3     		cbz	r6, .L214
1161:Middlewares/Third_Party/LwIP/src/core/tcp.c ****         prev->next = pcb->next;
 2029              		.loc 1 1161 0
 2030 0228 254B     		ldr	r3, .L262+8
 2031 022a 1B68     		ldr	r3, [r3]
 2032 022c A342     		cmp	r3, r4
 2033 022e 18D0     		beq	.L251
 2034              	.L215:
1162:Middlewares/Third_Party/LwIP/src/core/tcp.c ****       } else {
 2035              		.loc 1 1162 0
 2036 0230 E368     		ldr	r3, [r4, #12]
 2037 0232 F360     		str	r3, [r6, #12]
 2038              	.L216:
1169:Middlewares/Third_Party/LwIP/src/core/tcp.c ****         tcp_rst(pcb->snd_nxt, pcb->rcv_nxt, &pcb->local_ip, &pcb->remote_ip,
 2039              		.loc 1 1169 0
 2040 0234 67BB     		cbnz	r7, .L252
 2041              	.L218:
1174:Middlewares/Third_Party/LwIP/src/core/tcp.c ****       last_state = pcb->state;
 2042              		.loc 1 1174 0
 2043 0236 D4F81080 		ldr	r8, [r4, #16]
 2044              	.LVL219:
1177:Middlewares/Third_Party/LwIP/src/core/tcp.c ****       memp_free(MEMP_TCP_PCB, pcb2);
 2045              		.loc 1 1177 0
 2046 023a E768     		ldr	r7, [r4, #12]
 2047              	.LVL220:
1178:Middlewares/Third_Party/LwIP/src/core/tcp.c **** 
 2048              		.loc 1 1178 0
 2049 023c 2146     		mov	r1, r4
 2050 023e 0120     		movs	r0, #1
 2051 0240 FFF7FEFF 		bl	memp_free
 2052              	.LVL221:
1180:Middlewares/Third_Party/LwIP/src/core/tcp.c ****       TCP_EVENT_ERR(last_state, err_fn, err_arg, ERR_ABRT);
 2053              		.loc 1 1180 0
 2054 0244 284B     		ldr	r3, .L262+48
ARM GAS  C:\Users\Patryk\AppData\Local\Temp\cc1Vd65O.s 			page 73


 2055 0246 0022     		movs	r2, #0
 2056 0248 1A70     		strb	r2, [r3]
1181:Middlewares/Third_Party/LwIP/src/core/tcp.c ****       if (tcp_active_pcbs_changed) {
 2057              		.loc 1 1181 0
 2058 024a 1DB1     		cbz	r5, .L219
1181:Middlewares/Third_Party/LwIP/src/core/tcp.c ****       if (tcp_active_pcbs_changed) {
 2059              		.loc 1 1181 0 is_stmt 0 discriminator 1
 2060 024c 6FF00C01 		mvn	r1, #12
 2061 0250 4046     		mov	r0, r8
 2062 0252 A847     		blx	r5
 2063              	.LVL222:
 2064              	.L219:
1182:Middlewares/Third_Party/LwIP/src/core/tcp.c ****         goto tcp_slowtmr_start;
 2065              		.loc 1 1182 0 is_stmt 1
 2066 0254 244B     		ldr	r3, .L262+48
 2067 0256 1B78     		ldrb	r3, [r3]	@ zero_extendqisi2
 2068 0258 002B     		cmp	r3, #0
 2069 025a 7FF4DCAE 		bne	.L192
1177:Middlewares/Third_Party/LwIP/src/core/tcp.c ****       memp_free(MEMP_TCP_PCB, pcb2);
 2070              		.loc 1 1177 0
 2071 025e 3C46     		mov	r4, r7
 2072              	.LVL223:
 2073 0260 4AE0     		b	.L194
 2074              	.LVL224:
 2075              	.L251:
1161:Middlewares/Third_Party/LwIP/src/core/tcp.c ****         prev->next = pcb->next;
 2076              		.loc 1 1161 0 discriminator 1
 2077 0262 184B     		ldr	r3, .L262+12
 2078 0264 40F28942 		movw	r2, #1161
 2079 0268 2049     		ldr	r1, .L262+52
 2080 026a 1848     		ldr	r0, .L262+20
 2081 026c FFF7FEFF 		bl	printf
 2082              	.LVL225:
 2083 0270 DEE7     		b	.L215
 2084              	.L214:
1165:Middlewares/Third_Party/LwIP/src/core/tcp.c ****         tcp_active_pcbs = pcb->next;
 2085              		.loc 1 1165 0
 2086 0272 134B     		ldr	r3, .L262+8
 2087 0274 1B68     		ldr	r3, [r3]
 2088 0276 A342     		cmp	r3, r4
 2089 0278 06D0     		beq	.L217
1165:Middlewares/Third_Party/LwIP/src/core/tcp.c ****         tcp_active_pcbs = pcb->next;
 2090              		.loc 1 1165 0 is_stmt 0 discriminator 1
 2091 027a 124B     		ldr	r3, .L262+12
 2092 027c 40F28D42 		movw	r2, #1165
 2093 0280 1B49     		ldr	r1, .L262+56
 2094 0282 1248     		ldr	r0, .L262+20
 2095 0284 FFF7FEFF 		bl	printf
 2096              	.LVL226:
 2097              	.L217:
1166:Middlewares/Third_Party/LwIP/src/core/tcp.c ****       }
 2098              		.loc 1 1166 0 is_stmt 1
 2099 0288 E268     		ldr	r2, [r4, #12]
 2100 028a 0D4B     		ldr	r3, .L262+8
 2101 028c 1A60     		str	r2, [r3]
 2102 028e D1E7     		b	.L216
 2103              	.L252:
ARM GAS  C:\Users\Patryk\AppData\Local\Temp\cc1Vd65O.s 			page 74


1170:Middlewares/Third_Party/LwIP/src/core/tcp.c ****                  pcb->local_port, pcb->remote_port);
 2104              		.loc 1 1170 0
 2105 0290 616A     		ldr	r1, [r4, #36]
 2106 0292 E06C     		ldr	r0, [r4, #76]
 2107 0294 238B     		ldrh	r3, [r4, #24]
 2108 0296 0193     		str	r3, [sp, #4]
 2109 0298 E38A     		ldrh	r3, [r4, #22]
 2110 029a 0093     		str	r3, [sp]
 2111 029c 231D     		adds	r3, r4, #4
 2112 029e 2246     		mov	r2, r4
 2113 02a0 FFF7FEFF 		bl	tcp_rst
 2114              	.LVL227:
 2115 02a4 C7E7     		b	.L218
 2116              	.LVL228:
 2117              	.L241:
 2118              	.LBE10:
1196:Middlewares/Third_Party/LwIP/src/core/tcp.c ****         if (tcp_active_pcbs_changed) {
 2119              		.loc 1 1196 0
 2120 02a6 0020     		movs	r0, #0
 2121 02a8 93E7     		b	.L220
 2122              	.LVL229:
 2123              	.L250:
1202:Middlewares/Third_Party/LwIP/src/core/tcp.c ****         }
 2124              		.loc 1 1202 0
 2125 02aa 2046     		mov	r0, r4
 2126              	.LVL230:
 2127 02ac FFF7FEFF 		bl	tcp_output
 2128              	.LVL231:
1187:Middlewares/Third_Party/LwIP/src/core/tcp.c ****       pcb = pcb->next;
 2129              		.loc 1 1187 0
 2130 02b0 2646     		mov	r6, r4
1188:Middlewares/Third_Party/LwIP/src/core/tcp.c **** 
 2131              		.loc 1 1188 0
 2132 02b2 2C46     		mov	r4, r5
 2133              	.LVL232:
 2134 02b4 20E0     		b	.L194
 2135              	.L263:
 2136 02b6 00BF     		.align	2
 2137              	.L262:
 2138 02b8 00000000 		.word	tcp_ticks
 2139 02bc 00000000 		.word	.LANCHOR2
 2140 02c0 00000000 		.word	tcp_active_pcbs
 2141 02c4 00000000 		.word	.LC0
 2142 02c8 00000000 		.word	.LC13
 2143 02cc 38000000 		.word	.LC2
 2144 02d0 2C000000 		.word	.LC14
 2145 02d4 58000000 		.word	.LC15
 2146 02d8 00000000 		.word	.LANCHOR4
 2147 02dc B84C0A00 		.word	675000
 2148 02e0 D34D6210 		.word	274877907
 2149 02e4 F8240100 		.word	75000
 2150 02e8 00000000 		.word	tcp_active_pcbs_changed
 2151 02ec 88000000 		.word	.LC16
 2152 02f0 B4000000 		.word	.LC17
 2153              	.LVL233:
 2154              	.L240:
1187:Middlewares/Third_Party/LwIP/src/core/tcp.c ****       pcb = pcb->next;
ARM GAS  C:\Users\Patryk\AppData\Local\Temp\cc1Vd65O.s 			page 75


 2155              		.loc 1 1187 0
 2156 02f4 2646     		mov	r6, r4
1188:Middlewares/Third_Party/LwIP/src/core/tcp.c **** 
 2157              		.loc 1 1188 0
 2158 02f6 2C46     		mov	r4, r5
 2159              	.LVL234:
 2160              	.L194:
1006:Middlewares/Third_Party/LwIP/src/core/tcp.c ****     LWIP_DEBUGF(TCP_DEBUG, ("tcp_slowtmr: processing active pcb\n"));
 2161              		.loc 1 1006 0
 2162 02f8 8CB3     		cbz	r4, .L253
1008:Middlewares/Third_Party/LwIP/src/core/tcp.c ****     LWIP_ASSERT("tcp_slowtmr: active pcb->state != LISTEN\n", pcb->state != LISTEN);
 2163              		.loc 1 1008 0
 2164 02fa 237D     		ldrb	r3, [r4, #20]	@ zero_extendqisi2
 2165 02fc 002B     		cmp	r3, #0
 2166 02fe 3FF48EAE 		beq	.L254
 2167              	.L195:
1009:Middlewares/Third_Party/LwIP/src/core/tcp.c ****     LWIP_ASSERT("tcp_slowtmr: active pcb->state != TIME-WAIT\n", pcb->state != TIME_WAIT);
 2168              		.loc 1 1009 0
 2169 0302 237D     		ldrb	r3, [r4, #20]	@ zero_extendqisi2
 2170 0304 012B     		cmp	r3, #1
 2171 0306 3FF492AE 		beq	.L255
 2172              	.L196:
1010:Middlewares/Third_Party/LwIP/src/core/tcp.c ****     if (pcb->last_timer == tcp_timer_ctr) {
 2173              		.loc 1 1010 0
 2174 030a 237D     		ldrb	r3, [r4, #20]	@ zero_extendqisi2
 2175 030c 0A2B     		cmp	r3, #10
 2176 030e 3FF496AE 		beq	.L256
 2177              	.L197:
1011:Middlewares/Third_Party/LwIP/src/core/tcp.c ****       /* skip this pcb, we have already processed it */
 2178              		.loc 1 1011 0
 2179 0312 627F     		ldrb	r2, [r4, #29]	@ zero_extendqisi2
 2180 0314 334B     		ldr	r3, .L264
 2181 0316 1B78     		ldrb	r3, [r3]	@ zero_extendqisi2
 2182 0318 9A42     		cmp	r2, r3
 2183 031a 3FF498AE 		beq	.L257
1016:Middlewares/Third_Party/LwIP/src/core/tcp.c **** 
 2184              		.loc 1 1016 0
 2185 031e 6377     		strb	r3, [r4, #29]
 2186              	.LVL235:
1021:Middlewares/Third_Party/LwIP/src/core/tcp.c ****       ++pcb_remove;
 2187              		.loc 1 1021 0
 2188 0320 237D     		ldrb	r3, [r4, #20]	@ zero_extendqisi2
 2189 0322 022B     		cmp	r3, #2
 2190 0324 3FF495AE 		beq	.L258
 2191              	.L200:
1025:Middlewares/Third_Party/LwIP/src/core/tcp.c ****       ++pcb_remove;
 2192              		.loc 1 1025 0
 2193 0328 94F84220 		ldrb	r2, [r4, #66]	@ zero_extendqisi2
 2194 032c 0B2A     		cmp	r2, #11
 2195 032e 3FF6DFAE 		bhi	.L232
1029:Middlewares/Third_Party/LwIP/src/core/tcp.c ****         /* If snd_wnd is zero, use persist timer to send 1 byte probes
 2196              		.loc 1 1029 0
 2197 0332 94F89550 		ldrb	r5, [r4, #149]	@ zero_extendqisi2
 2198 0336 002D     		cmp	r5, #0
 2199 0338 3FF4A3AE 		beq	.L202
 2200              	.LBB11:
1032:Middlewares/Third_Party/LwIP/src/core/tcp.c ****         if (pcb->persist_cnt < backoff_cnt) {
ARM GAS  C:\Users\Patryk\AppData\Local\Temp\cc1Vd65O.s 			page 76


 2201              		.loc 1 1032 0
 2202 033c 013D     		subs	r5, r5, #1
 2203 033e 2A4B     		ldr	r3, .L264+4
 2204 0340 5A5D     		ldrb	r2, [r3, r5]	@ zero_extendqisi2
 2205              	.LVL236:
1033:Middlewares/Third_Party/LwIP/src/core/tcp.c ****           pcb->persist_cnt++;
 2206              		.loc 1 1033 0
 2207 0342 94F89430 		ldrb	r3, [r4, #148]	@ zero_extendqisi2
 2208 0346 9342     		cmp	r3, r2
 2209 0348 02D2     		bcs	.L203
1034:Middlewares/Third_Party/LwIP/src/core/tcp.c ****         }
 2210              		.loc 1 1034 0
 2211 034a 0133     		adds	r3, r3, #1
 2212 034c 84F89430 		strb	r3, [r4, #148]
 2213              	.L203:
1036:Middlewares/Third_Party/LwIP/src/core/tcp.c ****           if (tcp_zero_window_probe(pcb) == ERR_OK) {
 2214              		.loc 1 1036 0
 2215 0350 94F89430 		ldrb	r3, [r4, #148]	@ zero_extendqisi2
 2216 0354 9342     		cmp	r3, r2
 2217 0356 BFF483AE 		bcs	.L259
 2218              	.LBE11:
1018:Middlewares/Third_Party/LwIP/src/core/tcp.c ****     pcb_reset = 0;
 2219              		.loc 1 1018 0
 2220 035a 0025     		movs	r5, #0
 2221 035c C9E6     		b	.L201
 2222              	.LVL237:
 2223              	.L253:
1211:Middlewares/Third_Party/LwIP/src/core/tcp.c ****   while (pcb != NULL) {
 2224              		.loc 1 1211 0
 2225 035e 234B     		ldr	r3, .L264+8
 2226 0360 1D68     		ldr	r5, [r3]
 2227              	.LVL238:
1212:Middlewares/Third_Party/LwIP/src/core/tcp.c ****     LWIP_ASSERT("tcp_slowtmr: TIME-WAIT pcb->state == TIME-WAIT", pcb->state == TIME_WAIT);
 2228              		.loc 1 1212 0
 2229 0362 07E0     		b	.L222
 2230              	.LVL239:
 2231              	.L223:
1217:Middlewares/Third_Party/LwIP/src/core/tcp.c ****       ++pcb_remove;
 2232              		.loc 1 1217 0
 2233 0364 2A6A     		ldr	r2, [r5, #32]
 2234 0366 224B     		ldr	r3, .L264+12
 2235 0368 1B68     		ldr	r3, [r3]
 2236 036a 9B1A     		subs	r3, r3, r2
 2237 036c F02B     		cmp	r3, #240
 2238 036e 0ED8     		bhi	.L224
 2239              	.LVL240:
1238:Middlewares/Third_Party/LwIP/src/core/tcp.c ****       pcb = pcb->next;
 2240              		.loc 1 1238 0
 2241 0370 2C46     		mov	r4, r5
1239:Middlewares/Third_Party/LwIP/src/core/tcp.c ****     }
 2242              		.loc 1 1239 0
 2243 0372 ED68     		ldr	r5, [r5, #12]
 2244              	.LVL241:
 2245              	.L222:
1212:Middlewares/Third_Party/LwIP/src/core/tcp.c ****     LWIP_ASSERT("tcp_slowtmr: TIME-WAIT pcb->state == TIME-WAIT", pcb->state == TIME_WAIT);
 2246              		.loc 1 1212 0
 2247 0374 002D     		cmp	r5, #0
ARM GAS  C:\Users\Patryk\AppData\Local\Temp\cc1Vd65O.s 			page 77


 2248 0376 32D0     		beq	.L260
1213:Middlewares/Third_Party/LwIP/src/core/tcp.c ****     pcb_remove = 0;
 2249              		.loc 1 1213 0
 2250 0378 2B7D     		ldrb	r3, [r5, #20]	@ zero_extendqisi2
 2251 037a 0A2B     		cmp	r3, #10
 2252 037c F2D0     		beq	.L223
1213:Middlewares/Third_Party/LwIP/src/core/tcp.c ****     pcb_remove = 0;
 2253              		.loc 1 1213 0 is_stmt 0 discriminator 1
 2254 037e 1D4B     		ldr	r3, .L264+16
 2255 0380 40F2BD42 		movw	r2, #1213
 2256 0384 1C49     		ldr	r1, .L264+20
 2257 0386 1D48     		ldr	r0, .L264+24
 2258 0388 FFF7FEFF 		bl	printf
 2259              	.LVL242:
 2260 038c EAE7     		b	.L223
 2261              	.LVL243:
 2262              	.L224:
 2263              	.LBB12:
1224:Middlewares/Third_Party/LwIP/src/core/tcp.c ****       /* Remove PCB from tcp_tw_pcbs list. */
 2264              		.loc 1 1224 0 is_stmt 1
 2265 038e 2846     		mov	r0, r5
 2266 0390 FFF7FEFF 		bl	tcp_pcb_purge
 2267              	.LVL244:
1226:Middlewares/Third_Party/LwIP/src/core/tcp.c ****         LWIP_ASSERT("tcp_slowtmr: middle tcp != tcp_tw_pcbs", pcb != tcp_tw_pcbs);
 2268              		.loc 1 1226 0
 2269 0394 A4B1     		cbz	r4, .L226
1227:Middlewares/Third_Party/LwIP/src/core/tcp.c ****         prev->next = pcb->next;
 2270              		.loc 1 1227 0
 2271 0396 154B     		ldr	r3, .L264+8
 2272 0398 1B68     		ldr	r3, [r3]
 2273 039a AB42     		cmp	r3, r5
 2274 039c 08D0     		beq	.L261
 2275              	.L227:
1228:Middlewares/Third_Party/LwIP/src/core/tcp.c ****       } else {
 2276              		.loc 1 1228 0
 2277 039e EB68     		ldr	r3, [r5, #12]
 2278 03a0 E360     		str	r3, [r4, #12]
 2279              	.L228:
 2280              	.LVL245:
1235:Middlewares/Third_Party/LwIP/src/core/tcp.c ****       memp_free(MEMP_TCP_PCB, pcb2);
 2281              		.loc 1 1235 0
 2282 03a2 EE68     		ldr	r6, [r5, #12]
 2283              	.LVL246:
1236:Middlewares/Third_Party/LwIP/src/core/tcp.c ****     } else {
 2284              		.loc 1 1236 0
 2285 03a4 2946     		mov	r1, r5
 2286 03a6 0120     		movs	r0, #1
 2287 03a8 FFF7FEFF 		bl	memp_free
 2288              	.LVL247:
1235:Middlewares/Third_Party/LwIP/src/core/tcp.c ****       memp_free(MEMP_TCP_PCB, pcb2);
 2289              		.loc 1 1235 0
 2290 03ac 3546     		mov	r5, r6
 2291              	.LVL248:
 2292              	.LBE12:
 2293 03ae E1E7     		b	.L222
 2294              	.LVL249:
 2295              	.L261:
ARM GAS  C:\Users\Patryk\AppData\Local\Temp\cc1Vd65O.s 			page 78


 2296              	.LBB13:
1227:Middlewares/Third_Party/LwIP/src/core/tcp.c ****         prev->next = pcb->next;
 2297              		.loc 1 1227 0 discriminator 1
 2298 03b0 104B     		ldr	r3, .L264+16
 2299 03b2 40F2CB42 		movw	r2, #1227
 2300 03b6 1249     		ldr	r1, .L264+28
 2301 03b8 1048     		ldr	r0, .L264+24
 2302 03ba FFF7FEFF 		bl	printf
 2303              	.LVL250:
 2304 03be EEE7     		b	.L227
 2305              	.L226:
1231:Middlewares/Third_Party/LwIP/src/core/tcp.c ****         tcp_tw_pcbs = pcb->next;
 2306              		.loc 1 1231 0
 2307 03c0 0A4B     		ldr	r3, .L264+8
 2308 03c2 1B68     		ldr	r3, [r3]
 2309 03c4 AB42     		cmp	r3, r5
 2310 03c6 06D0     		beq	.L229
1231:Middlewares/Third_Party/LwIP/src/core/tcp.c ****         tcp_tw_pcbs = pcb->next;
 2311              		.loc 1 1231 0 is_stmt 0 discriminator 1
 2312 03c8 0A4B     		ldr	r3, .L264+16
 2313 03ca 40F2CF42 		movw	r2, #1231
 2314 03ce 0D49     		ldr	r1, .L264+32
 2315 03d0 0A48     		ldr	r0, .L264+24
 2316 03d2 FFF7FEFF 		bl	printf
 2317              	.LVL251:
 2318              	.L229:
1232:Middlewares/Third_Party/LwIP/src/core/tcp.c ****       }
 2319              		.loc 1 1232 0 is_stmt 1
 2320 03d6 EA68     		ldr	r2, [r5, #12]
 2321 03d8 044B     		ldr	r3, .L264+8
 2322 03da 1A60     		str	r2, [r3]
 2323 03dc E1E7     		b	.L228
 2324              	.LVL252:
 2325              	.L260:
 2326              	.LBE13:
1242:Middlewares/Third_Party/LwIP/src/core/tcp.c **** 
 2327              		.loc 1 1242 0
 2328 03de 02B0     		add	sp, sp, #8
 2329              	.LCFI26:
 2330              		.cfi_def_cfa_offset 24
 2331              		@ sp needed
 2332 03e0 BDE8F081 		pop	{r4, r5, r6, r7, r8, pc}
 2333              	.LVL253:
 2334              	.L265:
 2335              		.align	2
 2336              	.L264:
 2337 03e4 00000000 		.word	.LANCHOR2
 2338 03e8 00000000 		.word	.LANCHOR3
 2339 03ec 00000000 		.word	tcp_tw_pcbs
 2340 03f0 00000000 		.word	tcp_ticks
 2341 03f4 00000000 		.word	.LC0
 2342 03f8 E0000000 		.word	.LC18
 2343 03fc 38000000 		.word	.LC2
 2344 0400 10010000 		.word	.LC19
 2345 0404 38010000 		.word	.LC20
 2346              		.cfi_endproc
 2347              	.LFE172:
ARM GAS  C:\Users\Patryk\AppData\Local\Temp\cc1Vd65O.s 			page 79


 2349              		.section	.text.tcp_pcb_remove,"ax",%progbits
 2350              		.align	1
 2351              		.global	tcp_pcb_remove
 2352              		.syntax unified
 2353              		.thumb
 2354              		.thumb_func
 2355              		.fpu fpv5-sp-d16
 2357              	tcp_pcb_remove:
 2358              	.LFB194:
1852:Middlewares/Third_Party/LwIP/src/core/tcp.c **** 
1853:Middlewares/Third_Party/LwIP/src/core/tcp.c **** /**
1854:Middlewares/Third_Party/LwIP/src/core/tcp.c ****  * Purges the PCB and removes it from a PCB list. Any delayed ACKs are sent first.
1855:Middlewares/Third_Party/LwIP/src/core/tcp.c ****  *
1856:Middlewares/Third_Party/LwIP/src/core/tcp.c ****  * @param pcblist PCB list to purge.
1857:Middlewares/Third_Party/LwIP/src/core/tcp.c ****  * @param pcb tcp_pcb to purge. The pcb itself is NOT deallocated!
1858:Middlewares/Third_Party/LwIP/src/core/tcp.c ****  */
1859:Middlewares/Third_Party/LwIP/src/core/tcp.c **** void
1860:Middlewares/Third_Party/LwIP/src/core/tcp.c **** tcp_pcb_remove(struct tcp_pcb **pcblist, struct tcp_pcb *pcb)
1861:Middlewares/Third_Party/LwIP/src/core/tcp.c **** {
 2359              		.loc 1 1861 0
 2360              		.cfi_startproc
 2361              		@ args = 0, pretend = 0, frame = 0
 2362              		@ frame_needed = 0, uses_anonymous_args = 0
 2363              	.LVL254:
 2364 0000 10B5     		push	{r4, lr}
 2365              	.LCFI27:
 2366              		.cfi_def_cfa_offset 8
 2367              		.cfi_offset 4, -8
 2368              		.cfi_offset 14, -4
 2369 0002 0C46     		mov	r4, r1
1862:Middlewares/Third_Party/LwIP/src/core/tcp.c ****   TCP_RMV(pcblist, pcb);
 2370              		.loc 1 1862 0
 2371 0004 0368     		ldr	r3, [r0]
 2372 0006 8B42     		cmp	r3, r1
 2373 0008 05D0     		beq	.L276
 2374              	.L267:
 2375              	.LVL255:
 2376              	.LBB14:
 2377              		.loc 1 1862 0 is_stmt 0 discriminator 8
 2378 000a 4BB1     		cbz	r3, .L268
 2379              		.loc 1 1862 0 discriminator 9
 2380 000c DA68     		ldr	r2, [r3, #12]
 2381 000e A242     		cmp	r2, r4
 2382 0010 04D0     		beq	.L277
 2383              		.loc 1 1862 0
 2384 0012 1346     		mov	r3, r2
 2385              	.LVL256:
 2386 0014 F9E7     		b	.L267
 2387              	.L276:
 2388              	.LBE14:
 2389              		.loc 1 1862 0 discriminator 1
 2390 0016 DB68     		ldr	r3, [r3, #12]
 2391 0018 0360     		str	r3, [r0]
 2392 001a 01E0     		b	.L268
 2393              	.LVL257:
 2394              	.L277:
 2395              	.LBB15:
ARM GAS  C:\Users\Patryk\AppData\Local\Temp\cc1Vd65O.s 			page 80


 2396              		.loc 1 1862 0 discriminator 5
 2397 001c E268     		ldr	r2, [r4, #12]
 2398 001e DA60     		str	r2, [r3, #12]
 2399              	.LVL258:
 2400              	.L268:
 2401              	.LBE15:
 2402              		.loc 1 1862 0 discriminator 10
 2403 0020 0023     		movs	r3, #0
 2404 0022 E360     		str	r3, [r4, #12]
1863:Middlewares/Third_Party/LwIP/src/core/tcp.c **** 
1864:Middlewares/Third_Party/LwIP/src/core/tcp.c ****   tcp_pcb_purge(pcb);
 2405              		.loc 1 1864 0 is_stmt 1 discriminator 10
 2406 0024 2046     		mov	r0, r4
 2407              	.LVL259:
 2408 0026 FFF7FEFF 		bl	tcp_pcb_purge
 2409              	.LVL260:
1865:Middlewares/Third_Party/LwIP/src/core/tcp.c **** 
1866:Middlewares/Third_Party/LwIP/src/core/tcp.c ****   /* if there is an outstanding delayed ACKs, send it */
1867:Middlewares/Third_Party/LwIP/src/core/tcp.c ****   if (pcb->state != TIME_WAIT &&
 2410              		.loc 1 1867 0 discriminator 10
 2411 002a 237D     		ldrb	r3, [r4, #20]	@ zero_extendqisi2
 2412 002c 0A2B     		cmp	r3, #10
 2413 002e 18BF     		it	ne
 2414 0030 012B     		cmpne	r3, #1
 2415 0032 03D0     		beq	.L270
1868:Middlewares/Third_Party/LwIP/src/core/tcp.c ****      pcb->state != LISTEN &&
1869:Middlewares/Third_Party/LwIP/src/core/tcp.c ****      pcb->flags & TF_ACK_DELAY) {
 2416              		.loc 1 1869 0
 2417 0034 A37E     		ldrb	r3, [r4, #26]	@ zero_extendqisi2
1868:Middlewares/Third_Party/LwIP/src/core/tcp.c ****      pcb->state != LISTEN &&
 2418              		.loc 1 1868 0
 2419 0036 13F0010F 		tst	r3, #1
 2420 003a 21D1     		bne	.L278
 2421              	.L270:
1870:Middlewares/Third_Party/LwIP/src/core/tcp.c ****     pcb->flags |= TF_ACK_NOW;
1871:Middlewares/Third_Party/LwIP/src/core/tcp.c ****     tcp_output(pcb);
1872:Middlewares/Third_Party/LwIP/src/core/tcp.c ****   }
1873:Middlewares/Third_Party/LwIP/src/core/tcp.c **** 
1874:Middlewares/Third_Party/LwIP/src/core/tcp.c ****   if (pcb->state != LISTEN) {
 2422              		.loc 1 1874 0
 2423 003c 237D     		ldrb	r3, [r4, #20]	@ zero_extendqisi2
 2424 003e 012B     		cmp	r3, #1
 2425 0040 1AD0     		beq	.L271
1875:Middlewares/Third_Party/LwIP/src/core/tcp.c ****     LWIP_ASSERT("unsent segments leaking", pcb->unsent == NULL);
 2426              		.loc 1 1875 0
 2427 0042 A36E     		ldr	r3, [r4, #104]
 2428 0044 33B1     		cbz	r3, .L272
 2429              		.loc 1 1875 0 is_stmt 0 discriminator 1
 2430 0046 124B     		ldr	r3, .L279
 2431 0048 40F25372 		movw	r2, #1875
 2432 004c 1149     		ldr	r1, .L279+4
 2433 004e 1248     		ldr	r0, .L279+8
 2434 0050 FFF7FEFF 		bl	printf
 2435              	.LVL261:
 2436              	.L272:
1876:Middlewares/Third_Party/LwIP/src/core/tcp.c ****     LWIP_ASSERT("unacked segments leaking", pcb->unacked == NULL);
 2437              		.loc 1 1876 0 is_stmt 1
ARM GAS  C:\Users\Patryk\AppData\Local\Temp\cc1Vd65O.s 			page 81


 2438 0054 E36E     		ldr	r3, [r4, #108]
 2439 0056 33B1     		cbz	r3, .L273
 2440              		.loc 1 1876 0 is_stmt 0 discriminator 1
 2441 0058 0D4B     		ldr	r3, .L279
 2442 005a 40F25472 		movw	r2, #1876
 2443 005e 0F49     		ldr	r1, .L279+12
 2444 0060 0D48     		ldr	r0, .L279+8
 2445 0062 FFF7FEFF 		bl	printf
 2446              	.LVL262:
 2447              	.L273:
1877:Middlewares/Third_Party/LwIP/src/core/tcp.c **** #if TCP_QUEUE_OOSEQ
1878:Middlewares/Third_Party/LwIP/src/core/tcp.c ****     LWIP_ASSERT("ooseq segments leaking", pcb->ooseq == NULL);
 2448              		.loc 1 1878 0 is_stmt 1
 2449 0066 236F     		ldr	r3, [r4, #112]
 2450 0068 33B1     		cbz	r3, .L271
 2451              		.loc 1 1878 0 is_stmt 0 discriminator 1
 2452 006a 094B     		ldr	r3, .L279
 2453 006c 40F25672 		movw	r2, #1878
 2454 0070 0B49     		ldr	r1, .L279+16
 2455 0072 0948     		ldr	r0, .L279+8
 2456 0074 FFF7FEFF 		bl	printf
 2457              	.LVL263:
 2458              	.L271:
1879:Middlewares/Third_Party/LwIP/src/core/tcp.c **** #endif /* TCP_QUEUE_OOSEQ */
1880:Middlewares/Third_Party/LwIP/src/core/tcp.c ****   }
1881:Middlewares/Third_Party/LwIP/src/core/tcp.c **** 
1882:Middlewares/Third_Party/LwIP/src/core/tcp.c ****   pcb->state = CLOSED;
 2459              		.loc 1 1882 0 is_stmt 1
 2460 0078 0023     		movs	r3, #0
 2461 007a 2375     		strb	r3, [r4, #20]
1883:Middlewares/Third_Party/LwIP/src/core/tcp.c ****   /* reset the local port to prevent the pcb from being 'bound' */
1884:Middlewares/Third_Party/LwIP/src/core/tcp.c ****   pcb->local_port = 0;
 2462              		.loc 1 1884 0
 2463 007c E382     		strh	r3, [r4, #22]	@ movhi
1885:Middlewares/Third_Party/LwIP/src/core/tcp.c **** 
1886:Middlewares/Third_Party/LwIP/src/core/tcp.c ****   LWIP_ASSERT("tcp_pcb_remove: tcp_pcbs_sane()", tcp_pcbs_sane());
1887:Middlewares/Third_Party/LwIP/src/core/tcp.c **** }
 2464              		.loc 1 1887 0
 2465 007e 10BD     		pop	{r4, pc}
 2466              	.LVL264:
 2467              	.L278:
1870:Middlewares/Third_Party/LwIP/src/core/tcp.c ****     tcp_output(pcb);
 2468              		.loc 1 1870 0
 2469 0080 43F00203 		orr	r3, r3, #2
 2470 0084 A376     		strb	r3, [r4, #26]
1871:Middlewares/Third_Party/LwIP/src/core/tcp.c ****   }
 2471              		.loc 1 1871 0
 2472 0086 2046     		mov	r0, r4
 2473 0088 FFF7FEFF 		bl	tcp_output
 2474              	.LVL265:
 2475 008c D6E7     		b	.L270
 2476              	.L280:
 2477 008e 00BF     		.align	2
 2478              	.L279:
 2479 0090 00000000 		.word	.LC0
 2480 0094 00000000 		.word	.LC21
 2481 0098 38000000 		.word	.LC2
ARM GAS  C:\Users\Patryk\AppData\Local\Temp\cc1Vd65O.s 			page 82


 2482 009c 18000000 		.word	.LC22
 2483 00a0 34000000 		.word	.LC23
 2484              		.cfi_endproc
 2485              	.LFE194:
 2487              		.section	.text.tcp_close_shutdown,"ax",%progbits
 2488              		.align	1
 2489              		.syntax unified
 2490              		.thumb
 2491              		.thumb_func
 2492              		.fpu fpv5-sp-d16
 2494              	tcp_close_shutdown:
 2495              	.LFB158:
 266:Middlewares/Third_Party/LwIP/src/core/tcp.c ****   if (rst_on_unacked_data && ((pcb->state == ESTABLISHED) || (pcb->state == CLOSE_WAIT))) {
 2496              		.loc 1 266 0
 2497              		.cfi_startproc
 2498              		@ args = 0, pretend = 0, frame = 0
 2499              		@ frame_needed = 0, uses_anonymous_args = 0
 2500              	.LVL266:
 2501 0000 10B5     		push	{r4, lr}
 2502              	.LCFI28:
 2503              		.cfi_def_cfa_offset 8
 2504              		.cfi_offset 4, -8
 2505              		.cfi_offset 14, -4
 2506 0002 82B0     		sub	sp, sp, #8
 2507              	.LCFI29:
 2508              		.cfi_def_cfa_offset 16
 2509 0004 0446     		mov	r4, r0
 267:Middlewares/Third_Party/LwIP/src/core/tcp.c ****     if ((pcb->refused_data != NULL) || (pcb->rcv_wnd != TCP_WND_MAX(pcb))) {
 2510              		.loc 1 267 0
 2511 0006 29B3     		cbz	r1, .L282
 267:Middlewares/Third_Party/LwIP/src/core/tcp.c ****     if ((pcb->refused_data != NULL) || (pcb->rcv_wnd != TCP_WND_MAX(pcb))) {
 2512              		.loc 1 267 0 is_stmt 0 discriminator 1
 2513 0008 037D     		ldrb	r3, [r0, #20]	@ zero_extendqisi2
 2514 000a 072B     		cmp	r3, #7
 2515 000c 18BF     		it	ne
 2516 000e 042B     		cmpne	r3, #4
 2517 0010 20D1     		bne	.L282
 268:Middlewares/Third_Party/LwIP/src/core/tcp.c ****       /* Not all data received by application, send RST to tell the remote
 2518              		.loc 1 268 0 is_stmt 1
 2519 0012 436F     		ldr	r3, [r0, #116]
 2520 0014 D3B1     		cbz	r3, .L303
 2521              	.L283:
 271:Middlewares/Third_Party/LwIP/src/core/tcp.c **** 
 2522              		.loc 1 271 0
 2523 0016 A37E     		ldrb	r3, [r4, #26]	@ zero_extendqisi2
 2524 0018 13F0100F 		tst	r3, #16
 2525 001c 25D0     		beq	.L304
 2526              	.LVL267:
 2527              	.L284:
 275:Middlewares/Third_Party/LwIP/src/core/tcp.c ****                pcb->local_port, pcb->remote_port);
 2528              		.loc 1 275 0
 2529 001e 238B     		ldrh	r3, [r4, #24]
 2530 0020 0193     		str	r3, [sp, #4]
 2531 0022 E38A     		ldrh	r3, [r4, #22]
 2532 0024 0093     		str	r3, [sp]
 2533 0026 231D     		adds	r3, r4, #4
 2534 0028 2246     		mov	r2, r4
ARM GAS  C:\Users\Patryk\AppData\Local\Temp\cc1Vd65O.s 			page 83


 2535 002a 616A     		ldr	r1, [r4, #36]
 2536 002c E06C     		ldr	r0, [r4, #76]
 2537 002e FFF7FEFF 		bl	tcp_rst
 2538              	.LVL268:
 278:Middlewares/Third_Party/LwIP/src/core/tcp.c ****       TCP_RMV_ACTIVE(pcb);
 2539              		.loc 1 278 0
 2540 0032 2046     		mov	r0, r4
 2541 0034 FFF7FEFF 		bl	tcp_pcb_purge
 2542              	.LVL269:
 279:Middlewares/Third_Party/LwIP/src/core/tcp.c ****       if (pcb->state == ESTABLISHED) {
 2543              		.loc 1 279 0
 2544 0038 3D4B     		ldr	r3, .L311
 2545 003a 1B68     		ldr	r3, [r3]
 2546 003c A342     		cmp	r3, r4
 2547 003e 1CD0     		beq	.L305
 2548              	.L285:
 2549              	.LVL270:
 2550              	.LBB16:
 279:Middlewares/Third_Party/LwIP/src/core/tcp.c ****       if (pcb->state == ESTABLISHED) {
 2551              		.loc 1 279 0 is_stmt 0 discriminator 8
 2552 0040 0BB3     		cbz	r3, .L286
 279:Middlewares/Third_Party/LwIP/src/core/tcp.c ****       if (pcb->state == ESTABLISHED) {
 2553              		.loc 1 279 0 discriminator 9
 2554 0042 DA68     		ldr	r2, [r3, #12]
 2555 0044 A242     		cmp	r2, r4
 2556 0046 1CD0     		beq	.L306
 279:Middlewares/Third_Party/LwIP/src/core/tcp.c ****       if (pcb->state == ESTABLISHED) {
 2557              		.loc 1 279 0
 2558 0048 1346     		mov	r3, r2
 2559              	.LVL271:
 2560 004a F9E7     		b	.L285
 2561              	.LVL272:
 2562              	.L303:
 2563              	.LBE16:
 268:Middlewares/Third_Party/LwIP/src/core/tcp.c ****       /* Not all data received by application, send RST to tell the remote
 2564              		.loc 1 268 0 is_stmt 1 discriminator 1
 2565 004c 038D     		ldrh	r3, [r0, #40]
 2566 004e B3F5066F 		cmp	r3, #2144
 2567 0052 E0D1     		bne	.L283
 2568              	.L282:
 299:Middlewares/Third_Party/LwIP/src/core/tcp.c ****   case CLOSED:
 2569              		.loc 1 299 0
 2570 0054 237D     		ldrb	r3, [r4, #20]	@ zero_extendqisi2
 2571 0056 012B     		cmp	r3, #1
 2572 0058 50D0     		beq	.L292
 2573 005a 002B     		cmp	r3, #0
 2574 005c 33D0     		beq	.L293
 2575 005e 022B     		cmp	r3, #2
 2576 0060 59D0     		beq	.L294
 324:Middlewares/Third_Party/LwIP/src/core/tcp.c ****   }
 2577              		.loc 1 324 0
 2578 0062 2046     		mov	r0, r4
 2579              	.LVL273:
 2580 0064 FFF7FEFF 		bl	tcp_close_shutdown_fin
 2581              	.LVL274:
 2582 0068 46E0     		b	.L289
 2583              	.LVL275:
ARM GAS  C:\Users\Patryk\AppData\Local\Temp\cc1Vd65O.s 			page 84


 2584              	.L304:
 271:Middlewares/Third_Party/LwIP/src/core/tcp.c **** 
 2585              		.loc 1 271 0 discriminator 1
 2586 006a 324B     		ldr	r3, .L311+4
 2587 006c 40F20F12 		movw	r2, #271
 2588 0070 3149     		ldr	r1, .L311+8
 2589              	.LVL276:
 2590 0072 3248     		ldr	r0, .L311+12
 2591              	.LVL277:
 2592 0074 FFF7FEFF 		bl	printf
 2593              	.LVL278:
 2594 0078 D1E7     		b	.L284
 2595              	.L305:
 279:Middlewares/Third_Party/LwIP/src/core/tcp.c ****       if (pcb->state == ESTABLISHED) {
 2596              		.loc 1 279 0 discriminator 1
 2597 007a DA68     		ldr	r2, [r3, #12]
 2598 007c 2C4B     		ldr	r3, .L311
 2599 007e 1A60     		str	r2, [r3]
 2600 0080 01E0     		b	.L286
 2601              	.LVL279:
 2602              	.L306:
 2603              	.LBB17:
 279:Middlewares/Third_Party/LwIP/src/core/tcp.c ****       if (pcb->state == ESTABLISHED) {
 2604              		.loc 1 279 0 is_stmt 0 discriminator 5
 2605 0082 E268     		ldr	r2, [r4, #12]
 2606 0084 DA60     		str	r2, [r3, #12]
 2607              	.LVL280:
 2608              	.L286:
 2609              	.LBE17:
 279:Middlewares/Third_Party/LwIP/src/core/tcp.c ****       if (pcb->state == ESTABLISHED) {
 2610              		.loc 1 279 0 discriminator 10
 2611 0086 0023     		movs	r3, #0
 2612 0088 E360     		str	r3, [r4, #12]
 2613 008a 2D4B     		ldr	r3, .L311+16
 2614 008c 0122     		movs	r2, #1
 2615 008e 1A70     		strb	r2, [r3]
 280:Middlewares/Third_Party/LwIP/src/core/tcp.c ****         /* move to TIME_WAIT since we close actively */
 2616              		.loc 1 280 0 is_stmt 1 discriminator 10
 2617 0090 237D     		ldrb	r3, [r4, #20]	@ zero_extendqisi2
 2618 0092 042B     		cmp	r3, #4
 2619 0094 09D0     		beq	.L307
 286:Middlewares/Third_Party/LwIP/src/core/tcp.c ****           /* prevent using a deallocated pcb: free it from tcp_input later */
 2620              		.loc 1 286 0
 2621 0096 2B4B     		ldr	r3, .L311+20
 2622 0098 1B68     		ldr	r3, [r3]
 2623 009a A342     		cmp	r3, r4
 2624 009c 0FD0     		beq	.L308
 290:Middlewares/Third_Party/LwIP/src/core/tcp.c ****         }
 2625              		.loc 1 290 0
 2626 009e 2146     		mov	r1, r4
 2627 00a0 0120     		movs	r0, #1
 2628 00a2 FFF7FEFF 		bl	memp_free
 2629              	.LVL281:
 293:Middlewares/Third_Party/LwIP/src/core/tcp.c ****     }
 2630              		.loc 1 293 0
 2631 00a6 0020     		movs	r0, #0
 2632 00a8 26E0     		b	.L289
ARM GAS  C:\Users\Patryk\AppData\Local\Temp\cc1Vd65O.s 			page 85


 2633              	.L307:
 282:Middlewares/Third_Party/LwIP/src/core/tcp.c ****         TCP_REG(&tcp_tw_pcbs, pcb);
 2634              		.loc 1 282 0
 2635 00aa 0A23     		movs	r3, #10
 2636 00ac 2375     		strb	r3, [r4, #20]
 283:Middlewares/Third_Party/LwIP/src/core/tcp.c ****       } else {
 2637              		.loc 1 283 0
 2638 00ae 264B     		ldr	r3, .L311+24
 2639 00b0 1A68     		ldr	r2, [r3]
 2640 00b2 E260     		str	r2, [r4, #12]
 2641 00b4 1C60     		str	r4, [r3]
 2642 00b6 FFF7FEFF 		bl	tcp_timer_needed
 2643              	.LVL282:
 293:Middlewares/Third_Party/LwIP/src/core/tcp.c ****     }
 2644              		.loc 1 293 0
 2645 00ba 0020     		movs	r0, #0
 2646 00bc 1CE0     		b	.L289
 2647              	.L308:
 288:Middlewares/Third_Party/LwIP/src/core/tcp.c ****         } else {
 2648              		.loc 1 288 0
 2649 00be FFF7FEFF 		bl	tcp_trigger_input_pcb_close
 2650              	.LVL283:
 293:Middlewares/Third_Party/LwIP/src/core/tcp.c ****     }
 2651              		.loc 1 293 0
 2652 00c2 0020     		movs	r0, #0
 2653 00c4 18E0     		b	.L289
 2654              	.LVL284:
 2655              	.L293:
 308:Middlewares/Third_Party/LwIP/src/core/tcp.c ****       TCP_RMV(&tcp_bound_pcbs, pcb);
 2656              		.loc 1 308 0
 2657 00c6 E38A     		ldrh	r3, [r4, #22]
 2658 00c8 8BB1     		cbz	r3, .L295
 309:Middlewares/Third_Party/LwIP/src/core/tcp.c ****     }
 2659              		.loc 1 309 0
 2660 00ca 204B     		ldr	r3, .L311+28
 2661 00cc 1B68     		ldr	r3, [r3]
 2662 00ce A342     		cmp	r3, r4
 2663 00d0 05D0     		beq	.L309
 2664              	.L296:
 2665              	.LVL285:
 2666              	.LBB18:
 309:Middlewares/Third_Party/LwIP/src/core/tcp.c ****     }
 2667              		.loc 1 309 0 is_stmt 0 discriminator 8
 2668 00d2 53B1     		cbz	r3, .L297
 309:Middlewares/Third_Party/LwIP/src/core/tcp.c ****     }
 2669              		.loc 1 309 0 discriminator 9
 2670 00d4 DA68     		ldr	r2, [r3, #12]
 2671 00d6 A242     		cmp	r2, r4
 2672 00d8 05D0     		beq	.L310
 309:Middlewares/Third_Party/LwIP/src/core/tcp.c ****     }
 2673              		.loc 1 309 0
 2674 00da 1346     		mov	r3, r2
 2675              	.LVL286:
 2676 00dc F9E7     		b	.L296
 2677              	.L309:
 2678              	.LBE18:
 309:Middlewares/Third_Party/LwIP/src/core/tcp.c ****     }
ARM GAS  C:\Users\Patryk\AppData\Local\Temp\cc1Vd65O.s 			page 86


 2679              		.loc 1 309 0 discriminator 1
 2680 00de DA68     		ldr	r2, [r3, #12]
 2681 00e0 1A4B     		ldr	r3, .L311+28
 2682 00e2 1A60     		str	r2, [r3]
 2683 00e4 01E0     		b	.L297
 2684              	.LVL287:
 2685              	.L310:
 2686              	.LBB19:
 309:Middlewares/Third_Party/LwIP/src/core/tcp.c ****     }
 2687              		.loc 1 309 0 discriminator 5
 2688 00e6 E268     		ldr	r2, [r4, #12]
 2689 00e8 DA60     		str	r2, [r3, #12]
 2690              	.LVL288:
 2691              	.L297:
 2692              	.LBE19:
 309:Middlewares/Third_Party/LwIP/src/core/tcp.c ****     }
 2693              		.loc 1 309 0 discriminator 10
 2694 00ea 0023     		movs	r3, #0
 2695 00ec E360     		str	r3, [r4, #12]
 2696              	.L295:
 311:Middlewares/Third_Party/LwIP/src/core/tcp.c ****     break;
 2697              		.loc 1 311 0 is_stmt 1
 2698 00ee 2146     		mov	r1, r4
 2699              	.LVL289:
 2700 00f0 0120     		movs	r0, #1
 2701              	.LVL290:
 2702 00f2 FFF7FEFF 		bl	memp_free
 2703              	.LVL291:
 326:Middlewares/Third_Party/LwIP/src/core/tcp.c **** }
 2704              		.loc 1 326 0
 2705 00f6 0020     		movs	r0, #0
 2706              	.L289:
 327:Middlewares/Third_Party/LwIP/src/core/tcp.c **** 
 2707              		.loc 1 327 0
 2708 00f8 02B0     		add	sp, sp, #8
 2709              	.LCFI30:
 2710              		.cfi_remember_state
 2711              		.cfi_def_cfa_offset 8
 2712              		@ sp needed
 2713 00fa 10BD     		pop	{r4, pc}
 2714              	.LVL292:
 2715              	.L292:
 2716              	.LCFI31:
 2717              		.cfi_restore_state
 314:Middlewares/Third_Party/LwIP/src/core/tcp.c ****     tcp_pcb_remove(&tcp_listen_pcbs.pcbs, pcb);
 2718              		.loc 1 314 0
 2719 00fc 2046     		mov	r0, r4
 2720              	.LVL293:
 2721 00fe FFF7FEFF 		bl	tcp_listen_closed
 2722              	.LVL294:
 315:Middlewares/Third_Party/LwIP/src/core/tcp.c ****     memp_free(MEMP_TCP_PCB_LISTEN, pcb);
 2723              		.loc 1 315 0
 2724 0102 2146     		mov	r1, r4
 2725 0104 1248     		ldr	r0, .L311+32
 2726 0106 FFF7FEFF 		bl	tcp_pcb_remove
 2727              	.LVL295:
 316:Middlewares/Third_Party/LwIP/src/core/tcp.c ****     break;
ARM GAS  C:\Users\Patryk\AppData\Local\Temp\cc1Vd65O.s 			page 87


 2728              		.loc 1 316 0
 2729 010a 2146     		mov	r1, r4
 2730 010c 0220     		movs	r0, #2
 2731 010e FFF7FEFF 		bl	memp_free
 2732              	.LVL296:
 326:Middlewares/Third_Party/LwIP/src/core/tcp.c **** }
 2733              		.loc 1 326 0
 2734 0112 0020     		movs	r0, #0
 317:Middlewares/Third_Party/LwIP/src/core/tcp.c ****   case SYN_SENT:
 2735              		.loc 1 317 0
 2736 0114 F0E7     		b	.L289
 2737              	.LVL297:
 2738              	.L294:
 319:Middlewares/Third_Party/LwIP/src/core/tcp.c ****     memp_free(MEMP_TCP_PCB, pcb);
 2739              		.loc 1 319 0
 2740 0116 2146     		mov	r1, r4
 2741              	.LVL298:
 2742 0118 0548     		ldr	r0, .L311
 2743              	.LVL299:
 2744 011a FFF7FEFF 		bl	tcp_pcb_remove
 2745              	.LVL300:
 2746 011e 0120     		movs	r0, #1
 2747 0120 074B     		ldr	r3, .L311+16
 2748 0122 1870     		strb	r0, [r3]
 320:Middlewares/Third_Party/LwIP/src/core/tcp.c ****     MIB2_STATS_INC(mib2.tcpattemptfails);
 2749              		.loc 1 320 0
 2750 0124 2146     		mov	r1, r4
 2751 0126 FFF7FEFF 		bl	memp_free
 2752              	.LVL301:
 326:Middlewares/Third_Party/LwIP/src/core/tcp.c **** }
 2753              		.loc 1 326 0
 2754 012a 0020     		movs	r0, #0
 322:Middlewares/Third_Party/LwIP/src/core/tcp.c ****   default:
 2755              		.loc 1 322 0
 2756 012c E4E7     		b	.L289
 2757              	.L312:
 2758 012e 00BF     		.align	2
 2759              	.L311:
 2760 0130 00000000 		.word	tcp_active_pcbs
 2761 0134 00000000 		.word	.LC0
 2762 0138 00000000 		.word	.LC24
 2763 013c 38000000 		.word	.LC2
 2764 0140 00000000 		.word	tcp_active_pcbs_changed
 2765 0144 00000000 		.word	tcp_input_pcb
 2766 0148 00000000 		.word	tcp_tw_pcbs
 2767 014c 00000000 		.word	tcp_bound_pcbs
 2768 0150 00000000 		.word	tcp_listen_pcbs
 2769              		.cfi_endproc
 2770              	.LFE158:
 2772              		.section	.text.tcp_close,"ax",%progbits
 2773              		.align	1
 2774              		.global	tcp_close
 2775              		.syntax unified
 2776              		.thumb
 2777              		.thumb_func
 2778              		.fpu fpv5-sp-d16
 2780              	tcp_close:
ARM GAS  C:\Users\Patryk\AppData\Local\Temp\cc1Vd65O.s 			page 88


 2781              	.LFB160:
 400:Middlewares/Third_Party/LwIP/src/core/tcp.c ****   LWIP_DEBUGF(TCP_DEBUG, ("tcp_close: closing in "));
 2782              		.loc 1 400 0
 2783              		.cfi_startproc
 2784              		@ args = 0, pretend = 0, frame = 0
 2785              		@ frame_needed = 0, uses_anonymous_args = 0
 2786              	.LVL302:
 2787 0000 08B5     		push	{r3, lr}
 2788              	.LCFI32:
 2789              		.cfi_def_cfa_offset 8
 2790              		.cfi_offset 3, -8
 2791              		.cfi_offset 14, -4
 404:Middlewares/Third_Party/LwIP/src/core/tcp.c ****     /* Set a flag not to receive any more data... */
 2792              		.loc 1 404 0
 2793 0002 037D     		ldrb	r3, [r0, #20]	@ zero_extendqisi2
 2794 0004 012B     		cmp	r3, #1
 2795 0006 03D0     		beq	.L314
 406:Middlewares/Third_Party/LwIP/src/core/tcp.c ****   }
 2796              		.loc 1 406 0
 2797 0008 837E     		ldrb	r3, [r0, #26]	@ zero_extendqisi2
 2798 000a 43F01003 		orr	r3, r3, #16
 2799 000e 8376     		strb	r3, [r0, #26]
 2800              	.L314:
 409:Middlewares/Third_Party/LwIP/src/core/tcp.c **** }
 2801              		.loc 1 409 0
 2802 0010 0121     		movs	r1, #1
 2803 0012 FFF7FEFF 		bl	tcp_close_shutdown
 2804              	.LVL303:
 410:Middlewares/Third_Party/LwIP/src/core/tcp.c **** 
 2805              		.loc 1 410 0
 2806 0016 08BD     		pop	{r3, pc}
 2807              		.cfi_endproc
 2808              	.LFE160:
 2810              		.section	.text.tcp_recv_null,"ax",%progbits
 2811              		.align	1
 2812              		.global	tcp_recv_null
 2813              		.syntax unified
 2814              		.thumb
 2815              		.thumb_func
 2816              		.fpu fpv5-sp-d16
 2818              	tcp_recv_null:
 2819              	.LFB180:
1445:Middlewares/Third_Party/LwIP/src/core/tcp.c ****   LWIP_UNUSED_ARG(arg);
 2820              		.loc 1 1445 0
 2821              		.cfi_startproc
 2822              		@ args = 0, pretend = 0, frame = 0
 2823              		@ frame_needed = 0, uses_anonymous_args = 0
 2824              	.LVL304:
 2825 0000 10B5     		push	{r4, lr}
 2826              	.LCFI33:
 2827              		.cfi_def_cfa_offset 8
 2828              		.cfi_offset 4, -8
 2829              		.cfi_offset 14, -4
 2830 0002 0846     		mov	r0, r1
 2831              	.LVL305:
1447:Middlewares/Third_Party/LwIP/src/core/tcp.c ****     tcp_recved(pcb, p->tot_len);
 2832              		.loc 1 1447 0
ARM GAS  C:\Users\Patryk\AppData\Local\Temp\cc1Vd65O.s 			page 89


 2833 0004 12B9     		cbnz	r2, .L321
1450:Middlewares/Third_Party/LwIP/src/core/tcp.c ****     return tcp_close(pcb);
 2834              		.loc 1 1450 0
 2835 0006 53B1     		cbz	r3, .L322
1453:Middlewares/Third_Party/LwIP/src/core/tcp.c **** }
 2836              		.loc 1 1453 0
 2837 0008 0020     		movs	r0, #0
 2838 000a 07E0     		b	.L318
 2839              	.LVL306:
 2840              	.L321:
 2841 000c 1446     		mov	r4, r2
1448:Middlewares/Third_Party/LwIP/src/core/tcp.c ****     pbuf_free(p);
 2842              		.loc 1 1448 0
 2843 000e 1189     		ldrh	r1, [r2, #8]
 2844 0010 FFF7FEFF 		bl	tcp_recved
 2845              	.LVL307:
1449:Middlewares/Third_Party/LwIP/src/core/tcp.c ****   } else if (err == ERR_OK) {
 2846              		.loc 1 1449 0
 2847 0014 2046     		mov	r0, r4
 2848 0016 FFF7FEFF 		bl	pbuf_free
 2849              	.LVL308:
1453:Middlewares/Third_Party/LwIP/src/core/tcp.c **** }
 2850              		.loc 1 1453 0
 2851 001a 0020     		movs	r0, #0
 2852              	.LVL309:
 2853              	.L318:
1454:Middlewares/Third_Party/LwIP/src/core/tcp.c **** #endif /* LWIP_CALLBACK_API */
 2854              		.loc 1 1454 0
 2855 001c 10BD     		pop	{r4, pc}
 2856              	.LVL310:
 2857              	.L322:
1451:Middlewares/Third_Party/LwIP/src/core/tcp.c ****   }
 2858              		.loc 1 1451 0
 2859 001e FFF7FEFF 		bl	tcp_close
 2860              	.LVL311:
 2861 0022 FBE7     		b	.L318
 2862              		.cfi_endproc
 2863              	.LFE180:
 2865              		.section	.text.tcp_process_refused_data,"ax",%progbits
 2866              		.align	1
 2867              		.global	tcp_process_refused_data
 2868              		.syntax unified
 2869              		.thumb
 2870              		.thumb_func
 2871              		.fpu fpv5-sp-d16
 2873              	tcp_process_refused_data:
 2874              	.LFB175:
1312:Middlewares/Third_Party/LwIP/src/core/tcp.c **** #if TCP_QUEUE_OOSEQ && LWIP_WND_SCALE
 2875              		.loc 1 1312 0
 2876              		.cfi_startproc
 2877              		@ args = 0, pretend = 0, frame = 0
 2878              		@ frame_needed = 0, uses_anonymous_args = 0
 2879              	.LVL312:
 2880 0000 F8B5     		push	{r3, r4, r5, r6, r7, lr}
 2881              	.LCFI34:
 2882              		.cfi_def_cfa_offset 24
 2883              		.cfi_offset 3, -24
ARM GAS  C:\Users\Patryk\AppData\Local\Temp\cc1Vd65O.s 			page 90


 2884              		.cfi_offset 4, -20
 2885              		.cfi_offset 5, -16
 2886              		.cfi_offset 6, -12
 2887              		.cfi_offset 7, -8
 2888              		.cfi_offset 14, -4
 2889 0002 0446     		mov	r4, r0
 2890              	.LBB20:
1319:Middlewares/Third_Party/LwIP/src/core/tcp.c ****     /* set pcb->refused_data to NULL in case the callback frees it and then
 2891              		.loc 1 1319 0
 2892 0004 466F     		ldr	r6, [r0, #116]
 2893 0006 777B     		ldrb	r7, [r6, #13]	@ zero_extendqisi2
 2894              	.LVL313:
1327:Middlewares/Third_Party/LwIP/src/core/tcp.c **** #endif /* TCP_QUEUE_OOSEQ && LWIP_WND_SCALE */
 2895              		.loc 1 1327 0
 2896 0008 0023     		movs	r3, #0
 2897 000a 4367     		str	r3, [r0, #116]
1331:Middlewares/Third_Party/LwIP/src/core/tcp.c ****     if (err == ERR_OK) {
 2898              		.loc 1 1331 0
 2899 000c D0F88050 		ldr	r5, [r0, #128]
 2900 0010 DDB1     		cbz	r5, .L324
1331:Middlewares/Third_Party/LwIP/src/core/tcp.c ****     if (err == ERR_OK) {
 2901              		.loc 1 1331 0 is_stmt 0 discriminator 1
 2902 0012 3246     		mov	r2, r6
 2903 0014 0146     		mov	r1, r0
 2904 0016 0069     		ldr	r0, [r0, #16]
 2905              	.LVL314:
 2906 0018 A847     		blx	r5
 2907              	.LVL315:
 2908 001a 0546     		mov	r5, r0
 2909              	.LVL316:
 2910              	.L325:
1332:Middlewares/Third_Party/LwIP/src/core/tcp.c ****       /* did refused_data include a FIN? */
 2911              		.loc 1 1332 0 is_stmt 1
 2912 001c EDB9     		cbnz	r5, .L326
1334:Middlewares/Third_Party/LwIP/src/core/tcp.c **** #if TCP_QUEUE_OOSEQ && LWIP_WND_SCALE
 2913              		.loc 1 1334 0
 2914 001e 17F0200F 		tst	r7, #32
 2915 0022 20D0     		beq	.L327
1341:Middlewares/Third_Party/LwIP/src/core/tcp.c ****           pcb->rcv_wnd++;
 2916              		.loc 1 1341 0
 2917 0024 238D     		ldrh	r3, [r4, #40]
 2918 0026 B3F5066F 		cmp	r3, #2144
 2919 002a 01D0     		beq	.L328
1342:Middlewares/Third_Party/LwIP/src/core/tcp.c ****         }
 2920              		.loc 1 1342 0
 2921 002c 0133     		adds	r3, r3, #1
 2922 002e 2385     		strh	r3, [r4, #40]	@ movhi
 2923              	.L328:
1344:Middlewares/Third_Party/LwIP/src/core/tcp.c ****         if (err == ERR_ABRT) {
 2924              		.loc 1 1344 0
 2925 0030 D4F88060 		ldr	r6, [r4, #128]
 2926              	.LVL317:
 2927 0034 BEB1     		cbz	r6, .L327
1344:Middlewares/Third_Party/LwIP/src/core/tcp.c ****         if (err == ERR_ABRT) {
 2928              		.loc 1 1344 0 is_stmt 0 discriminator 1
 2929 0036 0023     		movs	r3, #0
 2930 0038 1A46     		mov	r2, r3
ARM GAS  C:\Users\Patryk\AppData\Local\Temp\cc1Vd65O.s 			page 91


 2931 003a 2146     		mov	r1, r4
 2932 003c 2069     		ldr	r0, [r4, #16]
 2933 003e B047     		blx	r6
 2934              	.LVL318:
1345:Middlewares/Third_Party/LwIP/src/core/tcp.c ****           return ERR_ABRT;
 2935              		.loc 1 1345 0 is_stmt 1 discriminator 1
 2936 0040 10F10D0F 		cmn	r0, #13
 2937 0044 0FD1     		bne	.L327
1346:Middlewares/Third_Party/LwIP/src/core/tcp.c ****         }
 2938              		.loc 1 1346 0
 2939 0046 0546     		mov	r5, r0
 2940 0048 0DE0     		b	.L327
 2941              	.LVL319:
 2942              	.L324:
1331:Middlewares/Third_Party/LwIP/src/core/tcp.c ****     if (err == ERR_OK) {
 2943              		.loc 1 1331 0 discriminator 2
 2944 004a 0023     		movs	r3, #0
 2945 004c 3246     		mov	r2, r6
 2946 004e 0146     		mov	r1, r0
 2947 0050 1846     		mov	r0, r3
 2948              	.LVL320:
 2949 0052 FFF7FEFF 		bl	tcp_recv_null
 2950              	.LVL321:
 2951 0056 0546     		mov	r5, r0
 2952              	.LVL322:
 2953 0058 E0E7     		b	.L325
 2954              	.L326:
1349:Middlewares/Third_Party/LwIP/src/core/tcp.c ****       /* if err == ERR_ABRT, 'pcb' is already deallocated */
 2955              		.loc 1 1349 0
 2956 005a 15F10D0F 		cmn	r5, #13
 2957 005e 02D0     		beq	.L327
1362:Middlewares/Third_Party/LwIP/src/core/tcp.c ****       return ERR_INPROGRESS;
 2958              		.loc 1 1362 0
 2959 0060 6667     		str	r6, [r4, #116]
1363:Middlewares/Third_Party/LwIP/src/core/tcp.c ****     }
 2960              		.loc 1 1363 0
 2961 0062 6FF00405 		mvn	r5, #4
 2962              	.LVL323:
 2963              	.L327:
 2964              	.LBE20:
1367:Middlewares/Third_Party/LwIP/src/core/tcp.c **** 
 2965              		.loc 1 1367 0
 2966 0066 2846     		mov	r0, r5
 2967 0068 F8BD     		pop	{r3, r4, r5, r6, r7, pc}
 2968              		.cfi_endproc
 2969              	.LFE175:
 2971              		.section	.text.tcp_fasttmr,"ax",%progbits
 2972              		.align	1
 2973              		.global	tcp_fasttmr
 2974              		.syntax unified
 2975              		.thumb
 2976              		.thumb_func
 2977              		.fpu fpv5-sp-d16
 2979              	tcp_fasttmr:
 2980              	.LFB173:
1252:Middlewares/Third_Party/LwIP/src/core/tcp.c ****   struct tcp_pcb *pcb;
 2981              		.loc 1 1252 0
ARM GAS  C:\Users\Patryk\AppData\Local\Temp\cc1Vd65O.s 			page 92


 2982              		.cfi_startproc
 2983              		@ args = 0, pretend = 0, frame = 0
 2984              		@ frame_needed = 0, uses_anonymous_args = 0
 2985 0000 70B5     		push	{r4, r5, r6, lr}
 2986              	.LCFI35:
 2987              		.cfi_def_cfa_offset 16
 2988              		.cfi_offset 4, -16
 2989              		.cfi_offset 5, -12
 2990              		.cfi_offset 6, -8
 2991              		.cfi_offset 14, -4
1255:Middlewares/Third_Party/LwIP/src/core/tcp.c **** 
 2992              		.loc 1 1255 0
 2993 0002 1C4A     		ldr	r2, .L342
 2994 0004 1378     		ldrb	r3, [r2]	@ zero_extendqisi2
 2995 0006 0133     		adds	r3, r3, #1
 2996 0008 1370     		strb	r3, [r2]
 2997              	.L331:
1258:Middlewares/Third_Party/LwIP/src/core/tcp.c **** 
 2998              		.loc 1 1258 0
 2999 000a 1B4B     		ldr	r3, .L342+4
 3000 000c 1C68     		ldr	r4, [r3]
 3001              	.LVL324:
1260:Middlewares/Third_Party/LwIP/src/core/tcp.c ****     if (pcb->last_timer != tcp_timer_ctr) {
 3002              		.loc 1 1260 0
 3003 000e 13E0     		b	.L332
 3004              	.L340:
 3005              	.LBB21:
1267:Middlewares/Third_Party/LwIP/src/core/tcp.c ****         tcp_output(pcb);
 3006              		.loc 1 1267 0
 3007 0010 43F00203 		orr	r3, r3, #2
 3008 0014 A376     		strb	r3, [r4, #26]
1268:Middlewares/Third_Party/LwIP/src/core/tcp.c ****         pcb->flags &= ~(TF_ACK_DELAY | TF_ACK_NOW);
 3009              		.loc 1 1268 0
 3010 0016 2046     		mov	r0, r4
 3011 0018 FFF7FEFF 		bl	tcp_output
 3012              	.LVL325:
1269:Middlewares/Third_Party/LwIP/src/core/tcp.c ****       }
 3013              		.loc 1 1269 0
 3014 001c A37E     		ldrb	r3, [r4, #26]	@ zero_extendqisi2
 3015 001e 23F00303 		bic	r3, r3, #3
 3016 0022 A376     		strb	r3, [r4, #26]
 3017 0024 13E0     		b	.L334
 3018              	.L341:
1274:Middlewares/Third_Party/LwIP/src/core/tcp.c ****         tcp_close_shutdown_fin(pcb);
 3019              		.loc 1 1274 0
 3020 0026 23F00803 		bic	r3, r3, #8
 3021 002a A376     		strb	r3, [r4, #26]
1275:Middlewares/Third_Party/LwIP/src/core/tcp.c ****       }
 3022              		.loc 1 1275 0
 3023 002c 2046     		mov	r0, r4
 3024 002e FFF7FEFF 		bl	tcp_close_shutdown_fin
 3025              	.LVL326:
 3026 0032 10E0     		b	.L335
 3027              	.L333:
 3028              	.LBE21:
1291:Middlewares/Third_Party/LwIP/src/core/tcp.c ****     }
 3029              		.loc 1 1291 0
ARM GAS  C:\Users\Patryk\AppData\Local\Temp\cc1Vd65O.s 			page 93


 3030 0034 E568     		ldr	r5, [r4, #12]
 3031              	.LVL327:
 3032              	.L336:
1252:Middlewares/Third_Party/LwIP/src/core/tcp.c ****   struct tcp_pcb *pcb;
 3033              		.loc 1 1252 0
 3034 0036 2C46     		mov	r4, r5
 3035              	.L332:
 3036              	.LVL328:
1260:Middlewares/Third_Party/LwIP/src/core/tcp.c ****     if (pcb->last_timer != tcp_timer_ctr) {
 3037              		.loc 1 1260 0
 3038 0038 DCB1     		cbz	r4, .L339
1261:Middlewares/Third_Party/LwIP/src/core/tcp.c ****       struct tcp_pcb *next;
 3039              		.loc 1 1261 0
 3040 003a 627F     		ldrb	r2, [r4, #29]	@ zero_extendqisi2
 3041 003c 0D4B     		ldr	r3, .L342
 3042 003e 1B78     		ldrb	r3, [r3]	@ zero_extendqisi2
 3043 0040 9A42     		cmp	r2, r3
 3044 0042 F7D0     		beq	.L333
 3045              	.LBB22:
1263:Middlewares/Third_Party/LwIP/src/core/tcp.c ****       /* send delayed ACKs */
 3046              		.loc 1 1263 0
 3047 0044 6377     		strb	r3, [r4, #29]
1265:Middlewares/Third_Party/LwIP/src/core/tcp.c ****         LWIP_DEBUGF(TCP_DEBUG, ("tcp_fasttmr: delayed ACK\n"));
 3048              		.loc 1 1265 0
 3049 0046 A37E     		ldrb	r3, [r4, #26]	@ zero_extendqisi2
 3050 0048 13F0010F 		tst	r3, #1
 3051 004c E0D1     		bne	.L340
 3052              	.L334:
1272:Middlewares/Third_Party/LwIP/src/core/tcp.c ****         LWIP_DEBUGF(TCP_DEBUG, ("tcp_fasttmr: pending FIN\n"));
 3053              		.loc 1 1272 0
 3054 004e A37E     		ldrb	r3, [r4, #26]	@ zero_extendqisi2
 3055 0050 13F0080F 		tst	r3, #8
 3056 0054 E7D1     		bne	.L341
 3057              	.L335:
1278:Middlewares/Third_Party/LwIP/src/core/tcp.c **** 
 3058              		.loc 1 1278 0
 3059 0056 E568     		ldr	r5, [r4, #12]
 3060              	.LVL329:
1281:Middlewares/Third_Party/LwIP/src/core/tcp.c ****         tcp_active_pcbs_changed = 0;
 3061              		.loc 1 1281 0
 3062 0058 636F     		ldr	r3, [r4, #116]
 3063 005a 002B     		cmp	r3, #0
 3064 005c EBD0     		beq	.L336
1282:Middlewares/Third_Party/LwIP/src/core/tcp.c ****         tcp_process_refused_data(pcb);
 3065              		.loc 1 1282 0
 3066 005e 074E     		ldr	r6, .L342+8
 3067 0060 0023     		movs	r3, #0
 3068 0062 3370     		strb	r3, [r6]
1283:Middlewares/Third_Party/LwIP/src/core/tcp.c ****         if (tcp_active_pcbs_changed) {
 3069              		.loc 1 1283 0
 3070 0064 2046     		mov	r0, r4
 3071 0066 FFF7FEFF 		bl	tcp_process_refused_data
 3072              	.LVL330:
1284:Middlewares/Third_Party/LwIP/src/core/tcp.c ****           /* application callback has changed the pcb list: restart the loop */
 3073              		.loc 1 1284 0
 3074 006a 3378     		ldrb	r3, [r6]	@ zero_extendqisi2
 3075 006c 002B     		cmp	r3, #0
ARM GAS  C:\Users\Patryk\AppData\Local\Temp\cc1Vd65O.s 			page 94


 3076 006e E2D0     		beq	.L336
 3077 0070 CBE7     		b	.L331
 3078              	.LVL331:
 3079              	.L339:
 3080              	.LBE22:
1294:Middlewares/Third_Party/LwIP/src/core/tcp.c **** 
 3081              		.loc 1 1294 0
 3082 0072 70BD     		pop	{r4, r5, r6, pc}
 3083              	.LVL332:
 3084              	.L343:
 3085              		.align	2
 3086              	.L342:
 3087 0074 00000000 		.word	.LANCHOR2
 3088 0078 00000000 		.word	tcp_active_pcbs
 3089 007c 00000000 		.word	tcp_active_pcbs_changed
 3090              		.cfi_endproc
 3091              	.LFE173:
 3093              		.section	.text.tcp_tmr,"ax",%progbits
 3094              		.align	1
 3095              		.global	tcp_tmr
 3096              		.syntax unified
 3097              		.thumb
 3098              		.thumb_func
 3099              		.fpu fpv5-sp-d16
 3101              	tcp_tmr:
 3102              	.LFB155:
 157:Middlewares/Third_Party/LwIP/src/core/tcp.c ****   /* Call tcp_fasttmr() every 250 ms */
 3103              		.loc 1 157 0
 3104              		.cfi_startproc
 3105              		@ args = 0, pretend = 0, frame = 0
 3106              		@ frame_needed = 0, uses_anonymous_args = 0
 3107 0000 08B5     		push	{r3, lr}
 3108              	.LCFI36:
 3109              		.cfi_def_cfa_offset 8
 3110              		.cfi_offset 3, -8
 3111              		.cfi_offset 14, -4
 159:Middlewares/Third_Party/LwIP/src/core/tcp.c **** 
 3112              		.loc 1 159 0
 3113 0002 FFF7FEFF 		bl	tcp_fasttmr
 3114              	.LVL333:
 161:Middlewares/Third_Party/LwIP/src/core/tcp.c ****     /* Call tcp_slowtmr() every 500 ms, i.e., every other timer
 3115              		.loc 1 161 0
 3116 0006 064A     		ldr	r2, .L348
 3117 0008 1378     		ldrb	r3, [r2]	@ zero_extendqisi2
 3118 000a 0133     		adds	r3, r3, #1
 3119 000c DBB2     		uxtb	r3, r3
 3120 000e 1370     		strb	r3, [r2]
 3121 0010 13F0010F 		tst	r3, #1
 3122 0014 00D1     		bne	.L347
 3123              	.L344:
 166:Middlewares/Third_Party/LwIP/src/core/tcp.c **** 
 3124              		.loc 1 166 0
 3125 0016 08BD     		pop	{r3, pc}
 3126              	.L347:
 164:Middlewares/Third_Party/LwIP/src/core/tcp.c ****   }
 3127              		.loc 1 164 0
 3128 0018 FFF7FEFF 		bl	tcp_slowtmr
ARM GAS  C:\Users\Patryk\AppData\Local\Temp\cc1Vd65O.s 			page 95


 3129              	.LVL334:
 166:Middlewares/Third_Party/LwIP/src/core/tcp.c **** 
 3130              		.loc 1 166 0
 3131 001c FBE7     		b	.L344
 3132              	.L349:
 3133 001e 00BF     		.align	2
 3134              	.L348:
 3135 0020 00000000 		.word	.LANCHOR5
 3136              		.cfi_endproc
 3137              	.LFE155:
 3139              		.section	.text.tcp_shutdown,"ax",%progbits
 3140              		.align	1
 3141              		.global	tcp_shutdown
 3142              		.syntax unified
 3143              		.thumb
 3144              		.thumb_func
 3145              		.fpu fpv5-sp-d16
 3147              	tcp_shutdown:
 3148              	.LFB161:
 427:Middlewares/Third_Party/LwIP/src/core/tcp.c ****   if (pcb->state == LISTEN) {
 3149              		.loc 1 427 0
 3150              		.cfi_startproc
 3151              		@ args = 0, pretend = 0, frame = 0
 3152              		@ frame_needed = 0, uses_anonymous_args = 0
 3153              	.LVL335:
 428:Middlewares/Third_Party/LwIP/src/core/tcp.c ****     return ERR_CONN;
 3154              		.loc 1 428 0
 3155 0000 037D     		ldrb	r3, [r0, #20]	@ zero_extendqisi2
 3156 0002 012B     		cmp	r3, #1
 3157 0004 20D0     		beq	.L355
 427:Middlewares/Third_Party/LwIP/src/core/tcp.c ****   if (pcb->state == LISTEN) {
 3158              		.loc 1 427 0
 3159 0006 70B5     		push	{r4, r5, r6, lr}
 3160              	.LCFI37:
 3161              		.cfi_def_cfa_offset 16
 3162              		.cfi_offset 4, -16
 3163              		.cfi_offset 5, -12
 3164              		.cfi_offset 6, -8
 3165              		.cfi_offset 14, -4
 3166 0008 1646     		mov	r6, r2
 3167 000a 0D46     		mov	r5, r1
 3168 000c 0446     		mov	r4, r0
 431:Middlewares/Third_Party/LwIP/src/core/tcp.c ****     /* shut down the receive side: set a flag not to receive any more data... */
 3169              		.loc 1 431 0
 3170 000e 51B1     		cbz	r1, .L352
 433:Middlewares/Third_Party/LwIP/src/core/tcp.c ****     if (shut_tx) {
 3171              		.loc 1 433 0
 3172 0010 837E     		ldrb	r3, [r0, #26]	@ zero_extendqisi2
 3173 0012 43F01003 		orr	r3, r3, #16
 3174 0016 8376     		strb	r3, [r0, #26]
 434:Middlewares/Third_Party/LwIP/src/core/tcp.c ****       /* shutting down the tx AND rx side is the same as closing for the raw API */
 3175              		.loc 1 434 0
 3176 0018 92B9     		cbnz	r2, .L362
 439:Middlewares/Third_Party/LwIP/src/core/tcp.c ****       pbuf_free(pcb->refused_data);
 3177              		.loc 1 439 0
 3178 001a 406F     		ldr	r0, [r0, #116]
 3179              	.LVL336:
ARM GAS  C:\Users\Patryk\AppData\Local\Temp\cc1Vd65O.s 			page 96


 3180 001c 18B1     		cbz	r0, .L352
 440:Middlewares/Third_Party/LwIP/src/core/tcp.c ****       pcb->refused_data = NULL;
 3181              		.loc 1 440 0
 3182 001e FFF7FEFF 		bl	pbuf_free
 3183              	.LVL337:
 441:Middlewares/Third_Party/LwIP/src/core/tcp.c ****     }
 3184              		.loc 1 441 0
 3185 0022 0023     		movs	r3, #0
 3186 0024 6367     		str	r3, [r4, #116]
 3187              	.L352:
 444:Middlewares/Third_Party/LwIP/src/core/tcp.c ****     /* This can't happen twice since if it succeeds, the pcb's state is changed.
 3188              		.loc 1 444 0
 3189 0026 96B1     		cbz	r6, .L356
 447:Middlewares/Third_Party/LwIP/src/core/tcp.c ****     case SYN_RCVD:
 3190              		.loc 1 447 0
 3191 0028 237D     		ldrb	r3, [r4, #20]	@ zero_extendqisi2
 3192 002a 032B     		cmp	r3, #3
 3193 002c 11D3     		bcc	.L357
 3194 002e 042B     		cmp	r3, #4
 3195 0030 01D9     		bls	.L354
 3196 0032 072B     		cmp	r3, #7
 3197 0034 0DD1     		bne	.L357
 3198              	.L354:
 451:Middlewares/Third_Party/LwIP/src/core/tcp.c ****     default:
 3199              		.loc 1 451 0
 3200 0036 E9B2     		uxtb	r1, r5
 3201 0038 2046     		mov	r0, r4
 3202 003a FFF7FEFF 		bl	tcp_close_shutdown
 3203              	.LVL338:
 3204              	.L351:
 459:Middlewares/Third_Party/LwIP/src/core/tcp.c **** 
 3205              		.loc 1 459 0
 3206 003e 70BD     		pop	{r4, r5, r6, pc}
 3207              	.LVL339:
 3208              	.L362:
 436:Middlewares/Third_Party/LwIP/src/core/tcp.c ****     }
 3209              		.loc 1 436 0
 3210 0040 0121     		movs	r1, #1
 3211              	.LVL340:
 3212 0042 FFF7FEFF 		bl	tcp_close_shutdown
 3213              	.LVL341:
 3214 0046 FAE7     		b	.L351
 3215              	.LVL342:
 3216              	.L355:
 3217              	.LCFI38:
 3218              		.cfi_def_cfa_offset 0
 3219              		.cfi_restore 4
 3220              		.cfi_restore 5
 3221              		.cfi_restore 6
 3222              		.cfi_restore 14
 429:Middlewares/Third_Party/LwIP/src/core/tcp.c ****   }
 3223              		.loc 1 429 0
 3224 0048 6FF00A00 		mvn	r0, #10
 3225              	.LVL343:
 459:Middlewares/Third_Party/LwIP/src/core/tcp.c **** 
 3226              		.loc 1 459 0
 3227 004c 7047     		bx	lr
ARM GAS  C:\Users\Patryk\AppData\Local\Temp\cc1Vd65O.s 			page 97


 3228              	.LVL344:
 3229              	.L356:
 3230              	.LCFI39:
 3231              		.cfi_def_cfa_offset 16
 3232              		.cfi_offset 4, -16
 3233              		.cfi_offset 5, -12
 3234              		.cfi_offset 6, -8
 3235              		.cfi_offset 14, -4
 458:Middlewares/Third_Party/LwIP/src/core/tcp.c **** }
 3236              		.loc 1 458 0
 3237 004e 0020     		movs	r0, #0
 3238 0050 F5E7     		b	.L351
 3239              	.L357:
 455:Middlewares/Third_Party/LwIP/src/core/tcp.c ****     }
 3240              		.loc 1 455 0
 3241 0052 6FF00A00 		mvn	r0, #10
 3242 0056 F2E7     		b	.L351
 3243              		.cfi_endproc
 3244              	.LFE161:
 3246              		.section	.text.tcp_abandon,"ax",%progbits
 3247              		.align	1
 3248              		.global	tcp_abandon
 3249              		.syntax unified
 3250              		.thumb
 3251              		.thumb_func
 3252              		.fpu fpv5-sp-d16
 3254              	tcp_abandon:
 3255              	.LFB162:
 471:Middlewares/Third_Party/LwIP/src/core/tcp.c ****   u32_t seqno, ackno;
 3256              		.loc 1 471 0
 3257              		.cfi_startproc
 3258              		@ args = 0, pretend = 0, frame = 0
 3259              		@ frame_needed = 0, uses_anonymous_args = 0
 3260              	.LVL345:
 3261 0000 2DE9F047 		push	{r4, r5, r6, r7, r8, r9, r10, lr}
 3262              	.LCFI40:
 3263              		.cfi_def_cfa_offset 32
 3264              		.cfi_offset 4, -32
 3265              		.cfi_offset 5, -28
 3266              		.cfi_offset 6, -24
 3267              		.cfi_offset 7, -20
 3268              		.cfi_offset 8, -16
 3269              		.cfi_offset 9, -12
 3270              		.cfi_offset 10, -8
 3271              		.cfi_offset 14, -4
 3272 0004 82B0     		sub	sp, sp, #8
 3273              	.LCFI41:
 3274              		.cfi_def_cfa_offset 40
 3275 0006 0446     		mov	r4, r0
 3276 0008 0D46     		mov	r5, r1
 479:Middlewares/Third_Party/LwIP/src/core/tcp.c ****     pcb->state != LISTEN);
 3277              		.loc 1 479 0
 3278 000a 037D     		ldrb	r3, [r0, #20]	@ zero_extendqisi2
 3279 000c 012B     		cmp	r3, #1
 3280 000e 1AD0     		beq	.L379
 3281              	.LVL346:
 3282              	.L364:
ARM GAS  C:\Users\Patryk\AppData\Local\Temp\cc1Vd65O.s 			page 98


 484:Middlewares/Third_Party/LwIP/src/core/tcp.c ****     tcp_pcb_remove(&tcp_tw_pcbs, pcb);
 3283              		.loc 1 484 0
 3284 0010 237D     		ldrb	r3, [r4, #20]	@ zero_extendqisi2
 3285 0012 0A2B     		cmp	r3, #10
 3286 0014 1FD0     		beq	.L380
 3287              	.LVL347:
 3288              	.LBB23:
 491:Middlewares/Third_Party/LwIP/src/core/tcp.c ****     ackno = pcb->rcv_nxt;
 3289              		.loc 1 491 0
 3290 0016 D4F84C80 		ldr	r8, [r4, #76]
 3291              	.LVL348:
 492:Middlewares/Third_Party/LwIP/src/core/tcp.c **** #if LWIP_CALLBACK_API
 3292              		.loc 1 492 0
 3293 001a D4F82490 		ldr	r9, [r4, #36]
 3294              	.LVL349:
 494:Middlewares/Third_Party/LwIP/src/core/tcp.c **** #endif /* LWIP_CALLBACK_API */
 3295              		.loc 1 494 0
 3296 001e D4F88C60 		ldr	r6, [r4, #140]
 3297              	.LVL350:
 496:Middlewares/Third_Party/LwIP/src/core/tcp.c ****     if (pcb->state == CLOSED) {
 3298              		.loc 1 496 0
 3299 0022 2769     		ldr	r7, [r4, #16]
 3300              	.LVL351:
 497:Middlewares/Third_Party/LwIP/src/core/tcp.c ****       if (pcb->local_port != 0) {
 3301              		.loc 1 497 0
 3302 0024 002B     		cmp	r3, #0
 3303 0026 41D1     		bne	.L367
 498:Middlewares/Third_Party/LwIP/src/core/tcp.c ****         /* bound, not yet opened */
 3304              		.loc 1 498 0
 3305 0028 B4F816A0 		ldrh	r10, [r4, #22]
 3306 002c BAF1000F 		cmp	r10, #0
 3307 0030 46D0     		beq	.L376
 500:Middlewares/Third_Party/LwIP/src/core/tcp.c ****       }
 3308              		.loc 1 500 0
 3309 0032 2A4B     		ldr	r3, .L384
 3310 0034 1B68     		ldr	r3, [r3]
 3311 0036 A342     		cmp	r3, r4
 3312 0038 16D0     		beq	.L381
 3313              	.L369:
 3314              	.LVL352:
 3315              	.LBB24:
 500:Middlewares/Third_Party/LwIP/src/core/tcp.c ****       }
 3316              		.loc 1 500 0 is_stmt 0 discriminator 8
 3317 003a DBB1     		cbz	r3, .L370
 500:Middlewares/Third_Party/LwIP/src/core/tcp.c ****       }
 3318              		.loc 1 500 0 discriminator 9
 3319 003c DA68     		ldr	r2, [r3, #12]
 3320 003e A242     		cmp	r2, r4
 3321 0040 16D0     		beq	.L382
 500:Middlewares/Third_Party/LwIP/src/core/tcp.c ****       }
 3322              		.loc 1 500 0
 3323 0042 1346     		mov	r3, r2
 3324              	.LVL353:
 3325 0044 F9E7     		b	.L369
 3326              	.LVL354:
 3327              	.L379:
 3328              	.LBE24:
ARM GAS  C:\Users\Patryk\AppData\Local\Temp\cc1Vd65O.s 			page 99


 3329              	.LBE23:
 479:Middlewares/Third_Party/LwIP/src/core/tcp.c ****     pcb->state != LISTEN);
 3330              		.loc 1 479 0 is_stmt 1 discriminator 1
 3331 0046 264B     		ldr	r3, .L384+4
 3332 0048 4FF4F072 		mov	r2, #480
 3333 004c 2549     		ldr	r1, .L384+8
 3334              	.LVL355:
 3335 004e 2648     		ldr	r0, .L384+12
 3336              	.LVL356:
 3337 0050 FFF7FEFF 		bl	printf
 3338              	.LVL357:
 3339 0054 DCE7     		b	.L364
 3340              	.L380:
 485:Middlewares/Third_Party/LwIP/src/core/tcp.c ****     memp_free(MEMP_TCP_PCB, pcb);
 3341              		.loc 1 485 0
 3342 0056 2146     		mov	r1, r4
 3343 0058 2448     		ldr	r0, .L384+16
 3344 005a FFF7FEFF 		bl	tcp_pcb_remove
 3345              	.LVL358:
 486:Middlewares/Third_Party/LwIP/src/core/tcp.c ****   } else {
 3346              		.loc 1 486 0
 3347 005e 2146     		mov	r1, r4
 3348 0060 0120     		movs	r0, #1
 3349 0062 FFF7FEFF 		bl	memp_free
 3350              	.LVL359:
 3351 0066 1EE0     		b	.L363
 3352              	.LVL360:
 3353              	.L381:
 3354              	.LBB26:
 500:Middlewares/Third_Party/LwIP/src/core/tcp.c ****       }
 3355              		.loc 1 500 0 discriminator 1
 3356 0068 DA68     		ldr	r2, [r3, #12]
 3357 006a 1C4B     		ldr	r3, .L384
 3358 006c 1A60     		str	r2, [r3]
 3359 006e 01E0     		b	.L370
 3360              	.LVL361:
 3361              	.L382:
 3362              	.LBB25:
 500:Middlewares/Third_Party/LwIP/src/core/tcp.c ****       }
 3363              		.loc 1 500 0 is_stmt 0 discriminator 5
 3364 0070 E268     		ldr	r2, [r4, #12]
 3365 0072 DA60     		str	r2, [r3, #12]
 3366              	.LVL362:
 3367              	.L370:
 3368              	.LBE25:
 500:Middlewares/Third_Party/LwIP/src/core/tcp.c ****       }
 3369              		.loc 1 500 0 discriminator 10
 3370 0074 0025     		movs	r5, #0
 3371              	.LVL363:
 3372 0076 E560     		str	r5, [r4, #12]
 489:Middlewares/Third_Party/LwIP/src/core/tcp.c ****     enum tcp_state last_state;
 3373              		.loc 1 489 0 is_stmt 1 discriminator 10
 3374 0078 AA46     		mov	r10, r5
 3375              	.LVL364:
 3376              	.L368:
 507:Middlewares/Third_Party/LwIP/src/core/tcp.c ****       tcp_segs_free(pcb->unacked);
 3377              		.loc 1 507 0
ARM GAS  C:\Users\Patryk\AppData\Local\Temp\cc1Vd65O.s 			page 100


 3378 007a E06E     		ldr	r0, [r4, #108]
 3379 007c 08B1     		cbz	r0, .L372
 508:Middlewares/Third_Party/LwIP/src/core/tcp.c ****     }
 3380              		.loc 1 508 0
 3381 007e FFF7FEFF 		bl	tcp_segs_free
 3382              	.LVL365:
 3383              	.L372:
 510:Middlewares/Third_Party/LwIP/src/core/tcp.c ****       tcp_segs_free(pcb->unsent);
 3384              		.loc 1 510 0
 3385 0082 A06E     		ldr	r0, [r4, #104]
 3386 0084 08B1     		cbz	r0, .L373
 511:Middlewares/Third_Party/LwIP/src/core/tcp.c ****     }
 3387              		.loc 1 511 0
 3388 0086 FFF7FEFF 		bl	tcp_segs_free
 3389              	.LVL366:
 3390              	.L373:
 514:Middlewares/Third_Party/LwIP/src/core/tcp.c ****       tcp_segs_free(pcb->ooseq);
 3391              		.loc 1 514 0
 3392 008a 206F     		ldr	r0, [r4, #112]
 3393 008c 08B1     		cbz	r0, .L374
 515:Middlewares/Third_Party/LwIP/src/core/tcp.c ****     }
 3394              		.loc 1 515 0
 3395 008e FFF7FEFF 		bl	tcp_segs_free
 3396              	.LVL367:
 3397              	.L374:
 519:Middlewares/Third_Party/LwIP/src/core/tcp.c ****       LWIP_DEBUGF(TCP_RST_DEBUG, ("tcp_abandon: sending RST\n"));
 3398              		.loc 1 519 0
 3399 0092 BDB9     		cbnz	r5, .L383
 3400              	.L375:
 3401              	.LVL368:
 524:Middlewares/Third_Party/LwIP/src/core/tcp.c ****     TCP_EVENT_ERR(last_state, errf, errf_arg, ERR_ABRT);
 3402              		.loc 1 524 0
 3403 0094 2146     		mov	r1, r4
 3404 0096 0120     		movs	r0, #1
 3405 0098 FFF7FEFF 		bl	memp_free
 3406              	.LVL369:
 525:Middlewares/Third_Party/LwIP/src/core/tcp.c ****   }
 3407              		.loc 1 525 0
 3408 009c 1EB1     		cbz	r6, .L363
 525:Middlewares/Third_Party/LwIP/src/core/tcp.c ****   }
 3409              		.loc 1 525 0 is_stmt 0 discriminator 1
 3410 009e 6FF00C01 		mvn	r1, #12
 3411 00a2 3846     		mov	r0, r7
 3412 00a4 B047     		blx	r6
 3413              	.LVL370:
 3414              	.L363:
 3415              	.LBE26:
 527:Middlewares/Third_Party/LwIP/src/core/tcp.c **** 
 3416              		.loc 1 527 0 is_stmt 1
 3417 00a6 02B0     		add	sp, sp, #8
 3418              	.LCFI42:
 3419              		.cfi_remember_state
 3420              		.cfi_def_cfa_offset 32
 3421              		@ sp needed
 3422 00a8 BDE8F087 		pop	{r4, r5, r6, r7, r8, r9, r10, pc}
 3423              	.LVL371:
 3424              	.L367:
ARM GAS  C:\Users\Patryk\AppData\Local\Temp\cc1Vd65O.s 			page 101


 3425              	.LCFI43:
 3426              		.cfi_restore_state
 3427              	.LBB27:
 504:Middlewares/Third_Party/LwIP/src/core/tcp.c ****       TCP_PCB_REMOVE_ACTIVE(pcb);
 3428              		.loc 1 504 0
 3429 00ac B4F816A0 		ldrh	r10, [r4, #22]
 3430              	.LVL372:
 505:Middlewares/Third_Party/LwIP/src/core/tcp.c ****     }
 3431              		.loc 1 505 0
 3432 00b0 2146     		mov	r1, r4
 3433 00b2 0F48     		ldr	r0, .L384+20
 3434 00b4 FFF7FEFF 		bl	tcp_pcb_remove
 3435              	.LVL373:
 3436 00b8 0E4B     		ldr	r3, .L384+24
 3437 00ba 0122     		movs	r2, #1
 3438 00bc 1A70     		strb	r2, [r3]
 3439 00be DCE7     		b	.L368
 3440              	.LVL374:
 3441              	.L376:
 488:Middlewares/Third_Party/LwIP/src/core/tcp.c ****     u16_t local_port = 0;
 3442              		.loc 1 488 0
 3443 00c0 0025     		movs	r5, #0
 3444              	.LVL375:
 3445 00c2 DAE7     		b	.L368
 3446              	.LVL376:
 3447              	.L383:
 521:Middlewares/Third_Party/LwIP/src/core/tcp.c ****     }
 3448              		.loc 1 521 0
 3449 00c4 238B     		ldrh	r3, [r4, #24]
 3450 00c6 0193     		str	r3, [sp, #4]
 3451 00c8 CDF800A0 		str	r10, [sp]
 3452 00cc 231D     		adds	r3, r4, #4
 3453 00ce 2246     		mov	r2, r4
 3454 00d0 4946     		mov	r1, r9
 3455 00d2 4046     		mov	r0, r8
 3456 00d4 FFF7FEFF 		bl	tcp_rst
 3457              	.LVL377:
 3458 00d8 DCE7     		b	.L375
 3459              	.L385:
 3460 00da 00BF     		.align	2
 3461              	.L384:
 3462 00dc 00000000 		.word	tcp_bound_pcbs
 3463 00e0 00000000 		.word	.LC0
 3464 00e4 00000000 		.word	.LC25
 3465 00e8 38000000 		.word	.LC2
 3466 00ec 00000000 		.word	tcp_tw_pcbs
 3467 00f0 00000000 		.word	tcp_active_pcbs
 3468 00f4 00000000 		.word	tcp_active_pcbs_changed
 3469              	.LBE27:
 3470              		.cfi_endproc
 3471              	.LFE162:
 3473              		.section	.text.tcp_abort,"ax",%progbits
 3474              		.align	1
 3475              		.global	tcp_abort
 3476              		.syntax unified
 3477              		.thumb
 3478              		.thumb_func
ARM GAS  C:\Users\Patryk\AppData\Local\Temp\cc1Vd65O.s 			page 102


 3479              		.fpu fpv5-sp-d16
 3481              	tcp_abort:
 3482              	.LFB163:
 542:Middlewares/Third_Party/LwIP/src/core/tcp.c ****   tcp_abandon(pcb, 1);
 3483              		.loc 1 542 0
 3484              		.cfi_startproc
 3485              		@ args = 0, pretend = 0, frame = 0
 3486              		@ frame_needed = 0, uses_anonymous_args = 0
 3487              	.LVL378:
 3488 0000 08B5     		push	{r3, lr}
 3489              	.LCFI44:
 3490              		.cfi_def_cfa_offset 8
 3491              		.cfi_offset 3, -8
 3492              		.cfi_offset 14, -4
 543:Middlewares/Third_Party/LwIP/src/core/tcp.c **** }
 3493              		.loc 1 543 0
 3494 0002 0121     		movs	r1, #1
 3495 0004 FFF7FEFF 		bl	tcp_abandon
 3496              	.LVL379:
 544:Middlewares/Third_Party/LwIP/src/core/tcp.c **** 
 3497              		.loc 1 544 0
 3498 0008 08BD     		pop	{r3, pc}
 3499              		.cfi_endproc
 3500              	.LFE163:
 3502              		.section	.text.tcp_accept_null,"ax",%progbits
 3503              		.align	1
 3504              		.syntax unified
 3505              		.thumb
 3506              		.thumb_func
 3507              		.fpu fpv5-sp-d16
 3509              	tcp_accept_null:
 3510              	.LFB165:
 638:Middlewares/Third_Party/LwIP/src/core/tcp.c ****   LWIP_UNUSED_ARG(arg);
 3511              		.loc 1 638 0
 3512              		.cfi_startproc
 3513              		@ args = 0, pretend = 0, frame = 0
 3514              		@ frame_needed = 0, uses_anonymous_args = 0
 3515              	.LVL380:
 3516 0000 08B5     		push	{r3, lr}
 3517              	.LCFI45:
 3518              		.cfi_def_cfa_offset 8
 3519              		.cfi_offset 3, -8
 3520              		.cfi_offset 14, -4
 642:Middlewares/Third_Party/LwIP/src/core/tcp.c **** 
 3521              		.loc 1 642 0
 3522 0002 0846     		mov	r0, r1
 3523              	.LVL381:
 3524 0004 FFF7FEFF 		bl	tcp_abort
 3525              	.LVL382:
 645:Middlewares/Third_Party/LwIP/src/core/tcp.c **** #endif /* LWIP_CALLBACK_API */
 3526              		.loc 1 645 0
 3527 0008 6FF00C00 		mvn	r0, #12
 3528 000c 08BD     		pop	{r3, pc}
 3529              		.cfi_endproc
 3530              	.LFE165:
 3532              		.section	.text.tcp_kill_timewait,"ax",%progbits
 3533              		.align	1
ARM GAS  C:\Users\Patryk\AppData\Local\Temp\cc1Vd65O.s 			page 103


 3534              		.syntax unified
 3535              		.thumb
 3536              		.thumb_func
 3537              		.fpu fpv5-sp-d16
 3539              	tcp_kill_timewait:
 3540              	.LFB183:
1528:Middlewares/Third_Party/LwIP/src/core/tcp.c ****   struct tcp_pcb *pcb, *inactive;
 3541              		.loc 1 1528 0
 3542              		.cfi_startproc
 3543              		@ args = 0, pretend = 0, frame = 0
 3544              		@ frame_needed = 0, uses_anonymous_args = 0
 3545 0000 10B5     		push	{r4, lr}
 3546              	.LCFI46:
 3547              		.cfi_def_cfa_offset 8
 3548              		.cfi_offset 4, -8
 3549              		.cfi_offset 14, -4
 3550              	.LVL383:
1535:Middlewares/Third_Party/LwIP/src/core/tcp.c ****     if ((u32_t)(tcp_ticks - pcb->tmr) >= inactivity) {
 3551              		.loc 1 1535 0
 3552 0002 0A4B     		ldr	r3, .L398
 3553 0004 1B68     		ldr	r3, [r3]
 3554              	.LVL384:
1532:Middlewares/Third_Party/LwIP/src/core/tcp.c ****   inactive = NULL;
 3555              		.loc 1 1532 0
 3556 0006 0024     		movs	r4, #0
1533:Middlewares/Third_Party/LwIP/src/core/tcp.c ****   /* Go through the list of TIME_WAIT pcbs and get the oldest pcb. */
 3557              		.loc 1 1533 0
 3558 0008 2046     		mov	r0, r4
1535:Middlewares/Third_Party/LwIP/src/core/tcp.c ****     if ((u32_t)(tcp_ticks - pcb->tmr) >= inactivity) {
 3559              		.loc 1 1535 0
 3560 000a 00E0     		b	.L391
 3561              	.LVL385:
 3562              	.L392:
1535:Middlewares/Third_Party/LwIP/src/core/tcp.c ****     if ((u32_t)(tcp_ticks - pcb->tmr) >= inactivity) {
 3563              		.loc 1 1535 0 is_stmt 0 discriminator 2
 3564 000c DB68     		ldr	r3, [r3, #12]
 3565              	.LVL386:
 3566              	.L391:
1535:Middlewares/Third_Party/LwIP/src/core/tcp.c ****     if ((u32_t)(tcp_ticks - pcb->tmr) >= inactivity) {
 3567              		.loc 1 1535 0 discriminator 1
 3568 000e 43B1     		cbz	r3, .L397
1536:Middlewares/Third_Party/LwIP/src/core/tcp.c ****       inactivity = tcp_ticks - pcb->tmr;
 3569              		.loc 1 1536 0 is_stmt 1
 3570 0010 196A     		ldr	r1, [r3, #32]
 3571 0012 074A     		ldr	r2, .L398+4
 3572 0014 1268     		ldr	r2, [r2]
 3573 0016 521A     		subs	r2, r2, r1
 3574 0018 A242     		cmp	r2, r4
 3575 001a F7D3     		bcc	.L392
1537:Middlewares/Third_Party/LwIP/src/core/tcp.c ****       inactive = pcb;
 3576              		.loc 1 1537 0
 3577 001c 1446     		mov	r4, r2
 3578              	.LVL387:
1538:Middlewares/Third_Party/LwIP/src/core/tcp.c ****     }
 3579              		.loc 1 1538 0
 3580 001e 1846     		mov	r0, r3
 3581              	.LVL388:
ARM GAS  C:\Users\Patryk\AppData\Local\Temp\cc1Vd65O.s 			page 104


 3582 0020 F4E7     		b	.L392
 3583              	.LVL389:
 3584              	.L397:
1541:Middlewares/Third_Party/LwIP/src/core/tcp.c ****     LWIP_DEBUGF(TCP_DEBUG, ("tcp_kill_timewait: killing oldest TIME-WAIT PCB %p (%"S32_F")\n",
 3585              		.loc 1 1541 0
 3586 0022 08B1     		cbz	r0, .L390
1544:Middlewares/Third_Party/LwIP/src/core/tcp.c ****   }
 3587              		.loc 1 1544 0
 3588 0024 FFF7FEFF 		bl	tcp_abort
 3589              	.LVL390:
 3590              	.L390:
1546:Middlewares/Third_Party/LwIP/src/core/tcp.c **** 
 3591              		.loc 1 1546 0
 3592 0028 10BD     		pop	{r4, pc}
 3593              	.LVL391:
 3594              	.L399:
 3595 002a 00BF     		.align	2
 3596              	.L398:
 3597 002c 00000000 		.word	tcp_tw_pcbs
 3598 0030 00000000 		.word	tcp_ticks
 3599              		.cfi_endproc
 3600              	.LFE183:
 3602              		.section	.text.tcp_kill_prio,"ax",%progbits
 3603              		.align	1
 3604              		.syntax unified
 3605              		.thumb
 3606              		.thumb_func
 3607              		.fpu fpv5-sp-d16
 3609              	tcp_kill_prio:
 3610              	.LFB181:
1465:Middlewares/Third_Party/LwIP/src/core/tcp.c ****   struct tcp_pcb *pcb, *inactive;
 3611              		.loc 1 1465 0
 3612              		.cfi_startproc
 3613              		@ args = 0, pretend = 0, frame = 0
 3614              		@ frame_needed = 0, uses_anonymous_args = 0
 3615              	.LVL392:
 3616 0000 70B5     		push	{r4, r5, r6, lr}
 3617              	.LCFI47:
 3618              		.cfi_def_cfa_offset 16
 3619              		.cfi_offset 4, -16
 3620              		.cfi_offset 5, -12
 3621              		.cfi_offset 6, -8
 3622              		.cfi_offset 14, -4
 3623 0002 0246     		mov	r2, r0
1470:Middlewares/Third_Party/LwIP/src/core/tcp.c **** 
 3624              		.loc 1 1470 0
 3625 0004 10F0800F 		tst	r0, #128
 3626 0008 00D0     		beq	.L401
 3627 000a 7F22     		movs	r2, #127
 3628              	.L401:
 3629              	.LVL393:
1475:Middlewares/Third_Party/LwIP/src/core/tcp.c ****     if (pcb->prio <= mprio &&
 3630              		.loc 1 1475 0 discriminator 4
 3631 000c 0B4B     		ldr	r3, .L409
 3632 000e 1B68     		ldr	r3, [r3]
 3633              	.LVL394:
1473:Middlewares/Third_Party/LwIP/src/core/tcp.c ****   inactive = NULL;
ARM GAS  C:\Users\Patryk\AppData\Local\Temp\cc1Vd65O.s 			page 105


 3634              		.loc 1 1473 0 discriminator 4
 3635 0010 0024     		movs	r4, #0
1474:Middlewares/Third_Party/LwIP/src/core/tcp.c ****   for (pcb = tcp_active_pcbs; pcb != NULL; pcb = pcb->next) {
 3636              		.loc 1 1474 0 discriminator 4
 3637 0012 2046     		mov	r0, r4
 3638              	.LVL395:
 3639              	.L402:
1475:Middlewares/Third_Party/LwIP/src/core/tcp.c ****     if (pcb->prio <= mprio &&
 3640              		.loc 1 1475 0 discriminator 1
 3641 0014 1BB9     		cbnz	r3, .L404
1483:Middlewares/Third_Party/LwIP/src/core/tcp.c ****     LWIP_DEBUGF(TCP_DEBUG, ("tcp_kill_prio: killing oldest PCB %p (%"S32_F")\n",
 3642              		.loc 1 1483 0
 3643 0016 08B1     		cbz	r0, .L400
1486:Middlewares/Third_Party/LwIP/src/core/tcp.c ****   }
 3644              		.loc 1 1486 0
 3645 0018 FFF7FEFF 		bl	tcp_abort
 3646              	.LVL396:
 3647              	.L400:
1488:Middlewares/Third_Party/LwIP/src/core/tcp.c **** 
 3648              		.loc 1 1488 0
 3649 001c 70BD     		pop	{r4, r5, r6, pc}
 3650              	.LVL397:
 3651              	.L404:
1476:Middlewares/Third_Party/LwIP/src/core/tcp.c ****        (u32_t)(tcp_ticks - pcb->tmr) >= inactivity) {
 3652              		.loc 1 1476 0
 3653 001e 5D7D     		ldrb	r5, [r3, #21]	@ zero_extendqisi2
 3654 0020 9542     		cmp	r5, r2
 3655 0022 08D8     		bhi	.L403
1477:Middlewares/Third_Party/LwIP/src/core/tcp.c ****       inactivity = tcp_ticks - pcb->tmr;
 3656              		.loc 1 1477 0 discriminator 1
 3657 0024 1E6A     		ldr	r6, [r3, #32]
 3658 0026 0649     		ldr	r1, .L409+4
 3659 0028 0968     		ldr	r1, [r1]
 3660 002a 891B     		subs	r1, r1, r6
1476:Middlewares/Third_Party/LwIP/src/core/tcp.c ****        (u32_t)(tcp_ticks - pcb->tmr) >= inactivity) {
 3661              		.loc 1 1476 0 discriminator 1
 3662 002c A142     		cmp	r1, r4
 3663 002e 02D3     		bcc	.L403
1480:Middlewares/Third_Party/LwIP/src/core/tcp.c ****     }
 3664              		.loc 1 1480 0
 3665 0030 2A46     		mov	r2, r5
 3666              	.LVL398:
1478:Middlewares/Third_Party/LwIP/src/core/tcp.c ****       inactive = pcb;
 3667              		.loc 1 1478 0
 3668 0032 0C46     		mov	r4, r1
 3669              	.LVL399:
1479:Middlewares/Third_Party/LwIP/src/core/tcp.c ****       mprio = pcb->prio;
 3670              		.loc 1 1479 0
 3671 0034 1846     		mov	r0, r3
 3672              	.LVL400:
 3673              	.L403:
1475:Middlewares/Third_Party/LwIP/src/core/tcp.c ****     if (pcb->prio <= mprio &&
 3674              		.loc 1 1475 0 discriminator 2
 3675 0036 DB68     		ldr	r3, [r3, #12]
 3676              	.LVL401:
 3677 0038 ECE7     		b	.L402
 3678              	.L410:
ARM GAS  C:\Users\Patryk\AppData\Local\Temp\cc1Vd65O.s 			page 106


 3679 003a 00BF     		.align	2
 3680              	.L409:
 3681 003c 00000000 		.word	tcp_active_pcbs
 3682 0040 00000000 		.word	tcp_ticks
 3683              		.cfi_endproc
 3684              	.LFE181:
 3686              		.section	.text.tcp_netif_ip_addr_changed_pcblist,"ax",%progbits
 3687              		.align	1
 3688              		.syntax unified
 3689              		.thumb
 3690              		.thumb_func
 3691              		.fpu fpv5-sp-d16
 3693              	tcp_netif_ip_addr_changed_pcblist:
 3694              	.LFB197:
1888:Middlewares/Third_Party/LwIP/src/core/tcp.c **** 
1889:Middlewares/Third_Party/LwIP/src/core/tcp.c **** /**
1890:Middlewares/Third_Party/LwIP/src/core/tcp.c ****  * Calculates a new initial sequence number for new connections.
1891:Middlewares/Third_Party/LwIP/src/core/tcp.c ****  *
1892:Middlewares/Third_Party/LwIP/src/core/tcp.c ****  * @return u32_t pseudo random sequence number
1893:Middlewares/Third_Party/LwIP/src/core/tcp.c ****  */
1894:Middlewares/Third_Party/LwIP/src/core/tcp.c **** u32_t
1895:Middlewares/Third_Party/LwIP/src/core/tcp.c **** tcp_next_iss(struct tcp_pcb *pcb)
1896:Middlewares/Third_Party/LwIP/src/core/tcp.c **** {
1897:Middlewares/Third_Party/LwIP/src/core/tcp.c **** #ifdef LWIP_HOOK_TCP_ISN
1898:Middlewares/Third_Party/LwIP/src/core/tcp.c ****   return LWIP_HOOK_TCP_ISN(&pcb->local_ip, pcb->local_port, &pcb->remote_ip, pcb->remote_port);
1899:Middlewares/Third_Party/LwIP/src/core/tcp.c **** #else /* LWIP_HOOK_TCP_ISN */
1900:Middlewares/Third_Party/LwIP/src/core/tcp.c ****   static u32_t iss = 6510;
1901:Middlewares/Third_Party/LwIP/src/core/tcp.c **** 
1902:Middlewares/Third_Party/LwIP/src/core/tcp.c ****   LWIP_UNUSED_ARG(pcb);
1903:Middlewares/Third_Party/LwIP/src/core/tcp.c **** 
1904:Middlewares/Third_Party/LwIP/src/core/tcp.c ****   iss += tcp_ticks;       /* XXX */
1905:Middlewares/Third_Party/LwIP/src/core/tcp.c ****   return iss;
1906:Middlewares/Third_Party/LwIP/src/core/tcp.c **** #endif /* LWIP_HOOK_TCP_ISN */
1907:Middlewares/Third_Party/LwIP/src/core/tcp.c **** }
1908:Middlewares/Third_Party/LwIP/src/core/tcp.c **** 
1909:Middlewares/Third_Party/LwIP/src/core/tcp.c **** #if TCP_CALCULATE_EFF_SEND_MSS
1910:Middlewares/Third_Party/LwIP/src/core/tcp.c **** /**
1911:Middlewares/Third_Party/LwIP/src/core/tcp.c ****  * Calculates the effective send mss that can be used for a specific IP address
1912:Middlewares/Third_Party/LwIP/src/core/tcp.c ****  * by using ip_route to determine the netif used to send to the address and
1913:Middlewares/Third_Party/LwIP/src/core/tcp.c ****  * calculating the minimum of TCP_MSS and that netif's mtu (if set).
1914:Middlewares/Third_Party/LwIP/src/core/tcp.c ****  */
1915:Middlewares/Third_Party/LwIP/src/core/tcp.c **** u16_t
1916:Middlewares/Third_Party/LwIP/src/core/tcp.c **** tcp_eff_send_mss_impl(u16_t sendmss, const ip_addr_t *dest
1917:Middlewares/Third_Party/LwIP/src/core/tcp.c **** #if LWIP_IPV6 || LWIP_IPV4_SRC_ROUTING
1918:Middlewares/Third_Party/LwIP/src/core/tcp.c ****                      , const ip_addr_t *src
1919:Middlewares/Third_Party/LwIP/src/core/tcp.c **** #endif /* LWIP_IPV6 || LWIP_IPV4_SRC_ROUTING */
1920:Middlewares/Third_Party/LwIP/src/core/tcp.c ****                      )
1921:Middlewares/Third_Party/LwIP/src/core/tcp.c **** {
1922:Middlewares/Third_Party/LwIP/src/core/tcp.c ****   u16_t mss_s;
1923:Middlewares/Third_Party/LwIP/src/core/tcp.c ****   struct netif *outif;
1924:Middlewares/Third_Party/LwIP/src/core/tcp.c ****   s16_t mtu;
1925:Middlewares/Third_Party/LwIP/src/core/tcp.c **** 
1926:Middlewares/Third_Party/LwIP/src/core/tcp.c ****   outif = ip_route(src, dest);
1927:Middlewares/Third_Party/LwIP/src/core/tcp.c **** #if LWIP_IPV6
1928:Middlewares/Third_Party/LwIP/src/core/tcp.c **** #if LWIP_IPV4
1929:Middlewares/Third_Party/LwIP/src/core/tcp.c ****   if (IP_IS_V6(dest))
1930:Middlewares/Third_Party/LwIP/src/core/tcp.c **** #endif /* LWIP_IPV4 */
ARM GAS  C:\Users\Patryk\AppData\Local\Temp\cc1Vd65O.s 			page 107


1931:Middlewares/Third_Party/LwIP/src/core/tcp.c ****   {
1932:Middlewares/Third_Party/LwIP/src/core/tcp.c ****     /* First look in destination cache, to see if there is a Path MTU. */
1933:Middlewares/Third_Party/LwIP/src/core/tcp.c ****     mtu = nd6_get_destination_mtu(ip_2_ip6(dest), outif);
1934:Middlewares/Third_Party/LwIP/src/core/tcp.c ****   }
1935:Middlewares/Third_Party/LwIP/src/core/tcp.c **** #if LWIP_IPV4
1936:Middlewares/Third_Party/LwIP/src/core/tcp.c ****   else
1937:Middlewares/Third_Party/LwIP/src/core/tcp.c **** #endif /* LWIP_IPV4 */
1938:Middlewares/Third_Party/LwIP/src/core/tcp.c **** #endif /* LWIP_IPV6 */
1939:Middlewares/Third_Party/LwIP/src/core/tcp.c **** #if LWIP_IPV4
1940:Middlewares/Third_Party/LwIP/src/core/tcp.c ****   {
1941:Middlewares/Third_Party/LwIP/src/core/tcp.c ****     if (outif == NULL) {
1942:Middlewares/Third_Party/LwIP/src/core/tcp.c ****       return sendmss;
1943:Middlewares/Third_Party/LwIP/src/core/tcp.c ****     }
1944:Middlewares/Third_Party/LwIP/src/core/tcp.c ****     mtu = outif->mtu;
1945:Middlewares/Third_Party/LwIP/src/core/tcp.c ****   }
1946:Middlewares/Third_Party/LwIP/src/core/tcp.c **** #endif /* LWIP_IPV4 */
1947:Middlewares/Third_Party/LwIP/src/core/tcp.c **** 
1948:Middlewares/Third_Party/LwIP/src/core/tcp.c ****   if (mtu != 0) {
1949:Middlewares/Third_Party/LwIP/src/core/tcp.c **** #if LWIP_IPV6
1950:Middlewares/Third_Party/LwIP/src/core/tcp.c **** #if LWIP_IPV4
1951:Middlewares/Third_Party/LwIP/src/core/tcp.c ****     if (IP_IS_V6(dest))
1952:Middlewares/Third_Party/LwIP/src/core/tcp.c **** #endif /* LWIP_IPV4 */
1953:Middlewares/Third_Party/LwIP/src/core/tcp.c ****     {
1954:Middlewares/Third_Party/LwIP/src/core/tcp.c ****       mss_s = mtu - IP6_HLEN - TCP_HLEN;
1955:Middlewares/Third_Party/LwIP/src/core/tcp.c ****     }
1956:Middlewares/Third_Party/LwIP/src/core/tcp.c **** #if LWIP_IPV4
1957:Middlewares/Third_Party/LwIP/src/core/tcp.c ****     else
1958:Middlewares/Third_Party/LwIP/src/core/tcp.c **** #endif /* LWIP_IPV4 */
1959:Middlewares/Third_Party/LwIP/src/core/tcp.c **** #endif /* LWIP_IPV6 */
1960:Middlewares/Third_Party/LwIP/src/core/tcp.c **** #if LWIP_IPV4
1961:Middlewares/Third_Party/LwIP/src/core/tcp.c ****     {
1962:Middlewares/Third_Party/LwIP/src/core/tcp.c ****       mss_s = mtu - IP_HLEN - TCP_HLEN;
1963:Middlewares/Third_Party/LwIP/src/core/tcp.c ****     }
1964:Middlewares/Third_Party/LwIP/src/core/tcp.c **** #endif /* LWIP_IPV4 */
1965:Middlewares/Third_Party/LwIP/src/core/tcp.c ****     /* RFC 1122, chap 4.2.2.6:
1966:Middlewares/Third_Party/LwIP/src/core/tcp.c ****      * Eff.snd.MSS = min(SendMSS+20, MMS_S) - TCPhdrsize - IPoptionsize
1967:Middlewares/Third_Party/LwIP/src/core/tcp.c ****      * We correct for TCP options in tcp_write(), and don't support IP options.
1968:Middlewares/Third_Party/LwIP/src/core/tcp.c ****      */
1969:Middlewares/Third_Party/LwIP/src/core/tcp.c ****     sendmss = LWIP_MIN(sendmss, mss_s);
1970:Middlewares/Third_Party/LwIP/src/core/tcp.c ****   }
1971:Middlewares/Third_Party/LwIP/src/core/tcp.c ****   return sendmss;
1972:Middlewares/Third_Party/LwIP/src/core/tcp.c **** }
1973:Middlewares/Third_Party/LwIP/src/core/tcp.c **** #endif /* TCP_CALCULATE_EFF_SEND_MSS */
1974:Middlewares/Third_Party/LwIP/src/core/tcp.c **** 
1975:Middlewares/Third_Party/LwIP/src/core/tcp.c **** /** Helper function for tcp_netif_ip_addr_changed() that iterates a pcb list */
1976:Middlewares/Third_Party/LwIP/src/core/tcp.c **** static void
1977:Middlewares/Third_Party/LwIP/src/core/tcp.c **** tcp_netif_ip_addr_changed_pcblist(const ip_addr_t* old_addr, struct tcp_pcb* pcb_list)
1978:Middlewares/Third_Party/LwIP/src/core/tcp.c **** {
 3695              		.loc 1 1978 0
 3696              		.cfi_startproc
 3697              		@ args = 0, pretend = 0, frame = 0
 3698              		@ frame_needed = 0, uses_anonymous_args = 0
 3699              	.LVL402:
 3700 0000 38B5     		push	{r3, r4, r5, lr}
 3701              	.LCFI48:
 3702              		.cfi_def_cfa_offset 16
 3703              		.cfi_offset 3, -16
ARM GAS  C:\Users\Patryk\AppData\Local\Temp\cc1Vd65O.s 			page 108


 3704              		.cfi_offset 4, -12
 3705              		.cfi_offset 5, -8
 3706              		.cfi_offset 14, -4
 3707 0002 0446     		mov	r4, r0
 3708 0004 0846     		mov	r0, r1
 3709              	.LVL403:
1979:Middlewares/Third_Party/LwIP/src/core/tcp.c ****   struct tcp_pcb *pcb;
1980:Middlewares/Third_Party/LwIP/src/core/tcp.c ****   pcb = pcb_list;
1981:Middlewares/Third_Party/LwIP/src/core/tcp.c ****   while (pcb != NULL) {
 3710              		.loc 1 1981 0
 3711 0006 03E0     		b	.L412
 3712              	.LVL404:
 3713              	.L418:
 3714              	.LBB28:
1982:Middlewares/Third_Party/LwIP/src/core/tcp.c ****     /* PCB bound to current local interface address? */
1983:Middlewares/Third_Party/LwIP/src/core/tcp.c ****     if (ip_addr_cmp(&pcb->local_ip, old_addr)
1984:Middlewares/Third_Party/LwIP/src/core/tcp.c **** #if LWIP_AUTOIP
1985:Middlewares/Third_Party/LwIP/src/core/tcp.c ****       /* connections to link-local addresses must persist (RFC3927 ch. 1.9) */
1986:Middlewares/Third_Party/LwIP/src/core/tcp.c ****       && (!IP_IS_V4_VAL(pcb->local_ip) || !ip4_addr_islinklocal(ip_2_ip4(&pcb->local_ip)))
1987:Middlewares/Third_Party/LwIP/src/core/tcp.c **** #endif /* LWIP_AUTOIP */
1988:Middlewares/Third_Party/LwIP/src/core/tcp.c ****       ) {
1989:Middlewares/Third_Party/LwIP/src/core/tcp.c ****       /* this connection must be aborted */
1990:Middlewares/Third_Party/LwIP/src/core/tcp.c ****       struct tcp_pcb *next = pcb->next;
 3715              		.loc 1 1990 0
 3716 0008 C568     		ldr	r5, [r0, #12]
 3717              	.LVL405:
1991:Middlewares/Third_Party/LwIP/src/core/tcp.c ****       LWIP_DEBUGF(NETIF_DEBUG | LWIP_DBG_STATE, ("netif_set_ipaddr: aborting TCP pcb %p\n", (void *
1992:Middlewares/Third_Party/LwIP/src/core/tcp.c ****       tcp_abort(pcb);
 3718              		.loc 1 1992 0
 3719 000a FFF7FEFF 		bl	tcp_abort
 3720              	.LVL406:
1993:Middlewares/Third_Party/LwIP/src/core/tcp.c ****       pcb = next;
 3721              		.loc 1 1993 0
 3722 000e 2846     		mov	r0, r5
 3723              	.LVL407:
 3724              	.L412:
 3725              	.LBE28:
1981:Middlewares/Third_Party/LwIP/src/core/tcp.c ****     /* PCB bound to current local interface address? */
 3726              		.loc 1 1981 0
 3727 0010 28B1     		cbz	r0, .L417
1983:Middlewares/Third_Party/LwIP/src/core/tcp.c **** #if LWIP_AUTOIP
 3728              		.loc 1 1983 0
 3729 0012 0268     		ldr	r2, [r0]
 3730 0014 2368     		ldr	r3, [r4]
 3731 0016 9A42     		cmp	r2, r3
 3732 0018 F6D0     		beq	.L418
1994:Middlewares/Third_Party/LwIP/src/core/tcp.c ****     } else {
1995:Middlewares/Third_Party/LwIP/src/core/tcp.c ****       pcb = pcb->next;
 3733              		.loc 1 1995 0
 3734 001a C068     		ldr	r0, [r0, #12]
 3735              	.LVL408:
 3736 001c F8E7     		b	.L412
 3737              	.L417:
1996:Middlewares/Third_Party/LwIP/src/core/tcp.c ****     }
1997:Middlewares/Third_Party/LwIP/src/core/tcp.c ****   }
1998:Middlewares/Third_Party/LwIP/src/core/tcp.c **** }
 3738              		.loc 1 1998 0
ARM GAS  C:\Users\Patryk\AppData\Local\Temp\cc1Vd65O.s 			page 109


 3739 001e 38BD     		pop	{r3, r4, r5, pc}
 3740              		.cfi_endproc
 3741              	.LFE197:
 3743              		.section	.text.tcp_kill_state,"ax",%progbits
 3744              		.align	1
 3745              		.syntax unified
 3746              		.thumb
 3747              		.thumb_func
 3748              		.fpu fpv5-sp-d16
 3750              	tcp_kill_state:
 3751              	.LFB182:
1496:Middlewares/Third_Party/LwIP/src/core/tcp.c ****   struct tcp_pcb *pcb, *inactive;
 3752              		.loc 1 1496 0
 3753              		.cfi_startproc
 3754              		@ args = 0, pretend = 0, frame = 0
 3755              		@ frame_needed = 0, uses_anonymous_args = 0
 3756              	.LVL409:
 3757 0000 38B5     		push	{r3, r4, r5, lr}
 3758              	.LCFI49:
 3759              		.cfi_def_cfa_offset 16
 3760              		.cfi_offset 3, -16
 3761              		.cfi_offset 4, -12
 3762              		.cfi_offset 5, -8
 3763              		.cfi_offset 14, -4
 3764 0002 0446     		mov	r4, r0
1500:Middlewares/Third_Party/LwIP/src/core/tcp.c **** 
 3765              		.loc 1 1500 0
 3766 0004 A0F10803 		sub	r3, r0, #8
 3767 0008 DBB2     		uxtb	r3, r3
 3768 000a 012B     		cmp	r3, #1
 3769 000c 04D8     		bhi	.L427
 3770              	.LVL410:
 3771              	.L420:
1506:Middlewares/Third_Party/LwIP/src/core/tcp.c ****     if (pcb->state == state) {
 3772              		.loc 1 1506 0
 3773 000e 104B     		ldr	r3, .L429
 3774 0010 1B68     		ldr	r3, [r3]
 3775              	.LVL411:
1502:Middlewares/Third_Party/LwIP/src/core/tcp.c ****   inactive = NULL;
 3776              		.loc 1 1502 0
 3777 0012 0021     		movs	r1, #0
1503:Middlewares/Third_Party/LwIP/src/core/tcp.c ****   /* Go through the list of active pcbs and get the oldest pcb that is in state
 3778              		.loc 1 1503 0
 3779 0014 0846     		mov	r0, r1
1506:Middlewares/Third_Party/LwIP/src/core/tcp.c ****     if (pcb->state == state) {
 3780              		.loc 1 1506 0
 3781 0016 08E0     		b	.L421
 3782              	.LVL412:
 3783              	.L427:
1500:Middlewares/Third_Party/LwIP/src/core/tcp.c **** 
 3784              		.loc 1 1500 0 discriminator 1
 3785 0018 0E4B     		ldr	r3, .L429+4
 3786 001a 40F2DC52 		movw	r2, #1500
 3787 001e 0E49     		ldr	r1, .L429+8
 3788 0020 0E48     		ldr	r0, .L429+12
 3789              	.LVL413:
 3790 0022 FFF7FEFF 		bl	printf
ARM GAS  C:\Users\Patryk\AppData\Local\Temp\cc1Vd65O.s 			page 110


 3791              	.LVL414:
 3792 0026 F2E7     		b	.L420
 3793              	.LVL415:
 3794              	.L422:
1506:Middlewares/Third_Party/LwIP/src/core/tcp.c ****     if (pcb->state == state) {
 3795              		.loc 1 1506 0 discriminator 2
 3796 0028 DB68     		ldr	r3, [r3, #12]
 3797              	.LVL416:
 3798              	.L421:
1506:Middlewares/Third_Party/LwIP/src/core/tcp.c ****     if (pcb->state == state) {
 3799              		.loc 1 1506 0 is_stmt 0 discriminator 1
 3800 002a 5BB1     		cbz	r3, .L428
1507:Middlewares/Third_Party/LwIP/src/core/tcp.c ****       if ((u32_t)(tcp_ticks - pcb->tmr) >= inactivity) {
 3801              		.loc 1 1507 0 is_stmt 1
 3802 002c 1A7D     		ldrb	r2, [r3, #20]	@ zero_extendqisi2
 3803 002e A242     		cmp	r2, r4
 3804 0030 FAD1     		bne	.L422
1508:Middlewares/Third_Party/LwIP/src/core/tcp.c ****         inactivity = tcp_ticks - pcb->tmr;
 3805              		.loc 1 1508 0
 3806 0032 1D6A     		ldr	r5, [r3, #32]
 3807 0034 0A4A     		ldr	r2, .L429+16
 3808 0036 1268     		ldr	r2, [r2]
 3809 0038 521B     		subs	r2, r2, r5
 3810 003a 8A42     		cmp	r2, r1
 3811 003c F4D3     		bcc	.L422
1509:Middlewares/Third_Party/LwIP/src/core/tcp.c ****         inactive = pcb;
 3812              		.loc 1 1509 0
 3813 003e 1146     		mov	r1, r2
 3814              	.LVL417:
1510:Middlewares/Third_Party/LwIP/src/core/tcp.c ****       }
 3815              		.loc 1 1510 0
 3816 0040 1846     		mov	r0, r3
 3817              	.LVL418:
 3818 0042 F1E7     		b	.L422
 3819              	.LVL419:
 3820              	.L428:
1514:Middlewares/Third_Party/LwIP/src/core/tcp.c ****     LWIP_DEBUGF(TCP_DEBUG, ("tcp_kill_closing: killing oldest %s PCB %p (%"S32_F")\n",
 3821              		.loc 1 1514 0
 3822 0044 10B1     		cbz	r0, .L419
1518:Middlewares/Third_Party/LwIP/src/core/tcp.c ****   }
 3823              		.loc 1 1518 0
 3824 0046 0021     		movs	r1, #0
 3825              	.LVL420:
 3826 0048 FFF7FEFF 		bl	tcp_abandon
 3827              	.LVL421:
 3828              	.L419:
1520:Middlewares/Third_Party/LwIP/src/core/tcp.c **** 
 3829              		.loc 1 1520 0
 3830 004c 38BD     		pop	{r3, r4, r5, pc}
 3831              	.L430:
 3832 004e 00BF     		.align	2
 3833              	.L429:
 3834 0050 00000000 		.word	tcp_active_pcbs
 3835 0054 00000000 		.word	.LC0
 3836 0058 00000000 		.word	.LC26
 3837 005c 38000000 		.word	.LC2
 3838 0060 00000000 		.word	tcp_ticks
ARM GAS  C:\Users\Patryk\AppData\Local\Temp\cc1Vd65O.s 			page 111


 3839              		.cfi_endproc
 3840              	.LFE182:
 3842              		.section	.text.tcp_alloc,"ax",%progbits
 3843              		.align	1
 3844              		.global	tcp_alloc
 3845              		.syntax unified
 3846              		.thumb
 3847              		.thumb_func
 3848              		.fpu fpv5-sp-d16
 3850              	tcp_alloc:
 3851              	.LFB184:
1556:Middlewares/Third_Party/LwIP/src/core/tcp.c ****   struct tcp_pcb *pcb;
 3852              		.loc 1 1556 0
 3853              		.cfi_startproc
 3854              		@ args = 0, pretend = 0, frame = 0
 3855              		@ frame_needed = 0, uses_anonymous_args = 0
 3856              	.LVL422:
 3857 0000 38B5     		push	{r3, r4, r5, lr}
 3858              	.LCFI50:
 3859              		.cfi_def_cfa_offset 16
 3860              		.cfi_offset 3, -16
 3861              		.cfi_offset 4, -12
 3862              		.cfi_offset 5, -8
 3863              		.cfi_offset 14, -4
 3864 0002 0546     		mov	r5, r0
1559:Middlewares/Third_Party/LwIP/src/core/tcp.c ****   if (pcb == NULL) {
 3865              		.loc 1 1559 0
 3866 0004 0120     		movs	r0, #1
 3867              	.LVL423:
 3868 0006 FFF7FEFF 		bl	memp_malloc
 3869              	.LVL424:
1560:Middlewares/Third_Party/LwIP/src/core/tcp.c ****     /* Try killing oldest connection in TIME-WAIT. */
 3870              		.loc 1 1560 0
 3871 000a 0446     		mov	r4, r0
 3872 000c 68B3     		cbz	r0, .L435
 3873              	.L432:
1604:Middlewares/Third_Party/LwIP/src/core/tcp.c ****     /* zero out the whole pcb, so there is no need to initialize members to zero */
 3874              		.loc 1 1604 0
 3875 000e 54B3     		cbz	r4, .L431
1606:Middlewares/Third_Party/LwIP/src/core/tcp.c ****     pcb->prio = prio;
 3876              		.loc 1 1606 0
 3877 0010 9822     		movs	r2, #152
 3878 0012 0021     		movs	r1, #0
 3879 0014 2046     		mov	r0, r4
 3880 0016 FFF7FEFF 		bl	memset
 3881              	.LVL425:
1607:Middlewares/Third_Party/LwIP/src/core/tcp.c ****     pcb->snd_buf = TCP_SND_BUF;
 3882              		.loc 1 1607 0
 3883 001a 6575     		strb	r5, [r4, #21]
1608:Middlewares/Third_Party/LwIP/src/core/tcp.c ****     /* Start with a window that does not need scaling. When window scaling is
 3884              		.loc 1 1608 0
 3885 001c 4FF48663 		mov	r3, #1072
 3886 0020 A4F86030 		strh	r3, [r4, #96]	@ movhi
1611:Middlewares/Third_Party/LwIP/src/core/tcp.c ****     pcb->ttl = TCP_TTL;
 3887              		.loc 1 1611 0
 3888 0024 4FF40662 		mov	r2, #2144
 3889 0028 6285     		strh	r2, [r4, #42]	@ movhi
ARM GAS  C:\Users\Patryk\AppData\Local\Temp\cc1Vd65O.s 			page 112


 3890 002a 2285     		strh	r2, [r4, #40]	@ movhi
1612:Middlewares/Third_Party/LwIP/src/core/tcp.c ****     /* As initial send MSS, we use TCP_MSS but limit it to 536.
 3891              		.loc 1 1612 0
 3892 002c FF22     		movs	r2, #255
 3893 002e A272     		strb	r2, [r4, #10]
1615:Middlewares/Third_Party/LwIP/src/core/tcp.c ****     pcb->rto = 3000 / TCP_SLOW_INTERVAL;
 3894              		.loc 1 1615 0
 3895 0030 4FF40672 		mov	r2, #536
 3896 0034 6286     		strh	r2, [r4, #50]	@ movhi
1616:Middlewares/Third_Party/LwIP/src/core/tcp.c ****     pcb->sv = 3000 / TCP_SLOW_INTERVAL;
 3897              		.loc 1 1616 0
 3898 0036 0622     		movs	r2, #6
 3899 0038 A4F84020 		strh	r2, [r4, #64]	@ movhi
1617:Middlewares/Third_Party/LwIP/src/core/tcp.c ****     pcb->rtime = -1;
 3900              		.loc 1 1617 0
 3901 003c E287     		strh	r2, [r4, #62]	@ movhi
1618:Middlewares/Third_Party/LwIP/src/core/tcp.c ****     pcb->cwnd = 1;
 3902              		.loc 1 1618 0
 3903 003e 4FF6FF72 		movw	r2, #65535
 3904 0042 2286     		strh	r2, [r4, #48]	@ movhi
1619:Middlewares/Third_Party/LwIP/src/core/tcp.c ****     pcb->tmr = tcp_ticks;
 3905              		.loc 1 1619 0
 3906 0044 0122     		movs	r2, #1
 3907 0046 A4F84820 		strh	r2, [r4, #72]	@ movhi
1620:Middlewares/Third_Party/LwIP/src/core/tcp.c ****     pcb->last_timer = tcp_timer_ctr;
 3908              		.loc 1 1620 0
 3909 004a 194A     		ldr	r2, .L436
 3910 004c 1268     		ldr	r2, [r2]
 3911 004e 2262     		str	r2, [r4, #32]
1621:Middlewares/Third_Party/LwIP/src/core/tcp.c **** 
 3912              		.loc 1 1621 0
 3913 0050 184A     		ldr	r2, .L436+4
 3914 0052 1278     		ldrb	r2, [r2]	@ zero_extendqisi2
 3915 0054 6277     		strb	r2, [r4, #29]
1629:Middlewares/Third_Party/LwIP/src/core/tcp.c **** 
 3916              		.loc 1 1629 0
 3917 0056 A4F84A30 		strh	r3, [r4, #74]	@ movhi
1632:Middlewares/Third_Party/LwIP/src/core/tcp.c **** #endif /* LWIP_CALLBACK_API */
 3918              		.loc 1 1632 0
 3919 005a 174B     		ldr	r3, .L436+8
 3920 005c C4F88030 		str	r3, [r4, #128]
1636:Middlewares/Third_Party/LwIP/src/core/tcp.c **** 
 3921              		.loc 1 1636 0
 3922 0060 164B     		ldr	r3, .L436+12
 3923 0062 C4F89030 		str	r3, [r4, #144]
 3924              	.L431:
1644:Middlewares/Third_Party/LwIP/src/core/tcp.c **** 
 3925              		.loc 1 1644 0
 3926 0066 2046     		mov	r0, r4
 3927 0068 38BD     		pop	{r3, r4, r5, pc}
 3928              	.LVL426:
 3929              	.L435:
1563:Middlewares/Third_Party/LwIP/src/core/tcp.c ****     /* Try to allocate a tcp_pcb again. */
 3930              		.loc 1 1563 0
 3931 006a FFF7FEFF 		bl	tcp_kill_timewait
 3932              	.LVL427:
1565:Middlewares/Third_Party/LwIP/src/core/tcp.c ****     if (pcb == NULL) {
ARM GAS  C:\Users\Patryk\AppData\Local\Temp\cc1Vd65O.s 			page 113


 3933              		.loc 1 1565 0
 3934 006e 0120     		movs	r0, #1
 3935 0070 FFF7FEFF 		bl	memp_malloc
 3936              	.LVL428:
1566:Middlewares/Third_Party/LwIP/src/core/tcp.c ****       /* Try killing oldest connection in LAST-ACK (these wouldn't go to TIME-WAIT). */
 3937              		.loc 1 1566 0
 3938 0074 0446     		mov	r4, r0
 3939 0076 0028     		cmp	r0, #0
 3940 0078 C9D1     		bne	.L432
1569:Middlewares/Third_Party/LwIP/src/core/tcp.c ****       /* Try to allocate a tcp_pcb again. */
 3941              		.loc 1 1569 0
 3942 007a 0920     		movs	r0, #9
 3943              	.LVL429:
 3944 007c FFF7FEFF 		bl	tcp_kill_state
 3945              	.LVL430:
1571:Middlewares/Third_Party/LwIP/src/core/tcp.c ****       if (pcb == NULL) {
 3946              		.loc 1 1571 0
 3947 0080 0120     		movs	r0, #1
 3948 0082 FFF7FEFF 		bl	memp_malloc
 3949              	.LVL431:
1572:Middlewares/Third_Party/LwIP/src/core/tcp.c ****         /* Try killing oldest connection in CLOSING. */
 3950              		.loc 1 1572 0
 3951 0086 0446     		mov	r4, r0
 3952 0088 0028     		cmp	r0, #0
 3953 008a C0D1     		bne	.L432
1575:Middlewares/Third_Party/LwIP/src/core/tcp.c ****         /* Try to allocate a tcp_pcb again. */
 3954              		.loc 1 1575 0
 3955 008c 0820     		movs	r0, #8
 3956              	.LVL432:
 3957 008e FFF7FEFF 		bl	tcp_kill_state
 3958              	.LVL433:
1577:Middlewares/Third_Party/LwIP/src/core/tcp.c ****         if (pcb == NULL) {
 3959              		.loc 1 1577 0
 3960 0092 0120     		movs	r0, #1
 3961 0094 FFF7FEFF 		bl	memp_malloc
 3962              	.LVL434:
1578:Middlewares/Third_Party/LwIP/src/core/tcp.c ****           /* Try killing active connections with lower priority than the new one. */
 3963              		.loc 1 1578 0
 3964 0098 0446     		mov	r4, r0
 3965 009a 0028     		cmp	r0, #0
 3966 009c B7D1     		bne	.L432
1581:Middlewares/Third_Party/LwIP/src/core/tcp.c ****           /* Try to allocate a tcp_pcb again. */
 3967              		.loc 1 1581 0
 3968 009e 2846     		mov	r0, r5
 3969              	.LVL435:
 3970 00a0 FFF7FEFF 		bl	tcp_kill_prio
 3971              	.LVL436:
1583:Middlewares/Third_Party/LwIP/src/core/tcp.c ****           if (pcb != NULL) {
 3972              		.loc 1 1583 0
 3973 00a4 0120     		movs	r0, #1
 3974 00a6 FFF7FEFF 		bl	memp_malloc
 3975              	.LVL437:
 3976 00aa 0446     		mov	r4, r0
 3977              	.LVL438:
 3978 00ac AFE7     		b	.L432
 3979              	.L437:
 3980 00ae 00BF     		.align	2
ARM GAS  C:\Users\Patryk\AppData\Local\Temp\cc1Vd65O.s 			page 114


 3981              	.L436:
 3982 00b0 00000000 		.word	tcp_ticks
 3983 00b4 00000000 		.word	.LANCHOR2
 3984 00b8 00000000 		.word	tcp_recv_null
 3985 00bc 00DD6D00 		.word	7200000
 3986              		.cfi_endproc
 3987              	.LFE184:
 3989              		.section	.text.tcp_new,"ax",%progbits
 3990              		.align	1
 3991              		.global	tcp_new
 3992              		.syntax unified
 3993              		.thumb
 3994              		.thumb_func
 3995              		.fpu fpv5-sp-d16
 3997              	tcp_new:
 3998              	.LFB185:
1661:Middlewares/Third_Party/LwIP/src/core/tcp.c ****   return tcp_alloc(TCP_PRIO_NORMAL);
 3999              		.loc 1 1661 0
 4000              		.cfi_startproc
 4001              		@ args = 0, pretend = 0, frame = 0
 4002              		@ frame_needed = 0, uses_anonymous_args = 0
 4003 0000 08B5     		push	{r3, lr}
 4004              	.LCFI51:
 4005              		.cfi_def_cfa_offset 8
 4006              		.cfi_offset 3, -8
 4007              		.cfi_offset 14, -4
1662:Middlewares/Third_Party/LwIP/src/core/tcp.c **** }
 4008              		.loc 1 1662 0
 4009 0002 4020     		movs	r0, #64
 4010 0004 FFF7FEFF 		bl	tcp_alloc
 4011              	.LVL439:
1663:Middlewares/Third_Party/LwIP/src/core/tcp.c **** 
 4012              		.loc 1 1663 0
 4013 0008 08BD     		pop	{r3, pc}
 4014              		.cfi_endproc
 4015              	.LFE185:
 4017              		.section	.text.tcp_new_ip_type,"ax",%progbits
 4018              		.align	1
 4019              		.global	tcp_new_ip_type
 4020              		.syntax unified
 4021              		.thumb
 4022              		.thumb_func
 4023              		.fpu fpv5-sp-d16
 4025              	tcp_new_ip_type:
 4026              	.LFB186:
1678:Middlewares/Third_Party/LwIP/src/core/tcp.c ****   struct tcp_pcb * pcb;
 4027              		.loc 1 1678 0
 4028              		.cfi_startproc
 4029              		@ args = 0, pretend = 0, frame = 0
 4030              		@ frame_needed = 0, uses_anonymous_args = 0
 4031              	.LVL440:
 4032 0000 08B5     		push	{r3, lr}
 4033              	.LCFI52:
 4034              		.cfi_def_cfa_offset 8
 4035              		.cfi_offset 3, -8
 4036              		.cfi_offset 14, -4
1680:Middlewares/Third_Party/LwIP/src/core/tcp.c **** #if LWIP_IPV4 && LWIP_IPV6
ARM GAS  C:\Users\Patryk\AppData\Local\Temp\cc1Vd65O.s 			page 115


 4037              		.loc 1 1680 0
 4038 0002 4020     		movs	r0, #64
 4039              	.LVL441:
 4040 0004 FFF7FEFF 		bl	tcp_alloc
 4041              	.LVL442:
1690:Middlewares/Third_Party/LwIP/src/core/tcp.c **** 
 4042              		.loc 1 1690 0
 4043 0008 08BD     		pop	{r3, pc}
 4044              		.cfi_endproc
 4045              	.LFE186:
 4047              		.section	.text.tcp_next_iss,"ax",%progbits
 4048              		.align	1
 4049              		.global	tcp_next_iss
 4050              		.syntax unified
 4051              		.thumb
 4052              		.thumb_func
 4053              		.fpu fpv5-sp-d16
 4055              	tcp_next_iss:
 4056              	.LFB195:
1896:Middlewares/Third_Party/LwIP/src/core/tcp.c **** #ifdef LWIP_HOOK_TCP_ISN
 4057              		.loc 1 1896 0
 4058              		.cfi_startproc
 4059              		@ args = 0, pretend = 0, frame = 0
 4060              		@ frame_needed = 0, uses_anonymous_args = 0
 4061              		@ link register save eliminated.
 4062              	.LVL443:
1904:Middlewares/Third_Party/LwIP/src/core/tcp.c ****   return iss;
 4063              		.loc 1 1904 0
 4064 0000 034B     		ldr	r3, .L443
 4065 0002 1868     		ldr	r0, [r3]
 4066              	.LVL444:
 4067 0004 034A     		ldr	r2, .L443+4
 4068 0006 1268     		ldr	r2, [r2]
 4069 0008 1044     		add	r0, r0, r2
 4070 000a 1860     		str	r0, [r3]
1907:Middlewares/Third_Party/LwIP/src/core/tcp.c **** 
 4071              		.loc 1 1907 0
 4072 000c 7047     		bx	lr
 4073              	.L444:
 4074 000e 00BF     		.align	2
 4075              	.L443:
 4076 0010 00000000 		.word	.LANCHOR6
 4077 0014 00000000 		.word	tcp_ticks
 4078              		.cfi_endproc
 4079              	.LFE195:
 4081              		.section	.text.tcp_eff_send_mss_impl,"ax",%progbits
 4082              		.align	1
 4083              		.global	tcp_eff_send_mss_impl
 4084              		.syntax unified
 4085              		.thumb
 4086              		.thumb_func
 4087              		.fpu fpv5-sp-d16
 4089              	tcp_eff_send_mss_impl:
 4090              	.LFB196:
1921:Middlewares/Third_Party/LwIP/src/core/tcp.c ****   u16_t mss_s;
 4091              		.loc 1 1921 0
 4092              		.cfi_startproc
ARM GAS  C:\Users\Patryk\AppData\Local\Temp\cc1Vd65O.s 			page 116


 4093              		@ args = 0, pretend = 0, frame = 0
 4094              		@ frame_needed = 0, uses_anonymous_args = 0
 4095              	.LVL445:
 4096 0000 10B5     		push	{r4, lr}
 4097              	.LCFI53:
 4098              		.cfi_def_cfa_offset 8
 4099              		.cfi_offset 4, -8
 4100              		.cfi_offset 14, -4
 4101 0002 0446     		mov	r4, r0
1926:Middlewares/Third_Party/LwIP/src/core/tcp.c **** #if LWIP_IPV6
 4102              		.loc 1 1926 0
 4103 0004 0846     		mov	r0, r1
 4104              	.LVL446:
 4105 0006 FFF7FEFF 		bl	ip4_route
 4106              	.LVL447:
1941:Middlewares/Third_Party/LwIP/src/core/tcp.c ****       return sendmss;
 4107              		.loc 1 1941 0
 4108 000a 30B1     		cbz	r0, .L446
1944:Middlewares/Third_Party/LwIP/src/core/tcp.c ****   }
 4109              		.loc 1 1944 0
 4110 000c C38C     		ldrh	r3, [r0, #38]
 4111              	.LVL448:
1948:Middlewares/Third_Party/LwIP/src/core/tcp.c **** #if LWIP_IPV6
 4112              		.loc 1 1948 0
 4113 000e 23B1     		cbz	r3, .L446
1962:Middlewares/Third_Party/LwIP/src/core/tcp.c ****     }
 4114              		.loc 1 1962 0
 4115 0010 283B     		subs	r3, r3, #40
 4116              	.LVL449:
 4117 0012 9BB2     		uxth	r3, r3
 4118              	.LVL450:
1969:Middlewares/Third_Party/LwIP/src/core/tcp.c ****   }
 4119              		.loc 1 1969 0
 4120 0014 9C42     		cmp	r4, r3
 4121 0016 28BF     		it	cs
 4122 0018 1C46     		movcs	r4, r3
 4123              	.LVL451:
 4124              	.L446:
1972:Middlewares/Third_Party/LwIP/src/core/tcp.c **** #endif /* TCP_CALCULATE_EFF_SEND_MSS */
 4125              		.loc 1 1972 0
 4126 001a 2046     		mov	r0, r4
 4127              	.LVL452:
 4128 001c 10BD     		pop	{r4, pc}
 4129              		.cfi_endproc
 4130              	.LFE196:
 4132              		.section	.text.tcp_connect,"ax",%progbits
 4133              		.align	1
 4134              		.global	tcp_connect
 4135              		.syntax unified
 4136              		.thumb
 4137              		.thumb_func
 4138              		.fpu fpv5-sp-d16
 4140              	tcp_connect:
 4141              	.LFB171:
 879:Middlewares/Third_Party/LwIP/src/core/tcp.c ****   err_t ret;
 4142              		.loc 1 879 0
 4143              		.cfi_startproc
ARM GAS  C:\Users\Patryk\AppData\Local\Temp\cc1Vd65O.s 			page 117


 4144              		@ args = 0, pretend = 0, frame = 0
 4145              		@ frame_needed = 0, uses_anonymous_args = 0
 4146              	.LVL453:
 4147 0000 70B5     		push	{r4, r5, r6, lr}
 4148              	.LCFI54:
 4149              		.cfi_def_cfa_offset 16
 4150              		.cfi_offset 4, -16
 4151              		.cfi_offset 5, -12
 4152              		.cfi_offset 6, -8
 4153              		.cfi_offset 14, -4
 884:Middlewares/Third_Party/LwIP/src/core/tcp.c ****     return ERR_VAL;
 4154              		.loc 1 884 0
 4155 0002 0D46     		mov	r5, r1
 4156 0004 B1FA81F1 		clz	r1, r1
 4157              	.LVL454:
 4158 0008 4909     		lsrs	r1, r1, #5
 4159 000a 0028     		cmp	r0, #0
 4160 000c 08BF     		it	eq
 4161 000e 0121     		moveq	r1, #1
 4162 0010 0029     		cmp	r1, #0
 4163 0012 77D1     		bne	.L460
 4164 0014 0446     		mov	r4, r0
 4165 0016 2946     		mov	r1, r5
 4166 0018 1D46     		mov	r5, r3
 4167              	.LVL455:
 888:Middlewares/Third_Party/LwIP/src/core/tcp.c **** 
 4168              		.loc 1 888 0
 4169 001a 037D     		ldrb	r3, [r0, #20]	@ zero_extendqisi2
 4170              	.LVL456:
 4171 001c 002B     		cmp	r3, #0
 4172 001e 4FD1     		bne	.L467
 891:Middlewares/Third_Party/LwIP/src/core/tcp.c ****   pcb->remote_port = port;
 4173              		.loc 1 891 0
 4174 0020 0029     		cmp	r1, #0
 4175 0022 57D0     		beq	.L461
 891:Middlewares/Third_Party/LwIP/src/core/tcp.c ****   pcb->remote_port = port;
 4176              		.loc 1 891 0 is_stmt 0 discriminator 1
 4177 0024 0B68     		ldr	r3, [r1]
 4178              	.L451:
 891:Middlewares/Third_Party/LwIP/src/core/tcp.c ****   pcb->remote_port = port;
 4179              		.loc 1 891 0 discriminator 4
 4180 0026 6360     		str	r3, [r4, #4]
 892:Middlewares/Third_Party/LwIP/src/core/tcp.c **** 
 4181              		.loc 1 892 0 is_stmt 1 discriminator 4
 4182 0028 2283     		strh	r2, [r4, #24]	@ movhi
 895:Middlewares/Third_Party/LwIP/src/core/tcp.c ****     /* no local IP address set, yet. */
 4183              		.loc 1 895 0 discriminator 4
 4184 002a 0CB1     		cbz	r4, .L452
 895:Middlewares/Third_Party/LwIP/src/core/tcp.c ****     /* no local IP address set, yet. */
 4185              		.loc 1 895 0 is_stmt 0 discriminator 1
 4186 002c 2368     		ldr	r3, [r4]
 4187 002e 83B9     		cbnz	r3, .L453
 4188              	.L452:
 4189              	.LBB29:
 899:Middlewares/Third_Party/LwIP/src/core/tcp.c ****     if ((netif == NULL) || (local_ip == NULL)) {
 4190              		.loc 1 899 0 is_stmt 1
 4191 0030 201D     		adds	r0, r4, #4
ARM GAS  C:\Users\Patryk\AppData\Local\Temp\cc1Vd65O.s 			page 118


 4192              	.LVL457:
 4193 0032 FFF7FEFF 		bl	ip4_route
 4194              	.LVL458:
 4195 0036 0246     		mov	r2, r0
 4196 0038 0028     		cmp	r0, #0
 4197 003a 4DD0     		beq	.L462
 899:Middlewares/Third_Party/LwIP/src/core/tcp.c ****     if ((netif == NULL) || (local_ip == NULL)) {
 4198              		.loc 1 899 0 is_stmt 0 discriminator 1
 4199 003c 031D     		adds	r3, r0, #4
 4200              	.L454:
 4201              	.LVL459:
 900:Middlewares/Third_Party/LwIP/src/core/tcp.c ****       /* Don't even try to send a SYN packet if we have no route
 4202              		.loc 1 900 0 is_stmt 1 discriminator 4
 4203 003e B3FA83F0 		clz	r0, r3
 4204              	.LVL460:
 4205 0042 4009     		lsrs	r0, r0, #5
 4206 0044 002A     		cmp	r2, #0
 4207 0046 08BF     		it	eq
 4208 0048 0120     		moveq	r0, #1
 4209 004a 0028     		cmp	r0, #0
 4210 004c 5DD1     		bne	.L463
 906:Middlewares/Third_Party/LwIP/src/core/tcp.c ****   }
 4211              		.loc 1 906 0
 4212 004e 1B68     		ldr	r3, [r3]
 4213              	.LVL461:
 4214 0050 2360     		str	r3, [r4]
 4215              	.LVL462:
 4216              	.L453:
 4217              	.LBE29:
 909:Middlewares/Third_Party/LwIP/src/core/tcp.c ****   if (pcb->local_port == 0) {
 4218              		.loc 1 909 0
 4219 0052 E68A     		ldrh	r6, [r4, #22]
 4220              	.LVL463:
 910:Middlewares/Third_Party/LwIP/src/core/tcp.c ****     pcb->local_port = tcp_new_port();
 4221              		.loc 1 910 0
 4222 0054 26B9     		cbnz	r6, .L455
 911:Middlewares/Third_Party/LwIP/src/core/tcp.c ****     if (pcb->local_port == 0) {
 4223              		.loc 1 911 0
 4224 0056 FFF7FEFF 		bl	tcp_new_port
 4225              	.LVL464:
 4226 005a E082     		strh	r0, [r4, #22]	@ movhi
 912:Middlewares/Third_Party/LwIP/src/core/tcp.c ****       return ERR_BUF;
 4227              		.loc 1 912 0
 4228 005c 0028     		cmp	r0, #0
 4229 005e 57D0     		beq	.L464
 4230              	.L455:
 938:Middlewares/Third_Party/LwIP/src/core/tcp.c ****   pcb->rcv_nxt = 0;
 4231              		.loc 1 938 0
 4232 0060 2046     		mov	r0, r4
 4233 0062 FFF7FEFF 		bl	tcp_next_iss
 4234              	.LVL465:
 939:Middlewares/Third_Party/LwIP/src/core/tcp.c ****   pcb->snd_nxt = iss;
 4235              		.loc 1 939 0
 4236 0066 0022     		movs	r2, #0
 4237 0068 6262     		str	r2, [r4, #36]
 940:Middlewares/Third_Party/LwIP/src/core/tcp.c ****   pcb->lastack = iss - 1;
 4238              		.loc 1 940 0
ARM GAS  C:\Users\Patryk\AppData\Local\Temp\cc1Vd65O.s 			page 119


 4239 006a E064     		str	r0, [r4, #76]
 941:Middlewares/Third_Party/LwIP/src/core/tcp.c ****   pcb->snd_wl2 = iss - 1;
 4240              		.loc 1 941 0
 4241 006c 0138     		subs	r0, r0, #1
 4242              	.LVL466:
 4243 006e 6064     		str	r0, [r4, #68]
 942:Middlewares/Third_Party/LwIP/src/core/tcp.c ****   pcb->snd_lbb = iss - 1;
 4244              		.loc 1 942 0
 4245 0070 6065     		str	r0, [r4, #84]
 943:Middlewares/Third_Party/LwIP/src/core/tcp.c ****   /* Start with a window that does not need scaling. When window scaling is
 4246              		.loc 1 943 0
 4247 0072 A065     		str	r0, [r4, #88]
 946:Middlewares/Third_Party/LwIP/src/core/tcp.c ****   pcb->rcv_ann_right_edge = pcb->rcv_nxt;
 4248              		.loc 1 946 0
 4249 0074 4FF40663 		mov	r3, #2144
 4250 0078 6385     		strh	r3, [r4, #42]	@ movhi
 4251 007a 2385     		strh	r3, [r4, #40]	@ movhi
 947:Middlewares/Third_Party/LwIP/src/core/tcp.c ****   pcb->snd_wnd = TCP_WND;
 4252              		.loc 1 947 0
 4253 007c E262     		str	r2, [r4, #44]
 948:Middlewares/Third_Party/LwIP/src/core/tcp.c ****   /* As initial send MSS, we use TCP_MSS but limit it to 536.
 4254              		.loc 1 948 0
 4255 007e A4F85C30 		strh	r3, [r4, #92]	@ movhi
 951:Middlewares/Third_Party/LwIP/src/core/tcp.c **** #if TCP_CALCULATE_EFF_SEND_MSS
 4256              		.loc 1 951 0
 4257 0082 4FF40670 		mov	r0, #536
 4258 0086 6086     		strh	r0, [r4, #50]	@ movhi
 953:Middlewares/Third_Party/LwIP/src/core/tcp.c **** #endif /* TCP_CALCULATE_EFF_SEND_MSS */
 4259              		.loc 1 953 0
 4260 0088 211D     		adds	r1, r4, #4
 4261 008a FFF7FEFF 		bl	tcp_eff_send_mss_impl
 4262              	.LVL467:
 4263 008e 6086     		strh	r0, [r4, #50]	@ movhi
 955:Middlewares/Third_Party/LwIP/src/core/tcp.c **** #if LWIP_CALLBACK_API
 4264              		.loc 1 955 0
 4265 0090 0123     		movs	r3, #1
 4266 0092 A4F84830 		strh	r3, [r4, #72]	@ movhi
 957:Middlewares/Third_Party/LwIP/src/core/tcp.c **** #else /* LWIP_CALLBACK_API */
 4267              		.loc 1 957 0
 4268 0096 C4F88450 		str	r5, [r4, #132]
 963:Middlewares/Third_Party/LwIP/src/core/tcp.c ****   if (ret == ERR_OK) {
 4269              		.loc 1 963 0
 4270 009a 0221     		movs	r1, #2
 4271 009c 2046     		mov	r0, r4
 4272 009e FFF7FEFF 		bl	tcp_enqueue_flags
 4273              	.LVL468:
 964:Middlewares/Third_Party/LwIP/src/core/tcp.c ****     /* SYN segment was enqueued, changed the pcbs state now */
 4274              		.loc 1 964 0
 4275 00a2 0546     		mov	r5, r0
 4276              	.LVL469:
 4277 00a4 60BB     		cbnz	r0, .L449
 966:Middlewares/Third_Party/LwIP/src/core/tcp.c ****     if (old_local_port != 0) {
 4278              		.loc 1 966 0
 4279 00a6 0223     		movs	r3, #2
 4280 00a8 2375     		strb	r3, [r4, #20]
 967:Middlewares/Third_Party/LwIP/src/core/tcp.c ****       TCP_RMV(&tcp_bound_pcbs, pcb);
 4281              		.loc 1 967 0
ARM GAS  C:\Users\Patryk\AppData\Local\Temp\cc1Vd65O.s 			page 120


 4282 00aa EEB1     		cbz	r6, .L456
 968:Middlewares/Third_Party/LwIP/src/core/tcp.c ****     }
 4283              		.loc 1 968 0
 4284 00ac 1A4B     		ldr	r3, .L470
 4285 00ae 1B68     		ldr	r3, [r3]
 4286 00b0 A342     		cmp	r3, r4
 4287 00b2 13D0     		beq	.L468
 4288              	.L457:
 4289              	.LVL470:
 4290              	.LBB30:
 968:Middlewares/Third_Party/LwIP/src/core/tcp.c ****     }
 4291              		.loc 1 968 0 is_stmt 0 discriminator 8
 4292 00b4 C3B1     		cbz	r3, .L456
 968:Middlewares/Third_Party/LwIP/src/core/tcp.c ****     }
 4293              		.loc 1 968 0 discriminator 9
 4294 00b6 DA68     		ldr	r2, [r3, #12]
 4295 00b8 A242     		cmp	r2, r4
 4296 00ba 13D0     		beq	.L469
 968:Middlewares/Third_Party/LwIP/src/core/tcp.c ****     }
 4297              		.loc 1 968 0
 4298 00bc 1346     		mov	r3, r2
 4299              	.LVL471:
 4300 00be F9E7     		b	.L457
 4301              	.LVL472:
 4302              	.L467:
 4303              	.LBE30:
 888:Middlewares/Third_Party/LwIP/src/core/tcp.c **** 
 4304              		.loc 1 888 0 is_stmt 1 discriminator 1
 4305 00c0 164B     		ldr	r3, .L470+4
 4306 00c2 4FF45E72 		mov	r2, #888
 4307              	.LVL473:
 4308 00c6 1649     		ldr	r1, .L470+8
 4309              	.LVL474:
 4310 00c8 1648     		ldr	r0, .L470+12
 4311              	.LVL475:
 4312 00ca FFF7FEFF 		bl	printf
 4313              	.LVL476:
 4314 00ce 6FF00905 		mvn	r5, #9
 4315              	.LVL477:
 4316 00d2 15E0     		b	.L449
 4317              	.LVL478:
 4318              	.L461:
 891:Middlewares/Third_Party/LwIP/src/core/tcp.c ****   pcb->remote_port = port;
 4319              		.loc 1 891 0
 4320 00d4 0023     		movs	r3, #0
 4321 00d6 A6E7     		b	.L451
 4322              	.LVL479:
 4323              	.L462:
 4324              	.LBB31:
 899:Middlewares/Third_Party/LwIP/src/core/tcp.c ****     if ((netif == NULL) || (local_ip == NULL)) {
 4325              		.loc 1 899 0
 4326 00d8 0023     		movs	r3, #0
 4327 00da B0E7     		b	.L454
 4328              	.LVL480:
 4329              	.L468:
 4330              	.LBE31:
 968:Middlewares/Third_Party/LwIP/src/core/tcp.c ****     }
ARM GAS  C:\Users\Patryk\AppData\Local\Temp\cc1Vd65O.s 			page 121


 4331              		.loc 1 968 0 discriminator 1
 4332 00dc DA68     		ldr	r2, [r3, #12]
 4333 00de 0E4B     		ldr	r3, .L470
 4334 00e0 1A60     		str	r2, [r3]
 4335 00e2 01E0     		b	.L456
 4336              	.LVL481:
 4337              	.L469:
 4338              	.LBB32:
 968:Middlewares/Third_Party/LwIP/src/core/tcp.c ****     }
 4339              		.loc 1 968 0 is_stmt 0 discriminator 5
 4340 00e4 E268     		ldr	r2, [r4, #12]
 4341 00e6 DA60     		str	r2, [r3, #12]
 4342              	.LVL482:
 4343              	.L456:
 4344              	.LBE32:
 970:Middlewares/Third_Party/LwIP/src/core/tcp.c ****     MIB2_STATS_INC(mib2.tcpactiveopens);
 4345              		.loc 1 970 0 is_stmt 1
 4346 00e8 0F4B     		ldr	r3, .L470+16
 4347 00ea 1A68     		ldr	r2, [r3]
 4348 00ec E260     		str	r2, [r4, #12]
 4349 00ee 1C60     		str	r4, [r3]
 4350 00f0 FFF7FEFF 		bl	tcp_timer_needed
 4351              	.LVL483:
 4352 00f4 0D4B     		ldr	r3, .L470+20
 4353 00f6 0122     		movs	r2, #1
 4354 00f8 1A70     		strb	r2, [r3]
 973:Middlewares/Third_Party/LwIP/src/core/tcp.c ****   }
 4355              		.loc 1 973 0
 4356 00fa 2046     		mov	r0, r4
 4357 00fc FFF7FEFF 		bl	tcp_output
 4358              	.LVL484:
 4359              	.L449:
 976:Middlewares/Third_Party/LwIP/src/core/tcp.c **** 
 4360              		.loc 1 976 0
 4361 0100 2846     		mov	r0, r5
 4362 0102 70BD     		pop	{r4, r5, r6, pc}
 4363              	.LVL485:
 4364              	.L460:
 885:Middlewares/Third_Party/LwIP/src/core/tcp.c ****   }
 4365              		.loc 1 885 0
 4366 0104 6FF00505 		mvn	r5, #5
 4367              	.LVL486:
 4368 0108 FAE7     		b	.L449
 4369              	.LVL487:
 4370              	.L463:
 4371              	.LBB33:
 903:Middlewares/Third_Party/LwIP/src/core/tcp.c ****     }
 4372              		.loc 1 903 0
 4373 010a 6FF00305 		mvn	r5, #3
 4374              	.LVL488:
 4375 010e F7E7     		b	.L449
 4376              	.LVL489:
 4377              	.L464:
 4378              	.LBE33:
 913:Middlewares/Third_Party/LwIP/src/core/tcp.c ****     }
 4379              		.loc 1 913 0
 4380 0110 6FF00105 		mvn	r5, #1
ARM GAS  C:\Users\Patryk\AppData\Local\Temp\cc1Vd65O.s 			page 122


 4381              	.LVL490:
 4382 0114 F4E7     		b	.L449
 4383              	.L471:
 4384 0116 00BF     		.align	2
 4385              	.L470:
 4386 0118 00000000 		.word	tcp_bound_pcbs
 4387 011c 00000000 		.word	.LC0
 4388 0120 00000000 		.word	.LC27
 4389 0124 38000000 		.word	.LC2
 4390 0128 00000000 		.word	tcp_active_pcbs
 4391 012c 00000000 		.word	tcp_active_pcbs_changed
 4392              		.cfi_endproc
 4393              	.LFE171:
 4395              		.section	.text.tcp_netif_ip_addr_changed,"ax",%progbits
 4396              		.align	1
 4397              		.global	tcp_netif_ip_addr_changed
 4398              		.syntax unified
 4399              		.thumb
 4400              		.thumb_func
 4401              		.fpu fpv5-sp-d16
 4403              	tcp_netif_ip_addr_changed:
 4404              	.LFB198:
1999:Middlewares/Third_Party/LwIP/src/core/tcp.c **** 
2000:Middlewares/Third_Party/LwIP/src/core/tcp.c **** /** This function is called from netif.c when address is changed or netif is removed
2001:Middlewares/Third_Party/LwIP/src/core/tcp.c ****  *
2002:Middlewares/Third_Party/LwIP/src/core/tcp.c ****  * @param old_addr IP address of the netif before change
2003:Middlewares/Third_Party/LwIP/src/core/tcp.c ****  * @param new_addr IP address of the netif after change or NULL if netif has been removed
2004:Middlewares/Third_Party/LwIP/src/core/tcp.c ****  */
2005:Middlewares/Third_Party/LwIP/src/core/tcp.c **** void
2006:Middlewares/Third_Party/LwIP/src/core/tcp.c **** tcp_netif_ip_addr_changed(const ip_addr_t* old_addr, const ip_addr_t* new_addr)
2007:Middlewares/Third_Party/LwIP/src/core/tcp.c **** {
 4405              		.loc 1 2007 0
 4406              		.cfi_startproc
 4407              		@ args = 0, pretend = 0, frame = 0
 4408              		@ frame_needed = 0, uses_anonymous_args = 0
 4409              	.LVL491:
2008:Middlewares/Third_Party/LwIP/src/core/tcp.c ****   struct tcp_pcb_listen *lpcb, *next;
2009:Middlewares/Third_Party/LwIP/src/core/tcp.c **** 
2010:Middlewares/Third_Party/LwIP/src/core/tcp.c ****   if (!ip_addr_isany(old_addr)) {
 4410              		.loc 1 2010 0
 4411 0000 08B3     		cbz	r0, .L478
2007:Middlewares/Third_Party/LwIP/src/core/tcp.c ****   struct tcp_pcb_listen *lpcb, *next;
 4412              		.loc 1 2007 0 discriminator 1
 4413 0002 38B5     		push	{r3, r4, r5, lr}
 4414              	.LCFI55:
 4415              		.cfi_def_cfa_offset 16
 4416              		.cfi_offset 3, -16
 4417              		.cfi_offset 4, -12
 4418              		.cfi_offset 5, -8
 4419              		.cfi_offset 14, -4
 4420 0004 0446     		mov	r4, r0
 4421              		.loc 1 2010 0 discriminator 1
 4422 0006 0268     		ldr	r2, [r0]
 4423 0008 02B9     		cbnz	r2, .L481
 4424              	.LVL492:
 4425              	.L472:
2011:Middlewares/Third_Party/LwIP/src/core/tcp.c ****     tcp_netif_ip_addr_changed_pcblist(old_addr, tcp_active_pcbs);
ARM GAS  C:\Users\Patryk\AppData\Local\Temp\cc1Vd65O.s 			page 123


2012:Middlewares/Third_Party/LwIP/src/core/tcp.c ****     tcp_netif_ip_addr_changed_pcblist(old_addr, tcp_bound_pcbs);
2013:Middlewares/Third_Party/LwIP/src/core/tcp.c **** 
2014:Middlewares/Third_Party/LwIP/src/core/tcp.c ****     if (!ip_addr_isany(new_addr)) {
2015:Middlewares/Third_Party/LwIP/src/core/tcp.c ****       /* PCB bound to current local interface address? */
2016:Middlewares/Third_Party/LwIP/src/core/tcp.c ****       for (lpcb = tcp_listen_pcbs.listen_pcbs; lpcb != NULL; lpcb = next) {
2017:Middlewares/Third_Party/LwIP/src/core/tcp.c ****         next = lpcb->next;
2018:Middlewares/Third_Party/LwIP/src/core/tcp.c ****         /* PCB bound to current local interface address? */
2019:Middlewares/Third_Party/LwIP/src/core/tcp.c ****         if (ip_addr_cmp(&lpcb->local_ip, old_addr)) {
2020:Middlewares/Third_Party/LwIP/src/core/tcp.c ****           /* The PCB is listening to the old ipaddr and
2021:Middlewares/Third_Party/LwIP/src/core/tcp.c ****             * is set to listen to the new one instead */
2022:Middlewares/Third_Party/LwIP/src/core/tcp.c ****           ip_addr_copy(lpcb->local_ip, *new_addr);
2023:Middlewares/Third_Party/LwIP/src/core/tcp.c ****         }
2024:Middlewares/Third_Party/LwIP/src/core/tcp.c ****       }
2025:Middlewares/Third_Party/LwIP/src/core/tcp.c ****     }
2026:Middlewares/Third_Party/LwIP/src/core/tcp.c ****   }
2027:Middlewares/Third_Party/LwIP/src/core/tcp.c **** }
 4426              		.loc 1 2027 0
 4427 000a 38BD     		pop	{r3, r4, r5, pc}
 4428              	.LVL493:
 4429              	.L481:
 4430 000c 0D46     		mov	r5, r1
2011:Middlewares/Third_Party/LwIP/src/core/tcp.c ****     tcp_netif_ip_addr_changed_pcblist(old_addr, tcp_active_pcbs);
 4431              		.loc 1 2011 0
 4432 000e 0E4B     		ldr	r3, .L482
 4433 0010 1968     		ldr	r1, [r3]
 4434              	.LVL494:
 4435 0012 FFF7FEFF 		bl	tcp_netif_ip_addr_changed_pcblist
 4436              	.LVL495:
2012:Middlewares/Third_Party/LwIP/src/core/tcp.c **** 
 4437              		.loc 1 2012 0
 4438 0016 0D4B     		ldr	r3, .L482+4
 4439 0018 1968     		ldr	r1, [r3]
 4440 001a 2046     		mov	r0, r4
 4441 001c FFF7FEFF 		bl	tcp_netif_ip_addr_changed_pcblist
 4442              	.LVL496:
2014:Middlewares/Third_Party/LwIP/src/core/tcp.c ****       /* PCB bound to current local interface address? */
 4443              		.loc 1 2014 0
 4444 0020 002D     		cmp	r5, #0
 4445 0022 F2D0     		beq	.L472
2014:Middlewares/Third_Party/LwIP/src/core/tcp.c ****       /* PCB bound to current local interface address? */
 4446              		.loc 1 2014 0 is_stmt 0 discriminator 1
 4447 0024 2B68     		ldr	r3, [r5]
 4448 0026 002B     		cmp	r3, #0
 4449 0028 EFD0     		beq	.L472
2016:Middlewares/Third_Party/LwIP/src/core/tcp.c ****         next = lpcb->next;
 4450              		.loc 1 2016 0 is_stmt 1
 4451 002a 094B     		ldr	r3, .L482+8
 4452 002c 1B68     		ldr	r3, [r3]
 4453              	.LVL497:
 4454 002e 00E0     		b	.L474
 4455              	.LVL498:
 4456              	.L475:
2007:Middlewares/Third_Party/LwIP/src/core/tcp.c ****   struct tcp_pcb_listen *lpcb, *next;
 4457              		.loc 1 2007 0 discriminator 1
 4458 0030 1346     		mov	r3, r2
 4459              	.LVL499:
 4460              	.L474:
ARM GAS  C:\Users\Patryk\AppData\Local\Temp\cc1Vd65O.s 			page 124


2016:Middlewares/Third_Party/LwIP/src/core/tcp.c ****         next = lpcb->next;
 4461              		.loc 1 2016 0 discriminator 1
 4462 0032 002B     		cmp	r3, #0
 4463 0034 E9D0     		beq	.L472
2017:Middlewares/Third_Party/LwIP/src/core/tcp.c ****         /* PCB bound to current local interface address? */
 4464              		.loc 1 2017 0
 4465 0036 DA68     		ldr	r2, [r3, #12]
 4466              	.LVL500:
2019:Middlewares/Third_Party/LwIP/src/core/tcp.c ****           /* The PCB is listening to the old ipaddr and
 4467              		.loc 1 2019 0
 4468 0038 1868     		ldr	r0, [r3]
 4469 003a 2168     		ldr	r1, [r4]
 4470 003c 8842     		cmp	r0, r1
 4471 003e F7D1     		bne	.L475
2022:Middlewares/Third_Party/LwIP/src/core/tcp.c ****         }
 4472              		.loc 1 2022 0
 4473 0040 2968     		ldr	r1, [r5]
 4474 0042 1960     		str	r1, [r3]
 4475 0044 F4E7     		b	.L475
 4476              	.LVL501:
 4477              	.L478:
 4478              	.LCFI56:
 4479              		.cfi_def_cfa_offset 0
 4480              		.cfi_restore 3
 4481              		.cfi_restore 4
 4482              		.cfi_restore 5
 4483              		.cfi_restore 14
 4484 0046 7047     		bx	lr
 4485              	.L483:
 4486              		.align	2
 4487              	.L482:
 4488 0048 00000000 		.word	tcp_active_pcbs
 4489 004c 00000000 		.word	tcp_bound_pcbs
 4490 0050 00000000 		.word	tcp_listen_pcbs
 4491              		.cfi_endproc
 4492              	.LFE198:
 4494              		.section	.text.tcp_debug_state_str,"ax",%progbits
 4495              		.align	1
 4496              		.global	tcp_debug_state_str
 4497              		.syntax unified
 4498              		.thumb
 4499              		.thumb_func
 4500              		.fpu fpv5-sp-d16
 4502              	tcp_debug_state_str:
 4503              	.LFB199:
2028:Middlewares/Third_Party/LwIP/src/core/tcp.c **** 
2029:Middlewares/Third_Party/LwIP/src/core/tcp.c **** const char*
2030:Middlewares/Third_Party/LwIP/src/core/tcp.c **** tcp_debug_state_str(enum tcp_state s)
2031:Middlewares/Third_Party/LwIP/src/core/tcp.c **** {
 4504              		.loc 1 2031 0
 4505              		.cfi_startproc
 4506              		@ args = 0, pretend = 0, frame = 0
 4507              		@ frame_needed = 0, uses_anonymous_args = 0
 4508              		@ link register save eliminated.
 4509              	.LVL502:
2032:Middlewares/Third_Party/LwIP/src/core/tcp.c ****   return tcp_state_str[s];
2033:Middlewares/Third_Party/LwIP/src/core/tcp.c **** }
ARM GAS  C:\Users\Patryk\AppData\Local\Temp\cc1Vd65O.s 			page 125


 4510              		.loc 1 2033 0
 4511 0000 014B     		ldr	r3, .L485
 4512 0002 53F82000 		ldr	r0, [r3, r0, lsl #2]
 4513              	.LVL503:
 4514 0006 7047     		bx	lr
 4515              	.L486:
 4516              		.align	2
 4517              	.L485:
 4518 0008 00000000 		.word	.LANCHOR7
 4519              		.cfi_endproc
 4520              	.LFE199:
 4522              		.comm	tcp_active_pcbs_changed,1,1
 4523              		.global	tcp_pcb_lists
 4524              		.comm	tcp_tw_pcbs,4,4
 4525              		.comm	tcp_active_pcbs,4,4
 4526              		.comm	tcp_listen_pcbs,4,4
 4527              		.comm	tcp_bound_pcbs,4,4
 4528              		.comm	tcp_ticks,4,4
 4529              		.section	.bss.tcp_timer,"aw",%nobits
 4530              		.set	.LANCHOR5,. + 0
 4533              	tcp_timer:
 4534 0000 00       		.space	1
 4535              		.section	.bss.tcp_timer_ctr,"aw",%nobits
 4536              		.set	.LANCHOR2,. + 0
 4539              	tcp_timer_ctr:
 4540 0000 00       		.space	1
 4541              		.section	.data.iss.13657,"aw",%progbits
 4542              		.align	2
 4543              		.set	.LANCHOR6,. + 0
 4546              	iss.13657:
 4547 0000 6E190000 		.word	6510
 4548              		.section	.data.tcp_port,"aw",%progbits
 4549              		.align	1
 4550              		.set	.LANCHOR0,. + 0
 4553              	tcp_port:
 4554 0000 00C0     		.short	-16384
 4555              		.section	.rodata.str1.4,"aMS",%progbits,1
 4556              		.align	2
 4557              	.LC28:
 4558 0000 434C4F53 		.ascii	"CLOSED\000"
 4558      454400
 4559 0007 00       		.space	1
 4560              	.LC29:
 4561 0008 4C495354 		.ascii	"LISTEN\000"
 4561      454E00
 4562 000f 00       		.space	1
 4563              	.LC30:
 4564 0010 53594E5F 		.ascii	"SYN_SENT\000"
 4564      53454E54 
 4564      00
 4565 0019 000000   		.space	3
 4566              	.LC31:
 4567 001c 53594E5F 		.ascii	"SYN_RCVD\000"
 4567      52435644 
 4567      00
 4568 0025 000000   		.space	3
 4569              	.LC32:
ARM GAS  C:\Users\Patryk\AppData\Local\Temp\cc1Vd65O.s 			page 126


 4570 0028 45535441 		.ascii	"ESTABLISHED\000"
 4570      424C4953 
 4570      48454400 
 4571              	.LC33:
 4572 0034 46494E5F 		.ascii	"FIN_WAIT_1\000"
 4572      57414954 
 4572      5F3100
 4573 003f 00       		.space	1
 4574              	.LC34:
 4575 0040 46494E5F 		.ascii	"FIN_WAIT_2\000"
 4575      57414954 
 4575      5F3200
 4576 004b 00       		.space	1
 4577              	.LC35:
 4578 004c 434C4F53 		.ascii	"CLOSE_WAIT\000"
 4578      455F5741 
 4578      495400
 4579 0057 00       		.space	1
 4580              	.LC36:
 4581 0058 434C4F53 		.ascii	"CLOSING\000"
 4581      494E4700 
 4582              	.LC37:
 4583 0060 4C415354 		.ascii	"LAST_ACK\000"
 4583      5F41434B 
 4583      00
 4584 0069 000000   		.space	3
 4585              	.LC38:
 4586 006c 54494D45 		.ascii	"TIME_WAIT\000"
 4586      5F574149 
 4586      5400
 4587              		.section	.rodata.tcp_abandon.str1.4,"aMS",%progbits,1
 4588              		.align	2
 4589              	.LC25:
 4590 0000 646F6E27 		.ascii	"don't call tcp_abort/tcp_abandon for listen-pcbs\000"
 4590      74206361 
 4590      6C6C2074 
 4590      63705F61 
 4590      626F7274 
 4591              		.section	.rodata.tcp_backoff,"a",%progbits
 4592              		.align	2
 4593              		.set	.LANCHOR4,. + 0
 4596              	tcp_backoff:
 4597 0000 01       		.byte	1
 4598 0001 02       		.byte	2
 4599 0002 03       		.byte	3
 4600 0003 04       		.byte	4
 4601 0004 05       		.byte	5
 4602 0005 06       		.byte	6
 4603 0006 07       		.byte	7
 4604 0007 07       		.byte	7
 4605 0008 07       		.byte	7
 4606 0009 07       		.byte	7
 4607 000a 07       		.byte	7
 4608 000b 07       		.byte	7
 4609 000c 07       		.byte	7
 4610              		.section	.rodata.tcp_bind.str1.4,"aMS",%progbits,1
 4611              		.align	2
ARM GAS  C:\Users\Patryk\AppData\Local\Temp\cc1Vd65O.s 			page 127


 4612              	.LC4:
 4613 0000 7463705F 		.ascii	"tcp_bind: can only bind in state CLOSED\000"
 4613      62696E64 
 4613      3A206361 
 4613      6E206F6E 
 4613      6C792062 
 4614              		.section	.rodata.tcp_close_shutdown.str1.4,"aMS",%progbits,1
 4615              		.align	2
 4616              	.LC24:
 4617 0000 7063622D 		.ascii	"pcb->flags & TF_RXCLOSED\000"
 4617      3E666C61 
 4617      67732026 
 4617      2054465F 
 4617      5258434C 
 4618              		.section	.rodata.tcp_connect.str1.4,"aMS",%progbits,1
 4619              		.align	2
 4620              	.LC27:
 4621 0000 7463705F 		.ascii	"tcp_connect: can only connect from state CLOSED\000"
 4621      636F6E6E 
 4621      6563743A 
 4621      2063616E 
 4621      206F6E6C 
 4622              		.section	.rodata.tcp_err.str1.4,"aMS",%progbits,1
 4623              		.align	2
 4624              	.LC11:
 4625 0000 696E7661 		.ascii	"invalid socket state for err callback\000"
 4625      6C696420 
 4625      736F636B 
 4625      65742073 
 4625      74617465 
 4626              		.section	.rodata.tcp_kill_state.str1.4,"aMS",%progbits,1
 4627              		.align	2
 4628              	.LC26:
 4629 0000 696E7661 		.ascii	"invalid state\000"
 4629      6C696420 
 4629      73746174 
 4629      6500
 4630              		.section	.rodata.tcp_listen_closed.str1.4,"aMS",%progbits,1
 4631              		.align	2
 4632              	.LC0:
 4633 0000 4D696464 		.ascii	"Middlewares/Third_Party/LwIP/src/core/tcp.c\000"
 4633      6C657761 
 4633      7265732F 
 4633      54686972 
 4633      645F5061 
 4634              	.LC1:
 4635 002c 70636220 		.ascii	"pcb != NULL\000"
 4635      213D204E 
 4635      554C4C00 
 4636              	.LC2:
 4637 0038 41737365 		.ascii	"Assertion \"%s\" failed at line %d in %s\012\000"
 4637      7274696F 
 4637      6E202225 
 4637      73222066 
 4637      61696C65 
 4638              	.LC3:
 4639 0060 7063622D 		.ascii	"pcb->state == LISTEN\000"
ARM GAS  C:\Users\Patryk\AppData\Local\Temp\cc1Vd65O.s 			page 128


 4639      3E737461 
 4639      7465203D 
 4639      3D204C49 
 4639      5354454E 
 4640              		.section	.rodata.tcp_listen_with_backlog_and_err.str1.4,"aMS",%progbits,1
 4641              		.align	2
 4642              	.LC5:
 4643 0000 7463705F 		.ascii	"tcp_listen: pcb already connected\000"
 4643      6C697374 
 4643      656E3A20 
 4643      70636220 
 4643      616C7265 
 4644              		.section	.rodata.tcp_pcb_lists,"a",%progbits
 4645              		.align	2
 4646              		.set	.LANCHOR1,. + 0
 4649              	tcp_pcb_lists:
 4650 0000 00000000 		.word	tcp_listen_pcbs
 4651 0004 00000000 		.word	tcp_bound_pcbs
 4652 0008 00000000 		.word	tcp_active_pcbs
 4653 000c 00000000 		.word	tcp_tw_pcbs
 4654              		.section	.rodata.tcp_pcb_remove.str1.4,"aMS",%progbits,1
 4655              		.align	2
 4656              	.LC21:
 4657 0000 756E7365 		.ascii	"unsent segments leaking\000"
 4657      6E742073 
 4657      65676D65 
 4657      6E747320 
 4657      6C65616B 
 4658              	.LC22:
 4659 0018 756E6163 		.ascii	"unacked segments leaking\000"
 4659      6B656420 
 4659      7365676D 
 4659      656E7473 
 4659      206C6561 
 4660 0031 000000   		.space	3
 4661              	.LC23:
 4662 0034 6F6F7365 		.ascii	"ooseq segments leaking\000"
 4662      71207365 
 4662      676D656E 
 4662      7473206C 
 4662      65616B69 
 4663              		.section	.rodata.tcp_persist_backoff,"a",%progbits
 4664              		.align	2
 4665              		.set	.LANCHOR3,. + 0
 4668              	tcp_persist_backoff:
 4669 0000 03       		.byte	3
 4670 0001 06       		.byte	6
 4671 0002 0C       		.byte	12
 4672 0003 18       		.byte	24
 4673 0004 30       		.byte	48
 4674 0005 60       		.byte	96
 4675 0006 78       		.byte	120
 4676              		.section	.rodata.tcp_poll.str1.4,"aMS",%progbits,1
 4677              		.align	2
 4678              	.LC12:
 4679 0000 696E7661 		.ascii	"invalid socket state for poll\000"
 4679      6C696420 
ARM GAS  C:\Users\Patryk\AppData\Local\Temp\cc1Vd65O.s 			page 129


 4679      736F636B 
 4679      65742073 
 4679      74617465 
 4680              		.section	.rodata.tcp_recv.str1.4,"aMS",%progbits,1
 4681              		.align	2
 4682              	.LC9:
 4683 0000 696E7661 		.ascii	"invalid socket state for recv callback\000"
 4683      6C696420 
 4683      736F636B 
 4683      65742073 
 4683      74617465 
 4684              		.section	.rodata.tcp_recved.str1.4,"aMS",%progbits,1
 4685              		.align	2
 4686              	.LC7:
 4687 0000 646F6E27 		.ascii	"don't call tcp_recved for listen-pcbs\000"
 4687      74206361 
 4687      6C6C2074 
 4687      63705F72 
 4687      65637665 
 4688 0026 0000     		.space	2
 4689              	.LC8:
 4690 0028 7463705F 		.ascii	"tcp_recved: len wrapped rcv_wnd\012\000"
 4690      72656376 
 4690      65643A20 
 4690      6C656E20 
 4690      77726170 
 4691              		.section	.rodata.tcp_sent.str1.4,"aMS",%progbits,1
 4692              		.align	2
 4693              	.LC10:
 4694 0000 696E7661 		.ascii	"invalid socket state for sent callback\000"
 4694      6C696420 
 4694      736F636B 
 4694      65742073 
 4694      74617465 
 4695              		.section	.rodata.tcp_slowtmr.str1.4,"aMS",%progbits,1
 4696              		.align	2
 4697              	.LC13:
 4698 0000 7463705F 		.ascii	"tcp_slowtmr: active pcb->state != CLOSED\012\000"
 4698      736C6F77 
 4698      746D723A 
 4698      20616374 
 4698      69766520 
 4699 002a 0000     		.space	2
 4700              	.LC14:
 4701 002c 7463705F 		.ascii	"tcp_slowtmr: active pcb->state != LISTEN\012\000"
 4701      736C6F77 
 4701      746D723A 
 4701      20616374 
 4701      69766520 
 4702 0056 0000     		.space	2
 4703              	.LC15:
 4704 0058 7463705F 		.ascii	"tcp_slowtmr: active pcb->state != TIME-WAIT\012\000"
 4704      736C6F77 
 4704      746D723A 
 4704      20616374 
 4704      69766520 
 4705 0085 000000   		.space	3
ARM GAS  C:\Users\Patryk\AppData\Local\Temp\cc1Vd65O.s 			page 130


 4706              	.LC16:
 4707 0088 7463705F 		.ascii	"tcp_slowtmr: middle tcp != tcp_active_pcbs\000"
 4707      736C6F77 
 4707      746D723A 
 4707      206D6964 
 4707      646C6520 
 4708 00b3 00       		.space	1
 4709              	.LC17:
 4710 00b4 7463705F 		.ascii	"tcp_slowtmr: first pcb == tcp_active_pcbs\000"
 4710      736C6F77 
 4710      746D723A 
 4710      20666972 
 4710      73742070 
 4711 00de 0000     		.space	2
 4712              	.LC18:
 4713 00e0 7463705F 		.ascii	"tcp_slowtmr: TIME-WAIT pcb->state == TIME-WAIT\000"
 4713      736C6F77 
 4713      746D723A 
 4713      2054494D 
 4713      452D5741 
 4714 010f 00       		.space	1
 4715              	.LC19:
 4716 0110 7463705F 		.ascii	"tcp_slowtmr: middle tcp != tcp_tw_pcbs\000"
 4716      736C6F77 
 4716      746D723A 
 4716      206D6964 
 4716      646C6520 
 4717 0137 00       		.space	1
 4718              	.LC20:
 4719 0138 7463705F 		.ascii	"tcp_slowtmr: first pcb == tcp_tw_pcbs\000"
 4719      736C6F77 
 4719      746D723A 
 4719      20666972 
 4719      73742070 
 4720              		.section	.rodata.tcp_state_str,"a",%progbits
 4721              		.align	2
 4722              		.set	.LANCHOR7,. + 0
 4725              	tcp_state_str:
 4726 0000 00000000 		.word	.LC28
 4727 0004 08000000 		.word	.LC29
 4728 0008 10000000 		.word	.LC30
 4729 000c 1C000000 		.word	.LC31
 4730 0010 28000000 		.word	.LC32
 4731 0014 34000000 		.word	.LC33
 4732 0018 40000000 		.word	.LC34
 4733 001c 4C000000 		.word	.LC35
 4734 0020 58000000 		.word	.LC36
 4735 0024 60000000 		.word	.LC37
 4736 0028 6C000000 		.word	.LC38
 4737              		.section	.rodata.tcp_update_rcv_ann_wnd.str1.4,"aMS",%progbits,1
 4738              		.align	2
 4739              	.LC6:
 4740 0000 6E65775F 		.ascii	"new_rcv_ann_wnd <= 0xffff\000"
 4740      7263765F 
 4740      616E6E5F 
 4740      776E6420 
 4740      3C3D2030 
ARM GAS  C:\Users\Patryk\AppData\Local\Temp\cc1Vd65O.s 			page 131


 4741              		.text
 4742              	.Letext0:
 4743              		.file 2 "c:\\program files (x86)\\gnu\\7_2018-q2-update\\arm-none-eabi\\include\\machine\\_default
 4744              		.file 3 "c:\\program files (x86)\\gnu\\7_2018-q2-update\\arm-none-eabi\\include\\sys\\_stdint.h"
 4745              		.file 4 "Drivers/CMSIS/Include/core_cm7.h"
 4746              		.file 5 "Drivers/CMSIS/Device/ST/STM32F7xx/Include/system_stm32f7xx.h"
 4747              		.file 6 "c:\\program files (x86)\\gnu\\7_2018-q2-update\\lib\\gcc\\arm-none-eabi\\7.3.1\\include\\
 4748              		.file 7 "c:\\program files (x86)\\gnu\\7_2018-q2-update\\arm-none-eabi\\include\\sys\\lock.h"
 4749              		.file 8 "c:\\program files (x86)\\gnu\\7_2018-q2-update\\arm-none-eabi\\include\\sys\\_types.h"
 4750              		.file 9 "c:\\program files (x86)\\gnu\\7_2018-q2-update\\arm-none-eabi\\include\\sys\\reent.h"
 4751              		.file 10 "c:\\program files (x86)\\gnu\\7_2018-q2-update\\arm-none-eabi\\include\\stdlib.h"
 4752              		.file 11 "c:\\program files (x86)\\gnu\\7_2018-q2-update\\arm-none-eabi\\include\\time.h"
 4753              		.file 12 "Middlewares/Third_Party/LwIP/src/include/lwip/arch.h"
 4754              		.file 13 "Middlewares/Third_Party/LwIP/src/include/lwip/priv/memp_priv.h"
 4755              		.file 14 "Middlewares/Third_Party/LwIP/src/include/lwip/memp.h"
 4756              		.file 15 "Middlewares/Third_Party/LwIP/src/include/lwip/err.h"
 4757              		.file 16 "Middlewares/Third_Party/LwIP/src/include/lwip/pbuf.h"
 4758              		.file 17 "Middlewares/Third_Party/LwIP/src/include/lwip/ip4_addr.h"
 4759              		.file 18 "Middlewares/Third_Party/LwIP/src/include/lwip/ip_addr.h"
 4760              		.file 19 "Middlewares/Third_Party/LwIP/src/include/lwip/netif.h"
 4761              		.file 20 "Middlewares/Third_Party/LwIP/src/include/lwip/prot/ip4.h"
 4762              		.file 21 "Middlewares/Third_Party/LwIP/src/include/lwip/ip.h"
 4763              		.file 22 "Middlewares/Third_Party/LwIP/src/include/lwip/tcp.h"
 4764              		.file 23 "Middlewares/Third_Party/LwIP/src/include/lwip/priv/tcp_priv.h"
 4765              		.file 24 "Middlewares/Third_Party/LwIP/src/include/lwip/prot/tcp.h"
 4766              		.file 25 "Middlewares/Third_Party/LwIP/src/include/lwip/ip4.h"
 4767              		.file 26 "c:\\program files (x86)\\gnu\\7_2018-q2-update\\arm-none-eabi\\include\\stdio.h"
 4768              		.file 27 "<built-in>"
ARM GAS  C:\Users\Patryk\AppData\Local\Temp\cc1Vd65O.s 			page 132


DEFINED SYMBOLS
                            *ABS*:00000000 tcp.c
C:\Users\Patryk\AppData\Local\Temp\cc1Vd65O.s:18     .text.tcp_remove_listener:00000000 $t
C:\Users\Patryk\AppData\Local\Temp\cc1Vd65O.s:24     .text.tcp_remove_listener:00000000 tcp_remove_listener
C:\Users\Patryk\AppData\Local\Temp\cc1Vd65O.s:58     .text.tcp_new_port:00000000 $t
C:\Users\Patryk\AppData\Local\Temp\cc1Vd65O.s:64     .text.tcp_new_port:00000000 tcp_new_port
C:\Users\Patryk\AppData\Local\Temp\cc1Vd65O.s:165    .text.tcp_new_port:0000005c $d
C:\Users\Patryk\AppData\Local\Temp\cc1Vd65O.s:171    .text.tcp_listen_closed:00000000 $t
C:\Users\Patryk\AppData\Local\Temp\cc1Vd65O.s:177    .text.tcp_listen_closed:00000000 tcp_listen_closed
C:\Users\Patryk\AppData\Local\Temp\cc1Vd65O.s:246    .text.tcp_listen_closed:00000044 $d
C:\Users\Patryk\AppData\Local\Temp\cc1Vd65O.s:255    .text.tcp_close_shutdown_fin:00000000 $t
C:\Users\Patryk\AppData\Local\Temp\cc1Vd65O.s:261    .text.tcp_close_shutdown_fin:00000000 tcp_close_shutdown_fin
C:\Users\Patryk\AppData\Local\Temp\cc1Vd65O.s:372    .text.tcp_close_shutdown_fin:0000007c $d
C:\Users\Patryk\AppData\Local\Temp\cc1Vd65O.s:379    .text.tcp_init:00000000 $t
C:\Users\Patryk\AppData\Local\Temp\cc1Vd65O.s:386    .text.tcp_init:00000000 tcp_init
C:\Users\Patryk\AppData\Local\Temp\cc1Vd65O.s:399    .text.tcp_bind:00000000 $t
C:\Users\Patryk\AppData\Local\Temp\cc1Vd65O.s:406    .text.tcp_bind:00000000 tcp_bind
C:\Users\Patryk\AppData\Local\Temp\cc1Vd65O.s:566    .text.tcp_bind:000000b0 $d
                            *COM*:00000004 tcp_bound_pcbs
C:\Users\Patryk\AppData\Local\Temp\cc1Vd65O.s:576    .text.tcp_listen_with_backlog_and_err:00000000 $t
C:\Users\Patryk\AppData\Local\Temp\cc1Vd65O.s:583    .text.tcp_listen_with_backlog_and_err:00000000 tcp_listen_with_backlog_and_err
C:\Users\Patryk\AppData\Local\Temp\cc1Vd65O.s:740    .text.tcp_listen_with_backlog_and_err:000000a8 $d
C:\Users\Patryk\AppData\Local\Temp\cc1Vd65O.s:3509   .text.tcp_accept_null:00000000 tcp_accept_null
                            *COM*:00000004 tcp_listen_pcbs
C:\Users\Patryk\AppData\Local\Temp\cc1Vd65O.s:750    .text.tcp_listen_with_backlog:00000000 $t
C:\Users\Patryk\AppData\Local\Temp\cc1Vd65O.s:757    .text.tcp_listen_with_backlog:00000000 tcp_listen_with_backlog
C:\Users\Patryk\AppData\Local\Temp\cc1Vd65O.s:779    .text.tcp_update_rcv_ann_wnd:00000000 $t
C:\Users\Patryk\AppData\Local\Temp\cc1Vd65O.s:786    .text.tcp_update_rcv_ann_wnd:00000000 tcp_update_rcv_ann_wnd
C:\Users\Patryk\AppData\Local\Temp\cc1Vd65O.s:871    .text.tcp_update_rcv_ann_wnd:00000054 $d
C:\Users\Patryk\AppData\Local\Temp\cc1Vd65O.s:879    .text.tcp_recved:00000000 $t
C:\Users\Patryk\AppData\Local\Temp\cc1Vd65O.s:886    .text.tcp_recved:00000000 tcp_recved
C:\Users\Patryk\AppData\Local\Temp\cc1Vd65O.s:982    .text.tcp_recved:00000074 $d
C:\Users\Patryk\AppData\Local\Temp\cc1Vd65O.s:990    .text.tcp_txnow:00000000 $t
C:\Users\Patryk\AppData\Local\Temp\cc1Vd65O.s:997    .text.tcp_txnow:00000000 tcp_txnow
C:\Users\Patryk\AppData\Local\Temp\cc1Vd65O.s:1036   .text.tcp_txnow:00000020 $d
                            *COM*:00000004 tcp_active_pcbs
C:\Users\Patryk\AppData\Local\Temp\cc1Vd65O.s:1041   .text.tcp_seg_free:00000000 $t
C:\Users\Patryk\AppData\Local\Temp\cc1Vd65O.s:1048   .text.tcp_seg_free:00000000 tcp_seg_free
C:\Users\Patryk\AppData\Local\Temp\cc1Vd65O.s:1090   .text.tcp_segs_free:00000000 $t
C:\Users\Patryk\AppData\Local\Temp\cc1Vd65O.s:1097   .text.tcp_segs_free:00000000 tcp_segs_free
C:\Users\Patryk\AppData\Local\Temp\cc1Vd65O.s:1139   .text.tcp_setprio:00000000 $t
C:\Users\Patryk\AppData\Local\Temp\cc1Vd65O.s:1146   .text.tcp_setprio:00000000 tcp_setprio
C:\Users\Patryk\AppData\Local\Temp\cc1Vd65O.s:1162   .text.tcp_seg_copy:00000000 $t
C:\Users\Patryk\AppData\Local\Temp\cc1Vd65O.s:1169   .text.tcp_seg_copy:00000000 tcp_seg_copy
C:\Users\Patryk\AppData\Local\Temp\cc1Vd65O.s:1214   .text.tcp_arg:00000000 $t
C:\Users\Patryk\AppData\Local\Temp\cc1Vd65O.s:1221   .text.tcp_arg:00000000 tcp_arg
C:\Users\Patryk\AppData\Local\Temp\cc1Vd65O.s:1240   .text.tcp_recv:00000000 $t
C:\Users\Patryk\AppData\Local\Temp\cc1Vd65O.s:1247   .text.tcp_recv:00000000 tcp_recv
C:\Users\Patryk\AppData\Local\Temp\cc1Vd65O.s:1300   .text.tcp_recv:00000028 $d
C:\Users\Patryk\AppData\Local\Temp\cc1Vd65O.s:1307   .text.tcp_sent:00000000 $t
C:\Users\Patryk\AppData\Local\Temp\cc1Vd65O.s:1314   .text.tcp_sent:00000000 tcp_sent
C:\Users\Patryk\AppData\Local\Temp\cc1Vd65O.s:1367   .text.tcp_sent:00000024 $d
C:\Users\Patryk\AppData\Local\Temp\cc1Vd65O.s:1374   .text.tcp_err:00000000 $t
C:\Users\Patryk\AppData\Local\Temp\cc1Vd65O.s:1381   .text.tcp_err:00000000 tcp_err
C:\Users\Patryk\AppData\Local\Temp\cc1Vd65O.s:1434   .text.tcp_err:00000028 $d
C:\Users\Patryk\AppData\Local\Temp\cc1Vd65O.s:1441   .text.tcp_accept:00000000 $t
C:\Users\Patryk\AppData\Local\Temp\cc1Vd65O.s:1448   .text.tcp_accept:00000000 tcp_accept
ARM GAS  C:\Users\Patryk\AppData\Local\Temp\cc1Vd65O.s 			page 133


C:\Users\Patryk\AppData\Local\Temp\cc1Vd65O.s:1477   .text.tcp_poll:00000000 $t
C:\Users\Patryk\AppData\Local\Temp\cc1Vd65O.s:1484   .text.tcp_poll:00000000 tcp_poll
C:\Users\Patryk\AppData\Local\Temp\cc1Vd65O.s:1529   .text.tcp_poll:00000028 $d
C:\Users\Patryk\AppData\Local\Temp\cc1Vd65O.s:1536   .text.tcp_pcb_purge:00000000 $t
C:\Users\Patryk\AppData\Local\Temp\cc1Vd65O.s:1543   .text.tcp_pcb_purge:00000000 tcp_pcb_purge
C:\Users\Patryk\AppData\Local\Temp\cc1Vd65O.s:1612   .text.tcp_slowtmr:00000000 $t
C:\Users\Patryk\AppData\Local\Temp\cc1Vd65O.s:1619   .text.tcp_slowtmr:00000000 tcp_slowtmr
C:\Users\Patryk\AppData\Local\Temp\cc1Vd65O.s:2138   .text.tcp_slowtmr:000002b8 $d
                            *COM*:00000004 tcp_ticks
                            *COM*:00000001 tcp_active_pcbs_changed
C:\Users\Patryk\AppData\Local\Temp\cc1Vd65O.s:2156   .text.tcp_slowtmr:000002f4 $t
C:\Users\Patryk\AppData\Local\Temp\cc1Vd65O.s:2337   .text.tcp_slowtmr:000003e4 $d
                            *COM*:00000004 tcp_tw_pcbs
C:\Users\Patryk\AppData\Local\Temp\cc1Vd65O.s:2350   .text.tcp_pcb_remove:00000000 $t
C:\Users\Patryk\AppData\Local\Temp\cc1Vd65O.s:2357   .text.tcp_pcb_remove:00000000 tcp_pcb_remove
C:\Users\Patryk\AppData\Local\Temp\cc1Vd65O.s:2479   .text.tcp_pcb_remove:00000090 $d
C:\Users\Patryk\AppData\Local\Temp\cc1Vd65O.s:2488   .text.tcp_close_shutdown:00000000 $t
C:\Users\Patryk\AppData\Local\Temp\cc1Vd65O.s:2494   .text.tcp_close_shutdown:00000000 tcp_close_shutdown
C:\Users\Patryk\AppData\Local\Temp\cc1Vd65O.s:2760   .text.tcp_close_shutdown:00000130 $d
C:\Users\Patryk\AppData\Local\Temp\cc1Vd65O.s:2773   .text.tcp_close:00000000 $t
C:\Users\Patryk\AppData\Local\Temp\cc1Vd65O.s:2780   .text.tcp_close:00000000 tcp_close
C:\Users\Patryk\AppData\Local\Temp\cc1Vd65O.s:2811   .text.tcp_recv_null:00000000 $t
C:\Users\Patryk\AppData\Local\Temp\cc1Vd65O.s:2818   .text.tcp_recv_null:00000000 tcp_recv_null
C:\Users\Patryk\AppData\Local\Temp\cc1Vd65O.s:2866   .text.tcp_process_refused_data:00000000 $t
C:\Users\Patryk\AppData\Local\Temp\cc1Vd65O.s:2873   .text.tcp_process_refused_data:00000000 tcp_process_refused_data
C:\Users\Patryk\AppData\Local\Temp\cc1Vd65O.s:2972   .text.tcp_fasttmr:00000000 $t
C:\Users\Patryk\AppData\Local\Temp\cc1Vd65O.s:2979   .text.tcp_fasttmr:00000000 tcp_fasttmr
C:\Users\Patryk\AppData\Local\Temp\cc1Vd65O.s:3087   .text.tcp_fasttmr:00000074 $d
C:\Users\Patryk\AppData\Local\Temp\cc1Vd65O.s:3094   .text.tcp_tmr:00000000 $t
C:\Users\Patryk\AppData\Local\Temp\cc1Vd65O.s:3101   .text.tcp_tmr:00000000 tcp_tmr
C:\Users\Patryk\AppData\Local\Temp\cc1Vd65O.s:3135   .text.tcp_tmr:00000020 $d
C:\Users\Patryk\AppData\Local\Temp\cc1Vd65O.s:3140   .text.tcp_shutdown:00000000 $t
C:\Users\Patryk\AppData\Local\Temp\cc1Vd65O.s:3147   .text.tcp_shutdown:00000000 tcp_shutdown
C:\Users\Patryk\AppData\Local\Temp\cc1Vd65O.s:3247   .text.tcp_abandon:00000000 $t
C:\Users\Patryk\AppData\Local\Temp\cc1Vd65O.s:3254   .text.tcp_abandon:00000000 tcp_abandon
C:\Users\Patryk\AppData\Local\Temp\cc1Vd65O.s:3462   .text.tcp_abandon:000000dc $d
C:\Users\Patryk\AppData\Local\Temp\cc1Vd65O.s:3474   .text.tcp_abort:00000000 $t
C:\Users\Patryk\AppData\Local\Temp\cc1Vd65O.s:3481   .text.tcp_abort:00000000 tcp_abort
C:\Users\Patryk\AppData\Local\Temp\cc1Vd65O.s:3503   .text.tcp_accept_null:00000000 $t
C:\Users\Patryk\AppData\Local\Temp\cc1Vd65O.s:3533   .text.tcp_kill_timewait:00000000 $t
C:\Users\Patryk\AppData\Local\Temp\cc1Vd65O.s:3539   .text.tcp_kill_timewait:00000000 tcp_kill_timewait
C:\Users\Patryk\AppData\Local\Temp\cc1Vd65O.s:3597   .text.tcp_kill_timewait:0000002c $d
C:\Users\Patryk\AppData\Local\Temp\cc1Vd65O.s:3603   .text.tcp_kill_prio:00000000 $t
C:\Users\Patryk\AppData\Local\Temp\cc1Vd65O.s:3609   .text.tcp_kill_prio:00000000 tcp_kill_prio
C:\Users\Patryk\AppData\Local\Temp\cc1Vd65O.s:3681   .text.tcp_kill_prio:0000003c $d
C:\Users\Patryk\AppData\Local\Temp\cc1Vd65O.s:3687   .text.tcp_netif_ip_addr_changed_pcblist:00000000 $t
C:\Users\Patryk\AppData\Local\Temp\cc1Vd65O.s:3693   .text.tcp_netif_ip_addr_changed_pcblist:00000000 tcp_netif_ip_addr_changed_pcblist
C:\Users\Patryk\AppData\Local\Temp\cc1Vd65O.s:3744   .text.tcp_kill_state:00000000 $t
C:\Users\Patryk\AppData\Local\Temp\cc1Vd65O.s:3750   .text.tcp_kill_state:00000000 tcp_kill_state
C:\Users\Patryk\AppData\Local\Temp\cc1Vd65O.s:3834   .text.tcp_kill_state:00000050 $d
C:\Users\Patryk\AppData\Local\Temp\cc1Vd65O.s:3843   .text.tcp_alloc:00000000 $t
C:\Users\Patryk\AppData\Local\Temp\cc1Vd65O.s:3850   .text.tcp_alloc:00000000 tcp_alloc
C:\Users\Patryk\AppData\Local\Temp\cc1Vd65O.s:3982   .text.tcp_alloc:000000b0 $d
C:\Users\Patryk\AppData\Local\Temp\cc1Vd65O.s:3990   .text.tcp_new:00000000 $t
C:\Users\Patryk\AppData\Local\Temp\cc1Vd65O.s:3997   .text.tcp_new:00000000 tcp_new
C:\Users\Patryk\AppData\Local\Temp\cc1Vd65O.s:4018   .text.tcp_new_ip_type:00000000 $t
C:\Users\Patryk\AppData\Local\Temp\cc1Vd65O.s:4025   .text.tcp_new_ip_type:00000000 tcp_new_ip_type
ARM GAS  C:\Users\Patryk\AppData\Local\Temp\cc1Vd65O.s 			page 134


C:\Users\Patryk\AppData\Local\Temp\cc1Vd65O.s:4048   .text.tcp_next_iss:00000000 $t
C:\Users\Patryk\AppData\Local\Temp\cc1Vd65O.s:4055   .text.tcp_next_iss:00000000 tcp_next_iss
C:\Users\Patryk\AppData\Local\Temp\cc1Vd65O.s:4076   .text.tcp_next_iss:00000010 $d
C:\Users\Patryk\AppData\Local\Temp\cc1Vd65O.s:4082   .text.tcp_eff_send_mss_impl:00000000 $t
C:\Users\Patryk\AppData\Local\Temp\cc1Vd65O.s:4089   .text.tcp_eff_send_mss_impl:00000000 tcp_eff_send_mss_impl
C:\Users\Patryk\AppData\Local\Temp\cc1Vd65O.s:4133   .text.tcp_connect:00000000 $t
C:\Users\Patryk\AppData\Local\Temp\cc1Vd65O.s:4140   .text.tcp_connect:00000000 tcp_connect
C:\Users\Patryk\AppData\Local\Temp\cc1Vd65O.s:4386   .text.tcp_connect:00000118 $d
C:\Users\Patryk\AppData\Local\Temp\cc1Vd65O.s:4396   .text.tcp_netif_ip_addr_changed:00000000 $t
C:\Users\Patryk\AppData\Local\Temp\cc1Vd65O.s:4403   .text.tcp_netif_ip_addr_changed:00000000 tcp_netif_ip_addr_changed
C:\Users\Patryk\AppData\Local\Temp\cc1Vd65O.s:4488   .text.tcp_netif_ip_addr_changed:00000048 $d
C:\Users\Patryk\AppData\Local\Temp\cc1Vd65O.s:4495   .text.tcp_debug_state_str:00000000 $t
C:\Users\Patryk\AppData\Local\Temp\cc1Vd65O.s:4502   .text.tcp_debug_state_str:00000000 tcp_debug_state_str
C:\Users\Patryk\AppData\Local\Temp\cc1Vd65O.s:4518   .text.tcp_debug_state_str:00000008 $d
C:\Users\Patryk\AppData\Local\Temp\cc1Vd65O.s:4649   .rodata.tcp_pcb_lists:00000000 tcp_pcb_lists
C:\Users\Patryk\AppData\Local\Temp\cc1Vd65O.s:4533   .bss.tcp_timer:00000000 tcp_timer
C:\Users\Patryk\AppData\Local\Temp\cc1Vd65O.s:4534   .bss.tcp_timer:00000000 $d
C:\Users\Patryk\AppData\Local\Temp\cc1Vd65O.s:4539   .bss.tcp_timer_ctr:00000000 tcp_timer_ctr
C:\Users\Patryk\AppData\Local\Temp\cc1Vd65O.s:4540   .bss.tcp_timer_ctr:00000000 $d
C:\Users\Patryk\AppData\Local\Temp\cc1Vd65O.s:4542   .data.iss.13657:00000000 $d
C:\Users\Patryk\AppData\Local\Temp\cc1Vd65O.s:4546   .data.iss.13657:00000000 iss.13657
C:\Users\Patryk\AppData\Local\Temp\cc1Vd65O.s:4549   .data.tcp_port:00000000 $d
C:\Users\Patryk\AppData\Local\Temp\cc1Vd65O.s:4553   .data.tcp_port:00000000 tcp_port
C:\Users\Patryk\AppData\Local\Temp\cc1Vd65O.s:4556   .rodata.str1.4:00000000 $d
C:\Users\Patryk\AppData\Local\Temp\cc1Vd65O.s:4588   .rodata.tcp_abandon.str1.4:00000000 $d
C:\Users\Patryk\AppData\Local\Temp\cc1Vd65O.s:4592   .rodata.tcp_backoff:00000000 $d
C:\Users\Patryk\AppData\Local\Temp\cc1Vd65O.s:4596   .rodata.tcp_backoff:00000000 tcp_backoff
C:\Users\Patryk\AppData\Local\Temp\cc1Vd65O.s:4611   .rodata.tcp_bind.str1.4:00000000 $d
C:\Users\Patryk\AppData\Local\Temp\cc1Vd65O.s:4615   .rodata.tcp_close_shutdown.str1.4:00000000 $d
C:\Users\Patryk\AppData\Local\Temp\cc1Vd65O.s:4619   .rodata.tcp_connect.str1.4:00000000 $d
C:\Users\Patryk\AppData\Local\Temp\cc1Vd65O.s:4623   .rodata.tcp_err.str1.4:00000000 $d
C:\Users\Patryk\AppData\Local\Temp\cc1Vd65O.s:4627   .rodata.tcp_kill_state.str1.4:00000000 $d
C:\Users\Patryk\AppData\Local\Temp\cc1Vd65O.s:4631   .rodata.tcp_listen_closed.str1.4:00000000 $d
C:\Users\Patryk\AppData\Local\Temp\cc1Vd65O.s:4641   .rodata.tcp_listen_with_backlog_and_err.str1.4:00000000 $d
C:\Users\Patryk\AppData\Local\Temp\cc1Vd65O.s:4645   .rodata.tcp_pcb_lists:00000000 $d
C:\Users\Patryk\AppData\Local\Temp\cc1Vd65O.s:4655   .rodata.tcp_pcb_remove.str1.4:00000000 $d
C:\Users\Patryk\AppData\Local\Temp\cc1Vd65O.s:4664   .rodata.tcp_persist_backoff:00000000 $d
C:\Users\Patryk\AppData\Local\Temp\cc1Vd65O.s:4668   .rodata.tcp_persist_backoff:00000000 tcp_persist_backoff
C:\Users\Patryk\AppData\Local\Temp\cc1Vd65O.s:4677   .rodata.tcp_poll.str1.4:00000000 $d
C:\Users\Patryk\AppData\Local\Temp\cc1Vd65O.s:4681   .rodata.tcp_recv.str1.4:00000000 $d
C:\Users\Patryk\AppData\Local\Temp\cc1Vd65O.s:4685   .rodata.tcp_recved.str1.4:00000000 $d
C:\Users\Patryk\AppData\Local\Temp\cc1Vd65O.s:4692   .rodata.tcp_sent.str1.4:00000000 $d
C:\Users\Patryk\AppData\Local\Temp\cc1Vd65O.s:4696   .rodata.tcp_slowtmr.str1.4:00000000 $d
C:\Users\Patryk\AppData\Local\Temp\cc1Vd65O.s:4721   .rodata.tcp_state_str:00000000 $d
C:\Users\Patryk\AppData\Local\Temp\cc1Vd65O.s:4725   .rodata.tcp_state_str:00000000 tcp_state_str
C:\Users\Patryk\AppData\Local\Temp\cc1Vd65O.s:4738   .rodata.tcp_update_rcv_ann_wnd.str1.4:00000000 $d

UNDEFINED SYMBOLS
printf
tcp_send_fin
tcp_output
tcp_timer_needed
ip_addr_any
memp_malloc
memp_free
pbuf_free
pbuf_ref
ARM GAS  C:\Users\Patryk\AppData\Local\Temp\cc1Vd65O.s 			page 135


tcp_zero_window_probe
tcp_rexmit_rto
tcp_keepalive
tcp_rst
tcp_trigger_input_pcb_close
tcp_input_pcb
memset
ip4_route
tcp_enqueue_flags
