ARM GAS  C:\Users\milek\AppData\Local\Temp\ccQvCT52.s 			page 1


   1              		.cpu cortex-m7
   2              		.eabi_attribute 27, 1
   3              		.eabi_attribute 28, 1
   4              		.eabi_attribute 20, 1
   5              		.eabi_attribute 21, 1
   6              		.eabi_attribute 23, 3
   7              		.eabi_attribute 24, 1
   8              		.eabi_attribute 25, 1
   9              		.eabi_attribute 26, 1
  10              		.eabi_attribute 30, 1
  11              		.eabi_attribute 34, 1
  12              		.eabi_attribute 18, 4
  13              		.file	"timeouts.c"
  14              		.text
  15              	.Ltext0:
  16              		.cfi_sections	.debug_frame
  17              		.section	.text.sys_timeouts_sleeptime,"ax",%progbits
  18              		.align	1
  19              		.syntax unified
  20              		.thumb
  21              		.thumb_func
  22              		.fpu fpv5-sp-d16
  24              	sys_timeouts_sleeptime:
  25              	.LFB167:
  26              		.file 1 "Middlewares/Third_Party/LwIP/src/core/timeouts.c"
   1:Middlewares/Third_Party/LwIP/src/core/timeouts.c **** /**
   2:Middlewares/Third_Party/LwIP/src/core/timeouts.c ****  * @file
   3:Middlewares/Third_Party/LwIP/src/core/timeouts.c ****  * Stack-internal timers implementation.
   4:Middlewares/Third_Party/LwIP/src/core/timeouts.c ****  * This file includes timer callbacks for stack-internal timers as well as
   5:Middlewares/Third_Party/LwIP/src/core/timeouts.c ****  * functions to set up or stop timers and check for expired timers.
   6:Middlewares/Third_Party/LwIP/src/core/timeouts.c ****  *
   7:Middlewares/Third_Party/LwIP/src/core/timeouts.c ****  */
   8:Middlewares/Third_Party/LwIP/src/core/timeouts.c **** 
   9:Middlewares/Third_Party/LwIP/src/core/timeouts.c **** /*
  10:Middlewares/Third_Party/LwIP/src/core/timeouts.c ****  * Copyright (c) 2001-2004 Swedish Institute of Computer Science.
  11:Middlewares/Third_Party/LwIP/src/core/timeouts.c ****  * All rights reserved.
  12:Middlewares/Third_Party/LwIP/src/core/timeouts.c ****  *
  13:Middlewares/Third_Party/LwIP/src/core/timeouts.c ****  * Redistribution and use in source and binary forms, with or without modification,
  14:Middlewares/Third_Party/LwIP/src/core/timeouts.c ****  * are permitted provided that the following conditions are met:
  15:Middlewares/Third_Party/LwIP/src/core/timeouts.c ****  *
  16:Middlewares/Third_Party/LwIP/src/core/timeouts.c ****  * 1. Redistributions of source code must retain the above copyright notice,
  17:Middlewares/Third_Party/LwIP/src/core/timeouts.c ****  *    this list of conditions and the following disclaimer.
  18:Middlewares/Third_Party/LwIP/src/core/timeouts.c ****  * 2. Redistributions in binary form must reproduce the above copyright notice,
  19:Middlewares/Third_Party/LwIP/src/core/timeouts.c ****  *    this list of conditions and the following disclaimer in the documentation
  20:Middlewares/Third_Party/LwIP/src/core/timeouts.c ****  *    and/or other materials provided with the distribution.
  21:Middlewares/Third_Party/LwIP/src/core/timeouts.c ****  * 3. The name of the author may not be used to endorse or promote products
  22:Middlewares/Third_Party/LwIP/src/core/timeouts.c ****  *    derived from this software without specific prior written permission.
  23:Middlewares/Third_Party/LwIP/src/core/timeouts.c ****  *
  24:Middlewares/Third_Party/LwIP/src/core/timeouts.c ****  * THIS SOFTWARE IS PROVIDED BY THE AUTHOR ``AS IS'' AND ANY EXPRESS OR IMPLIED
  25:Middlewares/Third_Party/LwIP/src/core/timeouts.c ****  * WARRANTIES, INCLUDING, BUT NOT LIMITED TO, THE IMPLIED WARRANTIES OF
  26:Middlewares/Third_Party/LwIP/src/core/timeouts.c ****  * MERCHANTABILITY AND FITNESS FOR A PARTICULAR PURPOSE ARE DISCLAIMED. IN NO EVENT
  27:Middlewares/Third_Party/LwIP/src/core/timeouts.c ****  * SHALL THE AUTHOR BE LIABLE FOR ANY DIRECT, INDIRECT, INCIDENTAL, SPECIAL,
  28:Middlewares/Third_Party/LwIP/src/core/timeouts.c ****  * EXEMPLARY, OR CONSEQUENTIAL DAMAGES (INCLUDING, BUT NOT LIMITED TO, PROCUREMENT
  29:Middlewares/Third_Party/LwIP/src/core/timeouts.c ****  * OF SUBSTITUTE GOODS OR SERVICES; LOSS OF USE, DATA, OR PROFITS; OR BUSINESS
  30:Middlewares/Third_Party/LwIP/src/core/timeouts.c ****  * INTERRUPTION) HOWEVER CAUSED AND ON ANY THEORY OF LIABILITY, WHETHER IN
  31:Middlewares/Third_Party/LwIP/src/core/timeouts.c ****  * CONTRACT, STRICT LIABILITY, OR TORT (INCLUDING NEGLIGENCE OR OTHERWISE) ARISING
  32:Middlewares/Third_Party/LwIP/src/core/timeouts.c ****  * IN ANY WAY OUT OF THE USE OF THIS SOFTWARE, EVEN IF ADVISED OF THE POSSIBILITY
ARM GAS  C:\Users\milek\AppData\Local\Temp\ccQvCT52.s 			page 2


  33:Middlewares/Third_Party/LwIP/src/core/timeouts.c ****  * OF SUCH DAMAGE.
  34:Middlewares/Third_Party/LwIP/src/core/timeouts.c ****  *
  35:Middlewares/Third_Party/LwIP/src/core/timeouts.c ****  * This file is part of the lwIP TCP/IP stack.
  36:Middlewares/Third_Party/LwIP/src/core/timeouts.c ****  *
  37:Middlewares/Third_Party/LwIP/src/core/timeouts.c ****  * Author: Adam Dunkels <adam@sics.se>
  38:Middlewares/Third_Party/LwIP/src/core/timeouts.c ****  *         Simon Goldschmidt
  39:Middlewares/Third_Party/LwIP/src/core/timeouts.c ****  *
  40:Middlewares/Third_Party/LwIP/src/core/timeouts.c ****  */
  41:Middlewares/Third_Party/LwIP/src/core/timeouts.c **** 
  42:Middlewares/Third_Party/LwIP/src/core/timeouts.c **** #include "lwip/opt.h"
  43:Middlewares/Third_Party/LwIP/src/core/timeouts.c **** 
  44:Middlewares/Third_Party/LwIP/src/core/timeouts.c **** #include "lwip/timeouts.h"
  45:Middlewares/Third_Party/LwIP/src/core/timeouts.c **** #include "lwip/priv/tcp_priv.h"
  46:Middlewares/Third_Party/LwIP/src/core/timeouts.c **** 
  47:Middlewares/Third_Party/LwIP/src/core/timeouts.c **** #include "lwip/def.h"
  48:Middlewares/Third_Party/LwIP/src/core/timeouts.c **** #include "lwip/memp.h"
  49:Middlewares/Third_Party/LwIP/src/core/timeouts.c **** #include "lwip/priv/tcpip_priv.h"
  50:Middlewares/Third_Party/LwIP/src/core/timeouts.c **** 
  51:Middlewares/Third_Party/LwIP/src/core/timeouts.c **** #include "lwip/ip4_frag.h"
  52:Middlewares/Third_Party/LwIP/src/core/timeouts.c **** #include "lwip/etharp.h"
  53:Middlewares/Third_Party/LwIP/src/core/timeouts.c **** #include "lwip/dhcp.h"
  54:Middlewares/Third_Party/LwIP/src/core/timeouts.c **** #include "lwip/autoip.h"
  55:Middlewares/Third_Party/LwIP/src/core/timeouts.c **** #include "lwip/igmp.h"
  56:Middlewares/Third_Party/LwIP/src/core/timeouts.c **** #include "lwip/dns.h"
  57:Middlewares/Third_Party/LwIP/src/core/timeouts.c **** #include "lwip/nd6.h"
  58:Middlewares/Third_Party/LwIP/src/core/timeouts.c **** #include "lwip/ip6_frag.h"
  59:Middlewares/Third_Party/LwIP/src/core/timeouts.c **** #include "lwip/mld6.h"
  60:Middlewares/Third_Party/LwIP/src/core/timeouts.c **** #include "lwip/sys.h"
  61:Middlewares/Third_Party/LwIP/src/core/timeouts.c **** #include "lwip/pbuf.h"
  62:Middlewares/Third_Party/LwIP/src/core/timeouts.c **** 
  63:Middlewares/Third_Party/LwIP/src/core/timeouts.c **** #if LWIP_DEBUG_TIMERNAMES
  64:Middlewares/Third_Party/LwIP/src/core/timeouts.c **** #define HANDLER(x) x, #x
  65:Middlewares/Third_Party/LwIP/src/core/timeouts.c **** #else /* LWIP_DEBUG_TIMERNAMES */
  66:Middlewares/Third_Party/LwIP/src/core/timeouts.c **** #define HANDLER(x) x
  67:Middlewares/Third_Party/LwIP/src/core/timeouts.c **** #endif /* LWIP_DEBUG_TIMERNAMES */
  68:Middlewares/Third_Party/LwIP/src/core/timeouts.c **** 
  69:Middlewares/Third_Party/LwIP/src/core/timeouts.c **** /** This array contains all stack-internal cyclic timers. To get the number of
  70:Middlewares/Third_Party/LwIP/src/core/timeouts.c ****  * timers, use LWIP_ARRAYSIZE() */
  71:Middlewares/Third_Party/LwIP/src/core/timeouts.c **** const struct lwip_cyclic_timer lwip_cyclic_timers[] = {
  72:Middlewares/Third_Party/LwIP/src/core/timeouts.c **** #if LWIP_TCP
  73:Middlewares/Third_Party/LwIP/src/core/timeouts.c ****   /* The TCP timer is a special case: it does not have to run always and
  74:Middlewares/Third_Party/LwIP/src/core/timeouts.c ****      is triggered to start from TCP using tcp_timer_needed() */
  75:Middlewares/Third_Party/LwIP/src/core/timeouts.c ****   {TCP_TMR_INTERVAL, HANDLER(tcp_tmr)},
  76:Middlewares/Third_Party/LwIP/src/core/timeouts.c **** #endif /* LWIP_TCP */
  77:Middlewares/Third_Party/LwIP/src/core/timeouts.c **** #if LWIP_IPV4
  78:Middlewares/Third_Party/LwIP/src/core/timeouts.c **** #if IP_REASSEMBLY
  79:Middlewares/Third_Party/LwIP/src/core/timeouts.c ****   {IP_TMR_INTERVAL, HANDLER(ip_reass_tmr)},
  80:Middlewares/Third_Party/LwIP/src/core/timeouts.c **** #endif /* IP_REASSEMBLY */
  81:Middlewares/Third_Party/LwIP/src/core/timeouts.c **** #if LWIP_ARP
  82:Middlewares/Third_Party/LwIP/src/core/timeouts.c ****   {ARP_TMR_INTERVAL, HANDLER(etharp_tmr)},
  83:Middlewares/Third_Party/LwIP/src/core/timeouts.c **** #endif /* LWIP_ARP */
  84:Middlewares/Third_Party/LwIP/src/core/timeouts.c **** #if LWIP_DHCP
  85:Middlewares/Third_Party/LwIP/src/core/timeouts.c ****   {DHCP_COARSE_TIMER_MSECS, HANDLER(dhcp_coarse_tmr)},
  86:Middlewares/Third_Party/LwIP/src/core/timeouts.c ****   {DHCP_FINE_TIMER_MSECS, HANDLER(dhcp_fine_tmr)},
  87:Middlewares/Third_Party/LwIP/src/core/timeouts.c **** #endif /* LWIP_DHCP */
  88:Middlewares/Third_Party/LwIP/src/core/timeouts.c **** #if LWIP_AUTOIP
  89:Middlewares/Third_Party/LwIP/src/core/timeouts.c ****   {AUTOIP_TMR_INTERVAL, HANDLER(autoip_tmr)},
ARM GAS  C:\Users\milek\AppData\Local\Temp\ccQvCT52.s 			page 3


  90:Middlewares/Third_Party/LwIP/src/core/timeouts.c **** #endif /* LWIP_AUTOIP */
  91:Middlewares/Third_Party/LwIP/src/core/timeouts.c **** #if LWIP_IGMP
  92:Middlewares/Third_Party/LwIP/src/core/timeouts.c ****   {IGMP_TMR_INTERVAL, HANDLER(igmp_tmr)},
  93:Middlewares/Third_Party/LwIP/src/core/timeouts.c **** #endif /* LWIP_IGMP */
  94:Middlewares/Third_Party/LwIP/src/core/timeouts.c **** #endif /* LWIP_IPV4 */
  95:Middlewares/Third_Party/LwIP/src/core/timeouts.c **** #if LWIP_DNS
  96:Middlewares/Third_Party/LwIP/src/core/timeouts.c ****   {DNS_TMR_INTERVAL, HANDLER(dns_tmr)},
  97:Middlewares/Third_Party/LwIP/src/core/timeouts.c **** #endif /* LWIP_DNS */
  98:Middlewares/Third_Party/LwIP/src/core/timeouts.c **** #if LWIP_IPV6
  99:Middlewares/Third_Party/LwIP/src/core/timeouts.c ****   {ND6_TMR_INTERVAL, HANDLER(nd6_tmr)},
 100:Middlewares/Third_Party/LwIP/src/core/timeouts.c **** #if LWIP_IPV6_REASS
 101:Middlewares/Third_Party/LwIP/src/core/timeouts.c ****   {IP6_REASS_TMR_INTERVAL, HANDLER(ip6_reass_tmr)},
 102:Middlewares/Third_Party/LwIP/src/core/timeouts.c **** #endif /* LWIP_IPV6_REASS */
 103:Middlewares/Third_Party/LwIP/src/core/timeouts.c **** #if LWIP_IPV6_MLD
 104:Middlewares/Third_Party/LwIP/src/core/timeouts.c ****   {MLD6_TMR_INTERVAL, HANDLER(mld6_tmr)},
 105:Middlewares/Third_Party/LwIP/src/core/timeouts.c **** #endif /* LWIP_IPV6_MLD */
 106:Middlewares/Third_Party/LwIP/src/core/timeouts.c **** #endif /* LWIP_IPV6 */
 107:Middlewares/Third_Party/LwIP/src/core/timeouts.c **** };
 108:Middlewares/Third_Party/LwIP/src/core/timeouts.c **** 
 109:Middlewares/Third_Party/LwIP/src/core/timeouts.c **** #if LWIP_TIMERS && !LWIP_TIMERS_CUSTOM
 110:Middlewares/Third_Party/LwIP/src/core/timeouts.c **** 
 111:Middlewares/Third_Party/LwIP/src/core/timeouts.c **** /** The one and only timeout list */
 112:Middlewares/Third_Party/LwIP/src/core/timeouts.c **** static struct sys_timeo *next_timeout;
 113:Middlewares/Third_Party/LwIP/src/core/timeouts.c **** static u32_t timeouts_last_time;
 114:Middlewares/Third_Party/LwIP/src/core/timeouts.c **** 
 115:Middlewares/Third_Party/LwIP/src/core/timeouts.c **** #if LWIP_TCP
 116:Middlewares/Third_Party/LwIP/src/core/timeouts.c **** /** global variable that shows if the tcp timer is currently scheduled or not */
 117:Middlewares/Third_Party/LwIP/src/core/timeouts.c **** static int tcpip_tcp_timer_active;
 118:Middlewares/Third_Party/LwIP/src/core/timeouts.c **** 
 119:Middlewares/Third_Party/LwIP/src/core/timeouts.c **** /**
 120:Middlewares/Third_Party/LwIP/src/core/timeouts.c ****  * Timer callback function that calls tcp_tmr() and reschedules itself.
 121:Middlewares/Third_Party/LwIP/src/core/timeouts.c ****  *
 122:Middlewares/Third_Party/LwIP/src/core/timeouts.c ****  * @param arg unused argument
 123:Middlewares/Third_Party/LwIP/src/core/timeouts.c ****  */
 124:Middlewares/Third_Party/LwIP/src/core/timeouts.c **** static void
 125:Middlewares/Third_Party/LwIP/src/core/timeouts.c **** tcpip_tcp_timer(void *arg)
 126:Middlewares/Third_Party/LwIP/src/core/timeouts.c **** {
 127:Middlewares/Third_Party/LwIP/src/core/timeouts.c ****   LWIP_UNUSED_ARG(arg);
 128:Middlewares/Third_Party/LwIP/src/core/timeouts.c **** 
 129:Middlewares/Third_Party/LwIP/src/core/timeouts.c ****   /* call TCP timer handler */
 130:Middlewares/Third_Party/LwIP/src/core/timeouts.c ****   tcp_tmr();
 131:Middlewares/Third_Party/LwIP/src/core/timeouts.c ****   /* timer still needed? */
 132:Middlewares/Third_Party/LwIP/src/core/timeouts.c ****   if (tcp_active_pcbs || tcp_tw_pcbs) {
 133:Middlewares/Third_Party/LwIP/src/core/timeouts.c ****     /* restart timer */
 134:Middlewares/Third_Party/LwIP/src/core/timeouts.c ****     sys_timeout(TCP_TMR_INTERVAL, tcpip_tcp_timer, NULL);
 135:Middlewares/Third_Party/LwIP/src/core/timeouts.c ****   } else {
 136:Middlewares/Third_Party/LwIP/src/core/timeouts.c ****     /* disable timer */
 137:Middlewares/Third_Party/LwIP/src/core/timeouts.c ****     tcpip_tcp_timer_active = 0;
 138:Middlewares/Third_Party/LwIP/src/core/timeouts.c ****   }
 139:Middlewares/Third_Party/LwIP/src/core/timeouts.c **** }
 140:Middlewares/Third_Party/LwIP/src/core/timeouts.c **** 
 141:Middlewares/Third_Party/LwIP/src/core/timeouts.c **** /**
 142:Middlewares/Third_Party/LwIP/src/core/timeouts.c ****  * Called from TCP_REG when registering a new PCB:
 143:Middlewares/Third_Party/LwIP/src/core/timeouts.c ****  * the reason is to have the TCP timer only running when
 144:Middlewares/Third_Party/LwIP/src/core/timeouts.c ****  * there are active (or time-wait) PCBs.
 145:Middlewares/Third_Party/LwIP/src/core/timeouts.c ****  */
 146:Middlewares/Third_Party/LwIP/src/core/timeouts.c **** void
ARM GAS  C:\Users\milek\AppData\Local\Temp\ccQvCT52.s 			page 4


 147:Middlewares/Third_Party/LwIP/src/core/timeouts.c **** tcp_timer_needed(void)
 148:Middlewares/Third_Party/LwIP/src/core/timeouts.c **** {
 149:Middlewares/Third_Party/LwIP/src/core/timeouts.c ****   /* timer is off but needed again? */
 150:Middlewares/Third_Party/LwIP/src/core/timeouts.c ****   if (!tcpip_tcp_timer_active && (tcp_active_pcbs || tcp_tw_pcbs)) {
 151:Middlewares/Third_Party/LwIP/src/core/timeouts.c ****     /* enable and start timer */
 152:Middlewares/Third_Party/LwIP/src/core/timeouts.c ****     tcpip_tcp_timer_active = 1;
 153:Middlewares/Third_Party/LwIP/src/core/timeouts.c ****     sys_timeout(TCP_TMR_INTERVAL, tcpip_tcp_timer, NULL);
 154:Middlewares/Third_Party/LwIP/src/core/timeouts.c ****   }
 155:Middlewares/Third_Party/LwIP/src/core/timeouts.c **** }
 156:Middlewares/Third_Party/LwIP/src/core/timeouts.c **** #endif /* LWIP_TCP */
 157:Middlewares/Third_Party/LwIP/src/core/timeouts.c **** 
 158:Middlewares/Third_Party/LwIP/src/core/timeouts.c **** /**
 159:Middlewares/Third_Party/LwIP/src/core/timeouts.c ****  * Timer callback function that calls mld6_tmr() and reschedules itself.
 160:Middlewares/Third_Party/LwIP/src/core/timeouts.c ****  *
 161:Middlewares/Third_Party/LwIP/src/core/timeouts.c ****  * @param arg unused argument
 162:Middlewares/Third_Party/LwIP/src/core/timeouts.c ****  */
 163:Middlewares/Third_Party/LwIP/src/core/timeouts.c **** static void
 164:Middlewares/Third_Party/LwIP/src/core/timeouts.c **** cyclic_timer(void *arg)
 165:Middlewares/Third_Party/LwIP/src/core/timeouts.c **** {
 166:Middlewares/Third_Party/LwIP/src/core/timeouts.c ****   const struct lwip_cyclic_timer* cyclic = (const struct lwip_cyclic_timer*)arg;
 167:Middlewares/Third_Party/LwIP/src/core/timeouts.c **** #if LWIP_DEBUG_TIMERNAMES
 168:Middlewares/Third_Party/LwIP/src/core/timeouts.c ****   LWIP_DEBUGF(TIMERS_DEBUG, ("tcpip: %s()\n", cyclic->handler_name));
 169:Middlewares/Third_Party/LwIP/src/core/timeouts.c **** #endif
 170:Middlewares/Third_Party/LwIP/src/core/timeouts.c ****   cyclic->handler();
 171:Middlewares/Third_Party/LwIP/src/core/timeouts.c ****   sys_timeout(cyclic->interval_ms, cyclic_timer, arg);
 172:Middlewares/Third_Party/LwIP/src/core/timeouts.c **** }
 173:Middlewares/Third_Party/LwIP/src/core/timeouts.c **** 
 174:Middlewares/Third_Party/LwIP/src/core/timeouts.c **** /** Initialize this module */
 175:Middlewares/Third_Party/LwIP/src/core/timeouts.c **** void sys_timeouts_init(void)
 176:Middlewares/Third_Party/LwIP/src/core/timeouts.c **** {
 177:Middlewares/Third_Party/LwIP/src/core/timeouts.c ****   size_t i;
 178:Middlewares/Third_Party/LwIP/src/core/timeouts.c ****   /* tcp_tmr() at index 0 is started on demand */
 179:Middlewares/Third_Party/LwIP/src/core/timeouts.c ****   for (i = (LWIP_TCP ? 1 : 0); i < LWIP_ARRAYSIZE(lwip_cyclic_timers); i++) {
 180:Middlewares/Third_Party/LwIP/src/core/timeouts.c ****     /* we have to cast via size_t to get rid of const warning
 181:Middlewares/Third_Party/LwIP/src/core/timeouts.c ****       (this is OK as cyclic_timer() casts back to const* */
 182:Middlewares/Third_Party/LwIP/src/core/timeouts.c ****     sys_timeout(lwip_cyclic_timers[i].interval_ms, cyclic_timer, LWIP_CONST_CAST(void*, &lwip_cycli
 183:Middlewares/Third_Party/LwIP/src/core/timeouts.c ****   }
 184:Middlewares/Third_Party/LwIP/src/core/timeouts.c **** 
 185:Middlewares/Third_Party/LwIP/src/core/timeouts.c ****   /* Initialise timestamp for sys_check_timeouts */
 186:Middlewares/Third_Party/LwIP/src/core/timeouts.c ****   timeouts_last_time = sys_now();
 187:Middlewares/Third_Party/LwIP/src/core/timeouts.c **** }
 188:Middlewares/Third_Party/LwIP/src/core/timeouts.c **** 
 189:Middlewares/Third_Party/LwIP/src/core/timeouts.c **** /**
 190:Middlewares/Third_Party/LwIP/src/core/timeouts.c ****  * Create a one-shot timer (aka timeout). Timeouts are processed in the
 191:Middlewares/Third_Party/LwIP/src/core/timeouts.c ****  * following cases:
 192:Middlewares/Third_Party/LwIP/src/core/timeouts.c ****  * - while waiting for a message using sys_timeouts_mbox_fetch()
 193:Middlewares/Third_Party/LwIP/src/core/timeouts.c ****  * - by calling sys_check_timeouts() (NO_SYS==1 only)
 194:Middlewares/Third_Party/LwIP/src/core/timeouts.c ****  *
 195:Middlewares/Third_Party/LwIP/src/core/timeouts.c ****  * @param msecs time in milliseconds after that the timer should expire
 196:Middlewares/Third_Party/LwIP/src/core/timeouts.c ****  * @param handler callback function to call when msecs have elapsed
 197:Middlewares/Third_Party/LwIP/src/core/timeouts.c ****  * @param arg argument to pass to the callback function
 198:Middlewares/Third_Party/LwIP/src/core/timeouts.c ****  */
 199:Middlewares/Third_Party/LwIP/src/core/timeouts.c **** #if LWIP_DEBUG_TIMERNAMES
 200:Middlewares/Third_Party/LwIP/src/core/timeouts.c **** void
 201:Middlewares/Third_Party/LwIP/src/core/timeouts.c **** sys_timeout_debug(u32_t msecs, sys_timeout_handler handler, void *arg, const char* handler_name)
 202:Middlewares/Third_Party/LwIP/src/core/timeouts.c **** #else /* LWIP_DEBUG_TIMERNAMES */
 203:Middlewares/Third_Party/LwIP/src/core/timeouts.c **** void
ARM GAS  C:\Users\milek\AppData\Local\Temp\ccQvCT52.s 			page 5


 204:Middlewares/Third_Party/LwIP/src/core/timeouts.c **** sys_timeout(u32_t msecs, sys_timeout_handler handler, void *arg)
 205:Middlewares/Third_Party/LwIP/src/core/timeouts.c **** #endif /* LWIP_DEBUG_TIMERNAMES */
 206:Middlewares/Third_Party/LwIP/src/core/timeouts.c **** {
 207:Middlewares/Third_Party/LwIP/src/core/timeouts.c ****   struct sys_timeo *timeout, *t;
 208:Middlewares/Third_Party/LwIP/src/core/timeouts.c ****   u32_t now, diff;
 209:Middlewares/Third_Party/LwIP/src/core/timeouts.c **** 
 210:Middlewares/Third_Party/LwIP/src/core/timeouts.c ****   timeout = (struct sys_timeo *)memp_malloc(MEMP_SYS_TIMEOUT);
 211:Middlewares/Third_Party/LwIP/src/core/timeouts.c ****   if (timeout == NULL) {
 212:Middlewares/Third_Party/LwIP/src/core/timeouts.c ****     LWIP_ASSERT("sys_timeout: timeout != NULL, pool MEMP_SYS_TIMEOUT is empty", timeout != NULL);
 213:Middlewares/Third_Party/LwIP/src/core/timeouts.c ****     return;
 214:Middlewares/Third_Party/LwIP/src/core/timeouts.c ****   }
 215:Middlewares/Third_Party/LwIP/src/core/timeouts.c **** 
 216:Middlewares/Third_Party/LwIP/src/core/timeouts.c ****   now = sys_now();
 217:Middlewares/Third_Party/LwIP/src/core/timeouts.c ****   if (next_timeout == NULL) {
 218:Middlewares/Third_Party/LwIP/src/core/timeouts.c ****     diff = 0;
 219:Middlewares/Third_Party/LwIP/src/core/timeouts.c ****     timeouts_last_time = now;
 220:Middlewares/Third_Party/LwIP/src/core/timeouts.c ****   } else {
 221:Middlewares/Third_Party/LwIP/src/core/timeouts.c ****     diff = now - timeouts_last_time;
 222:Middlewares/Third_Party/LwIP/src/core/timeouts.c ****   }
 223:Middlewares/Third_Party/LwIP/src/core/timeouts.c **** 
 224:Middlewares/Third_Party/LwIP/src/core/timeouts.c ****   timeout->next = NULL;
 225:Middlewares/Third_Party/LwIP/src/core/timeouts.c ****   timeout->h = handler;
 226:Middlewares/Third_Party/LwIP/src/core/timeouts.c ****   timeout->arg = arg;
 227:Middlewares/Third_Party/LwIP/src/core/timeouts.c ****   timeout->time = msecs + diff;
 228:Middlewares/Third_Party/LwIP/src/core/timeouts.c **** #if LWIP_DEBUG_TIMERNAMES
 229:Middlewares/Third_Party/LwIP/src/core/timeouts.c ****   timeout->handler_name = handler_name;
 230:Middlewares/Third_Party/LwIP/src/core/timeouts.c ****   LWIP_DEBUGF(TIMERS_DEBUG, ("sys_timeout: %p msecs=%"U32_F" handler=%s arg=%p\n",
 231:Middlewares/Third_Party/LwIP/src/core/timeouts.c ****     (void *)timeout, msecs, handler_name, (void *)arg));
 232:Middlewares/Third_Party/LwIP/src/core/timeouts.c **** #endif /* LWIP_DEBUG_TIMERNAMES */
 233:Middlewares/Third_Party/LwIP/src/core/timeouts.c **** 
 234:Middlewares/Third_Party/LwIP/src/core/timeouts.c ****   if (next_timeout == NULL) {
 235:Middlewares/Third_Party/LwIP/src/core/timeouts.c ****     next_timeout = timeout;
 236:Middlewares/Third_Party/LwIP/src/core/timeouts.c ****     return;
 237:Middlewares/Third_Party/LwIP/src/core/timeouts.c ****   }
 238:Middlewares/Third_Party/LwIP/src/core/timeouts.c **** 
 239:Middlewares/Third_Party/LwIP/src/core/timeouts.c ****   if (next_timeout->time > msecs) {
 240:Middlewares/Third_Party/LwIP/src/core/timeouts.c ****     next_timeout->time -= msecs;
 241:Middlewares/Third_Party/LwIP/src/core/timeouts.c ****     timeout->next = next_timeout;
 242:Middlewares/Third_Party/LwIP/src/core/timeouts.c ****     next_timeout = timeout;
 243:Middlewares/Third_Party/LwIP/src/core/timeouts.c ****   } else {
 244:Middlewares/Third_Party/LwIP/src/core/timeouts.c ****     for (t = next_timeout; t != NULL; t = t->next) {
 245:Middlewares/Third_Party/LwIP/src/core/timeouts.c ****       timeout->time -= t->time;
 246:Middlewares/Third_Party/LwIP/src/core/timeouts.c ****       if (t->next == NULL || t->next->time > timeout->time) {
 247:Middlewares/Third_Party/LwIP/src/core/timeouts.c ****         if (t->next != NULL) {
 248:Middlewares/Third_Party/LwIP/src/core/timeouts.c ****           t->next->time -= timeout->time;
 249:Middlewares/Third_Party/LwIP/src/core/timeouts.c ****         } else if (timeout->time > msecs) {
 250:Middlewares/Third_Party/LwIP/src/core/timeouts.c ****           /* If this is the case, 'timeouts_last_time' and 'now' differs too much.
 251:Middlewares/Third_Party/LwIP/src/core/timeouts.c ****              This can be due to sys_check_timeouts() not being called at the right
 252:Middlewares/Third_Party/LwIP/src/core/timeouts.c ****              times, but also when stopping in a breakpoint. Anyway, let's assume
 253:Middlewares/Third_Party/LwIP/src/core/timeouts.c ****              this is not wanted, so add the first timer's time instead of 'diff' */
 254:Middlewares/Third_Party/LwIP/src/core/timeouts.c ****           timeout->time = msecs + next_timeout->time;
 255:Middlewares/Third_Party/LwIP/src/core/timeouts.c ****         }
 256:Middlewares/Third_Party/LwIP/src/core/timeouts.c ****         timeout->next = t->next;
 257:Middlewares/Third_Party/LwIP/src/core/timeouts.c ****         t->next = timeout;
 258:Middlewares/Third_Party/LwIP/src/core/timeouts.c ****         break;
 259:Middlewares/Third_Party/LwIP/src/core/timeouts.c ****       }
 260:Middlewares/Third_Party/LwIP/src/core/timeouts.c ****     }
ARM GAS  C:\Users\milek\AppData\Local\Temp\ccQvCT52.s 			page 6


 261:Middlewares/Third_Party/LwIP/src/core/timeouts.c ****   }
 262:Middlewares/Third_Party/LwIP/src/core/timeouts.c **** }
 263:Middlewares/Third_Party/LwIP/src/core/timeouts.c **** 
 264:Middlewares/Third_Party/LwIP/src/core/timeouts.c **** /**
 265:Middlewares/Third_Party/LwIP/src/core/timeouts.c ****  * Go through timeout list (for this task only) and remove the first matching
 266:Middlewares/Third_Party/LwIP/src/core/timeouts.c ****  * entry (subsequent entries remain untouched), even though the timeout has not
 267:Middlewares/Third_Party/LwIP/src/core/timeouts.c ****  * triggered yet.
 268:Middlewares/Third_Party/LwIP/src/core/timeouts.c ****  *
 269:Middlewares/Third_Party/LwIP/src/core/timeouts.c ****  * @param handler callback function that would be called by the timeout
 270:Middlewares/Third_Party/LwIP/src/core/timeouts.c ****  * @param arg callback argument that would be passed to handler
 271:Middlewares/Third_Party/LwIP/src/core/timeouts.c **** */
 272:Middlewares/Third_Party/LwIP/src/core/timeouts.c **** void
 273:Middlewares/Third_Party/LwIP/src/core/timeouts.c **** sys_untimeout(sys_timeout_handler handler, void *arg)
 274:Middlewares/Third_Party/LwIP/src/core/timeouts.c **** {
 275:Middlewares/Third_Party/LwIP/src/core/timeouts.c ****   struct sys_timeo *prev_t, *t;
 276:Middlewares/Third_Party/LwIP/src/core/timeouts.c **** 
 277:Middlewares/Third_Party/LwIP/src/core/timeouts.c ****   if (next_timeout == NULL) {
 278:Middlewares/Third_Party/LwIP/src/core/timeouts.c ****     return;
 279:Middlewares/Third_Party/LwIP/src/core/timeouts.c ****   }
 280:Middlewares/Third_Party/LwIP/src/core/timeouts.c **** 
 281:Middlewares/Third_Party/LwIP/src/core/timeouts.c ****   for (t = next_timeout, prev_t = NULL; t != NULL; prev_t = t, t = t->next) {
 282:Middlewares/Third_Party/LwIP/src/core/timeouts.c ****     if ((t->h == handler) && (t->arg == arg)) {
 283:Middlewares/Third_Party/LwIP/src/core/timeouts.c ****       /* We have a match */
 284:Middlewares/Third_Party/LwIP/src/core/timeouts.c ****       /* Unlink from previous in list */
 285:Middlewares/Third_Party/LwIP/src/core/timeouts.c ****       if (prev_t == NULL) {
 286:Middlewares/Third_Party/LwIP/src/core/timeouts.c ****         next_timeout = t->next;
 287:Middlewares/Third_Party/LwIP/src/core/timeouts.c ****       } else {
 288:Middlewares/Third_Party/LwIP/src/core/timeouts.c ****         prev_t->next = t->next;
 289:Middlewares/Third_Party/LwIP/src/core/timeouts.c ****       }
 290:Middlewares/Third_Party/LwIP/src/core/timeouts.c ****       /* If not the last one, add time of this one back to next */
 291:Middlewares/Third_Party/LwIP/src/core/timeouts.c ****       if (t->next != NULL) {
 292:Middlewares/Third_Party/LwIP/src/core/timeouts.c ****         t->next->time += t->time;
 293:Middlewares/Third_Party/LwIP/src/core/timeouts.c ****       }
 294:Middlewares/Third_Party/LwIP/src/core/timeouts.c ****       memp_free(MEMP_SYS_TIMEOUT, t);
 295:Middlewares/Third_Party/LwIP/src/core/timeouts.c ****       return;
 296:Middlewares/Third_Party/LwIP/src/core/timeouts.c ****     }
 297:Middlewares/Third_Party/LwIP/src/core/timeouts.c ****   }
 298:Middlewares/Third_Party/LwIP/src/core/timeouts.c ****   return;
 299:Middlewares/Third_Party/LwIP/src/core/timeouts.c **** }
 300:Middlewares/Third_Party/LwIP/src/core/timeouts.c **** 
 301:Middlewares/Third_Party/LwIP/src/core/timeouts.c **** /**
 302:Middlewares/Third_Party/LwIP/src/core/timeouts.c ****  * @ingroup lwip_nosys
 303:Middlewares/Third_Party/LwIP/src/core/timeouts.c ****  * Handle timeouts for NO_SYS==1 (i.e. without using
 304:Middlewares/Third_Party/LwIP/src/core/timeouts.c ****  * tcpip_thread/sys_timeouts_mbox_fetch(). Uses sys_now() to call timeout
 305:Middlewares/Third_Party/LwIP/src/core/timeouts.c ****  * handler functions when timeouts expire.
 306:Middlewares/Third_Party/LwIP/src/core/timeouts.c ****  *
 307:Middlewares/Third_Party/LwIP/src/core/timeouts.c ****  * Must be called periodically from your main loop.
 308:Middlewares/Third_Party/LwIP/src/core/timeouts.c ****  */
 309:Middlewares/Third_Party/LwIP/src/core/timeouts.c **** #if !NO_SYS && !defined __DOXYGEN__
 310:Middlewares/Third_Party/LwIP/src/core/timeouts.c **** static
 311:Middlewares/Third_Party/LwIP/src/core/timeouts.c **** #endif /* !NO_SYS */
 312:Middlewares/Third_Party/LwIP/src/core/timeouts.c **** void
 313:Middlewares/Third_Party/LwIP/src/core/timeouts.c **** sys_check_timeouts(void)
 314:Middlewares/Third_Party/LwIP/src/core/timeouts.c **** {
 315:Middlewares/Third_Party/LwIP/src/core/timeouts.c ****   if (next_timeout) {
 316:Middlewares/Third_Party/LwIP/src/core/timeouts.c ****     struct sys_timeo *tmptimeout;
 317:Middlewares/Third_Party/LwIP/src/core/timeouts.c ****     u32_t diff;
ARM GAS  C:\Users\milek\AppData\Local\Temp\ccQvCT52.s 			page 7


 318:Middlewares/Third_Party/LwIP/src/core/timeouts.c ****     sys_timeout_handler handler;
 319:Middlewares/Third_Party/LwIP/src/core/timeouts.c ****     void *arg;
 320:Middlewares/Third_Party/LwIP/src/core/timeouts.c ****     u8_t had_one;
 321:Middlewares/Third_Party/LwIP/src/core/timeouts.c ****     u32_t now;
 322:Middlewares/Third_Party/LwIP/src/core/timeouts.c **** 
 323:Middlewares/Third_Party/LwIP/src/core/timeouts.c ****     now = sys_now();
 324:Middlewares/Third_Party/LwIP/src/core/timeouts.c ****     /* this cares for wraparounds */
 325:Middlewares/Third_Party/LwIP/src/core/timeouts.c ****     diff = now - timeouts_last_time;
 326:Middlewares/Third_Party/LwIP/src/core/timeouts.c ****     do {
 327:Middlewares/Third_Party/LwIP/src/core/timeouts.c ****       PBUF_CHECK_FREE_OOSEQ();
 328:Middlewares/Third_Party/LwIP/src/core/timeouts.c ****       had_one = 0;
 329:Middlewares/Third_Party/LwIP/src/core/timeouts.c ****       tmptimeout = next_timeout;
 330:Middlewares/Third_Party/LwIP/src/core/timeouts.c ****       if (tmptimeout && (tmptimeout->time <= diff)) {
 331:Middlewares/Third_Party/LwIP/src/core/timeouts.c ****         /* timeout has expired */
 332:Middlewares/Third_Party/LwIP/src/core/timeouts.c ****         had_one = 1;
 333:Middlewares/Third_Party/LwIP/src/core/timeouts.c ****         timeouts_last_time += tmptimeout->time;
 334:Middlewares/Third_Party/LwIP/src/core/timeouts.c ****         diff -= tmptimeout->time;
 335:Middlewares/Third_Party/LwIP/src/core/timeouts.c ****         next_timeout = tmptimeout->next;
 336:Middlewares/Third_Party/LwIP/src/core/timeouts.c ****         handler = tmptimeout->h;
 337:Middlewares/Third_Party/LwIP/src/core/timeouts.c ****         arg = tmptimeout->arg;
 338:Middlewares/Third_Party/LwIP/src/core/timeouts.c **** #if LWIP_DEBUG_TIMERNAMES
 339:Middlewares/Third_Party/LwIP/src/core/timeouts.c ****         if (handler != NULL) {
 340:Middlewares/Third_Party/LwIP/src/core/timeouts.c ****           LWIP_DEBUGF(TIMERS_DEBUG, ("sct calling h=%s arg=%p\n",
 341:Middlewares/Third_Party/LwIP/src/core/timeouts.c ****             tmptimeout->handler_name, arg));
 342:Middlewares/Third_Party/LwIP/src/core/timeouts.c ****         }
 343:Middlewares/Third_Party/LwIP/src/core/timeouts.c **** #endif /* LWIP_DEBUG_TIMERNAMES */
 344:Middlewares/Third_Party/LwIP/src/core/timeouts.c ****         memp_free(MEMP_SYS_TIMEOUT, tmptimeout);
 345:Middlewares/Third_Party/LwIP/src/core/timeouts.c ****         if (handler != NULL) {
 346:Middlewares/Third_Party/LwIP/src/core/timeouts.c **** #if !NO_SYS
 347:Middlewares/Third_Party/LwIP/src/core/timeouts.c ****           /* For LWIP_TCPIP_CORE_LOCKING, lock the core before calling the
 348:Middlewares/Third_Party/LwIP/src/core/timeouts.c ****              timeout handler function. */
 349:Middlewares/Third_Party/LwIP/src/core/timeouts.c ****           LOCK_TCPIP_CORE();
 350:Middlewares/Third_Party/LwIP/src/core/timeouts.c **** #endif /* !NO_SYS */
 351:Middlewares/Third_Party/LwIP/src/core/timeouts.c ****           handler(arg);
 352:Middlewares/Third_Party/LwIP/src/core/timeouts.c **** #if !NO_SYS
 353:Middlewares/Third_Party/LwIP/src/core/timeouts.c ****           UNLOCK_TCPIP_CORE();
 354:Middlewares/Third_Party/LwIP/src/core/timeouts.c **** #endif /* !NO_SYS */
 355:Middlewares/Third_Party/LwIP/src/core/timeouts.c ****         }
 356:Middlewares/Third_Party/LwIP/src/core/timeouts.c ****         LWIP_TCPIP_THREAD_ALIVE();
 357:Middlewares/Third_Party/LwIP/src/core/timeouts.c ****       }
 358:Middlewares/Third_Party/LwIP/src/core/timeouts.c ****     /* repeat until all expired timers have been called */
 359:Middlewares/Third_Party/LwIP/src/core/timeouts.c ****     } while (had_one);
 360:Middlewares/Third_Party/LwIP/src/core/timeouts.c ****   }
 361:Middlewares/Third_Party/LwIP/src/core/timeouts.c **** }
 362:Middlewares/Third_Party/LwIP/src/core/timeouts.c **** 
 363:Middlewares/Third_Party/LwIP/src/core/timeouts.c **** /** Set back the timestamp of the last call to sys_check_timeouts()
 364:Middlewares/Third_Party/LwIP/src/core/timeouts.c ****  * This is necessary if sys_check_timeouts() hasn't been called for a long
 365:Middlewares/Third_Party/LwIP/src/core/timeouts.c ****  * time (e.g. while saving energy) to prevent all timer functions of that
 366:Middlewares/Third_Party/LwIP/src/core/timeouts.c ****  * period being called.
 367:Middlewares/Third_Party/LwIP/src/core/timeouts.c ****  */
 368:Middlewares/Third_Party/LwIP/src/core/timeouts.c **** void
 369:Middlewares/Third_Party/LwIP/src/core/timeouts.c **** sys_restart_timeouts(void)
 370:Middlewares/Third_Party/LwIP/src/core/timeouts.c **** {
 371:Middlewares/Third_Party/LwIP/src/core/timeouts.c ****   timeouts_last_time = sys_now();
 372:Middlewares/Third_Party/LwIP/src/core/timeouts.c **** }
 373:Middlewares/Third_Party/LwIP/src/core/timeouts.c **** 
 374:Middlewares/Third_Party/LwIP/src/core/timeouts.c **** /** Return the time left before the next timeout is due. If no timeouts are
ARM GAS  C:\Users\milek\AppData\Local\Temp\ccQvCT52.s 			page 8


 375:Middlewares/Third_Party/LwIP/src/core/timeouts.c ****  * enqueued, returns 0xffffffff
 376:Middlewares/Third_Party/LwIP/src/core/timeouts.c ****  */
 377:Middlewares/Third_Party/LwIP/src/core/timeouts.c **** #if !NO_SYS
 378:Middlewares/Third_Party/LwIP/src/core/timeouts.c **** static
 379:Middlewares/Third_Party/LwIP/src/core/timeouts.c **** #endif /* !NO_SYS */
 380:Middlewares/Third_Party/LwIP/src/core/timeouts.c **** u32_t
 381:Middlewares/Third_Party/LwIP/src/core/timeouts.c **** sys_timeouts_sleeptime(void)
 382:Middlewares/Third_Party/LwIP/src/core/timeouts.c **** {
  27              		.loc 1 382 0
  28              		.cfi_startproc
  29              		@ args = 0, pretend = 0, frame = 0
  30              		@ frame_needed = 0, uses_anonymous_args = 0
  31 0000 08B5     		push	{r3, lr}
  32              	.LCFI0:
  33              		.cfi_def_cfa_offset 8
  34              		.cfi_offset 3, -8
  35              		.cfi_offset 14, -4
 383:Middlewares/Third_Party/LwIP/src/core/timeouts.c ****   u32_t diff;
 384:Middlewares/Third_Party/LwIP/src/core/timeouts.c ****   if (next_timeout == NULL) {
  36              		.loc 1 384 0
  37 0002 0A4B     		ldr	r3, .L6
  38 0004 1B68     		ldr	r3, [r3]
  39 0006 5BB1     		cbz	r3, .L3
 385:Middlewares/Third_Party/LwIP/src/core/timeouts.c ****     return 0xffffffff;
 386:Middlewares/Third_Party/LwIP/src/core/timeouts.c ****   }
 387:Middlewares/Third_Party/LwIP/src/core/timeouts.c ****   diff = sys_now() - timeouts_last_time;
  40              		.loc 1 387 0
  41 0008 FFF7FEFF 		bl	sys_now
  42              	.LVL0:
  43 000c 084B     		ldr	r3, .L6+4
  44 000e 1B68     		ldr	r3, [r3]
  45 0010 C01A     		subs	r0, r0, r3
  46              	.LVL1:
 388:Middlewares/Third_Party/LwIP/src/core/timeouts.c ****   if (diff > next_timeout->time) {
  47              		.loc 1 388 0
  48 0012 064B     		ldr	r3, .L6
  49 0014 1B68     		ldr	r3, [r3]
  50 0016 5B68     		ldr	r3, [r3, #4]
  51 0018 8342     		cmp	r3, r0
  52 001a 04D3     		bcc	.L4
 389:Middlewares/Third_Party/LwIP/src/core/timeouts.c ****     return 0;
 390:Middlewares/Third_Party/LwIP/src/core/timeouts.c ****   } else {
 391:Middlewares/Third_Party/LwIP/src/core/timeouts.c ****     return next_timeout->time - diff;
  53              		.loc 1 391 0
  54 001c 181A     		subs	r0, r3, r0
  55              	.LVL2:
  56              	.L1:
 392:Middlewares/Third_Party/LwIP/src/core/timeouts.c ****   }
 393:Middlewares/Third_Party/LwIP/src/core/timeouts.c **** }
  57              		.loc 1 393 0
  58 001e 08BD     		pop	{r3, pc}
  59              	.L3:
 385:Middlewares/Third_Party/LwIP/src/core/timeouts.c ****   }
  60              		.loc 1 385 0
  61 0020 4FF0FF30 		mov	r0, #-1
  62 0024 FBE7     		b	.L1
  63              	.LVL3:
ARM GAS  C:\Users\milek\AppData\Local\Temp\ccQvCT52.s 			page 9


  64              	.L4:
 389:Middlewares/Third_Party/LwIP/src/core/timeouts.c ****     return 0;
  65              		.loc 1 389 0
  66 0026 0020     		movs	r0, #0
  67              	.LVL4:
  68 0028 F9E7     		b	.L1
  69              	.L7:
  70 002a 00BF     		.align	2
  71              	.L6:
  72 002c 00000000 		.word	.LANCHOR0
  73 0030 00000000 		.word	.LANCHOR1
  74              		.cfi_endproc
  75              	.LFE167:
  77              		.section	.text.sys_check_timeouts,"ax",%progbits
  78              		.align	1
  79              		.syntax unified
  80              		.thumb
  81              		.thumb_func
  82              		.fpu fpv5-sp-d16
  84              	sys_check_timeouts:
  85              	.LFB165:
 314:Middlewares/Third_Party/LwIP/src/core/timeouts.c ****   if (next_timeout) {
  86              		.loc 1 314 0
  87              		.cfi_startproc
  88              		@ args = 0, pretend = 0, frame = 0
  89              		@ frame_needed = 0, uses_anonymous_args = 0
  90 0000 F8B5     		push	{r3, r4, r5, r6, r7, lr}
  91              	.LCFI1:
  92              		.cfi_def_cfa_offset 24
  93              		.cfi_offset 3, -24
  94              		.cfi_offset 4, -20
  95              		.cfi_offset 5, -16
  96              		.cfi_offset 6, -12
  97              		.cfi_offset 7, -8
  98              		.cfi_offset 14, -4
 315:Middlewares/Third_Party/LwIP/src/core/timeouts.c ****     struct sys_timeo *tmptimeout;
  99              		.loc 1 315 0
 100 0002 144B     		ldr	r3, .L13
 101 0004 1B68     		ldr	r3, [r3]
 102 0006 1BB3     		cbz	r3, .L8
 103              	.LBB2:
 323:Middlewares/Third_Party/LwIP/src/core/timeouts.c ****     /* this cares for wraparounds */
 104              		.loc 1 323 0
 105 0008 FFF7FEFF 		bl	sys_now
 106              	.LVL5:
 325:Middlewares/Third_Party/LwIP/src/core/timeouts.c ****     do {
 107              		.loc 1 325 0
 108 000c 124B     		ldr	r3, .L13+4
 109 000e 1C68     		ldr	r4, [r3]
 110 0010 041B     		subs	r4, r0, r4
 111              	.LVL6:
 112              	.L10:
 329:Middlewares/Third_Party/LwIP/src/core/timeouts.c ****       if (tmptimeout && (tmptimeout->time <= diff)) {
 113              		.loc 1 329 0
 114 0012 104B     		ldr	r3, .L13
 115 0014 1968     		ldr	r1, [r3]
 116              	.LVL7:
ARM GAS  C:\Users\milek\AppData\Local\Temp\ccQvCT52.s 			page 10


 330:Middlewares/Third_Party/LwIP/src/core/timeouts.c ****         /* timeout has expired */
 117              		.loc 1 330 0
 118 0016 D9B1     		cbz	r1, .L8
 330:Middlewares/Third_Party/LwIP/src/core/timeouts.c ****         /* timeout has expired */
 119              		.loc 1 330 0 is_stmt 0 discriminator 1
 120 0018 4B68     		ldr	r3, [r1, #4]
 121 001a A342     		cmp	r3, r4
 122 001c 18D8     		bhi	.L8
 123              	.LVL8:
 333:Middlewares/Third_Party/LwIP/src/core/timeouts.c ****         diff -= tmptimeout->time;
 124              		.loc 1 333 0 is_stmt 1
 125 001e 0E48     		ldr	r0, .L13+4
 126 0020 0268     		ldr	r2, [r0]
 127 0022 1A44     		add	r2, r2, r3
 128 0024 0260     		str	r2, [r0]
 334:Middlewares/Third_Party/LwIP/src/core/timeouts.c ****         next_timeout = tmptimeout->next;
 129              		.loc 1 334 0
 130 0026 E41A     		subs	r4, r4, r3
 131              	.LVL9:
 335:Middlewares/Third_Party/LwIP/src/core/timeouts.c ****         handler = tmptimeout->h;
 132              		.loc 1 335 0
 133 0028 0A68     		ldr	r2, [r1]
 134 002a 0A4B     		ldr	r3, .L13
 135 002c 1A60     		str	r2, [r3]
 336:Middlewares/Third_Party/LwIP/src/core/timeouts.c ****         arg = tmptimeout->arg;
 136              		.loc 1 336 0
 137 002e 8D68     		ldr	r5, [r1, #8]
 138              	.LVL10:
 337:Middlewares/Third_Party/LwIP/src/core/timeouts.c **** #if LWIP_DEBUG_TIMERNAMES
 139              		.loc 1 337 0
 140 0030 CF68     		ldr	r7, [r1, #12]
 141              	.LVL11:
 344:Middlewares/Third_Party/LwIP/src/core/timeouts.c ****         if (handler != NULL) {
 142              		.loc 1 344 0
 143 0032 0A20     		movs	r0, #10
 144 0034 FFF7FEFF 		bl	memp_free
 145              	.LVL12:
 345:Middlewares/Third_Party/LwIP/src/core/timeouts.c **** #if !NO_SYS
 146              		.loc 1 345 0
 147 0038 002D     		cmp	r5, #0
 148 003a EAD0     		beq	.L10
 349:Middlewares/Third_Party/LwIP/src/core/timeouts.c **** #endif /* !NO_SYS */
 149              		.loc 1 349 0
 150 003c 074E     		ldr	r6, .L13+8
 151 003e 3046     		mov	r0, r6
 152 0040 FFF7FEFF 		bl	sys_mutex_lock
 153              	.LVL13:
 351:Middlewares/Third_Party/LwIP/src/core/timeouts.c **** #if !NO_SYS
 154              		.loc 1 351 0
 155 0044 3846     		mov	r0, r7
 156 0046 A847     		blx	r5
 157              	.LVL14:
 353:Middlewares/Third_Party/LwIP/src/core/timeouts.c **** #endif /* !NO_SYS */
 158              		.loc 1 353 0
 159 0048 3046     		mov	r0, r6
 160 004a FFF7FEFF 		bl	sys_mutex_unlock
 161              	.LVL15:
ARM GAS  C:\Users\milek\AppData\Local\Temp\ccQvCT52.s 			page 11


 162 004e E0E7     		b	.L10
 163              	.LVL16:
 164              	.L8:
 165              	.LBE2:
 361:Middlewares/Third_Party/LwIP/src/core/timeouts.c **** 
 166              		.loc 1 361 0
 167 0050 F8BD     		pop	{r3, r4, r5, r6, r7, pc}
 168              	.L14:
 169 0052 00BF     		.align	2
 170              	.L13:
 171 0054 00000000 		.word	.LANCHOR0
 172 0058 00000000 		.word	.LANCHOR1
 173 005c 00000000 		.word	lock_tcpip_core
 174              		.cfi_endproc
 175              	.LFE165:
 177              		.section	.text.sys_timeout,"ax",%progbits
 178              		.align	1
 179              		.global	sys_timeout
 180              		.syntax unified
 181              		.thumb
 182              		.thumb_func
 183              		.fpu fpv5-sp-d16
 185              	sys_timeout:
 186              	.LFB163:
 206:Middlewares/Third_Party/LwIP/src/core/timeouts.c ****   struct sys_timeo *timeout, *t;
 187              		.loc 1 206 0
 188              		.cfi_startproc
 189              		@ args = 0, pretend = 0, frame = 0
 190              		@ frame_needed = 0, uses_anonymous_args = 0
 191              	.LVL17:
 192 0000 2DE9F041 		push	{r4, r5, r6, r7, r8, lr}
 193              	.LCFI2:
 194              		.cfi_def_cfa_offset 24
 195              		.cfi_offset 4, -24
 196              		.cfi_offset 5, -20
 197              		.cfi_offset 6, -16
 198              		.cfi_offset 7, -12
 199              		.cfi_offset 8, -8
 200              		.cfi_offset 14, -4
 201 0004 0546     		mov	r5, r0
 202 0006 8846     		mov	r8, r1
 203 0008 1746     		mov	r7, r2
 210:Middlewares/Third_Party/LwIP/src/core/timeouts.c ****   if (timeout == NULL) {
 204              		.loc 1 210 0
 205 000a 0A20     		movs	r0, #10
 206              	.LVL18:
 207 000c FFF7FEFF 		bl	memp_malloc
 208              	.LVL19:
 211:Middlewares/Third_Party/LwIP/src/core/timeouts.c ****     LWIP_ASSERT("sys_timeout: timeout != NULL, pool MEMP_SYS_TIMEOUT is empty", timeout != NULL);
 209              		.loc 1 211 0
 210 0010 00B3     		cbz	r0, .L29
 211 0012 0446     		mov	r4, r0
 216:Middlewares/Third_Party/LwIP/src/core/timeouts.c ****   if (next_timeout == NULL) {
 212              		.loc 1 216 0
 213 0014 FFF7FEFF 		bl	sys_now
 214              	.LVL20:
 217:Middlewares/Third_Party/LwIP/src/core/timeouts.c ****     diff = 0;
ARM GAS  C:\Users\milek\AppData\Local\Temp\ccQvCT52.s 			page 12


 215              		.loc 1 217 0
 216 0018 204B     		ldr	r3, .L33
 217 001a 1E68     		ldr	r6, [r3]
 218 001c 16B3     		cbz	r6, .L30
 221:Middlewares/Third_Party/LwIP/src/core/timeouts.c ****   }
 219              		.loc 1 221 0
 220 001e 204B     		ldr	r3, .L33+4
 221 0020 1B68     		ldr	r3, [r3]
 222 0022 C01A     		subs	r0, r0, r3
 223              	.LVL21:
 224              	.L19:
 224:Middlewares/Third_Party/LwIP/src/core/timeouts.c ****   timeout->h = handler;
 225              		.loc 1 224 0
 226 0024 0023     		movs	r3, #0
 227 0026 2360     		str	r3, [r4]
 225:Middlewares/Third_Party/LwIP/src/core/timeouts.c ****   timeout->arg = arg;
 228              		.loc 1 225 0
 229 0028 C4F80880 		str	r8, [r4, #8]
 226:Middlewares/Third_Party/LwIP/src/core/timeouts.c ****   timeout->time = msecs + diff;
 230              		.loc 1 226 0
 231 002c E760     		str	r7, [r4, #12]
 227:Middlewares/Third_Party/LwIP/src/core/timeouts.c **** #if LWIP_DEBUG_TIMERNAMES
 232              		.loc 1 227 0
 233 002e 2844     		add	r0, r0, r5
 234              	.LVL22:
 235 0030 6060     		str	r0, [r4, #4]
 234:Middlewares/Third_Party/LwIP/src/core/timeouts.c ****     next_timeout = timeout;
 236              		.loc 1 234 0
 237 0032 DEB1     		cbz	r6, .L31
 239:Middlewares/Third_Party/LwIP/src/core/timeouts.c ****     next_timeout->time -= msecs;
 238              		.loc 1 239 0
 239 0034 7368     		ldr	r3, [r6, #4]
 240 0036 AB42     		cmp	r3, r5
 241 0038 1BD8     		bhi	.L32
 244:Middlewares/Third_Party/LwIP/src/core/timeouts.c ****       timeout->time -= t->time;
 242              		.loc 1 244 0
 243 003a 3246     		mov	r2, r6
 244              	.L21:
 245              	.LVL23:
 244:Middlewares/Third_Party/LwIP/src/core/timeouts.c ****       timeout->time -= t->time;
 246              		.loc 1 244 0 is_stmt 0 discriminator 1
 247 003c 82B1     		cbz	r2, .L15
 245:Middlewares/Third_Party/LwIP/src/core/timeouts.c ****       if (t->next == NULL || t->next->time > timeout->time) {
 248              		.loc 1 245 0 is_stmt 1
 249 003e 5168     		ldr	r1, [r2, #4]
 250 0040 6368     		ldr	r3, [r4, #4]
 251 0042 5B1A     		subs	r3, r3, r1
 252 0044 6360     		str	r3, [r4, #4]
 246:Middlewares/Third_Party/LwIP/src/core/timeouts.c ****         if (t->next != NULL) {
 253              		.loc 1 246 0
 254 0046 1168     		ldr	r1, [r2]
 255 0048 C9B1     		cbz	r1, .L22
 246:Middlewares/Third_Party/LwIP/src/core/timeouts.c ****         if (t->next != NULL) {
 256              		.loc 1 246 0 is_stmt 0 discriminator 1
 257 004a 4868     		ldr	r0, [r1, #4]
 258 004c 8342     		cmp	r3, r0
 259 004e 16D3     		bcc	.L22
ARM GAS  C:\Users\milek\AppData\Local\Temp\ccQvCT52.s 			page 13


 244:Middlewares/Third_Party/LwIP/src/core/timeouts.c ****       timeout->time -= t->time;
 260              		.loc 1 244 0 is_stmt 1
 261 0050 0A46     		mov	r2, r1
 262              	.LVL24:
 263 0052 F3E7     		b	.L21
 264              	.LVL25:
 265              	.L29:
 212:Middlewares/Third_Party/LwIP/src/core/timeouts.c ****     return;
 266              		.loc 1 212 0 discriminator 1
 267 0054 134B     		ldr	r3, .L33+8
 268 0056 D422     		movs	r2, #212
 269 0058 1349     		ldr	r1, .L33+12
 270 005a 1448     		ldr	r0, .L33+16
 271              	.LVL26:
 272 005c FFF7FEFF 		bl	printf
 273              	.LVL27:
 274              	.L15:
 262:Middlewares/Third_Party/LwIP/src/core/timeouts.c **** 
 275              		.loc 1 262 0
 276 0060 BDE8F081 		pop	{r4, r5, r6, r7, r8, pc}
 277              	.LVL28:
 278              	.L30:
 219:Middlewares/Third_Party/LwIP/src/core/timeouts.c ****   } else {
 279              		.loc 1 219 0
 280 0064 0E4B     		ldr	r3, .L33+4
 281 0066 1860     		str	r0, [r3]
 218:Middlewares/Third_Party/LwIP/src/core/timeouts.c ****     timeouts_last_time = now;
 282              		.loc 1 218 0
 283 0068 0020     		movs	r0, #0
 284              	.LVL29:
 285 006a DBE7     		b	.L19
 286              	.LVL30:
 287              	.L31:
 235:Middlewares/Third_Party/LwIP/src/core/timeouts.c ****     return;
 288              		.loc 1 235 0
 289 006c 0B4B     		ldr	r3, .L33
 290 006e 1C60     		str	r4, [r3]
 236:Middlewares/Third_Party/LwIP/src/core/timeouts.c ****   }
 291              		.loc 1 236 0
 292 0070 F6E7     		b	.L15
 293              	.L32:
 240:Middlewares/Third_Party/LwIP/src/core/timeouts.c ****     timeout->next = next_timeout;
 294              		.loc 1 240 0
 295 0072 5D1B     		subs	r5, r3, r5
 296              	.LVL31:
 297 0074 7560     		str	r5, [r6, #4]
 241:Middlewares/Third_Party/LwIP/src/core/timeouts.c ****     next_timeout = timeout;
 298              		.loc 1 241 0
 299 0076 2660     		str	r6, [r4]
 242:Middlewares/Third_Party/LwIP/src/core/timeouts.c ****   } else {
 300              		.loc 1 242 0
 301 0078 084B     		ldr	r3, .L33
 302 007a 1C60     		str	r4, [r3]
 303 007c F0E7     		b	.L15
 304              	.LVL32:
 305              	.L22:
 247:Middlewares/Third_Party/LwIP/src/core/timeouts.c ****           t->next->time -= timeout->time;
ARM GAS  C:\Users\milek\AppData\Local\Temp\ccQvCT52.s 			page 14


 306              		.loc 1 247 0
 307 007e 31B1     		cbz	r1, .L23
 248:Middlewares/Third_Party/LwIP/src/core/timeouts.c ****         } else if (timeout->time > msecs) {
 308              		.loc 1 248 0
 309 0080 4868     		ldr	r0, [r1, #4]
 310 0082 C31A     		subs	r3, r0, r3
 311 0084 4B60     		str	r3, [r1, #4]
 312              	.LVL33:
 313              	.L24:
 256:Middlewares/Third_Party/LwIP/src/core/timeouts.c ****         t->next = timeout;
 314              		.loc 1 256 0
 315 0086 1368     		ldr	r3, [r2]
 316 0088 2360     		str	r3, [r4]
 257:Middlewares/Third_Party/LwIP/src/core/timeouts.c ****         break;
 317              		.loc 1 257 0
 318 008a 1460     		str	r4, [r2]
 258:Middlewares/Third_Party/LwIP/src/core/timeouts.c ****       }
 319              		.loc 1 258 0
 320 008c E8E7     		b	.L15
 321              	.LVL34:
 322              	.L23:
 249:Middlewares/Third_Party/LwIP/src/core/timeouts.c ****           /* If this is the case, 'timeouts_last_time' and 'now' differs too much.
 323              		.loc 1 249 0
 324 008e AB42     		cmp	r3, r5
 325 0090 F9D9     		bls	.L24
 254:Middlewares/Third_Party/LwIP/src/core/timeouts.c ****         }
 326              		.loc 1 254 0
 327 0092 7368     		ldr	r3, [r6, #4]
 328 0094 1D44     		add	r5, r5, r3
 329              	.LVL35:
 330 0096 6560     		str	r5, [r4, #4]
 331 0098 F5E7     		b	.L24
 332              	.L34:
 333 009a 00BF     		.align	2
 334              	.L33:
 335 009c 00000000 		.word	.LANCHOR0
 336 00a0 00000000 		.word	.LANCHOR1
 337 00a4 00000000 		.word	.LC0
 338 00a8 34000000 		.word	.LC1
 339 00ac 74000000 		.word	.LC2
 340              		.cfi_endproc
 341              	.LFE163:
 343              		.section	.text.tcp_timer_needed,"ax",%progbits
 344              		.align	1
 345              		.global	tcp_timer_needed
 346              		.syntax unified
 347              		.thumb
 348              		.thumb_func
 349              		.fpu fpv5-sp-d16
 351              	tcp_timer_needed:
 352              	.LFB160:
 148:Middlewares/Third_Party/LwIP/src/core/timeouts.c ****   /* timer is off but needed again? */
 353              		.loc 1 148 0
 354              		.cfi_startproc
 355              		@ args = 0, pretend = 0, frame = 0
 356              		@ frame_needed = 0, uses_anonymous_args = 0
 357 0000 08B5     		push	{r3, lr}
ARM GAS  C:\Users\milek\AppData\Local\Temp\ccQvCT52.s 			page 15


 358              	.LCFI3:
 359              		.cfi_def_cfa_offset 8
 360              		.cfi_offset 3, -8
 361              		.cfi_offset 14, -4
 150:Middlewares/Third_Party/LwIP/src/core/timeouts.c ****     /* enable and start timer */
 362              		.loc 1 150 0
 363 0002 0A4B     		ldr	r3, .L40
 364 0004 1B68     		ldr	r3, [r3]
 365 0006 53B9     		cbnz	r3, .L35
 150:Middlewares/Third_Party/LwIP/src/core/timeouts.c ****     /* enable and start timer */
 366              		.loc 1 150 0 is_stmt 0 discriminator 1
 367 0008 094B     		ldr	r3, .L40+4
 368 000a 1B68     		ldr	r3, [r3]
 369 000c 43B1     		cbz	r3, .L39
 370              	.L37:
 152:Middlewares/Third_Party/LwIP/src/core/timeouts.c ****     sys_timeout(TCP_TMR_INTERVAL, tcpip_tcp_timer, NULL);
 371              		.loc 1 152 0 is_stmt 1
 372 000e 074B     		ldr	r3, .L40
 373 0010 0122     		movs	r2, #1
 374 0012 1A60     		str	r2, [r3]
 153:Middlewares/Third_Party/LwIP/src/core/timeouts.c ****   }
 375              		.loc 1 153 0
 376 0014 0022     		movs	r2, #0
 377 0016 0749     		ldr	r1, .L40+8
 378 0018 FA20     		movs	r0, #250
 379 001a FFF7FEFF 		bl	sys_timeout
 380              	.LVL36:
 381              	.L35:
 155:Middlewares/Third_Party/LwIP/src/core/timeouts.c **** #endif /* LWIP_TCP */
 382              		.loc 1 155 0
 383 001e 08BD     		pop	{r3, pc}
 384              	.L39:
 150:Middlewares/Third_Party/LwIP/src/core/timeouts.c ****     /* enable and start timer */
 385              		.loc 1 150 0 discriminator 2
 386 0020 054B     		ldr	r3, .L40+12
 387 0022 1B68     		ldr	r3, [r3]
 388 0024 002B     		cmp	r3, #0
 389 0026 F2D1     		bne	.L37
 390 0028 F9E7     		b	.L35
 391              	.L41:
 392 002a 00BF     		.align	2
 393              	.L40:
 394 002c 00000000 		.word	.LANCHOR2
 395 0030 00000000 		.word	tcp_active_pcbs
 396 0034 00000000 		.word	tcpip_tcp_timer
 397 0038 00000000 		.word	tcp_tw_pcbs
 398              		.cfi_endproc
 399              	.LFE160:
 401              		.section	.text.tcpip_tcp_timer,"ax",%progbits
 402              		.align	1
 403              		.syntax unified
 404              		.thumb
 405              		.thumb_func
 406              		.fpu fpv5-sp-d16
 408              	tcpip_tcp_timer:
 409              	.LFB159:
 126:Middlewares/Third_Party/LwIP/src/core/timeouts.c ****   LWIP_UNUSED_ARG(arg);
ARM GAS  C:\Users\milek\AppData\Local\Temp\ccQvCT52.s 			page 16


 410              		.loc 1 126 0
 411              		.cfi_startproc
 412              		@ args = 0, pretend = 0, frame = 0
 413              		@ frame_needed = 0, uses_anonymous_args = 0
 414              	.LVL37:
 415 0000 08B5     		push	{r3, lr}
 416              	.LCFI4:
 417              		.cfi_def_cfa_offset 8
 418              		.cfi_offset 3, -8
 419              		.cfi_offset 14, -4
 130:Middlewares/Third_Party/LwIP/src/core/timeouts.c ****   /* timer still needed? */
 420              		.loc 1 130 0
 421 0002 FFF7FEFF 		bl	tcp_tmr
 422              	.LVL38:
 132:Middlewares/Third_Party/LwIP/src/core/timeouts.c ****     /* restart timer */
 423              		.loc 1 132 0
 424 0006 084B     		ldr	r3, .L47
 425 0008 1B68     		ldr	r3, [r3]
 426 000a 13B9     		cbnz	r3, .L43
 132:Middlewares/Third_Party/LwIP/src/core/timeouts.c ****     /* restart timer */
 427              		.loc 1 132 0 is_stmt 0 discriminator 1
 428 000c 074B     		ldr	r3, .L47+4
 429 000e 1B68     		ldr	r3, [r3]
 430 0010 2BB1     		cbz	r3, .L44
 431              	.L43:
 134:Middlewares/Third_Party/LwIP/src/core/timeouts.c ****   } else {
 432              		.loc 1 134 0 is_stmt 1
 433 0012 0022     		movs	r2, #0
 434 0014 0649     		ldr	r1, .L47+8
 435 0016 FA20     		movs	r0, #250
 436 0018 FFF7FEFF 		bl	sys_timeout
 437              	.LVL39:
 438              	.L42:
 139:Middlewares/Third_Party/LwIP/src/core/timeouts.c **** 
 439              		.loc 1 139 0
 440 001c 08BD     		pop	{r3, pc}
 441              	.L44:
 137:Middlewares/Third_Party/LwIP/src/core/timeouts.c ****   }
 442              		.loc 1 137 0
 443 001e 054B     		ldr	r3, .L47+12
 444 0020 0022     		movs	r2, #0
 445 0022 1A60     		str	r2, [r3]
 139:Middlewares/Third_Party/LwIP/src/core/timeouts.c **** 
 446              		.loc 1 139 0
 447 0024 FAE7     		b	.L42
 448              	.L48:
 449 0026 00BF     		.align	2
 450              	.L47:
 451 0028 00000000 		.word	tcp_active_pcbs
 452 002c 00000000 		.word	tcp_tw_pcbs
 453 0030 00000000 		.word	tcpip_tcp_timer
 454 0034 00000000 		.word	.LANCHOR2
 455              		.cfi_endproc
 456              	.LFE159:
 458              		.section	.text.sys_timeouts_init,"ax",%progbits
 459              		.align	1
 460              		.global	sys_timeouts_init
ARM GAS  C:\Users\milek\AppData\Local\Temp\ccQvCT52.s 			page 17


 461              		.syntax unified
 462              		.thumb
 463              		.thumb_func
 464              		.fpu fpv5-sp-d16
 466              	sys_timeouts_init:
 467              	.LFB162:
 176:Middlewares/Third_Party/LwIP/src/core/timeouts.c ****   size_t i;
 468              		.loc 1 176 0
 469              		.cfi_startproc
 470              		@ args = 0, pretend = 0, frame = 0
 471              		@ frame_needed = 0, uses_anonymous_args = 0
 472 0000 10B5     		push	{r4, lr}
 473              	.LCFI5:
 474              		.cfi_def_cfa_offset 8
 475              		.cfi_offset 4, -8
 476              		.cfi_offset 14, -4
 477              	.LVL40:
 179:Middlewares/Third_Party/LwIP/src/core/timeouts.c ****     /* we have to cast via size_t to get rid of const warning
 478              		.loc 1 179 0
 479 0002 0124     		movs	r4, #1
 480 0004 08E0     		b	.L50
 481              	.LVL41:
 482              	.L51:
 182:Middlewares/Third_Party/LwIP/src/core/timeouts.c ****   }
 483              		.loc 1 182 0 discriminator 3
 484 0006 084B     		ldr	r3, .L53
 485 0008 03EBC402 		add	r2, r3, r4, lsl #3
 486 000c 0749     		ldr	r1, .L53+4
 487 000e 53F83400 		ldr	r0, [r3, r4, lsl #3]
 488 0012 FFF7FEFF 		bl	sys_timeout
 489              	.LVL42:
 179:Middlewares/Third_Party/LwIP/src/core/timeouts.c ****     /* we have to cast via size_t to get rid of const warning
 490              		.loc 1 179 0 discriminator 3
 491 0016 0134     		adds	r4, r4, #1
 492              	.LVL43:
 493              	.L50:
 179:Middlewares/Third_Party/LwIP/src/core/timeouts.c ****     /* we have to cast via size_t to get rid of const warning
 494              		.loc 1 179 0 is_stmt 0 discriminator 1
 495 0018 052C     		cmp	r4, #5
 496 001a F4D9     		bls	.L51
 186:Middlewares/Third_Party/LwIP/src/core/timeouts.c **** }
 497              		.loc 1 186 0 is_stmt 1
 498 001c FFF7FEFF 		bl	sys_now
 499              	.LVL44:
 500 0020 034B     		ldr	r3, .L53+8
 501 0022 1860     		str	r0, [r3]
 187:Middlewares/Third_Party/LwIP/src/core/timeouts.c **** 
 502              		.loc 1 187 0
 503 0024 10BD     		pop	{r4, pc}
 504              	.LVL45:
 505              	.L54:
 506 0026 00BF     		.align	2
 507              	.L53:
 508 0028 00000000 		.word	.LANCHOR3
 509 002c 00000000 		.word	cyclic_timer
 510 0030 00000000 		.word	.LANCHOR1
 511              		.cfi_endproc
ARM GAS  C:\Users\milek\AppData\Local\Temp\ccQvCT52.s 			page 18


 512              	.LFE162:
 514              		.section	.text.cyclic_timer,"ax",%progbits
 515              		.align	1
 516              		.syntax unified
 517              		.thumb
 518              		.thumb_func
 519              		.fpu fpv5-sp-d16
 521              	cyclic_timer:
 522              	.LFB161:
 165:Middlewares/Third_Party/LwIP/src/core/timeouts.c ****   const struct lwip_cyclic_timer* cyclic = (const struct lwip_cyclic_timer*)arg;
 523              		.loc 1 165 0
 524              		.cfi_startproc
 525              		@ args = 0, pretend = 0, frame = 0
 526              		@ frame_needed = 0, uses_anonymous_args = 0
 527              	.LVL46:
 528 0000 10B5     		push	{r4, lr}
 529              	.LCFI6:
 530              		.cfi_def_cfa_offset 8
 531              		.cfi_offset 4, -8
 532              		.cfi_offset 14, -4
 533 0002 0446     		mov	r4, r0
 534              	.LVL47:
 170:Middlewares/Third_Party/LwIP/src/core/timeouts.c ****   sys_timeout(cyclic->interval_ms, cyclic_timer, arg);
 535              		.loc 1 170 0
 536 0004 4368     		ldr	r3, [r0, #4]
 537 0006 9847     		blx	r3
 538              	.LVL48:
 171:Middlewares/Third_Party/LwIP/src/core/timeouts.c **** }
 539              		.loc 1 171 0
 540 0008 2246     		mov	r2, r4
 541 000a 0249     		ldr	r1, .L57
 542 000c 2068     		ldr	r0, [r4]
 543 000e FFF7FEFF 		bl	sys_timeout
 544              	.LVL49:
 172:Middlewares/Third_Party/LwIP/src/core/timeouts.c **** 
 545              		.loc 1 172 0
 546 0012 10BD     		pop	{r4, pc}
 547              	.LVL50:
 548              	.L58:
 549              		.align	2
 550              	.L57:
 551 0014 00000000 		.word	cyclic_timer
 552              		.cfi_endproc
 553              	.LFE161:
 555              		.section	.text.sys_untimeout,"ax",%progbits
 556              		.align	1
 557              		.global	sys_untimeout
 558              		.syntax unified
 559              		.thumb
 560              		.thumb_func
 561              		.fpu fpv5-sp-d16
 563              	sys_untimeout:
 564              	.LFB164:
 274:Middlewares/Third_Party/LwIP/src/core/timeouts.c ****   struct sys_timeo *prev_t, *t;
 565              		.loc 1 274 0
 566              		.cfi_startproc
 567              		@ args = 0, pretend = 0, frame = 0
ARM GAS  C:\Users\milek\AppData\Local\Temp\ccQvCT52.s 			page 19


 568              		@ frame_needed = 0, uses_anonymous_args = 0
 569              	.LVL51:
 277:Middlewares/Third_Party/LwIP/src/core/timeouts.c ****     return;
 570              		.loc 1 277 0
 571 0000 114B     		ldr	r3, .L72
 572 0002 1B68     		ldr	r3, [r3]
 573 0004 F3B1     		cbz	r3, .L68
 274:Middlewares/Third_Party/LwIP/src/core/timeouts.c ****   struct sys_timeo *prev_t, *t;
 574              		.loc 1 274 0
 575 0006 10B5     		push	{r4, lr}
 576              	.LCFI7:
 577              		.cfi_def_cfa_offset 8
 578              		.cfi_offset 4, -8
 579              		.cfi_offset 14, -4
 281:Middlewares/Third_Party/LwIP/src/core/timeouts.c ****     if ((t->h == handler) && (t->arg == arg)) {
 580              		.loc 1 281 0
 581 0008 0024     		movs	r4, #0
 582 000a 05E0     		b	.L61
 583              	.LVL52:
 584              	.L71:
 286:Middlewares/Third_Party/LwIP/src/core/timeouts.c ****       } else {
 585              		.loc 1 286 0
 586 000c 1968     		ldr	r1, [r3]
 587              	.LVL53:
 588 000e 0E4A     		ldr	r2, .L72
 589 0010 1160     		str	r1, [r2]
 590 0012 0CE0     		b	.L64
 591              	.LVL54:
 592              	.L62:
 281:Middlewares/Third_Party/LwIP/src/core/timeouts.c ****     if ((t->h == handler) && (t->arg == arg)) {
 593              		.loc 1 281 0 discriminator 2
 594 0014 1C46     		mov	r4, r3
 595 0016 1B68     		ldr	r3, [r3]
 596              	.LVL55:
 597              	.L61:
 281:Middlewares/Third_Party/LwIP/src/core/timeouts.c ****     if ((t->h == handler) && (t->arg == arg)) {
 598              		.loc 1 281 0 is_stmt 0 discriminator 1
 599 0018 9BB1     		cbz	r3, .L59
 282:Middlewares/Third_Party/LwIP/src/core/timeouts.c ****       /* We have a match */
 600              		.loc 1 282 0 is_stmt 1
 601 001a 9A68     		ldr	r2, [r3, #8]
 602 001c 8242     		cmp	r2, r0
 603 001e F9D1     		bne	.L62
 282:Middlewares/Third_Party/LwIP/src/core/timeouts.c ****       /* We have a match */
 604              		.loc 1 282 0 is_stmt 0 discriminator 1
 605 0020 DA68     		ldr	r2, [r3, #12]
 606 0022 8A42     		cmp	r2, r1
 607 0024 F6D1     		bne	.L62
 285:Middlewares/Third_Party/LwIP/src/core/timeouts.c ****         next_timeout = t->next;
 608              		.loc 1 285 0 is_stmt 1
 609 0026 002C     		cmp	r4, #0
 610 0028 F0D0     		beq	.L71
 288:Middlewares/Third_Party/LwIP/src/core/timeouts.c ****       }
 611              		.loc 1 288 0
 612 002a 1A68     		ldr	r2, [r3]
 613 002c 2260     		str	r2, [r4]
 614              	.LVL56:
ARM GAS  C:\Users\milek\AppData\Local\Temp\ccQvCT52.s 			page 20


 615              	.L64:
 291:Middlewares/Third_Party/LwIP/src/core/timeouts.c ****         t->next->time += t->time;
 616              		.loc 1 291 0
 617 002e 1A68     		ldr	r2, [r3]
 618 0030 1AB1     		cbz	r2, .L65
 292:Middlewares/Third_Party/LwIP/src/core/timeouts.c ****       }
 619              		.loc 1 292 0
 620 0032 5868     		ldr	r0, [r3, #4]
 621              	.LVL57:
 622 0034 5168     		ldr	r1, [r2, #4]
 623 0036 0144     		add	r1, r1, r0
 624 0038 5160     		str	r1, [r2, #4]
 625              	.L65:
 294:Middlewares/Third_Party/LwIP/src/core/timeouts.c ****       return;
 626              		.loc 1 294 0
 627 003a 1946     		mov	r1, r3
 628 003c 0A20     		movs	r0, #10
 629 003e FFF7FEFF 		bl	memp_free
 630              	.LVL58:
 631              	.L59:
 299:Middlewares/Third_Party/LwIP/src/core/timeouts.c **** 
 632              		.loc 1 299 0
 633 0042 10BD     		pop	{r4, pc}
 634              	.LVL59:
 635              	.L68:
 636              	.LCFI8:
 637              		.cfi_def_cfa_offset 0
 638              		.cfi_restore 4
 639              		.cfi_restore 14
 640 0044 7047     		bx	lr
 641              	.L73:
 642 0046 00BF     		.align	2
 643              	.L72:
 644 0048 00000000 		.word	.LANCHOR0
 645              		.cfi_endproc
 646              	.LFE164:
 648              		.section	.text.sys_restart_timeouts,"ax",%progbits
 649              		.align	1
 650              		.global	sys_restart_timeouts
 651              		.syntax unified
 652              		.thumb
 653              		.thumb_func
 654              		.fpu fpv5-sp-d16
 656              	sys_restart_timeouts:
 657              	.LFB166:
 370:Middlewares/Third_Party/LwIP/src/core/timeouts.c ****   timeouts_last_time = sys_now();
 658              		.loc 1 370 0
 659              		.cfi_startproc
 660              		@ args = 0, pretend = 0, frame = 0
 661              		@ frame_needed = 0, uses_anonymous_args = 0
 662 0000 08B5     		push	{r3, lr}
 663              	.LCFI9:
 664              		.cfi_def_cfa_offset 8
 665              		.cfi_offset 3, -8
 666              		.cfi_offset 14, -4
 371:Middlewares/Third_Party/LwIP/src/core/timeouts.c **** }
 667              		.loc 1 371 0
ARM GAS  C:\Users\milek\AppData\Local\Temp\ccQvCT52.s 			page 21


 668 0002 FFF7FEFF 		bl	sys_now
 669              	.LVL60:
 670 0006 014B     		ldr	r3, .L76
 671 0008 1860     		str	r0, [r3]
 372:Middlewares/Third_Party/LwIP/src/core/timeouts.c **** 
 672              		.loc 1 372 0
 673 000a 08BD     		pop	{r3, pc}
 674              	.L77:
 675              		.align	2
 676              	.L76:
 677 000c 00000000 		.word	.LANCHOR1
 678              		.cfi_endproc
 679              	.LFE166:
 681              		.section	.text.sys_timeouts_mbox_fetch,"ax",%progbits
 682              		.align	1
 683              		.global	sys_timeouts_mbox_fetch
 684              		.syntax unified
 685              		.thumb
 686              		.thumb_func
 687              		.fpu fpv5-sp-d16
 689              	sys_timeouts_mbox_fetch:
 690              	.LFB168:
 394:Middlewares/Third_Party/LwIP/src/core/timeouts.c **** 
 395:Middlewares/Third_Party/LwIP/src/core/timeouts.c **** #if !NO_SYS
 396:Middlewares/Third_Party/LwIP/src/core/timeouts.c **** 
 397:Middlewares/Third_Party/LwIP/src/core/timeouts.c **** /**
 398:Middlewares/Third_Party/LwIP/src/core/timeouts.c ****  * Wait (forever) for a message to arrive in an mbox.
 399:Middlewares/Third_Party/LwIP/src/core/timeouts.c ****  * While waiting, timeouts are processed.
 400:Middlewares/Third_Party/LwIP/src/core/timeouts.c ****  *
 401:Middlewares/Third_Party/LwIP/src/core/timeouts.c ****  * @param mbox the mbox to fetch the message from
 402:Middlewares/Third_Party/LwIP/src/core/timeouts.c ****  * @param msg the place to store the message
 403:Middlewares/Third_Party/LwIP/src/core/timeouts.c ****  */
 404:Middlewares/Third_Party/LwIP/src/core/timeouts.c **** void
 405:Middlewares/Third_Party/LwIP/src/core/timeouts.c **** sys_timeouts_mbox_fetch(sys_mbox_t *mbox, void **msg)
 406:Middlewares/Third_Party/LwIP/src/core/timeouts.c **** {
 691              		.loc 1 406 0
 692              		.cfi_startproc
 693              		@ args = 0, pretend = 0, frame = 0
 694              		@ frame_needed = 0, uses_anonymous_args = 0
 695              	.LVL61:
 696 0000 38B5     		push	{r3, r4, r5, lr}
 697              	.LCFI10:
 698              		.cfi_def_cfa_offset 16
 699              		.cfi_offset 3, -16
 700              		.cfi_offset 4, -12
 701              		.cfi_offset 5, -8
 702              		.cfi_offset 14, -4
 703 0002 0446     		mov	r4, r0
 704 0004 0D46     		mov	r5, r1
 705 0006 07E0     		b	.L79
 706              	.LVL62:
 707              	.L84:
 407:Middlewares/Third_Party/LwIP/src/core/timeouts.c ****   u32_t sleeptime;
 408:Middlewares/Third_Party/LwIP/src/core/timeouts.c **** 
 409:Middlewares/Third_Party/LwIP/src/core/timeouts.c **** again:
 410:Middlewares/Third_Party/LwIP/src/core/timeouts.c ****   if (!next_timeout) {
 411:Middlewares/Third_Party/LwIP/src/core/timeouts.c ****     sys_arch_mbox_fetch(mbox, msg, 0);
ARM GAS  C:\Users\milek\AppData\Local\Temp\ccQvCT52.s 			page 22


 708              		.loc 1 411 0
 709 0008 0022     		movs	r2, #0
 710 000a 2946     		mov	r1, r5
 711 000c 2046     		mov	r0, r4
 712 000e FFF7FEFF 		bl	sys_arch_mbox_fetch
 713              	.LVL63:
 714              	.L78:
 412:Middlewares/Third_Party/LwIP/src/core/timeouts.c ****     return;
 413:Middlewares/Third_Party/LwIP/src/core/timeouts.c ****   }
 414:Middlewares/Third_Party/LwIP/src/core/timeouts.c **** 
 415:Middlewares/Third_Party/LwIP/src/core/timeouts.c ****   sleeptime = sys_timeouts_sleeptime();
 416:Middlewares/Third_Party/LwIP/src/core/timeouts.c ****   if (sleeptime == 0 || sys_arch_mbox_fetch(mbox, msg, sleeptime) == SYS_ARCH_TIMEOUT) {
 417:Middlewares/Third_Party/LwIP/src/core/timeouts.c ****     /* If a SYS_ARCH_TIMEOUT value is returned, a timeout occurred
 418:Middlewares/Third_Party/LwIP/src/core/timeouts.c ****        before a message could be fetched. */
 419:Middlewares/Third_Party/LwIP/src/core/timeouts.c ****     sys_check_timeouts();
 420:Middlewares/Third_Party/LwIP/src/core/timeouts.c ****     /* We try again to fetch a message from the mbox. */
 421:Middlewares/Third_Party/LwIP/src/core/timeouts.c ****     goto again;
 422:Middlewares/Third_Party/LwIP/src/core/timeouts.c ****   }
 423:Middlewares/Third_Party/LwIP/src/core/timeouts.c **** }
 715              		.loc 1 423 0
 716 0012 38BD     		pop	{r3, r4, r5, pc}
 717              	.LVL64:
 718              	.L82:
 419:Middlewares/Third_Party/LwIP/src/core/timeouts.c ****     /* We try again to fetch a message from the mbox. */
 719              		.loc 1 419 0
 720 0014 FFF7FEFF 		bl	sys_check_timeouts
 721              	.LVL65:
 722              	.L79:
 410:Middlewares/Third_Party/LwIP/src/core/timeouts.c ****     sys_arch_mbox_fetch(mbox, msg, 0);
 723              		.loc 1 410 0
 724 0018 084B     		ldr	r3, .L85
 725 001a 1B68     		ldr	r3, [r3]
 726 001c 002B     		cmp	r3, #0
 727 001e F3D0     		beq	.L84
 415:Middlewares/Third_Party/LwIP/src/core/timeouts.c ****   if (sleeptime == 0 || sys_arch_mbox_fetch(mbox, msg, sleeptime) == SYS_ARCH_TIMEOUT) {
 728              		.loc 1 415 0
 729 0020 FFF7FEFF 		bl	sys_timeouts_sleeptime
 730              	.LVL66:
 416:Middlewares/Third_Party/LwIP/src/core/timeouts.c ****     /* If a SYS_ARCH_TIMEOUT value is returned, a timeout occurred
 731              		.loc 1 416 0
 732 0024 0246     		mov	r2, r0
 733 0026 0028     		cmp	r0, #0
 734 0028 F4D0     		beq	.L82
 416:Middlewares/Third_Party/LwIP/src/core/timeouts.c ****     /* If a SYS_ARCH_TIMEOUT value is returned, a timeout occurred
 735              		.loc 1 416 0 is_stmt 0 discriminator 1
 736 002a 2946     		mov	r1, r5
 737 002c 2046     		mov	r0, r4
 738              	.LVL67:
 739 002e FFF7FEFF 		bl	sys_arch_mbox_fetch
 740              	.LVL68:
 741 0032 B0F1FF3F 		cmp	r0, #-1
 742 0036 EDD0     		beq	.L82
 743 0038 EBE7     		b	.L78
 744              	.L86:
 745 003a 00BF     		.align	2
 746              	.L85:
 747 003c 00000000 		.word	.LANCHOR0
ARM GAS  C:\Users\milek\AppData\Local\Temp\ccQvCT52.s 			page 23


 748              		.cfi_endproc
 749              	.LFE168:
 751              		.global	lwip_cyclic_timers
 752              		.section	.bss.next_timeout,"aw",%nobits
 753              		.align	2
 754              		.set	.LANCHOR0,. + 0
 757              	next_timeout:
 758 0000 00000000 		.space	4
 759              		.section	.bss.tcpip_tcp_timer_active,"aw",%nobits
 760              		.align	2
 761              		.set	.LANCHOR2,. + 0
 764              	tcpip_tcp_timer_active:
 765 0000 00000000 		.space	4
 766              		.section	.bss.timeouts_last_time,"aw",%nobits
 767              		.align	2
 768              		.set	.LANCHOR1,. + 0
 771              	timeouts_last_time:
 772 0000 00000000 		.space	4
 773              		.section	.rodata.lwip_cyclic_timers,"a",%progbits
 774              		.align	2
 775              		.set	.LANCHOR3,. + 0
 778              	lwip_cyclic_timers:
 779 0000 FA000000 		.word	250
 780 0004 00000000 		.word	tcp_tmr
 781 0008 E8030000 		.word	1000
 782 000c 00000000 		.word	ip_reass_tmr
 783 0010 E8030000 		.word	1000
 784 0014 00000000 		.word	etharp_tmr
 785 0018 60EA0000 		.word	60000
 786 001c 00000000 		.word	dhcp_coarse_tmr
 787 0020 F4010000 		.word	500
 788 0024 00000000 		.word	dhcp_fine_tmr
 789 0028 E8030000 		.word	1000
 790 002c 00000000 		.word	dns_tmr
 791              		.section	.rodata.sys_timeout.str1.4,"aMS",%progbits,1
 792              		.align	2
 793              	.LC0:
 794 0000 4D696464 		.ascii	"Middlewares/Third_Party/LwIP/src/core/timeouts.c\000"
 794      6C657761 
 794      7265732F 
 794      54686972 
 794      645F5061 
 795 0031 000000   		.space	3
 796              	.LC1:
 797 0034 7379735F 		.ascii	"sys_timeout: timeout != NULL, pool MEMP_SYS_TIMEOUT"
 797      74696D65 
 797      6F75743A 
 797      2074696D 
 797      656F7574 
 798 0067 20697320 		.ascii	" is empty\000"
 798      656D7074 
 798      7900
 799 0071 000000   		.space	3
 800              	.LC2:
 801 0074 41737365 		.ascii	"Assertion \"%s\" failed at line %d in %s\012\000"
 801      7274696F 
 801      6E202225 
ARM GAS  C:\Users\milek\AppData\Local\Temp\ccQvCT52.s 			page 24


 801      73222066 
 801      61696C65 
 802              		.text
 803              	.Letext0:
 804              		.file 2 "d:\\program files (x86)\\gnu\\7_2018-q2-update\\arm-none-eabi\\include\\machine\\_default
 805              		.file 3 "d:\\program files (x86)\\gnu\\7_2018-q2-update\\arm-none-eabi\\include\\sys\\_stdint.h"
 806              		.file 4 "Drivers/CMSIS/Include/core_cm7.h"
 807              		.file 5 "Drivers/CMSIS/Device/ST/STM32F7xx/Include/system_stm32f7xx.h"
 808              		.file 6 "d:\\program files (x86)\\gnu\\7_2018-q2-update\\lib\\gcc\\arm-none-eabi\\7.3.1\\include\\
 809              		.file 7 "d:\\program files (x86)\\gnu\\7_2018-q2-update\\arm-none-eabi\\include\\sys\\lock.h"
 810              		.file 8 "d:\\program files (x86)\\gnu\\7_2018-q2-update\\arm-none-eabi\\include\\sys\\_types.h"
 811              		.file 9 "d:\\program files (x86)\\gnu\\7_2018-q2-update\\arm-none-eabi\\include\\sys\\reent.h"
 812              		.file 10 "d:\\program files (x86)\\gnu\\7_2018-q2-update\\arm-none-eabi\\include\\stdlib.h"
 813              		.file 11 "d:\\program files (x86)\\gnu\\7_2018-q2-update\\arm-none-eabi\\include\\time.h"
 814              		.file 12 "Middlewares/Third_Party/LwIP/src/include/lwip/arch.h"
 815              		.file 13 "Middlewares/Third_Party/LwIP/src/include/lwip/err.h"
 816              		.file 14 "Middlewares/Third_Party/FreeRTOS/Source/include/queue.h"
 817              		.file 15 "Middlewares/Third_Party/FreeRTOS/Source/include/semphr.h"
 818              		.file 16 "Middlewares/Third_Party/FreeRTOS/Source/CMSIS_RTOS/cmsis_os.h"
 819              		.file 17 "Middlewares/Third_Party/LwIP/system/arch/sys_arch.h"
 820              		.file 18 "Middlewares/Third_Party/LwIP/src/include/lwip/timeouts.h"
 821              		.file 19 "Middlewares/Third_Party/LwIP/src/include/lwip/pbuf.h"
 822              		.file 20 "Middlewares/Third_Party/LwIP/src/include/lwip/ip4_addr.h"
 823              		.file 21 "Middlewares/Third_Party/LwIP/src/include/lwip/ip_addr.h"
 824              		.file 22 "Middlewares/Third_Party/LwIP/src/include/lwip/priv/memp_priv.h"
 825              		.file 23 "Middlewares/Third_Party/LwIP/src/include/lwip/memp.h"
 826              		.file 24 "Middlewares/Third_Party/LwIP/src/include/lwip/netif.h"
 827              		.file 25 "Middlewares/Third_Party/LwIP/src/include/lwip/prot/ip4.h"
 828              		.file 26 "Middlewares/Third_Party/LwIP/src/include/lwip/ip.h"
 829              		.file 27 "Middlewares/Third_Party/LwIP/src/include/lwip/tcp.h"
 830              		.file 28 "Middlewares/Third_Party/LwIP/src/include/lwip/priv/tcp_priv.h"
 831              		.file 29 "Middlewares/Third_Party/LwIP/src/include/lwip/prot/tcp.h"
 832              		.file 30 "Middlewares/Third_Party/LwIP/src/include/lwip/tcpip.h"
 833              		.file 31 "Middlewares/Third_Party/LwIP/src/include/lwip/udp.h"
 834              		.file 32 "Middlewares/Third_Party/LwIP/src/include/lwip/dns.h"
 835              		.file 33 "Middlewares/Third_Party/LwIP/src/include/lwip/sys.h"
 836              		.file 34 "d:\\program files (x86)\\gnu\\7_2018-q2-update\\arm-none-eabi\\include\\stdio.h"
ARM GAS  C:\Users\milek\AppData\Local\Temp\ccQvCT52.s 			page 25

