ARM GAS  C:\Users\Student\AppData\Local\Temp\ccN2YGSa.s 			page 1


   1              		.cpu cortex-m7
   2              		.eabi_attribute 27, 1
   3              		.eabi_attribute 28, 1
   4              		.eabi_attribute 20, 1
   5              		.eabi_attribute 21, 1
   6              		.eabi_attribute 23, 3
   7              		.eabi_attribute 24, 1
   8              		.eabi_attribute 25, 1
   9              		.eabi_attribute 26, 1
  10              		.eabi_attribute 30, 1
  11              		.eabi_attribute 34, 1
  12              		.eabi_attribute 18, 4
  13              		.file	"timeouts.c"
  14              		.text
  15              	.Ltext0:
  16              		.cfi_sections	.debug_frame
  17              		.section	.text.sys_timeouts_sleeptime,"ax",%progbits
  18              		.align	1
  19              		.syntax unified
  20              		.thumb
  21              		.thumb_func
  22              		.fpu fpv5-sp-d16
  24              	sys_timeouts_sleeptime:
  25              	.LFB165:
  26              		.file 1 "Middlewares/Third_Party/LwIP/src/core/timeouts.c"
   1:Middlewares/Third_Party/LwIP/src/core/timeouts.c **** /**
   2:Middlewares/Third_Party/LwIP/src/core/timeouts.c ****  * @file
   3:Middlewares/Third_Party/LwIP/src/core/timeouts.c ****  * Stack-internal timers implementation.
   4:Middlewares/Third_Party/LwIP/src/core/timeouts.c ****  * This file includes timer callbacks for stack-internal timers as well as
   5:Middlewares/Third_Party/LwIP/src/core/timeouts.c ****  * functions to set up or stop timers and check for expired timers.
   6:Middlewares/Third_Party/LwIP/src/core/timeouts.c ****  *
   7:Middlewares/Third_Party/LwIP/src/core/timeouts.c ****  */
   8:Middlewares/Third_Party/LwIP/src/core/timeouts.c **** 
   9:Middlewares/Third_Party/LwIP/src/core/timeouts.c **** /*
  10:Middlewares/Third_Party/LwIP/src/core/timeouts.c ****  * Copyright (c) 2001-2004 Swedish Institute of Computer Science.
  11:Middlewares/Third_Party/LwIP/src/core/timeouts.c ****  * All rights reserved.
  12:Middlewares/Third_Party/LwIP/src/core/timeouts.c ****  *
  13:Middlewares/Third_Party/LwIP/src/core/timeouts.c ****  * Redistribution and use in source and binary forms, with or without modification,
  14:Middlewares/Third_Party/LwIP/src/core/timeouts.c ****  * are permitted provided that the following conditions are met:
  15:Middlewares/Third_Party/LwIP/src/core/timeouts.c ****  *
  16:Middlewares/Third_Party/LwIP/src/core/timeouts.c ****  * 1. Redistributions of source code must retain the above copyright notice,
  17:Middlewares/Third_Party/LwIP/src/core/timeouts.c ****  *    this list of conditions and the following disclaimer.
  18:Middlewares/Third_Party/LwIP/src/core/timeouts.c ****  * 2. Redistributions in binary form must reproduce the above copyright notice,
  19:Middlewares/Third_Party/LwIP/src/core/timeouts.c ****  *    this list of conditions and the following disclaimer in the documentation
  20:Middlewares/Third_Party/LwIP/src/core/timeouts.c ****  *    and/or other materials provided with the distribution.
  21:Middlewares/Third_Party/LwIP/src/core/timeouts.c ****  * 3. The name of the author may not be used to endorse or promote products
  22:Middlewares/Third_Party/LwIP/src/core/timeouts.c ****  *    derived from this software without specific prior written permission.
  23:Middlewares/Third_Party/LwIP/src/core/timeouts.c ****  *
  24:Middlewares/Third_Party/LwIP/src/core/timeouts.c ****  * THIS SOFTWARE IS PROVIDED BY THE AUTHOR ``AS IS'' AND ANY EXPRESS OR IMPLIED
  25:Middlewares/Third_Party/LwIP/src/core/timeouts.c ****  * WARRANTIES, INCLUDING, BUT NOT LIMITED TO, THE IMPLIED WARRANTIES OF
  26:Middlewares/Third_Party/LwIP/src/core/timeouts.c ****  * MERCHANTABILITY AND FITNESS FOR A PARTICULAR PURPOSE ARE DISCLAIMED. IN NO EVENT
  27:Middlewares/Third_Party/LwIP/src/core/timeouts.c ****  * SHALL THE AUTHOR BE LIABLE FOR ANY DIRECT, INDIRECT, INCIDENTAL, SPECIAL,
  28:Middlewares/Third_Party/LwIP/src/core/timeouts.c ****  * EXEMPLARY, OR CONSEQUENTIAL DAMAGES (INCLUDING, BUT NOT LIMITED TO, PROCUREMENT
  29:Middlewares/Third_Party/LwIP/src/core/timeouts.c ****  * OF SUBSTITUTE GOODS OR SERVICES; LOSS OF USE, DATA, OR PROFITS; OR BUSINESS
  30:Middlewares/Third_Party/LwIP/src/core/timeouts.c ****  * INTERRUPTION) HOWEVER CAUSED AND ON ANY THEORY OF LIABILITY, WHETHER IN
  31:Middlewares/Third_Party/LwIP/src/core/timeouts.c ****  * CONTRACT, STRICT LIABILITY, OR TORT (INCLUDING NEGLIGENCE OR OTHERWISE) ARISING
  32:Middlewares/Third_Party/LwIP/src/core/timeouts.c ****  * IN ANY WAY OUT OF THE USE OF THIS SOFTWARE, EVEN IF ADVISED OF THE POSSIBILITY
ARM GAS  C:\Users\Student\AppData\Local\Temp\ccN2YGSa.s 			page 2


  33:Middlewares/Third_Party/LwIP/src/core/timeouts.c ****  * OF SUCH DAMAGE.
  34:Middlewares/Third_Party/LwIP/src/core/timeouts.c ****  *
  35:Middlewares/Third_Party/LwIP/src/core/timeouts.c ****  * This file is part of the lwIP TCP/IP stack.
  36:Middlewares/Third_Party/LwIP/src/core/timeouts.c ****  *
  37:Middlewares/Third_Party/LwIP/src/core/timeouts.c ****  * Author: Adam Dunkels <adam@sics.se>
  38:Middlewares/Third_Party/LwIP/src/core/timeouts.c ****  *         Simon Goldschmidt
  39:Middlewares/Third_Party/LwIP/src/core/timeouts.c ****  *
  40:Middlewares/Third_Party/LwIP/src/core/timeouts.c ****  */
  41:Middlewares/Third_Party/LwIP/src/core/timeouts.c **** 
  42:Middlewares/Third_Party/LwIP/src/core/timeouts.c **** #include "lwip/opt.h"
  43:Middlewares/Third_Party/LwIP/src/core/timeouts.c **** 
  44:Middlewares/Third_Party/LwIP/src/core/timeouts.c **** #include "lwip/timeouts.h"
  45:Middlewares/Third_Party/LwIP/src/core/timeouts.c **** #include "lwip/priv/tcp_priv.h"
  46:Middlewares/Third_Party/LwIP/src/core/timeouts.c **** 
  47:Middlewares/Third_Party/LwIP/src/core/timeouts.c **** #include "lwip/def.h"
  48:Middlewares/Third_Party/LwIP/src/core/timeouts.c **** #include "lwip/memp.h"
  49:Middlewares/Third_Party/LwIP/src/core/timeouts.c **** #include "lwip/priv/tcpip_priv.h"
  50:Middlewares/Third_Party/LwIP/src/core/timeouts.c **** 
  51:Middlewares/Third_Party/LwIP/src/core/timeouts.c **** #include "lwip/ip4_frag.h"
  52:Middlewares/Third_Party/LwIP/src/core/timeouts.c **** #include "lwip/etharp.h"
  53:Middlewares/Third_Party/LwIP/src/core/timeouts.c **** #include "lwip/dhcp.h"
  54:Middlewares/Third_Party/LwIP/src/core/timeouts.c **** #include "lwip/autoip.h"
  55:Middlewares/Third_Party/LwIP/src/core/timeouts.c **** #include "lwip/igmp.h"
  56:Middlewares/Third_Party/LwIP/src/core/timeouts.c **** #include "lwip/dns.h"
  57:Middlewares/Third_Party/LwIP/src/core/timeouts.c **** #include "lwip/nd6.h"
  58:Middlewares/Third_Party/LwIP/src/core/timeouts.c **** #include "lwip/ip6_frag.h"
  59:Middlewares/Third_Party/LwIP/src/core/timeouts.c **** #include "lwip/mld6.h"
  60:Middlewares/Third_Party/LwIP/src/core/timeouts.c **** #include "lwip/sys.h"
  61:Middlewares/Third_Party/LwIP/src/core/timeouts.c **** #include "lwip/pbuf.h"
  62:Middlewares/Third_Party/LwIP/src/core/timeouts.c **** 
  63:Middlewares/Third_Party/LwIP/src/core/timeouts.c **** #if LWIP_DEBUG_TIMERNAMES
  64:Middlewares/Third_Party/LwIP/src/core/timeouts.c **** #define HANDLER(x) x, #x
  65:Middlewares/Third_Party/LwIP/src/core/timeouts.c **** #else /* LWIP_DEBUG_TIMERNAMES */
  66:Middlewares/Third_Party/LwIP/src/core/timeouts.c **** #define HANDLER(x) x
  67:Middlewares/Third_Party/LwIP/src/core/timeouts.c **** #endif /* LWIP_DEBUG_TIMERNAMES */
  68:Middlewares/Third_Party/LwIP/src/core/timeouts.c **** 
  69:Middlewares/Third_Party/LwIP/src/core/timeouts.c **** /** This array contains all stack-internal cyclic timers. To get the number of
  70:Middlewares/Third_Party/LwIP/src/core/timeouts.c ****  * timers, use LWIP_ARRAYSIZE() */
  71:Middlewares/Third_Party/LwIP/src/core/timeouts.c **** const struct lwip_cyclic_timer lwip_cyclic_timers[] = {
  72:Middlewares/Third_Party/LwIP/src/core/timeouts.c **** #if LWIP_TCP
  73:Middlewares/Third_Party/LwIP/src/core/timeouts.c ****   /* The TCP timer is a special case: it does not have to run always and
  74:Middlewares/Third_Party/LwIP/src/core/timeouts.c ****      is triggered to start from TCP using tcp_timer_needed() */
  75:Middlewares/Third_Party/LwIP/src/core/timeouts.c ****   {TCP_TMR_INTERVAL, HANDLER(tcp_tmr)},
  76:Middlewares/Third_Party/LwIP/src/core/timeouts.c **** #endif /* LWIP_TCP */
  77:Middlewares/Third_Party/LwIP/src/core/timeouts.c **** #if LWIP_IPV4
  78:Middlewares/Third_Party/LwIP/src/core/timeouts.c **** #if IP_REASSEMBLY
  79:Middlewares/Third_Party/LwIP/src/core/timeouts.c ****   {IP_TMR_INTERVAL, HANDLER(ip_reass_tmr)},
  80:Middlewares/Third_Party/LwIP/src/core/timeouts.c **** #endif /* IP_REASSEMBLY */
  81:Middlewares/Third_Party/LwIP/src/core/timeouts.c **** #if LWIP_ARP
  82:Middlewares/Third_Party/LwIP/src/core/timeouts.c ****   {ARP_TMR_INTERVAL, HANDLER(etharp_tmr)},
  83:Middlewares/Third_Party/LwIP/src/core/timeouts.c **** #endif /* LWIP_ARP */
  84:Middlewares/Third_Party/LwIP/src/core/timeouts.c **** #if LWIP_DHCP
  85:Middlewares/Third_Party/LwIP/src/core/timeouts.c ****   {DHCP_COARSE_TIMER_MSECS, HANDLER(dhcp_coarse_tmr)},
  86:Middlewares/Third_Party/LwIP/src/core/timeouts.c ****   {DHCP_FINE_TIMER_MSECS, HANDLER(dhcp_fine_tmr)},
  87:Middlewares/Third_Party/LwIP/src/core/timeouts.c **** #endif /* LWIP_DHCP */
  88:Middlewares/Third_Party/LwIP/src/core/timeouts.c **** #if LWIP_AUTOIP
  89:Middlewares/Third_Party/LwIP/src/core/timeouts.c ****   {AUTOIP_TMR_INTERVAL, HANDLER(autoip_tmr)},
ARM GAS  C:\Users\Student\AppData\Local\Temp\ccN2YGSa.s 			page 3


  90:Middlewares/Third_Party/LwIP/src/core/timeouts.c **** #endif /* LWIP_AUTOIP */
  91:Middlewares/Third_Party/LwIP/src/core/timeouts.c **** #if LWIP_IGMP
  92:Middlewares/Third_Party/LwIP/src/core/timeouts.c ****   {IGMP_TMR_INTERVAL, HANDLER(igmp_tmr)},
  93:Middlewares/Third_Party/LwIP/src/core/timeouts.c **** #endif /* LWIP_IGMP */
  94:Middlewares/Third_Party/LwIP/src/core/timeouts.c **** #endif /* LWIP_IPV4 */
  95:Middlewares/Third_Party/LwIP/src/core/timeouts.c **** #if LWIP_DNS
  96:Middlewares/Third_Party/LwIP/src/core/timeouts.c ****   {DNS_TMR_INTERVAL, HANDLER(dns_tmr)},
  97:Middlewares/Third_Party/LwIP/src/core/timeouts.c **** #endif /* LWIP_DNS */
  98:Middlewares/Third_Party/LwIP/src/core/timeouts.c **** #if LWIP_IPV6
  99:Middlewares/Third_Party/LwIP/src/core/timeouts.c ****   {ND6_TMR_INTERVAL, HANDLER(nd6_tmr)},
 100:Middlewares/Third_Party/LwIP/src/core/timeouts.c **** #if LWIP_IPV6_REASS
 101:Middlewares/Third_Party/LwIP/src/core/timeouts.c ****   {IP6_REASS_TMR_INTERVAL, HANDLER(ip6_reass_tmr)},
 102:Middlewares/Third_Party/LwIP/src/core/timeouts.c **** #endif /* LWIP_IPV6_REASS */
 103:Middlewares/Third_Party/LwIP/src/core/timeouts.c **** #if LWIP_IPV6_MLD
 104:Middlewares/Third_Party/LwIP/src/core/timeouts.c ****   {MLD6_TMR_INTERVAL, HANDLER(mld6_tmr)},
 105:Middlewares/Third_Party/LwIP/src/core/timeouts.c **** #endif /* LWIP_IPV6_MLD */
 106:Middlewares/Third_Party/LwIP/src/core/timeouts.c **** #endif /* LWIP_IPV6 */
 107:Middlewares/Third_Party/LwIP/src/core/timeouts.c **** };
 108:Middlewares/Third_Party/LwIP/src/core/timeouts.c **** 
 109:Middlewares/Third_Party/LwIP/src/core/timeouts.c **** #if LWIP_TIMERS && !LWIP_TIMERS_CUSTOM
 110:Middlewares/Third_Party/LwIP/src/core/timeouts.c **** 
 111:Middlewares/Third_Party/LwIP/src/core/timeouts.c **** /** The one and only timeout list */
 112:Middlewares/Third_Party/LwIP/src/core/timeouts.c **** static struct sys_timeo *next_timeout;
 113:Middlewares/Third_Party/LwIP/src/core/timeouts.c **** static u32_t timeouts_last_time;
 114:Middlewares/Third_Party/LwIP/src/core/timeouts.c **** 
 115:Middlewares/Third_Party/LwIP/src/core/timeouts.c **** #if LWIP_TCP
 116:Middlewares/Third_Party/LwIP/src/core/timeouts.c **** /** global variable that shows if the tcp timer is currently scheduled or not */
 117:Middlewares/Third_Party/LwIP/src/core/timeouts.c **** static int tcpip_tcp_timer_active;
 118:Middlewares/Third_Party/LwIP/src/core/timeouts.c **** 
 119:Middlewares/Third_Party/LwIP/src/core/timeouts.c **** /**
 120:Middlewares/Third_Party/LwIP/src/core/timeouts.c ****  * Timer callback function that calls tcp_tmr() and reschedules itself.
 121:Middlewares/Third_Party/LwIP/src/core/timeouts.c ****  *
 122:Middlewares/Third_Party/LwIP/src/core/timeouts.c ****  * @param arg unused argument
 123:Middlewares/Third_Party/LwIP/src/core/timeouts.c ****  */
 124:Middlewares/Third_Party/LwIP/src/core/timeouts.c **** static void
 125:Middlewares/Third_Party/LwIP/src/core/timeouts.c **** tcpip_tcp_timer(void *arg)
 126:Middlewares/Third_Party/LwIP/src/core/timeouts.c **** {
 127:Middlewares/Third_Party/LwIP/src/core/timeouts.c ****   LWIP_UNUSED_ARG(arg);
 128:Middlewares/Third_Party/LwIP/src/core/timeouts.c **** 
 129:Middlewares/Third_Party/LwIP/src/core/timeouts.c ****   /* call TCP timer handler */
 130:Middlewares/Third_Party/LwIP/src/core/timeouts.c ****   tcp_tmr();
 131:Middlewares/Third_Party/LwIP/src/core/timeouts.c ****   /* timer still needed? */
 132:Middlewares/Third_Party/LwIP/src/core/timeouts.c ****   if (tcp_active_pcbs || tcp_tw_pcbs) {
 133:Middlewares/Third_Party/LwIP/src/core/timeouts.c ****     /* restart timer */
 134:Middlewares/Third_Party/LwIP/src/core/timeouts.c ****     sys_timeout(TCP_TMR_INTERVAL, tcpip_tcp_timer, NULL);
 135:Middlewares/Third_Party/LwIP/src/core/timeouts.c ****   } else {
 136:Middlewares/Third_Party/LwIP/src/core/timeouts.c ****     /* disable timer */
 137:Middlewares/Third_Party/LwIP/src/core/timeouts.c ****     tcpip_tcp_timer_active = 0;
 138:Middlewares/Third_Party/LwIP/src/core/timeouts.c ****   }
 139:Middlewares/Third_Party/LwIP/src/core/timeouts.c **** }
 140:Middlewares/Third_Party/LwIP/src/core/timeouts.c **** 
 141:Middlewares/Third_Party/LwIP/src/core/timeouts.c **** /**
 142:Middlewares/Third_Party/LwIP/src/core/timeouts.c ****  * Called from TCP_REG when registering a new PCB:
 143:Middlewares/Third_Party/LwIP/src/core/timeouts.c ****  * the reason is to have the TCP timer only running when
 144:Middlewares/Third_Party/LwIP/src/core/timeouts.c ****  * there are active (or time-wait) PCBs.
 145:Middlewares/Third_Party/LwIP/src/core/timeouts.c ****  */
 146:Middlewares/Third_Party/LwIP/src/core/timeouts.c **** void
ARM GAS  C:\Users\Student\AppData\Local\Temp\ccN2YGSa.s 			page 4


 147:Middlewares/Third_Party/LwIP/src/core/timeouts.c **** tcp_timer_needed(void)
 148:Middlewares/Third_Party/LwIP/src/core/timeouts.c **** {
 149:Middlewares/Third_Party/LwIP/src/core/timeouts.c ****   /* timer is off but needed again? */
 150:Middlewares/Third_Party/LwIP/src/core/timeouts.c ****   if (!tcpip_tcp_timer_active && (tcp_active_pcbs || tcp_tw_pcbs)) {
 151:Middlewares/Third_Party/LwIP/src/core/timeouts.c ****     /* enable and start timer */
 152:Middlewares/Third_Party/LwIP/src/core/timeouts.c ****     tcpip_tcp_timer_active = 1;
 153:Middlewares/Third_Party/LwIP/src/core/timeouts.c ****     sys_timeout(TCP_TMR_INTERVAL, tcpip_tcp_timer, NULL);
 154:Middlewares/Third_Party/LwIP/src/core/timeouts.c ****   }
 155:Middlewares/Third_Party/LwIP/src/core/timeouts.c **** }
 156:Middlewares/Third_Party/LwIP/src/core/timeouts.c **** #endif /* LWIP_TCP */
 157:Middlewares/Third_Party/LwIP/src/core/timeouts.c **** 
 158:Middlewares/Third_Party/LwIP/src/core/timeouts.c **** /**
 159:Middlewares/Third_Party/LwIP/src/core/timeouts.c ****  * Timer callback function that calls mld6_tmr() and reschedules itself.
 160:Middlewares/Third_Party/LwIP/src/core/timeouts.c ****  *
 161:Middlewares/Third_Party/LwIP/src/core/timeouts.c ****  * @param arg unused argument
 162:Middlewares/Third_Party/LwIP/src/core/timeouts.c ****  */
 163:Middlewares/Third_Party/LwIP/src/core/timeouts.c **** static void
 164:Middlewares/Third_Party/LwIP/src/core/timeouts.c **** cyclic_timer(void *arg)
 165:Middlewares/Third_Party/LwIP/src/core/timeouts.c **** {
 166:Middlewares/Third_Party/LwIP/src/core/timeouts.c ****   const struct lwip_cyclic_timer* cyclic = (const struct lwip_cyclic_timer*)arg;
 167:Middlewares/Third_Party/LwIP/src/core/timeouts.c **** #if LWIP_DEBUG_TIMERNAMES
 168:Middlewares/Third_Party/LwIP/src/core/timeouts.c ****   LWIP_DEBUGF(TIMERS_DEBUG, ("tcpip: %s()\n", cyclic->handler_name));
 169:Middlewares/Third_Party/LwIP/src/core/timeouts.c **** #endif
 170:Middlewares/Third_Party/LwIP/src/core/timeouts.c ****   cyclic->handler();
 171:Middlewares/Third_Party/LwIP/src/core/timeouts.c ****   sys_timeout(cyclic->interval_ms, cyclic_timer, arg);
 172:Middlewares/Third_Party/LwIP/src/core/timeouts.c **** }
 173:Middlewares/Third_Party/LwIP/src/core/timeouts.c **** 
 174:Middlewares/Third_Party/LwIP/src/core/timeouts.c **** /** Initialize this module */
 175:Middlewares/Third_Party/LwIP/src/core/timeouts.c **** void sys_timeouts_init(void)
 176:Middlewares/Third_Party/LwIP/src/core/timeouts.c **** {
 177:Middlewares/Third_Party/LwIP/src/core/timeouts.c ****   size_t i;
 178:Middlewares/Third_Party/LwIP/src/core/timeouts.c ****   /* tcp_tmr() at index 0 is started on demand */
 179:Middlewares/Third_Party/LwIP/src/core/timeouts.c ****   for (i = (LWIP_TCP ? 1 : 0); i < LWIP_ARRAYSIZE(lwip_cyclic_timers); i++) {
 180:Middlewares/Third_Party/LwIP/src/core/timeouts.c ****     /* we have to cast via size_t to get rid of const warning
 181:Middlewares/Third_Party/LwIP/src/core/timeouts.c ****       (this is OK as cyclic_timer() casts back to const* */
 182:Middlewares/Third_Party/LwIP/src/core/timeouts.c ****     sys_timeout(lwip_cyclic_timers[i].interval_ms, cyclic_timer, LWIP_CONST_CAST(void*, &lwip_cycli
 183:Middlewares/Third_Party/LwIP/src/core/timeouts.c ****   }
 184:Middlewares/Third_Party/LwIP/src/core/timeouts.c **** 
 185:Middlewares/Third_Party/LwIP/src/core/timeouts.c ****   /* Initialise timestamp for sys_check_timeouts */
 186:Middlewares/Third_Party/LwIP/src/core/timeouts.c ****   timeouts_last_time = sys_now();
 187:Middlewares/Third_Party/LwIP/src/core/timeouts.c **** }
 188:Middlewares/Third_Party/LwIP/src/core/timeouts.c **** 
 189:Middlewares/Third_Party/LwIP/src/core/timeouts.c **** /**
 190:Middlewares/Third_Party/LwIP/src/core/timeouts.c ****  * Create a one-shot timer (aka timeout). Timeouts are processed in the
 191:Middlewares/Third_Party/LwIP/src/core/timeouts.c ****  * following cases:
 192:Middlewares/Third_Party/LwIP/src/core/timeouts.c ****  * - while waiting for a message using sys_timeouts_mbox_fetch()
 193:Middlewares/Third_Party/LwIP/src/core/timeouts.c ****  * - by calling sys_check_timeouts() (NO_SYS==1 only)
 194:Middlewares/Third_Party/LwIP/src/core/timeouts.c ****  *
 195:Middlewares/Third_Party/LwIP/src/core/timeouts.c ****  * @param msecs time in milliseconds after that the timer should expire
 196:Middlewares/Third_Party/LwIP/src/core/timeouts.c ****  * @param handler callback function to call when msecs have elapsed
 197:Middlewares/Third_Party/LwIP/src/core/timeouts.c ****  * @param arg argument to pass to the callback function
 198:Middlewares/Third_Party/LwIP/src/core/timeouts.c ****  */
 199:Middlewares/Third_Party/LwIP/src/core/timeouts.c **** #if LWIP_DEBUG_TIMERNAMES
 200:Middlewares/Third_Party/LwIP/src/core/timeouts.c **** void
 201:Middlewares/Third_Party/LwIP/src/core/timeouts.c **** sys_timeout_debug(u32_t msecs, sys_timeout_handler handler, void *arg, const char* handler_name)
 202:Middlewares/Third_Party/LwIP/src/core/timeouts.c **** #else /* LWIP_DEBUG_TIMERNAMES */
 203:Middlewares/Third_Party/LwIP/src/core/timeouts.c **** void
ARM GAS  C:\Users\Student\AppData\Local\Temp\ccN2YGSa.s 			page 5


 204:Middlewares/Third_Party/LwIP/src/core/timeouts.c **** sys_timeout(u32_t msecs, sys_timeout_handler handler, void *arg)
 205:Middlewares/Third_Party/LwIP/src/core/timeouts.c **** #endif /* LWIP_DEBUG_TIMERNAMES */
 206:Middlewares/Third_Party/LwIP/src/core/timeouts.c **** {
 207:Middlewares/Third_Party/LwIP/src/core/timeouts.c ****   struct sys_timeo *timeout, *t;
 208:Middlewares/Third_Party/LwIP/src/core/timeouts.c ****   u32_t now, diff;
 209:Middlewares/Third_Party/LwIP/src/core/timeouts.c **** 
 210:Middlewares/Third_Party/LwIP/src/core/timeouts.c ****   timeout = (struct sys_timeo *)memp_malloc(MEMP_SYS_TIMEOUT);
 211:Middlewares/Third_Party/LwIP/src/core/timeouts.c ****   if (timeout == NULL) {
 212:Middlewares/Third_Party/LwIP/src/core/timeouts.c ****     LWIP_ASSERT("sys_timeout: timeout != NULL, pool MEMP_SYS_TIMEOUT is empty", timeout != NULL);
 213:Middlewares/Third_Party/LwIP/src/core/timeouts.c ****     return;
 214:Middlewares/Third_Party/LwIP/src/core/timeouts.c ****   }
 215:Middlewares/Third_Party/LwIP/src/core/timeouts.c **** 
 216:Middlewares/Third_Party/LwIP/src/core/timeouts.c ****   now = sys_now();
 217:Middlewares/Third_Party/LwIP/src/core/timeouts.c ****   if (next_timeout == NULL) {
 218:Middlewares/Third_Party/LwIP/src/core/timeouts.c ****     diff = 0;
 219:Middlewares/Third_Party/LwIP/src/core/timeouts.c ****     timeouts_last_time = now;
 220:Middlewares/Third_Party/LwIP/src/core/timeouts.c ****   } else {
 221:Middlewares/Third_Party/LwIP/src/core/timeouts.c ****     diff = now - timeouts_last_time;
 222:Middlewares/Third_Party/LwIP/src/core/timeouts.c ****   }
 223:Middlewares/Third_Party/LwIP/src/core/timeouts.c **** 
 224:Middlewares/Third_Party/LwIP/src/core/timeouts.c ****   timeout->next = NULL;
 225:Middlewares/Third_Party/LwIP/src/core/timeouts.c ****   timeout->h = handler;
 226:Middlewares/Third_Party/LwIP/src/core/timeouts.c ****   timeout->arg = arg;
 227:Middlewares/Third_Party/LwIP/src/core/timeouts.c ****   timeout->time = msecs + diff;
 228:Middlewares/Third_Party/LwIP/src/core/timeouts.c **** #if LWIP_DEBUG_TIMERNAMES
 229:Middlewares/Third_Party/LwIP/src/core/timeouts.c ****   timeout->handler_name = handler_name;
 230:Middlewares/Third_Party/LwIP/src/core/timeouts.c ****   LWIP_DEBUGF(TIMERS_DEBUG, ("sys_timeout: %p msecs=%"U32_F" handler=%s arg=%p\n",
 231:Middlewares/Third_Party/LwIP/src/core/timeouts.c ****     (void *)timeout, msecs, handler_name, (void *)arg));
 232:Middlewares/Third_Party/LwIP/src/core/timeouts.c **** #endif /* LWIP_DEBUG_TIMERNAMES */
 233:Middlewares/Third_Party/LwIP/src/core/timeouts.c **** 
 234:Middlewares/Third_Party/LwIP/src/core/timeouts.c ****   if (next_timeout == NULL) {
 235:Middlewares/Third_Party/LwIP/src/core/timeouts.c ****     next_timeout = timeout;
 236:Middlewares/Third_Party/LwIP/src/core/timeouts.c ****     return;
 237:Middlewares/Third_Party/LwIP/src/core/timeouts.c ****   }
 238:Middlewares/Third_Party/LwIP/src/core/timeouts.c **** 
 239:Middlewares/Third_Party/LwIP/src/core/timeouts.c ****   if (next_timeout->time > msecs) {
 240:Middlewares/Third_Party/LwIP/src/core/timeouts.c ****     next_timeout->time -= msecs;
 241:Middlewares/Third_Party/LwIP/src/core/timeouts.c ****     timeout->next = next_timeout;
 242:Middlewares/Third_Party/LwIP/src/core/timeouts.c ****     next_timeout = timeout;
 243:Middlewares/Third_Party/LwIP/src/core/timeouts.c ****   } else {
 244:Middlewares/Third_Party/LwIP/src/core/timeouts.c ****     for (t = next_timeout; t != NULL; t = t->next) {
 245:Middlewares/Third_Party/LwIP/src/core/timeouts.c ****       timeout->time -= t->time;
 246:Middlewares/Third_Party/LwIP/src/core/timeouts.c ****       if (t->next == NULL || t->next->time > timeout->time) {
 247:Middlewares/Third_Party/LwIP/src/core/timeouts.c ****         if (t->next != NULL) {
 248:Middlewares/Third_Party/LwIP/src/core/timeouts.c ****           t->next->time -= timeout->time;
 249:Middlewares/Third_Party/LwIP/src/core/timeouts.c ****         } else if (timeout->time > msecs) {
 250:Middlewares/Third_Party/LwIP/src/core/timeouts.c ****           /* If this is the case, 'timeouts_last_time' and 'now' differs too much.
 251:Middlewares/Third_Party/LwIP/src/core/timeouts.c ****              This can be due to sys_check_timeouts() not being called at the right
 252:Middlewares/Third_Party/LwIP/src/core/timeouts.c ****              times, but also when stopping in a breakpoint. Anyway, let's assume
 253:Middlewares/Third_Party/LwIP/src/core/timeouts.c ****              this is not wanted, so add the first timer's time instead of 'diff' */
 254:Middlewares/Third_Party/LwIP/src/core/timeouts.c ****           timeout->time = msecs + next_timeout->time;
 255:Middlewares/Third_Party/LwIP/src/core/timeouts.c ****         }
 256:Middlewares/Third_Party/LwIP/src/core/timeouts.c ****         timeout->next = t->next;
 257:Middlewares/Third_Party/LwIP/src/core/timeouts.c ****         t->next = timeout;
 258:Middlewares/Third_Party/LwIP/src/core/timeouts.c ****         break;
 259:Middlewares/Third_Party/LwIP/src/core/timeouts.c ****       }
 260:Middlewares/Third_Party/LwIP/src/core/timeouts.c ****     }
ARM GAS  C:\Users\Student\AppData\Local\Temp\ccN2YGSa.s 			page 6


 261:Middlewares/Third_Party/LwIP/src/core/timeouts.c ****   }
 262:Middlewares/Third_Party/LwIP/src/core/timeouts.c **** }
 263:Middlewares/Third_Party/LwIP/src/core/timeouts.c **** 
 264:Middlewares/Third_Party/LwIP/src/core/timeouts.c **** /**
 265:Middlewares/Third_Party/LwIP/src/core/timeouts.c ****  * Go through timeout list (for this task only) and remove the first matching
 266:Middlewares/Third_Party/LwIP/src/core/timeouts.c ****  * entry (subsequent entries remain untouched), even though the timeout has not
 267:Middlewares/Third_Party/LwIP/src/core/timeouts.c ****  * triggered yet.
 268:Middlewares/Third_Party/LwIP/src/core/timeouts.c ****  *
 269:Middlewares/Third_Party/LwIP/src/core/timeouts.c ****  * @param handler callback function that would be called by the timeout
 270:Middlewares/Third_Party/LwIP/src/core/timeouts.c ****  * @param arg callback argument that would be passed to handler
 271:Middlewares/Third_Party/LwIP/src/core/timeouts.c **** */
 272:Middlewares/Third_Party/LwIP/src/core/timeouts.c **** void
 273:Middlewares/Third_Party/LwIP/src/core/timeouts.c **** sys_untimeout(sys_timeout_handler handler, void *arg)
 274:Middlewares/Third_Party/LwIP/src/core/timeouts.c **** {
 275:Middlewares/Third_Party/LwIP/src/core/timeouts.c ****   struct sys_timeo *prev_t, *t;
 276:Middlewares/Third_Party/LwIP/src/core/timeouts.c **** 
 277:Middlewares/Third_Party/LwIP/src/core/timeouts.c ****   if (next_timeout == NULL) {
 278:Middlewares/Third_Party/LwIP/src/core/timeouts.c ****     return;
 279:Middlewares/Third_Party/LwIP/src/core/timeouts.c ****   }
 280:Middlewares/Third_Party/LwIP/src/core/timeouts.c **** 
 281:Middlewares/Third_Party/LwIP/src/core/timeouts.c ****   for (t = next_timeout, prev_t = NULL; t != NULL; prev_t = t, t = t->next) {
 282:Middlewares/Third_Party/LwIP/src/core/timeouts.c ****     if ((t->h == handler) && (t->arg == arg)) {
 283:Middlewares/Third_Party/LwIP/src/core/timeouts.c ****       /* We have a match */
 284:Middlewares/Third_Party/LwIP/src/core/timeouts.c ****       /* Unlink from previous in list */
 285:Middlewares/Third_Party/LwIP/src/core/timeouts.c ****       if (prev_t == NULL) {
 286:Middlewares/Third_Party/LwIP/src/core/timeouts.c ****         next_timeout = t->next;
 287:Middlewares/Third_Party/LwIP/src/core/timeouts.c ****       } else {
 288:Middlewares/Third_Party/LwIP/src/core/timeouts.c ****         prev_t->next = t->next;
 289:Middlewares/Third_Party/LwIP/src/core/timeouts.c ****       }
 290:Middlewares/Third_Party/LwIP/src/core/timeouts.c ****       /* If not the last one, add time of this one back to next */
 291:Middlewares/Third_Party/LwIP/src/core/timeouts.c ****       if (t->next != NULL) {
 292:Middlewares/Third_Party/LwIP/src/core/timeouts.c ****         t->next->time += t->time;
 293:Middlewares/Third_Party/LwIP/src/core/timeouts.c ****       }
 294:Middlewares/Third_Party/LwIP/src/core/timeouts.c ****       memp_free(MEMP_SYS_TIMEOUT, t);
 295:Middlewares/Third_Party/LwIP/src/core/timeouts.c ****       return;
 296:Middlewares/Third_Party/LwIP/src/core/timeouts.c ****     }
 297:Middlewares/Third_Party/LwIP/src/core/timeouts.c ****   }
 298:Middlewares/Third_Party/LwIP/src/core/timeouts.c ****   return;
 299:Middlewares/Third_Party/LwIP/src/core/timeouts.c **** }
 300:Middlewares/Third_Party/LwIP/src/core/timeouts.c **** 
 301:Middlewares/Third_Party/LwIP/src/core/timeouts.c **** /**
 302:Middlewares/Third_Party/LwIP/src/core/timeouts.c ****  * @ingroup lwip_nosys
 303:Middlewares/Third_Party/LwIP/src/core/timeouts.c ****  * Handle timeouts for NO_SYS==1 (i.e. without using
 304:Middlewares/Third_Party/LwIP/src/core/timeouts.c ****  * tcpip_thread/sys_timeouts_mbox_fetch(). Uses sys_now() to call timeout
 305:Middlewares/Third_Party/LwIP/src/core/timeouts.c ****  * handler functions when timeouts expire.
 306:Middlewares/Third_Party/LwIP/src/core/timeouts.c ****  *
 307:Middlewares/Third_Party/LwIP/src/core/timeouts.c ****  * Must be called periodically from your main loop.
 308:Middlewares/Third_Party/LwIP/src/core/timeouts.c ****  */
 309:Middlewares/Third_Party/LwIP/src/core/timeouts.c **** #if !NO_SYS && !defined __DOXYGEN__
 310:Middlewares/Third_Party/LwIP/src/core/timeouts.c **** static
 311:Middlewares/Third_Party/LwIP/src/core/timeouts.c **** #endif /* !NO_SYS */
 312:Middlewares/Third_Party/LwIP/src/core/timeouts.c **** void
 313:Middlewares/Third_Party/LwIP/src/core/timeouts.c **** sys_check_timeouts(void)
 314:Middlewares/Third_Party/LwIP/src/core/timeouts.c **** {
 315:Middlewares/Third_Party/LwIP/src/core/timeouts.c ****   if (next_timeout) {
 316:Middlewares/Third_Party/LwIP/src/core/timeouts.c ****     struct sys_timeo *tmptimeout;
 317:Middlewares/Third_Party/LwIP/src/core/timeouts.c ****     u32_t diff;
ARM GAS  C:\Users\Student\AppData\Local\Temp\ccN2YGSa.s 			page 7


 318:Middlewares/Third_Party/LwIP/src/core/timeouts.c ****     sys_timeout_handler handler;
 319:Middlewares/Third_Party/LwIP/src/core/timeouts.c ****     void *arg;
 320:Middlewares/Third_Party/LwIP/src/core/timeouts.c ****     u8_t had_one;
 321:Middlewares/Third_Party/LwIP/src/core/timeouts.c ****     u32_t now;
 322:Middlewares/Third_Party/LwIP/src/core/timeouts.c **** 
 323:Middlewares/Third_Party/LwIP/src/core/timeouts.c ****     now = sys_now();
 324:Middlewares/Third_Party/LwIP/src/core/timeouts.c ****     /* this cares for wraparounds */
 325:Middlewares/Third_Party/LwIP/src/core/timeouts.c ****     diff = now - timeouts_last_time;
 326:Middlewares/Third_Party/LwIP/src/core/timeouts.c ****     do {
 327:Middlewares/Third_Party/LwIP/src/core/timeouts.c ****       PBUF_CHECK_FREE_OOSEQ();
 328:Middlewares/Third_Party/LwIP/src/core/timeouts.c ****       had_one = 0;
 329:Middlewares/Third_Party/LwIP/src/core/timeouts.c ****       tmptimeout = next_timeout;
 330:Middlewares/Third_Party/LwIP/src/core/timeouts.c ****       if (tmptimeout && (tmptimeout->time <= diff)) {
 331:Middlewares/Third_Party/LwIP/src/core/timeouts.c ****         /* timeout has expired */
 332:Middlewares/Third_Party/LwIP/src/core/timeouts.c ****         had_one = 1;
 333:Middlewares/Third_Party/LwIP/src/core/timeouts.c ****         timeouts_last_time += tmptimeout->time;
 334:Middlewares/Third_Party/LwIP/src/core/timeouts.c ****         diff -= tmptimeout->time;
 335:Middlewares/Third_Party/LwIP/src/core/timeouts.c ****         next_timeout = tmptimeout->next;
 336:Middlewares/Third_Party/LwIP/src/core/timeouts.c ****         handler = tmptimeout->h;
 337:Middlewares/Third_Party/LwIP/src/core/timeouts.c ****         arg = tmptimeout->arg;
 338:Middlewares/Third_Party/LwIP/src/core/timeouts.c **** #if LWIP_DEBUG_TIMERNAMES
 339:Middlewares/Third_Party/LwIP/src/core/timeouts.c ****         if (handler != NULL) {
 340:Middlewares/Third_Party/LwIP/src/core/timeouts.c ****           LWIP_DEBUGF(TIMERS_DEBUG, ("sct calling h=%s arg=%p\n",
 341:Middlewares/Third_Party/LwIP/src/core/timeouts.c ****             tmptimeout->handler_name, arg));
 342:Middlewares/Third_Party/LwIP/src/core/timeouts.c ****         }
 343:Middlewares/Third_Party/LwIP/src/core/timeouts.c **** #endif /* LWIP_DEBUG_TIMERNAMES */
 344:Middlewares/Third_Party/LwIP/src/core/timeouts.c ****         memp_free(MEMP_SYS_TIMEOUT, tmptimeout);
 345:Middlewares/Third_Party/LwIP/src/core/timeouts.c ****         if (handler != NULL) {
 346:Middlewares/Third_Party/LwIP/src/core/timeouts.c **** #if !NO_SYS
 347:Middlewares/Third_Party/LwIP/src/core/timeouts.c ****           /* For LWIP_TCPIP_CORE_LOCKING, lock the core before calling the
 348:Middlewares/Third_Party/LwIP/src/core/timeouts.c ****              timeout handler function. */
 349:Middlewares/Third_Party/LwIP/src/core/timeouts.c ****           LOCK_TCPIP_CORE();
 350:Middlewares/Third_Party/LwIP/src/core/timeouts.c **** #endif /* !NO_SYS */
 351:Middlewares/Third_Party/LwIP/src/core/timeouts.c ****           handler(arg);
 352:Middlewares/Third_Party/LwIP/src/core/timeouts.c **** #if !NO_SYS
 353:Middlewares/Third_Party/LwIP/src/core/timeouts.c ****           UNLOCK_TCPIP_CORE();
 354:Middlewares/Third_Party/LwIP/src/core/timeouts.c **** #endif /* !NO_SYS */
 355:Middlewares/Third_Party/LwIP/src/core/timeouts.c ****         }
 356:Middlewares/Third_Party/LwIP/src/core/timeouts.c ****         LWIP_TCPIP_THREAD_ALIVE();
 357:Middlewares/Third_Party/LwIP/src/core/timeouts.c ****       }
 358:Middlewares/Third_Party/LwIP/src/core/timeouts.c ****     /* repeat until all expired timers have been called */
 359:Middlewares/Third_Party/LwIP/src/core/timeouts.c ****     } while (had_one);
 360:Middlewares/Third_Party/LwIP/src/core/timeouts.c ****   }
 361:Middlewares/Third_Party/LwIP/src/core/timeouts.c **** }
 362:Middlewares/Third_Party/LwIP/src/core/timeouts.c **** 
 363:Middlewares/Third_Party/LwIP/src/core/timeouts.c **** /** Set back the timestamp of the last call to sys_check_timeouts()
 364:Middlewares/Third_Party/LwIP/src/core/timeouts.c ****  * This is necessary if sys_check_timeouts() hasn't been called for a long
 365:Middlewares/Third_Party/LwIP/src/core/timeouts.c ****  * time (e.g. while saving energy) to prevent all timer functions of that
 366:Middlewares/Third_Party/LwIP/src/core/timeouts.c ****  * period being called.
 367:Middlewares/Third_Party/LwIP/src/core/timeouts.c ****  */
 368:Middlewares/Third_Party/LwIP/src/core/timeouts.c **** void
 369:Middlewares/Third_Party/LwIP/src/core/timeouts.c **** sys_restart_timeouts(void)
 370:Middlewares/Third_Party/LwIP/src/core/timeouts.c **** {
 371:Middlewares/Third_Party/LwIP/src/core/timeouts.c ****   timeouts_last_time = sys_now();
 372:Middlewares/Third_Party/LwIP/src/core/timeouts.c **** }
 373:Middlewares/Third_Party/LwIP/src/core/timeouts.c **** 
 374:Middlewares/Third_Party/LwIP/src/core/timeouts.c **** /** Return the time left before the next timeout is due. If no timeouts are
ARM GAS  C:\Users\Student\AppData\Local\Temp\ccN2YGSa.s 			page 8


 375:Middlewares/Third_Party/LwIP/src/core/timeouts.c ****  * enqueued, returns 0xffffffff
 376:Middlewares/Third_Party/LwIP/src/core/timeouts.c ****  */
 377:Middlewares/Third_Party/LwIP/src/core/timeouts.c **** #if !NO_SYS
 378:Middlewares/Third_Party/LwIP/src/core/timeouts.c **** static
 379:Middlewares/Third_Party/LwIP/src/core/timeouts.c **** #endif /* !NO_SYS */
 380:Middlewares/Third_Party/LwIP/src/core/timeouts.c **** u32_t
 381:Middlewares/Third_Party/LwIP/src/core/timeouts.c **** sys_timeouts_sleeptime(void)
 382:Middlewares/Third_Party/LwIP/src/core/timeouts.c **** {
  27              		.loc 1 382 0
  28              		.cfi_startproc
  29              		@ args = 0, pretend = 0, frame = 0
  30              		@ frame_needed = 0, uses_anonymous_args = 0
  31 0000 08B5     		push	{r3, lr}
  32              	.LCFI0:
  33              		.cfi_def_cfa_offset 8
  34              		.cfi_offset 3, -8
  35              		.cfi_offset 14, -4
 383:Middlewares/Third_Party/LwIP/src/core/timeouts.c ****   u32_t diff;
 384:Middlewares/Third_Party/LwIP/src/core/timeouts.c ****   if (next_timeout == NULL) {
  36              		.loc 1 384 0
  37 0002 0A4B     		ldr	r3, .L6
  38 0004 1B68     		ldr	r3, [r3]
  39 0006 5BB1     		cbz	r3, .L3
 385:Middlewares/Third_Party/LwIP/src/core/timeouts.c ****     return 0xffffffff;
 386:Middlewares/Third_Party/LwIP/src/core/timeouts.c ****   }
 387:Middlewares/Third_Party/LwIP/src/core/timeouts.c ****   diff = sys_now() - timeouts_last_time;
  40              		.loc 1 387 0
  41 0008 FFF7FEFF 		bl	sys_now
  42              	.LVL0:
  43 000c 084B     		ldr	r3, .L6+4
  44 000e 1B68     		ldr	r3, [r3]
  45 0010 C01A     		subs	r0, r0, r3
  46              	.LVL1:
 388:Middlewares/Third_Party/LwIP/src/core/timeouts.c ****   if (diff > next_timeout->time) {
  47              		.loc 1 388 0
  48 0012 064B     		ldr	r3, .L6
  49 0014 1B68     		ldr	r3, [r3]
  50 0016 5B68     		ldr	r3, [r3, #4]
  51 0018 9842     		cmp	r0, r3
  52 001a 04D8     		bhi	.L4
 389:Middlewares/Third_Party/LwIP/src/core/timeouts.c ****     return 0;
 390:Middlewares/Third_Party/LwIP/src/core/timeouts.c ****   } else {
 391:Middlewares/Third_Party/LwIP/src/core/timeouts.c ****     return next_timeout->time - diff;
  53              		.loc 1 391 0
  54 001c 181A     		subs	r0, r3, r0
  55              	.LVL2:
  56 001e 08BD     		pop	{r3, pc}
  57              	.L3:
 385:Middlewares/Third_Party/LwIP/src/core/timeouts.c ****   }
  58              		.loc 1 385 0
  59 0020 4FF0FF30 		mov	r0, #-1
  60 0024 08BD     		pop	{r3, pc}
  61              	.LVL3:
  62              	.L4:
 389:Middlewares/Third_Party/LwIP/src/core/timeouts.c ****     return 0;
  63              		.loc 1 389 0
  64 0026 0020     		movs	r0, #0
ARM GAS  C:\Users\Student\AppData\Local\Temp\ccN2YGSa.s 			page 9


  65              	.LVL4:
 392:Middlewares/Third_Party/LwIP/src/core/timeouts.c ****   }
 393:Middlewares/Third_Party/LwIP/src/core/timeouts.c **** }
  66              		.loc 1 393 0
  67 0028 08BD     		pop	{r3, pc}
  68              	.L7:
  69 002a 00BF     		.align	2
  70              	.L6:
  71 002c 00000000 		.word	.LANCHOR0
  72 0030 00000000 		.word	.LANCHOR1
  73              		.cfi_endproc
  74              	.LFE165:
  76              		.section	.text.sys_check_timeouts,"ax",%progbits
  77              		.align	1
  78              		.syntax unified
  79              		.thumb
  80              		.thumb_func
  81              		.fpu fpv5-sp-d16
  83              	sys_check_timeouts:
  84              	.LFB163:
 314:Middlewares/Third_Party/LwIP/src/core/timeouts.c ****   if (next_timeout) {
  85              		.loc 1 314 0
  86              		.cfi_startproc
  87              		@ args = 0, pretend = 0, frame = 0
  88              		@ frame_needed = 0, uses_anonymous_args = 0
  89 0000 F8B5     		push	{r3, r4, r5, r6, r7, lr}
  90              	.LCFI1:
  91              		.cfi_def_cfa_offset 24
  92              		.cfi_offset 3, -24
  93              		.cfi_offset 4, -20
  94              		.cfi_offset 5, -16
  95              		.cfi_offset 6, -12
  96              		.cfi_offset 7, -8
  97              		.cfi_offset 14, -4
 315:Middlewares/Third_Party/LwIP/src/core/timeouts.c ****     struct sys_timeo *tmptimeout;
  98              		.loc 1 315 0
  99 0002 184B     		ldr	r3, .L16
 100 0004 1B68     		ldr	r3, [r3]
 101 0006 63B3     		cbz	r3, .L8
 102              	.LBB2:
 323:Middlewares/Third_Party/LwIP/src/core/timeouts.c ****     /* this cares for wraparounds */
 103              		.loc 1 323 0
 104 0008 FFF7FEFF 		bl	sys_now
 105              	.LVL5:
 325:Middlewares/Third_Party/LwIP/src/core/timeouts.c ****     do {
 106              		.loc 1 325 0
 107 000c 164B     		ldr	r3, .L16+4
 108 000e 1C68     		ldr	r4, [r3]
 109 0010 041B     		subs	r4, r0, r4
 110              	.LVL6:
 111 0012 05E0     		b	.L11
 112              	.LVL7:
 113              	.L12:
 328:Middlewares/Third_Party/LwIP/src/core/timeouts.c ****       tmptimeout = next_timeout;
 114              		.loc 1 328 0
 115 0014 0023     		movs	r3, #0
 116 0016 02E0     		b	.L10
ARM GAS  C:\Users\Student\AppData\Local\Temp\ccN2YGSa.s 			page 10


 117              	.L13:
 118 0018 0023     		movs	r3, #0
 119 001a 00E0     		b	.L10
 120              	.LVL8:
 121              	.L14:
 332:Middlewares/Third_Party/LwIP/src/core/timeouts.c ****         timeouts_last_time += tmptimeout->time;
 122              		.loc 1 332 0
 123 001c 0123     		movs	r3, #1
 124              	.LVL9:
 125              	.L10:
 359:Middlewares/Third_Party/LwIP/src/core/timeouts.c ****   }
 126              		.loc 1 359 0
 127 001e 03B3     		cbz	r3, .L8
 128              	.LVL10:
 129              	.L11:
 329:Middlewares/Third_Party/LwIP/src/core/timeouts.c ****       if (tmptimeout && (tmptimeout->time <= diff)) {
 130              		.loc 1 329 0
 131 0020 104B     		ldr	r3, .L16
 132 0022 1968     		ldr	r1, [r3]
 133              	.LVL11:
 330:Middlewares/Third_Party/LwIP/src/core/timeouts.c ****         /* timeout has expired */
 134              		.loc 1 330 0
 135 0024 0029     		cmp	r1, #0
 136 0026 F5D0     		beq	.L12
 330:Middlewares/Third_Party/LwIP/src/core/timeouts.c ****         /* timeout has expired */
 137              		.loc 1 330 0 is_stmt 0 discriminator 1
 138 0028 4B68     		ldr	r3, [r1, #4]
 139 002a 9C42     		cmp	r4, r3
 140 002c F4D3     		bcc	.L13
 141              	.LVL12:
 333:Middlewares/Third_Party/LwIP/src/core/timeouts.c ****         diff -= tmptimeout->time;
 142              		.loc 1 333 0 is_stmt 1
 143 002e 0E48     		ldr	r0, .L16+4
 144 0030 0268     		ldr	r2, [r0]
 145 0032 1A44     		add	r2, r2, r3
 146 0034 0260     		str	r2, [r0]
 334:Middlewares/Third_Party/LwIP/src/core/timeouts.c ****         next_timeout = tmptimeout->next;
 147              		.loc 1 334 0
 148 0036 E41A     		subs	r4, r4, r3
 149              	.LVL13:
 335:Middlewares/Third_Party/LwIP/src/core/timeouts.c ****         handler = tmptimeout->h;
 150              		.loc 1 335 0
 151 0038 0A68     		ldr	r2, [r1]
 152 003a 0A4B     		ldr	r3, .L16
 153 003c 1A60     		str	r2, [r3]
 336:Middlewares/Third_Party/LwIP/src/core/timeouts.c ****         arg = tmptimeout->arg;
 154              		.loc 1 336 0
 155 003e 8D68     		ldr	r5, [r1, #8]
 156              	.LVL14:
 337:Middlewares/Third_Party/LwIP/src/core/timeouts.c **** #if LWIP_DEBUG_TIMERNAMES
 157              		.loc 1 337 0
 158 0040 CF68     		ldr	r7, [r1, #12]
 159              	.LVL15:
 344:Middlewares/Third_Party/LwIP/src/core/timeouts.c ****         if (handler != NULL) {
 160              		.loc 1 344 0
 161 0042 0A20     		movs	r0, #10
 162 0044 FFF7FEFF 		bl	memp_free
ARM GAS  C:\Users\Student\AppData\Local\Temp\ccN2YGSa.s 			page 11


 163              	.LVL16:
 345:Middlewares/Third_Party/LwIP/src/core/timeouts.c **** #if !NO_SYS
 164              		.loc 1 345 0
 165 0048 002D     		cmp	r5, #0
 166 004a E7D0     		beq	.L14
 349:Middlewares/Third_Party/LwIP/src/core/timeouts.c **** #endif /* !NO_SYS */
 167              		.loc 1 349 0
 168 004c 074E     		ldr	r6, .L16+8
 169 004e 3046     		mov	r0, r6
 170 0050 FFF7FEFF 		bl	sys_mutex_lock
 171              	.LVL17:
 351:Middlewares/Third_Party/LwIP/src/core/timeouts.c **** #if !NO_SYS
 172              		.loc 1 351 0
 173 0054 3846     		mov	r0, r7
 174 0056 A847     		blx	r5
 175              	.LVL18:
 353:Middlewares/Third_Party/LwIP/src/core/timeouts.c **** #endif /* !NO_SYS */
 176              		.loc 1 353 0
 177 0058 3046     		mov	r0, r6
 178 005a FFF7FEFF 		bl	sys_mutex_unlock
 179              	.LVL19:
 332:Middlewares/Third_Party/LwIP/src/core/timeouts.c ****         timeouts_last_time += tmptimeout->time;
 180              		.loc 1 332 0
 181 005e 0123     		movs	r3, #1
 182 0060 DDE7     		b	.L10
 183              	.LVL20:
 184              	.L8:
 185 0062 F8BD     		pop	{r3, r4, r5, r6, r7, pc}
 186              	.L17:
 187              		.align	2
 188              	.L16:
 189 0064 00000000 		.word	.LANCHOR0
 190 0068 00000000 		.word	.LANCHOR1
 191 006c 00000000 		.word	lock_tcpip_core
 192              	.LBE2:
 193              		.cfi_endproc
 194              	.LFE163:
 196              		.section	.text.sys_timeout,"ax",%progbits
 197              		.align	1
 198              		.global	sys_timeout
 199              		.syntax unified
 200              		.thumb
 201              		.thumb_func
 202              		.fpu fpv5-sp-d16
 204              	sys_timeout:
 205              	.LFB161:
 206:Middlewares/Third_Party/LwIP/src/core/timeouts.c ****   struct sys_timeo *timeout, *t;
 206              		.loc 1 206 0
 207              		.cfi_startproc
 208              		@ args = 0, pretend = 0, frame = 0
 209              		@ frame_needed = 0, uses_anonymous_args = 0
 210              	.LVL21:
 211 0000 2DE9F041 		push	{r4, r5, r6, r7, r8, lr}
 212              	.LCFI2:
 213              		.cfi_def_cfa_offset 24
 214              		.cfi_offset 4, -24
 215              		.cfi_offset 5, -20
ARM GAS  C:\Users\Student\AppData\Local\Temp\ccN2YGSa.s 			page 12


 216              		.cfi_offset 6, -16
 217              		.cfi_offset 7, -12
 218              		.cfi_offset 8, -8
 219              		.cfi_offset 14, -4
 220 0004 0546     		mov	r5, r0
 221 0006 8846     		mov	r8, r1
 222 0008 1746     		mov	r7, r2
 210:Middlewares/Third_Party/LwIP/src/core/timeouts.c ****   if (timeout == NULL) {
 223              		.loc 1 210 0
 224 000a 0A20     		movs	r0, #10
 225              	.LVL22:
 226 000c FFF7FEFF 		bl	memp_malloc
 227              	.LVL23:
 211:Middlewares/Third_Party/LwIP/src/core/timeouts.c ****     LWIP_ASSERT("sys_timeout: timeout != NULL, pool MEMP_SYS_TIMEOUT is empty", timeout != NULL);
 228              		.loc 1 211 0
 229 0010 08B3     		cbz	r0, .L32
 230 0012 0446     		mov	r4, r0
 216:Middlewares/Third_Party/LwIP/src/core/timeouts.c ****   if (next_timeout == NULL) {
 231              		.loc 1 216 0
 232 0014 FFF7FEFF 		bl	sys_now
 233              	.LVL24:
 217:Middlewares/Third_Party/LwIP/src/core/timeouts.c ****     diff = 0;
 234              		.loc 1 217 0
 235 0018 234B     		ldr	r3, .L37
 236 001a 1E68     		ldr	r6, [r3]
 237 001c 1EB3     		cbz	r6, .L33
 221:Middlewares/Third_Party/LwIP/src/core/timeouts.c ****   }
 238              		.loc 1 221 0
 239 001e 234B     		ldr	r3, .L37+4
 240 0020 1B68     		ldr	r3, [r3]
 241 0022 C01A     		subs	r0, r0, r3
 242              	.LVL25:
 243              	.L22:
 224:Middlewares/Third_Party/LwIP/src/core/timeouts.c ****   timeout->h = handler;
 244              		.loc 1 224 0
 245 0024 0023     		movs	r3, #0
 246 0026 2360     		str	r3, [r4]
 225:Middlewares/Third_Party/LwIP/src/core/timeouts.c ****   timeout->arg = arg;
 247              		.loc 1 225 0
 248 0028 C4F80880 		str	r8, [r4, #8]
 226:Middlewares/Third_Party/LwIP/src/core/timeouts.c ****   timeout->time = msecs + diff;
 249              		.loc 1 226 0
 250 002c E760     		str	r7, [r4, #12]
 227:Middlewares/Third_Party/LwIP/src/core/timeouts.c **** #if LWIP_DEBUG_TIMERNAMES
 251              		.loc 1 227 0
 252 002e 2844     		add	r0, r0, r5
 253              	.LVL26:
 254 0030 6060     		str	r0, [r4, #4]
 234:Middlewares/Third_Party/LwIP/src/core/timeouts.c ****     next_timeout = timeout;
 255              		.loc 1 234 0
 256 0032 E6B1     		cbz	r6, .L34
 239:Middlewares/Third_Party/LwIP/src/core/timeouts.c ****     next_timeout->time -= msecs;
 257              		.loc 1 239 0
 258 0034 7368     		ldr	r3, [r6, #4]
 259 0036 9D42     		cmp	r5, r3
 260 0038 1DD3     		bcc	.L35
 261 003a 3246     		mov	r2, r6
ARM GAS  C:\Users\Student\AppData\Local\Temp\ccN2YGSa.s 			page 13


 262              	.L24:
 263              	.LVL27:
 244:Middlewares/Third_Party/LwIP/src/core/timeouts.c ****       timeout->time -= t->time;
 264              		.loc 1 244 0 discriminator 1
 265 003c 002A     		cmp	r2, #0
 266 003e 30D0     		beq	.L36
 245:Middlewares/Third_Party/LwIP/src/core/timeouts.c ****       if (t->next == NULL || t->next->time > timeout->time) {
 267              		.loc 1 245 0
 268 0040 5168     		ldr	r1, [r2, #4]
 269 0042 6368     		ldr	r3, [r4, #4]
 270 0044 5B1A     		subs	r3, r3, r1
 271 0046 6360     		str	r3, [r4, #4]
 246:Middlewares/Third_Party/LwIP/src/core/timeouts.c ****         if (t->next != NULL) {
 272              		.loc 1 246 0
 273 0048 1168     		ldr	r1, [r2]
 274 004a D9B1     		cbz	r1, .L25
 246:Middlewares/Third_Party/LwIP/src/core/timeouts.c ****         if (t->next != NULL) {
 275              		.loc 1 246 0 is_stmt 0 discriminator 1
 276 004c 4868     		ldr	r0, [r1, #4]
 277 004e 8342     		cmp	r3, r0
 278 0050 18D3     		bcc	.L25
 244:Middlewares/Third_Party/LwIP/src/core/timeouts.c ****       timeout->time -= t->time;
 279              		.loc 1 244 0 is_stmt 1
 280 0052 0A46     		mov	r2, r1
 281              	.LVL28:
 282 0054 F2E7     		b	.L24
 283              	.LVL29:
 284              	.L32:
 212:Middlewares/Third_Party/LwIP/src/core/timeouts.c ****     return;
 285              		.loc 1 212 0 discriminator 1
 286 0056 164B     		ldr	r3, .L37+8
 287 0058 D422     		movs	r2, #212
 288 005a 1649     		ldr	r1, .L37+12
 289 005c 1648     		ldr	r0, .L37+16
 290              	.LVL30:
 291 005e FFF7FEFF 		bl	printf
 292              	.LVL31:
 293 0062 BDE8F081 		pop	{r4, r5, r6, r7, r8, pc}
 294              	.LVL32:
 295              	.L33:
 219:Middlewares/Third_Party/LwIP/src/core/timeouts.c ****   } else {
 296              		.loc 1 219 0
 297 0066 114B     		ldr	r3, .L37+4
 298 0068 1860     		str	r0, [r3]
 218:Middlewares/Third_Party/LwIP/src/core/timeouts.c ****     timeouts_last_time = now;
 299              		.loc 1 218 0
 300 006a 0020     		movs	r0, #0
 301              	.LVL33:
 302 006c DAE7     		b	.L22
 303              	.LVL34:
 304              	.L34:
 235:Middlewares/Third_Party/LwIP/src/core/timeouts.c ****     return;
 305              		.loc 1 235 0
 306 006e 0E4B     		ldr	r3, .L37
 307 0070 1C60     		str	r4, [r3]
 236:Middlewares/Third_Party/LwIP/src/core/timeouts.c ****   }
 308              		.loc 1 236 0
ARM GAS  C:\Users\Student\AppData\Local\Temp\ccN2YGSa.s 			page 14


 309 0072 BDE8F081 		pop	{r4, r5, r6, r7, r8, pc}
 310              	.LVL35:
 311              	.L35:
 240:Middlewares/Third_Party/LwIP/src/core/timeouts.c ****     timeout->next = next_timeout;
 312              		.loc 1 240 0
 313 0076 5D1B     		subs	r5, r3, r5
 314              	.LVL36:
 315 0078 7560     		str	r5, [r6, #4]
 241:Middlewares/Third_Party/LwIP/src/core/timeouts.c ****     next_timeout = timeout;
 316              		.loc 1 241 0
 317 007a 2660     		str	r6, [r4]
 242:Middlewares/Third_Party/LwIP/src/core/timeouts.c ****   } else {
 318              		.loc 1 242 0
 319 007c 0A4B     		ldr	r3, .L37
 320 007e 1C60     		str	r4, [r3]
 321 0080 BDE8F081 		pop	{r4, r5, r6, r7, r8, pc}
 322              	.LVL37:
 323              	.L25:
 247:Middlewares/Third_Party/LwIP/src/core/timeouts.c ****           t->next->time -= timeout->time;
 324              		.loc 1 247 0
 325 0084 39B1     		cbz	r1, .L26
 248:Middlewares/Third_Party/LwIP/src/core/timeouts.c ****         } else if (timeout->time > msecs) {
 326              		.loc 1 248 0
 327 0086 4868     		ldr	r0, [r1, #4]
 328 0088 C31A     		subs	r3, r0, r3
 329 008a 4B60     		str	r3, [r1, #4]
 330              	.LVL38:
 331              	.L27:
 256:Middlewares/Third_Party/LwIP/src/core/timeouts.c ****         t->next = timeout;
 332              		.loc 1 256 0
 333 008c 1368     		ldr	r3, [r2]
 334 008e 2360     		str	r3, [r4]
 257:Middlewares/Third_Party/LwIP/src/core/timeouts.c ****         break;
 335              		.loc 1 257 0
 336 0090 1460     		str	r4, [r2]
 258:Middlewares/Third_Party/LwIP/src/core/timeouts.c ****       }
 337              		.loc 1 258 0
 338 0092 BDE8F081 		pop	{r4, r5, r6, r7, r8, pc}
 339              	.LVL39:
 340              	.L26:
 249:Middlewares/Third_Party/LwIP/src/core/timeouts.c ****           /* If this is the case, 'timeouts_last_time' and 'now' differs too much.
 341              		.loc 1 249 0
 342 0096 9D42     		cmp	r5, r3
 343 0098 F8D2     		bcs	.L27
 254:Middlewares/Third_Party/LwIP/src/core/timeouts.c ****         }
 344              		.loc 1 254 0
 345 009a 7368     		ldr	r3, [r6, #4]
 346 009c 1D44     		add	r5, r5, r3
 347              	.LVL40:
 348 009e 6560     		str	r5, [r4, #4]
 349 00a0 F4E7     		b	.L27
 350              	.LVL41:
 351              	.L36:
 352 00a2 BDE8F081 		pop	{r4, r5, r6, r7, r8, pc}
 353              	.LVL42:
 354              	.L38:
 355 00a6 00BF     		.align	2
ARM GAS  C:\Users\Student\AppData\Local\Temp\ccN2YGSa.s 			page 15


 356              	.L37:
 357 00a8 00000000 		.word	.LANCHOR0
 358 00ac 00000000 		.word	.LANCHOR1
 359 00b0 00000000 		.word	.LC0
 360 00b4 34000000 		.word	.LC1
 361 00b8 74000000 		.word	.LC2
 362              		.cfi_endproc
 363              	.LFE161:
 365              		.section	.text.tcp_timer_needed,"ax",%progbits
 366              		.align	1
 367              		.global	tcp_timer_needed
 368              		.syntax unified
 369              		.thumb
 370              		.thumb_func
 371              		.fpu fpv5-sp-d16
 373              	tcp_timer_needed:
 374              	.LFB158:
 148:Middlewares/Third_Party/LwIP/src/core/timeouts.c ****   /* timer is off but needed again? */
 375              		.loc 1 148 0
 376              		.cfi_startproc
 377              		@ args = 0, pretend = 0, frame = 0
 378              		@ frame_needed = 0, uses_anonymous_args = 0
 379 0000 08B5     		push	{r3, lr}
 380              	.LCFI3:
 381              		.cfi_def_cfa_offset 8
 382              		.cfi_offset 3, -8
 383              		.cfi_offset 14, -4
 150:Middlewares/Third_Party/LwIP/src/core/timeouts.c ****     /* enable and start timer */
 384              		.loc 1 150 0
 385 0002 0A4B     		ldr	r3, .L44
 386 0004 1B68     		ldr	r3, [r3]
 387 0006 53B9     		cbnz	r3, .L39
 150:Middlewares/Third_Party/LwIP/src/core/timeouts.c ****     /* enable and start timer */
 388              		.loc 1 150 0 is_stmt 0 discriminator 1
 389 0008 094B     		ldr	r3, .L44+4
 390 000a 1B68     		ldr	r3, [r3]
 391 000c 43B1     		cbz	r3, .L43
 392              	.L41:
 152:Middlewares/Third_Party/LwIP/src/core/timeouts.c ****     sys_timeout(TCP_TMR_INTERVAL, tcpip_tcp_timer, NULL);
 393              		.loc 1 152 0 is_stmt 1
 394 000e 0122     		movs	r2, #1
 395 0010 064B     		ldr	r3, .L44
 396 0012 1A60     		str	r2, [r3]
 153:Middlewares/Third_Party/LwIP/src/core/timeouts.c ****   }
 397              		.loc 1 153 0
 398 0014 0022     		movs	r2, #0
 399 0016 0749     		ldr	r1, .L44+8
 400 0018 FA20     		movs	r0, #250
 401 001a FFF7FEFF 		bl	sys_timeout
 402              	.LVL43:
 403              	.L39:
 404 001e 08BD     		pop	{r3, pc}
 405              	.L43:
 150:Middlewares/Third_Party/LwIP/src/core/timeouts.c ****     /* enable and start timer */
 406              		.loc 1 150 0 discriminator 2
 407 0020 054B     		ldr	r3, .L44+12
 408 0022 1B68     		ldr	r3, [r3]
ARM GAS  C:\Users\Student\AppData\Local\Temp\ccN2YGSa.s 			page 16


 409 0024 002B     		cmp	r3, #0
 410 0026 F2D1     		bne	.L41
 411 0028 F9E7     		b	.L39
 412              	.L45:
 413 002a 00BF     		.align	2
 414              	.L44:
 415 002c 00000000 		.word	.LANCHOR2
 416 0030 00000000 		.word	tcp_active_pcbs
 417 0034 00000000 		.word	tcpip_tcp_timer
 418 0038 00000000 		.word	tcp_tw_pcbs
 419              		.cfi_endproc
 420              	.LFE158:
 422              		.section	.text.tcpip_tcp_timer,"ax",%progbits
 423              		.align	1
 424              		.syntax unified
 425              		.thumb
 426              		.thumb_func
 427              		.fpu fpv5-sp-d16
 429              	tcpip_tcp_timer:
 430              	.LFB157:
 126:Middlewares/Third_Party/LwIP/src/core/timeouts.c ****   LWIP_UNUSED_ARG(arg);
 431              		.loc 1 126 0
 432              		.cfi_startproc
 433              		@ args = 0, pretend = 0, frame = 0
 434              		@ frame_needed = 0, uses_anonymous_args = 0
 435              	.LVL44:
 436 0000 08B5     		push	{r3, lr}
 437              	.LCFI4:
 438              		.cfi_def_cfa_offset 8
 439              		.cfi_offset 3, -8
 440              		.cfi_offset 14, -4
 130:Middlewares/Third_Party/LwIP/src/core/timeouts.c ****   /* timer still needed? */
 441              		.loc 1 130 0
 442 0002 FFF7FEFF 		bl	tcp_tmr
 443              	.LVL45:
 132:Middlewares/Third_Party/LwIP/src/core/timeouts.c ****     /* restart timer */
 444              		.loc 1 132 0
 445 0006 084B     		ldr	r3, .L52
 446 0008 1B68     		ldr	r3, [r3]
 447 000a 2BB1     		cbz	r3, .L51
 448              	.L47:
 134:Middlewares/Third_Party/LwIP/src/core/timeouts.c ****   } else {
 449              		.loc 1 134 0
 450 000c 0022     		movs	r2, #0
 451 000e 0749     		ldr	r1, .L52+4
 452 0010 FA20     		movs	r0, #250
 453 0012 FFF7FEFF 		bl	sys_timeout
 454              	.LVL46:
 455 0016 08BD     		pop	{r3, pc}
 456              	.L51:
 132:Middlewares/Third_Party/LwIP/src/core/timeouts.c ****     /* restart timer */
 457              		.loc 1 132 0 discriminator 1
 458 0018 054B     		ldr	r3, .L52+8
 459 001a 1B68     		ldr	r3, [r3]
 460 001c 002B     		cmp	r3, #0
 461 001e F5D1     		bne	.L47
 137:Middlewares/Third_Party/LwIP/src/core/timeouts.c ****   }
ARM GAS  C:\Users\Student\AppData\Local\Temp\ccN2YGSa.s 			page 17


 462              		.loc 1 137 0
 463 0020 0022     		movs	r2, #0
 464 0022 044B     		ldr	r3, .L52+12
 465 0024 1A60     		str	r2, [r3]
 466 0026 08BD     		pop	{r3, pc}
 467              	.L53:
 468              		.align	2
 469              	.L52:
 470 0028 00000000 		.word	tcp_active_pcbs
 471 002c 00000000 		.word	tcpip_tcp_timer
 472 0030 00000000 		.word	tcp_tw_pcbs
 473 0034 00000000 		.word	.LANCHOR2
 474              		.cfi_endproc
 475              	.LFE157:
 477              		.section	.text.sys_timeouts_init,"ax",%progbits
 478              		.align	1
 479              		.global	sys_timeouts_init
 480              		.syntax unified
 481              		.thumb
 482              		.thumb_func
 483              		.fpu fpv5-sp-d16
 485              	sys_timeouts_init:
 486              	.LFB160:
 176:Middlewares/Third_Party/LwIP/src/core/timeouts.c ****   size_t i;
 487              		.loc 1 176 0
 488              		.cfi_startproc
 489              		@ args = 0, pretend = 0, frame = 0
 490              		@ frame_needed = 0, uses_anonymous_args = 0
 491 0000 10B5     		push	{r4, lr}
 492              	.LCFI5:
 493              		.cfi_def_cfa_offset 8
 494              		.cfi_offset 4, -8
 495              		.cfi_offset 14, -4
 496              	.LVL47:
 179:Middlewares/Third_Party/LwIP/src/core/timeouts.c ****     /* we have to cast via size_t to get rid of const warning
 497              		.loc 1 179 0
 498 0002 0124     		movs	r4, #1
 499 0004 08E0     		b	.L55
 500              	.LVL48:
 501              	.L56:
 182:Middlewares/Third_Party/LwIP/src/core/timeouts.c ****   }
 502              		.loc 1 182 0 discriminator 3
 503 0006 084B     		ldr	r3, .L58
 504 0008 03EBC402 		add	r2, r3, r4, lsl #3
 505 000c 0749     		ldr	r1, .L58+4
 506 000e 53F83400 		ldr	r0, [r3, r4, lsl #3]
 507 0012 FFF7FEFF 		bl	sys_timeout
 508              	.LVL49:
 179:Middlewares/Third_Party/LwIP/src/core/timeouts.c ****     /* we have to cast via size_t to get rid of const warning
 509              		.loc 1 179 0 discriminator 3
 510 0016 0134     		adds	r4, r4, #1
 511              	.LVL50:
 512              	.L55:
 179:Middlewares/Third_Party/LwIP/src/core/timeouts.c ****     /* we have to cast via size_t to get rid of const warning
 513              		.loc 1 179 0 is_stmt 0 discriminator 1
 514 0018 052C     		cmp	r4, #5
 515 001a F4D9     		bls	.L56
ARM GAS  C:\Users\Student\AppData\Local\Temp\ccN2YGSa.s 			page 18


 186:Middlewares/Third_Party/LwIP/src/core/timeouts.c **** }
 516              		.loc 1 186 0 is_stmt 1
 517 001c FFF7FEFF 		bl	sys_now
 518              	.LVL51:
 519 0020 034B     		ldr	r3, .L58+8
 520 0022 1860     		str	r0, [r3]
 521 0024 10BD     		pop	{r4, pc}
 522              	.LVL52:
 523              	.L59:
 524 0026 00BF     		.align	2
 525              	.L58:
 526 0028 00000000 		.word	.LANCHOR3
 527 002c 00000000 		.word	cyclic_timer
 528 0030 00000000 		.word	.LANCHOR1
 529              		.cfi_endproc
 530              	.LFE160:
 532              		.section	.text.cyclic_timer,"ax",%progbits
 533              		.align	1
 534              		.syntax unified
 535              		.thumb
 536              		.thumb_func
 537              		.fpu fpv5-sp-d16
 539              	cyclic_timer:
 540              	.LFB159:
 165:Middlewares/Third_Party/LwIP/src/core/timeouts.c ****   const struct lwip_cyclic_timer* cyclic = (const struct lwip_cyclic_timer*)arg;
 541              		.loc 1 165 0
 542              		.cfi_startproc
 543              		@ args = 0, pretend = 0, frame = 0
 544              		@ frame_needed = 0, uses_anonymous_args = 0
 545              	.LVL53:
 546 0000 10B5     		push	{r4, lr}
 547              	.LCFI6:
 548              		.cfi_def_cfa_offset 8
 549              		.cfi_offset 4, -8
 550              		.cfi_offset 14, -4
 551 0002 0446     		mov	r4, r0
 552              	.LVL54:
 170:Middlewares/Third_Party/LwIP/src/core/timeouts.c ****   sys_timeout(cyclic->interval_ms, cyclic_timer, arg);
 553              		.loc 1 170 0
 554 0004 4368     		ldr	r3, [r0, #4]
 555 0006 9847     		blx	r3
 556              	.LVL55:
 171:Middlewares/Third_Party/LwIP/src/core/timeouts.c **** }
 557              		.loc 1 171 0
 558 0008 2246     		mov	r2, r4
 559 000a 0249     		ldr	r1, .L62
 560 000c 2068     		ldr	r0, [r4]
 561 000e FFF7FEFF 		bl	sys_timeout
 562              	.LVL56:
 563 0012 10BD     		pop	{r4, pc}
 564              	.LVL57:
 565              	.L63:
 566              		.align	2
 567              	.L62:
 568 0014 00000000 		.word	cyclic_timer
 569              		.cfi_endproc
 570              	.LFE159:
ARM GAS  C:\Users\Student\AppData\Local\Temp\ccN2YGSa.s 			page 19


 572              		.section	.text.sys_untimeout,"ax",%progbits
 573              		.align	1
 574              		.global	sys_untimeout
 575              		.syntax unified
 576              		.thumb
 577              		.thumb_func
 578              		.fpu fpv5-sp-d16
 580              	sys_untimeout:
 581              	.LFB162:
 274:Middlewares/Third_Party/LwIP/src/core/timeouts.c ****   struct sys_timeo *prev_t, *t;
 582              		.loc 1 274 0
 583              		.cfi_startproc
 584              		@ args = 0, pretend = 0, frame = 0
 585              		@ frame_needed = 0, uses_anonymous_args = 0
 586              	.LVL58:
 277:Middlewares/Third_Party/LwIP/src/core/timeouts.c ****     return;
 587              		.loc 1 277 0
 588 0000 114B     		ldr	r3, .L78
 589 0002 1B68     		ldr	r3, [r3]
 590 0004 FBB1     		cbz	r3, .L73
 274:Middlewares/Third_Party/LwIP/src/core/timeouts.c ****   struct sys_timeo *prev_t, *t;
 591              		.loc 1 274 0
 592 0006 10B5     		push	{r4, lr}
 593              	.LCFI7:
 594              		.cfi_def_cfa_offset 8
 595              		.cfi_offset 4, -8
 596              		.cfi_offset 14, -4
 597 0008 0024     		movs	r4, #0
 598 000a 05E0     		b	.L66
 599              	.LVL59:
 600              	.L77:
 286:Middlewares/Third_Party/LwIP/src/core/timeouts.c ****       } else {
 601              		.loc 1 286 0
 602 000c 1968     		ldr	r1, [r3]
 603              	.LVL60:
 604 000e 0E4A     		ldr	r2, .L78
 605 0010 1160     		str	r1, [r2]
 606 0012 0CE0     		b	.L69
 607              	.LVL61:
 608              	.L67:
 281:Middlewares/Third_Party/LwIP/src/core/timeouts.c ****     if ((t->h == handler) && (t->arg == arg)) {
 609              		.loc 1 281 0 discriminator 2
 610 0014 1C46     		mov	r4, r3
 611 0016 1B68     		ldr	r3, [r3]
 612              	.LVL62:
 613              	.L66:
 281:Middlewares/Third_Party/LwIP/src/core/timeouts.c ****     if ((t->h == handler) && (t->arg == arg)) {
 614              		.loc 1 281 0 is_stmt 0 discriminator 1
 615 0018 A3B1     		cbz	r3, .L76
 282:Middlewares/Third_Party/LwIP/src/core/timeouts.c ****       /* We have a match */
 616              		.loc 1 282 0 is_stmt 1
 617 001a 9A68     		ldr	r2, [r3, #8]
 618 001c 8242     		cmp	r2, r0
 619 001e F9D1     		bne	.L67
 282:Middlewares/Third_Party/LwIP/src/core/timeouts.c ****       /* We have a match */
 620              		.loc 1 282 0 is_stmt 0 discriminator 1
 621 0020 DA68     		ldr	r2, [r3, #12]
ARM GAS  C:\Users\Student\AppData\Local\Temp\ccN2YGSa.s 			page 20


 622 0022 8A42     		cmp	r2, r1
 623 0024 F6D1     		bne	.L67
 285:Middlewares/Third_Party/LwIP/src/core/timeouts.c ****         next_timeout = t->next;
 624              		.loc 1 285 0 is_stmt 1
 625 0026 002C     		cmp	r4, #0
 626 0028 F0D0     		beq	.L77
 288:Middlewares/Third_Party/LwIP/src/core/timeouts.c ****       }
 627              		.loc 1 288 0
 628 002a 1A68     		ldr	r2, [r3]
 629 002c 2260     		str	r2, [r4]
 630              	.LVL63:
 631              	.L69:
 291:Middlewares/Third_Party/LwIP/src/core/timeouts.c ****         t->next->time += t->time;
 632              		.loc 1 291 0
 633 002e 1A68     		ldr	r2, [r3]
 634 0030 1AB1     		cbz	r2, .L70
 292:Middlewares/Third_Party/LwIP/src/core/timeouts.c ****       }
 635              		.loc 1 292 0
 636 0032 5868     		ldr	r0, [r3, #4]
 637              	.LVL64:
 638 0034 5168     		ldr	r1, [r2, #4]
 639 0036 0144     		add	r1, r1, r0
 640 0038 5160     		str	r1, [r2, #4]
 641              	.L70:
 294:Middlewares/Third_Party/LwIP/src/core/timeouts.c ****       return;
 642              		.loc 1 294 0
 643 003a 1946     		mov	r1, r3
 644 003c 0A20     		movs	r0, #10
 645 003e FFF7FEFF 		bl	memp_free
 646              	.LVL65:
 295:Middlewares/Third_Party/LwIP/src/core/timeouts.c ****     }
 647              		.loc 1 295 0
 648 0042 10BD     		pop	{r4, pc}
 649              	.LVL66:
 650              	.L76:
 651 0044 10BD     		pop	{r4, pc}
 652              	.LVL67:
 653              	.L73:
 654              	.LCFI8:
 655              		.cfi_def_cfa_offset 0
 656              		.cfi_restore 4
 657              		.cfi_restore 14
 658 0046 7047     		bx	lr
 659              	.L79:
 660              		.align	2
 661              	.L78:
 662 0048 00000000 		.word	.LANCHOR0
 663              		.cfi_endproc
 664              	.LFE162:
 666              		.section	.text.sys_restart_timeouts,"ax",%progbits
 667              		.align	1
 668              		.global	sys_restart_timeouts
 669              		.syntax unified
 670              		.thumb
 671              		.thumb_func
 672              		.fpu fpv5-sp-d16
 674              	sys_restart_timeouts:
ARM GAS  C:\Users\Student\AppData\Local\Temp\ccN2YGSa.s 			page 21


 675              	.LFB164:
 370:Middlewares/Third_Party/LwIP/src/core/timeouts.c ****   timeouts_last_time = sys_now();
 676              		.loc 1 370 0
 677              		.cfi_startproc
 678              		@ args = 0, pretend = 0, frame = 0
 679              		@ frame_needed = 0, uses_anonymous_args = 0
 680 0000 08B5     		push	{r3, lr}
 681              	.LCFI9:
 682              		.cfi_def_cfa_offset 8
 683              		.cfi_offset 3, -8
 684              		.cfi_offset 14, -4
 371:Middlewares/Third_Party/LwIP/src/core/timeouts.c **** }
 685              		.loc 1 371 0
 686 0002 FFF7FEFF 		bl	sys_now
 687              	.LVL68:
 688 0006 014B     		ldr	r3, .L82
 689 0008 1860     		str	r0, [r3]
 690 000a 08BD     		pop	{r3, pc}
 691              	.L83:
 692              		.align	2
 693              	.L82:
 694 000c 00000000 		.word	.LANCHOR1
 695              		.cfi_endproc
 696              	.LFE164:
 698              		.section	.text.sys_timeouts_mbox_fetch,"ax",%progbits
 699              		.align	1
 700              		.global	sys_timeouts_mbox_fetch
 701              		.syntax unified
 702              		.thumb
 703              		.thumb_func
 704              		.fpu fpv5-sp-d16
 706              	sys_timeouts_mbox_fetch:
 707              	.LFB166:
 394:Middlewares/Third_Party/LwIP/src/core/timeouts.c **** 
 395:Middlewares/Third_Party/LwIP/src/core/timeouts.c **** #if !NO_SYS
 396:Middlewares/Third_Party/LwIP/src/core/timeouts.c **** 
 397:Middlewares/Third_Party/LwIP/src/core/timeouts.c **** /**
 398:Middlewares/Third_Party/LwIP/src/core/timeouts.c ****  * Wait (forever) for a message to arrive in an mbox.
 399:Middlewares/Third_Party/LwIP/src/core/timeouts.c ****  * While waiting, timeouts are processed.
 400:Middlewares/Third_Party/LwIP/src/core/timeouts.c ****  *
 401:Middlewares/Third_Party/LwIP/src/core/timeouts.c ****  * @param mbox the mbox to fetch the message from
 402:Middlewares/Third_Party/LwIP/src/core/timeouts.c ****  * @param msg the place to store the message
 403:Middlewares/Third_Party/LwIP/src/core/timeouts.c ****  */
 404:Middlewares/Third_Party/LwIP/src/core/timeouts.c **** void
 405:Middlewares/Third_Party/LwIP/src/core/timeouts.c **** sys_timeouts_mbox_fetch(sys_mbox_t *mbox, void **msg)
 406:Middlewares/Third_Party/LwIP/src/core/timeouts.c **** {
 708              		.loc 1 406 0
 709              		.cfi_startproc
 710              		@ args = 0, pretend = 0, frame = 0
 711              		@ frame_needed = 0, uses_anonymous_args = 0
 712              	.LVL69:
 713 0000 38B5     		push	{r3, r4, r5, lr}
 714              	.LCFI10:
 715              		.cfi_def_cfa_offset 16
 716              		.cfi_offset 3, -16
 717              		.cfi_offset 4, -12
 718              		.cfi_offset 5, -8
ARM GAS  C:\Users\Student\AppData\Local\Temp\ccN2YGSa.s 			page 22


 719              		.cfi_offset 14, -4
 720 0002 0446     		mov	r4, r0
 721 0004 0D46     		mov	r5, r1
 722 0006 07E0     		b	.L89
 723              	.LVL70:
 724              	.L91:
 407:Middlewares/Third_Party/LwIP/src/core/timeouts.c ****   u32_t sleeptime;
 408:Middlewares/Third_Party/LwIP/src/core/timeouts.c **** 
 409:Middlewares/Third_Party/LwIP/src/core/timeouts.c **** again:
 410:Middlewares/Third_Party/LwIP/src/core/timeouts.c ****   if (!next_timeout) {
 411:Middlewares/Third_Party/LwIP/src/core/timeouts.c ****     sys_arch_mbox_fetch(mbox, msg, 0);
 725              		.loc 1 411 0
 726 0008 0022     		movs	r2, #0
 727 000a 2946     		mov	r1, r5
 728 000c 2046     		mov	r0, r4
 729 000e FFF7FEFF 		bl	sys_arch_mbox_fetch
 730              	.LVL71:
 412:Middlewares/Third_Party/LwIP/src/core/timeouts.c ****     return;
 731              		.loc 1 412 0
 732 0012 38BD     		pop	{r3, r4, r5, pc}
 733              	.LVL72:
 734              	.L88:
 413:Middlewares/Third_Party/LwIP/src/core/timeouts.c ****   }
 414:Middlewares/Third_Party/LwIP/src/core/timeouts.c **** 
 415:Middlewares/Third_Party/LwIP/src/core/timeouts.c ****   sleeptime = sys_timeouts_sleeptime();
 416:Middlewares/Third_Party/LwIP/src/core/timeouts.c ****   if (sleeptime == 0 || sys_arch_mbox_fetch(mbox, msg, sleeptime) == SYS_ARCH_TIMEOUT) {
 417:Middlewares/Third_Party/LwIP/src/core/timeouts.c ****     /* If a SYS_ARCH_TIMEOUT value is returned, a timeout occurred
 418:Middlewares/Third_Party/LwIP/src/core/timeouts.c ****        before a message could be fetched. */
 419:Middlewares/Third_Party/LwIP/src/core/timeouts.c ****     sys_check_timeouts();
 735              		.loc 1 419 0
 736 0014 FFF7FEFF 		bl	sys_check_timeouts
 737              	.LVL73:
 738              	.L85:
 739              	.L89:
 410:Middlewares/Third_Party/LwIP/src/core/timeouts.c ****     sys_arch_mbox_fetch(mbox, msg, 0);
 740              		.loc 1 410 0
 741 0018 084B     		ldr	r3, .L92
 742 001a 1B68     		ldr	r3, [r3]
 743 001c 002B     		cmp	r3, #0
 744 001e F3D0     		beq	.L91
 415:Middlewares/Third_Party/LwIP/src/core/timeouts.c ****   if (sleeptime == 0 || sys_arch_mbox_fetch(mbox, msg, sleeptime) == SYS_ARCH_TIMEOUT) {
 745              		.loc 1 415 0
 746 0020 FFF7FEFF 		bl	sys_timeouts_sleeptime
 747              	.LVL74:
 416:Middlewares/Third_Party/LwIP/src/core/timeouts.c ****     /* If a SYS_ARCH_TIMEOUT value is returned, a timeout occurred
 748              		.loc 1 416 0
 749 0024 0246     		mov	r2, r0
 750 0026 0028     		cmp	r0, #0
 751 0028 F4D0     		beq	.L88
 416:Middlewares/Third_Party/LwIP/src/core/timeouts.c ****     /* If a SYS_ARCH_TIMEOUT value is returned, a timeout occurred
 752              		.loc 1 416 0 is_stmt 0 discriminator 1
 753 002a 2946     		mov	r1, r5
 754 002c 2046     		mov	r0, r4
 755              	.LVL75:
 756 002e FFF7FEFF 		bl	sys_arch_mbox_fetch
 757              	.LVL76:
 758 0032 B0F1FF3F 		cmp	r0, #-1
ARM GAS  C:\Users\Student\AppData\Local\Temp\ccN2YGSa.s 			page 23


 759 0036 EDD0     		beq	.L88
 760 0038 38BD     		pop	{r3, r4, r5, pc}
 761              	.LVL77:
 762              	.L93:
 763 003a 00BF     		.align	2
 764              	.L92:
 765 003c 00000000 		.word	.LANCHOR0
 766              		.cfi_endproc
 767              	.LFE166:
 769              		.global	lwip_cyclic_timers
 770              		.section	.bss.next_timeout,"aw",%nobits
 771              		.align	2
 772              		.set	.LANCHOR0,. + 0
 775              	next_timeout:
 776 0000 00000000 		.space	4
 777              		.section	.bss.tcpip_tcp_timer_active,"aw",%nobits
 778              		.align	2
 779              		.set	.LANCHOR2,. + 0
 782              	tcpip_tcp_timer_active:
 783 0000 00000000 		.space	4
 784              		.section	.bss.timeouts_last_time,"aw",%nobits
 785              		.align	2
 786              		.set	.LANCHOR1,. + 0
 789              	timeouts_last_time:
 790 0000 00000000 		.space	4
 791              		.section	.rodata.lwip_cyclic_timers,"a",%progbits
 792              		.align	2
 793              		.set	.LANCHOR3,. + 0
 796              	lwip_cyclic_timers:
 797 0000 FA000000 		.word	250
 798 0004 00000000 		.word	tcp_tmr
 799 0008 E8030000 		.word	1000
 800 000c 00000000 		.word	ip_reass_tmr
 801 0010 E8030000 		.word	1000
 802 0014 00000000 		.word	etharp_tmr
 803 0018 60EA0000 		.word	60000
 804 001c 00000000 		.word	dhcp_coarse_tmr
 805 0020 F4010000 		.word	500
 806 0024 00000000 		.word	dhcp_fine_tmr
 807 0028 E8030000 		.word	1000
 808 002c 00000000 		.word	dns_tmr
 809              		.section	.rodata.sys_timeout.str1.4,"aMS",%progbits,1
 810              		.align	2
 811              	.LC0:
 812 0000 4D696464 		.ascii	"Middlewares/Third_Party/LwIP/src/core/timeouts.c\000"
 812      6C657761 
 812      7265732F 
 812      54686972 
 812      645F5061 
 813 0031 000000   		.space	3
 814              	.LC1:
 815 0034 7379735F 		.ascii	"sys_timeout: timeout != NULL, pool MEMP_SYS_TIMEOUT"
 815      74696D65 
 815      6F75743A 
 815      2074696D 
 815      656F7574 
 816 0067 20697320 		.ascii	" is empty\000"
ARM GAS  C:\Users\Student\AppData\Local\Temp\ccN2YGSa.s 			page 24


 816      656D7074 
 816      7900
 817 0071 000000   		.space	3
 818              	.LC2:
 819 0074 41737365 		.ascii	"Assertion \"%s\" failed at line %d in %s\012\000"
 819      7274696F 
 819      6E202225 
 819      73222066 
 819      61696C65 
 820              		.text
 821              	.Letext0:
 822              		.file 2 "c:\\gcc_toolchain\\6_2017-q1-update\\arm-none-eabi\\include\\machine\\_default_types.h"
 823              		.file 3 "c:\\gcc_toolchain\\6_2017-q1-update\\arm-none-eabi\\include\\sys\\_stdint.h"
 824              		.file 4 "Drivers/CMSIS/Include/core_cm7.h"
 825              		.file 5 "Drivers/CMSIS/Device/ST/STM32F7xx/Include/system_stm32f7xx.h"
 826              		.file 6 "c:\\gcc_toolchain\\6_2017-q1-update\\lib\\gcc\\arm-none-eabi\\6.3.1\\include\\stddef.h"
 827              		.file 7 "c:\\gcc_toolchain\\6_2017-q1-update\\arm-none-eabi\\include\\sys\\lock.h"
 828              		.file 8 "c:\\gcc_toolchain\\6_2017-q1-update\\arm-none-eabi\\include\\sys\\_types.h"
 829              		.file 9 "c:\\gcc_toolchain\\6_2017-q1-update\\arm-none-eabi\\include\\sys\\reent.h"
 830              		.file 10 "c:\\gcc_toolchain\\6_2017-q1-update\\arm-none-eabi\\include\\stdlib.h"
 831              		.file 11 "c:\\gcc_toolchain\\6_2017-q1-update\\arm-none-eabi\\include\\time.h"
 832              		.file 12 "Middlewares/Third_Party/LwIP/src/include/lwip/arch.h"
 833              		.file 13 "Middlewares/Third_Party/LwIP/src/include/lwip/err.h"
 834              		.file 14 "Middlewares/Third_Party/FreeRTOS/Source/include/queue.h"
 835              		.file 15 "Middlewares/Third_Party/FreeRTOS/Source/include/semphr.h"
 836              		.file 16 "Middlewares/Third_Party/FreeRTOS/Source/CMSIS_RTOS/cmsis_os.h"
 837              		.file 17 "Middlewares/Third_Party/LwIP/system/arch/sys_arch.h"
 838              		.file 18 "Middlewares/Third_Party/LwIP/src/include/lwip/timeouts.h"
 839              		.file 19 "Middlewares/Third_Party/LwIP/src/include/lwip/pbuf.h"
 840              		.file 20 "Middlewares/Third_Party/LwIP/src/include/lwip/ip4_addr.h"
 841              		.file 21 "Middlewares/Third_Party/LwIP/src/include/lwip/ip_addr.h"
 842              		.file 22 "Middlewares/Third_Party/LwIP/src/include/lwip/priv/memp_priv.h"
 843              		.file 23 "Middlewares/Third_Party/LwIP/src/include/lwip/memp.h"
 844              		.file 24 "Middlewares/Third_Party/LwIP/src/include/lwip/netif.h"
 845              		.file 25 "Middlewares/Third_Party/LwIP/src/include/lwip/prot/ip4.h"
 846              		.file 26 "Middlewares/Third_Party/LwIP/src/include/lwip/ip.h"
 847              		.file 27 "Middlewares/Third_Party/LwIP/src/include/lwip/tcp.h"
 848              		.file 28 "Middlewares/Third_Party/LwIP/src/include/lwip/priv/tcp_priv.h"
 849              		.file 29 "Middlewares/Third_Party/LwIP/src/include/lwip/prot/tcp.h"
 850              		.file 30 "Middlewares/Third_Party/LwIP/src/include/lwip/tcpip.h"
 851              		.file 31 "Middlewares/Third_Party/LwIP/src/include/lwip/udp.h"
 852              		.file 32 "Middlewares/Third_Party/LwIP/src/include/lwip/dns.h"
 853              		.file 33 "Middlewares/Third_Party/LwIP/src/include/lwip/sys.h"
 854              		.file 34 "c:\\gcc_toolchain\\6_2017-q1-update\\arm-none-eabi\\include\\stdio.h"
ARM GAS  C:\Users\Student\AppData\Local\Temp\ccN2YGSa.s 			page 25


DEFINED SYMBOLS
                            *ABS*:00000000 timeouts.c
C:\Users\Student\AppData\Local\Temp\ccN2YGSa.s:18     .text.sys_timeouts_sleeptime:00000000 $t
C:\Users\Student\AppData\Local\Temp\ccN2YGSa.s:24     .text.sys_timeouts_sleeptime:00000000 sys_timeouts_sleeptime
C:\Users\Student\AppData\Local\Temp\ccN2YGSa.s:71     .text.sys_timeouts_sleeptime:0000002c $d
C:\Users\Student\AppData\Local\Temp\ccN2YGSa.s:77     .text.sys_check_timeouts:00000000 $t
C:\Users\Student\AppData\Local\Temp\ccN2YGSa.s:83     .text.sys_check_timeouts:00000000 sys_check_timeouts
C:\Users\Student\AppData\Local\Temp\ccN2YGSa.s:189    .text.sys_check_timeouts:00000064 $d
C:\Users\Student\AppData\Local\Temp\ccN2YGSa.s:197    .text.sys_timeout:00000000 $t
C:\Users\Student\AppData\Local\Temp\ccN2YGSa.s:204    .text.sys_timeout:00000000 sys_timeout
C:\Users\Student\AppData\Local\Temp\ccN2YGSa.s:357    .text.sys_timeout:000000a8 $d
C:\Users\Student\AppData\Local\Temp\ccN2YGSa.s:366    .text.tcp_timer_needed:00000000 $t
C:\Users\Student\AppData\Local\Temp\ccN2YGSa.s:373    .text.tcp_timer_needed:00000000 tcp_timer_needed
C:\Users\Student\AppData\Local\Temp\ccN2YGSa.s:415    .text.tcp_timer_needed:0000002c $d
C:\Users\Student\AppData\Local\Temp\ccN2YGSa.s:429    .text.tcpip_tcp_timer:00000000 tcpip_tcp_timer
C:\Users\Student\AppData\Local\Temp\ccN2YGSa.s:423    .text.tcpip_tcp_timer:00000000 $t
C:\Users\Student\AppData\Local\Temp\ccN2YGSa.s:470    .text.tcpip_tcp_timer:00000028 $d
C:\Users\Student\AppData\Local\Temp\ccN2YGSa.s:478    .text.sys_timeouts_init:00000000 $t
C:\Users\Student\AppData\Local\Temp\ccN2YGSa.s:485    .text.sys_timeouts_init:00000000 sys_timeouts_init
C:\Users\Student\AppData\Local\Temp\ccN2YGSa.s:526    .text.sys_timeouts_init:00000028 $d
C:\Users\Student\AppData\Local\Temp\ccN2YGSa.s:539    .text.cyclic_timer:00000000 cyclic_timer
C:\Users\Student\AppData\Local\Temp\ccN2YGSa.s:533    .text.cyclic_timer:00000000 $t
C:\Users\Student\AppData\Local\Temp\ccN2YGSa.s:568    .text.cyclic_timer:00000014 $d
C:\Users\Student\AppData\Local\Temp\ccN2YGSa.s:573    .text.sys_untimeout:00000000 $t
C:\Users\Student\AppData\Local\Temp\ccN2YGSa.s:580    .text.sys_untimeout:00000000 sys_untimeout
C:\Users\Student\AppData\Local\Temp\ccN2YGSa.s:662    .text.sys_untimeout:00000048 $d
C:\Users\Student\AppData\Local\Temp\ccN2YGSa.s:667    .text.sys_restart_timeouts:00000000 $t
C:\Users\Student\AppData\Local\Temp\ccN2YGSa.s:674    .text.sys_restart_timeouts:00000000 sys_restart_timeouts
C:\Users\Student\AppData\Local\Temp\ccN2YGSa.s:694    .text.sys_restart_timeouts:0000000c $d
C:\Users\Student\AppData\Local\Temp\ccN2YGSa.s:699    .text.sys_timeouts_mbox_fetch:00000000 $t
C:\Users\Student\AppData\Local\Temp\ccN2YGSa.s:706    .text.sys_timeouts_mbox_fetch:00000000 sys_timeouts_mbox_fetch
C:\Users\Student\AppData\Local\Temp\ccN2YGSa.s:765    .text.sys_timeouts_mbox_fetch:0000003c $d
C:\Users\Student\AppData\Local\Temp\ccN2YGSa.s:796    .rodata.lwip_cyclic_timers:00000000 lwip_cyclic_timers
C:\Users\Student\AppData\Local\Temp\ccN2YGSa.s:771    .bss.next_timeout:00000000 $d
C:\Users\Student\AppData\Local\Temp\ccN2YGSa.s:775    .bss.next_timeout:00000000 next_timeout
C:\Users\Student\AppData\Local\Temp\ccN2YGSa.s:778    .bss.tcpip_tcp_timer_active:00000000 $d
C:\Users\Student\AppData\Local\Temp\ccN2YGSa.s:782    .bss.tcpip_tcp_timer_active:00000000 tcpip_tcp_timer_active
C:\Users\Student\AppData\Local\Temp\ccN2YGSa.s:785    .bss.timeouts_last_time:00000000 $d
C:\Users\Student\AppData\Local\Temp\ccN2YGSa.s:789    .bss.timeouts_last_time:00000000 timeouts_last_time
C:\Users\Student\AppData\Local\Temp\ccN2YGSa.s:792    .rodata.lwip_cyclic_timers:00000000 $d
C:\Users\Student\AppData\Local\Temp\ccN2YGSa.s:810    .rodata.sys_timeout.str1.4:00000000 $d
                     .debug_frame:00000010 $d

UNDEFINED SYMBOLS
sys_now
memp_free
sys_mutex_lock
sys_mutex_unlock
lock_tcpip_core
memp_malloc
printf
tcp_active_pcbs
tcp_tw_pcbs
tcp_tmr
sys_arch_mbox_fetch
ip_reass_tmr
etharp_tmr
ARM GAS  C:\Users\Student\AppData\Local\Temp\ccN2YGSa.s 			page 26


dhcp_coarse_tmr
dhcp_fine_tmr
dns_tmr
