ARM GAS  C:\Users\Patryk\AppData\Local\Temp\ccrZQ8Ea.s 			page 1


   1              		.cpu cortex-m7
   2              		.eabi_attribute 27, 1
   3              		.eabi_attribute 28, 1
   4              		.eabi_attribute 20, 1
   5              		.eabi_attribute 21, 1
   6              		.eabi_attribute 23, 3
   7              		.eabi_attribute 24, 1
   8              		.eabi_attribute 25, 1
   9              		.eabi_attribute 26, 1
  10              		.eabi_attribute 30, 1
  11              		.eabi_attribute 34, 1
  12              		.eabi_attribute 18, 4
  13              		.file	"udp.c"
  14              		.text
  15              	.Ltext0:
  16              		.cfi_sections	.debug_frame
  17              		.section	.text.udp_new_port,"ax",%progbits
  18              		.align	1
  19              		.syntax unified
  20              		.thumb
  21              		.thumb_func
  22              		.fpu fpv5-sp-d16
  24              	udp_new_port:
  25              	.LFB155:
  26              		.file 1 "Middlewares/Third_Party/LwIP/src/core/udp.c"
   1:Middlewares/Third_Party/LwIP/src/core/udp.c **** /**
   2:Middlewares/Third_Party/LwIP/src/core/udp.c ****  * @file
   3:Middlewares/Third_Party/LwIP/src/core/udp.c ****  * User Datagram Protocol module\n
   4:Middlewares/Third_Party/LwIP/src/core/udp.c ****  * The code for the User Datagram Protocol UDP & UDPLite (RFC 3828).\n
   5:Middlewares/Third_Party/LwIP/src/core/udp.c ****  * See also @ref udp_raw
   6:Middlewares/Third_Party/LwIP/src/core/udp.c ****  * 
   7:Middlewares/Third_Party/LwIP/src/core/udp.c ****  * @defgroup udp_raw UDP
   8:Middlewares/Third_Party/LwIP/src/core/udp.c ****  * @ingroup callbackstyle_api
   9:Middlewares/Third_Party/LwIP/src/core/udp.c ****  * User Datagram Protocol module\n
  10:Middlewares/Third_Party/LwIP/src/core/udp.c ****  * @see @ref raw_api and @ref netconn
  11:Middlewares/Third_Party/LwIP/src/core/udp.c ****  */
  12:Middlewares/Third_Party/LwIP/src/core/udp.c **** 
  13:Middlewares/Third_Party/LwIP/src/core/udp.c **** /*
  14:Middlewares/Third_Party/LwIP/src/core/udp.c ****  * Copyright (c) 2001-2004 Swedish Institute of Computer Science.
  15:Middlewares/Third_Party/LwIP/src/core/udp.c ****  * All rights reserved.
  16:Middlewares/Third_Party/LwIP/src/core/udp.c ****  *
  17:Middlewares/Third_Party/LwIP/src/core/udp.c ****  * Redistribution and use in source and binary forms, with or without modification,
  18:Middlewares/Third_Party/LwIP/src/core/udp.c ****  * are permitted provided that the following conditions are met:
  19:Middlewares/Third_Party/LwIP/src/core/udp.c ****  *
  20:Middlewares/Third_Party/LwIP/src/core/udp.c ****  * 1. Redistributions of source code must retain the above copyright notice,
  21:Middlewares/Third_Party/LwIP/src/core/udp.c ****  *    this list of conditions and the following disclaimer.
  22:Middlewares/Third_Party/LwIP/src/core/udp.c ****  * 2. Redistributions in binary form must reproduce the above copyright notice,
  23:Middlewares/Third_Party/LwIP/src/core/udp.c ****  *    this list of conditions and the following disclaimer in the documentation
  24:Middlewares/Third_Party/LwIP/src/core/udp.c ****  *    and/or other materials provided with the distribution.
  25:Middlewares/Third_Party/LwIP/src/core/udp.c ****  * 3. The name of the author may not be used to endorse or promote products
  26:Middlewares/Third_Party/LwIP/src/core/udp.c ****  *    derived from this software without specific prior written permission.
  27:Middlewares/Third_Party/LwIP/src/core/udp.c ****  *
  28:Middlewares/Third_Party/LwIP/src/core/udp.c ****  * THIS SOFTWARE IS PROVIDED BY THE AUTHOR ``AS IS'' AND ANY EXPRESS OR IMPLIED
  29:Middlewares/Third_Party/LwIP/src/core/udp.c ****  * WARRANTIES, INCLUDING, BUT NOT LIMITED TO, THE IMPLIED WARRANTIES OF
  30:Middlewares/Third_Party/LwIP/src/core/udp.c ****  * MERCHANTABILITY AND FITNESS FOR A PARTICULAR PURPOSE ARE DISCLAIMED. IN NO EVENT
  31:Middlewares/Third_Party/LwIP/src/core/udp.c ****  * SHALL THE AUTHOR BE LIABLE FOR ANY DIRECT, INDIRECT, INCIDENTAL, SPECIAL,
  32:Middlewares/Third_Party/LwIP/src/core/udp.c ****  * EXEMPLARY, OR CONSEQUENTIAL DAMAGES (INCLUDING, BUT NOT LIMITED TO, PROCUREMENT
ARM GAS  C:\Users\Patryk\AppData\Local\Temp\ccrZQ8Ea.s 			page 2


  33:Middlewares/Third_Party/LwIP/src/core/udp.c ****  * OF SUBSTITUTE GOODS OR SERVICES; LOSS OF USE, DATA, OR PROFITS; OR BUSINESS
  34:Middlewares/Third_Party/LwIP/src/core/udp.c ****  * INTERRUPTION) HOWEVER CAUSED AND ON ANY THEORY OF LIABILITY, WHETHER IN
  35:Middlewares/Third_Party/LwIP/src/core/udp.c ****  * CONTRACT, STRICT LIABILITY, OR TORT (INCLUDING NEGLIGENCE OR OTHERWISE) ARISING
  36:Middlewares/Third_Party/LwIP/src/core/udp.c ****  * IN ANY WAY OUT OF THE USE OF THIS SOFTWARE, EVEN IF ADVISED OF THE POSSIBILITY
  37:Middlewares/Third_Party/LwIP/src/core/udp.c ****  * OF SUCH DAMAGE.
  38:Middlewares/Third_Party/LwIP/src/core/udp.c ****  *
  39:Middlewares/Third_Party/LwIP/src/core/udp.c ****  * This file is part of the lwIP TCP/IP stack.
  40:Middlewares/Third_Party/LwIP/src/core/udp.c ****  *
  41:Middlewares/Third_Party/LwIP/src/core/udp.c ****  * Author: Adam Dunkels <adam@sics.se>
  42:Middlewares/Third_Party/LwIP/src/core/udp.c ****  *
  43:Middlewares/Third_Party/LwIP/src/core/udp.c ****  */
  44:Middlewares/Third_Party/LwIP/src/core/udp.c **** 
  45:Middlewares/Third_Party/LwIP/src/core/udp.c **** /* @todo Check the use of '(struct udp_pcb).chksum_len_rx'!
  46:Middlewares/Third_Party/LwIP/src/core/udp.c ****  */
  47:Middlewares/Third_Party/LwIP/src/core/udp.c **** 
  48:Middlewares/Third_Party/LwIP/src/core/udp.c **** #include "lwip/opt.h"
  49:Middlewares/Third_Party/LwIP/src/core/udp.c **** 
  50:Middlewares/Third_Party/LwIP/src/core/udp.c **** #if LWIP_UDP /* don't build if not configured for use in lwipopts.h */
  51:Middlewares/Third_Party/LwIP/src/core/udp.c **** 
  52:Middlewares/Third_Party/LwIP/src/core/udp.c **** #include "lwip/udp.h"
  53:Middlewares/Third_Party/LwIP/src/core/udp.c **** #include "lwip/def.h"
  54:Middlewares/Third_Party/LwIP/src/core/udp.c **** #include "lwip/memp.h"
  55:Middlewares/Third_Party/LwIP/src/core/udp.c **** #include "lwip/inet_chksum.h"
  56:Middlewares/Third_Party/LwIP/src/core/udp.c **** #include "lwip/ip_addr.h"
  57:Middlewares/Third_Party/LwIP/src/core/udp.c **** #include "lwip/ip6.h"
  58:Middlewares/Third_Party/LwIP/src/core/udp.c **** #include "lwip/ip6_addr.h"
  59:Middlewares/Third_Party/LwIP/src/core/udp.c **** #include "lwip/netif.h"
  60:Middlewares/Third_Party/LwIP/src/core/udp.c **** #include "lwip/icmp.h"
  61:Middlewares/Third_Party/LwIP/src/core/udp.c **** #include "lwip/icmp6.h"
  62:Middlewares/Third_Party/LwIP/src/core/udp.c **** #include "lwip/stats.h"
  63:Middlewares/Third_Party/LwIP/src/core/udp.c **** #include "lwip/snmp.h"
  64:Middlewares/Third_Party/LwIP/src/core/udp.c **** #include "lwip/dhcp.h"
  65:Middlewares/Third_Party/LwIP/src/core/udp.c **** 
  66:Middlewares/Third_Party/LwIP/src/core/udp.c **** #include <string.h>
  67:Middlewares/Third_Party/LwIP/src/core/udp.c **** 
  68:Middlewares/Third_Party/LwIP/src/core/udp.c **** #ifndef UDP_LOCAL_PORT_RANGE_START
  69:Middlewares/Third_Party/LwIP/src/core/udp.c **** /* From http://www.iana.org/assignments/port-numbers:
  70:Middlewares/Third_Party/LwIP/src/core/udp.c ****    "The Dynamic and/or Private Ports are those from 49152 through 65535" */
  71:Middlewares/Third_Party/LwIP/src/core/udp.c **** #define UDP_LOCAL_PORT_RANGE_START  0xc000
  72:Middlewares/Third_Party/LwIP/src/core/udp.c **** #define UDP_LOCAL_PORT_RANGE_END    0xffff
  73:Middlewares/Third_Party/LwIP/src/core/udp.c **** #define UDP_ENSURE_LOCAL_PORT_RANGE(port) ((u16_t)(((port) & ~UDP_LOCAL_PORT_RANGE_START) + UDP_LOC
  74:Middlewares/Third_Party/LwIP/src/core/udp.c **** #endif
  75:Middlewares/Third_Party/LwIP/src/core/udp.c **** 
  76:Middlewares/Third_Party/LwIP/src/core/udp.c **** /* last local UDP port */
  77:Middlewares/Third_Party/LwIP/src/core/udp.c **** static u16_t udp_port = UDP_LOCAL_PORT_RANGE_START;
  78:Middlewares/Third_Party/LwIP/src/core/udp.c **** 
  79:Middlewares/Third_Party/LwIP/src/core/udp.c **** /* The list of UDP PCBs */
  80:Middlewares/Third_Party/LwIP/src/core/udp.c **** /* exported in udp.h (was static) */
  81:Middlewares/Third_Party/LwIP/src/core/udp.c **** struct udp_pcb *udp_pcbs;
  82:Middlewares/Third_Party/LwIP/src/core/udp.c **** 
  83:Middlewares/Third_Party/LwIP/src/core/udp.c **** /**
  84:Middlewares/Third_Party/LwIP/src/core/udp.c ****  * Initialize this module.
  85:Middlewares/Third_Party/LwIP/src/core/udp.c ****  */
  86:Middlewares/Third_Party/LwIP/src/core/udp.c **** void
  87:Middlewares/Third_Party/LwIP/src/core/udp.c **** udp_init(void)
  88:Middlewares/Third_Party/LwIP/src/core/udp.c **** {
  89:Middlewares/Third_Party/LwIP/src/core/udp.c **** #if LWIP_RANDOMIZE_INITIAL_LOCAL_PORTS && defined(LWIP_RAND)
ARM GAS  C:\Users\Patryk\AppData\Local\Temp\ccrZQ8Ea.s 			page 3


  90:Middlewares/Third_Party/LwIP/src/core/udp.c ****   udp_port = UDP_ENSURE_LOCAL_PORT_RANGE(LWIP_RAND());
  91:Middlewares/Third_Party/LwIP/src/core/udp.c **** #endif /* LWIP_RANDOMIZE_INITIAL_LOCAL_PORTS && defined(LWIP_RAND) */
  92:Middlewares/Third_Party/LwIP/src/core/udp.c **** }
  93:Middlewares/Third_Party/LwIP/src/core/udp.c **** 
  94:Middlewares/Third_Party/LwIP/src/core/udp.c **** /**
  95:Middlewares/Third_Party/LwIP/src/core/udp.c ****  * Allocate a new local UDP port.
  96:Middlewares/Third_Party/LwIP/src/core/udp.c ****  *
  97:Middlewares/Third_Party/LwIP/src/core/udp.c ****  * @return a new (free) local UDP port number
  98:Middlewares/Third_Party/LwIP/src/core/udp.c ****  */
  99:Middlewares/Third_Party/LwIP/src/core/udp.c **** static u16_t
 100:Middlewares/Third_Party/LwIP/src/core/udp.c **** udp_new_port(void)
 101:Middlewares/Third_Party/LwIP/src/core/udp.c **** {
  27              		.loc 1 101 0
  28              		.cfi_startproc
  29              		@ args = 0, pretend = 0, frame = 0
  30              		@ frame_needed = 0, uses_anonymous_args = 0
  31              		@ link register save eliminated.
  32              	.LVL0:
 102:Middlewares/Third_Party/LwIP/src/core/udp.c ****   u16_t n = 0;
  33              		.loc 1 102 0
  34 0000 0020     		movs	r0, #0
  35              	.LVL1:
  36              	.L2:
 103:Middlewares/Third_Party/LwIP/src/core/udp.c ****   struct udp_pcb *pcb;
 104:Middlewares/Third_Party/LwIP/src/core/udp.c **** 
 105:Middlewares/Third_Party/LwIP/src/core/udp.c **** again:
 106:Middlewares/Third_Party/LwIP/src/core/udp.c ****   if (udp_port++ == UDP_LOCAL_PORT_RANGE_END) {
  37              		.loc 1 106 0
  38 0002 104A     		ldr	r2, .L12
  39 0004 1388     		ldrh	r3, [r2]
  40 0006 591C     		adds	r1, r3, #1
  41 0008 1180     		strh	r1, [r2]	@ movhi
  42 000a 4FF6FF72 		movw	r2, #65535
  43 000e 9342     		cmp	r3, r2
  44 0010 09D0     		beq	.L9
  45              	.L3:
 107:Middlewares/Third_Party/LwIP/src/core/udp.c ****     udp_port = UDP_LOCAL_PORT_RANGE_START;
 108:Middlewares/Third_Party/LwIP/src/core/udp.c ****   }
 109:Middlewares/Third_Party/LwIP/src/core/udp.c ****   /* Check all PCBs. */
 110:Middlewares/Third_Party/LwIP/src/core/udp.c ****   for (pcb = udp_pcbs; pcb != NULL; pcb = pcb->next) {
  46              		.loc 1 110 0
  47 0012 0D4B     		ldr	r3, .L12+4
  48 0014 1B68     		ldr	r3, [r3]
  49              	.LVL2:
  50              	.L4:
  51              		.loc 1 110 0 is_stmt 0 discriminator 1
  52 0016 93B1     		cbz	r3, .L10
 111:Middlewares/Third_Party/LwIP/src/core/udp.c ****     if (pcb->local_port == udp_port) {
  53              		.loc 1 111 0 is_stmt 1
  54 0018 598A     		ldrh	r1, [r3, #18]
  55 001a 0A4A     		ldr	r2, .L12
  56 001c 1288     		ldrh	r2, [r2]
  57 001e 9142     		cmp	r1, r2
  58 0020 06D0     		beq	.L11
 110:Middlewares/Third_Party/LwIP/src/core/udp.c ****     if (pcb->local_port == udp_port) {
  59              		.loc 1 110 0 discriminator 2
  60 0022 DB68     		ldr	r3, [r3, #12]
ARM GAS  C:\Users\Patryk\AppData\Local\Temp\ccrZQ8Ea.s 			page 4


  61              	.LVL3:
  62 0024 F7E7     		b	.L4
  63              	.LVL4:
  64              	.L9:
 107:Middlewares/Third_Party/LwIP/src/core/udp.c ****     udp_port = UDP_LOCAL_PORT_RANGE_START;
  65              		.loc 1 107 0
  66 0026 074B     		ldr	r3, .L12
  67 0028 4FF44042 		mov	r2, #49152
  68 002c 1A80     		strh	r2, [r3]	@ movhi
  69 002e F0E7     		b	.L3
  70              	.LVL5:
  71              	.L11:
 112:Middlewares/Third_Party/LwIP/src/core/udp.c ****       if (++n > (UDP_LOCAL_PORT_RANGE_END - UDP_LOCAL_PORT_RANGE_START)) {
  72              		.loc 1 112 0
  73 0030 0130     		adds	r0, r0, #1
  74              	.LVL6:
  75 0032 80B2     		uxth	r0, r0
  76              	.LVL7:
  77 0034 B0F5804F 		cmp	r0, #16384
  78 0038 E3D3     		bcc	.L2
 113:Middlewares/Third_Party/LwIP/src/core/udp.c ****         return 0;
  79              		.loc 1 113 0
  80 003a 0020     		movs	r0, #0
  81              	.LVL8:
 114:Middlewares/Third_Party/LwIP/src/core/udp.c ****       }
 115:Middlewares/Third_Party/LwIP/src/core/udp.c ****       goto again;
 116:Middlewares/Third_Party/LwIP/src/core/udp.c ****     }
 117:Middlewares/Third_Party/LwIP/src/core/udp.c ****   }
 118:Middlewares/Third_Party/LwIP/src/core/udp.c ****   return udp_port;
 119:Middlewares/Third_Party/LwIP/src/core/udp.c **** }
  82              		.loc 1 119 0
  83 003c 7047     		bx	lr
  84              	.LVL9:
  85              	.L10:
 118:Middlewares/Third_Party/LwIP/src/core/udp.c **** }
  86              		.loc 1 118 0
  87 003e 014B     		ldr	r3, .L12
  88              	.LVL10:
  89 0040 1888     		ldrh	r0, [r3]
  90              	.LVL11:
  91 0042 7047     		bx	lr
  92              	.L13:
  93              		.align	2
  94              	.L12:
  95 0044 00000000 		.word	.LANCHOR0
  96 0048 00000000 		.word	udp_pcbs
  97              		.cfi_endproc
  98              	.LFE155:
 100              		.section	.text.udp_input_local_match,"ax",%progbits
 101              		.align	1
 102              		.syntax unified
 103              		.thumb
 104              		.thumb_func
 105              		.fpu fpv5-sp-d16
 107              	udp_input_local_match:
 108              	.LFB156:
 120:Middlewares/Third_Party/LwIP/src/core/udp.c **** 
ARM GAS  C:\Users\Patryk\AppData\Local\Temp\ccrZQ8Ea.s 			page 5


 121:Middlewares/Third_Party/LwIP/src/core/udp.c **** /** Common code to see if the current input packet matches the pcb
 122:Middlewares/Third_Party/LwIP/src/core/udp.c ****  * (current input packet is accessed via ip(4/6)_current_* macros)
 123:Middlewares/Third_Party/LwIP/src/core/udp.c ****  *
 124:Middlewares/Third_Party/LwIP/src/core/udp.c ****  * @param pcb pcb to check
 125:Middlewares/Third_Party/LwIP/src/core/udp.c ****  * @param inp network interface on which the datagram was received (only used for IPv4)
 126:Middlewares/Third_Party/LwIP/src/core/udp.c ****  * @param broadcast 1 if his is an IPv4 broadcast (global or subnet-only), 0 otherwise (only used f
 127:Middlewares/Third_Party/LwIP/src/core/udp.c ****  * @return 1 on match, 0 otherwise
 128:Middlewares/Third_Party/LwIP/src/core/udp.c ****  */
 129:Middlewares/Third_Party/LwIP/src/core/udp.c **** static u8_t
 130:Middlewares/Third_Party/LwIP/src/core/udp.c **** udp_input_local_match(struct udp_pcb *pcb, struct netif *inp, u8_t broadcast)
 131:Middlewares/Third_Party/LwIP/src/core/udp.c **** {
 109              		.loc 1 131 0
 110              		.cfi_startproc
 111              		@ args = 0, pretend = 0, frame = 0
 112              		@ frame_needed = 0, uses_anonymous_args = 0
 113              		@ link register save eliminated.
 114              	.LVL12:
 132:Middlewares/Third_Party/LwIP/src/core/udp.c ****   LWIP_UNUSED_ARG(inp);       /* in IPv6 only case */
 133:Middlewares/Third_Party/LwIP/src/core/udp.c ****   LWIP_UNUSED_ARG(broadcast); /* in IPv6 only case */
 134:Middlewares/Third_Party/LwIP/src/core/udp.c **** 
 135:Middlewares/Third_Party/LwIP/src/core/udp.c ****   /* Dual-stack: PCBs listening to any IP type also listen to any IP address */
 136:Middlewares/Third_Party/LwIP/src/core/udp.c ****   if (IP_IS_ANY_TYPE_VAL(pcb->local_ip)) {
 137:Middlewares/Third_Party/LwIP/src/core/udp.c **** #if LWIP_IPV4 && IP_SOF_BROADCAST_RECV
 138:Middlewares/Third_Party/LwIP/src/core/udp.c ****     if ((broadcast != 0) && !ip_get_option(pcb, SOF_BROADCAST)) {
 139:Middlewares/Third_Party/LwIP/src/core/udp.c ****       return 0;
 140:Middlewares/Third_Party/LwIP/src/core/udp.c ****     }
 141:Middlewares/Third_Party/LwIP/src/core/udp.c **** #endif /* LWIP_IPV4 && IP_SOF_BROADCAST_RECV */
 142:Middlewares/Third_Party/LwIP/src/core/udp.c ****     return 1;
 143:Middlewares/Third_Party/LwIP/src/core/udp.c ****   }
 144:Middlewares/Third_Party/LwIP/src/core/udp.c **** 
 145:Middlewares/Third_Party/LwIP/src/core/udp.c ****   /* Only need to check PCB if incoming IP version matches PCB IP version */
 146:Middlewares/Third_Party/LwIP/src/core/udp.c ****   if (IP_ADDR_PCB_VERSION_MATCH_EXACT(pcb, ip_current_dest_addr())) {
 147:Middlewares/Third_Party/LwIP/src/core/udp.c **** #if LWIP_IPV4
 148:Middlewares/Third_Party/LwIP/src/core/udp.c ****     /* Special case: IPv4 broadcast: all or broadcasts in my subnet
 149:Middlewares/Third_Party/LwIP/src/core/udp.c ****      * Note: broadcast variable can only be 1 if it is an IPv4 broadcast */
 150:Middlewares/Third_Party/LwIP/src/core/udp.c ****     if (broadcast != 0) {
 115              		.loc 1 150 0
 116 0000 6AB1     		cbz	r2, .L15
 151:Middlewares/Third_Party/LwIP/src/core/udp.c **** #if IP_SOF_BROADCAST_RECV
 152:Middlewares/Third_Party/LwIP/src/core/udp.c ****       if (ip_get_option(pcb, SOF_BROADCAST))
 153:Middlewares/Third_Party/LwIP/src/core/udp.c **** #endif /* IP_SOF_BROADCAST_RECV */
 154:Middlewares/Third_Party/LwIP/src/core/udp.c ****       {
 155:Middlewares/Third_Party/LwIP/src/core/udp.c ****         if (ip4_addr_isany(ip_2_ip4(&pcb->local_ip)) ||
 117              		.loc 1 155 0
 118 0002 A8B1     		cbz	r0, .L17
 119              		.loc 1 155 0 is_stmt 0 discriminator 1
 120 0004 0368     		ldr	r3, [r0]
 121 0006 ABB1     		cbz	r3, .L18
 156:Middlewares/Third_Party/LwIP/src/core/udp.c ****           ((ip4_current_dest_addr()->addr == IPADDR_BROADCAST)) ||
 122              		.loc 1 156 0 is_stmt 1 discriminator 2
 123 0008 104A     		ldr	r2, .L24
 124              	.LVL13:
 125 000a 5269     		ldr	r2, [r2, #20]
 155:Middlewares/Third_Party/LwIP/src/core/udp.c ****           ((ip4_current_dest_addr()->addr == IPADDR_BROADCAST)) ||
 126              		.loc 1 155 0 discriminator 2
 127 000c B2F1FF3F 		cmp	r2, #-1
 128 0010 12D0     		beq	.L19
ARM GAS  C:\Users\Patryk\AppData\Local\Temp\ccrZQ8Ea.s 			page 6


 157:Middlewares/Third_Party/LwIP/src/core/udp.c ****            ip4_addr_netcmp(ip_2_ip4(&pcb->local_ip), ip4_current_dest_addr(), netif_ip4_netmask(inp
 129              		.loc 1 157 0
 130 0012 8968     		ldr	r1, [r1, #8]
 131              	.LVL14:
 132 0014 5340     		eors	r3, r3, r2
 156:Middlewares/Third_Party/LwIP/src/core/udp.c ****           ((ip4_current_dest_addr()->addr == IPADDR_BROADCAST)) ||
 133              		.loc 1 156 0
 134 0016 0B42     		tst	r3, r1
 135 0018 10D0     		beq	.L20
 158:Middlewares/Third_Party/LwIP/src/core/udp.c ****           return 1;
 159:Middlewares/Third_Party/LwIP/src/core/udp.c ****         }
 160:Middlewares/Third_Party/LwIP/src/core/udp.c ****       }
 161:Middlewares/Third_Party/LwIP/src/core/udp.c ****     } else
 162:Middlewares/Third_Party/LwIP/src/core/udp.c **** #endif /* LWIP_IPV4 */
 163:Middlewares/Third_Party/LwIP/src/core/udp.c ****     /* Handle IPv4 and IPv6: all or exact match */
 164:Middlewares/Third_Party/LwIP/src/core/udp.c ****     if (ip_addr_isany(&pcb->local_ip) || ip_addr_cmp(&pcb->local_ip, ip_current_dest_addr())) {
 165:Middlewares/Third_Party/LwIP/src/core/udp.c ****       return 1;
 166:Middlewares/Third_Party/LwIP/src/core/udp.c ****     }
 167:Middlewares/Third_Party/LwIP/src/core/udp.c ****   }
 168:Middlewares/Third_Party/LwIP/src/core/udp.c **** 
 169:Middlewares/Third_Party/LwIP/src/core/udp.c ****   return 0;
 136              		.loc 1 169 0
 137 001a 0020     		movs	r0, #0
 138              	.LVL15:
 139 001c 7047     		bx	lr
 140              	.LVL16:
 141              	.L15:
 164:Middlewares/Third_Party/LwIP/src/core/udp.c ****       return 1;
 142              		.loc 1 164 0
 143 001e 78B1     		cbz	r0, .L21
 164:Middlewares/Third_Party/LwIP/src/core/udp.c ****       return 1;
 144              		.loc 1 164 0 is_stmt 0 discriminator 1
 145 0020 0368     		ldr	r3, [r0]
 146 0022 7BB1     		cbz	r3, .L22
 164:Middlewares/Third_Party/LwIP/src/core/udp.c ****       return 1;
 147              		.loc 1 164 0 discriminator 2
 148 0024 094A     		ldr	r2, .L24
 149              	.LVL17:
 150 0026 5269     		ldr	r2, [r2, #20]
 151 0028 9342     		cmp	r3, r2
 152 002a 0DD0     		beq	.L23
 153              		.loc 1 169 0 is_stmt 1
 154 002c 0020     		movs	r0, #0
 155              	.LVL18:
 156 002e 7047     		bx	lr
 157              	.LVL19:
 158              	.L17:
 158:Middlewares/Third_Party/LwIP/src/core/udp.c ****           return 1;
 159              		.loc 1 158 0
 160 0030 0120     		movs	r0, #1
 161              	.LVL20:
 162 0032 7047     		bx	lr
 163              	.LVL21:
 164              	.L18:
 165 0034 0120     		movs	r0, #1
 166              	.LVL22:
 167 0036 7047     		bx	lr
ARM GAS  C:\Users\Patryk\AppData\Local\Temp\ccrZQ8Ea.s 			page 7


 168              	.LVL23:
 169              	.L19:
 170 0038 0120     		movs	r0, #1
 171              	.LVL24:
 172 003a 7047     		bx	lr
 173              	.LVL25:
 174              	.L20:
 175 003c 0120     		movs	r0, #1
 176              	.LVL26:
 177 003e 7047     		bx	lr
 178              	.LVL27:
 179              	.L21:
 165:Middlewares/Third_Party/LwIP/src/core/udp.c ****     }
 180              		.loc 1 165 0
 181 0040 0120     		movs	r0, #1
 182              	.LVL28:
 183 0042 7047     		bx	lr
 184              	.LVL29:
 185              	.L22:
 186 0044 0120     		movs	r0, #1
 187              	.LVL30:
 188 0046 7047     		bx	lr
 189              	.LVL31:
 190              	.L23:
 191 0048 0120     		movs	r0, #1
 192              	.LVL32:
 170:Middlewares/Third_Party/LwIP/src/core/udp.c **** }
 193              		.loc 1 170 0
 194 004a 7047     		bx	lr
 195              	.L25:
 196              		.align	2
 197              	.L24:
 198 004c 00000000 		.word	ip_data
 199              		.cfi_endproc
 200              	.LFE156:
 202              		.section	.text.udp_init,"ax",%progbits
 203              		.align	1
 204              		.global	udp_init
 205              		.syntax unified
 206              		.thumb
 207              		.thumb_func
 208              		.fpu fpv5-sp-d16
 210              	udp_init:
 211              	.LFB154:
  88:Middlewares/Third_Party/LwIP/src/core/udp.c **** #if LWIP_RANDOMIZE_INITIAL_LOCAL_PORTS && defined(LWIP_RAND)
 212              		.loc 1 88 0
 213              		.cfi_startproc
 214              		@ args = 0, pretend = 0, frame = 0
 215              		@ frame_needed = 0, uses_anonymous_args = 0
 216              		@ link register save eliminated.
  92:Middlewares/Third_Party/LwIP/src/core/udp.c **** 
 217              		.loc 1 92 0
 218 0000 7047     		bx	lr
 219              		.cfi_endproc
 220              	.LFE154:
 222              		.section	.text.udp_input,"ax",%progbits
 223              		.align	1
ARM GAS  C:\Users\Patryk\AppData\Local\Temp\ccrZQ8Ea.s 			page 8


 224              		.global	udp_input
 225              		.syntax unified
 226              		.thumb
 227              		.thumb_func
 228              		.fpu fpv5-sp-d16
 230              	udp_input:
 231              	.LFB157:
 171:Middlewares/Third_Party/LwIP/src/core/udp.c **** 
 172:Middlewares/Third_Party/LwIP/src/core/udp.c **** /**
 173:Middlewares/Third_Party/LwIP/src/core/udp.c ****  * Process an incoming UDP datagram.
 174:Middlewares/Third_Party/LwIP/src/core/udp.c ****  *
 175:Middlewares/Third_Party/LwIP/src/core/udp.c ****  * Given an incoming UDP datagram (as a chain of pbufs) this function
 176:Middlewares/Third_Party/LwIP/src/core/udp.c ****  * finds a corresponding UDP PCB and hands over the pbuf to the pcbs
 177:Middlewares/Third_Party/LwIP/src/core/udp.c ****  * recv function. If no pcb is found or the datagram is incorrect, the
 178:Middlewares/Third_Party/LwIP/src/core/udp.c ****  * pbuf is freed.
 179:Middlewares/Third_Party/LwIP/src/core/udp.c ****  *
 180:Middlewares/Third_Party/LwIP/src/core/udp.c ****  * @param p pbuf to be demultiplexed to a UDP PCB (p->payload pointing to the UDP header)
 181:Middlewares/Third_Party/LwIP/src/core/udp.c ****  * @param inp network interface on which the datagram was received.
 182:Middlewares/Third_Party/LwIP/src/core/udp.c ****  *
 183:Middlewares/Third_Party/LwIP/src/core/udp.c ****  */
 184:Middlewares/Third_Party/LwIP/src/core/udp.c **** void
 185:Middlewares/Third_Party/LwIP/src/core/udp.c **** udp_input(struct pbuf *p, struct netif *inp)
 186:Middlewares/Third_Party/LwIP/src/core/udp.c **** {
 232              		.loc 1 186 0
 233              		.cfi_startproc
 234              		@ args = 0, pretend = 0, frame = 8
 235              		@ frame_needed = 0, uses_anonymous_args = 0
 236              	.LVL33:
 237 0000 2DE9F04F 		push	{r4, r5, r6, r7, r8, r9, r10, fp, lr}
 238              	.LCFI0:
 239              		.cfi_def_cfa_offset 36
 240              		.cfi_offset 4, -36
 241              		.cfi_offset 5, -32
 242              		.cfi_offset 6, -28
 243              		.cfi_offset 7, -24
 244              		.cfi_offset 8, -20
 245              		.cfi_offset 9, -16
 246              		.cfi_offset 10, -12
 247              		.cfi_offset 11, -8
 248              		.cfi_offset 14, -4
 249 0004 85B0     		sub	sp, sp, #20
 250              	.LCFI1:
 251              		.cfi_def_cfa_offset 56
 252 0006 8046     		mov	r8, r0
 253              	.LVL34:
 187:Middlewares/Third_Party/LwIP/src/core/udp.c ****   struct udp_hdr *udphdr;
 188:Middlewares/Third_Party/LwIP/src/core/udp.c ****   struct udp_pcb *pcb, *prev;
 189:Middlewares/Third_Party/LwIP/src/core/udp.c ****   struct udp_pcb *uncon_pcb;
 190:Middlewares/Third_Party/LwIP/src/core/udp.c ****   u16_t src, dest;
 191:Middlewares/Third_Party/LwIP/src/core/udp.c ****   u8_t broadcast;
 192:Middlewares/Third_Party/LwIP/src/core/udp.c ****   u8_t for_us = 0;
 193:Middlewares/Third_Party/LwIP/src/core/udp.c **** 
 194:Middlewares/Third_Party/LwIP/src/core/udp.c ****   LWIP_UNUSED_ARG(inp);
 195:Middlewares/Third_Party/LwIP/src/core/udp.c **** 
 196:Middlewares/Third_Party/LwIP/src/core/udp.c ****   PERF_START;
 197:Middlewares/Third_Party/LwIP/src/core/udp.c **** 
 198:Middlewares/Third_Party/LwIP/src/core/udp.c ****   UDP_STATS_INC(udp.recv);
ARM GAS  C:\Users\Patryk\AppData\Local\Temp\ccrZQ8Ea.s 			page 9


 199:Middlewares/Third_Party/LwIP/src/core/udp.c **** 
 200:Middlewares/Third_Party/LwIP/src/core/udp.c ****   /* Check minimum length (UDP header) */
 201:Middlewares/Third_Party/LwIP/src/core/udp.c ****   if (p->len < UDP_HLEN) {
 254              		.loc 1 201 0
 255 0008 4389     		ldrh	r3, [r0, #10]
 256 000a 072B     		cmp	r3, #7
 257 000c 17D9     		bls	.L46
 258 000e 0F46     		mov	r7, r1
 202:Middlewares/Third_Party/LwIP/src/core/udp.c ****     /* drop short packets */
 203:Middlewares/Third_Party/LwIP/src/core/udp.c ****     LWIP_DEBUGF(UDP_DEBUG,
 204:Middlewares/Third_Party/LwIP/src/core/udp.c ****                 ("udp_input: short UDP datagram (%"U16_F" bytes) discarded\n", p->tot_len));
 205:Middlewares/Third_Party/LwIP/src/core/udp.c ****     UDP_STATS_INC(udp.lenerr);
 206:Middlewares/Third_Party/LwIP/src/core/udp.c ****     UDP_STATS_INC(udp.drop);
 207:Middlewares/Third_Party/LwIP/src/core/udp.c ****     MIB2_STATS_INC(mib2.udpinerrors);
 208:Middlewares/Third_Party/LwIP/src/core/udp.c ****     pbuf_free(p);
 209:Middlewares/Third_Party/LwIP/src/core/udp.c ****     goto end;
 210:Middlewares/Third_Party/LwIP/src/core/udp.c ****   }
 211:Middlewares/Third_Party/LwIP/src/core/udp.c **** 
 212:Middlewares/Third_Party/LwIP/src/core/udp.c ****   udphdr = (struct udp_hdr *)p->payload;
 259              		.loc 1 212 0
 260 0010 4468     		ldr	r4, [r0, #4]
 261              	.LVL35:
 213:Middlewares/Third_Party/LwIP/src/core/udp.c **** 
 214:Middlewares/Third_Party/LwIP/src/core/udp.c ****   /* is broadcast packet ? */
 215:Middlewares/Third_Party/LwIP/src/core/udp.c ****   broadcast = ip_addr_isbroadcast(ip_current_dest_addr(), ip_current_netif());
 262              		.loc 1 215 0
 263 0012 424B     		ldr	r3, .L51
 264 0014 1968     		ldr	r1, [r3]
 265              	.LVL36:
 266 0016 5869     		ldr	r0, [r3, #20]
 267              	.LVL37:
 268 0018 FFF7FEFF 		bl	ip4_addr_isbroadcast_u32
 269              	.LVL38:
 270 001c 0390     		str	r0, [sp, #12]
 271              	.LVL39:
 216:Middlewares/Third_Party/LwIP/src/core/udp.c **** 
 217:Middlewares/Third_Party/LwIP/src/core/udp.c ****   LWIP_DEBUGF(UDP_DEBUG, ("udp_input: received datagram of length %"U16_F"\n", p->tot_len));
 218:Middlewares/Third_Party/LwIP/src/core/udp.c **** 
 219:Middlewares/Third_Party/LwIP/src/core/udp.c ****   /* convert src and dest ports to host byte order */
 220:Middlewares/Third_Party/LwIP/src/core/udp.c ****   src = lwip_ntohs(udphdr->src);
 272              		.loc 1 220 0
 273 001e 2088     		ldrh	r0, [r4]	@ unaligned
 274 0020 FFF7FEFF 		bl	lwip_htons
 275              	.LVL40:
 276 0024 8246     		mov	r10, r0
 277              	.LVL41:
 221:Middlewares/Third_Party/LwIP/src/core/udp.c ****   dest = lwip_ntohs(udphdr->dest);
 278              		.loc 1 221 0
 279 0026 6088     		ldrh	r0, [r4, #2]	@ unaligned
 280 0028 FFF7FEFF 		bl	lwip_htons
 281              	.LVL42:
 282 002c 0646     		mov	r6, r0
 283              	.LVL43:
 222:Middlewares/Third_Party/LwIP/src/core/udp.c **** 
 223:Middlewares/Third_Party/LwIP/src/core/udp.c ****   udp_debug_print(udphdr);
 224:Middlewares/Third_Party/LwIP/src/core/udp.c **** 
 225:Middlewares/Third_Party/LwIP/src/core/udp.c ****   /* print the UDP source and destination */
ARM GAS  C:\Users\Patryk\AppData\Local\Temp\ccrZQ8Ea.s 			page 10


 226:Middlewares/Third_Party/LwIP/src/core/udp.c ****   LWIP_DEBUGF(UDP_DEBUG, ("udp ("));
 227:Middlewares/Third_Party/LwIP/src/core/udp.c ****   ip_addr_debug_print(UDP_DEBUG, ip_current_dest_addr());
 228:Middlewares/Third_Party/LwIP/src/core/udp.c ****   LWIP_DEBUGF(UDP_DEBUG, (", %"U16_F") <-- (", lwip_ntohs(udphdr->dest)));
 229:Middlewares/Third_Party/LwIP/src/core/udp.c ****   ip_addr_debug_print(UDP_DEBUG, ip_current_src_addr());
 230:Middlewares/Third_Party/LwIP/src/core/udp.c ****   LWIP_DEBUGF(UDP_DEBUG, (", %"U16_F")\n", lwip_ntohs(udphdr->src)));
 231:Middlewares/Third_Party/LwIP/src/core/udp.c **** 
 232:Middlewares/Third_Party/LwIP/src/core/udp.c ****   pcb = NULL;
 233:Middlewares/Third_Party/LwIP/src/core/udp.c ****   prev = NULL;
 234:Middlewares/Third_Party/LwIP/src/core/udp.c ****   uncon_pcb = NULL;
 235:Middlewares/Third_Party/LwIP/src/core/udp.c ****   /* Iterate through the UDP pcb list for a matching pcb.
 236:Middlewares/Third_Party/LwIP/src/core/udp.c ****    * 'Perfect match' pcbs (connected to the remote port & ip address) are
 237:Middlewares/Third_Party/LwIP/src/core/udp.c ****    * preferred. If no perfect match is found, the first unconnected pcb that
 238:Middlewares/Third_Party/LwIP/src/core/udp.c ****    * matches the local port and ip address gets the datagram. */
 239:Middlewares/Third_Party/LwIP/src/core/udp.c ****   for (pcb = udp_pcbs; pcb != NULL; pcb = pcb->next) {
 284              		.loc 1 239 0
 285 002e 3C4B     		ldr	r3, .L51+4
 286 0030 D3F80090 		ldr	r9, [r3]
 287              	.LVL44:
 288 0034 4C46     		mov	r4, r9
 289              	.LVL45:
 234:Middlewares/Third_Party/LwIP/src/core/udp.c ****   /* Iterate through the UDP pcb list for a matching pcb.
 290              		.loc 1 234 0
 291 0036 4FF0000B 		mov	fp, #0
 233:Middlewares/Third_Party/LwIP/src/core/udp.c ****   uncon_pcb = NULL;
 292              		.loc 1 233 0
 293 003a 5D46     		mov	r5, fp
 294              		.loc 1 239 0
 295 003c 09E0     		b	.L30
 296              	.LVL46:
 297              	.L46:
 208:Middlewares/Third_Party/LwIP/src/core/udp.c ****     goto end;
 298              		.loc 1 208 0
 299 003e FFF7FEFF 		bl	pbuf_free
 300              	.LVL47:
 301              	.L29:
 302              	.L27:
 240:Middlewares/Third_Party/LwIP/src/core/udp.c ****     /* print the PCB local and remote address */
 241:Middlewares/Third_Party/LwIP/src/core/udp.c ****     LWIP_DEBUGF(UDP_DEBUG, ("pcb ("));
 242:Middlewares/Third_Party/LwIP/src/core/udp.c ****     ip_addr_debug_print(UDP_DEBUG, &pcb->local_ip);
 243:Middlewares/Third_Party/LwIP/src/core/udp.c ****     LWIP_DEBUGF(UDP_DEBUG, (", %"U16_F") <-- (", pcb->local_port));
 244:Middlewares/Third_Party/LwIP/src/core/udp.c ****     ip_addr_debug_print(UDP_DEBUG, &pcb->remote_ip);
 245:Middlewares/Third_Party/LwIP/src/core/udp.c ****     LWIP_DEBUGF(UDP_DEBUG, (", %"U16_F")\n", pcb->remote_port));
 246:Middlewares/Third_Party/LwIP/src/core/udp.c **** 
 247:Middlewares/Third_Party/LwIP/src/core/udp.c ****     /* compare PCB local addr+port to UDP destination addr+port */
 248:Middlewares/Third_Party/LwIP/src/core/udp.c ****     if ((pcb->local_port == dest) &&
 249:Middlewares/Third_Party/LwIP/src/core/udp.c ****         (udp_input_local_match(pcb, inp, broadcast) != 0)) {
 250:Middlewares/Third_Party/LwIP/src/core/udp.c ****       if (((pcb->flags & UDP_FLAGS_CONNECTED) == 0) &&
 251:Middlewares/Third_Party/LwIP/src/core/udp.c ****           ((uncon_pcb == NULL)
 252:Middlewares/Third_Party/LwIP/src/core/udp.c **** #if SO_REUSE
 253:Middlewares/Third_Party/LwIP/src/core/udp.c ****           /* prefer specific IPs over cath-all */
 254:Middlewares/Third_Party/LwIP/src/core/udp.c ****           || !ip_addr_isany(&pcb->local_ip)
 255:Middlewares/Third_Party/LwIP/src/core/udp.c **** #endif /* SO_REUSE */
 256:Middlewares/Third_Party/LwIP/src/core/udp.c ****           )) {
 257:Middlewares/Third_Party/LwIP/src/core/udp.c ****         /* the first unconnected matching PCB */
 258:Middlewares/Third_Party/LwIP/src/core/udp.c ****         uncon_pcb = pcb;
 259:Middlewares/Third_Party/LwIP/src/core/udp.c ****       }
 260:Middlewares/Third_Party/LwIP/src/core/udp.c **** 
ARM GAS  C:\Users\Patryk\AppData\Local\Temp\ccrZQ8Ea.s 			page 11


 261:Middlewares/Third_Party/LwIP/src/core/udp.c ****       /* compare PCB remote addr+port to UDP source addr+port */
 262:Middlewares/Third_Party/LwIP/src/core/udp.c ****       if ((pcb->remote_port == src) &&
 263:Middlewares/Third_Party/LwIP/src/core/udp.c ****           (ip_addr_isany_val(pcb->remote_ip) ||
 264:Middlewares/Third_Party/LwIP/src/core/udp.c ****           ip_addr_cmp(&pcb->remote_ip, ip_current_src_addr()))) {
 265:Middlewares/Third_Party/LwIP/src/core/udp.c ****         /* the first fully matching PCB */
 266:Middlewares/Third_Party/LwIP/src/core/udp.c ****         if (prev != NULL) {
 267:Middlewares/Third_Party/LwIP/src/core/udp.c ****           /* move the pcb to the front of udp_pcbs so that is
 268:Middlewares/Third_Party/LwIP/src/core/udp.c ****              found faster next time */
 269:Middlewares/Third_Party/LwIP/src/core/udp.c ****           prev->next = pcb->next;
 270:Middlewares/Third_Party/LwIP/src/core/udp.c ****           pcb->next = udp_pcbs;
 271:Middlewares/Third_Party/LwIP/src/core/udp.c ****           udp_pcbs = pcb;
 272:Middlewares/Third_Party/LwIP/src/core/udp.c ****         } else {
 273:Middlewares/Third_Party/LwIP/src/core/udp.c ****           UDP_STATS_INC(udp.cachehit);
 274:Middlewares/Third_Party/LwIP/src/core/udp.c ****         }
 275:Middlewares/Third_Party/LwIP/src/core/udp.c ****         break;
 276:Middlewares/Third_Party/LwIP/src/core/udp.c ****       }
 277:Middlewares/Third_Party/LwIP/src/core/udp.c ****     }
 278:Middlewares/Third_Party/LwIP/src/core/udp.c **** 
 279:Middlewares/Third_Party/LwIP/src/core/udp.c ****     prev = pcb;
 280:Middlewares/Third_Party/LwIP/src/core/udp.c ****   }
 281:Middlewares/Third_Party/LwIP/src/core/udp.c ****   /* no fully matching pcb found? then look for an unconnected pcb */
 282:Middlewares/Third_Party/LwIP/src/core/udp.c ****   if (pcb == NULL) {
 283:Middlewares/Third_Party/LwIP/src/core/udp.c ****     pcb = uncon_pcb;
 284:Middlewares/Third_Party/LwIP/src/core/udp.c ****   }
 285:Middlewares/Third_Party/LwIP/src/core/udp.c **** 
 286:Middlewares/Third_Party/LwIP/src/core/udp.c ****   /* Check checksum if this is a match or if it was directed at us. */
 287:Middlewares/Third_Party/LwIP/src/core/udp.c ****   if (pcb != NULL) {
 288:Middlewares/Third_Party/LwIP/src/core/udp.c ****     for_us = 1;
 289:Middlewares/Third_Party/LwIP/src/core/udp.c ****   } else {
 290:Middlewares/Third_Party/LwIP/src/core/udp.c **** #if LWIP_IPV6
 291:Middlewares/Third_Party/LwIP/src/core/udp.c ****     if (ip_current_is_v6()) {
 292:Middlewares/Third_Party/LwIP/src/core/udp.c ****       for_us = netif_get_ip6_addr_match(inp, ip6_current_dest_addr()) >= 0;
 293:Middlewares/Third_Party/LwIP/src/core/udp.c ****     }
 294:Middlewares/Third_Party/LwIP/src/core/udp.c **** #endif /* LWIP_IPV6 */
 295:Middlewares/Third_Party/LwIP/src/core/udp.c **** #if LWIP_IPV4
 296:Middlewares/Third_Party/LwIP/src/core/udp.c ****     if (!ip_current_is_v6()) {
 297:Middlewares/Third_Party/LwIP/src/core/udp.c ****       for_us = ip4_addr_cmp(netif_ip4_addr(inp), ip4_current_dest_addr());
 298:Middlewares/Third_Party/LwIP/src/core/udp.c ****     }
 299:Middlewares/Third_Party/LwIP/src/core/udp.c **** #endif /* LWIP_IPV4 */
 300:Middlewares/Third_Party/LwIP/src/core/udp.c ****   }
 301:Middlewares/Third_Party/LwIP/src/core/udp.c **** 
 302:Middlewares/Third_Party/LwIP/src/core/udp.c ****   if (for_us) {
 303:Middlewares/Third_Party/LwIP/src/core/udp.c ****     LWIP_DEBUGF(UDP_DEBUG | LWIP_DBG_TRACE, ("udp_input: calculating checksum\n"));
 304:Middlewares/Third_Party/LwIP/src/core/udp.c **** #if CHECKSUM_CHECK_UDP
 305:Middlewares/Third_Party/LwIP/src/core/udp.c ****     IF__NETIF_CHECKSUM_ENABLED(inp, CHECKSUM_CHECK_UDP) {
 306:Middlewares/Third_Party/LwIP/src/core/udp.c **** #if LWIP_UDPLITE
 307:Middlewares/Third_Party/LwIP/src/core/udp.c ****       if (ip_current_header_proto() == IP_PROTO_UDPLITE) {
 308:Middlewares/Third_Party/LwIP/src/core/udp.c ****         /* Do the UDP Lite checksum */
 309:Middlewares/Third_Party/LwIP/src/core/udp.c ****         u16_t chklen = lwip_ntohs(udphdr->len);
 310:Middlewares/Third_Party/LwIP/src/core/udp.c ****         if (chklen < sizeof(struct udp_hdr)) {
 311:Middlewares/Third_Party/LwIP/src/core/udp.c ****           if (chklen == 0) {
 312:Middlewares/Third_Party/LwIP/src/core/udp.c ****             /* For UDP-Lite, checksum length of 0 means checksum
 313:Middlewares/Third_Party/LwIP/src/core/udp.c ****                over the complete packet (See RFC 3828 chap. 3.1) */
 314:Middlewares/Third_Party/LwIP/src/core/udp.c ****             chklen = p->tot_len;
 315:Middlewares/Third_Party/LwIP/src/core/udp.c ****           } else {
 316:Middlewares/Third_Party/LwIP/src/core/udp.c ****             /* At least the UDP-Lite header must be covered by the
 317:Middlewares/Third_Party/LwIP/src/core/udp.c ****                checksum! (Again, see RFC 3828 chap. 3.1) */
ARM GAS  C:\Users\Patryk\AppData\Local\Temp\ccrZQ8Ea.s 			page 12


 318:Middlewares/Third_Party/LwIP/src/core/udp.c ****             goto chkerr;
 319:Middlewares/Third_Party/LwIP/src/core/udp.c ****           }
 320:Middlewares/Third_Party/LwIP/src/core/udp.c ****         }
 321:Middlewares/Third_Party/LwIP/src/core/udp.c ****         if (ip_chksum_pseudo_partial(p, IP_PROTO_UDPLITE,
 322:Middlewares/Third_Party/LwIP/src/core/udp.c ****                      p->tot_len, chklen,
 323:Middlewares/Third_Party/LwIP/src/core/udp.c ****                      ip_current_src_addr(), ip_current_dest_addr()) != 0) {
 324:Middlewares/Third_Party/LwIP/src/core/udp.c ****           goto chkerr;
 325:Middlewares/Third_Party/LwIP/src/core/udp.c ****         }
 326:Middlewares/Third_Party/LwIP/src/core/udp.c ****       } else
 327:Middlewares/Third_Party/LwIP/src/core/udp.c **** #endif /* LWIP_UDPLITE */
 328:Middlewares/Third_Party/LwIP/src/core/udp.c ****       {
 329:Middlewares/Third_Party/LwIP/src/core/udp.c ****         if (udphdr->chksum != 0) {
 330:Middlewares/Third_Party/LwIP/src/core/udp.c ****           if (ip_chksum_pseudo(p, IP_PROTO_UDP, p->tot_len,
 331:Middlewares/Third_Party/LwIP/src/core/udp.c ****                                ip_current_src_addr(),
 332:Middlewares/Third_Party/LwIP/src/core/udp.c ****                                ip_current_dest_addr()) != 0) {
 333:Middlewares/Third_Party/LwIP/src/core/udp.c ****             goto chkerr;
 334:Middlewares/Third_Party/LwIP/src/core/udp.c ****           }
 335:Middlewares/Third_Party/LwIP/src/core/udp.c ****         }
 336:Middlewares/Third_Party/LwIP/src/core/udp.c ****       }
 337:Middlewares/Third_Party/LwIP/src/core/udp.c ****     }
 338:Middlewares/Third_Party/LwIP/src/core/udp.c **** #endif /* CHECKSUM_CHECK_UDP */
 339:Middlewares/Third_Party/LwIP/src/core/udp.c ****     if (pbuf_header(p, -UDP_HLEN)) {
 340:Middlewares/Third_Party/LwIP/src/core/udp.c ****       /* Can we cope with this failing? Just assert for now */
 341:Middlewares/Third_Party/LwIP/src/core/udp.c ****       LWIP_ASSERT("pbuf_header failed\n", 0);
 342:Middlewares/Third_Party/LwIP/src/core/udp.c ****       UDP_STATS_INC(udp.drop);
 343:Middlewares/Third_Party/LwIP/src/core/udp.c ****       MIB2_STATS_INC(mib2.udpinerrors);
 344:Middlewares/Third_Party/LwIP/src/core/udp.c ****       pbuf_free(p);
 345:Middlewares/Third_Party/LwIP/src/core/udp.c ****       goto end;
 346:Middlewares/Third_Party/LwIP/src/core/udp.c ****     }
 347:Middlewares/Third_Party/LwIP/src/core/udp.c **** 
 348:Middlewares/Third_Party/LwIP/src/core/udp.c ****     if (pcb != NULL) {
 349:Middlewares/Third_Party/LwIP/src/core/udp.c ****       MIB2_STATS_INC(mib2.udpindatagrams);
 350:Middlewares/Third_Party/LwIP/src/core/udp.c **** #if SO_REUSE && SO_REUSE_RXTOALL
 351:Middlewares/Third_Party/LwIP/src/core/udp.c ****       if (ip_get_option(pcb, SOF_REUSEADDR) &&
 352:Middlewares/Third_Party/LwIP/src/core/udp.c ****           (broadcast || ip_addr_ismulticast(ip_current_dest_addr()))) {
 353:Middlewares/Third_Party/LwIP/src/core/udp.c ****         /* pass broadcast- or multicast packets to all multicast pcbs
 354:Middlewares/Third_Party/LwIP/src/core/udp.c ****            if SOF_REUSEADDR is set on the first match */
 355:Middlewares/Third_Party/LwIP/src/core/udp.c ****         struct udp_pcb *mpcb;
 356:Middlewares/Third_Party/LwIP/src/core/udp.c ****         u8_t p_header_changed = 0;
 357:Middlewares/Third_Party/LwIP/src/core/udp.c ****         s16_t hdrs_len = (s16_t)(ip_current_header_tot_len() + UDP_HLEN);
 358:Middlewares/Third_Party/LwIP/src/core/udp.c ****         for (mpcb = udp_pcbs; mpcb != NULL; mpcb = mpcb->next) {
 359:Middlewares/Third_Party/LwIP/src/core/udp.c ****           if (mpcb != pcb) {
 360:Middlewares/Third_Party/LwIP/src/core/udp.c ****             /* compare PCB local addr+port to UDP destination addr+port */
 361:Middlewares/Third_Party/LwIP/src/core/udp.c ****             if ((mpcb->local_port == dest) &&
 362:Middlewares/Third_Party/LwIP/src/core/udp.c ****                 (udp_input_local_match(mpcb, inp, broadcast) != 0)) {
 363:Middlewares/Third_Party/LwIP/src/core/udp.c ****               /* pass a copy of the packet to all local matches */
 364:Middlewares/Third_Party/LwIP/src/core/udp.c ****               if (mpcb->recv != NULL) {
 365:Middlewares/Third_Party/LwIP/src/core/udp.c ****                 struct pbuf *q;
 366:Middlewares/Third_Party/LwIP/src/core/udp.c ****                 /* for that, move payload to IP header again */
 367:Middlewares/Third_Party/LwIP/src/core/udp.c ****                 if (p_header_changed == 0) {
 368:Middlewares/Third_Party/LwIP/src/core/udp.c ****                   pbuf_header_force(p, hdrs_len);
 369:Middlewares/Third_Party/LwIP/src/core/udp.c ****                   p_header_changed = 1;
 370:Middlewares/Third_Party/LwIP/src/core/udp.c ****                 }
 371:Middlewares/Third_Party/LwIP/src/core/udp.c ****                 q = pbuf_alloc(PBUF_RAW, p->tot_len, PBUF_RAM);
 372:Middlewares/Third_Party/LwIP/src/core/udp.c ****                 if (q != NULL) {
 373:Middlewares/Third_Party/LwIP/src/core/udp.c ****                   err_t err = pbuf_copy(q, p);
 374:Middlewares/Third_Party/LwIP/src/core/udp.c ****                   if (err == ERR_OK) {
ARM GAS  C:\Users\Patryk\AppData\Local\Temp\ccrZQ8Ea.s 			page 13


 375:Middlewares/Third_Party/LwIP/src/core/udp.c ****                     /* move payload to UDP data */
 376:Middlewares/Third_Party/LwIP/src/core/udp.c ****                     pbuf_header(q, -hdrs_len);
 377:Middlewares/Third_Party/LwIP/src/core/udp.c ****                     mpcb->recv(mpcb->recv_arg, mpcb, q, ip_current_src_addr(), src);
 378:Middlewares/Third_Party/LwIP/src/core/udp.c ****                   }
 379:Middlewares/Third_Party/LwIP/src/core/udp.c ****                 }
 380:Middlewares/Third_Party/LwIP/src/core/udp.c ****               }
 381:Middlewares/Third_Party/LwIP/src/core/udp.c ****             }
 382:Middlewares/Third_Party/LwIP/src/core/udp.c ****           }
 383:Middlewares/Third_Party/LwIP/src/core/udp.c ****         }
 384:Middlewares/Third_Party/LwIP/src/core/udp.c ****         if (p_header_changed) {
 385:Middlewares/Third_Party/LwIP/src/core/udp.c ****           /* and move payload to UDP data again */
 386:Middlewares/Third_Party/LwIP/src/core/udp.c ****           pbuf_header(p, -hdrs_len);
 387:Middlewares/Third_Party/LwIP/src/core/udp.c ****         }
 388:Middlewares/Third_Party/LwIP/src/core/udp.c ****       }
 389:Middlewares/Third_Party/LwIP/src/core/udp.c **** #endif /* SO_REUSE && SO_REUSE_RXTOALL */
 390:Middlewares/Third_Party/LwIP/src/core/udp.c ****       /* callback */
 391:Middlewares/Third_Party/LwIP/src/core/udp.c ****       if (pcb->recv != NULL) {
 392:Middlewares/Third_Party/LwIP/src/core/udp.c ****         /* now the recv function is responsible for freeing p */
 393:Middlewares/Third_Party/LwIP/src/core/udp.c ****         pcb->recv(pcb->recv_arg, pcb, p, ip_current_src_addr(), src);
 394:Middlewares/Third_Party/LwIP/src/core/udp.c ****       } else {
 395:Middlewares/Third_Party/LwIP/src/core/udp.c ****         /* no recv function registered? then we have to free the pbuf! */
 396:Middlewares/Third_Party/LwIP/src/core/udp.c ****         pbuf_free(p);
 397:Middlewares/Third_Party/LwIP/src/core/udp.c ****         goto end;
 398:Middlewares/Third_Party/LwIP/src/core/udp.c ****       }
 399:Middlewares/Third_Party/LwIP/src/core/udp.c ****     } else {
 400:Middlewares/Third_Party/LwIP/src/core/udp.c ****       LWIP_DEBUGF(UDP_DEBUG | LWIP_DBG_TRACE, ("udp_input: not for us.\n"));
 401:Middlewares/Third_Party/LwIP/src/core/udp.c **** 
 402:Middlewares/Third_Party/LwIP/src/core/udp.c **** #if LWIP_ICMP || LWIP_ICMP6
 403:Middlewares/Third_Party/LwIP/src/core/udp.c ****       /* No match was found, send ICMP destination port unreachable unless
 404:Middlewares/Third_Party/LwIP/src/core/udp.c ****          destination address was broadcast/multicast. */
 405:Middlewares/Third_Party/LwIP/src/core/udp.c ****       if (!broadcast && !ip_addr_ismulticast(ip_current_dest_addr())) {
 406:Middlewares/Third_Party/LwIP/src/core/udp.c ****         /* move payload pointer back to ip header */
 407:Middlewares/Third_Party/LwIP/src/core/udp.c ****         pbuf_header_force(p, (s16_t)(ip_current_header_tot_len() + UDP_HLEN));
 408:Middlewares/Third_Party/LwIP/src/core/udp.c ****         icmp_port_unreach(ip_current_is_v6(), p);
 409:Middlewares/Third_Party/LwIP/src/core/udp.c ****       }
 410:Middlewares/Third_Party/LwIP/src/core/udp.c **** #endif /* LWIP_ICMP || LWIP_ICMP6 */
 411:Middlewares/Third_Party/LwIP/src/core/udp.c ****       UDP_STATS_INC(udp.proterr);
 412:Middlewares/Third_Party/LwIP/src/core/udp.c ****       UDP_STATS_INC(udp.drop);
 413:Middlewares/Third_Party/LwIP/src/core/udp.c ****       MIB2_STATS_INC(mib2.udpnoports);
 414:Middlewares/Third_Party/LwIP/src/core/udp.c ****       pbuf_free(p);
 415:Middlewares/Third_Party/LwIP/src/core/udp.c ****     }
 416:Middlewares/Third_Party/LwIP/src/core/udp.c ****   } else {
 417:Middlewares/Third_Party/LwIP/src/core/udp.c ****     pbuf_free(p);
 418:Middlewares/Third_Party/LwIP/src/core/udp.c ****   }
 419:Middlewares/Third_Party/LwIP/src/core/udp.c **** end:
 420:Middlewares/Third_Party/LwIP/src/core/udp.c ****   PERF_STOP("udp_input");
 421:Middlewares/Third_Party/LwIP/src/core/udp.c ****   return;
 422:Middlewares/Third_Party/LwIP/src/core/udp.c **** #if CHECKSUM_CHECK_UDP
 423:Middlewares/Third_Party/LwIP/src/core/udp.c **** chkerr:
 424:Middlewares/Third_Party/LwIP/src/core/udp.c ****   LWIP_DEBUGF(UDP_DEBUG | LWIP_DBG_LEVEL_SERIOUS,
 425:Middlewares/Third_Party/LwIP/src/core/udp.c ****               ("udp_input: UDP (or UDP Lite) datagram discarded due to failing checksum\n"));
 426:Middlewares/Third_Party/LwIP/src/core/udp.c ****   UDP_STATS_INC(udp.chkerr);
 427:Middlewares/Third_Party/LwIP/src/core/udp.c ****   UDP_STATS_INC(udp.drop);
 428:Middlewares/Third_Party/LwIP/src/core/udp.c ****   MIB2_STATS_INC(mib2.udpinerrors);
 429:Middlewares/Third_Party/LwIP/src/core/udp.c ****   pbuf_free(p);
 430:Middlewares/Third_Party/LwIP/src/core/udp.c ****   PERF_STOP("udp_input");
 431:Middlewares/Third_Party/LwIP/src/core/udp.c **** #endif /* CHECKSUM_CHECK_UDP */
ARM GAS  C:\Users\Patryk\AppData\Local\Temp\ccrZQ8Ea.s 			page 14


 432:Middlewares/Third_Party/LwIP/src/core/udp.c **** }
 303              		.loc 1 432 0
 304 0042 05B0     		add	sp, sp, #20
 305              	.LCFI2:
 306              		.cfi_remember_state
 307              		.cfi_def_cfa_offset 36
 308              		@ sp needed
 309 0044 BDE8F08F 		pop	{r4, r5, r6, r7, r8, r9, r10, fp, pc}
 310              	.LVL48:
 311              	.L32:
 312              	.LCFI3:
 313              		.cfi_restore_state
 262:Middlewares/Third_Party/LwIP/src/core/udp.c ****           (ip_addr_isany_val(pcb->remote_ip) ||
 314              		.loc 1 262 0
 315 0048 A38A     		ldrh	r3, [r4, #20]
 316 004a 5345     		cmp	r3, r10
 317 004c 15D0     		beq	.L47
 318              	.L31:
 319              	.LVL49:
 279:Middlewares/Third_Party/LwIP/src/core/udp.c ****   }
 320              		.loc 1 279 0 discriminator 2
 321 004e 2546     		mov	r5, r4
 239:Middlewares/Third_Party/LwIP/src/core/udp.c ****     /* print the PCB local and remote address */
 322              		.loc 1 239 0 discriminator 2
 323 0050 E468     		ldr	r4, [r4, #12]
 324              	.LVL50:
 325              	.L30:
 239:Middlewares/Third_Party/LwIP/src/core/udp.c ****     /* print the PCB local and remote address */
 326              		.loc 1 239 0 is_stmt 0 discriminator 1
 327 0052 FCB1     		cbz	r4, .L34
 248:Middlewares/Third_Party/LwIP/src/core/udp.c ****         (udp_input_local_match(pcb, inp, broadcast) != 0)) {
 328              		.loc 1 248 0 is_stmt 1
 329 0054 638A     		ldrh	r3, [r4, #18]
 330 0056 B342     		cmp	r3, r6
 331 0058 F9D1     		bne	.L31
 249:Middlewares/Third_Party/LwIP/src/core/udp.c ****       if (((pcb->flags & UDP_FLAGS_CONNECTED) == 0) &&
 332              		.loc 1 249 0 discriminator 1
 333 005a 039A     		ldr	r2, [sp, #12]
 334 005c 3946     		mov	r1, r7
 335 005e 2046     		mov	r0, r4
 336 0060 FFF7FEFF 		bl	udp_input_local_match
 337              	.LVL51:
 248:Middlewares/Third_Party/LwIP/src/core/udp.c ****         (udp_input_local_match(pcb, inp, broadcast) != 0)) {
 338              		.loc 1 248 0 discriminator 1
 339 0064 0028     		cmp	r0, #0
 340 0066 F2D0     		beq	.L31
 250:Middlewares/Third_Party/LwIP/src/core/udp.c ****           ((uncon_pcb == NULL)
 341              		.loc 1 250 0
 342 0068 237C     		ldrb	r3, [r4, #16]	@ zero_extendqisi2
 343 006a 13F0040F 		tst	r3, #4
 344 006e EBD1     		bne	.L32
 250:Middlewares/Third_Party/LwIP/src/core/udp.c ****           ((uncon_pcb == NULL)
 345              		.loc 1 250 0 is_stmt 0 discriminator 1
 346 0070 BBF1000F 		cmp	fp, #0
 347 0074 E8D1     		bne	.L32
 258:Middlewares/Third_Party/LwIP/src/core/udp.c ****       }
 348              		.loc 1 258 0 is_stmt 1
ARM GAS  C:\Users\Patryk\AppData\Local\Temp\ccrZQ8Ea.s 			page 15


 349 0076 A346     		mov	fp, r4
 350              	.LVL52:
 351 0078 E6E7     		b	.L32
 352              	.LVL53:
 353              	.L47:
 263:Middlewares/Third_Party/LwIP/src/core/udp.c ****           ip_addr_cmp(&pcb->remote_ip, ip_current_src_addr()))) {
 354              		.loc 1 263 0 discriminator 1
 355 007a 6368     		ldr	r3, [r4, #4]
 262:Middlewares/Third_Party/LwIP/src/core/udp.c ****           (ip_addr_isany_val(pcb->remote_ip) ||
 356              		.loc 1 262 0 discriminator 1
 357 007c 1BB1     		cbz	r3, .L33
 264:Middlewares/Third_Party/LwIP/src/core/udp.c ****         /* the first fully matching PCB */
 358              		.loc 1 264 0
 359 007e 274A     		ldr	r2, .L51
 360 0080 1269     		ldr	r2, [r2, #16]
 263:Middlewares/Third_Party/LwIP/src/core/udp.c ****           ip_addr_cmp(&pcb->remote_ip, ip_current_src_addr()))) {
 361              		.loc 1 263 0
 362 0082 9342     		cmp	r3, r2
 363 0084 E3D1     		bne	.L31
 364              	.L33:
 266:Middlewares/Third_Party/LwIP/src/core/udp.c ****           /* move the pcb to the front of udp_pcbs so that is
 365              		.loc 1 266 0
 366 0086 2DB1     		cbz	r5, .L34
 269:Middlewares/Third_Party/LwIP/src/core/udp.c ****           pcb->next = udp_pcbs;
 367              		.loc 1 269 0
 368 0088 E368     		ldr	r3, [r4, #12]
 369 008a EB60     		str	r3, [r5, #12]
 270:Middlewares/Third_Party/LwIP/src/core/udp.c ****           udp_pcbs = pcb;
 370              		.loc 1 270 0
 371 008c C4F80C90 		str	r9, [r4, #12]
 271:Middlewares/Third_Party/LwIP/src/core/udp.c ****         } else {
 372              		.loc 1 271 0
 373 0090 234B     		ldr	r3, .L51+4
 374 0092 1C60     		str	r4, [r3]
 375              	.L34:
 282:Middlewares/Third_Party/LwIP/src/core/udp.c ****     pcb = uncon_pcb;
 376              		.loc 1 282 0
 377 0094 8CB1     		cbz	r4, .L48
 378              	.LVL54:
 379              	.L36:
 287:Middlewares/Third_Party/LwIP/src/core/udp.c ****     for_us = 1;
 380              		.loc 1 287 0
 381 0096 94B1     		cbz	r4, .L49
 382              	.LVL55:
 383              	.L37:
 339:Middlewares/Third_Party/LwIP/src/core/udp.c ****       /* Can we cope with this failing? Just assert for now */
 384              		.loc 1 339 0
 385 0098 6FF00701 		mvn	r1, #7
 386 009c 4046     		mov	r0, r8
 387 009e FFF7FEFF 		bl	pbuf_header
 388              	.LVL56:
 389 00a2 A8B9     		cbnz	r0, .L50
 348:Middlewares/Third_Party/LwIP/src/core/udp.c ****       MIB2_STATS_INC(mib2.udpindatagrams);
 390              		.loc 1 348 0
 391 00a4 1CB3     		cbz	r4, .L40
 391:Middlewares/Third_Party/LwIP/src/core/udp.c ****         /* now the recv function is responsible for freeing p */
 392              		.loc 1 391 0
ARM GAS  C:\Users\Patryk\AppData\Local\Temp\ccrZQ8Ea.s 			page 16


 393 00a6 A569     		ldr	r5, [r4, #24]
 394              	.LVL57:
 395 00a8 EDB1     		cbz	r5, .L41
 393:Middlewares/Third_Party/LwIP/src/core/udp.c ****       } else {
 396              		.loc 1 393 0
 397 00aa E069     		ldr	r0, [r4, #28]
 398 00ac CDF800A0 		str	r10, [sp]
 399 00b0 1C4B     		ldr	r3, .L51+8
 400 00b2 4246     		mov	r2, r8
 401 00b4 2146     		mov	r1, r4
 402 00b6 A847     		blx	r5
 403              	.LVL58:
 404 00b8 C3E7     		b	.L27
 405              	.LVL59:
 406              	.L48:
 283:Middlewares/Third_Party/LwIP/src/core/udp.c ****   }
 407              		.loc 1 283 0
 408 00ba 5C46     		mov	r4, fp
 409              	.LVL60:
 410 00bc EBE7     		b	.L36
 411              	.LVL61:
 412              	.L49:
 297:Middlewares/Third_Party/LwIP/src/core/udp.c ****     }
 413              		.loc 1 297 0
 414 00be 7A68     		ldr	r2, [r7, #4]
 415 00c0 164B     		ldr	r3, .L51
 416 00c2 5B69     		ldr	r3, [r3, #20]
 417              	.LVL62:
 302:Middlewares/Third_Party/LwIP/src/core/udp.c ****     LWIP_DEBUGF(UDP_DEBUG | LWIP_DBG_TRACE, ("udp_input: calculating checksum\n"));
 418              		.loc 1 302 0
 419 00c4 9A42     		cmp	r2, r3
 420 00c6 E7D0     		beq	.L37
 417:Middlewares/Third_Party/LwIP/src/core/udp.c ****   }
 421              		.loc 1 417 0
 422 00c8 4046     		mov	r0, r8
 423 00ca FFF7FEFF 		bl	pbuf_free
 424              	.LVL63:
 421:Middlewares/Third_Party/LwIP/src/core/udp.c **** #if CHECKSUM_CHECK_UDP
 425              		.loc 1 421 0
 426 00ce B8E7     		b	.L27
 427              	.L50:
 341:Middlewares/Third_Party/LwIP/src/core/udp.c ****       UDP_STATS_INC(udp.drop);
 428              		.loc 1 341 0 discriminator 1
 429 00d0 154B     		ldr	r3, .L51+12
 430 00d2 40F25512 		movw	r2, #341
 431 00d6 1549     		ldr	r1, .L51+16
 432 00d8 1548     		ldr	r0, .L51+20
 433 00da FFF7FEFF 		bl	printf
 434              	.LVL64:
 344:Middlewares/Third_Party/LwIP/src/core/udp.c ****       goto end;
 435              		.loc 1 344 0 discriminator 1
 436 00de 4046     		mov	r0, r8
 437 00e0 FFF7FEFF 		bl	pbuf_free
 438              	.LVL65:
 345:Middlewares/Third_Party/LwIP/src/core/udp.c ****     }
 439              		.loc 1 345 0 discriminator 1
 440 00e4 ADE7     		b	.L27
ARM GAS  C:\Users\Patryk\AppData\Local\Temp\ccrZQ8Ea.s 			page 17


 441              	.LVL66:
 442              	.L41:
 396:Middlewares/Third_Party/LwIP/src/core/udp.c ****         goto end;
 443              		.loc 1 396 0
 444 00e6 4046     		mov	r0, r8
 445 00e8 FFF7FEFF 		bl	pbuf_free
 446              	.LVL67:
 397:Middlewares/Third_Party/LwIP/src/core/udp.c ****       }
 447              		.loc 1 397 0
 448 00ec A9E7     		b	.L27
 449              	.LVL68:
 450              	.L40:
 405:Middlewares/Third_Party/LwIP/src/core/udp.c ****         /* move payload pointer back to ip header */
 451              		.loc 1 405 0
 452 00ee 039B     		ldr	r3, [sp, #12]
 453 00f0 83B9     		cbnz	r3, .L42
 405:Middlewares/Third_Party/LwIP/src/core/udp.c ****         /* move payload pointer back to ip header */
 454              		.loc 1 405 0 is_stmt 0 discriminator 1
 455 00f2 0A4B     		ldr	r3, .L51
 456 00f4 5B69     		ldr	r3, [r3, #20]
 457 00f6 03F0F003 		and	r3, r3, #240
 458 00fa E02B     		cmp	r3, #224
 459 00fc 0AD0     		beq	.L42
 407:Middlewares/Third_Party/LwIP/src/core/udp.c ****         icmp_port_unreach(ip_current_is_v6(), p);
 460              		.loc 1 407 0 is_stmt 1
 461 00fe 074B     		ldr	r3, .L51
 462 0100 9989     		ldrh	r1, [r3, #12]
 463 0102 0831     		adds	r1, r1, #8
 464 0104 09B2     		sxth	r1, r1
 465 0106 4046     		mov	r0, r8
 466 0108 FFF7FEFF 		bl	pbuf_header_force
 467              	.LVL69:
 408:Middlewares/Third_Party/LwIP/src/core/udp.c ****       }
 468              		.loc 1 408 0
 469 010c 0321     		movs	r1, #3
 470 010e 4046     		mov	r0, r8
 471 0110 FFF7FEFF 		bl	icmp_dest_unreach
 472              	.LVL70:
 473              	.L42:
 414:Middlewares/Third_Party/LwIP/src/core/udp.c ****     }
 474              		.loc 1 414 0
 475 0114 4046     		mov	r0, r8
 476 0116 FFF7FEFF 		bl	pbuf_free
 477              	.LVL71:
 478 011a 92E7     		b	.L27
 479              	.L52:
 480              		.align	2
 481              	.L51:
 482 011c 00000000 		.word	ip_data
 483 0120 00000000 		.word	udp_pcbs
 484 0124 10000000 		.word	ip_data+16
 485 0128 00000000 		.word	.LC0
 486 012c 2C000000 		.word	.LC1
 487 0130 40000000 		.word	.LC2
 488              		.cfi_endproc
 489              	.LFE157:
 491              		.section	.text.udp_bind,"ax",%progbits
ARM GAS  C:\Users\Patryk\AppData\Local\Temp\ccrZQ8Ea.s 			page 18


 492              		.align	1
 493              		.global	udp_bind
 494              		.syntax unified
 495              		.thumb
 496              		.thumb_func
 497              		.fpu fpv5-sp-d16
 499              	udp_bind:
 500              	.LFB162:
 433:Middlewares/Third_Party/LwIP/src/core/udp.c **** 
 434:Middlewares/Third_Party/LwIP/src/core/udp.c **** /**
 435:Middlewares/Third_Party/LwIP/src/core/udp.c ****  * @ingroup udp_raw
 436:Middlewares/Third_Party/LwIP/src/core/udp.c ****  * Send data using UDP.
 437:Middlewares/Third_Party/LwIP/src/core/udp.c ****  *
 438:Middlewares/Third_Party/LwIP/src/core/udp.c ****  * @param pcb UDP PCB used to send the data.
 439:Middlewares/Third_Party/LwIP/src/core/udp.c ****  * @param p chain of pbuf's to be sent.
 440:Middlewares/Third_Party/LwIP/src/core/udp.c ****  *
 441:Middlewares/Third_Party/LwIP/src/core/udp.c ****  * The datagram will be sent to the current remote_ip & remote_port
 442:Middlewares/Third_Party/LwIP/src/core/udp.c ****  * stored in pcb. If the pcb is not bound to a port, it will
 443:Middlewares/Third_Party/LwIP/src/core/udp.c ****  * automatically be bound to a random port.
 444:Middlewares/Third_Party/LwIP/src/core/udp.c ****  *
 445:Middlewares/Third_Party/LwIP/src/core/udp.c ****  * @return lwIP error code.
 446:Middlewares/Third_Party/LwIP/src/core/udp.c ****  * - ERR_OK. Successful. No error occurred.
 447:Middlewares/Third_Party/LwIP/src/core/udp.c ****  * - ERR_MEM. Out of memory.
 448:Middlewares/Third_Party/LwIP/src/core/udp.c ****  * - ERR_RTE. Could not find route to destination address.
 449:Middlewares/Third_Party/LwIP/src/core/udp.c ****  * - ERR_VAL. No PCB or PCB is dual-stack
 450:Middlewares/Third_Party/LwIP/src/core/udp.c ****  * - More errors could be returned by lower protocol layers.
 451:Middlewares/Third_Party/LwIP/src/core/udp.c ****  *
 452:Middlewares/Third_Party/LwIP/src/core/udp.c ****  * @see udp_disconnect() udp_sendto()
 453:Middlewares/Third_Party/LwIP/src/core/udp.c ****  */
 454:Middlewares/Third_Party/LwIP/src/core/udp.c **** err_t
 455:Middlewares/Third_Party/LwIP/src/core/udp.c **** udp_send(struct udp_pcb *pcb, struct pbuf *p)
 456:Middlewares/Third_Party/LwIP/src/core/udp.c **** {
 457:Middlewares/Third_Party/LwIP/src/core/udp.c ****   if ((pcb == NULL) || IP_IS_ANY_TYPE_VAL(pcb->remote_ip)) {
 458:Middlewares/Third_Party/LwIP/src/core/udp.c ****     return ERR_VAL;
 459:Middlewares/Third_Party/LwIP/src/core/udp.c ****   }
 460:Middlewares/Third_Party/LwIP/src/core/udp.c **** 
 461:Middlewares/Third_Party/LwIP/src/core/udp.c ****   /* send to the packet using remote ip and port stored in the pcb */
 462:Middlewares/Third_Party/LwIP/src/core/udp.c ****   return udp_sendto(pcb, p, &pcb->remote_ip, pcb->remote_port);
 463:Middlewares/Third_Party/LwIP/src/core/udp.c **** }
 464:Middlewares/Third_Party/LwIP/src/core/udp.c **** 
 465:Middlewares/Third_Party/LwIP/src/core/udp.c **** #if LWIP_CHECKSUM_ON_COPY && CHECKSUM_GEN_UDP
 466:Middlewares/Third_Party/LwIP/src/core/udp.c **** /** @ingroup udp_raw
 467:Middlewares/Third_Party/LwIP/src/core/udp.c ****  * Same as udp_send() but with checksum
 468:Middlewares/Third_Party/LwIP/src/core/udp.c ****  */
 469:Middlewares/Third_Party/LwIP/src/core/udp.c **** err_t
 470:Middlewares/Third_Party/LwIP/src/core/udp.c **** udp_send_chksum(struct udp_pcb *pcb, struct pbuf *p,
 471:Middlewares/Third_Party/LwIP/src/core/udp.c ****                 u8_t have_chksum, u16_t chksum)
 472:Middlewares/Third_Party/LwIP/src/core/udp.c **** {
 473:Middlewares/Third_Party/LwIP/src/core/udp.c ****   if ((pcb == NULL) || IP_IS_ANY_TYPE_VAL(pcb->remote_ip)) {
 474:Middlewares/Third_Party/LwIP/src/core/udp.c ****     return ERR_VAL;
 475:Middlewares/Third_Party/LwIP/src/core/udp.c ****   }
 476:Middlewares/Third_Party/LwIP/src/core/udp.c **** 
 477:Middlewares/Third_Party/LwIP/src/core/udp.c ****   /* send to the packet using remote ip and port stored in the pcb */
 478:Middlewares/Third_Party/LwIP/src/core/udp.c ****   return udp_sendto_chksum(pcb, p, &pcb->remote_ip, pcb->remote_port,
 479:Middlewares/Third_Party/LwIP/src/core/udp.c ****     have_chksum, chksum);
 480:Middlewares/Third_Party/LwIP/src/core/udp.c **** }
 481:Middlewares/Third_Party/LwIP/src/core/udp.c **** #endif /* LWIP_CHECKSUM_ON_COPY && CHECKSUM_GEN_UDP */
ARM GAS  C:\Users\Patryk\AppData\Local\Temp\ccrZQ8Ea.s 			page 19


 482:Middlewares/Third_Party/LwIP/src/core/udp.c **** 
 483:Middlewares/Third_Party/LwIP/src/core/udp.c **** /**
 484:Middlewares/Third_Party/LwIP/src/core/udp.c ****  * @ingroup udp_raw
 485:Middlewares/Third_Party/LwIP/src/core/udp.c ****  * Send data to a specified address using UDP.
 486:Middlewares/Third_Party/LwIP/src/core/udp.c ****  *
 487:Middlewares/Third_Party/LwIP/src/core/udp.c ****  * @param pcb UDP PCB used to send the data.
 488:Middlewares/Third_Party/LwIP/src/core/udp.c ****  * @param p chain of pbuf's to be sent.
 489:Middlewares/Third_Party/LwIP/src/core/udp.c ****  * @param dst_ip Destination IP address.
 490:Middlewares/Third_Party/LwIP/src/core/udp.c ****  * @param dst_port Destination UDP port.
 491:Middlewares/Third_Party/LwIP/src/core/udp.c ****  *
 492:Middlewares/Third_Party/LwIP/src/core/udp.c ****  * dst_ip & dst_port are expected to be in the same byte order as in the pcb.
 493:Middlewares/Third_Party/LwIP/src/core/udp.c ****  *
 494:Middlewares/Third_Party/LwIP/src/core/udp.c ****  * If the PCB already has a remote address association, it will
 495:Middlewares/Third_Party/LwIP/src/core/udp.c ****  * be restored after the data is sent.
 496:Middlewares/Third_Party/LwIP/src/core/udp.c ****  *
 497:Middlewares/Third_Party/LwIP/src/core/udp.c ****  * @return lwIP error code (@see udp_send for possible error codes)
 498:Middlewares/Third_Party/LwIP/src/core/udp.c ****  *
 499:Middlewares/Third_Party/LwIP/src/core/udp.c ****  * @see udp_disconnect() udp_send()
 500:Middlewares/Third_Party/LwIP/src/core/udp.c ****  */
 501:Middlewares/Third_Party/LwIP/src/core/udp.c **** err_t
 502:Middlewares/Third_Party/LwIP/src/core/udp.c **** udp_sendto(struct udp_pcb *pcb, struct pbuf *p,
 503:Middlewares/Third_Party/LwIP/src/core/udp.c ****   const ip_addr_t *dst_ip, u16_t dst_port)
 504:Middlewares/Third_Party/LwIP/src/core/udp.c **** {
 505:Middlewares/Third_Party/LwIP/src/core/udp.c **** #if LWIP_CHECKSUM_ON_COPY && CHECKSUM_GEN_UDP
 506:Middlewares/Third_Party/LwIP/src/core/udp.c ****   return udp_sendto_chksum(pcb, p, dst_ip, dst_port, 0, 0);
 507:Middlewares/Third_Party/LwIP/src/core/udp.c **** }
 508:Middlewares/Third_Party/LwIP/src/core/udp.c **** 
 509:Middlewares/Third_Party/LwIP/src/core/udp.c **** /** @ingroup udp_raw
 510:Middlewares/Third_Party/LwIP/src/core/udp.c ****  * Same as udp_sendto(), but with checksum */
 511:Middlewares/Third_Party/LwIP/src/core/udp.c **** err_t
 512:Middlewares/Third_Party/LwIP/src/core/udp.c **** udp_sendto_chksum(struct udp_pcb *pcb, struct pbuf *p, const ip_addr_t *dst_ip,
 513:Middlewares/Third_Party/LwIP/src/core/udp.c ****                   u16_t dst_port, u8_t have_chksum, u16_t chksum)
 514:Middlewares/Third_Party/LwIP/src/core/udp.c **** {
 515:Middlewares/Third_Party/LwIP/src/core/udp.c **** #endif /* LWIP_CHECKSUM_ON_COPY && CHECKSUM_GEN_UDP */
 516:Middlewares/Third_Party/LwIP/src/core/udp.c ****   struct netif *netif;
 517:Middlewares/Third_Party/LwIP/src/core/udp.c ****   const ip_addr_t *dst_ip_route = dst_ip;
 518:Middlewares/Third_Party/LwIP/src/core/udp.c **** 
 519:Middlewares/Third_Party/LwIP/src/core/udp.c ****   if ((pcb == NULL) || (dst_ip == NULL) || !IP_ADDR_PCB_VERSION_MATCH(pcb, dst_ip)) {
 520:Middlewares/Third_Party/LwIP/src/core/udp.c ****     return ERR_VAL;
 521:Middlewares/Third_Party/LwIP/src/core/udp.c ****   }
 522:Middlewares/Third_Party/LwIP/src/core/udp.c **** 
 523:Middlewares/Third_Party/LwIP/src/core/udp.c ****   LWIP_DEBUGF(UDP_DEBUG | LWIP_DBG_TRACE, ("udp_send\n"));
 524:Middlewares/Third_Party/LwIP/src/core/udp.c **** 
 525:Middlewares/Third_Party/LwIP/src/core/udp.c **** #if LWIP_IPV6 || (LWIP_IPV4 && LWIP_MULTICAST_TX_OPTIONS)
 526:Middlewares/Third_Party/LwIP/src/core/udp.c ****   if (ip_addr_ismulticast(dst_ip_route)) {
 527:Middlewares/Third_Party/LwIP/src/core/udp.c **** #if LWIP_IPV6
 528:Middlewares/Third_Party/LwIP/src/core/udp.c ****     if (IP_IS_V6(dst_ip)) {
 529:Middlewares/Third_Party/LwIP/src/core/udp.c ****       /* For multicast, find a netif based on source address. */
 530:Middlewares/Third_Party/LwIP/src/core/udp.c ****       dst_ip_route = &pcb->local_ip;
 531:Middlewares/Third_Party/LwIP/src/core/udp.c ****     } else
 532:Middlewares/Third_Party/LwIP/src/core/udp.c **** #endif /* LWIP_IPV6 */
 533:Middlewares/Third_Party/LwIP/src/core/udp.c ****     {
 534:Middlewares/Third_Party/LwIP/src/core/udp.c **** #if LWIP_IPV4 && LWIP_MULTICAST_TX_OPTIONS
 535:Middlewares/Third_Party/LwIP/src/core/udp.c ****       /* IPv4 does not use source-based routing by default, so we use an
 536:Middlewares/Third_Party/LwIP/src/core/udp.c ****          administratively selected interface for multicast by default.
 537:Middlewares/Third_Party/LwIP/src/core/udp.c ****          However, this can be overridden by setting an interface address
 538:Middlewares/Third_Party/LwIP/src/core/udp.c ****          in pcb->multicast_ip that is used for routing. */
ARM GAS  C:\Users\Patryk\AppData\Local\Temp\ccrZQ8Ea.s 			page 20


 539:Middlewares/Third_Party/LwIP/src/core/udp.c ****       if (!ip_addr_isany_val(pcb->multicast_ip) &&
 540:Middlewares/Third_Party/LwIP/src/core/udp.c ****           !ip4_addr_cmp(ip_2_ip4(&pcb->multicast_ip), IP4_ADDR_BROADCAST)) {
 541:Middlewares/Third_Party/LwIP/src/core/udp.c ****         dst_ip_route = &pcb->multicast_ip;
 542:Middlewares/Third_Party/LwIP/src/core/udp.c ****       }
 543:Middlewares/Third_Party/LwIP/src/core/udp.c **** #endif /* LWIP_IPV4 && LWIP_MULTICAST_TX_OPTIONS */
 544:Middlewares/Third_Party/LwIP/src/core/udp.c ****     }
 545:Middlewares/Third_Party/LwIP/src/core/udp.c ****   }
 546:Middlewares/Third_Party/LwIP/src/core/udp.c **** #endif /* LWIP_IPV6 || (LWIP_IPV4 && LWIP_MULTICAST_TX_OPTIONS) */
 547:Middlewares/Third_Party/LwIP/src/core/udp.c **** 
 548:Middlewares/Third_Party/LwIP/src/core/udp.c ****   /* find the outgoing network interface for this packet */
 549:Middlewares/Third_Party/LwIP/src/core/udp.c ****   if(IP_IS_ANY_TYPE_VAL(pcb->local_ip)) {
 550:Middlewares/Third_Party/LwIP/src/core/udp.c ****     /* Don't call ip_route() with IP_ANY_TYPE */
 551:Middlewares/Third_Party/LwIP/src/core/udp.c ****     netif = ip_route(IP46_ADDR_ANY(IP_GET_TYPE(dst_ip_route)), dst_ip_route);
 552:Middlewares/Third_Party/LwIP/src/core/udp.c ****   } else {
 553:Middlewares/Third_Party/LwIP/src/core/udp.c ****     netif = ip_route(&pcb->local_ip, dst_ip_route);
 554:Middlewares/Third_Party/LwIP/src/core/udp.c ****   }
 555:Middlewares/Third_Party/LwIP/src/core/udp.c **** 
 556:Middlewares/Third_Party/LwIP/src/core/udp.c ****   /* no outgoing network interface could be found? */
 557:Middlewares/Third_Party/LwIP/src/core/udp.c ****   if (netif == NULL) {
 558:Middlewares/Third_Party/LwIP/src/core/udp.c ****     LWIP_DEBUGF(UDP_DEBUG | LWIP_DBG_LEVEL_SERIOUS, ("udp_send: No route to "));
 559:Middlewares/Third_Party/LwIP/src/core/udp.c ****     ip_addr_debug_print(UDP_DEBUG | LWIP_DBG_LEVEL_SERIOUS, dst_ip);
 560:Middlewares/Third_Party/LwIP/src/core/udp.c ****     LWIP_DEBUGF(UDP_DEBUG, ("\n"));
 561:Middlewares/Third_Party/LwIP/src/core/udp.c ****     UDP_STATS_INC(udp.rterr);
 562:Middlewares/Third_Party/LwIP/src/core/udp.c ****     return ERR_RTE;
 563:Middlewares/Third_Party/LwIP/src/core/udp.c ****   }
 564:Middlewares/Third_Party/LwIP/src/core/udp.c **** #if LWIP_CHECKSUM_ON_COPY && CHECKSUM_GEN_UDP
 565:Middlewares/Third_Party/LwIP/src/core/udp.c ****   return udp_sendto_if_chksum(pcb, p, dst_ip, dst_port, netif, have_chksum, chksum);
 566:Middlewares/Third_Party/LwIP/src/core/udp.c **** #else /* LWIP_CHECKSUM_ON_COPY && CHECKSUM_GEN_UDP */
 567:Middlewares/Third_Party/LwIP/src/core/udp.c ****   return udp_sendto_if(pcb, p, dst_ip, dst_port, netif);
 568:Middlewares/Third_Party/LwIP/src/core/udp.c **** #endif /* LWIP_CHECKSUM_ON_COPY && CHECKSUM_GEN_UDP */
 569:Middlewares/Third_Party/LwIP/src/core/udp.c **** }
 570:Middlewares/Third_Party/LwIP/src/core/udp.c **** 
 571:Middlewares/Third_Party/LwIP/src/core/udp.c **** /**
 572:Middlewares/Third_Party/LwIP/src/core/udp.c ****  * @ingroup udp_raw
 573:Middlewares/Third_Party/LwIP/src/core/udp.c ****  * Send data to a specified address using UDP.
 574:Middlewares/Third_Party/LwIP/src/core/udp.c ****  * The netif used for sending can be specified.
 575:Middlewares/Third_Party/LwIP/src/core/udp.c ****  *
 576:Middlewares/Third_Party/LwIP/src/core/udp.c ****  * This function exists mainly for DHCP, to be able to send UDP packets
 577:Middlewares/Third_Party/LwIP/src/core/udp.c ****  * on a netif that is still down.
 578:Middlewares/Third_Party/LwIP/src/core/udp.c ****  *
 579:Middlewares/Third_Party/LwIP/src/core/udp.c ****  * @param pcb UDP PCB used to send the data.
 580:Middlewares/Third_Party/LwIP/src/core/udp.c ****  * @param p chain of pbuf's to be sent.
 581:Middlewares/Third_Party/LwIP/src/core/udp.c ****  * @param dst_ip Destination IP address.
 582:Middlewares/Third_Party/LwIP/src/core/udp.c ****  * @param dst_port Destination UDP port.
 583:Middlewares/Third_Party/LwIP/src/core/udp.c ****  * @param netif the netif used for sending.
 584:Middlewares/Third_Party/LwIP/src/core/udp.c ****  *
 585:Middlewares/Third_Party/LwIP/src/core/udp.c ****  * dst_ip & dst_port are expected to be in the same byte order as in the pcb.
 586:Middlewares/Third_Party/LwIP/src/core/udp.c ****  *
 587:Middlewares/Third_Party/LwIP/src/core/udp.c ****  * @return lwIP error code (@see udp_send for possible error codes)
 588:Middlewares/Third_Party/LwIP/src/core/udp.c ****  *
 589:Middlewares/Third_Party/LwIP/src/core/udp.c ****  * @see udp_disconnect() udp_send()
 590:Middlewares/Third_Party/LwIP/src/core/udp.c ****  */
 591:Middlewares/Third_Party/LwIP/src/core/udp.c **** err_t
 592:Middlewares/Third_Party/LwIP/src/core/udp.c **** udp_sendto_if(struct udp_pcb *pcb, struct pbuf *p,
 593:Middlewares/Third_Party/LwIP/src/core/udp.c ****   const ip_addr_t *dst_ip, u16_t dst_port, struct netif *netif)
 594:Middlewares/Third_Party/LwIP/src/core/udp.c **** {
 595:Middlewares/Third_Party/LwIP/src/core/udp.c **** #if LWIP_CHECKSUM_ON_COPY && CHECKSUM_GEN_UDP
ARM GAS  C:\Users\Patryk\AppData\Local\Temp\ccrZQ8Ea.s 			page 21


 596:Middlewares/Third_Party/LwIP/src/core/udp.c ****   return udp_sendto_if_chksum(pcb, p, dst_ip, dst_port, netif, 0, 0);
 597:Middlewares/Third_Party/LwIP/src/core/udp.c **** }
 598:Middlewares/Third_Party/LwIP/src/core/udp.c **** 
 599:Middlewares/Third_Party/LwIP/src/core/udp.c **** /** Same as udp_sendto_if(), but with checksum */
 600:Middlewares/Third_Party/LwIP/src/core/udp.c **** err_t
 601:Middlewares/Third_Party/LwIP/src/core/udp.c **** udp_sendto_if_chksum(struct udp_pcb *pcb, struct pbuf *p, const ip_addr_t *dst_ip,
 602:Middlewares/Third_Party/LwIP/src/core/udp.c ****                      u16_t dst_port, struct netif *netif, u8_t have_chksum,
 603:Middlewares/Third_Party/LwIP/src/core/udp.c ****                      u16_t chksum)
 604:Middlewares/Third_Party/LwIP/src/core/udp.c **** {
 605:Middlewares/Third_Party/LwIP/src/core/udp.c **** #endif /* LWIP_CHECKSUM_ON_COPY && CHECKSUM_GEN_UDP */
 606:Middlewares/Third_Party/LwIP/src/core/udp.c ****   const ip_addr_t *src_ip;
 607:Middlewares/Third_Party/LwIP/src/core/udp.c **** 
 608:Middlewares/Third_Party/LwIP/src/core/udp.c ****   if ((pcb == NULL) || (dst_ip == NULL) || !IP_ADDR_PCB_VERSION_MATCH(pcb, dst_ip)) {
 609:Middlewares/Third_Party/LwIP/src/core/udp.c ****     return ERR_VAL;
 610:Middlewares/Third_Party/LwIP/src/core/udp.c ****   }
 611:Middlewares/Third_Party/LwIP/src/core/udp.c **** 
 612:Middlewares/Third_Party/LwIP/src/core/udp.c ****   /* PCB local address is IP_ANY_ADDR? */
 613:Middlewares/Third_Party/LwIP/src/core/udp.c **** #if LWIP_IPV6
 614:Middlewares/Third_Party/LwIP/src/core/udp.c ****   if (IP_IS_V6(dst_ip)) {
 615:Middlewares/Third_Party/LwIP/src/core/udp.c ****     if (ip6_addr_isany(ip_2_ip6(&pcb->local_ip))) {
 616:Middlewares/Third_Party/LwIP/src/core/udp.c ****       src_ip = ip6_select_source_address(netif, ip_2_ip6(dst_ip));
 617:Middlewares/Third_Party/LwIP/src/core/udp.c ****       if (src_ip == NULL) {
 618:Middlewares/Third_Party/LwIP/src/core/udp.c ****         /* No suitable source address was found. */
 619:Middlewares/Third_Party/LwIP/src/core/udp.c ****         return ERR_RTE;
 620:Middlewares/Third_Party/LwIP/src/core/udp.c ****       }
 621:Middlewares/Third_Party/LwIP/src/core/udp.c ****     } else {
 622:Middlewares/Third_Party/LwIP/src/core/udp.c ****       /* use UDP PCB local IPv6 address as source address, if still valid. */
 623:Middlewares/Third_Party/LwIP/src/core/udp.c ****       if (netif_get_ip6_addr_match(netif, ip_2_ip6(&pcb->local_ip)) < 0) {
 624:Middlewares/Third_Party/LwIP/src/core/udp.c ****         /* Address isn't valid anymore. */
 625:Middlewares/Third_Party/LwIP/src/core/udp.c ****         return ERR_RTE;
 626:Middlewares/Third_Party/LwIP/src/core/udp.c ****       }
 627:Middlewares/Third_Party/LwIP/src/core/udp.c ****       src_ip = &pcb->local_ip;
 628:Middlewares/Third_Party/LwIP/src/core/udp.c ****     }
 629:Middlewares/Third_Party/LwIP/src/core/udp.c ****   }
 630:Middlewares/Third_Party/LwIP/src/core/udp.c **** #endif /* LWIP_IPV6 */
 631:Middlewares/Third_Party/LwIP/src/core/udp.c **** #if LWIP_IPV4 && LWIP_IPV6
 632:Middlewares/Third_Party/LwIP/src/core/udp.c ****   else
 633:Middlewares/Third_Party/LwIP/src/core/udp.c **** #endif /* LWIP_IPV4 && LWIP_IPV6 */
 634:Middlewares/Third_Party/LwIP/src/core/udp.c **** #if LWIP_IPV4
 635:Middlewares/Third_Party/LwIP/src/core/udp.c ****   if (ip4_addr_isany(ip_2_ip4(&pcb->local_ip)) ||
 636:Middlewares/Third_Party/LwIP/src/core/udp.c ****       ip4_addr_ismulticast(ip_2_ip4(&pcb->local_ip))) {
 637:Middlewares/Third_Party/LwIP/src/core/udp.c ****     /* if the local_ip is any or multicast
 638:Middlewares/Third_Party/LwIP/src/core/udp.c ****      * use the outgoing network interface IP address as source address */
 639:Middlewares/Third_Party/LwIP/src/core/udp.c ****     src_ip = netif_ip_addr4(netif);
 640:Middlewares/Third_Party/LwIP/src/core/udp.c ****   } else {
 641:Middlewares/Third_Party/LwIP/src/core/udp.c ****     /* check if UDP PCB local IP address is correct
 642:Middlewares/Third_Party/LwIP/src/core/udp.c ****      * this could be an old address if netif->ip_addr has changed */
 643:Middlewares/Third_Party/LwIP/src/core/udp.c ****     if (!ip4_addr_cmp(ip_2_ip4(&(pcb->local_ip)), netif_ip4_addr(netif))) {
 644:Middlewares/Third_Party/LwIP/src/core/udp.c ****       /* local_ip doesn't match, drop the packet */
 645:Middlewares/Third_Party/LwIP/src/core/udp.c ****       return ERR_RTE;
 646:Middlewares/Third_Party/LwIP/src/core/udp.c ****     }
 647:Middlewares/Third_Party/LwIP/src/core/udp.c ****     /* use UDP PCB local IP address as source address */
 648:Middlewares/Third_Party/LwIP/src/core/udp.c ****     src_ip = &pcb->local_ip;
 649:Middlewares/Third_Party/LwIP/src/core/udp.c ****   }
 650:Middlewares/Third_Party/LwIP/src/core/udp.c **** #endif /* LWIP_IPV4 */
 651:Middlewares/Third_Party/LwIP/src/core/udp.c **** #if LWIP_CHECKSUM_ON_COPY && CHECKSUM_GEN_UDP
 652:Middlewares/Third_Party/LwIP/src/core/udp.c ****   return udp_sendto_if_src_chksum(pcb, p, dst_ip, dst_port, netif, have_chksum, chksum, src_ip);
ARM GAS  C:\Users\Patryk\AppData\Local\Temp\ccrZQ8Ea.s 			page 22


 653:Middlewares/Third_Party/LwIP/src/core/udp.c **** #else /* LWIP_CHECKSUM_ON_COPY && CHECKSUM_GEN_UDP */
 654:Middlewares/Third_Party/LwIP/src/core/udp.c ****   return udp_sendto_if_src(pcb, p, dst_ip, dst_port, netif, src_ip);
 655:Middlewares/Third_Party/LwIP/src/core/udp.c **** #endif /* LWIP_CHECKSUM_ON_COPY && CHECKSUM_GEN_UDP */
 656:Middlewares/Third_Party/LwIP/src/core/udp.c **** }
 657:Middlewares/Third_Party/LwIP/src/core/udp.c **** 
 658:Middlewares/Third_Party/LwIP/src/core/udp.c **** /** @ingroup udp_raw
 659:Middlewares/Third_Party/LwIP/src/core/udp.c ****  * Same as @ref udp_sendto_if, but with source address */
 660:Middlewares/Third_Party/LwIP/src/core/udp.c **** err_t
 661:Middlewares/Third_Party/LwIP/src/core/udp.c **** udp_sendto_if_src(struct udp_pcb *pcb, struct pbuf *p,
 662:Middlewares/Third_Party/LwIP/src/core/udp.c ****   const ip_addr_t *dst_ip, u16_t dst_port, struct netif *netif, const ip_addr_t *src_ip)
 663:Middlewares/Third_Party/LwIP/src/core/udp.c **** {
 664:Middlewares/Third_Party/LwIP/src/core/udp.c **** #if LWIP_CHECKSUM_ON_COPY && CHECKSUM_GEN_UDP
 665:Middlewares/Third_Party/LwIP/src/core/udp.c ****   return udp_sendto_if_src_chksum(pcb, p, dst_ip, dst_port, netif, 0, 0, src_ip);
 666:Middlewares/Third_Party/LwIP/src/core/udp.c **** }
 667:Middlewares/Third_Party/LwIP/src/core/udp.c **** 
 668:Middlewares/Third_Party/LwIP/src/core/udp.c **** /** Same as udp_sendto_if_src(), but with checksum */
 669:Middlewares/Third_Party/LwIP/src/core/udp.c **** err_t
 670:Middlewares/Third_Party/LwIP/src/core/udp.c **** udp_sendto_if_src_chksum(struct udp_pcb *pcb, struct pbuf *p, const ip_addr_t *dst_ip,
 671:Middlewares/Third_Party/LwIP/src/core/udp.c ****                      u16_t dst_port, struct netif *netif, u8_t have_chksum,
 672:Middlewares/Third_Party/LwIP/src/core/udp.c ****                      u16_t chksum, const ip_addr_t *src_ip)
 673:Middlewares/Third_Party/LwIP/src/core/udp.c **** {
 674:Middlewares/Third_Party/LwIP/src/core/udp.c **** #endif /* LWIP_CHECKSUM_ON_COPY && CHECKSUM_GEN_UDP */
 675:Middlewares/Third_Party/LwIP/src/core/udp.c ****   struct udp_hdr *udphdr;
 676:Middlewares/Third_Party/LwIP/src/core/udp.c ****   err_t err;
 677:Middlewares/Third_Party/LwIP/src/core/udp.c ****   struct pbuf *q; /* q will be sent down the stack */
 678:Middlewares/Third_Party/LwIP/src/core/udp.c ****   u8_t ip_proto;
 679:Middlewares/Third_Party/LwIP/src/core/udp.c ****   u8_t ttl;
 680:Middlewares/Third_Party/LwIP/src/core/udp.c **** 
 681:Middlewares/Third_Party/LwIP/src/core/udp.c ****   if ((pcb == NULL) || (dst_ip == NULL) || !IP_ADDR_PCB_VERSION_MATCH(pcb, src_ip) ||
 682:Middlewares/Third_Party/LwIP/src/core/udp.c ****       !IP_ADDR_PCB_VERSION_MATCH(pcb, dst_ip)) {
 683:Middlewares/Third_Party/LwIP/src/core/udp.c ****     return ERR_VAL;
 684:Middlewares/Third_Party/LwIP/src/core/udp.c ****   }
 685:Middlewares/Third_Party/LwIP/src/core/udp.c **** 
 686:Middlewares/Third_Party/LwIP/src/core/udp.c **** #if LWIP_IPV4 && IP_SOF_BROADCAST
 687:Middlewares/Third_Party/LwIP/src/core/udp.c ****   /* broadcast filter? */
 688:Middlewares/Third_Party/LwIP/src/core/udp.c ****   if (!ip_get_option(pcb, SOF_BROADCAST) &&
 689:Middlewares/Third_Party/LwIP/src/core/udp.c **** #if LWIP_IPV6
 690:Middlewares/Third_Party/LwIP/src/core/udp.c ****       IP_IS_V4(dst_ip) &&
 691:Middlewares/Third_Party/LwIP/src/core/udp.c **** #endif /* LWIP_IPV6 */
 692:Middlewares/Third_Party/LwIP/src/core/udp.c ****       ip_addr_isbroadcast(dst_ip, netif)) {
 693:Middlewares/Third_Party/LwIP/src/core/udp.c ****     LWIP_DEBUGF(UDP_DEBUG | LWIP_DBG_LEVEL_SERIOUS,
 694:Middlewares/Third_Party/LwIP/src/core/udp.c ****       ("udp_sendto_if: SOF_BROADCAST not enabled on pcb %p\n", (void *)pcb));
 695:Middlewares/Third_Party/LwIP/src/core/udp.c ****     return ERR_VAL;
 696:Middlewares/Third_Party/LwIP/src/core/udp.c ****   }
 697:Middlewares/Third_Party/LwIP/src/core/udp.c **** #endif /* LWIP_IPV4 && IP_SOF_BROADCAST */
 698:Middlewares/Third_Party/LwIP/src/core/udp.c **** 
 699:Middlewares/Third_Party/LwIP/src/core/udp.c ****   /* if the PCB is not yet bound to a port, bind it here */
 700:Middlewares/Third_Party/LwIP/src/core/udp.c ****   if (pcb->local_port == 0) {
 701:Middlewares/Third_Party/LwIP/src/core/udp.c ****     LWIP_DEBUGF(UDP_DEBUG | LWIP_DBG_TRACE, ("udp_send: not yet bound to a port, binding now\n"));
 702:Middlewares/Third_Party/LwIP/src/core/udp.c ****     err = udp_bind(pcb, &pcb->local_ip, pcb->local_port);
 703:Middlewares/Third_Party/LwIP/src/core/udp.c ****     if (err != ERR_OK) {
 704:Middlewares/Third_Party/LwIP/src/core/udp.c ****       LWIP_DEBUGF(UDP_DEBUG | LWIP_DBG_TRACE | LWIP_DBG_LEVEL_SERIOUS, ("udp_send: forced port bind
 705:Middlewares/Third_Party/LwIP/src/core/udp.c ****       return err;
 706:Middlewares/Third_Party/LwIP/src/core/udp.c ****     }
 707:Middlewares/Third_Party/LwIP/src/core/udp.c ****   }
 708:Middlewares/Third_Party/LwIP/src/core/udp.c **** 
 709:Middlewares/Third_Party/LwIP/src/core/udp.c ****   /* not enough space to add an UDP header to first pbuf in given p chain? */
ARM GAS  C:\Users\Patryk\AppData\Local\Temp\ccrZQ8Ea.s 			page 23


 710:Middlewares/Third_Party/LwIP/src/core/udp.c ****   if (pbuf_header(p, UDP_HLEN)) {
 711:Middlewares/Third_Party/LwIP/src/core/udp.c ****     /* allocate header in a separate new pbuf */
 712:Middlewares/Third_Party/LwIP/src/core/udp.c ****     q = pbuf_alloc(PBUF_IP, UDP_HLEN, PBUF_RAM);
 713:Middlewares/Third_Party/LwIP/src/core/udp.c ****     /* new header pbuf could not be allocated? */
 714:Middlewares/Third_Party/LwIP/src/core/udp.c ****     if (q == NULL) {
 715:Middlewares/Third_Party/LwIP/src/core/udp.c ****       LWIP_DEBUGF(UDP_DEBUG | LWIP_DBG_TRACE | LWIP_DBG_LEVEL_SERIOUS, ("udp_send: could not alloca
 716:Middlewares/Third_Party/LwIP/src/core/udp.c ****       return ERR_MEM;
 717:Middlewares/Third_Party/LwIP/src/core/udp.c ****     }
 718:Middlewares/Third_Party/LwIP/src/core/udp.c ****     if (p->tot_len != 0) {
 719:Middlewares/Third_Party/LwIP/src/core/udp.c ****       /* chain header q in front of given pbuf p (only if p contains data) */
 720:Middlewares/Third_Party/LwIP/src/core/udp.c ****       pbuf_chain(q, p);
 721:Middlewares/Third_Party/LwIP/src/core/udp.c ****     }
 722:Middlewares/Third_Party/LwIP/src/core/udp.c ****     /* first pbuf q points to header pbuf */
 723:Middlewares/Third_Party/LwIP/src/core/udp.c ****     LWIP_DEBUGF(UDP_DEBUG,
 724:Middlewares/Third_Party/LwIP/src/core/udp.c ****                 ("udp_send: added header pbuf %p before given pbuf %p\n", (void *)q, (void *)p));
 725:Middlewares/Third_Party/LwIP/src/core/udp.c ****   } else {
 726:Middlewares/Third_Party/LwIP/src/core/udp.c ****     /* adding space for header within p succeeded */
 727:Middlewares/Third_Party/LwIP/src/core/udp.c ****     /* first pbuf q equals given pbuf */
 728:Middlewares/Third_Party/LwIP/src/core/udp.c ****     q = p;
 729:Middlewares/Third_Party/LwIP/src/core/udp.c ****     LWIP_DEBUGF(UDP_DEBUG, ("udp_send: added header in given pbuf %p\n", (void *)p));
 730:Middlewares/Third_Party/LwIP/src/core/udp.c ****   }
 731:Middlewares/Third_Party/LwIP/src/core/udp.c ****   LWIP_ASSERT("check that first pbuf can hold struct udp_hdr",
 732:Middlewares/Third_Party/LwIP/src/core/udp.c ****               (q->len >= sizeof(struct udp_hdr)));
 733:Middlewares/Third_Party/LwIP/src/core/udp.c ****   /* q now represents the packet to be sent */
 734:Middlewares/Third_Party/LwIP/src/core/udp.c ****   udphdr = (struct udp_hdr *)q->payload;
 735:Middlewares/Third_Party/LwIP/src/core/udp.c ****   udphdr->src = lwip_htons(pcb->local_port);
 736:Middlewares/Third_Party/LwIP/src/core/udp.c ****   udphdr->dest = lwip_htons(dst_port);
 737:Middlewares/Third_Party/LwIP/src/core/udp.c ****   /* in UDP, 0 checksum means 'no checksum' */
 738:Middlewares/Third_Party/LwIP/src/core/udp.c ****   udphdr->chksum = 0x0000;
 739:Middlewares/Third_Party/LwIP/src/core/udp.c **** 
 740:Middlewares/Third_Party/LwIP/src/core/udp.c ****   /* Multicast Loop? */
 741:Middlewares/Third_Party/LwIP/src/core/udp.c **** #if (LWIP_IPV4 && LWIP_MULTICAST_TX_OPTIONS) || (LWIP_IPV6 && LWIP_IPV6_MLD)
 742:Middlewares/Third_Party/LwIP/src/core/udp.c ****   if (((pcb->flags & UDP_FLAGS_MULTICAST_LOOP) != 0) && ip_addr_ismulticast(dst_ip)) {
 743:Middlewares/Third_Party/LwIP/src/core/udp.c ****     q->flags |= PBUF_FLAG_MCASTLOOP;
 744:Middlewares/Third_Party/LwIP/src/core/udp.c ****   }
 745:Middlewares/Third_Party/LwIP/src/core/udp.c **** #endif /* (LWIP_IPV4 && LWIP_MULTICAST_TX_OPTIONS) || (LWIP_IPV6 && LWIP_IPV6_MLD) */
 746:Middlewares/Third_Party/LwIP/src/core/udp.c **** 
 747:Middlewares/Third_Party/LwIP/src/core/udp.c ****   LWIP_DEBUGF(UDP_DEBUG, ("udp_send: sending datagram of length %"U16_F"\n", q->tot_len));
 748:Middlewares/Third_Party/LwIP/src/core/udp.c **** 
 749:Middlewares/Third_Party/LwIP/src/core/udp.c **** #if LWIP_UDPLITE
 750:Middlewares/Third_Party/LwIP/src/core/udp.c ****   /* UDP Lite protocol? */
 751:Middlewares/Third_Party/LwIP/src/core/udp.c ****   if (pcb->flags & UDP_FLAGS_UDPLITE) {
 752:Middlewares/Third_Party/LwIP/src/core/udp.c ****     u16_t chklen, chklen_hdr;
 753:Middlewares/Third_Party/LwIP/src/core/udp.c ****     LWIP_DEBUGF(UDP_DEBUG, ("udp_send: UDP LITE packet length %"U16_F"\n", q->tot_len));
 754:Middlewares/Third_Party/LwIP/src/core/udp.c ****     /* set UDP message length in UDP header */
 755:Middlewares/Third_Party/LwIP/src/core/udp.c ****     chklen_hdr = chklen = pcb->chksum_len_tx;
 756:Middlewares/Third_Party/LwIP/src/core/udp.c ****     if ((chklen < sizeof(struct udp_hdr)) || (chklen > q->tot_len)) {
 757:Middlewares/Third_Party/LwIP/src/core/udp.c ****       if (chklen != 0) {
 758:Middlewares/Third_Party/LwIP/src/core/udp.c ****         LWIP_DEBUGF(UDP_DEBUG, ("udp_send: UDP LITE pcb->chksum_len is illegal: %"U16_F"\n", chklen
 759:Middlewares/Third_Party/LwIP/src/core/udp.c ****       }
 760:Middlewares/Third_Party/LwIP/src/core/udp.c ****       /* For UDP-Lite, checksum length of 0 means checksum
 761:Middlewares/Third_Party/LwIP/src/core/udp.c ****          over the complete packet. (See RFC 3828 chap. 3.1)
 762:Middlewares/Third_Party/LwIP/src/core/udp.c ****          At least the UDP-Lite header must be covered by the
 763:Middlewares/Third_Party/LwIP/src/core/udp.c ****          checksum, therefore, if chksum_len has an illegal
 764:Middlewares/Third_Party/LwIP/src/core/udp.c ****          value, we generate the checksum over the complete
 765:Middlewares/Third_Party/LwIP/src/core/udp.c ****          packet to be safe. */
 766:Middlewares/Third_Party/LwIP/src/core/udp.c ****       chklen_hdr = 0;
ARM GAS  C:\Users\Patryk\AppData\Local\Temp\ccrZQ8Ea.s 			page 24


 767:Middlewares/Third_Party/LwIP/src/core/udp.c ****       chklen = q->tot_len;
 768:Middlewares/Third_Party/LwIP/src/core/udp.c ****     }
 769:Middlewares/Third_Party/LwIP/src/core/udp.c ****     udphdr->len = lwip_htons(chklen_hdr);
 770:Middlewares/Third_Party/LwIP/src/core/udp.c ****     /* calculate checksum */
 771:Middlewares/Third_Party/LwIP/src/core/udp.c **** #if CHECKSUM_GEN_UDP
 772:Middlewares/Third_Party/LwIP/src/core/udp.c ****     IF__NETIF_CHECKSUM_ENABLED(netif, NETIF_CHECKSUM_GEN_UDP) {
 773:Middlewares/Third_Party/LwIP/src/core/udp.c **** #if LWIP_CHECKSUM_ON_COPY
 774:Middlewares/Third_Party/LwIP/src/core/udp.c ****       if (have_chksum) {
 775:Middlewares/Third_Party/LwIP/src/core/udp.c ****         chklen = UDP_HLEN;
 776:Middlewares/Third_Party/LwIP/src/core/udp.c ****       }
 777:Middlewares/Third_Party/LwIP/src/core/udp.c **** #endif /* LWIP_CHECKSUM_ON_COPY */
 778:Middlewares/Third_Party/LwIP/src/core/udp.c ****       udphdr->chksum = ip_chksum_pseudo_partial(q, IP_PROTO_UDPLITE,
 779:Middlewares/Third_Party/LwIP/src/core/udp.c ****         q->tot_len, chklen, src_ip, dst_ip);
 780:Middlewares/Third_Party/LwIP/src/core/udp.c **** #if LWIP_CHECKSUM_ON_COPY
 781:Middlewares/Third_Party/LwIP/src/core/udp.c ****       if (have_chksum) {
 782:Middlewares/Third_Party/LwIP/src/core/udp.c ****         u32_t acc;
 783:Middlewares/Third_Party/LwIP/src/core/udp.c ****         acc = udphdr->chksum + (u16_t)~(chksum);
 784:Middlewares/Third_Party/LwIP/src/core/udp.c ****         udphdr->chksum = FOLD_U32T(acc);
 785:Middlewares/Third_Party/LwIP/src/core/udp.c ****       }
 786:Middlewares/Third_Party/LwIP/src/core/udp.c **** #endif /* LWIP_CHECKSUM_ON_COPY */
 787:Middlewares/Third_Party/LwIP/src/core/udp.c **** 
 788:Middlewares/Third_Party/LwIP/src/core/udp.c ****       /* chksum zero must become 0xffff, as zero means 'no checksum' */
 789:Middlewares/Third_Party/LwIP/src/core/udp.c ****       if (udphdr->chksum == 0x0000) {
 790:Middlewares/Third_Party/LwIP/src/core/udp.c ****         udphdr->chksum = 0xffff;
 791:Middlewares/Third_Party/LwIP/src/core/udp.c ****       }
 792:Middlewares/Third_Party/LwIP/src/core/udp.c ****     }
 793:Middlewares/Third_Party/LwIP/src/core/udp.c **** #endif /* CHECKSUM_GEN_UDP */
 794:Middlewares/Third_Party/LwIP/src/core/udp.c **** 
 795:Middlewares/Third_Party/LwIP/src/core/udp.c ****     ip_proto = IP_PROTO_UDPLITE;
 796:Middlewares/Third_Party/LwIP/src/core/udp.c ****   } else
 797:Middlewares/Third_Party/LwIP/src/core/udp.c **** #endif /* LWIP_UDPLITE */
 798:Middlewares/Third_Party/LwIP/src/core/udp.c ****   {      /* UDP */
 799:Middlewares/Third_Party/LwIP/src/core/udp.c ****     LWIP_DEBUGF(UDP_DEBUG, ("udp_send: UDP packet length %"U16_F"\n", q->tot_len));
 800:Middlewares/Third_Party/LwIP/src/core/udp.c ****     udphdr->len = lwip_htons(q->tot_len);
 801:Middlewares/Third_Party/LwIP/src/core/udp.c ****     /* calculate checksum */
 802:Middlewares/Third_Party/LwIP/src/core/udp.c **** #if CHECKSUM_GEN_UDP
 803:Middlewares/Third_Party/LwIP/src/core/udp.c ****     IF__NETIF_CHECKSUM_ENABLED(netif, NETIF_CHECKSUM_GEN_UDP) {
 804:Middlewares/Third_Party/LwIP/src/core/udp.c ****       /* Checksum is mandatory over IPv6. */
 805:Middlewares/Third_Party/LwIP/src/core/udp.c ****       if (IP_IS_V6(dst_ip) || (pcb->flags & UDP_FLAGS_NOCHKSUM) == 0) {
 806:Middlewares/Third_Party/LwIP/src/core/udp.c ****         u16_t udpchksum;
 807:Middlewares/Third_Party/LwIP/src/core/udp.c **** #if LWIP_CHECKSUM_ON_COPY
 808:Middlewares/Third_Party/LwIP/src/core/udp.c ****         if (have_chksum) {
 809:Middlewares/Third_Party/LwIP/src/core/udp.c ****           u32_t acc;
 810:Middlewares/Third_Party/LwIP/src/core/udp.c ****           udpchksum = ip_chksum_pseudo_partial(q, IP_PROTO_UDP,
 811:Middlewares/Third_Party/LwIP/src/core/udp.c ****             q->tot_len, UDP_HLEN, src_ip, dst_ip);
 812:Middlewares/Third_Party/LwIP/src/core/udp.c ****           acc = udpchksum + (u16_t)~(chksum);
 813:Middlewares/Third_Party/LwIP/src/core/udp.c ****           udpchksum = FOLD_U32T(acc);
 814:Middlewares/Third_Party/LwIP/src/core/udp.c ****         } else
 815:Middlewares/Third_Party/LwIP/src/core/udp.c **** #endif /* LWIP_CHECKSUM_ON_COPY */
 816:Middlewares/Third_Party/LwIP/src/core/udp.c ****         {
 817:Middlewares/Third_Party/LwIP/src/core/udp.c ****           udpchksum = ip_chksum_pseudo(q, IP_PROTO_UDP, q->tot_len,
 818:Middlewares/Third_Party/LwIP/src/core/udp.c ****             src_ip, dst_ip);
 819:Middlewares/Third_Party/LwIP/src/core/udp.c ****         }
 820:Middlewares/Third_Party/LwIP/src/core/udp.c **** 
 821:Middlewares/Third_Party/LwIP/src/core/udp.c ****         /* chksum zero must become 0xffff, as zero means 'no checksum' */
 822:Middlewares/Third_Party/LwIP/src/core/udp.c ****         if (udpchksum == 0x0000) {
 823:Middlewares/Third_Party/LwIP/src/core/udp.c ****           udpchksum = 0xffff;
ARM GAS  C:\Users\Patryk\AppData\Local\Temp\ccrZQ8Ea.s 			page 25


 824:Middlewares/Third_Party/LwIP/src/core/udp.c ****         }
 825:Middlewares/Third_Party/LwIP/src/core/udp.c ****         udphdr->chksum = udpchksum;
 826:Middlewares/Third_Party/LwIP/src/core/udp.c ****       }
 827:Middlewares/Third_Party/LwIP/src/core/udp.c ****     }
 828:Middlewares/Third_Party/LwIP/src/core/udp.c **** #endif /* CHECKSUM_GEN_UDP */
 829:Middlewares/Third_Party/LwIP/src/core/udp.c ****     ip_proto = IP_PROTO_UDP;
 830:Middlewares/Third_Party/LwIP/src/core/udp.c ****   }
 831:Middlewares/Third_Party/LwIP/src/core/udp.c **** 
 832:Middlewares/Third_Party/LwIP/src/core/udp.c ****   /* Determine TTL to use */
 833:Middlewares/Third_Party/LwIP/src/core/udp.c **** #if LWIP_MULTICAST_TX_OPTIONS
 834:Middlewares/Third_Party/LwIP/src/core/udp.c ****   ttl = (ip_addr_ismulticast(dst_ip) ? udp_get_multicast_ttl(pcb) : pcb->ttl);
 835:Middlewares/Third_Party/LwIP/src/core/udp.c **** #else /* LWIP_MULTICAST_TX_OPTIONS */
 836:Middlewares/Third_Party/LwIP/src/core/udp.c ****   ttl = pcb->ttl;
 837:Middlewares/Third_Party/LwIP/src/core/udp.c **** #endif /* LWIP_MULTICAST_TX_OPTIONS */
 838:Middlewares/Third_Party/LwIP/src/core/udp.c **** 
 839:Middlewares/Third_Party/LwIP/src/core/udp.c ****   LWIP_DEBUGF(UDP_DEBUG, ("udp_send: UDP checksum 0x%04"X16_F"\n", udphdr->chksum));
 840:Middlewares/Third_Party/LwIP/src/core/udp.c ****   LWIP_DEBUGF(UDP_DEBUG, ("udp_send: ip_output_if (,,,,0x%02"X16_F",)\n", (u16_t)ip_proto));
 841:Middlewares/Third_Party/LwIP/src/core/udp.c ****   /* output to IP */
 842:Middlewares/Third_Party/LwIP/src/core/udp.c ****   NETIF_SET_HWADDRHINT(netif, &(pcb->addr_hint));
 843:Middlewares/Third_Party/LwIP/src/core/udp.c ****   err = ip_output_if_src(q, src_ip, dst_ip, ttl, pcb->tos, ip_proto, netif);
 844:Middlewares/Third_Party/LwIP/src/core/udp.c ****   NETIF_SET_HWADDRHINT(netif, NULL);
 845:Middlewares/Third_Party/LwIP/src/core/udp.c **** 
 846:Middlewares/Third_Party/LwIP/src/core/udp.c ****   /* @todo: must this be increased even if error occurred? */
 847:Middlewares/Third_Party/LwIP/src/core/udp.c ****   MIB2_STATS_INC(mib2.udpoutdatagrams);
 848:Middlewares/Third_Party/LwIP/src/core/udp.c **** 
 849:Middlewares/Third_Party/LwIP/src/core/udp.c ****   /* did we chain a separate header pbuf earlier? */
 850:Middlewares/Third_Party/LwIP/src/core/udp.c ****   if (q != p) {
 851:Middlewares/Third_Party/LwIP/src/core/udp.c ****     /* free the header pbuf */
 852:Middlewares/Third_Party/LwIP/src/core/udp.c ****     pbuf_free(q);
 853:Middlewares/Third_Party/LwIP/src/core/udp.c ****     q = NULL;
 854:Middlewares/Third_Party/LwIP/src/core/udp.c ****     /* p is still referenced by the caller, and will live on */
 855:Middlewares/Third_Party/LwIP/src/core/udp.c ****   }
 856:Middlewares/Third_Party/LwIP/src/core/udp.c **** 
 857:Middlewares/Third_Party/LwIP/src/core/udp.c ****   UDP_STATS_INC(udp.xmit);
 858:Middlewares/Third_Party/LwIP/src/core/udp.c ****   return err;
 859:Middlewares/Third_Party/LwIP/src/core/udp.c **** }
 860:Middlewares/Third_Party/LwIP/src/core/udp.c **** 
 861:Middlewares/Third_Party/LwIP/src/core/udp.c **** /**
 862:Middlewares/Third_Party/LwIP/src/core/udp.c ****  * @ingroup udp_raw
 863:Middlewares/Third_Party/LwIP/src/core/udp.c ****  * Bind an UDP PCB.
 864:Middlewares/Third_Party/LwIP/src/core/udp.c ****  *
 865:Middlewares/Third_Party/LwIP/src/core/udp.c ****  * @param pcb UDP PCB to be bound with a local address ipaddr and port.
 866:Middlewares/Third_Party/LwIP/src/core/udp.c ****  * @param ipaddr local IP address to bind with. Use IP4_ADDR_ANY to
 867:Middlewares/Third_Party/LwIP/src/core/udp.c ****  * bind to all local interfaces.
 868:Middlewares/Third_Party/LwIP/src/core/udp.c ****  * @param port local UDP port to bind with. Use 0 to automatically bind
 869:Middlewares/Third_Party/LwIP/src/core/udp.c ****  * to a random port between UDP_LOCAL_PORT_RANGE_START and
 870:Middlewares/Third_Party/LwIP/src/core/udp.c ****  * UDP_LOCAL_PORT_RANGE_END.
 871:Middlewares/Third_Party/LwIP/src/core/udp.c ****  *
 872:Middlewares/Third_Party/LwIP/src/core/udp.c ****  * ipaddr & port are expected to be in the same byte order as in the pcb.
 873:Middlewares/Third_Party/LwIP/src/core/udp.c ****  *
 874:Middlewares/Third_Party/LwIP/src/core/udp.c ****  * @return lwIP error code.
 875:Middlewares/Third_Party/LwIP/src/core/udp.c ****  * - ERR_OK. Successful. No error occurred.
 876:Middlewares/Third_Party/LwIP/src/core/udp.c ****  * - ERR_USE. The specified ipaddr and port are already bound to by
 877:Middlewares/Third_Party/LwIP/src/core/udp.c ****  * another UDP PCB.
 878:Middlewares/Third_Party/LwIP/src/core/udp.c ****  *
 879:Middlewares/Third_Party/LwIP/src/core/udp.c ****  * @see udp_disconnect()
 880:Middlewares/Third_Party/LwIP/src/core/udp.c ****  */
ARM GAS  C:\Users\Patryk\AppData\Local\Temp\ccrZQ8Ea.s 			page 26


 881:Middlewares/Third_Party/LwIP/src/core/udp.c **** err_t
 882:Middlewares/Third_Party/LwIP/src/core/udp.c **** udp_bind(struct udp_pcb *pcb, const ip_addr_t *ipaddr, u16_t port)
 883:Middlewares/Third_Party/LwIP/src/core/udp.c **** {
 501              		.loc 1 883 0
 502              		.cfi_startproc
 503              		@ args = 0, pretend = 0, frame = 0
 504              		@ frame_needed = 0, uses_anonymous_args = 0
 505              	.LVL72:
 506 0000 70B5     		push	{r4, r5, r6, lr}
 507              	.LCFI4:
 508              		.cfi_def_cfa_offset 16
 509              		.cfi_offset 4, -16
 510              		.cfi_offset 5, -12
 511              		.cfi_offset 6, -8
 512              		.cfi_offset 14, -4
 513 0002 0446     		mov	r4, r0
 884:Middlewares/Third_Party/LwIP/src/core/udp.c ****   struct udp_pcb *ipcb;
 885:Middlewares/Third_Party/LwIP/src/core/udp.c ****   u8_t rebind;
 886:Middlewares/Third_Party/LwIP/src/core/udp.c **** 
 887:Middlewares/Third_Party/LwIP/src/core/udp.c **** #if LWIP_IPV4
 888:Middlewares/Third_Party/LwIP/src/core/udp.c ****   /* Don't propagate NULL pointer (IPv4 ANY) to subsequent functions */
 889:Middlewares/Third_Party/LwIP/src/core/udp.c ****   if (ipaddr == NULL) {
 514              		.loc 1 889 0
 515 0004 0D46     		mov	r5, r1
 516 0006 71B1     		cbz	r1, .L72
 517              	.L54:
 518              	.LVL73:
 890:Middlewares/Third_Party/LwIP/src/core/udp.c ****     ipaddr = IP4_ADDR_ANY;
 891:Middlewares/Third_Party/LwIP/src/core/udp.c ****   }
 892:Middlewares/Third_Party/LwIP/src/core/udp.c **** #endif /* LWIP_IPV4 */
 893:Middlewares/Third_Party/LwIP/src/core/udp.c **** 
 894:Middlewares/Third_Party/LwIP/src/core/udp.c ****   /* still need to check for ipaddr == NULL in IPv6 only case */
 895:Middlewares/Third_Party/LwIP/src/core/udp.c ****   if ((pcb == NULL) || (ipaddr == NULL)) {
 519              		.loc 1 895 0
 520 0008 B5FA85F3 		clz	r3, r5
 521 000c 5B09     		lsrs	r3, r3, #5
 522 000e 002C     		cmp	r4, #0
 523 0010 08BF     		it	eq
 524 0012 0123     		moveq	r3, #1
 525 0014 6BBB     		cbnz	r3, .L65
 526              	.LVL74:
 896:Middlewares/Third_Party/LwIP/src/core/udp.c ****     return ERR_VAL;
 897:Middlewares/Third_Party/LwIP/src/core/udp.c ****   }
 898:Middlewares/Third_Party/LwIP/src/core/udp.c **** 
 899:Middlewares/Third_Party/LwIP/src/core/udp.c ****   LWIP_DEBUGF(UDP_DEBUG | LWIP_DBG_TRACE, ("udp_bind(ipaddr = "));
 900:Middlewares/Third_Party/LwIP/src/core/udp.c ****   ip_addr_debug_print(UDP_DEBUG | LWIP_DBG_TRACE, ipaddr);
 901:Middlewares/Third_Party/LwIP/src/core/udp.c ****   LWIP_DEBUGF(UDP_DEBUG | LWIP_DBG_TRACE, (", port = %"U16_F")\n", port));
 902:Middlewares/Third_Party/LwIP/src/core/udp.c **** 
 903:Middlewares/Third_Party/LwIP/src/core/udp.c ****   rebind = 0;
 904:Middlewares/Third_Party/LwIP/src/core/udp.c ****   /* Check for double bind and rebind of the same pcb */
 905:Middlewares/Third_Party/LwIP/src/core/udp.c ****   for (ipcb = udp_pcbs; ipcb != NULL; ipcb = ipcb->next) {
 527              		.loc 1 905 0
 528 0016 1B4B     		ldr	r3, .L75
 529 0018 1B68     		ldr	r3, [r3]
 530              	.LVL75:
 531 001a 1946     		mov	r1, r3
 532              	.LVL76:
ARM GAS  C:\Users\Patryk\AppData\Local\Temp\ccrZQ8Ea.s 			page 27


 533              	.L56:
 534              		.loc 1 905 0 is_stmt 0 discriminator 1
 535 001c 29B1     		cbz	r1, .L73
 906:Middlewares/Third_Party/LwIP/src/core/udp.c ****     /* is this UDP PCB already on active list? */
 907:Middlewares/Third_Party/LwIP/src/core/udp.c ****     if (pcb == ipcb) {
 536              		.loc 1 907 0 is_stmt 1
 537 001e A142     		cmp	r1, r4
 538 0020 14D0     		beq	.L66
 905:Middlewares/Third_Party/LwIP/src/core/udp.c ****     /* is this UDP PCB already on active list? */
 539              		.loc 1 905 0 discriminator 2
 540 0022 C968     		ldr	r1, [r1, #12]
 541              	.LVL77:
 542 0024 FAE7     		b	.L56
 543              	.LVL78:
 544              	.L72:
 890:Middlewares/Third_Party/LwIP/src/core/udp.c ****   }
 545              		.loc 1 890 0
 546 0026 184D     		ldr	r5, .L75+4
 547 0028 EEE7     		b	.L54
 548              	.LVL79:
 549              	.L73:
 903:Middlewares/Third_Party/LwIP/src/core/udp.c ****   /* Check for double bind and rebind of the same pcb */
 550              		.loc 1 903 0
 551 002a 0026     		movs	r6, #0
 552              	.L57:
 553              	.LVL80:
 908:Middlewares/Third_Party/LwIP/src/core/udp.c ****       rebind = 1;
 909:Middlewares/Third_Party/LwIP/src/core/udp.c ****       break;
 910:Middlewares/Third_Party/LwIP/src/core/udp.c ****     }
 911:Middlewares/Third_Party/LwIP/src/core/udp.c ****   }
 912:Middlewares/Third_Party/LwIP/src/core/udp.c **** 
 913:Middlewares/Third_Party/LwIP/src/core/udp.c ****   /* no port specified? */
 914:Middlewares/Third_Party/LwIP/src/core/udp.c ****   if (port == 0) {
 554              		.loc 1 914 0
 555 002c 8AB9     		cbnz	r2, .L59
 915:Middlewares/Third_Party/LwIP/src/core/udp.c ****     port = udp_new_port();
 556              		.loc 1 915 0
 557 002e FFF7FEFF 		bl	udp_new_port
 558              	.LVL81:
 916:Middlewares/Third_Party/LwIP/src/core/udp.c ****     if (port == 0) {
 559              		.loc 1 916 0
 560 0032 0246     		mov	r2, r0
 561 0034 00B3     		cbz	r0, .L74
 562              	.LVL82:
 563              	.L60:
 917:Middlewares/Third_Party/LwIP/src/core/udp.c ****       /* no more ports available in local range */
 918:Middlewares/Third_Party/LwIP/src/core/udp.c ****       LWIP_DEBUGF(UDP_DEBUG, ("udp_bind: out of free UDP ports\n"));
 919:Middlewares/Third_Party/LwIP/src/core/udp.c ****       return ERR_USE;
 920:Middlewares/Third_Party/LwIP/src/core/udp.c ****     }
 921:Middlewares/Third_Party/LwIP/src/core/udp.c ****   } else {
 922:Middlewares/Third_Party/LwIP/src/core/udp.c ****     for (ipcb = udp_pcbs; ipcb != NULL; ipcb = ipcb->next) {
 923:Middlewares/Third_Party/LwIP/src/core/udp.c ****       if (pcb != ipcb) {
 924:Middlewares/Third_Party/LwIP/src/core/udp.c ****       /* By default, we don't allow to bind to a port that any other udp
 925:Middlewares/Third_Party/LwIP/src/core/udp.c ****          PCB is already bound to, unless *all* PCBs with that port have tha
 926:Middlewares/Third_Party/LwIP/src/core/udp.c ****          REUSEADDR flag set. */
 927:Middlewares/Third_Party/LwIP/src/core/udp.c **** #if SO_REUSE
 928:Middlewares/Third_Party/LwIP/src/core/udp.c ****         if (!ip_get_option(pcb, SOF_REUSEADDR) ||
ARM GAS  C:\Users\Patryk\AppData\Local\Temp\ccrZQ8Ea.s 			page 28


 929:Middlewares/Third_Party/LwIP/src/core/udp.c ****             !ip_get_option(ipcb, SOF_REUSEADDR))
 930:Middlewares/Third_Party/LwIP/src/core/udp.c **** #endif /* SO_REUSE */
 931:Middlewares/Third_Party/LwIP/src/core/udp.c ****         {
 932:Middlewares/Third_Party/LwIP/src/core/udp.c ****           /* port matches that of PCB in list and REUSEADDR not set -> reject */
 933:Middlewares/Third_Party/LwIP/src/core/udp.c ****           if ((ipcb->local_port == port) &&
 934:Middlewares/Third_Party/LwIP/src/core/udp.c ****               /* IP address matches? */
 935:Middlewares/Third_Party/LwIP/src/core/udp.c ****               ip_addr_cmp(&ipcb->local_ip, ipaddr)) {
 936:Middlewares/Third_Party/LwIP/src/core/udp.c ****             /* other PCB already binds to this local IP and port */
 937:Middlewares/Third_Party/LwIP/src/core/udp.c ****             LWIP_DEBUGF(UDP_DEBUG,
 938:Middlewares/Third_Party/LwIP/src/core/udp.c ****                         ("udp_bind: local port %"U16_F" already bound by another pcb\n", port));
 939:Middlewares/Third_Party/LwIP/src/core/udp.c ****             return ERR_USE;
 940:Middlewares/Third_Party/LwIP/src/core/udp.c ****           }
 941:Middlewares/Third_Party/LwIP/src/core/udp.c ****         }
 942:Middlewares/Third_Party/LwIP/src/core/udp.c ****       }
 943:Middlewares/Third_Party/LwIP/src/core/udp.c ****     }
 944:Middlewares/Third_Party/LwIP/src/core/udp.c ****   }
 945:Middlewares/Third_Party/LwIP/src/core/udp.c **** 
 946:Middlewares/Third_Party/LwIP/src/core/udp.c ****   ip_addr_set_ipaddr(&pcb->local_ip, ipaddr);
 564              		.loc 1 946 0
 565 0036 D5B1     		cbz	r5, .L69
 566              		.loc 1 946 0 is_stmt 0 discriminator 1
 567 0038 2B68     		ldr	r3, [r5]
 568              	.L63:
 569              		.loc 1 946 0 discriminator 4
 570 003a 2360     		str	r3, [r4]
 947:Middlewares/Third_Party/LwIP/src/core/udp.c **** 
 948:Middlewares/Third_Party/LwIP/src/core/udp.c ****   pcb->local_port = port;
 571              		.loc 1 948 0 is_stmt 1 discriminator 4
 572 003c 6282     		strh	r2, [r4, #18]	@ movhi
 949:Middlewares/Third_Party/LwIP/src/core/udp.c ****   mib2_udp_bind(pcb);
 950:Middlewares/Third_Party/LwIP/src/core/udp.c ****   /* pcb not active yet? */
 951:Middlewares/Third_Party/LwIP/src/core/udp.c ****   if (rebind == 0) {
 573              		.loc 1 951 0 discriminator 4
 574 003e F6B9     		cbnz	r6, .L70
 952:Middlewares/Third_Party/LwIP/src/core/udp.c ****     /* place the PCB on the active list if not already there */
 953:Middlewares/Third_Party/LwIP/src/core/udp.c ****     pcb->next = udp_pcbs;
 575              		.loc 1 953 0
 576 0040 104B     		ldr	r3, .L75
 577 0042 1A68     		ldr	r2, [r3]
 578              	.LVL83:
 579 0044 E260     		str	r2, [r4, #12]
 954:Middlewares/Third_Party/LwIP/src/core/udp.c ****     udp_pcbs = pcb;
 580              		.loc 1 954 0
 581 0046 1C60     		str	r4, [r3]
 955:Middlewares/Third_Party/LwIP/src/core/udp.c ****   }
 956:Middlewares/Third_Party/LwIP/src/core/udp.c ****   LWIP_DEBUGF(UDP_DEBUG | LWIP_DBG_TRACE | LWIP_DBG_STATE, ("udp_bind: bound to "));
 957:Middlewares/Third_Party/LwIP/src/core/udp.c ****   ip_addr_debug_print(UDP_DEBUG | LWIP_DBG_TRACE | LWIP_DBG_STATE, &pcb->local_ip);
 958:Middlewares/Third_Party/LwIP/src/core/udp.c ****   LWIP_DEBUGF(UDP_DEBUG | LWIP_DBG_TRACE | LWIP_DBG_STATE, (", port %"U16_F")\n", pcb->local_port))
 959:Middlewares/Third_Party/LwIP/src/core/udp.c ****   return ERR_OK;
 582              		.loc 1 959 0
 583 0048 0020     		movs	r0, #0
 584              	.LVL84:
 585              	.L55:
 960:Middlewares/Third_Party/LwIP/src/core/udp.c **** }
 586              		.loc 1 960 0
 587 004a 70BD     		pop	{r4, r5, r6, pc}
 588              	.LVL85:
ARM GAS  C:\Users\Patryk\AppData\Local\Temp\ccrZQ8Ea.s 			page 29


 589              	.L66:
 908:Middlewares/Third_Party/LwIP/src/core/udp.c ****       break;
 590              		.loc 1 908 0
 591 004c 0126     		movs	r6, #1
 592 004e EDE7     		b	.L57
 593              	.LVL86:
 594              	.L61:
 922:Middlewares/Third_Party/LwIP/src/core/udp.c ****       if (pcb != ipcb) {
 595              		.loc 1 922 0 discriminator 2
 596 0050 DB68     		ldr	r3, [r3, #12]
 597              	.LVL87:
 598              	.L59:
 922:Middlewares/Third_Party/LwIP/src/core/udp.c ****       if (pcb != ipcb) {
 599              		.loc 1 922 0 is_stmt 0 discriminator 1
 600 0052 002B     		cmp	r3, #0
 601 0054 EFD0     		beq	.L60
 923:Middlewares/Third_Party/LwIP/src/core/udp.c ****       /* By default, we don't allow to bind to a port that any other udp
 602              		.loc 1 923 0 is_stmt 1
 603 0056 A342     		cmp	r3, r4
 604 0058 FAD0     		beq	.L61
 933:Middlewares/Third_Party/LwIP/src/core/udp.c ****               /* IP address matches? */
 605              		.loc 1 933 0
 606 005a 598A     		ldrh	r1, [r3, #18]
 607 005c 9142     		cmp	r1, r2
 608 005e F7D1     		bne	.L61
 935:Middlewares/Third_Party/LwIP/src/core/udp.c ****             /* other PCB already binds to this local IP and port */
 609              		.loc 1 935 0 discriminator 1
 610 0060 1868     		ldr	r0, [r3]
 611 0062 2968     		ldr	r1, [r5]
 933:Middlewares/Third_Party/LwIP/src/core/udp.c ****               /* IP address matches? */
 612              		.loc 1 933 0 discriminator 1
 613 0064 8842     		cmp	r0, r1
 614 0066 F3D1     		bne	.L61
 939:Middlewares/Third_Party/LwIP/src/core/udp.c ****           }
 615              		.loc 1 939 0
 616 0068 6FF00700 		mvn	r0, #7
 617 006c EDE7     		b	.L55
 618              	.LVL88:
 619              	.L69:
 946:Middlewares/Third_Party/LwIP/src/core/udp.c **** 
 620              		.loc 1 946 0
 621 006e 0023     		movs	r3, #0
 622 0070 E3E7     		b	.L63
 623              	.LVL89:
 624              	.L65:
 896:Middlewares/Third_Party/LwIP/src/core/udp.c ****   }
 625              		.loc 1 896 0
 626 0072 6FF00500 		mvn	r0, #5
 627              	.LVL90:
 628 0076 E8E7     		b	.L55
 629              	.LVL91:
 630              	.L74:
 919:Middlewares/Third_Party/LwIP/src/core/udp.c ****     }
 631              		.loc 1 919 0
 632 0078 6FF00700 		mvn	r0, #7
 633              	.LVL92:
 634 007c E5E7     		b	.L55
ARM GAS  C:\Users\Patryk\AppData\Local\Temp\ccrZQ8Ea.s 			page 30


 635              	.LVL93:
 636              	.L70:
 959:Middlewares/Third_Party/LwIP/src/core/udp.c **** }
 637              		.loc 1 959 0
 638 007e 0020     		movs	r0, #0
 639 0080 E3E7     		b	.L55
 640              	.L76:
 641 0082 00BF     		.align	2
 642              	.L75:
 643 0084 00000000 		.word	udp_pcbs
 644 0088 00000000 		.word	ip_addr_any
 645              		.cfi_endproc
 646              	.LFE162:
 648              		.section	.text.udp_sendto_if_src,"ax",%progbits
 649              		.align	1
 650              		.global	udp_sendto_if_src
 651              		.syntax unified
 652              		.thumb
 653              		.thumb_func
 654              		.fpu fpv5-sp-d16
 656              	udp_sendto_if_src:
 657              	.LFB161:
 663:Middlewares/Third_Party/LwIP/src/core/udp.c **** #if LWIP_CHECKSUM_ON_COPY && CHECKSUM_GEN_UDP
 658              		.loc 1 663 0
 659              		.cfi_startproc
 660              		@ args = 8, pretend = 0, frame = 0
 661              		@ frame_needed = 0, uses_anonymous_args = 0
 662              	.LVL94:
 663 0000 2DE9F043 		push	{r4, r5, r6, r7, r8, r9, lr}
 664              	.LCFI5:
 665              		.cfi_def_cfa_offset 28
 666              		.cfi_offset 4, -28
 667              		.cfi_offset 5, -24
 668              		.cfi_offset 6, -20
 669              		.cfi_offset 7, -16
 670              		.cfi_offset 8, -12
 671              		.cfi_offset 9, -8
 672              		.cfi_offset 14, -4
 673 0004 85B0     		sub	sp, sp, #20
 674              	.LCFI6:
 675              		.cfi_def_cfa_offset 48
 681:Middlewares/Third_Party/LwIP/src/core/udp.c ****       !IP_ADDR_PCB_VERSION_MATCH(pcb, dst_ip)) {
 676              		.loc 1 681 0
 677 0006 B2FA82F5 		clz	r5, r2
 678 000a 6D09     		lsrs	r5, r5, #5
 679 000c 0028     		cmp	r0, #0
 680 000e 08BF     		it	eq
 681 0010 0125     		moveq	r5, #1
 682 0012 002D     		cmp	r5, #0
 683 0014 4FD1     		bne	.L82
 684 0016 0446     		mov	r4, r0
 685 0018 9046     		mov	r8, r2
 686 001a 9946     		mov	r9, r3
 687 001c 0D46     		mov	r5, r1
 700:Middlewares/Third_Party/LwIP/src/core/udp.c ****     LWIP_DEBUGF(UDP_DEBUG | LWIP_DBG_TRACE, ("udp_send: not yet bound to a port, binding now\n"));
 688              		.loc 1 700 0
 689 001e 428A     		ldrh	r2, [r0, #18]
ARM GAS  C:\Users\Patryk\AppData\Local\Temp\ccrZQ8Ea.s 			page 31


 690              	.LVL95:
 691 0020 22B9     		cbnz	r2, .L79
 702:Middlewares/Third_Party/LwIP/src/core/udp.c ****     if (err != ERR_OK) {
 692              		.loc 1 702 0
 693 0022 0146     		mov	r1, r0
 694              	.LVL96:
 695 0024 FFF7FEFF 		bl	udp_bind
 696              	.LVL97:
 703:Middlewares/Third_Party/LwIP/src/core/udp.c ****       LWIP_DEBUGF(UDP_DEBUG | LWIP_DBG_TRACE | LWIP_DBG_LEVEL_SERIOUS, ("udp_send: forced port bind
 697              		.loc 1 703 0
 698 0028 0746     		mov	r7, r0
 699 002a 50BB     		cbnz	r0, .L78
 700              	.LVL98:
 701              	.L79:
 710:Middlewares/Third_Party/LwIP/src/core/udp.c ****     /* allocate header in a separate new pbuf */
 702              		.loc 1 710 0
 703 002c 0821     		movs	r1, #8
 704 002e 2846     		mov	r0, r5
 705 0030 FFF7FEFF 		bl	pbuf_header
 706              	.LVL99:
 707 0034 48BB     		cbnz	r0, .L86
 728:Middlewares/Third_Party/LwIP/src/core/udp.c ****     LWIP_DEBUGF(UDP_DEBUG, ("udp_send: added header in given pbuf %p\n", (void *)p));
 708              		.loc 1 728 0
 709 0036 2E46     		mov	r6, r5
 710              	.L80:
 711              	.LVL100:
 731:Middlewares/Third_Party/LwIP/src/core/udp.c ****               (q->len >= sizeof(struct udp_hdr)));
 712              		.loc 1 731 0
 713 0038 7389     		ldrh	r3, [r6, #10]
 714 003a 072B     		cmp	r3, #7
 715 003c 33D9     		bls	.L87
 716              	.L81:
 734:Middlewares/Third_Party/LwIP/src/core/udp.c ****   udphdr->src = lwip_htons(pcb->local_port);
 717              		.loc 1 734 0
 718 003e 7768     		ldr	r7, [r6, #4]
 719              	.LVL101:
 735:Middlewares/Third_Party/LwIP/src/core/udp.c ****   udphdr->dest = lwip_htons(dst_port);
 720              		.loc 1 735 0
 721 0040 608A     		ldrh	r0, [r4, #18]
 722 0042 FFF7FEFF 		bl	lwip_htons
 723              	.LVL102:
 724 0046 3880     		strh	r0, [r7]	@ unaligned
 736:Middlewares/Third_Party/LwIP/src/core/udp.c ****   /* in UDP, 0 checksum means 'no checksum' */
 725              		.loc 1 736 0
 726 0048 4846     		mov	r0, r9
 727 004a FFF7FEFF 		bl	lwip_htons
 728              	.LVL103:
 729 004e 7880     		strh	r0, [r7, #2]	@ unaligned
 738:Middlewares/Third_Party/LwIP/src/core/udp.c **** 
 730              		.loc 1 738 0
 731 0050 0023     		movs	r3, #0
 732 0052 BB71     		strb	r3, [r7, #6]
 733 0054 FB71     		strb	r3, [r7, #7]
 800:Middlewares/Third_Party/LwIP/src/core/udp.c ****     /* calculate checksum */
 734              		.loc 1 800 0
 735 0056 3089     		ldrh	r0, [r6, #8]
 736 0058 FFF7FEFF 		bl	lwip_htons
ARM GAS  C:\Users\Patryk\AppData\Local\Temp\ccrZQ8Ea.s 			page 32


 737              	.LVL104:
 738 005c B880     		strh	r0, [r7, #4]	@ unaligned
 739              	.LVL105:
 836:Middlewares/Third_Party/LwIP/src/core/udp.c **** #endif /* LWIP_MULTICAST_TX_OPTIONS */
 740              		.loc 1 836 0
 741 005e A37A     		ldrb	r3, [r4, #10]	@ zero_extendqisi2
 742              	.LVL106:
 843:Middlewares/Third_Party/LwIP/src/core/udp.c ****   NETIF_SET_HWADDRHINT(netif, NULL);
 743              		.loc 1 843 0
 744 0060 627A     		ldrb	r2, [r4, #9]	@ zero_extendqisi2
 745 0062 0C99     		ldr	r1, [sp, #48]
 746 0064 0291     		str	r1, [sp, #8]
 747 0066 1121     		movs	r1, #17
 748 0068 0191     		str	r1, [sp, #4]
 749 006a 0092     		str	r2, [sp]
 750 006c 4246     		mov	r2, r8
 751 006e 0D99     		ldr	r1, [sp, #52]
 752 0070 3046     		mov	r0, r6
 753 0072 FFF7FEFF 		bl	ip4_output_if_src
 754              	.LVL107:
 755 0076 0746     		mov	r7, r0
 756              	.LVL108:
 850:Middlewares/Third_Party/LwIP/src/core/udp.c ****     /* free the header pbuf */
 757              		.loc 1 850 0
 758 0078 AE42     		cmp	r6, r5
 759 007a 02D0     		beq	.L78
 852:Middlewares/Third_Party/LwIP/src/core/udp.c ****     q = NULL;
 760              		.loc 1 852 0
 761 007c 3046     		mov	r0, r6
 762 007e FFF7FEFF 		bl	pbuf_free
 763              	.LVL109:
 764              	.L78:
 859:Middlewares/Third_Party/LwIP/src/core/udp.c **** 
 765              		.loc 1 859 0
 766 0082 3846     		mov	r0, r7
 767 0084 05B0     		add	sp, sp, #20
 768              	.LCFI7:
 769              		.cfi_remember_state
 770              		.cfi_def_cfa_offset 28
 771              		@ sp needed
 772 0086 BDE8F083 		pop	{r4, r5, r6, r7, r8, r9, pc}
 773              	.LVL110:
 774              	.L86:
 775              	.LCFI8:
 776              		.cfi_restore_state
 712:Middlewares/Third_Party/LwIP/src/core/udp.c ****     /* new header pbuf could not be allocated? */
 777              		.loc 1 712 0
 778 008a 0022     		movs	r2, #0
 779 008c 0821     		movs	r1, #8
 780 008e 0120     		movs	r0, #1
 781 0090 FFF7FEFF 		bl	pbuf_alloc
 782              	.LVL111:
 714:Middlewares/Third_Party/LwIP/src/core/udp.c ****       LWIP_DEBUGF(UDP_DEBUG | LWIP_DBG_TRACE | LWIP_DBG_LEVEL_SERIOUS, ("udp_send: could not alloca
 783              		.loc 1 714 0
 784 0094 0646     		mov	r6, r0
 785 0096 88B1     		cbz	r0, .L84
 718:Middlewares/Third_Party/LwIP/src/core/udp.c ****       /* chain header q in front of given pbuf p (only if p contains data) */
ARM GAS  C:\Users\Patryk\AppData\Local\Temp\ccrZQ8Ea.s 			page 33


 786              		.loc 1 718 0
 787 0098 2B89     		ldrh	r3, [r5, #8]
 788 009a 002B     		cmp	r3, #0
 789 009c CCD0     		beq	.L80
 720:Middlewares/Third_Party/LwIP/src/core/udp.c ****     }
 790              		.loc 1 720 0
 791 009e 2946     		mov	r1, r5
 792 00a0 FFF7FEFF 		bl	pbuf_chain
 793              	.LVL112:
 794 00a4 C8E7     		b	.L80
 795              	.L87:
 731:Middlewares/Third_Party/LwIP/src/core/udp.c ****               (q->len >= sizeof(struct udp_hdr)));
 796              		.loc 1 731 0 discriminator 1
 797 00a6 074B     		ldr	r3, .L88
 798 00a8 4FF43772 		mov	r2, #732
 799 00ac 0649     		ldr	r1, .L88+4
 800 00ae 0748     		ldr	r0, .L88+8
 801 00b0 FFF7FEFF 		bl	printf
 802              	.LVL113:
 803 00b4 C3E7     		b	.L81
 804              	.LVL114:
 805              	.L82:
 683:Middlewares/Third_Party/LwIP/src/core/udp.c ****   }
 806              		.loc 1 683 0
 807 00b6 6FF00507 		mvn	r7, #5
 808 00ba E2E7     		b	.L78
 809              	.LVL115:
 810              	.L84:
 716:Middlewares/Third_Party/LwIP/src/core/udp.c ****     }
 811              		.loc 1 716 0
 812 00bc 4FF0FF37 		mov	r7, #-1
 813 00c0 DFE7     		b	.L78
 814              	.L89:
 815 00c2 00BF     		.align	2
 816              	.L88:
 817 00c4 00000000 		.word	.LC0
 818 00c8 00000000 		.word	.LC3
 819 00cc 40000000 		.word	.LC2
 820              		.cfi_endproc
 821              	.LFE161:
 823              		.section	.text.udp_sendto_if,"ax",%progbits
 824              		.align	1
 825              		.global	udp_sendto_if
 826              		.syntax unified
 827              		.thumb
 828              		.thumb_func
 829              		.fpu fpv5-sp-d16
 831              	udp_sendto_if:
 832              	.LFB160:
 594:Middlewares/Third_Party/LwIP/src/core/udp.c **** #if LWIP_CHECKSUM_ON_COPY && CHECKSUM_GEN_UDP
 833              		.loc 1 594 0
 834              		.cfi_startproc
 835              		@ args = 4, pretend = 0, frame = 0
 836              		@ frame_needed = 0, uses_anonymous_args = 0
 837              	.LVL116:
 838 0000 F0B5     		push	{r4, r5, r6, r7, lr}
 839              	.LCFI9:
ARM GAS  C:\Users\Patryk\AppData\Local\Temp\ccrZQ8Ea.s 			page 34


 840              		.cfi_def_cfa_offset 20
 841              		.cfi_offset 4, -20
 842              		.cfi_offset 5, -16
 843              		.cfi_offset 6, -12
 844              		.cfi_offset 7, -8
 845              		.cfi_offset 14, -4
 846 0002 83B0     		sub	sp, sp, #12
 847              	.LCFI10:
 848              		.cfi_def_cfa_offset 32
 849 0004 089F     		ldr	r7, [sp, #32]
 608:Middlewares/Third_Party/LwIP/src/core/udp.c ****     return ERR_VAL;
 850              		.loc 1 608 0
 851 0006 0446     		mov	r4, r0
 852 0008 1646     		mov	r6, r2
 853 000a B2FA82F2 		clz	r2, r2
 854              	.LVL117:
 855 000e 5209     		lsrs	r2, r2, #5
 856 0010 0028     		cmp	r0, #0
 857 0012 14BF     		ite	ne
 858 0014 1046     		movne	r0, r2
 859 0016 0120     		moveq	r0, #1
 860              	.LVL118:
 861 0018 B0B9     		cbnz	r0, .L95
 635:Middlewares/Third_Party/LwIP/src/core/udp.c ****       ip4_addr_ismulticast(ip_2_ip4(&pcb->local_ip))) {
 862              		.loc 1 635 0
 863 001a 2546     		mov	r5, r4
 864 001c 5CB1     		cbz	r4, .L92
 635:Middlewares/Third_Party/LwIP/src/core/udp.c ****       ip4_addr_ismulticast(ip_2_ip4(&pcb->local_ip))) {
 865              		.loc 1 635 0 is_stmt 0 discriminator 1
 866 001e 2268     		ldr	r2, [r4]
 867 0020 4AB1     		cbz	r2, .L92
 636:Middlewares/Third_Party/LwIP/src/core/udp.c ****     /* if the local_ip is any or multicast
 868              		.loc 1 636 0 is_stmt 1 discriminator 2
 869 0022 02F0F000 		and	r0, r2, #240
 635:Middlewares/Third_Party/LwIP/src/core/udp.c ****       ip4_addr_ismulticast(ip_2_ip4(&pcb->local_ip))) {
 870              		.loc 1 635 0 discriminator 2
 871 0026 E028     		cmp	r0, #224
 872 0028 05D0     		beq	.L92
 643:Middlewares/Third_Party/LwIP/src/core/udp.c ****       /* local_ip doesn't match, drop the packet */
 873              		.loc 1 643 0
 874 002a 7868     		ldr	r0, [r7, #4]
 875 002c 8242     		cmp	r2, r0
 876 002e 03D0     		beq	.L94
 645:Middlewares/Third_Party/LwIP/src/core/udp.c ****     }
 877              		.loc 1 645 0
 878 0030 6FF00300 		mvn	r0, #3
 879 0034 06E0     		b	.L91
 880              	.L92:
 639:Middlewares/Third_Party/LwIP/src/core/udp.c ****   } else {
 881              		.loc 1 639 0
 882 0036 3D1D     		adds	r5, r7, #4
 883              	.LVL119:
 884              	.L94:
 885 0038 3246     		mov	r2, r6
 886 003a 2046     		mov	r0, r4
 887              	.LVL120:
 654:Middlewares/Third_Party/LwIP/src/core/udp.c **** #endif /* LWIP_CHECKSUM_ON_COPY && CHECKSUM_GEN_UDP */
ARM GAS  C:\Users\Patryk\AppData\Local\Temp\ccrZQ8Ea.s 			page 35


 888              		.loc 1 654 0
 889 003c 0195     		str	r5, [sp, #4]
 890 003e 0097     		str	r7, [sp]
 891 0040 FFF7FEFF 		bl	udp_sendto_if_src
 892              	.LVL121:
 893              	.L91:
 656:Middlewares/Third_Party/LwIP/src/core/udp.c **** 
 894              		.loc 1 656 0
 895 0044 03B0     		add	sp, sp, #12
 896              	.LCFI11:
 897              		.cfi_remember_state
 898              		.cfi_def_cfa_offset 20
 899              		@ sp needed
 900 0046 F0BD     		pop	{r4, r5, r6, r7, pc}
 901              	.LVL122:
 902              	.L95:
 903              	.LCFI12:
 904              		.cfi_restore_state
 609:Middlewares/Third_Party/LwIP/src/core/udp.c ****   }
 905              		.loc 1 609 0
 906 0048 6FF00500 		mvn	r0, #5
 907 004c FAE7     		b	.L91
 908              		.cfi_endproc
 909              	.LFE160:
 911              		.section	.text.udp_sendto,"ax",%progbits
 912              		.align	1
 913              		.global	udp_sendto
 914              		.syntax unified
 915              		.thumb
 916              		.thumb_func
 917              		.fpu fpv5-sp-d16
 919              	udp_sendto:
 920              	.LFB159:
 504:Middlewares/Third_Party/LwIP/src/core/udp.c **** #if LWIP_CHECKSUM_ON_COPY && CHECKSUM_GEN_UDP
 921              		.loc 1 504 0
 922              		.cfi_startproc
 923              		@ args = 0, pretend = 0, frame = 0
 924              		@ frame_needed = 0, uses_anonymous_args = 0
 925              	.LVL123:
 926 0000 F0B5     		push	{r4, r5, r6, r7, lr}
 927              	.LCFI13:
 928              		.cfi_def_cfa_offset 20
 929              		.cfi_offset 4, -20
 930              		.cfi_offset 5, -16
 931              		.cfi_offset 6, -12
 932              		.cfi_offset 7, -8
 933              		.cfi_offset 14, -4
 934 0002 83B0     		sub	sp, sp, #12
 935              	.LCFI14:
 936              		.cfi_def_cfa_offset 32
 937              	.LVL124:
 519:Middlewares/Third_Party/LwIP/src/core/udp.c ****     return ERR_VAL;
 938              		.loc 1 519 0
 939 0004 B2FA82F4 		clz	r4, r2
 940 0008 6409     		lsrs	r4, r4, #5
 941 000a 0028     		cmp	r0, #0
 942 000c 08BF     		it	eq
ARM GAS  C:\Users\Patryk\AppData\Local\Temp\ccrZQ8Ea.s 			page 36


 943 000e 0124     		moveq	r4, #1
 944 0010 84B9     		cbnz	r4, .L100
 945 0012 0646     		mov	r6, r0
 946 0014 1546     		mov	r5, r2
 947 0016 1F46     		mov	r7, r3
 948 0018 0C46     		mov	r4, r1
 553:Middlewares/Third_Party/LwIP/src/core/udp.c ****   }
 949              		.loc 1 553 0
 950 001a 1046     		mov	r0, r2
 951              	.LVL125:
 952 001c FFF7FEFF 		bl	ip4_route
 953              	.LVL126:
 557:Middlewares/Third_Party/LwIP/src/core/udp.c ****     LWIP_DEBUGF(UDP_DEBUG | LWIP_DBG_LEVEL_SERIOUS, ("udp_send: No route to "));
 954              		.loc 1 557 0
 955 0020 58B1     		cbz	r0, .L101
 567:Middlewares/Third_Party/LwIP/src/core/udp.c **** #endif /* LWIP_CHECKSUM_ON_COPY && CHECKSUM_GEN_UDP */
 956              		.loc 1 567 0
 957 0022 0090     		str	r0, [sp]
 958 0024 3B46     		mov	r3, r7
 959 0026 2A46     		mov	r2, r5
 960 0028 2146     		mov	r1, r4
 961 002a 3046     		mov	r0, r6
 962              	.LVL127:
 963 002c FFF7FEFF 		bl	udp_sendto_if
 964              	.LVL128:
 965              	.L99:
 569:Middlewares/Third_Party/LwIP/src/core/udp.c **** 
 966              		.loc 1 569 0
 967 0030 03B0     		add	sp, sp, #12
 968              	.LCFI15:
 969              		.cfi_remember_state
 970              		.cfi_def_cfa_offset 20
 971              		@ sp needed
 972 0032 F0BD     		pop	{r4, r5, r6, r7, pc}
 973              	.LVL129:
 974              	.L100:
 975              	.LCFI16:
 976              		.cfi_restore_state
 520:Middlewares/Third_Party/LwIP/src/core/udp.c ****   }
 977              		.loc 1 520 0
 978 0034 6FF00500 		mvn	r0, #5
 979              	.LVL130:
 980 0038 FAE7     		b	.L99
 981              	.LVL131:
 982              	.L101:
 562:Middlewares/Third_Party/LwIP/src/core/udp.c ****   }
 983              		.loc 1 562 0
 984 003a 6FF00300 		mvn	r0, #3
 985              	.LVL132:
 986 003e F7E7     		b	.L99
 987              		.cfi_endproc
 988              	.LFE159:
 990              		.section	.text.udp_send,"ax",%progbits
 991              		.align	1
 992              		.global	udp_send
 993              		.syntax unified
 994              		.thumb
ARM GAS  C:\Users\Patryk\AppData\Local\Temp\ccrZQ8Ea.s 			page 37


 995              		.thumb_func
 996              		.fpu fpv5-sp-d16
 998              	udp_send:
 999              	.LFB158:
 456:Middlewares/Third_Party/LwIP/src/core/udp.c ****   if ((pcb == NULL) || IP_IS_ANY_TYPE_VAL(pcb->remote_ip)) {
 1000              		.loc 1 456 0
 1001              		.cfi_startproc
 1002              		@ args = 0, pretend = 0, frame = 0
 1003              		@ frame_needed = 0, uses_anonymous_args = 0
 1004              	.LVL133:
 457:Middlewares/Third_Party/LwIP/src/core/udp.c ****     return ERR_VAL;
 1005              		.loc 1 457 0
 1006 0000 28B1     		cbz	r0, .L105
 456:Middlewares/Third_Party/LwIP/src/core/udp.c ****   if ((pcb == NULL) || IP_IS_ANY_TYPE_VAL(pcb->remote_ip)) {
 1007              		.loc 1 456 0
 1008 0002 08B5     		push	{r3, lr}
 1009              	.LCFI17:
 1010              		.cfi_def_cfa_offset 8
 1011              		.cfi_offset 3, -8
 1012              		.cfi_offset 14, -4
 462:Middlewares/Third_Party/LwIP/src/core/udp.c **** }
 1013              		.loc 1 462 0
 1014 0004 838A     		ldrh	r3, [r0, #20]
 1015 0006 021D     		adds	r2, r0, #4
 1016 0008 FFF7FEFF 		bl	udp_sendto
 1017              	.LVL134:
 463:Middlewares/Third_Party/LwIP/src/core/udp.c **** 
 1018              		.loc 1 463 0
 1019 000c 08BD     		pop	{r3, pc}
 1020              	.LVL135:
 1021              	.L105:
 1022              	.LCFI18:
 1023              		.cfi_def_cfa_offset 0
 1024              		.cfi_restore 3
 1025              		.cfi_restore 14
 458:Middlewares/Third_Party/LwIP/src/core/udp.c ****   }
 1026              		.loc 1 458 0
 1027 000e 6FF00500 		mvn	r0, #5
 1028              	.LVL136:
 463:Middlewares/Third_Party/LwIP/src/core/udp.c **** 
 1029              		.loc 1 463 0
 1030 0012 7047     		bx	lr
 1031              		.cfi_endproc
 1032              	.LFE158:
 1034              		.section	.text.udp_connect,"ax",%progbits
 1035              		.align	1
 1036              		.global	udp_connect
 1037              		.syntax unified
 1038              		.thumb
 1039              		.thumb_func
 1040              		.fpu fpv5-sp-d16
 1042              	udp_connect:
 1043              	.LFB163:
 961:Middlewares/Third_Party/LwIP/src/core/udp.c **** 
 962:Middlewares/Third_Party/LwIP/src/core/udp.c **** /**
 963:Middlewares/Third_Party/LwIP/src/core/udp.c ****  * @ingroup udp_raw
 964:Middlewares/Third_Party/LwIP/src/core/udp.c ****  * Connect an UDP PCB.
ARM GAS  C:\Users\Patryk\AppData\Local\Temp\ccrZQ8Ea.s 			page 38


 965:Middlewares/Third_Party/LwIP/src/core/udp.c ****  *
 966:Middlewares/Third_Party/LwIP/src/core/udp.c ****  * This will associate the UDP PCB with the remote address.
 967:Middlewares/Third_Party/LwIP/src/core/udp.c ****  *
 968:Middlewares/Third_Party/LwIP/src/core/udp.c ****  * @param pcb UDP PCB to be connected with remote address ipaddr and port.
 969:Middlewares/Third_Party/LwIP/src/core/udp.c ****  * @param ipaddr remote IP address to connect with.
 970:Middlewares/Third_Party/LwIP/src/core/udp.c ****  * @param port remote UDP port to connect with.
 971:Middlewares/Third_Party/LwIP/src/core/udp.c ****  *
 972:Middlewares/Third_Party/LwIP/src/core/udp.c ****  * @return lwIP error code
 973:Middlewares/Third_Party/LwIP/src/core/udp.c ****  *
 974:Middlewares/Third_Party/LwIP/src/core/udp.c ****  * ipaddr & port are expected to be in the same byte order as in the pcb.
 975:Middlewares/Third_Party/LwIP/src/core/udp.c ****  *
 976:Middlewares/Third_Party/LwIP/src/core/udp.c ****  * The udp pcb is bound to a random local port if not already bound.
 977:Middlewares/Third_Party/LwIP/src/core/udp.c ****  *
 978:Middlewares/Third_Party/LwIP/src/core/udp.c ****  * @see udp_disconnect()
 979:Middlewares/Third_Party/LwIP/src/core/udp.c ****  */
 980:Middlewares/Third_Party/LwIP/src/core/udp.c **** err_t
 981:Middlewares/Third_Party/LwIP/src/core/udp.c **** udp_connect(struct udp_pcb *pcb, const ip_addr_t *ipaddr, u16_t port)
 982:Middlewares/Third_Party/LwIP/src/core/udp.c **** {
 1044              		.loc 1 982 0
 1045              		.cfi_startproc
 1046              		@ args = 0, pretend = 0, frame = 0
 1047              		@ frame_needed = 0, uses_anonymous_args = 0
 1048              	.LVL137:
 1049 0000 70B5     		push	{r4, r5, r6, lr}
 1050              	.LCFI19:
 1051              		.cfi_def_cfa_offset 16
 1052              		.cfi_offset 4, -16
 1053              		.cfi_offset 5, -12
 1054              		.cfi_offset 6, -8
 1055              		.cfi_offset 14, -4
 983:Middlewares/Third_Party/LwIP/src/core/udp.c ****   struct udp_pcb *ipcb;
 984:Middlewares/Third_Party/LwIP/src/core/udp.c **** 
 985:Middlewares/Third_Party/LwIP/src/core/udp.c ****   if ((pcb == NULL) || (ipaddr == NULL)) {
 1056              		.loc 1 985 0
 1057 0002 0D46     		mov	r5, r1
 1058 0004 B1FA81F1 		clz	r1, r1
 1059              	.LVL138:
 1060 0008 4909     		lsrs	r1, r1, #5
 1061 000a 0028     		cmp	r0, #0
 1062 000c 08BF     		it	eq
 1063 000e 0121     		moveq	r1, #1
 1064 0010 11BB     		cbnz	r1, .L116
 1065 0012 0446     		mov	r4, r0
 1066 0014 1646     		mov	r6, r2
 986:Middlewares/Third_Party/LwIP/src/core/udp.c ****     return ERR_VAL;
 987:Middlewares/Third_Party/LwIP/src/core/udp.c ****   }
 988:Middlewares/Third_Party/LwIP/src/core/udp.c **** 
 989:Middlewares/Third_Party/LwIP/src/core/udp.c ****   if (pcb->local_port == 0) {
 1067              		.loc 1 989 0
 1068 0016 428A     		ldrh	r2, [r0, #18]
 1069              	.LVL139:
 1070 0018 7AB1     		cbz	r2, .L120
 1071              	.LVL140:
 1072              	.L112:
 990:Middlewares/Third_Party/LwIP/src/core/udp.c ****     err_t err = udp_bind(pcb, &pcb->local_ip, pcb->local_port);
 991:Middlewares/Third_Party/LwIP/src/core/udp.c ****     if (err != ERR_OK) {
 992:Middlewares/Third_Party/LwIP/src/core/udp.c ****       return err;
ARM GAS  C:\Users\Patryk\AppData\Local\Temp\ccrZQ8Ea.s 			page 39


 993:Middlewares/Third_Party/LwIP/src/core/udp.c ****     }
 994:Middlewares/Third_Party/LwIP/src/core/udp.c ****   }
 995:Middlewares/Third_Party/LwIP/src/core/udp.c **** 
 996:Middlewares/Third_Party/LwIP/src/core/udp.c ****   ip_addr_set_ipaddr(&pcb->remote_ip, ipaddr);
 1073              		.loc 1 996 0
 1074 001a ADB1     		cbz	r5, .L117
 1075              		.loc 1 996 0 is_stmt 0 discriminator 1
 1076 001c 2B68     		ldr	r3, [r5]
 1077              	.L113:
 1078              		.loc 1 996 0 discriminator 4
 1079 001e 6360     		str	r3, [r4, #4]
 997:Middlewares/Third_Party/LwIP/src/core/udp.c ****   pcb->remote_port = port;
 1080              		.loc 1 997 0 is_stmt 1 discriminator 4
 1081 0020 A682     		strh	r6, [r4, #20]	@ movhi
 998:Middlewares/Third_Party/LwIP/src/core/udp.c ****   pcb->flags |= UDP_FLAGS_CONNECTED;
 1082              		.loc 1 998 0 discriminator 4
 1083 0022 237C     		ldrb	r3, [r4, #16]	@ zero_extendqisi2
 1084 0024 43F00403 		orr	r3, r3, #4
 1085 0028 2374     		strb	r3, [r4, #16]
 999:Middlewares/Third_Party/LwIP/src/core/udp.c **** 
1000:Middlewares/Third_Party/LwIP/src/core/udp.c ****   LWIP_DEBUGF(UDP_DEBUG | LWIP_DBG_TRACE | LWIP_DBG_STATE, ("udp_connect: connected to "));
1001:Middlewares/Third_Party/LwIP/src/core/udp.c ****   ip_addr_debug_print(UDP_DEBUG | LWIP_DBG_TRACE | LWIP_DBG_STATE,
1002:Middlewares/Third_Party/LwIP/src/core/udp.c ****                       &pcb->remote_ip);
1003:Middlewares/Third_Party/LwIP/src/core/udp.c ****   LWIP_DEBUGF(UDP_DEBUG | LWIP_DBG_TRACE | LWIP_DBG_STATE, (", port %"U16_F")\n", pcb->remote_port)
1004:Middlewares/Third_Party/LwIP/src/core/udp.c **** 
1005:Middlewares/Third_Party/LwIP/src/core/udp.c ****   /* Insert UDP PCB into the list of active UDP PCBs. */
1006:Middlewares/Third_Party/LwIP/src/core/udp.c ****   for (ipcb = udp_pcbs; ipcb != NULL; ipcb = ipcb->next) {
 1086              		.loc 1 1006 0 discriminator 4
 1087 002a 0E4B     		ldr	r3, .L122
 1088 002c 1A68     		ldr	r2, [r3]
 1089              	.LVL141:
 1090 002e 1346     		mov	r3, r2
 1091              	.LVL142:
 1092              	.L114:
 1093              		.loc 1 1006 0 is_stmt 0 discriminator 1
 1094 0030 63B1     		cbz	r3, .L121
1007:Middlewares/Third_Party/LwIP/src/core/udp.c ****     if (pcb == ipcb) {
 1095              		.loc 1 1007 0 is_stmt 1
 1096 0032 A342     		cmp	r3, r4
 1097 0034 13D0     		beq	.L118
1006:Middlewares/Third_Party/LwIP/src/core/udp.c ****     if (pcb == ipcb) {
 1098              		.loc 1 1006 0 discriminator 2
 1099 0036 DB68     		ldr	r3, [r3, #12]
 1100              	.LVL143:
 1101 0038 FAE7     		b	.L114
 1102              	.LVL144:
 1103              	.L120:
 1104              	.LBB2:
 990:Middlewares/Third_Party/LwIP/src/core/udp.c ****     if (err != ERR_OK) {
 1105              		.loc 1 990 0
 1106 003a 0146     		mov	r1, r0
 1107 003c FFF7FEFF 		bl	udp_bind
 1108              	.LVL145:
 991:Middlewares/Third_Party/LwIP/src/core/udp.c ****       return err;
 1109              		.loc 1 991 0
 1110 0040 0346     		mov	r3, r0
 1111 0042 0028     		cmp	r0, #0
ARM GAS  C:\Users\Patryk\AppData\Local\Temp\ccrZQ8Ea.s 			page 40


 1112 0044 E9D0     		beq	.L112
 1113 0046 05E0     		b	.L111
 1114              	.LVL146:
 1115              	.L117:
 1116              	.LBE2:
 996:Middlewares/Third_Party/LwIP/src/core/udp.c ****   pcb->remote_port = port;
 1117              		.loc 1 996 0
 1118 0048 0023     		movs	r3, #0
 1119 004a E8E7     		b	.L113
 1120              	.LVL147:
 1121              	.L121:
1008:Middlewares/Third_Party/LwIP/src/core/udp.c ****       /* already on the list, just return */
1009:Middlewares/Third_Party/LwIP/src/core/udp.c ****       return ERR_OK;
1010:Middlewares/Third_Party/LwIP/src/core/udp.c ****     }
1011:Middlewares/Third_Party/LwIP/src/core/udp.c ****   }
1012:Middlewares/Third_Party/LwIP/src/core/udp.c ****   /* PCB not yet on the list, add PCB now */
1013:Middlewares/Third_Party/LwIP/src/core/udp.c ****   pcb->next = udp_pcbs;
 1122              		.loc 1 1013 0
 1123 004c E260     		str	r2, [r4, #12]
1014:Middlewares/Third_Party/LwIP/src/core/udp.c ****   udp_pcbs = pcb;
 1124              		.loc 1 1014 0
 1125 004e 054B     		ldr	r3, .L122
 1126              	.LVL148:
 1127 0050 1C60     		str	r4, [r3]
1015:Middlewares/Third_Party/LwIP/src/core/udp.c ****   return ERR_OK;
 1128              		.loc 1 1015 0
 1129 0052 0023     		movs	r3, #0
 1130              	.LVL149:
 1131              	.L111:
1016:Middlewares/Third_Party/LwIP/src/core/udp.c **** }
 1132              		.loc 1 1016 0
 1133 0054 1846     		mov	r0, r3
 1134 0056 70BD     		pop	{r4, r5, r6, pc}
 1135              	.LVL150:
 1136              	.L116:
 986:Middlewares/Third_Party/LwIP/src/core/udp.c ****   }
 1137              		.loc 1 986 0
 1138 0058 6FF00503 		mvn	r3, #5
 1139 005c FAE7     		b	.L111
 1140              	.LVL151:
 1141              	.L118:
1009:Middlewares/Third_Party/LwIP/src/core/udp.c ****     }
 1142              		.loc 1 1009 0
 1143 005e 0023     		movs	r3, #0
 1144              	.LVL152:
 1145 0060 F8E7     		b	.L111
 1146              	.L123:
 1147 0062 00BF     		.align	2
 1148              	.L122:
 1149 0064 00000000 		.word	udp_pcbs
 1150              		.cfi_endproc
 1151              	.LFE163:
 1153              		.section	.text.udp_disconnect,"ax",%progbits
 1154              		.align	1
 1155              		.global	udp_disconnect
 1156              		.syntax unified
 1157              		.thumb
ARM GAS  C:\Users\Patryk\AppData\Local\Temp\ccrZQ8Ea.s 			page 41


 1158              		.thumb_func
 1159              		.fpu fpv5-sp-d16
 1161              	udp_disconnect:
 1162              	.LFB164:
1017:Middlewares/Third_Party/LwIP/src/core/udp.c **** 
1018:Middlewares/Third_Party/LwIP/src/core/udp.c **** /**
1019:Middlewares/Third_Party/LwIP/src/core/udp.c ****  * @ingroup udp_raw
1020:Middlewares/Third_Party/LwIP/src/core/udp.c ****  * Disconnect a UDP PCB
1021:Middlewares/Third_Party/LwIP/src/core/udp.c ****  *
1022:Middlewares/Third_Party/LwIP/src/core/udp.c ****  * @param pcb the udp pcb to disconnect.
1023:Middlewares/Third_Party/LwIP/src/core/udp.c ****  */
1024:Middlewares/Third_Party/LwIP/src/core/udp.c **** void
1025:Middlewares/Third_Party/LwIP/src/core/udp.c **** udp_disconnect(struct udp_pcb *pcb)
1026:Middlewares/Third_Party/LwIP/src/core/udp.c **** {
 1163              		.loc 1 1026 0
 1164              		.cfi_startproc
 1165              		@ args = 0, pretend = 0, frame = 0
 1166              		@ frame_needed = 0, uses_anonymous_args = 0
 1167              		@ link register save eliminated.
 1168              	.LVL153:
1027:Middlewares/Third_Party/LwIP/src/core/udp.c ****   /* reset remote address association */
1028:Middlewares/Third_Party/LwIP/src/core/udp.c **** #if LWIP_IPV4 && LWIP_IPV6
1029:Middlewares/Third_Party/LwIP/src/core/udp.c ****   if (IP_IS_ANY_TYPE_VAL(pcb->local_ip)) {
1030:Middlewares/Third_Party/LwIP/src/core/udp.c ****     ip_addr_copy(pcb->remote_ip, *IP_ANY_TYPE);
1031:Middlewares/Third_Party/LwIP/src/core/udp.c ****   } else {
1032:Middlewares/Third_Party/LwIP/src/core/udp.c **** #endif
1033:Middlewares/Third_Party/LwIP/src/core/udp.c ****     ip_addr_set_any(IP_IS_V6_VAL(pcb->remote_ip), &pcb->remote_ip);
 1169              		.loc 1 1033 0
 1170 0000 0023     		movs	r3, #0
 1171 0002 4360     		str	r3, [r0, #4]
1034:Middlewares/Third_Party/LwIP/src/core/udp.c **** #if LWIP_IPV4 && LWIP_IPV6
1035:Middlewares/Third_Party/LwIP/src/core/udp.c ****   }
1036:Middlewares/Third_Party/LwIP/src/core/udp.c **** #endif
1037:Middlewares/Third_Party/LwIP/src/core/udp.c ****   pcb->remote_port = 0;
 1172              		.loc 1 1037 0
 1173 0004 8382     		strh	r3, [r0, #20]	@ movhi
1038:Middlewares/Third_Party/LwIP/src/core/udp.c ****   /* mark PCB as unconnected */
1039:Middlewares/Third_Party/LwIP/src/core/udp.c ****   pcb->flags &= ~UDP_FLAGS_CONNECTED;
 1174              		.loc 1 1039 0
 1175 0006 037C     		ldrb	r3, [r0, #16]	@ zero_extendqisi2
 1176 0008 23F00403 		bic	r3, r3, #4
 1177 000c 0374     		strb	r3, [r0, #16]
1040:Middlewares/Third_Party/LwIP/src/core/udp.c **** }
 1178              		.loc 1 1040 0
 1179 000e 7047     		bx	lr
 1180              		.cfi_endproc
 1181              	.LFE164:
 1183              		.section	.text.udp_recv,"ax",%progbits
 1184              		.align	1
 1185              		.global	udp_recv
 1186              		.syntax unified
 1187              		.thumb
 1188              		.thumb_func
 1189              		.fpu fpv5-sp-d16
 1191              	udp_recv:
 1192              	.LFB165:
1041:Middlewares/Third_Party/LwIP/src/core/udp.c **** 
ARM GAS  C:\Users\Patryk\AppData\Local\Temp\ccrZQ8Ea.s 			page 42


1042:Middlewares/Third_Party/LwIP/src/core/udp.c **** /**
1043:Middlewares/Third_Party/LwIP/src/core/udp.c ****  * @ingroup udp_raw
1044:Middlewares/Third_Party/LwIP/src/core/udp.c ****  * Set a receive callback for a UDP PCB
1045:Middlewares/Third_Party/LwIP/src/core/udp.c ****  *
1046:Middlewares/Third_Party/LwIP/src/core/udp.c ****  * This callback will be called when receiving a datagram for the pcb.
1047:Middlewares/Third_Party/LwIP/src/core/udp.c ****  *
1048:Middlewares/Third_Party/LwIP/src/core/udp.c ****  * @param pcb the pcb for which to set the recv callback
1049:Middlewares/Third_Party/LwIP/src/core/udp.c ****  * @param recv function pointer of the callback function
1050:Middlewares/Third_Party/LwIP/src/core/udp.c ****  * @param recv_arg additional argument to pass to the callback function
1051:Middlewares/Third_Party/LwIP/src/core/udp.c ****  */
1052:Middlewares/Third_Party/LwIP/src/core/udp.c **** void
1053:Middlewares/Third_Party/LwIP/src/core/udp.c **** udp_recv(struct udp_pcb *pcb, udp_recv_fn recv, void *recv_arg)
1054:Middlewares/Third_Party/LwIP/src/core/udp.c **** {
 1193              		.loc 1 1054 0
 1194              		.cfi_startproc
 1195              		@ args = 0, pretend = 0, frame = 0
 1196              		@ frame_needed = 0, uses_anonymous_args = 0
 1197              		@ link register save eliminated.
 1198              	.LVL154:
1055:Middlewares/Third_Party/LwIP/src/core/udp.c ****   /* remember recv() callback and user data */
1056:Middlewares/Third_Party/LwIP/src/core/udp.c ****   pcb->recv = recv;
 1199              		.loc 1 1056 0
 1200 0000 8161     		str	r1, [r0, #24]
1057:Middlewares/Third_Party/LwIP/src/core/udp.c ****   pcb->recv_arg = recv_arg;
 1201              		.loc 1 1057 0
 1202 0002 C261     		str	r2, [r0, #28]
1058:Middlewares/Third_Party/LwIP/src/core/udp.c **** }
 1203              		.loc 1 1058 0
 1204 0004 7047     		bx	lr
 1205              		.cfi_endproc
 1206              	.LFE165:
 1208              		.section	.text.udp_remove,"ax",%progbits
 1209              		.align	1
 1210              		.global	udp_remove
 1211              		.syntax unified
 1212              		.thumb
 1213              		.thumb_func
 1214              		.fpu fpv5-sp-d16
 1216              	udp_remove:
 1217              	.LFB166:
1059:Middlewares/Third_Party/LwIP/src/core/udp.c **** 
1060:Middlewares/Third_Party/LwIP/src/core/udp.c **** /**
1061:Middlewares/Third_Party/LwIP/src/core/udp.c ****  * @ingroup udp_raw
1062:Middlewares/Third_Party/LwIP/src/core/udp.c ****  * Remove an UDP PCB.
1063:Middlewares/Third_Party/LwIP/src/core/udp.c ****  *
1064:Middlewares/Third_Party/LwIP/src/core/udp.c ****  * @param pcb UDP PCB to be removed. The PCB is removed from the list of
1065:Middlewares/Third_Party/LwIP/src/core/udp.c ****  * UDP PCB's and the data structure is freed from memory.
1066:Middlewares/Third_Party/LwIP/src/core/udp.c ****  *
1067:Middlewares/Third_Party/LwIP/src/core/udp.c ****  * @see udp_new()
1068:Middlewares/Third_Party/LwIP/src/core/udp.c ****  */
1069:Middlewares/Third_Party/LwIP/src/core/udp.c **** void
1070:Middlewares/Third_Party/LwIP/src/core/udp.c **** udp_remove(struct udp_pcb *pcb)
1071:Middlewares/Third_Party/LwIP/src/core/udp.c **** {
 1218              		.loc 1 1071 0
 1219              		.cfi_startproc
 1220              		@ args = 0, pretend = 0, frame = 0
 1221              		@ frame_needed = 0, uses_anonymous_args = 0
ARM GAS  C:\Users\Patryk\AppData\Local\Temp\ccrZQ8Ea.s 			page 43


 1222              	.LVL155:
 1223 0000 08B5     		push	{r3, lr}
 1224              	.LCFI20:
 1225              		.cfi_def_cfa_offset 8
 1226              		.cfi_offset 3, -8
 1227              		.cfi_offset 14, -4
 1228 0002 0146     		mov	r1, r0
1072:Middlewares/Third_Party/LwIP/src/core/udp.c ****   struct udp_pcb *pcb2;
1073:Middlewares/Third_Party/LwIP/src/core/udp.c **** 
1074:Middlewares/Third_Party/LwIP/src/core/udp.c ****   mib2_udp_unbind(pcb);
1075:Middlewares/Third_Party/LwIP/src/core/udp.c ****   /* pcb to be removed is first in list? */
1076:Middlewares/Third_Party/LwIP/src/core/udp.c ****   if (udp_pcbs == pcb) {
 1229              		.loc 1 1076 0
 1230 0004 0B4B     		ldr	r3, .L134
 1231 0006 1A68     		ldr	r2, [r3]
 1232 0008 8242     		cmp	r2, r0
 1233 000a 09D1     		bne	.L127
1077:Middlewares/Third_Party/LwIP/src/core/udp.c ****     /* make list start at 2nd pcb */
1078:Middlewares/Third_Party/LwIP/src/core/udp.c ****     udp_pcbs = udp_pcbs->next;
 1234              		.loc 1 1078 0
 1235 000c D268     		ldr	r2, [r2, #12]
 1236 000e 1A60     		str	r2, [r3]
 1237 0010 01E0     		b	.L128
 1238              	.LVL156:
 1239              	.L133:
1079:Middlewares/Third_Party/LwIP/src/core/udp.c ****     /* pcb not 1st in list */
1080:Middlewares/Third_Party/LwIP/src/core/udp.c ****   } else {
1081:Middlewares/Third_Party/LwIP/src/core/udp.c ****     for (pcb2 = udp_pcbs; pcb2 != NULL; pcb2 = pcb2->next) {
1082:Middlewares/Third_Party/LwIP/src/core/udp.c ****       /* find pcb in udp_pcbs list */
1083:Middlewares/Third_Party/LwIP/src/core/udp.c ****       if (pcb2->next != NULL && pcb2->next == pcb) {
1084:Middlewares/Third_Party/LwIP/src/core/udp.c ****         /* remove pcb from list */
1085:Middlewares/Third_Party/LwIP/src/core/udp.c ****         pcb2->next = pcb->next;
 1240              		.loc 1 1085 0
 1241 0012 CB68     		ldr	r3, [r1, #12]
 1242 0014 D360     		str	r3, [r2, #12]
 1243              	.LVL157:
 1244              	.L128:
1086:Middlewares/Third_Party/LwIP/src/core/udp.c ****         break;
1087:Middlewares/Third_Party/LwIP/src/core/udp.c ****       }
1088:Middlewares/Third_Party/LwIP/src/core/udp.c ****     }
1089:Middlewares/Third_Party/LwIP/src/core/udp.c ****   }
1090:Middlewares/Third_Party/LwIP/src/core/udp.c ****   memp_free(MEMP_UDP_PCB, pcb);
 1245              		.loc 1 1090 0
 1246 0016 0020     		movs	r0, #0
 1247              	.LVL158:
 1248 0018 FFF7FEFF 		bl	memp_free
 1249              	.LVL159:
1091:Middlewares/Third_Party/LwIP/src/core/udp.c **** }
 1250              		.loc 1 1091 0
 1251 001c 08BD     		pop	{r3, pc}
 1252              	.LVL160:
 1253              	.L130:
 1254 001e 1A46     		mov	r2, r3
 1255              	.LVL161:
 1256              	.L127:
1081:Middlewares/Third_Party/LwIP/src/core/udp.c ****       /* find pcb in udp_pcbs list */
 1257              		.loc 1 1081 0 discriminator 1
ARM GAS  C:\Users\Patryk\AppData\Local\Temp\ccrZQ8Ea.s 			page 44


 1258 0020 002A     		cmp	r2, #0
 1259 0022 F8D0     		beq	.L128
1083:Middlewares/Third_Party/LwIP/src/core/udp.c ****         /* remove pcb from list */
 1260              		.loc 1 1083 0
 1261 0024 D368     		ldr	r3, [r2, #12]
 1262 0026 002B     		cmp	r3, #0
 1263 0028 F9D0     		beq	.L130
1083:Middlewares/Third_Party/LwIP/src/core/udp.c ****         /* remove pcb from list */
 1264              		.loc 1 1083 0 is_stmt 0 discriminator 1
 1265 002a 8B42     		cmp	r3, r1
 1266 002c F1D0     		beq	.L133
 1267 002e 1A46     		mov	r2, r3
 1268              	.LVL162:
 1269 0030 F6E7     		b	.L127
 1270              	.L135:
 1271 0032 00BF     		.align	2
 1272              	.L134:
 1273 0034 00000000 		.word	udp_pcbs
 1274              		.cfi_endproc
 1275              	.LFE166:
 1277              		.section	.text.udp_new,"ax",%progbits
 1278              		.align	1
 1279              		.global	udp_new
 1280              		.syntax unified
 1281              		.thumb
 1282              		.thumb_func
 1283              		.fpu fpv5-sp-d16
 1285              	udp_new:
 1286              	.LFB167:
1092:Middlewares/Third_Party/LwIP/src/core/udp.c **** 
1093:Middlewares/Third_Party/LwIP/src/core/udp.c **** /**
1094:Middlewares/Third_Party/LwIP/src/core/udp.c ****  * @ingroup udp_raw
1095:Middlewares/Third_Party/LwIP/src/core/udp.c ****  * Create a UDP PCB.
1096:Middlewares/Third_Party/LwIP/src/core/udp.c ****  *
1097:Middlewares/Third_Party/LwIP/src/core/udp.c ****  * @return The UDP PCB which was created. NULL if the PCB data structure
1098:Middlewares/Third_Party/LwIP/src/core/udp.c ****  * could not be allocated.
1099:Middlewares/Third_Party/LwIP/src/core/udp.c ****  *
1100:Middlewares/Third_Party/LwIP/src/core/udp.c ****  * @see udp_remove()
1101:Middlewares/Third_Party/LwIP/src/core/udp.c ****  */
1102:Middlewares/Third_Party/LwIP/src/core/udp.c **** struct udp_pcb *
1103:Middlewares/Third_Party/LwIP/src/core/udp.c **** udp_new(void)
1104:Middlewares/Third_Party/LwIP/src/core/udp.c **** {
 1287              		.loc 1 1104 0 is_stmt 1
 1288              		.cfi_startproc
 1289              		@ args = 0, pretend = 0, frame = 0
 1290              		@ frame_needed = 0, uses_anonymous_args = 0
 1291 0000 10B5     		push	{r4, lr}
 1292              	.LCFI21:
 1293              		.cfi_def_cfa_offset 8
 1294              		.cfi_offset 4, -8
 1295              		.cfi_offset 14, -4
1105:Middlewares/Third_Party/LwIP/src/core/udp.c ****   struct udp_pcb *pcb;
1106:Middlewares/Third_Party/LwIP/src/core/udp.c ****   pcb = (struct udp_pcb *)memp_malloc(MEMP_UDP_PCB);
 1296              		.loc 1 1106 0
 1297 0002 0020     		movs	r0, #0
 1298 0004 FFF7FEFF 		bl	memp_malloc
 1299              	.LVL163:
ARM GAS  C:\Users\Patryk\AppData\Local\Temp\ccrZQ8Ea.s 			page 45


1107:Middlewares/Third_Party/LwIP/src/core/udp.c ****   /* could allocate UDP PCB? */
1108:Middlewares/Third_Party/LwIP/src/core/udp.c ****   if (pcb != NULL) {
 1300              		.loc 1 1108 0
 1301 0008 0446     		mov	r4, r0
 1302 000a 28B1     		cbz	r0, .L136
1109:Middlewares/Third_Party/LwIP/src/core/udp.c ****     /* UDP Lite: by initializing to all zeroes, chksum_len is set to 0
1110:Middlewares/Third_Party/LwIP/src/core/udp.c ****      * which means checksum is generated over the whole datagram per default
1111:Middlewares/Third_Party/LwIP/src/core/udp.c ****      * (recommended as default by RFC 3828). */
1112:Middlewares/Third_Party/LwIP/src/core/udp.c ****     /* initialize PCB to all zeroes */
1113:Middlewares/Third_Party/LwIP/src/core/udp.c ****     memset(pcb, 0, sizeof(struct udp_pcb));
 1303              		.loc 1 1113 0
 1304 000c 2022     		movs	r2, #32
 1305 000e 0021     		movs	r1, #0
 1306 0010 FFF7FEFF 		bl	memset
 1307              	.LVL164:
1114:Middlewares/Third_Party/LwIP/src/core/udp.c ****     pcb->ttl = UDP_TTL;
 1308              		.loc 1 1114 0
 1309 0014 FF23     		movs	r3, #255
 1310 0016 A372     		strb	r3, [r4, #10]
 1311              	.L136:
1115:Middlewares/Third_Party/LwIP/src/core/udp.c **** #if LWIP_MULTICAST_TX_OPTIONS
1116:Middlewares/Third_Party/LwIP/src/core/udp.c ****     udp_set_multicast_ttl(pcb, UDP_TTL);
1117:Middlewares/Third_Party/LwIP/src/core/udp.c **** #endif /* LWIP_MULTICAST_TX_OPTIONS */
1118:Middlewares/Third_Party/LwIP/src/core/udp.c ****   }
1119:Middlewares/Third_Party/LwIP/src/core/udp.c ****   return pcb;
1120:Middlewares/Third_Party/LwIP/src/core/udp.c **** }
 1312              		.loc 1 1120 0
 1313 0018 2046     		mov	r0, r4
 1314 001a 10BD     		pop	{r4, pc}
 1315              		.cfi_endproc
 1316              	.LFE167:
 1318              		.section	.text.udp_new_ip_type,"ax",%progbits
 1319              		.align	1
 1320              		.global	udp_new_ip_type
 1321              		.syntax unified
 1322              		.thumb
 1323              		.thumb_func
 1324              		.fpu fpv5-sp-d16
 1326              	udp_new_ip_type:
 1327              	.LFB168:
1121:Middlewares/Third_Party/LwIP/src/core/udp.c **** 
1122:Middlewares/Third_Party/LwIP/src/core/udp.c **** /**
1123:Middlewares/Third_Party/LwIP/src/core/udp.c ****  * @ingroup udp_raw
1124:Middlewares/Third_Party/LwIP/src/core/udp.c ****  * Create a UDP PCB for specific IP type.
1125:Middlewares/Third_Party/LwIP/src/core/udp.c ****  *
1126:Middlewares/Third_Party/LwIP/src/core/udp.c ****  * @param type IP address type, see @ref lwip_ip_addr_type definitions.
1127:Middlewares/Third_Party/LwIP/src/core/udp.c ****  * If you want to listen to IPv4 and IPv6 (dual-stack) packets,
1128:Middlewares/Third_Party/LwIP/src/core/udp.c ****  * supply @ref IPADDR_TYPE_ANY as argument and bind to @ref IP_ANY_TYPE.
1129:Middlewares/Third_Party/LwIP/src/core/udp.c ****  * @return The UDP PCB which was created. NULL if the PCB data structure
1130:Middlewares/Third_Party/LwIP/src/core/udp.c ****  * could not be allocated.
1131:Middlewares/Third_Party/LwIP/src/core/udp.c ****  *
1132:Middlewares/Third_Party/LwIP/src/core/udp.c ****  * @see udp_remove()
1133:Middlewares/Third_Party/LwIP/src/core/udp.c ****  */
1134:Middlewares/Third_Party/LwIP/src/core/udp.c **** struct udp_pcb *
1135:Middlewares/Third_Party/LwIP/src/core/udp.c **** udp_new_ip_type(u8_t type)
1136:Middlewares/Third_Party/LwIP/src/core/udp.c **** {
 1328              		.loc 1 1136 0
ARM GAS  C:\Users\Patryk\AppData\Local\Temp\ccrZQ8Ea.s 			page 46


 1329              		.cfi_startproc
 1330              		@ args = 0, pretend = 0, frame = 0
 1331              		@ frame_needed = 0, uses_anonymous_args = 0
 1332              	.LVL165:
 1333 0000 08B5     		push	{r3, lr}
 1334              	.LCFI22:
 1335              		.cfi_def_cfa_offset 8
 1336              		.cfi_offset 3, -8
 1337              		.cfi_offset 14, -4
1137:Middlewares/Third_Party/LwIP/src/core/udp.c ****   struct udp_pcb *pcb;
1138:Middlewares/Third_Party/LwIP/src/core/udp.c ****   pcb = udp_new();
 1338              		.loc 1 1138 0
 1339 0002 FFF7FEFF 		bl	udp_new
 1340              	.LVL166:
1139:Middlewares/Third_Party/LwIP/src/core/udp.c **** #if LWIP_IPV4 && LWIP_IPV6
1140:Middlewares/Third_Party/LwIP/src/core/udp.c ****   if (pcb != NULL) {
1141:Middlewares/Third_Party/LwIP/src/core/udp.c ****     IP_SET_TYPE_VAL(pcb->local_ip,  type);
1142:Middlewares/Third_Party/LwIP/src/core/udp.c ****     IP_SET_TYPE_VAL(pcb->remote_ip, type);
1143:Middlewares/Third_Party/LwIP/src/core/udp.c ****   }
1144:Middlewares/Third_Party/LwIP/src/core/udp.c **** #else
1145:Middlewares/Third_Party/LwIP/src/core/udp.c ****   LWIP_UNUSED_ARG(type);
1146:Middlewares/Third_Party/LwIP/src/core/udp.c **** #endif /* LWIP_IPV4 && LWIP_IPV6 */
1147:Middlewares/Third_Party/LwIP/src/core/udp.c ****   return pcb;
1148:Middlewares/Third_Party/LwIP/src/core/udp.c **** }
 1341              		.loc 1 1148 0
 1342 0006 08BD     		pop	{r3, pc}
 1343              		.cfi_endproc
 1344              	.LFE168:
 1346              		.section	.text.udp_netif_ip_addr_changed,"ax",%progbits
 1347              		.align	1
 1348              		.global	udp_netif_ip_addr_changed
 1349              		.syntax unified
 1350              		.thumb
 1351              		.thumb_func
 1352              		.fpu fpv5-sp-d16
 1354              	udp_netif_ip_addr_changed:
 1355              	.LFB169:
1149:Middlewares/Third_Party/LwIP/src/core/udp.c **** 
1150:Middlewares/Third_Party/LwIP/src/core/udp.c **** /** This function is called from netif.c when address is changed
1151:Middlewares/Third_Party/LwIP/src/core/udp.c ****  *
1152:Middlewares/Third_Party/LwIP/src/core/udp.c ****  * @param old_addr IP address of the netif before change
1153:Middlewares/Third_Party/LwIP/src/core/udp.c ****  * @param new_addr IP address of the netif after change
1154:Middlewares/Third_Party/LwIP/src/core/udp.c ****  */
1155:Middlewares/Third_Party/LwIP/src/core/udp.c **** void udp_netif_ip_addr_changed(const ip_addr_t* old_addr, const ip_addr_t* new_addr)
1156:Middlewares/Third_Party/LwIP/src/core/udp.c **** {
 1356              		.loc 1 1156 0
 1357              		.cfi_startproc
 1358              		@ args = 0, pretend = 0, frame = 0
 1359              		@ frame_needed = 0, uses_anonymous_args = 0
 1360              		@ link register save eliminated.
 1361              	.LVL167:
1157:Middlewares/Third_Party/LwIP/src/core/udp.c ****   struct udp_pcb* upcb;
1158:Middlewares/Third_Party/LwIP/src/core/udp.c **** 
1159:Middlewares/Third_Party/LwIP/src/core/udp.c ****   if (!ip_addr_isany(old_addr) && !ip_addr_isany(new_addr)) {
 1362              		.loc 1 1159 0
 1363 0000 B8B1     		cbz	r0, .L147
 1364 0002 0246     		mov	r2, r0
ARM GAS  C:\Users\Patryk\AppData\Local\Temp\ccrZQ8Ea.s 			page 47


 1365              		.loc 1 1159 0 is_stmt 0 discriminator 1
 1366 0004 0368     		ldr	r3, [r0]
 1367 0006 A3B1     		cbz	r3, .L147
 1368              		.loc 1 1159 0 discriminator 2
 1369 0008 99B1     		cbz	r1, .L147
 1370              		.loc 1 1159 0 discriminator 3
 1371 000a 0B68     		ldr	r3, [r1]
 1372 000c 8BB1     		cbz	r3, .L147
1160:Middlewares/Third_Party/LwIP/src/core/udp.c ****     for (upcb = udp_pcbs; upcb != NULL; upcb = upcb->next) {
 1373              		.loc 1 1160 0 is_stmt 1
 1374 000e 094B     		ldr	r3, .L153
 1375 0010 1B68     		ldr	r3, [r3]
 1376              	.LVL168:
 1377 0012 6BB1     		cbz	r3, .L151
1156:Middlewares/Third_Party/LwIP/src/core/udp.c ****   struct udp_pcb* upcb;
 1378              		.loc 1 1156 0
 1379 0014 10B4     		push	{r4}
 1380              	.LCFI23:
 1381              		.cfi_def_cfa_offset 4
 1382              		.cfi_offset 4, -4
 1383 0016 01E0     		b	.L145
 1384              	.LVL169:
 1385              	.L144:
 1386              		.loc 1 1160 0 discriminator 2
 1387 0018 DB68     		ldr	r3, [r3, #12]
 1388              	.LVL170:
 1389 001a 33B1     		cbz	r3, .L152
 1390              	.L145:
1161:Middlewares/Third_Party/LwIP/src/core/udp.c ****       /* PCB bound to current local interface address? */
1162:Middlewares/Third_Party/LwIP/src/core/udp.c ****       if (ip_addr_cmp(&upcb->local_ip, old_addr)) {
 1391              		.loc 1 1162 0
 1392 001c 1C68     		ldr	r4, [r3]
 1393 001e 1068     		ldr	r0, [r2]
 1394 0020 8442     		cmp	r4, r0
 1395 0022 F9D1     		bne	.L144
1163:Middlewares/Third_Party/LwIP/src/core/udp.c ****         /* The PCB is bound to the old ipaddr and
1164:Middlewares/Third_Party/LwIP/src/core/udp.c ****          * is set to bound to the new one instead */
1165:Middlewares/Third_Party/LwIP/src/core/udp.c ****         ip_addr_copy(upcb->local_ip, *new_addr);
 1396              		.loc 1 1165 0
 1397 0024 0868     		ldr	r0, [r1]
 1398 0026 1860     		str	r0, [r3]
 1399 0028 F6E7     		b	.L144
 1400              	.L152:
1166:Middlewares/Third_Party/LwIP/src/core/udp.c ****       }
1167:Middlewares/Third_Party/LwIP/src/core/udp.c ****     }
1168:Middlewares/Third_Party/LwIP/src/core/udp.c ****   }
1169:Middlewares/Third_Party/LwIP/src/core/udp.c **** }
 1401              		.loc 1 1169 0
 1402 002a 5DF8044B 		ldr	r4, [sp], #4
 1403              	.LCFI24:
 1404              		.cfi_restore 4
 1405              		.cfi_def_cfa_offset 0
 1406 002e 7047     		bx	lr
 1407              	.LVL171:
 1408              	.L151:
 1409 0030 7047     		bx	lr
 1410              	.LVL172:
ARM GAS  C:\Users\Patryk\AppData\Local\Temp\ccrZQ8Ea.s 			page 48


 1411              	.L147:
 1412 0032 7047     		bx	lr
 1413              	.L154:
 1414              		.align	2
 1415              	.L153:
 1416 0034 00000000 		.word	udp_pcbs
 1417              		.cfi_endproc
 1418              	.LFE169:
 1420              		.comm	udp_pcbs,4,4
 1421              		.section	.data.udp_port,"aw",%progbits
 1422              		.align	1
 1423              		.set	.LANCHOR0,. + 0
 1426              	udp_port:
 1427 0000 00C0     		.short	-16384
 1428              		.section	.rodata.udp_input.str1.4,"aMS",%progbits,1
 1429              		.align	2
 1430              	.LC0:
 1431 0000 4D696464 		.ascii	"Middlewares/Third_Party/LwIP/src/core/udp.c\000"
 1431      6C657761 
 1431      7265732F 
 1431      54686972 
 1431      645F5061 
 1432              	.LC1:
 1433 002c 70627566 		.ascii	"pbuf_header failed\012\000"
 1433      5F686561 
 1433      64657220 
 1433      6661696C 
 1433      65640A00 
 1434              	.LC2:
 1435 0040 41737365 		.ascii	"Assertion \"%s\" failed at line %d in %s\012\000"
 1435      7274696F 
 1435      6E202225 
 1435      73222066 
 1435      61696C65 
 1436              		.section	.rodata.udp_sendto_if_src.str1.4,"aMS",%progbits,1
 1437              		.align	2
 1438              	.LC3:
 1439 0000 63686563 		.ascii	"check that first pbuf can hold struct udp_hdr\000"
 1439      6B207468 
 1439      61742066 
 1439      69727374 
 1439      20706275 
 1440              		.text
 1441              	.Letext0:
 1442              		.file 2 "c:\\program files (x86)\\gnu\\7_2018-q2-update\\arm-none-eabi\\include\\machine\\_default
 1443              		.file 3 "c:\\program files (x86)\\gnu\\7_2018-q2-update\\arm-none-eabi\\include\\sys\\_stdint.h"
 1444              		.file 4 "Drivers/CMSIS/Include/core_cm7.h"
 1445              		.file 5 "Drivers/CMSIS/Device/ST/STM32F7xx/Include/system_stm32f7xx.h"
 1446              		.file 6 "c:\\program files (x86)\\gnu\\7_2018-q2-update\\arm-none-eabi\\include\\sys\\lock.h"
 1447              		.file 7 "c:\\program files (x86)\\gnu\\7_2018-q2-update\\arm-none-eabi\\include\\sys\\_types.h"
 1448              		.file 8 "c:\\program files (x86)\\gnu\\7_2018-q2-update\\lib\\gcc\\arm-none-eabi\\7.3.1\\include\\
 1449              		.file 9 "c:\\program files (x86)\\gnu\\7_2018-q2-update\\arm-none-eabi\\include\\sys\\reent.h"
 1450              		.file 10 "c:\\program files (x86)\\gnu\\7_2018-q2-update\\arm-none-eabi\\include\\stdlib.h"
 1451              		.file 11 "c:\\program files (x86)\\gnu\\7_2018-q2-update\\arm-none-eabi\\include\\time.h"
 1452              		.file 12 "Middlewares/Third_Party/LwIP/src/include/lwip/arch.h"
 1453              		.file 13 "Middlewares/Third_Party/LwIP/src/include/lwip/err.h"
 1454              		.file 14 "Middlewares/Third_Party/LwIP/src/include/lwip/pbuf.h"
ARM GAS  C:\Users\Patryk\AppData\Local\Temp\ccrZQ8Ea.s 			page 49


 1455              		.file 15 "Middlewares/Third_Party/LwIP/src/include/lwip/ip4_addr.h"
 1456              		.file 16 "Middlewares/Third_Party/LwIP/src/include/lwip/ip_addr.h"
 1457              		.file 17 "Middlewares/Third_Party/LwIP/src/include/lwip/memp.h"
 1458              		.file 18 "Middlewares/Third_Party/LwIP/src/include/lwip/priv/memp_priv.h"
 1459              		.file 19 "Middlewares/Third_Party/LwIP/src/include/lwip/netif.h"
 1460              		.file 20 "Middlewares/Third_Party/LwIP/src/include/lwip/prot/ip4.h"
 1461              		.file 21 "Middlewares/Third_Party/LwIP/src/include/lwip/ip.h"
 1462              		.file 22 "Middlewares/Third_Party/LwIP/src/include/lwip/prot/udp.h"
 1463              		.file 23 "Middlewares/Third_Party/LwIP/src/include/lwip/udp.h"
 1464              		.file 24 "Middlewares/Third_Party/LwIP/src/include/lwip/icmp.h"
 1465              		.file 25 "Middlewares/Third_Party/LwIP/src/include/lwip/def.h"
 1466              		.file 26 "Middlewares/Third_Party/LwIP/src/include/lwip/ip4.h"
 1467              		.file 27 "c:\\program files (x86)\\gnu\\7_2018-q2-update\\arm-none-eabi\\include\\stdio.h"
 1468              		.file 28 "<built-in>"
ARM GAS  C:\Users\Patryk\AppData\Local\Temp\ccrZQ8Ea.s 			page 50


DEFINED SYMBOLS
                            *ABS*:00000000 udp.c
C:\Users\Patryk\AppData\Local\Temp\ccrZQ8Ea.s:18     .text.udp_new_port:00000000 $t
C:\Users\Patryk\AppData\Local\Temp\ccrZQ8Ea.s:24     .text.udp_new_port:00000000 udp_new_port
C:\Users\Patryk\AppData\Local\Temp\ccrZQ8Ea.s:95     .text.udp_new_port:00000044 $d
                            *COM*:00000004 udp_pcbs
C:\Users\Patryk\AppData\Local\Temp\ccrZQ8Ea.s:101    .text.udp_input_local_match:00000000 $t
C:\Users\Patryk\AppData\Local\Temp\ccrZQ8Ea.s:107    .text.udp_input_local_match:00000000 udp_input_local_match
C:\Users\Patryk\AppData\Local\Temp\ccrZQ8Ea.s:198    .text.udp_input_local_match:0000004c $d
C:\Users\Patryk\AppData\Local\Temp\ccrZQ8Ea.s:203    .text.udp_init:00000000 $t
C:\Users\Patryk\AppData\Local\Temp\ccrZQ8Ea.s:210    .text.udp_init:00000000 udp_init
C:\Users\Patryk\AppData\Local\Temp\ccrZQ8Ea.s:223    .text.udp_input:00000000 $t
C:\Users\Patryk\AppData\Local\Temp\ccrZQ8Ea.s:230    .text.udp_input:00000000 udp_input
C:\Users\Patryk\AppData\Local\Temp\ccrZQ8Ea.s:482    .text.udp_input:0000011c $d
C:\Users\Patryk\AppData\Local\Temp\ccrZQ8Ea.s:492    .text.udp_bind:00000000 $t
C:\Users\Patryk\AppData\Local\Temp\ccrZQ8Ea.s:499    .text.udp_bind:00000000 udp_bind
C:\Users\Patryk\AppData\Local\Temp\ccrZQ8Ea.s:643    .text.udp_bind:00000084 $d
C:\Users\Patryk\AppData\Local\Temp\ccrZQ8Ea.s:649    .text.udp_sendto_if_src:00000000 $t
C:\Users\Patryk\AppData\Local\Temp\ccrZQ8Ea.s:656    .text.udp_sendto_if_src:00000000 udp_sendto_if_src
C:\Users\Patryk\AppData\Local\Temp\ccrZQ8Ea.s:817    .text.udp_sendto_if_src:000000c4 $d
C:\Users\Patryk\AppData\Local\Temp\ccrZQ8Ea.s:824    .text.udp_sendto_if:00000000 $t
C:\Users\Patryk\AppData\Local\Temp\ccrZQ8Ea.s:831    .text.udp_sendto_if:00000000 udp_sendto_if
C:\Users\Patryk\AppData\Local\Temp\ccrZQ8Ea.s:912    .text.udp_sendto:00000000 $t
C:\Users\Patryk\AppData\Local\Temp\ccrZQ8Ea.s:919    .text.udp_sendto:00000000 udp_sendto
C:\Users\Patryk\AppData\Local\Temp\ccrZQ8Ea.s:991    .text.udp_send:00000000 $t
C:\Users\Patryk\AppData\Local\Temp\ccrZQ8Ea.s:998    .text.udp_send:00000000 udp_send
C:\Users\Patryk\AppData\Local\Temp\ccrZQ8Ea.s:1035   .text.udp_connect:00000000 $t
C:\Users\Patryk\AppData\Local\Temp\ccrZQ8Ea.s:1042   .text.udp_connect:00000000 udp_connect
C:\Users\Patryk\AppData\Local\Temp\ccrZQ8Ea.s:1149   .text.udp_connect:00000064 $d
C:\Users\Patryk\AppData\Local\Temp\ccrZQ8Ea.s:1154   .text.udp_disconnect:00000000 $t
C:\Users\Patryk\AppData\Local\Temp\ccrZQ8Ea.s:1161   .text.udp_disconnect:00000000 udp_disconnect
C:\Users\Patryk\AppData\Local\Temp\ccrZQ8Ea.s:1184   .text.udp_recv:00000000 $t
C:\Users\Patryk\AppData\Local\Temp\ccrZQ8Ea.s:1191   .text.udp_recv:00000000 udp_recv
C:\Users\Patryk\AppData\Local\Temp\ccrZQ8Ea.s:1209   .text.udp_remove:00000000 $t
C:\Users\Patryk\AppData\Local\Temp\ccrZQ8Ea.s:1216   .text.udp_remove:00000000 udp_remove
C:\Users\Patryk\AppData\Local\Temp\ccrZQ8Ea.s:1273   .text.udp_remove:00000034 $d
C:\Users\Patryk\AppData\Local\Temp\ccrZQ8Ea.s:1278   .text.udp_new:00000000 $t
C:\Users\Patryk\AppData\Local\Temp\ccrZQ8Ea.s:1285   .text.udp_new:00000000 udp_new
C:\Users\Patryk\AppData\Local\Temp\ccrZQ8Ea.s:1319   .text.udp_new_ip_type:00000000 $t
C:\Users\Patryk\AppData\Local\Temp\ccrZQ8Ea.s:1326   .text.udp_new_ip_type:00000000 udp_new_ip_type
C:\Users\Patryk\AppData\Local\Temp\ccrZQ8Ea.s:1347   .text.udp_netif_ip_addr_changed:00000000 $t
C:\Users\Patryk\AppData\Local\Temp\ccrZQ8Ea.s:1354   .text.udp_netif_ip_addr_changed:00000000 udp_netif_ip_addr_changed
C:\Users\Patryk\AppData\Local\Temp\ccrZQ8Ea.s:1416   .text.udp_netif_ip_addr_changed:00000034 $d
C:\Users\Patryk\AppData\Local\Temp\ccrZQ8Ea.s:1422   .data.udp_port:00000000 $d
C:\Users\Patryk\AppData\Local\Temp\ccrZQ8Ea.s:1426   .data.udp_port:00000000 udp_port
C:\Users\Patryk\AppData\Local\Temp\ccrZQ8Ea.s:1429   .rodata.udp_input.str1.4:00000000 $d
C:\Users\Patryk\AppData\Local\Temp\ccrZQ8Ea.s:1437   .rodata.udp_sendto_if_src.str1.4:00000000 $d

UNDEFINED SYMBOLS
ip_data
ip4_addr_isbroadcast_u32
lwip_htons
pbuf_free
pbuf_header
printf
pbuf_header_force
icmp_dest_unreach
ARM GAS  C:\Users\Patryk\AppData\Local\Temp\ccrZQ8Ea.s 			page 51


ip_addr_any
ip4_output_if_src
pbuf_alloc
pbuf_chain
ip4_route
memp_free
memp_malloc
memset
