ARM GAS  C:\Users\Patryk\AppData\Local\Temp\ccUxqN1Z.s 			page 1


   1              		.cpu cortex-m7
   2              		.eabi_attribute 27, 1
   3              		.eabi_attribute 28, 1
   4              		.eabi_attribute 20, 1
   5              		.eabi_attribute 21, 1
   6              		.eabi_attribute 23, 3
   7              		.eabi_attribute 24, 1
   8              		.eabi_attribute 25, 1
   9              		.eabi_attribute 26, 1
  10              		.eabi_attribute 30, 1
  11              		.eabi_attribute 34, 1
  12              		.eabi_attribute 18, 4
  13              		.file	"usbh_conf.c"
  14              		.text
  15              	.Ltext0:
  16              		.cfi_sections	.debug_frame
  17              		.section	.text.HAL_HCD_MspInit,"ax",%progbits
  18              		.align	1
  19              		.global	HAL_HCD_MspInit
  20              		.syntax unified
  21              		.thumb
  22              		.thumb_func
  23              		.fpu fpv5-sp-d16
  25              	HAL_HCD_MspInit:
  26              	.LFB143:
  27              		.file 1 "Src/usbh_conf.c"
   1:Src/usbh_conf.c **** /**
   2:Src/usbh_conf.c ****   ******************************************************************************
   3:Src/usbh_conf.c ****   * @file           : usbh_conf.c
   4:Src/usbh_conf.c ****   * @version        : v1.0_Cube
   5:Src/usbh_conf.c ****   * @brief          : This file implements the board support package for the USB host library
   6:Src/usbh_conf.c ****   ******************************************************************************
   7:Src/usbh_conf.c ****   * This notice applies to any and all portions of this file
   8:Src/usbh_conf.c ****   * that are not between comment pairs USER CODE BEGIN and
   9:Src/usbh_conf.c ****   * USER CODE END. Other portions of this file, whether 
  10:Src/usbh_conf.c ****   * inserted by the user or by software development tools
  11:Src/usbh_conf.c ****   * are owned by their respective copyright owners.
  12:Src/usbh_conf.c ****   *
  13:Src/usbh_conf.c ****   * Copyright (c) 2018 STMicroelectronics International N.V. 
  14:Src/usbh_conf.c ****   * All rights reserved.
  15:Src/usbh_conf.c ****   *
  16:Src/usbh_conf.c ****   * Redistribution and use in source and binary forms, with or without 
  17:Src/usbh_conf.c ****   * modification, are permitted, provided that the following conditions are met:
  18:Src/usbh_conf.c ****   *
  19:Src/usbh_conf.c ****   * 1. Redistribution of source code must retain the above copyright notice, 
  20:Src/usbh_conf.c ****   *    this list of conditions and the following disclaimer.
  21:Src/usbh_conf.c ****   * 2. Redistributions in binary form must reproduce the above copyright notice,
  22:Src/usbh_conf.c ****   *    this list of conditions and the following disclaimer in the documentation
  23:Src/usbh_conf.c ****   *    and/or other materials provided with the distribution.
  24:Src/usbh_conf.c ****   * 3. Neither the name of STMicroelectronics nor the names of other 
  25:Src/usbh_conf.c ****   *    contributors to this software may be used to endorse or promote products 
  26:Src/usbh_conf.c ****   *    derived from this software without specific written permission.
  27:Src/usbh_conf.c ****   * 4. This software, including modifications and/or derivative works of this 
  28:Src/usbh_conf.c ****   *    software, must execute solely and exclusively on microcontroller or
  29:Src/usbh_conf.c ****   *    microprocessor devices manufactured by or for STMicroelectronics.
  30:Src/usbh_conf.c ****   * 5. Redistribution and use of this software other than as permitted under 
  31:Src/usbh_conf.c ****   *    this license is void and will automatically terminate your rights under 
ARM GAS  C:\Users\Patryk\AppData\Local\Temp\ccUxqN1Z.s 			page 2


  32:Src/usbh_conf.c ****   *    this license. 
  33:Src/usbh_conf.c ****   *
  34:Src/usbh_conf.c ****   * THIS SOFTWARE IS PROVIDED BY STMICROELECTRONICS AND CONTRIBUTORS "AS IS" 
  35:Src/usbh_conf.c ****   * AND ANY EXPRESS, IMPLIED OR STATUTORY WARRANTIES, INCLUDING, BUT NOT 
  36:Src/usbh_conf.c ****   * LIMITED TO, THE IMPLIED WARRANTIES OF MERCHANTABILITY, FITNESS FOR A 
  37:Src/usbh_conf.c ****   * PARTICULAR PURPOSE AND NON-INFRINGEMENT OF THIRD PARTY INTELLECTUAL PROPERTY
  38:Src/usbh_conf.c ****   * RIGHTS ARE DISCLAIMED TO THE FULLEST EXTENT PERMITTED BY LAW. IN NO EVENT 
  39:Src/usbh_conf.c ****   * SHALL STMICROELECTRONICS OR CONTRIBUTORS BE LIABLE FOR ANY DIRECT, INDIRECT,
  40:Src/usbh_conf.c ****   * INCIDENTAL, SPECIAL, EXEMPLARY, OR CONSEQUENTIAL DAMAGES (INCLUDING, BUT NOT
  41:Src/usbh_conf.c ****   * LIMITED TO, PROCUREMENT OF SUBSTITUTE GOODS OR SERVICES; LOSS OF USE, DATA, 
  42:Src/usbh_conf.c ****   * OR PROFITS; OR BUSINESS INTERRUPTION) HOWEVER CAUSED AND ON ANY THEORY OF 
  43:Src/usbh_conf.c ****   * LIABILITY, WHETHER IN CONTRACT, STRICT LIABILITY, OR TORT (INCLUDING 
  44:Src/usbh_conf.c ****   * NEGLIGENCE OR OTHERWISE) ARISING IN ANY WAY OUT OF THE USE OF THIS SOFTWARE,
  45:Src/usbh_conf.c ****   * EVEN IF ADVISED OF THE POSSIBILITY OF SUCH DAMAGE.
  46:Src/usbh_conf.c ****   *
  47:Src/usbh_conf.c ****   ******************************************************************************
  48:Src/usbh_conf.c ****   */
  49:Src/usbh_conf.c **** 
  50:Src/usbh_conf.c **** /* Includes ------------------------------------------------------------------*/
  51:Src/usbh_conf.c **** #include "usbh_core.h"
  52:Src/usbh_conf.c **** #include "usbh_platform.h"
  53:Src/usbh_conf.c **** 
  54:Src/usbh_conf.c **** /* USER CODE BEGIN Includes */
  55:Src/usbh_conf.c **** 
  56:Src/usbh_conf.c **** /* USER CODE END Includes */
  57:Src/usbh_conf.c **** 
  58:Src/usbh_conf.c **** /* Private typedef -----------------------------------------------------------*/
  59:Src/usbh_conf.c **** /* Private define ------------------------------------------------------------*/
  60:Src/usbh_conf.c **** /* Private macro -------------------------------------------------------------*/
  61:Src/usbh_conf.c **** 
  62:Src/usbh_conf.c **** /* USER CODE BEGIN PV */
  63:Src/usbh_conf.c **** /* Private variables ---------------------------------------------------------*/
  64:Src/usbh_conf.c **** 
  65:Src/usbh_conf.c **** /* USER CODE END PV */
  66:Src/usbh_conf.c **** 
  67:Src/usbh_conf.c ****                 HCD_HandleTypeDef hhcd_USB_OTG_FS;
  68:Src/usbh_conf.c **** void _Error_Handler(char * file, int line);
  69:Src/usbh_conf.c **** 
  70:Src/usbh_conf.c **** /* USER CODE BEGIN 0 */
  71:Src/usbh_conf.c **** 
  72:Src/usbh_conf.c **** /* USER CODE END 0 */
  73:Src/usbh_conf.c **** 
  74:Src/usbh_conf.c **** /* USER CODE BEGIN PFP */
  75:Src/usbh_conf.c **** /* Private function prototypes -----------------------------------------------*/
  76:Src/usbh_conf.c **** 
  77:Src/usbh_conf.c **** /* USER CODE END PFP */
  78:Src/usbh_conf.c **** 
  79:Src/usbh_conf.c **** /* Private functions ---------------------------------------------------------*/
  80:Src/usbh_conf.c **** 
  81:Src/usbh_conf.c **** /* USER CODE BEGIN 1 */
  82:Src/usbh_conf.c **** 
  83:Src/usbh_conf.c **** /* USER CODE END 1 */
  84:Src/usbh_conf.c **** 
  85:Src/usbh_conf.c **** /*******************************************************************************
  86:Src/usbh_conf.c ****                        LL Driver Callbacks (HCD -> USB Host Library)
  87:Src/usbh_conf.c **** *******************************************************************************/
  88:Src/usbh_conf.c **** /* MSP Init */
ARM GAS  C:\Users\Patryk\AppData\Local\Temp\ccUxqN1Z.s 			page 3


  89:Src/usbh_conf.c **** 
  90:Src/usbh_conf.c **** void HAL_HCD_MspInit(HCD_HandleTypeDef* hcdHandle)
  91:Src/usbh_conf.c **** {
  28              		.loc 1 91 0
  29              		.cfi_startproc
  30              		@ args = 0, pretend = 0, frame = 32
  31              		@ frame_needed = 0, uses_anonymous_args = 0
  32              	.LVL0:
  92:Src/usbh_conf.c ****   GPIO_InitTypeDef GPIO_InitStruct;
  93:Src/usbh_conf.c ****   if(hcdHandle->Instance==USB_OTG_FS)
  33              		.loc 1 93 0
  34 0000 0368     		ldr	r3, [r0]
  35 0002 B3F1A04F 		cmp	r3, #1342177280
  36 0006 00D0     		beq	.L7
  37 0008 7047     		bx	lr
  38              	.L7:
  91:Src/usbh_conf.c ****   GPIO_InitTypeDef GPIO_InitStruct;
  39              		.loc 1 91 0
  40 000a 10B5     		push	{r4, lr}
  41              	.LCFI0:
  42              		.cfi_def_cfa_offset 8
  43              		.cfi_offset 4, -8
  44              		.cfi_offset 14, -4
  45 000c 88B0     		sub	sp, sp, #32
  46              	.LCFI1:
  47              		.cfi_def_cfa_offset 40
  94:Src/usbh_conf.c ****   {
  95:Src/usbh_conf.c ****   /* USER CODE BEGIN USB_OTG_FS_MspInit 0 */
  96:Src/usbh_conf.c **** 
  97:Src/usbh_conf.c ****   /* USER CODE END USB_OTG_FS_MspInit 0 */
  98:Src/usbh_conf.c ****   
  99:Src/usbh_conf.c ****     /**USB_OTG_FS GPIO Configuration    
 100:Src/usbh_conf.c ****     PA12     ------> USB_OTG_FS_DP
 101:Src/usbh_conf.c ****     PA11     ------> USB_OTG_FS_DM
 102:Src/usbh_conf.c ****     PA10     ------> USB_OTG_FS_ID 
 103:Src/usbh_conf.c ****     */
 104:Src/usbh_conf.c ****     GPIO_InitStruct.Pin = OTG_FS_P_Pin|OTG_FS_N_Pin|OTG_FS_ID_Pin;
  48              		.loc 1 104 0
  49 000e 4FF4E053 		mov	r3, #7168
  50 0012 0393     		str	r3, [sp, #12]
 105:Src/usbh_conf.c ****     GPIO_InitStruct.Mode = GPIO_MODE_AF_PP;
  51              		.loc 1 105 0
  52 0014 0223     		movs	r3, #2
  53 0016 0493     		str	r3, [sp, #16]
 106:Src/usbh_conf.c ****     GPIO_InitStruct.Pull = GPIO_NOPULL;
  54              		.loc 1 106 0
  55 0018 0024     		movs	r4, #0
  56 001a 0594     		str	r4, [sp, #20]
 107:Src/usbh_conf.c ****     GPIO_InitStruct.Speed = GPIO_SPEED_FREQ_VERY_HIGH;
  57              		.loc 1 107 0
  58 001c 0323     		movs	r3, #3
  59 001e 0693     		str	r3, [sp, #24]
 108:Src/usbh_conf.c ****     GPIO_InitStruct.Alternate = GPIO_AF10_OTG_FS;
  60              		.loc 1 108 0
  61 0020 0A23     		movs	r3, #10
  62 0022 0793     		str	r3, [sp, #28]
 109:Src/usbh_conf.c ****     HAL_GPIO_Init(GPIOA, &GPIO_InitStruct);
ARM GAS  C:\Users\Patryk\AppData\Local\Temp\ccUxqN1Z.s 			page 4


  63              		.loc 1 109 0
  64 0024 03A9     		add	r1, sp, #12
  65 0026 1048     		ldr	r0, .L8
  66              	.LVL1:
  67 0028 FFF7FEFF 		bl	HAL_GPIO_Init
  68              	.LVL2:
  69              	.LBB2:
 110:Src/usbh_conf.c **** 
 111:Src/usbh_conf.c ****     /* Peripheral clock enable */
 112:Src/usbh_conf.c ****     __HAL_RCC_USB_OTG_FS_CLK_ENABLE();
  70              		.loc 1 112 0
  71 002c 0F4B     		ldr	r3, .L8+4
  72 002e 5A6B     		ldr	r2, [r3, #52]
  73 0030 42F08002 		orr	r2, r2, #128
  74 0034 5A63     		str	r2, [r3, #52]
  75 0036 5A6B     		ldr	r2, [r3, #52]
  76 0038 02F08002 		and	r2, r2, #128
  77 003c 0192     		str	r2, [sp, #4]
  78 003e 019A     		ldr	r2, [sp, #4]
  79              	.LBB3:
  80 0040 5A6C     		ldr	r2, [r3, #68]
  81 0042 42F48042 		orr	r2, r2, #16384
  82 0046 5A64     		str	r2, [r3, #68]
  83 0048 5B6C     		ldr	r3, [r3, #68]
  84 004a 03F48043 		and	r3, r3, #16384
  85 004e 0293     		str	r3, [sp, #8]
  86 0050 029B     		ldr	r3, [sp, #8]
  87              	.LBE3:
  88              	.LBE2:
 113:Src/usbh_conf.c **** 
 114:Src/usbh_conf.c ****     /* Peripheral interrupt init */
 115:Src/usbh_conf.c ****     HAL_NVIC_SetPriority(OTG_FS_IRQn, 5, 0);
  89              		.loc 1 115 0
  90 0052 2246     		mov	r2, r4
  91 0054 0521     		movs	r1, #5
  92 0056 4320     		movs	r0, #67
  93 0058 FFF7FEFF 		bl	HAL_NVIC_SetPriority
  94              	.LVL3:
 116:Src/usbh_conf.c ****     HAL_NVIC_EnableIRQ(OTG_FS_IRQn);
  95              		.loc 1 116 0
  96 005c 4320     		movs	r0, #67
  97 005e FFF7FEFF 		bl	HAL_NVIC_EnableIRQ
  98              	.LVL4:
 117:Src/usbh_conf.c ****   /* USER CODE BEGIN USB_OTG_FS_MspInit 1 */
 118:Src/usbh_conf.c **** 
 119:Src/usbh_conf.c ****   /* USER CODE END USB_OTG_FS_MspInit 1 */
 120:Src/usbh_conf.c ****   }
 121:Src/usbh_conf.c **** }
  99              		.loc 1 121 0
 100 0062 08B0     		add	sp, sp, #32
 101              	.LCFI2:
 102              		.cfi_def_cfa_offset 8
 103              		@ sp needed
 104 0064 10BD     		pop	{r4, pc}
 105              	.L9:
 106 0066 00BF     		.align	2
 107              	.L8:
ARM GAS  C:\Users\Patryk\AppData\Local\Temp\ccUxqN1Z.s 			page 5


 108 0068 00000240 		.word	1073872896
 109 006c 00380240 		.word	1073887232
 110              		.cfi_endproc
 111              	.LFE143:
 113              		.section	.text.HAL_HCD_MspDeInit,"ax",%progbits
 114              		.align	1
 115              		.global	HAL_HCD_MspDeInit
 116              		.syntax unified
 117              		.thumb
 118              		.thumb_func
 119              		.fpu fpv5-sp-d16
 121              	HAL_HCD_MspDeInit:
 122              	.LFB144:
 122:Src/usbh_conf.c **** 
 123:Src/usbh_conf.c **** void HAL_HCD_MspDeInit(HCD_HandleTypeDef* hcdHandle)
 124:Src/usbh_conf.c **** {
 123              		.loc 1 124 0
 124              		.cfi_startproc
 125              		@ args = 0, pretend = 0, frame = 0
 126              		@ frame_needed = 0, uses_anonymous_args = 0
 127              	.LVL5:
 128 0000 08B5     		push	{r3, lr}
 129              	.LCFI3:
 130              		.cfi_def_cfa_offset 8
 131              		.cfi_offset 3, -8
 132              		.cfi_offset 14, -4
 125:Src/usbh_conf.c ****   if(hcdHandle->Instance==USB_OTG_FS)
 133              		.loc 1 125 0
 134 0002 0368     		ldr	r3, [r0]
 135 0004 B3F1A04F 		cmp	r3, #1342177280
 136 0008 00D0     		beq	.L13
 137              	.LVL6:
 138              	.L10:
 126:Src/usbh_conf.c ****   {
 127:Src/usbh_conf.c ****   /* USER CODE BEGIN USB_OTG_FS_MspDeInit 0 */
 128:Src/usbh_conf.c **** 
 129:Src/usbh_conf.c ****   /* USER CODE END USB_OTG_FS_MspDeInit 0 */
 130:Src/usbh_conf.c ****     /* Peripheral clock disable */
 131:Src/usbh_conf.c ****     __HAL_RCC_USB_OTG_FS_CLK_DISABLE();
 132:Src/usbh_conf.c ****   
 133:Src/usbh_conf.c ****     /**USB_OTG_FS GPIO Configuration    
 134:Src/usbh_conf.c ****     PA12     ------> USB_OTG_FS_DP
 135:Src/usbh_conf.c ****     PA11     ------> USB_OTG_FS_DM
 136:Src/usbh_conf.c ****     PA10     ------> USB_OTG_FS_ID 
 137:Src/usbh_conf.c ****     */
 138:Src/usbh_conf.c ****     HAL_GPIO_DeInit(GPIOA, OTG_FS_P_Pin|OTG_FS_N_Pin|OTG_FS_ID_Pin);
 139:Src/usbh_conf.c **** 
 140:Src/usbh_conf.c ****     /* Peripheral interrupt Deinit*/
 141:Src/usbh_conf.c ****     HAL_NVIC_DisableIRQ(OTG_FS_IRQn);
 142:Src/usbh_conf.c **** 
 143:Src/usbh_conf.c ****   /* USER CODE BEGIN USB_OTG_FS_MspDeInit 1 */
 144:Src/usbh_conf.c **** 
 145:Src/usbh_conf.c ****   /* USER CODE END USB_OTG_FS_MspDeInit 1 */
 146:Src/usbh_conf.c ****   }
 147:Src/usbh_conf.c **** }
 139              		.loc 1 147 0
 140 000a 08BD     		pop	{r3, pc}
ARM GAS  C:\Users\Patryk\AppData\Local\Temp\ccUxqN1Z.s 			page 6


 141              	.LVL7:
 142              	.L13:
 131:Src/usbh_conf.c ****   
 143              		.loc 1 131 0
 144 000c 064A     		ldr	r2, .L14
 145 000e 536B     		ldr	r3, [r2, #52]
 146 0010 23F08003 		bic	r3, r3, #128
 147 0014 5363     		str	r3, [r2, #52]
 138:Src/usbh_conf.c **** 
 148              		.loc 1 138 0
 149 0016 4FF4E051 		mov	r1, #7168
 150 001a 0448     		ldr	r0, .L14+4
 151              	.LVL8:
 152 001c FFF7FEFF 		bl	HAL_GPIO_DeInit
 153              	.LVL9:
 141:Src/usbh_conf.c **** 
 154              		.loc 1 141 0
 155 0020 4320     		movs	r0, #67
 156 0022 FFF7FEFF 		bl	HAL_NVIC_DisableIRQ
 157              	.LVL10:
 158              		.loc 1 147 0
 159 0026 F0E7     		b	.L10
 160              	.L15:
 161              		.align	2
 162              	.L14:
 163 0028 00380240 		.word	1073887232
 164 002c 00000240 		.word	1073872896
 165              		.cfi_endproc
 166              	.LFE144:
 168              		.section	.text.HAL_HCD_SOF_Callback,"ax",%progbits
 169              		.align	1
 170              		.global	HAL_HCD_SOF_Callback
 171              		.syntax unified
 172              		.thumb
 173              		.thumb_func
 174              		.fpu fpv5-sp-d16
 176              	HAL_HCD_SOF_Callback:
 177              	.LFB145:
 148:Src/usbh_conf.c **** 
 149:Src/usbh_conf.c **** /**
 150:Src/usbh_conf.c ****   * @brief  SOF callback.
 151:Src/usbh_conf.c ****   * @param  hhcd: HCD handle
 152:Src/usbh_conf.c ****   * @retval None
 153:Src/usbh_conf.c ****   */
 154:Src/usbh_conf.c **** void HAL_HCD_SOF_Callback(HCD_HandleTypeDef *hhcd)
 155:Src/usbh_conf.c **** {
 178              		.loc 1 155 0
 179              		.cfi_startproc
 180              		@ args = 0, pretend = 0, frame = 0
 181              		@ frame_needed = 0, uses_anonymous_args = 0
 182              	.LVL11:
 183 0000 08B5     		push	{r3, lr}
 184              	.LCFI4:
 185              		.cfi_def_cfa_offset 8
 186              		.cfi_offset 3, -8
 187              		.cfi_offset 14, -4
 156:Src/usbh_conf.c ****   USBH_LL_IncTimer(hhcd->pData);
ARM GAS  C:\Users\Patryk\AppData\Local\Temp\ccUxqN1Z.s 			page 7


 188              		.loc 1 156 0
 189 0002 D0F8BC02 		ldr	r0, [r0, #700]
 190              	.LVL12:
 191 0006 FFF7FEFF 		bl	USBH_LL_IncTimer
 192              	.LVL13:
 157:Src/usbh_conf.c **** }
 193              		.loc 1 157 0
 194 000a 08BD     		pop	{r3, pc}
 195              		.cfi_endproc
 196              	.LFE145:
 198              		.section	.text.HAL_HCD_Connect_Callback,"ax",%progbits
 199              		.align	1
 200              		.global	HAL_HCD_Connect_Callback
 201              		.syntax unified
 202              		.thumb
 203              		.thumb_func
 204              		.fpu fpv5-sp-d16
 206              	HAL_HCD_Connect_Callback:
 207              	.LFB146:
 158:Src/usbh_conf.c **** 
 159:Src/usbh_conf.c **** /**
 160:Src/usbh_conf.c ****   * @brief  SOF callback.
 161:Src/usbh_conf.c ****   * @param  hhcd: HCD handle
 162:Src/usbh_conf.c ****   * @retval None
 163:Src/usbh_conf.c ****   */
 164:Src/usbh_conf.c **** void HAL_HCD_Connect_Callback(HCD_HandleTypeDef *hhcd)
 165:Src/usbh_conf.c **** {
 208              		.loc 1 165 0
 209              		.cfi_startproc
 210              		@ args = 0, pretend = 0, frame = 0
 211              		@ frame_needed = 0, uses_anonymous_args = 0
 212              	.LVL14:
 213 0000 08B5     		push	{r3, lr}
 214              	.LCFI5:
 215              		.cfi_def_cfa_offset 8
 216              		.cfi_offset 3, -8
 217              		.cfi_offset 14, -4
 166:Src/usbh_conf.c ****   USBH_LL_Connect(hhcd->pData);
 218              		.loc 1 166 0
 219 0002 D0F8BC02 		ldr	r0, [r0, #700]
 220              	.LVL15:
 221 0006 FFF7FEFF 		bl	USBH_LL_Connect
 222              	.LVL16:
 167:Src/usbh_conf.c **** }
 223              		.loc 1 167 0
 224 000a 08BD     		pop	{r3, pc}
 225              		.cfi_endproc
 226              	.LFE146:
 228              		.section	.text.HAL_HCD_Disconnect_Callback,"ax",%progbits
 229              		.align	1
 230              		.global	HAL_HCD_Disconnect_Callback
 231              		.syntax unified
 232              		.thumb
 233              		.thumb_func
 234              		.fpu fpv5-sp-d16
 236              	HAL_HCD_Disconnect_Callback:
 237              	.LFB147:
ARM GAS  C:\Users\Patryk\AppData\Local\Temp\ccUxqN1Z.s 			page 8


 168:Src/usbh_conf.c **** 
 169:Src/usbh_conf.c **** /**
 170:Src/usbh_conf.c ****   * @brief  SOF callback.
 171:Src/usbh_conf.c ****   * @param  hhcd: HCD handle
 172:Src/usbh_conf.c ****   * @retval None
 173:Src/usbh_conf.c ****   */
 174:Src/usbh_conf.c **** void HAL_HCD_Disconnect_Callback(HCD_HandleTypeDef *hhcd)
 175:Src/usbh_conf.c **** {
 238              		.loc 1 175 0
 239              		.cfi_startproc
 240              		@ args = 0, pretend = 0, frame = 0
 241              		@ frame_needed = 0, uses_anonymous_args = 0
 242              	.LVL17:
 243 0000 08B5     		push	{r3, lr}
 244              	.LCFI6:
 245              		.cfi_def_cfa_offset 8
 246              		.cfi_offset 3, -8
 247              		.cfi_offset 14, -4
 176:Src/usbh_conf.c ****   USBH_LL_Disconnect(hhcd->pData);
 248              		.loc 1 176 0
 249 0002 D0F8BC02 		ldr	r0, [r0, #700]
 250              	.LVL18:
 251 0006 FFF7FEFF 		bl	USBH_LL_Disconnect
 252              	.LVL19:
 177:Src/usbh_conf.c **** }
 253              		.loc 1 177 0
 254 000a 08BD     		pop	{r3, pc}
 255              		.cfi_endproc
 256              	.LFE147:
 258              		.section	.text.HAL_HCD_HC_NotifyURBChange_Callback,"ax",%progbits
 259              		.align	1
 260              		.global	HAL_HCD_HC_NotifyURBChange_Callback
 261              		.syntax unified
 262              		.thumb
 263              		.thumb_func
 264              		.fpu fpv5-sp-d16
 266              	HAL_HCD_HC_NotifyURBChange_Callback:
 267              	.LFB148:
 178:Src/usbh_conf.c **** 
 179:Src/usbh_conf.c **** /**
 180:Src/usbh_conf.c ****   * @brief  Notify URB state change callback.
 181:Src/usbh_conf.c ****   * @param  hhcd: HCD handle
 182:Src/usbh_conf.c ****   * @param  chnum: channel number
 183:Src/usbh_conf.c ****   * @param  urb_state: state
 184:Src/usbh_conf.c ****   * @retval None
 185:Src/usbh_conf.c ****   */
 186:Src/usbh_conf.c **** void HAL_HCD_HC_NotifyURBChange_Callback(HCD_HandleTypeDef *hhcd, uint8_t chnum, HCD_URBStateTypeDe
 187:Src/usbh_conf.c **** {
 268              		.loc 1 187 0
 269              		.cfi_startproc
 270              		@ args = 0, pretend = 0, frame = 0
 271              		@ frame_needed = 0, uses_anonymous_args = 0
 272              	.LVL20:
 273 0000 08B5     		push	{r3, lr}
 274              	.LCFI7:
 275              		.cfi_def_cfa_offset 8
 276              		.cfi_offset 3, -8
ARM GAS  C:\Users\Patryk\AppData\Local\Temp\ccUxqN1Z.s 			page 9


 277              		.cfi_offset 14, -4
 188:Src/usbh_conf.c ****   /* To be used with OS to sync URB state with the global state machine */
 189:Src/usbh_conf.c **** #if (USBH_USE_OS == 1)
 190:Src/usbh_conf.c ****   USBH_LL_NotifyURBChange(hhcd->pData);
 278              		.loc 1 190 0
 279 0002 D0F8BC02 		ldr	r0, [r0, #700]
 280              	.LVL21:
 281 0006 FFF7FEFF 		bl	USBH_LL_NotifyURBChange
 282              	.LVL22:
 191:Src/usbh_conf.c **** #endif
 192:Src/usbh_conf.c **** }
 283              		.loc 1 192 0
 284 000a 08BD     		pop	{r3, pc}
 285              		.cfi_endproc
 286              	.LFE148:
 288              		.section	.text.HAL_HCD_PortEnabled_Callback,"ax",%progbits
 289              		.align	1
 290              		.global	HAL_HCD_PortEnabled_Callback
 291              		.syntax unified
 292              		.thumb
 293              		.thumb_func
 294              		.fpu fpv5-sp-d16
 296              	HAL_HCD_PortEnabled_Callback:
 297              	.LFB149:
 193:Src/usbh_conf.c **** /**
 194:Src/usbh_conf.c **** * @brief  Port Port Enabled callback.
 195:Src/usbh_conf.c ****   * @param  hhcd: HCD handle
 196:Src/usbh_conf.c ****   * @retval None
 197:Src/usbh_conf.c ****   */
 198:Src/usbh_conf.c **** void HAL_HCD_PortEnabled_Callback(HCD_HandleTypeDef *hhcd)
 199:Src/usbh_conf.c **** {
 298              		.loc 1 199 0
 299              		.cfi_startproc
 300              		@ args = 0, pretend = 0, frame = 0
 301              		@ frame_needed = 0, uses_anonymous_args = 0
 302              	.LVL23:
 303 0000 08B5     		push	{r3, lr}
 304              	.LCFI8:
 305              		.cfi_def_cfa_offset 8
 306              		.cfi_offset 3, -8
 307              		.cfi_offset 14, -4
 200:Src/usbh_conf.c ****   USBH_LL_PortEnabled(hhcd->pData);
 308              		.loc 1 200 0
 309 0002 D0F8BC02 		ldr	r0, [r0, #700]
 310              	.LVL24:
 311 0006 FFF7FEFF 		bl	USBH_LL_PortEnabled
 312              	.LVL25:
 201:Src/usbh_conf.c **** } 
 313              		.loc 1 201 0
 314 000a 08BD     		pop	{r3, pc}
 315              		.cfi_endproc
 316              	.LFE149:
 318              		.section	.text.HAL_HCD_PortDisabled_Callback,"ax",%progbits
 319              		.align	1
 320              		.global	HAL_HCD_PortDisabled_Callback
 321              		.syntax unified
 322              		.thumb
ARM GAS  C:\Users\Patryk\AppData\Local\Temp\ccUxqN1Z.s 			page 10


 323              		.thumb_func
 324              		.fpu fpv5-sp-d16
 326              	HAL_HCD_PortDisabled_Callback:
 327              	.LFB150:
 202:Src/usbh_conf.c **** 
 203:Src/usbh_conf.c **** /**
 204:Src/usbh_conf.c ****   * @brief  Port Port Disabled callback.
 205:Src/usbh_conf.c ****   * @param  hhcd: HCD handle
 206:Src/usbh_conf.c ****   * @retval None
 207:Src/usbh_conf.c ****   */
 208:Src/usbh_conf.c **** void HAL_HCD_PortDisabled_Callback(HCD_HandleTypeDef *hhcd)
 209:Src/usbh_conf.c **** {
 328              		.loc 1 209 0
 329              		.cfi_startproc
 330              		@ args = 0, pretend = 0, frame = 0
 331              		@ frame_needed = 0, uses_anonymous_args = 0
 332              	.LVL26:
 333 0000 08B5     		push	{r3, lr}
 334              	.LCFI9:
 335              		.cfi_def_cfa_offset 8
 336              		.cfi_offset 3, -8
 337              		.cfi_offset 14, -4
 210:Src/usbh_conf.c ****   USBH_LL_PortDisabled(hhcd->pData);
 338              		.loc 1 210 0
 339 0002 D0F8BC02 		ldr	r0, [r0, #700]
 340              	.LVL27:
 341 0006 FFF7FEFF 		bl	USBH_LL_PortDisabled
 342              	.LVL28:
 211:Src/usbh_conf.c **** } 
 343              		.loc 1 211 0
 344 000a 08BD     		pop	{r3, pc}
 345              		.cfi_endproc
 346              	.LFE150:
 348              		.section	.text.USBH_LL_Init,"ax",%progbits
 349              		.align	1
 350              		.global	USBH_LL_Init
 351              		.syntax unified
 352              		.thumb
 353              		.thumb_func
 354              		.fpu fpv5-sp-d16
 356              	USBH_LL_Init:
 357              	.LFB151:
 212:Src/usbh_conf.c **** 
 213:Src/usbh_conf.c **** /*******************************************************************************
 214:Src/usbh_conf.c ****                        LL Driver Interface (USB Host Library --> HCD)
 215:Src/usbh_conf.c **** *******************************************************************************/
 216:Src/usbh_conf.c **** 
 217:Src/usbh_conf.c **** /**
 218:Src/usbh_conf.c ****   * @brief  Initialize the low level portion of the host driver.
 219:Src/usbh_conf.c ****   * @param  phost: Host handle
 220:Src/usbh_conf.c ****   * @retval USBH status
 221:Src/usbh_conf.c ****   */
 222:Src/usbh_conf.c **** USBH_StatusTypeDef USBH_LL_Init(USBH_HandleTypeDef *phost)
 223:Src/usbh_conf.c **** {
 358              		.loc 1 223 0
 359              		.cfi_startproc
 360              		@ args = 0, pretend = 0, frame = 0
ARM GAS  C:\Users\Patryk\AppData\Local\Temp\ccUxqN1Z.s 			page 11


 361              		@ frame_needed = 0, uses_anonymous_args = 0
 362              	.LVL29:
 224:Src/usbh_conf.c ****   /* Init USB_IP */
 225:Src/usbh_conf.c ****   if (phost->id == HOST_FS) {
 363              		.loc 1 225 0
 364 0000 90F8C033 		ldrb	r3, [r0, #960]	@ zero_extendqisi2
 365 0004 012B     		cmp	r3, #1
 366 0006 01D0     		beq	.L35
 226:Src/usbh_conf.c ****   /* Link the driver to the stack. */
 227:Src/usbh_conf.c ****   hhcd_USB_OTG_FS.pData = phost;
 228:Src/usbh_conf.c ****   phost->pData = &hhcd_USB_OTG_FS;
 229:Src/usbh_conf.c **** 
 230:Src/usbh_conf.c ****   hhcd_USB_OTG_FS.Instance = USB_OTG_FS;
 231:Src/usbh_conf.c ****   hhcd_USB_OTG_FS.Init.Host_channels = 8;
 232:Src/usbh_conf.c ****   hhcd_USB_OTG_FS.Init.speed = HCD_SPEED_FULL;
 233:Src/usbh_conf.c ****   hhcd_USB_OTG_FS.Init.dma_enable = DISABLE;
 234:Src/usbh_conf.c ****   hhcd_USB_OTG_FS.Init.phy_itface = HCD_PHY_EMBEDDED;
 235:Src/usbh_conf.c ****   hhcd_USB_OTG_FS.Init.Sof_enable = DISABLE;
 236:Src/usbh_conf.c ****   if (HAL_HCD_Init(&hhcd_USB_OTG_FS) != HAL_OK)
 237:Src/usbh_conf.c ****   {
 238:Src/usbh_conf.c ****     _Error_Handler(__FILE__, __LINE__);
 239:Src/usbh_conf.c ****   }
 240:Src/usbh_conf.c **** 
 241:Src/usbh_conf.c ****   USBH_LL_SetTimer(phost, HAL_HCD_GetCurrentFrame(&hhcd_USB_OTG_FS));
 242:Src/usbh_conf.c ****   }
 243:Src/usbh_conf.c ****   return USBH_OK;
 244:Src/usbh_conf.c **** }
 367              		.loc 1 244 0
 368 0008 0020     		movs	r0, #0
 369              	.LVL30:
 370 000a 7047     		bx	lr
 371              	.LVL31:
 372              	.L35:
 223:Src/usbh_conf.c ****   /* Init USB_IP */
 373              		.loc 1 223 0
 374 000c 10B5     		push	{r4, lr}
 375              	.LCFI10:
 376              		.cfi_def_cfa_offset 8
 377              		.cfi_offset 4, -8
 378              		.cfi_offset 14, -4
 379 000e 0446     		mov	r4, r0
 227:Src/usbh_conf.c ****   phost->pData = &hhcd_USB_OTG_FS;
 380              		.loc 1 227 0
 381 0010 1048     		ldr	r0, .L37
 382              	.LVL32:
 383 0012 C0F8BC42 		str	r4, [r0, #700]
 228:Src/usbh_conf.c **** 
 384              		.loc 1 228 0
 385 0016 C4F8C403 		str	r0, [r4, #964]
 230:Src/usbh_conf.c ****   hhcd_USB_OTG_FS.Init.Host_channels = 8;
 386              		.loc 1 230 0
 387 001a 4FF0A043 		mov	r3, #1342177280
 388 001e 0360     		str	r3, [r0]
 231:Src/usbh_conf.c ****   hhcd_USB_OTG_FS.Init.speed = HCD_SPEED_FULL;
 389              		.loc 1 231 0
 390 0020 0823     		movs	r3, #8
 391 0022 8360     		str	r3, [r0, #8]
ARM GAS  C:\Users\Patryk\AppData\Local\Temp\ccUxqN1Z.s 			page 12


 232:Src/usbh_conf.c ****   hhcd_USB_OTG_FS.Init.dma_enable = DISABLE;
 392              		.loc 1 232 0
 393 0024 0323     		movs	r3, #3
 394 0026 C360     		str	r3, [r0, #12]
 233:Src/usbh_conf.c ****   hhcd_USB_OTG_FS.Init.phy_itface = HCD_PHY_EMBEDDED;
 395              		.loc 1 233 0
 396 0028 0023     		movs	r3, #0
 397 002a 0361     		str	r3, [r0, #16]
 234:Src/usbh_conf.c ****   hhcd_USB_OTG_FS.Init.Sof_enable = DISABLE;
 398              		.loc 1 234 0
 399 002c 0222     		movs	r2, #2
 400 002e 8261     		str	r2, [r0, #24]
 235:Src/usbh_conf.c ****   if (HAL_HCD_Init(&hhcd_USB_OTG_FS) != HAL_OK)
 401              		.loc 1 235 0
 402 0030 C361     		str	r3, [r0, #28]
 236:Src/usbh_conf.c ****   {
 403              		.loc 1 236 0
 404 0032 FFF7FEFF 		bl	HAL_HCD_Init
 405              	.LVL33:
 406 0036 40B9     		cbnz	r0, .L36
 407              	.L30:
 241:Src/usbh_conf.c ****   }
 408              		.loc 1 241 0
 409 0038 0648     		ldr	r0, .L37
 410 003a FFF7FEFF 		bl	HAL_HCD_GetCurrentFrame
 411              	.LVL34:
 412 003e 0146     		mov	r1, r0
 413 0040 2046     		mov	r0, r4
 414 0042 FFF7FEFF 		bl	USBH_LL_SetTimer
 415              	.LVL35:
 416              		.loc 1 244 0
 417 0046 0020     		movs	r0, #0
 418 0048 10BD     		pop	{r4, pc}
 419              	.LVL36:
 420              	.L36:
 238:Src/usbh_conf.c ****   }
 421              		.loc 1 238 0
 422 004a EE21     		movs	r1, #238
 423 004c 0248     		ldr	r0, .L37+4
 424 004e FFF7FEFF 		bl	_Error_Handler
 425              	.LVL37:
 426 0052 F1E7     		b	.L30
 427              	.L38:
 428              		.align	2
 429              	.L37:
 430 0054 00000000 		.word	hhcd_USB_OTG_FS
 431 0058 00000000 		.word	.LC0
 432              		.cfi_endproc
 433              	.LFE151:
 435              		.section	.text.USBH_LL_DeInit,"ax",%progbits
 436              		.align	1
 437              		.global	USBH_LL_DeInit
 438              		.syntax unified
 439              		.thumb
 440              		.thumb_func
 441              		.fpu fpv5-sp-d16
 443              	USBH_LL_DeInit:
ARM GAS  C:\Users\Patryk\AppData\Local\Temp\ccUxqN1Z.s 			page 13


 444              	.LFB152:
 245:Src/usbh_conf.c **** 
 246:Src/usbh_conf.c **** /**
 247:Src/usbh_conf.c ****   * @brief  De-Initialize the low level portion of the host driver.
 248:Src/usbh_conf.c ****   * @param  phost: Host handle
 249:Src/usbh_conf.c ****   * @retval USBH status
 250:Src/usbh_conf.c ****   */
 251:Src/usbh_conf.c **** USBH_StatusTypeDef USBH_LL_DeInit(USBH_HandleTypeDef *phost)
 252:Src/usbh_conf.c **** {
 445              		.loc 1 252 0
 446              		.cfi_startproc
 447              		@ args = 0, pretend = 0, frame = 0
 448              		@ frame_needed = 0, uses_anonymous_args = 0
 449              	.LVL38:
 450 0000 08B5     		push	{r3, lr}
 451              	.LCFI11:
 452              		.cfi_def_cfa_offset 8
 453              		.cfi_offset 3, -8
 454              		.cfi_offset 14, -4
 455              	.LVL39:
 253:Src/usbh_conf.c ****   HAL_StatusTypeDef hal_status = HAL_OK;
 254:Src/usbh_conf.c ****   USBH_StatusTypeDef usb_status = USBH_OK;
 255:Src/usbh_conf.c **** 
 256:Src/usbh_conf.c ****   hal_status = HAL_HCD_DeInit(phost->pData);
 456              		.loc 1 256 0
 457 0002 D0F8C403 		ldr	r0, [r0, #964]
 458              	.LVL40:
 459 0006 FFF7FEFF 		bl	HAL_HCD_DeInit
 460              	.LVL41:
 257:Src/usbh_conf.c **** 
 258:Src/usbh_conf.c ****   switch (hal_status) {
 461              		.loc 1 258 0
 462 000a 18B1     		cbz	r0, .L41
 463 000c 0228     		cmp	r0, #2
 464 000e 03D0     		beq	.L42
 259:Src/usbh_conf.c ****     case HAL_OK :
 260:Src/usbh_conf.c ****       usb_status = USBH_OK;
 261:Src/usbh_conf.c ****     break;
 262:Src/usbh_conf.c ****     case HAL_ERROR :
 263:Src/usbh_conf.c ****       usb_status = USBH_FAIL;
 465              		.loc 1 263 0
 466 0010 0220     		movs	r0, #2
 467              	.LVL42:
 468              	.L40:
 264:Src/usbh_conf.c ****     break;
 265:Src/usbh_conf.c ****     case HAL_BUSY :
 266:Src/usbh_conf.c ****       usb_status = USBH_BUSY;
 267:Src/usbh_conf.c ****     break;
 268:Src/usbh_conf.c ****     case HAL_TIMEOUT :
 269:Src/usbh_conf.c ****       usb_status = USBH_FAIL;
 270:Src/usbh_conf.c ****     break;
 271:Src/usbh_conf.c ****     default :
 272:Src/usbh_conf.c ****       usb_status = USBH_FAIL;
 273:Src/usbh_conf.c ****     break;
 274:Src/usbh_conf.c ****   }
 275:Src/usbh_conf.c ****   return usb_status;
 276:Src/usbh_conf.c **** }
ARM GAS  C:\Users\Patryk\AppData\Local\Temp\ccUxqN1Z.s 			page 14


 469              		.loc 1 276 0
 470 0012 08BD     		pop	{r3, pc}
 471              	.LVL43:
 472              	.L41:
 260:Src/usbh_conf.c ****     break;
 473              		.loc 1 260 0
 474 0014 0020     		movs	r0, #0
 475              	.LVL44:
 476 0016 FCE7     		b	.L40
 477              	.LVL45:
 478              	.L42:
 266:Src/usbh_conf.c ****     break;
 479              		.loc 1 266 0
 480 0018 0120     		movs	r0, #1
 481              	.LVL46:
 267:Src/usbh_conf.c ****     case HAL_TIMEOUT :
 482              		.loc 1 267 0
 483 001a FAE7     		b	.L40
 484              		.cfi_endproc
 485              	.LFE152:
 487              		.section	.text.USBH_LL_Start,"ax",%progbits
 488              		.align	1
 489              		.global	USBH_LL_Start
 490              		.syntax unified
 491              		.thumb
 492              		.thumb_func
 493              		.fpu fpv5-sp-d16
 495              	USBH_LL_Start:
 496              	.LFB153:
 277:Src/usbh_conf.c **** 
 278:Src/usbh_conf.c **** /**
 279:Src/usbh_conf.c ****   * @brief  Start the low level portion of the host driver.
 280:Src/usbh_conf.c ****   * @param  phost: Host handle
 281:Src/usbh_conf.c ****   * @retval USBH status
 282:Src/usbh_conf.c ****   */
 283:Src/usbh_conf.c **** USBH_StatusTypeDef USBH_LL_Start(USBH_HandleTypeDef *phost)
 284:Src/usbh_conf.c **** {
 497              		.loc 1 284 0
 498              		.cfi_startproc
 499              		@ args = 0, pretend = 0, frame = 0
 500              		@ frame_needed = 0, uses_anonymous_args = 0
 501              	.LVL47:
 502 0000 08B5     		push	{r3, lr}
 503              	.LCFI12:
 504              		.cfi_def_cfa_offset 8
 505              		.cfi_offset 3, -8
 506              		.cfi_offset 14, -4
 507              	.LVL48:
 285:Src/usbh_conf.c ****   HAL_StatusTypeDef hal_status = HAL_OK;
 286:Src/usbh_conf.c ****   USBH_StatusTypeDef usb_status = USBH_OK;
 287:Src/usbh_conf.c **** 
 288:Src/usbh_conf.c ****   hal_status = HAL_HCD_Start(phost->pData);
 508              		.loc 1 288 0
 509 0002 D0F8C403 		ldr	r0, [r0, #964]
 510              	.LVL49:
 511 0006 FFF7FEFF 		bl	HAL_HCD_Start
 512              	.LVL50:
ARM GAS  C:\Users\Patryk\AppData\Local\Temp\ccUxqN1Z.s 			page 15


 289:Src/usbh_conf.c **** 
 290:Src/usbh_conf.c ****   switch (hal_status) {
 513              		.loc 1 290 0
 514 000a 18B1     		cbz	r0, .L48
 515 000c 0228     		cmp	r0, #2
 516 000e 03D0     		beq	.L49
 291:Src/usbh_conf.c ****     case HAL_OK :
 292:Src/usbh_conf.c ****       usb_status = USBH_OK;
 293:Src/usbh_conf.c ****     break;
 294:Src/usbh_conf.c ****     case HAL_ERROR :
 295:Src/usbh_conf.c ****       usb_status = USBH_FAIL;
 517              		.loc 1 295 0
 518 0010 0220     		movs	r0, #2
 519              	.LVL51:
 520              	.L47:
 296:Src/usbh_conf.c ****     break;
 297:Src/usbh_conf.c ****     case HAL_BUSY :
 298:Src/usbh_conf.c ****       usb_status = USBH_BUSY;
 299:Src/usbh_conf.c ****     break;
 300:Src/usbh_conf.c ****     case HAL_TIMEOUT :
 301:Src/usbh_conf.c ****       usb_status = USBH_FAIL;
 302:Src/usbh_conf.c ****     break;
 303:Src/usbh_conf.c ****     default :
 304:Src/usbh_conf.c ****       usb_status = USBH_FAIL;
 305:Src/usbh_conf.c ****     break;
 306:Src/usbh_conf.c ****   }
 307:Src/usbh_conf.c ****   return usb_status;
 308:Src/usbh_conf.c **** }
 521              		.loc 1 308 0
 522 0012 08BD     		pop	{r3, pc}
 523              	.LVL52:
 524              	.L48:
 292:Src/usbh_conf.c ****     break;
 525              		.loc 1 292 0
 526 0014 0020     		movs	r0, #0
 527              	.LVL53:
 528 0016 FCE7     		b	.L47
 529              	.LVL54:
 530              	.L49:
 298:Src/usbh_conf.c ****     break;
 531              		.loc 1 298 0
 532 0018 0120     		movs	r0, #1
 533              	.LVL55:
 299:Src/usbh_conf.c ****     case HAL_TIMEOUT :
 534              		.loc 1 299 0
 535 001a FAE7     		b	.L47
 536              		.cfi_endproc
 537              	.LFE153:
 539              		.section	.text.USBH_LL_Stop,"ax",%progbits
 540              		.align	1
 541              		.global	USBH_LL_Stop
 542              		.syntax unified
 543              		.thumb
 544              		.thumb_func
 545              		.fpu fpv5-sp-d16
 547              	USBH_LL_Stop:
 548              	.LFB154:
ARM GAS  C:\Users\Patryk\AppData\Local\Temp\ccUxqN1Z.s 			page 16


 309:Src/usbh_conf.c **** 
 310:Src/usbh_conf.c **** /**
 311:Src/usbh_conf.c ****   * @brief  Stop the low level portion of the host driver.
 312:Src/usbh_conf.c ****   * @param  phost: Host handle
 313:Src/usbh_conf.c ****   * @retval USBH status
 314:Src/usbh_conf.c ****   */
 315:Src/usbh_conf.c **** USBH_StatusTypeDef USBH_LL_Stop(USBH_HandleTypeDef *phost)
 316:Src/usbh_conf.c **** {
 549              		.loc 1 316 0
 550              		.cfi_startproc
 551              		@ args = 0, pretend = 0, frame = 0
 552              		@ frame_needed = 0, uses_anonymous_args = 0
 553              	.LVL56:
 554 0000 08B5     		push	{r3, lr}
 555              	.LCFI13:
 556              		.cfi_def_cfa_offset 8
 557              		.cfi_offset 3, -8
 558              		.cfi_offset 14, -4
 559              	.LVL57:
 317:Src/usbh_conf.c ****   HAL_StatusTypeDef hal_status = HAL_OK;
 318:Src/usbh_conf.c ****   USBH_StatusTypeDef usb_status = USBH_OK;
 319:Src/usbh_conf.c **** 
 320:Src/usbh_conf.c ****   hal_status = HAL_HCD_Stop(phost->pData);
 560              		.loc 1 320 0
 561 0002 D0F8C403 		ldr	r0, [r0, #964]
 562              	.LVL58:
 563 0006 FFF7FEFF 		bl	HAL_HCD_Stop
 564              	.LVL59:
 321:Src/usbh_conf.c **** 
 322:Src/usbh_conf.c ****   switch (hal_status) {
 565              		.loc 1 322 0
 566 000a 18B1     		cbz	r0, .L55
 567 000c 0228     		cmp	r0, #2
 568 000e 03D0     		beq	.L56
 323:Src/usbh_conf.c ****     case HAL_OK :
 324:Src/usbh_conf.c ****       usb_status = USBH_OK;
 325:Src/usbh_conf.c ****     break;
 326:Src/usbh_conf.c ****     case HAL_ERROR :
 327:Src/usbh_conf.c ****       usb_status = USBH_FAIL;
 569              		.loc 1 327 0
 570 0010 0220     		movs	r0, #2
 571              	.LVL60:
 572              	.L54:
 328:Src/usbh_conf.c ****     break;
 329:Src/usbh_conf.c ****     case HAL_BUSY :
 330:Src/usbh_conf.c ****       usb_status = USBH_BUSY;
 331:Src/usbh_conf.c ****     break;
 332:Src/usbh_conf.c ****     case HAL_TIMEOUT :
 333:Src/usbh_conf.c ****       usb_status = USBH_FAIL;
 334:Src/usbh_conf.c ****     break;
 335:Src/usbh_conf.c ****     default :
 336:Src/usbh_conf.c ****       usb_status = USBH_FAIL;
 337:Src/usbh_conf.c ****     break;
 338:Src/usbh_conf.c ****   }
 339:Src/usbh_conf.c ****   return usb_status;
 340:Src/usbh_conf.c **** }
 573              		.loc 1 340 0
ARM GAS  C:\Users\Patryk\AppData\Local\Temp\ccUxqN1Z.s 			page 17


 574 0012 08BD     		pop	{r3, pc}
 575              	.LVL61:
 576              	.L55:
 324:Src/usbh_conf.c ****     break;
 577              		.loc 1 324 0
 578 0014 0020     		movs	r0, #0
 579              	.LVL62:
 580 0016 FCE7     		b	.L54
 581              	.LVL63:
 582              	.L56:
 330:Src/usbh_conf.c ****     break;
 583              		.loc 1 330 0
 584 0018 0120     		movs	r0, #1
 585              	.LVL64:
 331:Src/usbh_conf.c ****     case HAL_TIMEOUT :
 586              		.loc 1 331 0
 587 001a FAE7     		b	.L54
 588              		.cfi_endproc
 589              	.LFE154:
 591              		.section	.text.USBH_LL_GetSpeed,"ax",%progbits
 592              		.align	1
 593              		.global	USBH_LL_GetSpeed
 594              		.syntax unified
 595              		.thumb
 596              		.thumb_func
 597              		.fpu fpv5-sp-d16
 599              	USBH_LL_GetSpeed:
 600              	.LFB155:
 341:Src/usbh_conf.c **** 
 342:Src/usbh_conf.c **** /**
 343:Src/usbh_conf.c ****   * @brief  Return the USB host speed from the low level driver.
 344:Src/usbh_conf.c ****   * @param  phost: Host handle
 345:Src/usbh_conf.c ****   * @retval USBH speeds
 346:Src/usbh_conf.c ****   */
 347:Src/usbh_conf.c **** USBH_SpeedTypeDef USBH_LL_GetSpeed(USBH_HandleTypeDef *phost)
 348:Src/usbh_conf.c **** {
 601              		.loc 1 348 0
 602              		.cfi_startproc
 603              		@ args = 0, pretend = 0, frame = 0
 604              		@ frame_needed = 0, uses_anonymous_args = 0
 605              	.LVL65:
 606 0000 08B5     		push	{r3, lr}
 607              	.LCFI14:
 608              		.cfi_def_cfa_offset 8
 609              		.cfi_offset 3, -8
 610              		.cfi_offset 14, -4
 611              	.LVL66:
 349:Src/usbh_conf.c ****   USBH_SpeedTypeDef speed = USBH_SPEED_FULL;
 350:Src/usbh_conf.c **** 
 351:Src/usbh_conf.c ****   switch (HAL_HCD_GetCurrentSpeed(phost->pData))
 612              		.loc 1 351 0
 613 0002 D0F8C403 		ldr	r0, [r0, #964]
 614              	.LVL67:
 615 0006 FFF7FEFF 		bl	HAL_HCD_GetCurrentSpeed
 616              	.LVL68:
 617 000a 18B1     		cbz	r0, .L62
 618 000c 0228     		cmp	r0, #2
ARM GAS  C:\Users\Patryk\AppData\Local\Temp\ccUxqN1Z.s 			page 18


 619 000e 03D0     		beq	.L63
 352:Src/usbh_conf.c ****   {
 353:Src/usbh_conf.c ****   case 0 :
 354:Src/usbh_conf.c ****     speed = USBH_SPEED_HIGH;
 355:Src/usbh_conf.c ****     break;
 356:Src/usbh_conf.c **** 
 357:Src/usbh_conf.c ****   case 1 :
 358:Src/usbh_conf.c ****     speed = USBH_SPEED_FULL;
 620              		.loc 1 358 0
 621 0010 0120     		movs	r0, #1
 622              	.LVL69:
 623              	.L61:
 359:Src/usbh_conf.c ****     break;
 360:Src/usbh_conf.c **** 
 361:Src/usbh_conf.c ****   case 2 :
 362:Src/usbh_conf.c ****     speed = USBH_SPEED_LOW;
 363:Src/usbh_conf.c ****     break;
 364:Src/usbh_conf.c **** 
 365:Src/usbh_conf.c ****   default:
 366:Src/usbh_conf.c ****    speed = USBH_SPEED_FULL;
 367:Src/usbh_conf.c ****     break;
 368:Src/usbh_conf.c ****   }
 369:Src/usbh_conf.c ****   return  speed;
 370:Src/usbh_conf.c **** }
 624              		.loc 1 370 0
 625 0012 08BD     		pop	{r3, pc}
 626              	.LVL70:
 627              	.L62:
 354:Src/usbh_conf.c ****     break;
 628              		.loc 1 354 0
 629 0014 0020     		movs	r0, #0
 630 0016 FCE7     		b	.L61
 631              	.L63:
 632              	.LVL71:
 362:Src/usbh_conf.c ****     break;
 633              		.loc 1 362 0
 634 0018 0220     		movs	r0, #2
 363:Src/usbh_conf.c **** 
 635              		.loc 1 363 0
 636 001a FAE7     		b	.L61
 637              		.cfi_endproc
 638              	.LFE155:
 640              		.section	.text.USBH_LL_ResetPort,"ax",%progbits
 641              		.align	1
 642              		.global	USBH_LL_ResetPort
 643              		.syntax unified
 644              		.thumb
 645              		.thumb_func
 646              		.fpu fpv5-sp-d16
 648              	USBH_LL_ResetPort:
 649              	.LFB156:
 371:Src/usbh_conf.c **** 
 372:Src/usbh_conf.c **** /**
 373:Src/usbh_conf.c ****   * @brief  Reset the Host port of the low level driver.
 374:Src/usbh_conf.c ****   * @param  phost: Host handle
 375:Src/usbh_conf.c ****   * @retval USBH status
 376:Src/usbh_conf.c ****   */
ARM GAS  C:\Users\Patryk\AppData\Local\Temp\ccUxqN1Z.s 			page 19


 377:Src/usbh_conf.c **** USBH_StatusTypeDef USBH_LL_ResetPort(USBH_HandleTypeDef *phost)
 378:Src/usbh_conf.c **** {
 650              		.loc 1 378 0
 651              		.cfi_startproc
 652              		@ args = 0, pretend = 0, frame = 0
 653              		@ frame_needed = 0, uses_anonymous_args = 0
 654              	.LVL72:
 655 0000 08B5     		push	{r3, lr}
 656              	.LCFI15:
 657              		.cfi_def_cfa_offset 8
 658              		.cfi_offset 3, -8
 659              		.cfi_offset 14, -4
 660              	.LVL73:
 379:Src/usbh_conf.c ****   HAL_StatusTypeDef hal_status = HAL_OK;
 380:Src/usbh_conf.c ****   USBH_StatusTypeDef usb_status = USBH_OK;
 381:Src/usbh_conf.c **** 
 382:Src/usbh_conf.c ****   hal_status = HAL_HCD_ResetPort(phost->pData);
 661              		.loc 1 382 0
 662 0002 D0F8C403 		ldr	r0, [r0, #964]
 663              	.LVL74:
 664 0006 FFF7FEFF 		bl	HAL_HCD_ResetPort
 665              	.LVL75:
 383:Src/usbh_conf.c ****   switch (hal_status) {
 666              		.loc 1 383 0
 667 000a 18B1     		cbz	r0, .L69
 668 000c 0228     		cmp	r0, #2
 669 000e 03D0     		beq	.L70
 384:Src/usbh_conf.c ****     case HAL_OK :
 385:Src/usbh_conf.c ****       usb_status = USBH_OK;
 386:Src/usbh_conf.c ****     break;
 387:Src/usbh_conf.c ****     case HAL_ERROR :
 388:Src/usbh_conf.c ****       usb_status = USBH_FAIL;
 670              		.loc 1 388 0
 671 0010 0220     		movs	r0, #2
 672              	.LVL76:
 673              	.L68:
 389:Src/usbh_conf.c ****     break;
 390:Src/usbh_conf.c ****     case HAL_BUSY :
 391:Src/usbh_conf.c ****       usb_status = USBH_BUSY;
 392:Src/usbh_conf.c ****     break;
 393:Src/usbh_conf.c ****     case HAL_TIMEOUT :
 394:Src/usbh_conf.c ****       usb_status = USBH_FAIL;
 395:Src/usbh_conf.c ****     break;
 396:Src/usbh_conf.c ****     default :
 397:Src/usbh_conf.c ****       usb_status = USBH_FAIL;
 398:Src/usbh_conf.c ****     break;
 399:Src/usbh_conf.c ****   }
 400:Src/usbh_conf.c ****   return usb_status;
 401:Src/usbh_conf.c **** }
 674              		.loc 1 401 0
 675 0012 08BD     		pop	{r3, pc}
 676              	.LVL77:
 677              	.L69:
 385:Src/usbh_conf.c ****     break;
 678              		.loc 1 385 0
 679 0014 0020     		movs	r0, #0
 680              	.LVL78:
ARM GAS  C:\Users\Patryk\AppData\Local\Temp\ccUxqN1Z.s 			page 20


 681 0016 FCE7     		b	.L68
 682              	.LVL79:
 683              	.L70:
 391:Src/usbh_conf.c ****     break;
 684              		.loc 1 391 0
 685 0018 0120     		movs	r0, #1
 686              	.LVL80:
 392:Src/usbh_conf.c ****     case HAL_TIMEOUT :
 687              		.loc 1 392 0
 688 001a FAE7     		b	.L68
 689              		.cfi_endproc
 690              	.LFE156:
 692              		.section	.text.USBH_LL_GetLastXferSize,"ax",%progbits
 693              		.align	1
 694              		.global	USBH_LL_GetLastXferSize
 695              		.syntax unified
 696              		.thumb
 697              		.thumb_func
 698              		.fpu fpv5-sp-d16
 700              	USBH_LL_GetLastXferSize:
 701              	.LFB157:
 402:Src/usbh_conf.c **** 
 403:Src/usbh_conf.c **** /**
 404:Src/usbh_conf.c ****   * @brief  Return the last transfered packet size.
 405:Src/usbh_conf.c ****   * @param  phost: Host handle
 406:Src/usbh_conf.c ****   * @param  pipe: Pipe index
 407:Src/usbh_conf.c ****   * @retval Packet size
 408:Src/usbh_conf.c ****   */
 409:Src/usbh_conf.c **** uint32_t USBH_LL_GetLastXferSize(USBH_HandleTypeDef *phost, uint8_t pipe)
 410:Src/usbh_conf.c **** {
 702              		.loc 1 410 0
 703              		.cfi_startproc
 704              		@ args = 0, pretend = 0, frame = 0
 705              		@ frame_needed = 0, uses_anonymous_args = 0
 706              	.LVL81:
 707 0000 08B5     		push	{r3, lr}
 708              	.LCFI16:
 709              		.cfi_def_cfa_offset 8
 710              		.cfi_offset 3, -8
 711              		.cfi_offset 14, -4
 411:Src/usbh_conf.c ****   return HAL_HCD_HC_GetXferCount(phost->pData, pipe);
 712              		.loc 1 411 0
 713 0002 D0F8C403 		ldr	r0, [r0, #964]
 714              	.LVL82:
 715 0006 FFF7FEFF 		bl	HAL_HCD_HC_GetXferCount
 716              	.LVL83:
 412:Src/usbh_conf.c **** }
 717              		.loc 1 412 0
 718 000a 08BD     		pop	{r3, pc}
 719              		.cfi_endproc
 720              	.LFE157:
 722              		.section	.text.USBH_LL_OpenPipe,"ax",%progbits
 723              		.align	1
 724              		.global	USBH_LL_OpenPipe
 725              		.syntax unified
 726              		.thumb
 727              		.thumb_func
ARM GAS  C:\Users\Patryk\AppData\Local\Temp\ccUxqN1Z.s 			page 21


 728              		.fpu fpv5-sp-d16
 730              	USBH_LL_OpenPipe:
 731              	.LFB158:
 413:Src/usbh_conf.c **** 
 414:Src/usbh_conf.c **** /**
 415:Src/usbh_conf.c ****   * @brief  Open a pipe of the low level driver.
 416:Src/usbh_conf.c ****   * @param  phost: Host handle
 417:Src/usbh_conf.c ****   * @param  pipe_num: Pipe index
 418:Src/usbh_conf.c ****   * @param  epnum: Endpoint number
 419:Src/usbh_conf.c ****   * @param  dev_address: Device USB address
 420:Src/usbh_conf.c ****   * @param  speed: Device Speed
 421:Src/usbh_conf.c ****   * @param  ep_type: Endpoint type
 422:Src/usbh_conf.c ****   * @param  mps: Endpoint max packet size
 423:Src/usbh_conf.c ****   * @retval USBH status
 424:Src/usbh_conf.c ****   */
 425:Src/usbh_conf.c **** USBH_StatusTypeDef USBH_LL_OpenPipe(USBH_HandleTypeDef *phost, uint8_t pipe_num, uint8_t epnum,
 426:Src/usbh_conf.c ****                                     uint8_t dev_address, uint8_t speed, uint8_t ep_type, uint16_t m
 427:Src/usbh_conf.c **** {
 732              		.loc 1 427 0
 733              		.cfi_startproc
 734              		@ args = 12, pretend = 0, frame = 0
 735              		@ frame_needed = 0, uses_anonymous_args = 0
 736              	.LVL84:
 737 0000 10B5     		push	{r4, lr}
 738              	.LCFI17:
 739              		.cfi_def_cfa_offset 8
 740              		.cfi_offset 4, -8
 741              		.cfi_offset 14, -4
 742 0002 84B0     		sub	sp, sp, #16
 743              	.LCFI18:
 744              		.cfi_def_cfa_offset 24
 745              	.LVL85:
 428:Src/usbh_conf.c ****   HAL_StatusTypeDef hal_status = HAL_OK;
 429:Src/usbh_conf.c ****   USBH_StatusTypeDef usb_status = USBH_OK;
 430:Src/usbh_conf.c **** 
 431:Src/usbh_conf.c ****   hal_status = HAL_HCD_HC_Init(phost->pData, pipe_num, epnum,
 746              		.loc 1 431 0
 747 0004 D0F8C403 		ldr	r0, [r0, #964]
 748              	.LVL86:
 749 0008 BDF82040 		ldrh	r4, [sp, #32]
 750 000c 0294     		str	r4, [sp, #8]
 751 000e 9DF81C40 		ldrb	r4, [sp, #28]	@ zero_extendqisi2
 752 0012 0194     		str	r4, [sp, #4]
 753 0014 9DF81840 		ldrb	r4, [sp, #24]	@ zero_extendqisi2
 754 0018 0094     		str	r4, [sp]
 755 001a FFF7FEFF 		bl	HAL_HCD_HC_Init
 756              	.LVL87:
 432:Src/usbh_conf.c ****                                dev_address, speed, ep_type, mps);
 433:Src/usbh_conf.c **** 
 434:Src/usbh_conf.c ****   switch (hal_status) {
 757              		.loc 1 434 0
 758 001e 20B1     		cbz	r0, .L78
 759 0020 0228     		cmp	r0, #2
 760 0022 04D0     		beq	.L79
 435:Src/usbh_conf.c ****     case HAL_OK :
 436:Src/usbh_conf.c ****       usb_status = USBH_OK;
 437:Src/usbh_conf.c ****     break;
ARM GAS  C:\Users\Patryk\AppData\Local\Temp\ccUxqN1Z.s 			page 22


 438:Src/usbh_conf.c ****     case HAL_ERROR :
 439:Src/usbh_conf.c ****       usb_status = USBH_FAIL;
 761              		.loc 1 439 0
 762 0024 0220     		movs	r0, #2
 763              	.LVL88:
 764              	.L77:
 440:Src/usbh_conf.c ****     break;
 441:Src/usbh_conf.c ****     case HAL_BUSY :
 442:Src/usbh_conf.c ****       usb_status = USBH_BUSY;
 443:Src/usbh_conf.c ****     break;
 444:Src/usbh_conf.c ****     case HAL_TIMEOUT :
 445:Src/usbh_conf.c ****       usb_status = USBH_FAIL;
 446:Src/usbh_conf.c ****     break;
 447:Src/usbh_conf.c ****     default :
 448:Src/usbh_conf.c ****       usb_status = USBH_FAIL;
 449:Src/usbh_conf.c ****     break;
 450:Src/usbh_conf.c ****   }
 451:Src/usbh_conf.c ****   return usb_status;
 452:Src/usbh_conf.c **** }
 765              		.loc 1 452 0
 766 0026 04B0     		add	sp, sp, #16
 767              	.LCFI19:
 768              		.cfi_remember_state
 769              		.cfi_def_cfa_offset 8
 770              		@ sp needed
 771 0028 10BD     		pop	{r4, pc}
 772              	.LVL89:
 773              	.L78:
 774              	.LCFI20:
 775              		.cfi_restore_state
 436:Src/usbh_conf.c ****     break;
 776              		.loc 1 436 0
 777 002a 0020     		movs	r0, #0
 778              	.LVL90:
 779 002c FBE7     		b	.L77
 780              	.LVL91:
 781              	.L79:
 442:Src/usbh_conf.c ****     break;
 782              		.loc 1 442 0
 783 002e 0120     		movs	r0, #1
 784              	.LVL92:
 443:Src/usbh_conf.c ****     case HAL_TIMEOUT :
 785              		.loc 1 443 0
 786 0030 F9E7     		b	.L77
 787              		.cfi_endproc
 788              	.LFE158:
 790              		.section	.text.USBH_LL_ClosePipe,"ax",%progbits
 791              		.align	1
 792              		.global	USBH_LL_ClosePipe
 793              		.syntax unified
 794              		.thumb
 795              		.thumb_func
 796              		.fpu fpv5-sp-d16
 798              	USBH_LL_ClosePipe:
 799              	.LFB159:
 453:Src/usbh_conf.c **** 
 454:Src/usbh_conf.c **** /**
ARM GAS  C:\Users\Patryk\AppData\Local\Temp\ccUxqN1Z.s 			page 23


 455:Src/usbh_conf.c ****   * @brief  Close a pipe of the low level driver.
 456:Src/usbh_conf.c ****   * @param  phost: Host handle
 457:Src/usbh_conf.c ****   * @param  pipe: Pipe index
 458:Src/usbh_conf.c ****   * @retval USBH status
 459:Src/usbh_conf.c ****   */
 460:Src/usbh_conf.c **** USBH_StatusTypeDef USBH_LL_ClosePipe(USBH_HandleTypeDef *phost, uint8_t pipe)
 461:Src/usbh_conf.c **** {
 800              		.loc 1 461 0
 801              		.cfi_startproc
 802              		@ args = 0, pretend = 0, frame = 0
 803              		@ frame_needed = 0, uses_anonymous_args = 0
 804              	.LVL93:
 805 0000 08B5     		push	{r3, lr}
 806              	.LCFI21:
 807              		.cfi_def_cfa_offset 8
 808              		.cfi_offset 3, -8
 809              		.cfi_offset 14, -4
 810              	.LVL94:
 462:Src/usbh_conf.c ****   HAL_StatusTypeDef hal_status = HAL_OK;
 463:Src/usbh_conf.c ****   USBH_StatusTypeDef usb_status = USBH_OK;
 464:Src/usbh_conf.c **** 
 465:Src/usbh_conf.c ****   hal_status = HAL_HCD_HC_Halt(phost->pData, pipe);
 811              		.loc 1 465 0
 812 0002 D0F8C403 		ldr	r0, [r0, #964]
 813              	.LVL95:
 814 0006 FFF7FEFF 		bl	HAL_HCD_HC_Halt
 815              	.LVL96:
 466:Src/usbh_conf.c **** 
 467:Src/usbh_conf.c ****   switch (hal_status) {
 816              		.loc 1 467 0
 817 000a 18B1     		cbz	r0, .L85
 818 000c 0228     		cmp	r0, #2
 819 000e 03D0     		beq	.L86
 468:Src/usbh_conf.c ****     case HAL_OK :
 469:Src/usbh_conf.c ****       usb_status = USBH_OK;
 470:Src/usbh_conf.c ****     break;
 471:Src/usbh_conf.c ****     case HAL_ERROR :
 472:Src/usbh_conf.c ****       usb_status = USBH_FAIL;
 820              		.loc 1 472 0
 821 0010 0220     		movs	r0, #2
 822              	.LVL97:
 823              	.L84:
 473:Src/usbh_conf.c ****     break;
 474:Src/usbh_conf.c ****     case HAL_BUSY :
 475:Src/usbh_conf.c ****       usb_status = USBH_BUSY;
 476:Src/usbh_conf.c ****     break;
 477:Src/usbh_conf.c ****     case HAL_TIMEOUT :
 478:Src/usbh_conf.c ****       usb_status = USBH_FAIL;
 479:Src/usbh_conf.c ****     break;
 480:Src/usbh_conf.c ****     default :
 481:Src/usbh_conf.c ****       usb_status = USBH_FAIL;
 482:Src/usbh_conf.c ****     break;
 483:Src/usbh_conf.c ****   }
 484:Src/usbh_conf.c ****   return usb_status;
 485:Src/usbh_conf.c **** }
 824              		.loc 1 485 0
 825 0012 08BD     		pop	{r3, pc}
ARM GAS  C:\Users\Patryk\AppData\Local\Temp\ccUxqN1Z.s 			page 24


 826              	.LVL98:
 827              	.L85:
 469:Src/usbh_conf.c ****     break;
 828              		.loc 1 469 0
 829 0014 0020     		movs	r0, #0
 830              	.LVL99:
 831 0016 FCE7     		b	.L84
 832              	.LVL100:
 833              	.L86:
 475:Src/usbh_conf.c ****     break;
 834              		.loc 1 475 0
 835 0018 0120     		movs	r0, #1
 836              	.LVL101:
 476:Src/usbh_conf.c ****     case HAL_TIMEOUT :
 837              		.loc 1 476 0
 838 001a FAE7     		b	.L84
 839              		.cfi_endproc
 840              	.LFE159:
 842              		.section	.text.USBH_LL_SubmitURB,"ax",%progbits
 843              		.align	1
 844              		.global	USBH_LL_SubmitURB
 845              		.syntax unified
 846              		.thumb
 847              		.thumb_func
 848              		.fpu fpv5-sp-d16
 850              	USBH_LL_SubmitURB:
 851              	.LFB160:
 486:Src/usbh_conf.c **** 
 487:Src/usbh_conf.c **** /**
 488:Src/usbh_conf.c ****   * @brief  Submit a new URB to the low level driver.
 489:Src/usbh_conf.c ****   * @param  phost: Host handle
 490:Src/usbh_conf.c ****   * @param  pipe: Pipe index
 491:Src/usbh_conf.c ****   *         This parameter can be a value from 1 to 15
 492:Src/usbh_conf.c ****   * @param  direction : Channel number
 493:Src/usbh_conf.c ****   *          This parameter can be one of the these values:
 494:Src/usbh_conf.c ****   *           0 : Output
 495:Src/usbh_conf.c ****   *           1 : Input
 496:Src/usbh_conf.c ****   * @param  ep_type : Endpoint Type
 497:Src/usbh_conf.c ****   *          This parameter can be one of the these values:
 498:Src/usbh_conf.c ****   *            @arg EP_TYPE_CTRL: Control type
 499:Src/usbh_conf.c ****   *            @arg EP_TYPE_ISOC: Isochrounous type
 500:Src/usbh_conf.c ****   *            @arg EP_TYPE_BULK: Bulk type
 501:Src/usbh_conf.c ****   *            @arg EP_TYPE_INTR: Interrupt type
 502:Src/usbh_conf.c ****   * @param  token : Endpoint Type
 503:Src/usbh_conf.c ****   *          This parameter can be one of the these values:
 504:Src/usbh_conf.c ****   *            @arg 0: PID_SETUP
 505:Src/usbh_conf.c ****   *            @arg 1: PID_DATA
 506:Src/usbh_conf.c ****   * @param  pbuff : pointer to URB data
 507:Src/usbh_conf.c ****   * @param  length : Length of URB data
 508:Src/usbh_conf.c ****   * @param  do_ping : activate do ping protocol (for high speed only)
 509:Src/usbh_conf.c ****   *          This parameter can be one of the these values:
 510:Src/usbh_conf.c ****   *           0 : do ping inactive
 511:Src/usbh_conf.c ****   *           1 : do ping active
 512:Src/usbh_conf.c ****   * @retval Status
 513:Src/usbh_conf.c ****   */
 514:Src/usbh_conf.c **** USBH_StatusTypeDef USBH_LL_SubmitURB(USBH_HandleTypeDef *phost, uint8_t pipe, uint8_t direction,
 515:Src/usbh_conf.c ****                                      uint8_t ep_type, uint8_t token, uint8_t *pbuff, uint16_t lengt
ARM GAS  C:\Users\Patryk\AppData\Local\Temp\ccUxqN1Z.s 			page 25


 516:Src/usbh_conf.c ****                                      uint8_t do_ping)
 517:Src/usbh_conf.c **** {
 852              		.loc 1 517 0
 853              		.cfi_startproc
 854              		@ args = 16, pretend = 0, frame = 0
 855              		@ frame_needed = 0, uses_anonymous_args = 0
 856              	.LVL102:
 857 0000 10B5     		push	{r4, lr}
 858              	.LCFI22:
 859              		.cfi_def_cfa_offset 8
 860              		.cfi_offset 4, -8
 861              		.cfi_offset 14, -4
 862 0002 84B0     		sub	sp, sp, #16
 863              	.LCFI23:
 864              		.cfi_def_cfa_offset 24
 865              	.LVL103:
 518:Src/usbh_conf.c ****   HAL_StatusTypeDef hal_status = HAL_OK;
 519:Src/usbh_conf.c ****   USBH_StatusTypeDef usb_status = USBH_OK;
 520:Src/usbh_conf.c **** 
 521:Src/usbh_conf.c ****   hal_status = HAL_HCD_HC_SubmitRequest(phost->pData, pipe, direction ,
 866              		.loc 1 521 0
 867 0004 D0F8C403 		ldr	r0, [r0, #964]
 868              	.LVL104:
 869 0008 9DF82440 		ldrb	r4, [sp, #36]	@ zero_extendqisi2
 870 000c 0394     		str	r4, [sp, #12]
 871 000e BDF82040 		ldrh	r4, [sp, #32]
 872 0012 0294     		str	r4, [sp, #8]
 873 0014 079C     		ldr	r4, [sp, #28]
 874 0016 0194     		str	r4, [sp, #4]
 875 0018 9DF81840 		ldrb	r4, [sp, #24]	@ zero_extendqisi2
 876 001c 0094     		str	r4, [sp]
 877 001e FFF7FEFF 		bl	HAL_HCD_HC_SubmitRequest
 878              	.LVL105:
 522:Src/usbh_conf.c ****                                         ep_type, token, pbuff, length,
 523:Src/usbh_conf.c ****                                         do_ping);
 524:Src/usbh_conf.c **** 
 525:Src/usbh_conf.c ****   switch (hal_status) {
 879              		.loc 1 525 0
 880 0022 20B1     		cbz	r0, .L92
 881 0024 0228     		cmp	r0, #2
 882 0026 04D0     		beq	.L93
 526:Src/usbh_conf.c ****     case HAL_OK :
 527:Src/usbh_conf.c ****       usb_status = USBH_OK;
 528:Src/usbh_conf.c ****     break;
 529:Src/usbh_conf.c ****     case HAL_ERROR :
 530:Src/usbh_conf.c ****       usb_status = USBH_FAIL;
 883              		.loc 1 530 0
 884 0028 0220     		movs	r0, #2
 885              	.LVL106:
 886              	.L91:
 531:Src/usbh_conf.c ****     break;
 532:Src/usbh_conf.c ****     case HAL_BUSY :
 533:Src/usbh_conf.c ****       usb_status = USBH_BUSY;
 534:Src/usbh_conf.c ****     break;
 535:Src/usbh_conf.c ****     case HAL_TIMEOUT :
 536:Src/usbh_conf.c ****       usb_status = USBH_FAIL;
 537:Src/usbh_conf.c ****     break;
ARM GAS  C:\Users\Patryk\AppData\Local\Temp\ccUxqN1Z.s 			page 26


 538:Src/usbh_conf.c ****     default :
 539:Src/usbh_conf.c ****       usb_status = USBH_FAIL;
 540:Src/usbh_conf.c ****     break;
 541:Src/usbh_conf.c ****   }
 542:Src/usbh_conf.c ****   return usb_status;
 543:Src/usbh_conf.c **** }
 887              		.loc 1 543 0
 888 002a 04B0     		add	sp, sp, #16
 889              	.LCFI24:
 890              		.cfi_remember_state
 891              		.cfi_def_cfa_offset 8
 892              		@ sp needed
 893 002c 10BD     		pop	{r4, pc}
 894              	.LVL107:
 895              	.L92:
 896              	.LCFI25:
 897              		.cfi_restore_state
 527:Src/usbh_conf.c ****     break;
 898              		.loc 1 527 0
 899 002e 0020     		movs	r0, #0
 900              	.LVL108:
 901 0030 FBE7     		b	.L91
 902              	.LVL109:
 903              	.L93:
 533:Src/usbh_conf.c ****     break;
 904              		.loc 1 533 0
 905 0032 0120     		movs	r0, #1
 906              	.LVL110:
 534:Src/usbh_conf.c ****     case HAL_TIMEOUT :
 907              		.loc 1 534 0
 908 0034 F9E7     		b	.L91
 909              		.cfi_endproc
 910              	.LFE160:
 912              		.section	.text.USBH_LL_GetURBState,"ax",%progbits
 913              		.align	1
 914              		.global	USBH_LL_GetURBState
 915              		.syntax unified
 916              		.thumb
 917              		.thumb_func
 918              		.fpu fpv5-sp-d16
 920              	USBH_LL_GetURBState:
 921              	.LFB161:
 544:Src/usbh_conf.c **** 
 545:Src/usbh_conf.c **** /**
 546:Src/usbh_conf.c ****   * @brief  Get a URB state from the low level driver.
 547:Src/usbh_conf.c ****   * @param  phost: Host handle
 548:Src/usbh_conf.c ****   * @param  pipe: Pipe index
 549:Src/usbh_conf.c ****   *         This parameter can be a value from 1 to 15
 550:Src/usbh_conf.c ****   * @retval URB state
 551:Src/usbh_conf.c ****   *          This parameter can be one of the these values:
 552:Src/usbh_conf.c ****   *            @arg URB_IDLE
 553:Src/usbh_conf.c ****   *            @arg URB_DONE
 554:Src/usbh_conf.c ****   *            @arg URB_NOTREADY
 555:Src/usbh_conf.c ****   *            @arg URB_NYET
 556:Src/usbh_conf.c ****   *            @arg URB_ERROR
 557:Src/usbh_conf.c ****   *            @arg URB_STALL
 558:Src/usbh_conf.c ****   */
ARM GAS  C:\Users\Patryk\AppData\Local\Temp\ccUxqN1Z.s 			page 27


 559:Src/usbh_conf.c **** USBH_URBStateTypeDef USBH_LL_GetURBState(USBH_HandleTypeDef *phost, uint8_t pipe)
 560:Src/usbh_conf.c **** {
 922              		.loc 1 560 0
 923              		.cfi_startproc
 924              		@ args = 0, pretend = 0, frame = 0
 925              		@ frame_needed = 0, uses_anonymous_args = 0
 926              	.LVL111:
 927 0000 08B5     		push	{r3, lr}
 928              	.LCFI26:
 929              		.cfi_def_cfa_offset 8
 930              		.cfi_offset 3, -8
 931              		.cfi_offset 14, -4
 561:Src/usbh_conf.c ****   return (USBH_URBStateTypeDef)HAL_HCD_HC_GetURBState (phost->pData, pipe);
 932              		.loc 1 561 0
 933 0002 D0F8C403 		ldr	r0, [r0, #964]
 934              	.LVL112:
 935 0006 FFF7FEFF 		bl	HAL_HCD_HC_GetURBState
 936              	.LVL113:
 562:Src/usbh_conf.c **** }
 937              		.loc 1 562 0
 938 000a 08BD     		pop	{r3, pc}
 939              		.cfi_endproc
 940              	.LFE161:
 942              		.section	.text.USBH_LL_DriverVBUS,"ax",%progbits
 943              		.align	1
 944              		.global	USBH_LL_DriverVBUS
 945              		.syntax unified
 946              		.thumb
 947              		.thumb_func
 948              		.fpu fpv5-sp-d16
 950              	USBH_LL_DriverVBUS:
 951              	.LFB162:
 563:Src/usbh_conf.c **** 
 564:Src/usbh_conf.c **** /**
 565:Src/usbh_conf.c ****   * @brief  Drive VBUS.
 566:Src/usbh_conf.c ****   * @param  phost: Host handle
 567:Src/usbh_conf.c ****   * @param  state : VBUS state
 568:Src/usbh_conf.c ****   *          This parameter can be one of the these values:
 569:Src/usbh_conf.c ****   *           0 : VBUS Active
 570:Src/usbh_conf.c ****   *           1 : VBUS Inactive
 571:Src/usbh_conf.c ****   * @retval Status
 572:Src/usbh_conf.c ****   */
 573:Src/usbh_conf.c **** USBH_StatusTypeDef USBH_LL_DriverVBUS(USBH_HandleTypeDef *phost, uint8_t state)
 574:Src/usbh_conf.c **** {
 952              		.loc 1 574 0
 953              		.cfi_startproc
 954              		@ args = 0, pretend = 0, frame = 0
 955              		@ frame_needed = 0, uses_anonymous_args = 0
 956              	.LVL114:
 957 0000 08B5     		push	{r3, lr}
 958              	.LCFI27:
 959              		.cfi_def_cfa_offset 8
 960              		.cfi_offset 3, -8
 961              		.cfi_offset 14, -4
 575:Src/usbh_conf.c ****   if (phost->id == HOST_FS) {
 962              		.loc 1 575 0
 963 0002 90F8C033 		ldrb	r3, [r0, #960]	@ zero_extendqisi2
ARM GAS  C:\Users\Patryk\AppData\Local\Temp\ccUxqN1Z.s 			page 28


 964 0006 012B     		cmp	r3, #1
 965 0008 04D0     		beq	.L102
 966              	.LVL115:
 967              	.L100:
 576:Src/usbh_conf.c ****     MX_DriverVbusFS(state);
 577:Src/usbh_conf.c ****   }
 578:Src/usbh_conf.c **** 
 579:Src/usbh_conf.c ****   /* USER CODE BEGIN 0 */
 580:Src/usbh_conf.c **** 
 581:Src/usbh_conf.c ****   /* USER CODE END 0*/
 582:Src/usbh_conf.c **** 
 583:Src/usbh_conf.c ****   HAL_Delay(200);
 968              		.loc 1 583 0
 969 000a C820     		movs	r0, #200
 970 000c FFF7FEFF 		bl	HAL_Delay
 971              	.LVL116:
 584:Src/usbh_conf.c ****   return USBH_OK;
 585:Src/usbh_conf.c **** }
 972              		.loc 1 585 0
 973 0010 0020     		movs	r0, #0
 974 0012 08BD     		pop	{r3, pc}
 975              	.LVL117:
 976              	.L102:
 576:Src/usbh_conf.c ****     MX_DriverVbusFS(state);
 977              		.loc 1 576 0
 978 0014 0846     		mov	r0, r1
 979              	.LVL118:
 980 0016 FFF7FEFF 		bl	MX_DriverVbusFS
 981              	.LVL119:
 982 001a F6E7     		b	.L100
 983              		.cfi_endproc
 984              	.LFE162:
 986              		.section	.text.USBH_LL_SetToggle,"ax",%progbits
 987              		.align	1
 988              		.global	USBH_LL_SetToggle
 989              		.syntax unified
 990              		.thumb
 991              		.thumb_func
 992              		.fpu fpv5-sp-d16
 994              	USBH_LL_SetToggle:
 995              	.LFB163:
 586:Src/usbh_conf.c **** 
 587:Src/usbh_conf.c **** /**
 588:Src/usbh_conf.c ****   * @brief  Set toggle for a pipe.
 589:Src/usbh_conf.c ****   * @param  phost: Host handle
 590:Src/usbh_conf.c ****   * @param  pipe: Pipe index
 591:Src/usbh_conf.c ****   * @param  toggle: toggle (0/1)
 592:Src/usbh_conf.c ****   * @retval Status
 593:Src/usbh_conf.c ****   */
 594:Src/usbh_conf.c **** USBH_StatusTypeDef USBH_LL_SetToggle(USBH_HandleTypeDef *phost, uint8_t pipe, uint8_t toggle)
 595:Src/usbh_conf.c **** {
 996              		.loc 1 595 0
 997              		.cfi_startproc
 998              		@ args = 0, pretend = 0, frame = 0
 999              		@ frame_needed = 0, uses_anonymous_args = 0
 1000              		@ link register save eliminated.
 1001              	.LVL120:
ARM GAS  C:\Users\Patryk\AppData\Local\Temp\ccUxqN1Z.s 			page 29


 1002 0000 10B4     		push	{r4}
 1003              	.LCFI28:
 1004              		.cfi_def_cfa_offset 4
 1005              		.cfi_offset 4, -4
 596:Src/usbh_conf.c ****   HCD_HandleTypeDef *pHandle;
 597:Src/usbh_conf.c ****   pHandle = phost->pData;
 1006              		.loc 1 597 0
 1007 0002 D0F8C433 		ldr	r3, [r0, #964]
 1008              	.LVL121:
 598:Src/usbh_conf.c **** 
 599:Src/usbh_conf.c ****   if(pHandle->hc[pipe].ep_is_in)
 1009              		.loc 1 599 0
 1010 0006 01EB8104 		add	r4, r1, r1, lsl #2
 1011 000a E000     		lsls	r0, r4, #3
 1012              	.LVL122:
 1013 000c 0446     		mov	r4, r0
 1014 000e 1844     		add	r0, r0, r3
 1015 0010 90F83B00 		ldrb	r0, [r0, #59]	@ zero_extendqisi2
 1016 0014 48B9     		cbnz	r0, .L107
 600:Src/usbh_conf.c ****   {
 601:Src/usbh_conf.c ****     pHandle->hc[pipe].toggle_in = toggle;
 602:Src/usbh_conf.c ****   }
 603:Src/usbh_conf.c ****   else
 604:Src/usbh_conf.c ****   {
 605:Src/usbh_conf.c ****     pHandle->hc[pipe].toggle_out = toggle;
 1017              		.loc 1 605 0
 1018 0016 01EB8101 		add	r1, r1, r1, lsl #2
 1019              	.LVL123:
 1020 001a C800     		lsls	r0, r1, #3
 1021 001c 0344     		add	r3, r3, r0
 1022              	.LVL124:
 1023 001e 83F85120 		strb	r2, [r3, #81]
 1024              	.LVL125:
 1025              	.L105:
 606:Src/usbh_conf.c ****   }
 607:Src/usbh_conf.c **** 
 608:Src/usbh_conf.c ****   return USBH_OK;
 609:Src/usbh_conf.c **** }
 1026              		.loc 1 609 0
 1027 0022 0020     		movs	r0, #0
 1028 0024 5DF8044B 		ldr	r4, [sp], #4
 1029              	.LCFI29:
 1030              		.cfi_remember_state
 1031              		.cfi_restore 4
 1032              		.cfi_def_cfa_offset 0
 1033 0028 7047     		bx	lr
 1034              	.LVL126:
 1035              	.L107:
 1036              	.LCFI30:
 1037              		.cfi_restore_state
 601:Src/usbh_conf.c ****   }
 1038              		.loc 1 601 0
 1039 002a 2344     		add	r3, r3, r4
 1040              	.LVL127:
 1041 002c 83F85020 		strb	r2, [r3, #80]
 1042              	.LVL128:
 1043 0030 F7E7     		b	.L105
ARM GAS  C:\Users\Patryk\AppData\Local\Temp\ccUxqN1Z.s 			page 30


 1044              		.cfi_endproc
 1045              	.LFE163:
 1047              		.section	.text.USBH_LL_GetToggle,"ax",%progbits
 1048              		.align	1
 1049              		.global	USBH_LL_GetToggle
 1050              		.syntax unified
 1051              		.thumb
 1052              		.thumb_func
 1053              		.fpu fpv5-sp-d16
 1055              	USBH_LL_GetToggle:
 1056              	.LFB164:
 610:Src/usbh_conf.c **** 
 611:Src/usbh_conf.c **** /**
 612:Src/usbh_conf.c ****   * @brief  Return the current toggle of a pipe.
 613:Src/usbh_conf.c ****   * @param  phost: Host handle
 614:Src/usbh_conf.c ****   * @param  pipe: Pipe index
 615:Src/usbh_conf.c ****   * @retval toggle (0/1)
 616:Src/usbh_conf.c ****   */
 617:Src/usbh_conf.c **** uint8_t USBH_LL_GetToggle(USBH_HandleTypeDef *phost, uint8_t pipe)
 618:Src/usbh_conf.c **** {
 1057              		.loc 1 618 0
 1058              		.cfi_startproc
 1059              		@ args = 0, pretend = 0, frame = 0
 1060              		@ frame_needed = 0, uses_anonymous_args = 0
 1061              		@ link register save eliminated.
 1062              	.LVL129:
 619:Src/usbh_conf.c ****   uint8_t toggle = 0;
 620:Src/usbh_conf.c ****   HCD_HandleTypeDef *pHandle;
 621:Src/usbh_conf.c ****   pHandle = phost->pData;
 1063              		.loc 1 621 0
 1064 0000 D0F8C433 		ldr	r3, [r0, #964]
 1065              	.LVL130:
 622:Src/usbh_conf.c **** 
 623:Src/usbh_conf.c ****   if(pHandle->hc[pipe].ep_is_in)
 1066              		.loc 1 623 0
 1067 0004 01EB8100 		add	r0, r1, r1, lsl #2
 1068              	.LVL131:
 1069 0008 C200     		lsls	r2, r0, #3
 1070 000a 1046     		mov	r0, r2
 1071 000c 1A44     		add	r2, r2, r3
 1072 000e 92F83B20 		ldrb	r2, [r2, #59]	@ zero_extendqisi2
 1073 0012 32B9     		cbnz	r2, .L111
 624:Src/usbh_conf.c ****   {
 625:Src/usbh_conf.c ****     toggle = pHandle->hc[pipe].toggle_in;
 626:Src/usbh_conf.c ****   }
 627:Src/usbh_conf.c ****   else
 628:Src/usbh_conf.c ****   {
 629:Src/usbh_conf.c ****     toggle = pHandle->hc[pipe].toggle_out;
 1074              		.loc 1 629 0
 1075 0014 01EB8101 		add	r1, r1, r1, lsl #2
 1076              	.LVL132:
 1077 0018 CA00     		lsls	r2, r1, #3
 1078 001a 1344     		add	r3, r3, r2
 1079              	.LVL133:
 1080 001c 93F85100 		ldrb	r0, [r3, #81]	@ zero_extendqisi2
 1081              	.LVL134:
 630:Src/usbh_conf.c ****   }
ARM GAS  C:\Users\Patryk\AppData\Local\Temp\ccUxqN1Z.s 			page 31


 631:Src/usbh_conf.c ****   return toggle;
 632:Src/usbh_conf.c **** }
 1082              		.loc 1 632 0
 1083 0020 7047     		bx	lr
 1084              	.LVL135:
 1085              	.L111:
 625:Src/usbh_conf.c ****   }
 1086              		.loc 1 625 0
 1087 0022 0344     		add	r3, r3, r0
 1088              	.LVL136:
 1089 0024 93F85000 		ldrb	r0, [r3, #80]	@ zero_extendqisi2
 1090              	.LVL137:
 1091 0028 7047     		bx	lr
 1092              		.cfi_endproc
 1093              	.LFE164:
 1095              		.section	.text.USBH_Delay,"ax",%progbits
 1096              		.align	1
 1097              		.global	USBH_Delay
 1098              		.syntax unified
 1099              		.thumb
 1100              		.thumb_func
 1101              		.fpu fpv5-sp-d16
 1103              	USBH_Delay:
 1104              	.LFB165:
 633:Src/usbh_conf.c **** 
 634:Src/usbh_conf.c **** /**
 635:Src/usbh_conf.c ****   * @brief  Delay routine for the USB Host Library
 636:Src/usbh_conf.c ****   * @param  Delay: Delay in ms
 637:Src/usbh_conf.c ****   * @retval None
 638:Src/usbh_conf.c ****   */
 639:Src/usbh_conf.c **** void USBH_Delay(uint32_t Delay)
 640:Src/usbh_conf.c **** {
 1105              		.loc 1 640 0
 1106              		.cfi_startproc
 1107              		@ args = 0, pretend = 0, frame = 0
 1108              		@ frame_needed = 0, uses_anonymous_args = 0
 1109              	.LVL138:
 1110 0000 08B5     		push	{r3, lr}
 1111              	.LCFI31:
 1112              		.cfi_def_cfa_offset 8
 1113              		.cfi_offset 3, -8
 1114              		.cfi_offset 14, -4
 641:Src/usbh_conf.c ****   HAL_Delay(Delay);
 1115              		.loc 1 641 0
 1116 0002 FFF7FEFF 		bl	HAL_Delay
 1117              	.LVL139:
 642:Src/usbh_conf.c **** }
 1118              		.loc 1 642 0
 1119 0006 08BD     		pop	{r3, pc}
 1120              		.cfi_endproc
 1121              	.LFE165:
 1123              		.comm	hhcd_USB_OTG_FS,704,4
 1124              		.section	.rodata.USBH_LL_Init.str1.4,"aMS",%progbits,1
 1125              		.align	2
 1126              	.LC0:
 1127 0000 5372632F 		.ascii	"Src/usbh_conf.c\000"
 1127      75736268 
ARM GAS  C:\Users\Patryk\AppData\Local\Temp\ccUxqN1Z.s 			page 32


 1127      5F636F6E 
 1127      662E6300 
 1128              		.text
 1129              	.Letext0:
 1130              		.file 2 "c:\\program files (x86)\\gnu\\7_2018-q2-update\\arm-none-eabi\\include\\machine\\_default
 1131              		.file 3 "c:\\program files (x86)\\gnu\\7_2018-q2-update\\arm-none-eabi\\include\\sys\\lock.h"
 1132              		.file 4 "c:\\program files (x86)\\gnu\\7_2018-q2-update\\arm-none-eabi\\include\\sys\\_types.h"
 1133              		.file 5 "c:\\program files (x86)\\gnu\\7_2018-q2-update\\lib\\gcc\\arm-none-eabi\\7.3.1\\include\\
 1134              		.file 6 "c:\\program files (x86)\\gnu\\7_2018-q2-update\\arm-none-eabi\\include\\sys\\reent.h"
 1135              		.file 7 "c:\\program files (x86)\\gnu\\7_2018-q2-update\\arm-none-eabi\\include\\sys\\_stdint.h"
 1136              		.file 8 "c:\\program files (x86)\\gnu\\7_2018-q2-update\\arm-none-eabi\\include\\stdlib.h"
 1137              		.file 9 "Drivers/CMSIS/Include/core_cm7.h"
 1138              		.file 10 "Drivers/CMSIS/Device/ST/STM32F7xx/Include/system_stm32f7xx.h"
 1139              		.file 11 "Drivers/CMSIS/Device/ST/STM32F7xx/Include/stm32f746xx.h"
 1140              		.file 12 "Drivers/CMSIS/Device/ST/STM32F7xx/Include/stm32f7xx.h"
 1141              		.file 13 "Drivers/STM32F7xx_HAL_Driver/Inc/stm32f7xx_hal_def.h"
 1142              		.file 14 "Drivers/STM32F7xx_HAL_Driver/Inc/stm32f7xx_hal_gpio.h"
 1143              		.file 15 "Drivers/STM32F7xx_HAL_Driver/Inc/stm32f7xx_ll_usb.h"
 1144              		.file 16 "Drivers/STM32F7xx_HAL_Driver/Inc/stm32f7xx_hal_hcd.h"
 1145              		.file 17 "Middlewares/Third_Party/FreeRTOS/Source/include/task.h"
 1146              		.file 18 "Middlewares/Third_Party/FreeRTOS/Source/include/queue.h"
 1147              		.file 19 "Middlewares/Third_Party/FreeRTOS/Source/CMSIS_RTOS/cmsis_os.h"
 1148              		.file 20 "Middlewares/ST/STM32_USB_Host_Library/Core/Inc/usbh_def.h"
 1149              		.file 21 "Middlewares/ST/STM32_USB_Host_Library/Core/Inc/usbh_ctlreq.h"
 1150              		.file 22 "Drivers/STM32F7xx_HAL_Driver/Inc/stm32f7xx_hal.h"
 1151              		.file 23 "Inc/usbh_platform.h"
 1152              		.file 24 "Middlewares/ST/STM32_USB_Host_Library/Core/Inc/usbh_core.h"
 1153              		.file 25 "Drivers/STM32F7xx_HAL_Driver/Inc/stm32f7xx_hal_cortex.h"
ARM GAS  C:\Users\Patryk\AppData\Local\Temp\ccUxqN1Z.s 			page 33


DEFINED SYMBOLS
                            *ABS*:00000000 usbh_conf.c
C:\Users\Patryk\AppData\Local\Temp\ccUxqN1Z.s:18     .text.HAL_HCD_MspInit:00000000 $t
C:\Users\Patryk\AppData\Local\Temp\ccUxqN1Z.s:25     .text.HAL_HCD_MspInit:00000000 HAL_HCD_MspInit
C:\Users\Patryk\AppData\Local\Temp\ccUxqN1Z.s:108    .text.HAL_HCD_MspInit:00000068 $d
C:\Users\Patryk\AppData\Local\Temp\ccUxqN1Z.s:114    .text.HAL_HCD_MspDeInit:00000000 $t
C:\Users\Patryk\AppData\Local\Temp\ccUxqN1Z.s:121    .text.HAL_HCD_MspDeInit:00000000 HAL_HCD_MspDeInit
C:\Users\Patryk\AppData\Local\Temp\ccUxqN1Z.s:163    .text.HAL_HCD_MspDeInit:00000028 $d
C:\Users\Patryk\AppData\Local\Temp\ccUxqN1Z.s:169    .text.HAL_HCD_SOF_Callback:00000000 $t
C:\Users\Patryk\AppData\Local\Temp\ccUxqN1Z.s:176    .text.HAL_HCD_SOF_Callback:00000000 HAL_HCD_SOF_Callback
C:\Users\Patryk\AppData\Local\Temp\ccUxqN1Z.s:199    .text.HAL_HCD_Connect_Callback:00000000 $t
C:\Users\Patryk\AppData\Local\Temp\ccUxqN1Z.s:206    .text.HAL_HCD_Connect_Callback:00000000 HAL_HCD_Connect_Callback
C:\Users\Patryk\AppData\Local\Temp\ccUxqN1Z.s:229    .text.HAL_HCD_Disconnect_Callback:00000000 $t
C:\Users\Patryk\AppData\Local\Temp\ccUxqN1Z.s:236    .text.HAL_HCD_Disconnect_Callback:00000000 HAL_HCD_Disconnect_Callback
C:\Users\Patryk\AppData\Local\Temp\ccUxqN1Z.s:259    .text.HAL_HCD_HC_NotifyURBChange_Callback:00000000 $t
C:\Users\Patryk\AppData\Local\Temp\ccUxqN1Z.s:266    .text.HAL_HCD_HC_NotifyURBChange_Callback:00000000 HAL_HCD_HC_NotifyURBChange_Callback
C:\Users\Patryk\AppData\Local\Temp\ccUxqN1Z.s:289    .text.HAL_HCD_PortEnabled_Callback:00000000 $t
C:\Users\Patryk\AppData\Local\Temp\ccUxqN1Z.s:296    .text.HAL_HCD_PortEnabled_Callback:00000000 HAL_HCD_PortEnabled_Callback
C:\Users\Patryk\AppData\Local\Temp\ccUxqN1Z.s:319    .text.HAL_HCD_PortDisabled_Callback:00000000 $t
C:\Users\Patryk\AppData\Local\Temp\ccUxqN1Z.s:326    .text.HAL_HCD_PortDisabled_Callback:00000000 HAL_HCD_PortDisabled_Callback
C:\Users\Patryk\AppData\Local\Temp\ccUxqN1Z.s:349    .text.USBH_LL_Init:00000000 $t
C:\Users\Patryk\AppData\Local\Temp\ccUxqN1Z.s:356    .text.USBH_LL_Init:00000000 USBH_LL_Init
C:\Users\Patryk\AppData\Local\Temp\ccUxqN1Z.s:430    .text.USBH_LL_Init:00000054 $d
                            *COM*:000002c0 hhcd_USB_OTG_FS
C:\Users\Patryk\AppData\Local\Temp\ccUxqN1Z.s:436    .text.USBH_LL_DeInit:00000000 $t
C:\Users\Patryk\AppData\Local\Temp\ccUxqN1Z.s:443    .text.USBH_LL_DeInit:00000000 USBH_LL_DeInit
C:\Users\Patryk\AppData\Local\Temp\ccUxqN1Z.s:488    .text.USBH_LL_Start:00000000 $t
C:\Users\Patryk\AppData\Local\Temp\ccUxqN1Z.s:495    .text.USBH_LL_Start:00000000 USBH_LL_Start
C:\Users\Patryk\AppData\Local\Temp\ccUxqN1Z.s:540    .text.USBH_LL_Stop:00000000 $t
C:\Users\Patryk\AppData\Local\Temp\ccUxqN1Z.s:547    .text.USBH_LL_Stop:00000000 USBH_LL_Stop
C:\Users\Patryk\AppData\Local\Temp\ccUxqN1Z.s:592    .text.USBH_LL_GetSpeed:00000000 $t
C:\Users\Patryk\AppData\Local\Temp\ccUxqN1Z.s:599    .text.USBH_LL_GetSpeed:00000000 USBH_LL_GetSpeed
C:\Users\Patryk\AppData\Local\Temp\ccUxqN1Z.s:641    .text.USBH_LL_ResetPort:00000000 $t
C:\Users\Patryk\AppData\Local\Temp\ccUxqN1Z.s:648    .text.USBH_LL_ResetPort:00000000 USBH_LL_ResetPort
C:\Users\Patryk\AppData\Local\Temp\ccUxqN1Z.s:693    .text.USBH_LL_GetLastXferSize:00000000 $t
C:\Users\Patryk\AppData\Local\Temp\ccUxqN1Z.s:700    .text.USBH_LL_GetLastXferSize:00000000 USBH_LL_GetLastXferSize
C:\Users\Patryk\AppData\Local\Temp\ccUxqN1Z.s:723    .text.USBH_LL_OpenPipe:00000000 $t
C:\Users\Patryk\AppData\Local\Temp\ccUxqN1Z.s:730    .text.USBH_LL_OpenPipe:00000000 USBH_LL_OpenPipe
C:\Users\Patryk\AppData\Local\Temp\ccUxqN1Z.s:791    .text.USBH_LL_ClosePipe:00000000 $t
C:\Users\Patryk\AppData\Local\Temp\ccUxqN1Z.s:798    .text.USBH_LL_ClosePipe:00000000 USBH_LL_ClosePipe
C:\Users\Patryk\AppData\Local\Temp\ccUxqN1Z.s:843    .text.USBH_LL_SubmitURB:00000000 $t
C:\Users\Patryk\AppData\Local\Temp\ccUxqN1Z.s:850    .text.USBH_LL_SubmitURB:00000000 USBH_LL_SubmitURB
C:\Users\Patryk\AppData\Local\Temp\ccUxqN1Z.s:913    .text.USBH_LL_GetURBState:00000000 $t
C:\Users\Patryk\AppData\Local\Temp\ccUxqN1Z.s:920    .text.USBH_LL_GetURBState:00000000 USBH_LL_GetURBState
C:\Users\Patryk\AppData\Local\Temp\ccUxqN1Z.s:943    .text.USBH_LL_DriverVBUS:00000000 $t
C:\Users\Patryk\AppData\Local\Temp\ccUxqN1Z.s:950    .text.USBH_LL_DriverVBUS:00000000 USBH_LL_DriverVBUS
C:\Users\Patryk\AppData\Local\Temp\ccUxqN1Z.s:987    .text.USBH_LL_SetToggle:00000000 $t
C:\Users\Patryk\AppData\Local\Temp\ccUxqN1Z.s:994    .text.USBH_LL_SetToggle:00000000 USBH_LL_SetToggle
C:\Users\Patryk\AppData\Local\Temp\ccUxqN1Z.s:1048   .text.USBH_LL_GetToggle:00000000 $t
C:\Users\Patryk\AppData\Local\Temp\ccUxqN1Z.s:1055   .text.USBH_LL_GetToggle:00000000 USBH_LL_GetToggle
C:\Users\Patryk\AppData\Local\Temp\ccUxqN1Z.s:1096   .text.USBH_Delay:00000000 $t
C:\Users\Patryk\AppData\Local\Temp\ccUxqN1Z.s:1103   .text.USBH_Delay:00000000 USBH_Delay
C:\Users\Patryk\AppData\Local\Temp\ccUxqN1Z.s:1125   .rodata.USBH_LL_Init.str1.4:00000000 $d

UNDEFINED SYMBOLS
HAL_GPIO_Init
HAL_NVIC_SetPriority
ARM GAS  C:\Users\Patryk\AppData\Local\Temp\ccUxqN1Z.s 			page 34


HAL_NVIC_EnableIRQ
HAL_GPIO_DeInit
HAL_NVIC_DisableIRQ
USBH_LL_IncTimer
USBH_LL_Connect
USBH_LL_Disconnect
USBH_LL_NotifyURBChange
USBH_LL_PortEnabled
USBH_LL_PortDisabled
HAL_HCD_Init
HAL_HCD_GetCurrentFrame
USBH_LL_SetTimer
_Error_Handler
HAL_HCD_DeInit
HAL_HCD_Start
HAL_HCD_Stop
HAL_HCD_GetCurrentSpeed
HAL_HCD_ResetPort
HAL_HCD_HC_GetXferCount
HAL_HCD_HC_Init
HAL_HCD_HC_Halt
HAL_HCD_HC_SubmitRequest
HAL_HCD_HC_GetURBState
HAL_Delay
MX_DriverVbusFS
