ARM GAS  C:\Users\milek\AppData\Local\Temp\ccFvy4fj.s 			page 1


   1              		.cpu cortex-m7
   2              		.eabi_attribute 27, 1
   3              		.eabi_attribute 28, 1
   4              		.eabi_attribute 20, 1
   5              		.eabi_attribute 21, 1
   6              		.eabi_attribute 23, 3
   7              		.eabi_attribute 24, 1
   8              		.eabi_attribute 25, 1
   9              		.eabi_attribute 26, 1
  10              		.eabi_attribute 30, 1
  11              		.eabi_attribute 34, 1
  12              		.eabi_attribute 18, 4
  13              		.file	"usbh_diskio.c"
  14              		.text
  15              	.Ltext0:
  16              		.cfi_sections	.debug_frame
  17              		.section	.text.USBH_initialize,"ax",%progbits
  18              		.align	1
  19              		.global	USBH_initialize
  20              		.syntax unified
  21              		.thumb
  22              		.thumb_func
  23              		.fpu fpv5-sp-d16
  25              	USBH_initialize:
  26              	.LFB143:
  27              		.file 1 "Src/usbh_diskio.c"
   1:Src/usbh_diskio.c **** /**
   2:Src/usbh_diskio.c ****   ******************************************************************************
   3:Src/usbh_diskio.c ****   * @file    usbh_diskio.c (based on usbh_diskio_template.c v2.0.2)
   4:Src/usbh_diskio.c ****   * @brief   USB Host Disk I/O driver
   5:Src/usbh_diskio.c ****   ******************************************************************************
   6:Src/usbh_diskio.c ****   * This notice applies to any and all portions of this file
   7:Src/usbh_diskio.c ****   * that are not between comment pairs USER CODE BEGIN and
   8:Src/usbh_diskio.c ****   * USER CODE END. Other portions of this file, whether 
   9:Src/usbh_diskio.c ****   * inserted by the user or by software development tools
  10:Src/usbh_diskio.c ****   * are owned by their respective copyright owners.
  11:Src/usbh_diskio.c ****   *
  12:Src/usbh_diskio.c ****   * Copyright (c) 2018 STMicroelectronics International N.V. 
  13:Src/usbh_diskio.c ****   * All rights reserved.
  14:Src/usbh_diskio.c ****   *
  15:Src/usbh_diskio.c ****   * Redistribution and use in source and binary forms, with or without 
  16:Src/usbh_diskio.c ****   * modification, are permitted, provided that the following conditions are met:
  17:Src/usbh_diskio.c ****   *
  18:Src/usbh_diskio.c ****   * 1. Redistribution of source code must retain the above copyright notice, 
  19:Src/usbh_diskio.c ****   *    this list of conditions and the following disclaimer.
  20:Src/usbh_diskio.c ****   * 2. Redistributions in binary form must reproduce the above copyright notice,
  21:Src/usbh_diskio.c ****   *    this list of conditions and the following disclaimer in the documentation
  22:Src/usbh_diskio.c ****   *    and/or other materials provided with the distribution.
  23:Src/usbh_diskio.c ****   * 3. Neither the name of STMicroelectronics nor the names of other 
  24:Src/usbh_diskio.c ****   *    contributors to this software may be used to endorse or promote products 
  25:Src/usbh_diskio.c ****   *    derived from this software without specific written permission.
  26:Src/usbh_diskio.c ****   * 4. This software, including modifications and/or derivative works of this 
  27:Src/usbh_diskio.c ****   *    software, must execute solely and exclusively on microcontroller or
  28:Src/usbh_diskio.c ****   *    microprocessor devices manufactured by or for STMicroelectronics.
  29:Src/usbh_diskio.c ****   * 5. Redistribution and use of this software other than as permitted under 
  30:Src/usbh_diskio.c ****   *    this license is void and will automatically terminate your rights under 
  31:Src/usbh_diskio.c ****   *    this license. 
ARM GAS  C:\Users\milek\AppData\Local\Temp\ccFvy4fj.s 			page 2


  32:Src/usbh_diskio.c ****   *
  33:Src/usbh_diskio.c ****   * THIS SOFTWARE IS PROVIDED BY STMICROELECTRONICS AND CONTRIBUTORS "AS IS" 
  34:Src/usbh_diskio.c ****   * AND ANY EXPRESS, IMPLIED OR STATUTORY WARRANTIES, INCLUDING, BUT NOT 
  35:Src/usbh_diskio.c ****   * LIMITED TO, THE IMPLIED WARRANTIES OF MERCHANTABILITY, FITNESS FOR A 
  36:Src/usbh_diskio.c ****   * PARTICULAR PURPOSE AND NON-INFRINGEMENT OF THIRD PARTY INTELLECTUAL PROPERTY
  37:Src/usbh_diskio.c ****   * RIGHTS ARE DISCLAIMED TO THE FULLEST EXTENT PERMITTED BY LAW. IN NO EVENT 
  38:Src/usbh_diskio.c ****   * SHALL STMICROELECTRONICS OR CONTRIBUTORS BE LIABLE FOR ANY DIRECT, INDIRECT,
  39:Src/usbh_diskio.c ****   * INCIDENTAL, SPECIAL, EXEMPLARY, OR CONSEQUENTIAL DAMAGES (INCLUDING, BUT NOT
  40:Src/usbh_diskio.c ****   * LIMITED TO, PROCUREMENT OF SUBSTITUTE GOODS OR SERVICES; LOSS OF USE, DATA, 
  41:Src/usbh_diskio.c ****   * OR PROFITS; OR BUSINESS INTERRUPTION) HOWEVER CAUSED AND ON ANY THEORY OF 
  42:Src/usbh_diskio.c ****   * LIABILITY, WHETHER IN CONTRACT, STRICT LIABILITY, OR TORT (INCLUDING 
  43:Src/usbh_diskio.c ****   * NEGLIGENCE OR OTHERWISE) ARISING IN ANY WAY OUT OF THE USE OF THIS SOFTWARE,
  44:Src/usbh_diskio.c ****   * EVEN IF ADVISED OF THE POSSIBILITY OF SUCH DAMAGE.
  45:Src/usbh_diskio.c ****   *
  46:Src/usbh_diskio.c ****   ******************************************************************************
  47:Src/usbh_diskio.c ****   */
  48:Src/usbh_diskio.c **** /* USER CODE BEGIN firstSection */ 
  49:Src/usbh_diskio.c **** /* can be used to modify / undefine following code or add new definitions */
  50:Src/usbh_diskio.c **** /* USER CODE END firstSection */ 
  51:Src/usbh_diskio.c **** 
  52:Src/usbh_diskio.c **** /* Includes ------------------------------------------------------------------*/
  53:Src/usbh_diskio.c **** #include "ff_gen_drv.h"
  54:Src/usbh_diskio.c **** #include "usbh_diskio.h"
  55:Src/usbh_diskio.c **** 
  56:Src/usbh_diskio.c **** /* Private typedef -----------------------------------------------------------*/
  57:Src/usbh_diskio.c **** /* Private define ------------------------------------------------------------*/
  58:Src/usbh_diskio.c **** 
  59:Src/usbh_diskio.c **** #define USB_DEFAULT_BLOCK_SIZE 512
  60:Src/usbh_diskio.c **** 
  61:Src/usbh_diskio.c **** /* Private variables ---------------------------------------------------------*/
  62:Src/usbh_diskio.c **** extern USBH_HandleTypeDef  hUSB_Host;
  63:Src/usbh_diskio.c **** 
  64:Src/usbh_diskio.c **** /* Private function prototypes -----------------------------------------------*/
  65:Src/usbh_diskio.c **** DSTATUS USBH_initialize (BYTE);
  66:Src/usbh_diskio.c **** DSTATUS USBH_status (BYTE);
  67:Src/usbh_diskio.c **** DRESULT USBH_read (BYTE, BYTE*, DWORD, UINT);
  68:Src/usbh_diskio.c **** 
  69:Src/usbh_diskio.c **** #if _USE_WRITE == 1
  70:Src/usbh_diskio.c ****   DRESULT USBH_write (BYTE, const BYTE*, DWORD, UINT);
  71:Src/usbh_diskio.c **** #endif /* _USE_WRITE == 1 */
  72:Src/usbh_diskio.c **** 
  73:Src/usbh_diskio.c **** #if _USE_IOCTL == 1
  74:Src/usbh_diskio.c ****   DRESULT USBH_ioctl (BYTE, BYTE, void*);
  75:Src/usbh_diskio.c **** #endif /* _USE_IOCTL == 1 */
  76:Src/usbh_diskio.c **** 
  77:Src/usbh_diskio.c **** const Diskio_drvTypeDef  USBH_Driver =
  78:Src/usbh_diskio.c **** {
  79:Src/usbh_diskio.c ****   USBH_initialize,
  80:Src/usbh_diskio.c ****   USBH_status,
  81:Src/usbh_diskio.c ****   USBH_read,
  82:Src/usbh_diskio.c **** #if  _USE_WRITE == 1
  83:Src/usbh_diskio.c ****   USBH_write,
  84:Src/usbh_diskio.c **** #endif /* _USE_WRITE == 1 */
  85:Src/usbh_diskio.c **** #if  _USE_IOCTL == 1
  86:Src/usbh_diskio.c ****   USBH_ioctl,
  87:Src/usbh_diskio.c **** #endif /* _USE_IOCTL == 1 */
  88:Src/usbh_diskio.c **** };
ARM GAS  C:\Users\milek\AppData\Local\Temp\ccFvy4fj.s 			page 3


  89:Src/usbh_diskio.c **** 
  90:Src/usbh_diskio.c **** /* USER CODE BEGIN beforeFunctionSection */
  91:Src/usbh_diskio.c **** /* can be used to modify / undefine following code or add new code */
  92:Src/usbh_diskio.c **** /* USER CODE END beforeFunctionSection */
  93:Src/usbh_diskio.c **** 
  94:Src/usbh_diskio.c **** /* Private functions ---------------------------------------------------------*/
  95:Src/usbh_diskio.c **** 
  96:Src/usbh_diskio.c **** /**
  97:Src/usbh_diskio.c ****   * @brief  Initializes a Drive
  98:Src/usbh_diskio.c ****   * @param  lun : lun id
  99:Src/usbh_diskio.c ****   * @retval DSTATUS: Operation status
 100:Src/usbh_diskio.c ****   */
 101:Src/usbh_diskio.c **** DSTATUS USBH_initialize(BYTE lun)
 102:Src/usbh_diskio.c **** {
  28              		.loc 1 102 0
  29              		.cfi_startproc
  30              		@ args = 0, pretend = 0, frame = 0
  31              		@ frame_needed = 0, uses_anonymous_args = 0
  32              		@ link register save eliminated.
  33              	.LVL0:
 103:Src/usbh_diskio.c ****   /* CAUTION : USB Host library has to be initialized in the application */
 104:Src/usbh_diskio.c **** 
 105:Src/usbh_diskio.c ****   return RES_OK;
 106:Src/usbh_diskio.c **** }
  34              		.loc 1 106 0
  35 0000 0020     		movs	r0, #0
  36              	.LVL1:
  37 0002 7047     		bx	lr
  38              		.cfi_endproc
  39              	.LFE143:
  41              		.section	.text.USBH_status,"ax",%progbits
  42              		.align	1
  43              		.global	USBH_status
  44              		.syntax unified
  45              		.thumb
  46              		.thumb_func
  47              		.fpu fpv5-sp-d16
  49              	USBH_status:
  50              	.LFB144:
 107:Src/usbh_diskio.c **** 
 108:Src/usbh_diskio.c **** /**
 109:Src/usbh_diskio.c ****   * @brief  Gets Disk Status
 110:Src/usbh_diskio.c ****   * @param  lun : lun id
 111:Src/usbh_diskio.c ****   * @retval DSTATUS: Operation status
 112:Src/usbh_diskio.c ****   */
 113:Src/usbh_diskio.c **** DSTATUS USBH_status(BYTE lun)
 114:Src/usbh_diskio.c **** {
  51              		.loc 1 114 0
  52              		.cfi_startproc
  53              		@ args = 0, pretend = 0, frame = 0
  54              		@ frame_needed = 0, uses_anonymous_args = 0
  55              	.LVL2:
  56 0000 08B5     		push	{r3, lr}
  57              	.LCFI0:
  58              		.cfi_def_cfa_offset 8
  59              		.cfi_offset 3, -8
  60              		.cfi_offset 14, -4
ARM GAS  C:\Users\milek\AppData\Local\Temp\ccFvy4fj.s 			page 4


  61              	.LVL3:
 115:Src/usbh_diskio.c ****   DRESULT res = RES_ERROR;
 116:Src/usbh_diskio.c **** 
 117:Src/usbh_diskio.c ****   if(USBH_MSC_UnitIsReady(&hUSB_Host, lun))
  62              		.loc 1 117 0
  63 0002 0146     		mov	r1, r0
  64 0004 0348     		ldr	r0, .L7
  65              	.LVL4:
  66 0006 FFF7FEFF 		bl	USBH_MSC_UnitIsReady
  67              	.LVL5:
  68 000a 08B9     		cbnz	r0, .L6
 118:Src/usbh_diskio.c ****   {
 119:Src/usbh_diskio.c ****     res = RES_OK;
 120:Src/usbh_diskio.c ****   }
 121:Src/usbh_diskio.c ****   else
 122:Src/usbh_diskio.c ****   {
 123:Src/usbh_diskio.c ****     res = RES_ERROR;
  69              		.loc 1 123 0
  70 000c 0120     		movs	r0, #1
  71              	.L3:
  72              	.LVL6:
 124:Src/usbh_diskio.c ****   }
 125:Src/usbh_diskio.c **** 
 126:Src/usbh_diskio.c ****   return res;
 127:Src/usbh_diskio.c **** }
  73              		.loc 1 127 0
  74 000e 08BD     		pop	{r3, pc}
  75              	.LVL7:
  76              	.L6:
 119:Src/usbh_diskio.c ****   }
  77              		.loc 1 119 0
  78 0010 0020     		movs	r0, #0
  79 0012 FCE7     		b	.L3
  80              	.L8:
  81              		.align	2
  82              	.L7:
  83 0014 00000000 		.word	hUsbHostFS
  84              		.cfi_endproc
  85              	.LFE144:
  87              		.section	.text.USBH_ioctl,"ax",%progbits
  88              		.align	1
  89              		.global	USBH_ioctl
  90              		.syntax unified
  91              		.thumb
  92              		.thumb_func
  93              		.fpu fpv5-sp-d16
  95              	USBH_ioctl:
  96              	.LFB147:
 128:Src/usbh_diskio.c **** 
 129:Src/usbh_diskio.c **** /* USER CODE BEGIN beforeReadSection */
 130:Src/usbh_diskio.c **** /* can be used to modify previous code / undefine following code / add new code */
 131:Src/usbh_diskio.c **** /* USER CODE END beforeReadSection */
 132:Src/usbh_diskio.c **** 
 133:Src/usbh_diskio.c **** /**
 134:Src/usbh_diskio.c ****   * @brief  Reads Sector(s)
 135:Src/usbh_diskio.c ****   * @param  lun : lun id
 136:Src/usbh_diskio.c ****   * @param  *buff: Data buffer to store read data
ARM GAS  C:\Users\milek\AppData\Local\Temp\ccFvy4fj.s 			page 5


 137:Src/usbh_diskio.c ****   * @param  sector: Sector address (LBA)
 138:Src/usbh_diskio.c ****   * @param  count: Number of sectors to read (1..128)
 139:Src/usbh_diskio.c ****   * @retval DRESULT: Operation result
 140:Src/usbh_diskio.c ****   */
 141:Src/usbh_diskio.c **** DRESULT USBH_read(BYTE lun, BYTE *buff, DWORD sector, UINT count)
 142:Src/usbh_diskio.c **** {
 143:Src/usbh_diskio.c ****   DRESULT res = RES_ERROR;
 144:Src/usbh_diskio.c ****   MSC_LUNTypeDef info;
 145:Src/usbh_diskio.c **** 
 146:Src/usbh_diskio.c ****   if(USBH_MSC_Read(&hUSB_Host, lun, sector, buff, count) == USBH_OK)
 147:Src/usbh_diskio.c ****   {
 148:Src/usbh_diskio.c ****     res = RES_OK;
 149:Src/usbh_diskio.c ****   }
 150:Src/usbh_diskio.c ****   else
 151:Src/usbh_diskio.c ****   {
 152:Src/usbh_diskio.c ****     USBH_MSC_GetLUNInfo(&hUSB_Host, lun, &info);
 153:Src/usbh_diskio.c **** 
 154:Src/usbh_diskio.c ****     switch (info.sense.asc)
 155:Src/usbh_diskio.c ****     {
 156:Src/usbh_diskio.c ****     case SCSI_ASC_LOGICAL_UNIT_NOT_READY:
 157:Src/usbh_diskio.c ****     case SCSI_ASC_MEDIUM_NOT_PRESENT:
 158:Src/usbh_diskio.c ****     case SCSI_ASC_NOT_READY_TO_READY_CHANGE:
 159:Src/usbh_diskio.c ****       USBH_ErrLog ("USB Disk is not ready!");
 160:Src/usbh_diskio.c ****       res = RES_NOTRDY;
 161:Src/usbh_diskio.c ****       break; 
 162:Src/usbh_diskio.c **** 
 163:Src/usbh_diskio.c ****     default:
 164:Src/usbh_diskio.c ****       res = RES_ERROR;
 165:Src/usbh_diskio.c ****       break;
 166:Src/usbh_diskio.c ****     }
 167:Src/usbh_diskio.c ****   }
 168:Src/usbh_diskio.c **** 
 169:Src/usbh_diskio.c ****   return res;
 170:Src/usbh_diskio.c **** }
 171:Src/usbh_diskio.c **** 
 172:Src/usbh_diskio.c **** /* USER CODE BEGIN beforeWriteSection */
 173:Src/usbh_diskio.c **** /* can be used to modify previous code / undefine following code / add new code */
 174:Src/usbh_diskio.c **** /* USER CODE END beforeWriteSection */
 175:Src/usbh_diskio.c **** 
 176:Src/usbh_diskio.c **** /**
 177:Src/usbh_diskio.c ****   * @brief  Writes Sector(s)
 178:Src/usbh_diskio.c ****   * @param  lun : lun id
 179:Src/usbh_diskio.c ****   * @param  *buff: Data to be written
 180:Src/usbh_diskio.c ****   * @param  sector: Sector address (LBA)
 181:Src/usbh_diskio.c ****   * @param  count: Number of sectors to write (1..128)
 182:Src/usbh_diskio.c ****   * @retval DRESULT: Operation result
 183:Src/usbh_diskio.c ****   */
 184:Src/usbh_diskio.c **** #if _USE_WRITE == 1
 185:Src/usbh_diskio.c **** DRESULT USBH_write(BYTE lun, const BYTE *buff, DWORD sector, UINT count)
 186:Src/usbh_diskio.c **** {
 187:Src/usbh_diskio.c ****   DRESULT res = RES_ERROR;
 188:Src/usbh_diskio.c ****   MSC_LUNTypeDef info;
 189:Src/usbh_diskio.c **** 
 190:Src/usbh_diskio.c ****   if(USBH_MSC_Write(&hUSB_Host, lun, sector, (BYTE *)buff, count) == USBH_OK)
 191:Src/usbh_diskio.c ****   {
 192:Src/usbh_diskio.c ****     res = RES_OK;
 193:Src/usbh_diskio.c ****   }
ARM GAS  C:\Users\milek\AppData\Local\Temp\ccFvy4fj.s 			page 6


 194:Src/usbh_diskio.c ****   else
 195:Src/usbh_diskio.c ****   {
 196:Src/usbh_diskio.c ****     USBH_MSC_GetLUNInfo(&hUSB_Host, lun, &info);
 197:Src/usbh_diskio.c **** 
 198:Src/usbh_diskio.c ****     switch (info.sense.asc)
 199:Src/usbh_diskio.c ****     {
 200:Src/usbh_diskio.c ****     case SCSI_ASC_WRITE_PROTECTED:
 201:Src/usbh_diskio.c ****       USBH_ErrLog("USB Disk is Write protected!");
 202:Src/usbh_diskio.c ****       res = RES_WRPRT;
 203:Src/usbh_diskio.c ****       break;
 204:Src/usbh_diskio.c **** 
 205:Src/usbh_diskio.c ****     case SCSI_ASC_LOGICAL_UNIT_NOT_READY:
 206:Src/usbh_diskio.c ****     case SCSI_ASC_MEDIUM_NOT_PRESENT:
 207:Src/usbh_diskio.c ****     case SCSI_ASC_NOT_READY_TO_READY_CHANGE:
 208:Src/usbh_diskio.c ****       USBH_ErrLog("USB Disk is not ready!");
 209:Src/usbh_diskio.c ****       res = RES_NOTRDY;
 210:Src/usbh_diskio.c ****       break;
 211:Src/usbh_diskio.c **** 
 212:Src/usbh_diskio.c ****     default:
 213:Src/usbh_diskio.c ****       res = RES_ERROR;
 214:Src/usbh_diskio.c ****       break;
 215:Src/usbh_diskio.c ****     }
 216:Src/usbh_diskio.c ****   }
 217:Src/usbh_diskio.c **** 
 218:Src/usbh_diskio.c ****   return res;
 219:Src/usbh_diskio.c **** }
 220:Src/usbh_diskio.c **** #endif /* _USE_WRITE == 1 */
 221:Src/usbh_diskio.c **** 
 222:Src/usbh_diskio.c **** /* USER CODE BEGIN beforeIoctlSection */
 223:Src/usbh_diskio.c **** /* can be used to modify previous code / undefine following code / add new code */
 224:Src/usbh_diskio.c **** /* USER CODE END beforeIoctlSection */
 225:Src/usbh_diskio.c **** 
 226:Src/usbh_diskio.c **** /**
 227:Src/usbh_diskio.c ****   * @brief  I/O control operation
 228:Src/usbh_diskio.c ****   * @param  lun : lun id
 229:Src/usbh_diskio.c ****   * @param  cmd: Control code
 230:Src/usbh_diskio.c ****   * @param  *buff: Buffer to send/receive control data
 231:Src/usbh_diskio.c ****   * @retval DRESULT: Operation result
 232:Src/usbh_diskio.c ****   */
 233:Src/usbh_diskio.c **** #if _USE_IOCTL == 1
 234:Src/usbh_diskio.c **** DRESULT USBH_ioctl(BYTE lun, BYTE cmd, void *buff)
 235:Src/usbh_diskio.c **** {
  97              		.loc 1 235 0
  98              		.cfi_startproc
  99              		@ args = 0, pretend = 0, frame = 56
 100              		@ frame_needed = 0, uses_anonymous_args = 0
 101              	.LVL8:
 102 0000 10B5     		push	{r4, lr}
 103              	.LCFI1:
 104              		.cfi_def_cfa_offset 8
 105              		.cfi_offset 4, -8
 106              		.cfi_offset 14, -4
 107 0002 8EB0     		sub	sp, sp, #56
 108              	.LCFI2:
 109              		.cfi_def_cfa_offset 64
 110 0004 1446     		mov	r4, r2
 111              	.LVL9:
ARM GAS  C:\Users\milek\AppData\Local\Temp\ccFvy4fj.s 			page 7


 236:Src/usbh_diskio.c ****   DRESULT res = RES_ERROR;
 237:Src/usbh_diskio.c ****   MSC_LUNTypeDef info;
 238:Src/usbh_diskio.c **** 
 239:Src/usbh_diskio.c ****   switch (cmd)
 112              		.loc 1 239 0
 113 0006 0329     		cmp	r1, #3
 114 0008 24D8     		bhi	.L16
 115 000a DFE801F0 		tbb	[pc, r1]
 116              	.L12:
 117 000e 02       		.byte	(.L11-.L12)/2
 118 000f 05       		.byte	(.L13-.L12)/2
 119 0010 0E       		.byte	(.L14-.L12)/2
 120 0011 18       		.byte	(.L15-.L12)/2
 121              		.p2align 1
 122              	.L11:
 240:Src/usbh_diskio.c ****   {
 241:Src/usbh_diskio.c ****   /* Make sure that no pending write process */
 242:Src/usbh_diskio.c ****   case CTRL_SYNC:
 243:Src/usbh_diskio.c ****     res = RES_OK;
 123              		.loc 1 243 0
 124 0012 0020     		movs	r0, #0
 125              	.LVL10:
 126              	.L10:
 244:Src/usbh_diskio.c ****     break;
 245:Src/usbh_diskio.c **** 
 246:Src/usbh_diskio.c ****   /* Get number of sectors on the disk (DWORD) */
 247:Src/usbh_diskio.c ****   case GET_SECTOR_COUNT :
 248:Src/usbh_diskio.c ****     if(USBH_MSC_GetLUNInfo(&hUSB_Host, lun, &info) == USBH_OK)
 249:Src/usbh_diskio.c ****     {
 250:Src/usbh_diskio.c ****       *(DWORD*)buff = info.capacity.block_nbr;
 251:Src/usbh_diskio.c ****       res = RES_OK;
 252:Src/usbh_diskio.c ****     }
 253:Src/usbh_diskio.c ****     else
 254:Src/usbh_diskio.c ****     {
 255:Src/usbh_diskio.c ****       res = RES_ERROR;
 256:Src/usbh_diskio.c ****     }
 257:Src/usbh_diskio.c ****     break;
 258:Src/usbh_diskio.c **** 
 259:Src/usbh_diskio.c ****   /* Get R/W sector size (WORD) */
 260:Src/usbh_diskio.c ****   case GET_SECTOR_SIZE :
 261:Src/usbh_diskio.c ****     if(USBH_MSC_GetLUNInfo(&hUSB_Host, lun, &info) == USBH_OK)
 262:Src/usbh_diskio.c ****     {
 263:Src/usbh_diskio.c ****       *(DWORD*)buff = info.capacity.block_size;
 264:Src/usbh_diskio.c ****       res = RES_OK;
 265:Src/usbh_diskio.c ****     }
 266:Src/usbh_diskio.c ****     else
 267:Src/usbh_diskio.c ****     {
 268:Src/usbh_diskio.c ****       res = RES_ERROR;
 269:Src/usbh_diskio.c ****     }
 270:Src/usbh_diskio.c ****     break;
 271:Src/usbh_diskio.c **** 
 272:Src/usbh_diskio.c ****     /* Get erase block size in unit of sector (DWORD) */
 273:Src/usbh_diskio.c ****   case GET_BLOCK_SIZE :
 274:Src/usbh_diskio.c **** 
 275:Src/usbh_diskio.c ****     if(USBH_MSC_GetLUNInfo(&hUSB_Host, lun, &info) == USBH_OK)
 276:Src/usbh_diskio.c ****     {
 277:Src/usbh_diskio.c ****       *(DWORD*)buff = info.capacity.block_size / USB_DEFAULT_BLOCK_SIZE;
ARM GAS  C:\Users\milek\AppData\Local\Temp\ccFvy4fj.s 			page 8


 278:Src/usbh_diskio.c ****       res = RES_OK;
 279:Src/usbh_diskio.c ****     }
 280:Src/usbh_diskio.c ****     else
 281:Src/usbh_diskio.c ****     {
 282:Src/usbh_diskio.c ****       res = RES_ERROR;
 283:Src/usbh_diskio.c ****     }
 284:Src/usbh_diskio.c ****     break;
 285:Src/usbh_diskio.c **** 
 286:Src/usbh_diskio.c ****   default:
 287:Src/usbh_diskio.c ****     res = RES_PARERR;
 288:Src/usbh_diskio.c ****   }
 289:Src/usbh_diskio.c **** 
 290:Src/usbh_diskio.c ****   return res;
 291:Src/usbh_diskio.c **** }
 127              		.loc 1 291 0
 128 0014 0EB0     		add	sp, sp, #56
 129              	.LCFI3:
 130              		.cfi_remember_state
 131              		.cfi_def_cfa_offset 8
 132              		@ sp needed
 133 0016 10BD     		pop	{r4, pc}
 134              	.LVL11:
 135              	.L13:
 136              	.LCFI4:
 137              		.cfi_restore_state
 248:Src/usbh_diskio.c ****     {
 138              		.loc 1 248 0
 139 0018 01AA     		add	r2, sp, #4
 140              	.LVL12:
 141 001a 0146     		mov	r1, r0
 142              	.LVL13:
 143 001c 1148     		ldr	r0, .L21
 144              	.LVL14:
 145 001e FFF7FEFF 		bl	USBH_MSC_GetLUNInfo
 146              	.LVL15:
 147 0022 C8B9     		cbnz	r0, .L17
 250:Src/usbh_diskio.c ****       res = RES_OK;
 148              		.loc 1 250 0
 149 0024 029B     		ldr	r3, [sp, #8]
 150 0026 2360     		str	r3, [r4]
 151              	.LVL16:
 152 0028 F4E7     		b	.L10
 153              	.LVL17:
 154              	.L14:
 261:Src/usbh_diskio.c ****     {
 155              		.loc 1 261 0
 156 002a 01AA     		add	r2, sp, #4
 157              	.LVL18:
 158 002c 0146     		mov	r1, r0
 159              	.LVL19:
 160 002e 0D48     		ldr	r0, .L21
 161              	.LVL20:
 162 0030 FFF7FEFF 		bl	USBH_MSC_GetLUNInfo
 163              	.LVL21:
 164 0034 90B9     		cbnz	r0, .L18
 263:Src/usbh_diskio.c ****       res = RES_OK;
 165              		.loc 1 263 0
ARM GAS  C:\Users\milek\AppData\Local\Temp\ccFvy4fj.s 			page 9


 166 0036 BDF80C30 		ldrh	r3, [sp, #12]
 167 003a 2360     		str	r3, [r4]
 168              	.LVL22:
 169 003c EAE7     		b	.L10
 170              	.LVL23:
 171              	.L15:
 275:Src/usbh_diskio.c ****     {
 172              		.loc 1 275 0
 173 003e 01AA     		add	r2, sp, #4
 174              	.LVL24:
 175 0040 0146     		mov	r1, r0
 176              	.LVL25:
 177 0042 0848     		ldr	r0, .L21
 178              	.LVL26:
 179 0044 FFF7FEFF 		bl	USBH_MSC_GetLUNInfo
 180              	.LVL27:
 181 0048 50B9     		cbnz	r0, .L19
 277:Src/usbh_diskio.c ****       res = RES_OK;
 182              		.loc 1 277 0
 183 004a BDF80C30 		ldrh	r3, [sp, #12]
 184 004e 5B0A     		lsrs	r3, r3, #9
 185 0050 2360     		str	r3, [r4]
 186              	.LVL28:
 187 0052 DFE7     		b	.L10
 188              	.LVL29:
 189              	.L16:
 287:Src/usbh_diskio.c ****   }
 190              		.loc 1 287 0
 191 0054 0420     		movs	r0, #4
 192              	.LVL30:
 193 0056 DDE7     		b	.L10
 194              	.LVL31:
 195              	.L17:
 255:Src/usbh_diskio.c ****     }
 196              		.loc 1 255 0
 197 0058 0120     		movs	r0, #1
 198 005a DBE7     		b	.L10
 199              	.L18:
 268:Src/usbh_diskio.c ****     }
 200              		.loc 1 268 0
 201 005c 0120     		movs	r0, #1
 202 005e D9E7     		b	.L10
 203              	.L19:
 282:Src/usbh_diskio.c ****     }
 204              		.loc 1 282 0
 205 0060 0120     		movs	r0, #1
 206 0062 D7E7     		b	.L10
 207              	.L22:
 208              		.align	2
 209              	.L21:
 210 0064 00000000 		.word	hUsbHostFS
 211              		.cfi_endproc
 212              	.LFE147:
 214              		.section	.text.USBH_read,"ax",%progbits
 215              		.align	1
 216              		.global	USBH_read
 217              		.syntax unified
ARM GAS  C:\Users\milek\AppData\Local\Temp\ccFvy4fj.s 			page 10


 218              		.thumb
 219              		.thumb_func
 220              		.fpu fpv5-sp-d16
 222              	USBH_read:
 223              	.LFB145:
 142:Src/usbh_diskio.c ****   DRESULT res = RES_ERROR;
 224              		.loc 1 142 0
 225              		.cfi_startproc
 226              		@ args = 0, pretend = 0, frame = 56
 227              		@ frame_needed = 0, uses_anonymous_args = 0
 228              	.LVL32:
 229 0000 10B5     		push	{r4, lr}
 230              	.LCFI5:
 231              		.cfi_def_cfa_offset 8
 232              		.cfi_offset 4, -8
 233              		.cfi_offset 14, -4
 234 0002 90B0     		sub	sp, sp, #64
 235              	.LCFI6:
 236              		.cfi_def_cfa_offset 72
 237 0004 0446     		mov	r4, r0
 238              	.LVL33:
 146:Src/usbh_diskio.c ****   {
 239              		.loc 1 146 0
 240 0006 0093     		str	r3, [sp]
 241 0008 0B46     		mov	r3, r1
 242              	.LVL34:
 243 000a 0146     		mov	r1, r0
 244              	.LVL35:
 245 000c 1048     		ldr	r0, .L31
 246              	.LVL36:
 247 000e FFF7FEFF 		bl	USBH_MSC_Read
 248              	.LVL37:
 249 0012 10B9     		cbnz	r0, .L30
 148:Src/usbh_diskio.c ****   }
 250              		.loc 1 148 0
 251 0014 0020     		movs	r0, #0
 252              	.LVL38:
 253              	.L24:
 170:Src/usbh_diskio.c **** 
 254              		.loc 1 170 0
 255 0016 10B0     		add	sp, sp, #64
 256              	.LCFI7:
 257              		.cfi_remember_state
 258              		.cfi_def_cfa_offset 8
 259              		@ sp needed
 260 0018 10BD     		pop	{r4, pc}
 261              	.LVL39:
 262              	.L30:
 263              	.LCFI8:
 264              		.cfi_restore_state
 152:Src/usbh_diskio.c **** 
 265              		.loc 1 152 0
 266 001a 03AA     		add	r2, sp, #12
 267 001c 2146     		mov	r1, r4
 268 001e 0C48     		ldr	r0, .L31
 269 0020 FFF7FEFF 		bl	USBH_MSC_GetLUNInfo
 270              	.LVL40:
ARM GAS  C:\Users\milek\AppData\Local\Temp\ccFvy4fj.s 			page 11


 154:Src/usbh_diskio.c ****     {
 271              		.loc 1 154 0
 272 0024 9DF81930 		ldrb	r3, [sp, #25]	@ zero_extendqisi2
 273 0028 282B     		cmp	r3, #40
 274 002a 05D0     		beq	.L25
 275 002c 3A2B     		cmp	r3, #58
 276 002e 03D0     		beq	.L25
 277 0030 042B     		cmp	r3, #4
 278 0032 01D0     		beq	.L25
 164:Src/usbh_diskio.c ****       break;
 279              		.loc 1 164 0
 280 0034 0120     		movs	r0, #1
 281 0036 EEE7     		b	.L24
 282              	.L25:
 159:Src/usbh_diskio.c ****       res = RES_NOTRDY;
 283              		.loc 1 159 0
 284 0038 0648     		ldr	r0, .L31+4
 285 003a FFF7FEFF 		bl	printf
 286              	.LVL41:
 287 003e 0648     		ldr	r0, .L31+8
 288 0040 FFF7FEFF 		bl	printf
 289              	.LVL42:
 290 0044 0A20     		movs	r0, #10
 291 0046 FFF7FEFF 		bl	putchar
 292              	.LVL43:
 160:Src/usbh_diskio.c ****       break; 
 293              		.loc 1 160 0
 294 004a 0320     		movs	r0, #3
 161:Src/usbh_diskio.c **** 
 295              		.loc 1 161 0
 296 004c E3E7     		b	.L24
 297              	.L32:
 298 004e 00BF     		.align	2
 299              	.L31:
 300 0050 00000000 		.word	hUsbHostFS
 301 0054 00000000 		.word	.LC0
 302 0058 08000000 		.word	.LC1
 303              		.cfi_endproc
 304              	.LFE145:
 306              		.section	.text.USBH_write,"ax",%progbits
 307              		.align	1
 308              		.global	USBH_write
 309              		.syntax unified
 310              		.thumb
 311              		.thumb_func
 312              		.fpu fpv5-sp-d16
 314              	USBH_write:
 315              	.LFB146:
 186:Src/usbh_diskio.c ****   DRESULT res = RES_ERROR;
 316              		.loc 1 186 0
 317              		.cfi_startproc
 318              		@ args = 0, pretend = 0, frame = 56
 319              		@ frame_needed = 0, uses_anonymous_args = 0
 320              	.LVL44:
 321 0000 10B5     		push	{r4, lr}
 322              	.LCFI9:
 323              		.cfi_def_cfa_offset 8
ARM GAS  C:\Users\milek\AppData\Local\Temp\ccFvy4fj.s 			page 12


 324              		.cfi_offset 4, -8
 325              		.cfi_offset 14, -4
 326 0002 90B0     		sub	sp, sp, #64
 327              	.LCFI10:
 328              		.cfi_def_cfa_offset 72
 329 0004 0446     		mov	r4, r0
 330              	.LVL45:
 190:Src/usbh_diskio.c ****   {
 331              		.loc 1 190 0
 332 0006 0093     		str	r3, [sp]
 333 0008 0B46     		mov	r3, r1
 334              	.LVL46:
 335 000a 0146     		mov	r1, r0
 336              	.LVL47:
 337 000c 1748     		ldr	r0, .L43
 338              	.LVL48:
 339 000e FFF7FEFF 		bl	USBH_MSC_Write
 340              	.LVL49:
 341 0012 10B9     		cbnz	r0, .L41
 192:Src/usbh_diskio.c ****   }
 342              		.loc 1 192 0
 343 0014 0020     		movs	r0, #0
 344              	.LVL50:
 345              	.L34:
 219:Src/usbh_diskio.c **** #endif /* _USE_WRITE == 1 */
 346              		.loc 1 219 0
 347 0016 10B0     		add	sp, sp, #64
 348              	.LCFI11:
 349              		.cfi_remember_state
 350              		.cfi_def_cfa_offset 8
 351              		@ sp needed
 352 0018 10BD     		pop	{r4, pc}
 353              	.LVL51:
 354              	.L41:
 355              	.LCFI12:
 356              		.cfi_restore_state
 196:Src/usbh_diskio.c **** 
 357              		.loc 1 196 0
 358 001a 03AA     		add	r2, sp, #12
 359 001c 2146     		mov	r1, r4
 360 001e 1348     		ldr	r0, .L43
 361 0020 FFF7FEFF 		bl	USBH_MSC_GetLUNInfo
 362              	.LVL52:
 198:Src/usbh_diskio.c ****     {
 363              		.loc 1 198 0
 364 0024 9DF81930 		ldrb	r3, [sp, #25]	@ zero_extendqisi2
 365 0028 272B     		cmp	r3, #39
 366 002a 13D0     		beq	.L35
 367 002c 0ED9     		bls	.L42
 368 002e 282B     		cmp	r3, #40
 369 0030 01D0     		beq	.L37
 370 0032 3A2B     		cmp	r3, #58
 371 0034 0CD1     		bne	.L39
 372              	.L37:
 208:Src/usbh_diskio.c ****       res = RES_NOTRDY;
 373              		.loc 1 208 0
 374 0036 0E48     		ldr	r0, .L43+4
ARM GAS  C:\Users\milek\AppData\Local\Temp\ccFvy4fj.s 			page 13


 375 0038 FFF7FEFF 		bl	printf
 376              	.LVL53:
 377 003c 0D48     		ldr	r0, .L43+8
 378 003e FFF7FEFF 		bl	printf
 379              	.LVL54:
 380 0042 0A20     		movs	r0, #10
 381 0044 FFF7FEFF 		bl	putchar
 382              	.LVL55:
 209:Src/usbh_diskio.c ****       break;
 383              		.loc 1 209 0
 384 0048 0320     		movs	r0, #3
 210:Src/usbh_diskio.c **** 
 385              		.loc 1 210 0
 386 004a E4E7     		b	.L34
 387              	.LVL56:
 388              	.L42:
 198:Src/usbh_diskio.c ****     {
 389              		.loc 1 198 0
 390 004c 042B     		cmp	r3, #4
 391 004e F2D0     		beq	.L37
 392              	.L39:
 213:Src/usbh_diskio.c ****       break;
 393              		.loc 1 213 0
 394 0050 0120     		movs	r0, #1
 395 0052 E0E7     		b	.L34
 396              	.L35:
 201:Src/usbh_diskio.c ****       res = RES_WRPRT;
 397              		.loc 1 201 0
 398 0054 0648     		ldr	r0, .L43+4
 399 0056 FFF7FEFF 		bl	printf
 400              	.LVL57:
 401 005a 0748     		ldr	r0, .L43+12
 402 005c FFF7FEFF 		bl	printf
 403              	.LVL58:
 404 0060 0A20     		movs	r0, #10
 405 0062 FFF7FEFF 		bl	putchar
 406              	.LVL59:
 202:Src/usbh_diskio.c ****       break;
 407              		.loc 1 202 0
 408 0066 0220     		movs	r0, #2
 203:Src/usbh_diskio.c **** 
 409              		.loc 1 203 0
 410 0068 D5E7     		b	.L34
 411              	.L44:
 412 006a 00BF     		.align	2
 413              	.L43:
 414 006c 00000000 		.word	hUsbHostFS
 415 0070 00000000 		.word	.LC0
 416 0074 08000000 		.word	.LC1
 417 0078 00000000 		.word	.LC2
 418              		.cfi_endproc
 419              	.LFE146:
 421              		.global	USBH_Driver
 422              		.section	.rodata.USBH_Driver,"a",%progbits
 423              		.align	2
 426              	USBH_Driver:
 427 0000 00000000 		.word	USBH_initialize
ARM GAS  C:\Users\milek\AppData\Local\Temp\ccFvy4fj.s 			page 14


 428 0004 00000000 		.word	USBH_status
 429 0008 00000000 		.word	USBH_read
 430 000c 00000000 		.word	USBH_write
 431 0010 00000000 		.word	USBH_ioctl
 432              		.section	.rodata.USBH_read.str1.4,"aMS",%progbits,1
 433              		.align	2
 434              	.LC0:
 435 0000 4552524F 		.ascii	"ERROR: \000"
 435      523A2000 
 436              	.LC1:
 437 0008 55534220 		.ascii	"USB Disk is not ready!\000"
 437      4469736B 
 437      20697320 
 437      6E6F7420 
 437      72656164 
 438              		.section	.rodata.USBH_write.str1.4,"aMS",%progbits,1
 439              		.align	2
 440              	.LC2:
 441 0000 55534220 		.ascii	"USB Disk is Write protected!\000"
 441      4469736B 
 441      20697320 
 441      57726974 
 441      65207072 
 442              		.text
 443              	.Letext0:
 444              		.file 2 "Middlewares/Third_Party/FatFs/src/integer.h"
 445              		.file 3 "Middlewares/Third_Party/FatFs/src/diskio.h"
 446              		.file 4 "d:\\program files (x86)\\gnu\\7_2018-q2-update\\arm-none-eabi\\include\\machine\\_default
 447              		.file 5 "d:\\program files (x86)\\gnu\\7_2018-q2-update\\arm-none-eabi\\include\\sys\\_stdint.h"
 448              		.file 6 "Drivers/CMSIS/Include/core_cm7.h"
 449              		.file 7 "Drivers/CMSIS/Device/ST/STM32F7xx/Include/system_stm32f7xx.h"
 450              		.file 8 "d:\\program files (x86)\\gnu\\7_2018-q2-update\\arm-none-eabi\\include\\sys\\lock.h"
 451              		.file 9 "d:\\program files (x86)\\gnu\\7_2018-q2-update\\arm-none-eabi\\include\\sys\\_types.h"
 452              		.file 10 "d:\\program files (x86)\\gnu\\7_2018-q2-update\\lib\\gcc\\arm-none-eabi\\7.3.1\\include\
 453              		.file 11 "d:\\program files (x86)\\gnu\\7_2018-q2-update\\arm-none-eabi\\include\\sys\\reent.h"
 454              		.file 12 "Middlewares/Third_Party/FreeRTOS/Source/include/task.h"
 455              		.file 13 "Middlewares/Third_Party/FreeRTOS/Source/include/queue.h"
 456              		.file 14 "Middlewares/Third_Party/FreeRTOS/Source/CMSIS_RTOS/cmsis_os.h"
 457              		.file 15 "d:\\program files (x86)\\gnu\\7_2018-q2-update\\arm-none-eabi\\include\\stdlib.h"
 458              		.file 16 "Middlewares/ST/STM32_USB_Host_Library/Core/Inc/usbh_def.h"
 459              		.file 17 "Middlewares/ST/STM32_USB_Host_Library/Core/Inc/usbh_ctlreq.h"
 460              		.file 18 "Middlewares/ST/STM32_USB_Host_Library/Class/MSC/Inc/usbh_msc_scsi.h"
 461              		.file 19 "Middlewares/ST/STM32_USB_Host_Library/Class/MSC/Inc/usbh_msc.h"
 462              		.file 20 "Middlewares/Third_Party/FatFs/src/ff_gen_drv.h"
 463              		.file 21 "Inc/usbh_diskio.h"
 464              		.file 22 "d:\\program files (x86)\\gnu\\7_2018-q2-update\\arm-none-eabi\\include\\stdio.h"
 465              		.file 23 "<built-in>"
ARM GAS  C:\Users\milek\AppData\Local\Temp\ccFvy4fj.s 			page 15

