ARM GAS  C:\Users\Patryk\AppData\Local\Temp\ccQkv38E.s 			page 1


   1              		.cpu cortex-m7
   2              		.eabi_attribute 27, 1
   3              		.eabi_attribute 28, 1
   4              		.eabi_attribute 20, 1
   5              		.eabi_attribute 21, 1
   6              		.eabi_attribute 23, 3
   7              		.eabi_attribute 24, 1
   8              		.eabi_attribute 25, 1
   9              		.eabi_attribute 26, 1
  10              		.eabi_attribute 30, 1
  11              		.eabi_attribute 34, 1
  12              		.eabi_attribute 18, 4
  13              		.file	"usbh_msc_bot.c"
  14              		.text
  15              	.Ltext0:
  16              		.cfi_sections	.debug_frame
  17              		.section	.text.USBH_MSC_DecodeCSW,"ax",%progbits
  18              		.align	1
  19              		.syntax unified
  20              		.thumb
  21              		.thumb_func
  22              		.fpu fpv5-sp-d16
  24              	USBH_MSC_DecodeCSW:
  25              	.LFB148:
  26              		.file 1 "Middlewares/ST/STM32_USB_Host_Library/Class/MSC/Src/usbh_msc_bot.c"
   1:Middlewares/ST/STM32_USB_Host_Library/Class/MSC/Src/usbh_msc_bot.c **** /**
   2:Middlewares/ST/STM32_USB_Host_Library/Class/MSC/Src/usbh_msc_bot.c ****   ******************************************************************************
   3:Middlewares/ST/STM32_USB_Host_Library/Class/MSC/Src/usbh_msc_bot.c ****   * @file    usbh_msc_bot.c
   4:Middlewares/ST/STM32_USB_Host_Library/Class/MSC/Src/usbh_msc_bot.c ****   * @author  MCD Application Team
   5:Middlewares/ST/STM32_USB_Host_Library/Class/MSC/Src/usbh_msc_bot.c ****   * @brief   This file includes the BOT protocol related functions
   6:Middlewares/ST/STM32_USB_Host_Library/Class/MSC/Src/usbh_msc_bot.c ****   ******************************************************************************
   7:Middlewares/ST/STM32_USB_Host_Library/Class/MSC/Src/usbh_msc_bot.c ****   * @attention
   8:Middlewares/ST/STM32_USB_Host_Library/Class/MSC/Src/usbh_msc_bot.c ****   *
   9:Middlewares/ST/STM32_USB_Host_Library/Class/MSC/Src/usbh_msc_bot.c ****   * <h2><center>&copy; Copyright (c) 2017 STMicroelectronics International N.V.
  10:Middlewares/ST/STM32_USB_Host_Library/Class/MSC/Src/usbh_msc_bot.c ****   * All rights reserved.</center></h2>
  11:Middlewares/ST/STM32_USB_Host_Library/Class/MSC/Src/usbh_msc_bot.c ****   *
  12:Middlewares/ST/STM32_USB_Host_Library/Class/MSC/Src/usbh_msc_bot.c ****   * Redistribution and use in source and binary forms, with or without
  13:Middlewares/ST/STM32_USB_Host_Library/Class/MSC/Src/usbh_msc_bot.c ****   * modification, are permitted, provided that the following conditions are met:
  14:Middlewares/ST/STM32_USB_Host_Library/Class/MSC/Src/usbh_msc_bot.c ****   *
  15:Middlewares/ST/STM32_USB_Host_Library/Class/MSC/Src/usbh_msc_bot.c ****   * 1. Redistribution of source code must retain the above copyright notice,
  16:Middlewares/ST/STM32_USB_Host_Library/Class/MSC/Src/usbh_msc_bot.c ****   *    this list of conditions and the following disclaimer.
  17:Middlewares/ST/STM32_USB_Host_Library/Class/MSC/Src/usbh_msc_bot.c ****   * 2. Redistributions in binary form must reproduce the above copyright notice,
  18:Middlewares/ST/STM32_USB_Host_Library/Class/MSC/Src/usbh_msc_bot.c ****   *    this list of conditions and the following disclaimer in the documentation
  19:Middlewares/ST/STM32_USB_Host_Library/Class/MSC/Src/usbh_msc_bot.c ****   *    and/or other materials provided with the distribution.
  20:Middlewares/ST/STM32_USB_Host_Library/Class/MSC/Src/usbh_msc_bot.c ****   * 3. Neither the name of STMicroelectronics nor the names of other
  21:Middlewares/ST/STM32_USB_Host_Library/Class/MSC/Src/usbh_msc_bot.c ****   *    contributors to this software may be used to endorse or promote products
  22:Middlewares/ST/STM32_USB_Host_Library/Class/MSC/Src/usbh_msc_bot.c ****   *    derived from this software without specific written permission.
  23:Middlewares/ST/STM32_USB_Host_Library/Class/MSC/Src/usbh_msc_bot.c ****   * 4. This software, including modifications and/or derivative works of this
  24:Middlewares/ST/STM32_USB_Host_Library/Class/MSC/Src/usbh_msc_bot.c ****   *    software, must execute solely and exclusively on microcontroller or
  25:Middlewares/ST/STM32_USB_Host_Library/Class/MSC/Src/usbh_msc_bot.c ****   *    microprocessor devices manufactured by or for STMicroelectronics.
  26:Middlewares/ST/STM32_USB_Host_Library/Class/MSC/Src/usbh_msc_bot.c ****   * 5. Redistribution and use of this software other than as permitted under
  27:Middlewares/ST/STM32_USB_Host_Library/Class/MSC/Src/usbh_msc_bot.c ****   *    this license is void and will automatically terminate your rights under
  28:Middlewares/ST/STM32_USB_Host_Library/Class/MSC/Src/usbh_msc_bot.c ****   *    this license.
  29:Middlewares/ST/STM32_USB_Host_Library/Class/MSC/Src/usbh_msc_bot.c ****   *
  30:Middlewares/ST/STM32_USB_Host_Library/Class/MSC/Src/usbh_msc_bot.c ****   * THIS SOFTWARE IS PROVIDED BY STMICROELECTRONICS AND CONTRIBUTORS "AS IS"
  31:Middlewares/ST/STM32_USB_Host_Library/Class/MSC/Src/usbh_msc_bot.c ****   * AND ANY EXPRESS, IMPLIED OR STATUTORY WARRANTIES, INCLUDING, BUT NOT
  32:Middlewares/ST/STM32_USB_Host_Library/Class/MSC/Src/usbh_msc_bot.c ****   * LIMITED TO, THE IMPLIED WARRANTIES OF MERCHANTABILITY, FITNESS FOR A
ARM GAS  C:\Users\Patryk\AppData\Local\Temp\ccQkv38E.s 			page 2


  33:Middlewares/ST/STM32_USB_Host_Library/Class/MSC/Src/usbh_msc_bot.c ****   * PARTICULAR PURPOSE AND NON-INFRINGEMENT OF THIRD PARTY INTELLECTUAL PROPERTY
  34:Middlewares/ST/STM32_USB_Host_Library/Class/MSC/Src/usbh_msc_bot.c ****   * RIGHTS ARE DISCLAIMED TO THE FULLEST EXTENT PERMITTED BY LAW. IN NO EVENT
  35:Middlewares/ST/STM32_USB_Host_Library/Class/MSC/Src/usbh_msc_bot.c ****   * SHALL STMICROELECTRONICS OR CONTRIBUTORS BE LIABLE FOR ANY DIRECT, INDIRECT,
  36:Middlewares/ST/STM32_USB_Host_Library/Class/MSC/Src/usbh_msc_bot.c ****   * INCIDENTAL, SPECIAL, EXEMPLARY, OR CONSEQUENTIAL DAMAGES (INCLUDING, BUT NOT
  37:Middlewares/ST/STM32_USB_Host_Library/Class/MSC/Src/usbh_msc_bot.c ****   * LIMITED TO, PROCUREMENT OF SUBSTITUTE GOODS OR SERVICES; LOSS OF USE, DATA,
  38:Middlewares/ST/STM32_USB_Host_Library/Class/MSC/Src/usbh_msc_bot.c ****   * OR PROFITS; OR BUSINESS INTERRUPTION) HOWEVER CAUSED AND ON ANY THEORY OF
  39:Middlewares/ST/STM32_USB_Host_Library/Class/MSC/Src/usbh_msc_bot.c ****   * LIABILITY, WHETHER IN CONTRACT, STRICT LIABILITY, OR TORT (INCLUDING
  40:Middlewares/ST/STM32_USB_Host_Library/Class/MSC/Src/usbh_msc_bot.c ****   * NEGLIGENCE OR OTHERWISE) ARISING IN ANY WAY OUT OF THE USE OF THIS SOFTWARE,
  41:Middlewares/ST/STM32_USB_Host_Library/Class/MSC/Src/usbh_msc_bot.c ****   * EVEN IF ADVISED OF THE POSSIBILITY OF SUCH DAMAGE.
  42:Middlewares/ST/STM32_USB_Host_Library/Class/MSC/Src/usbh_msc_bot.c ****   *
  43:Middlewares/ST/STM32_USB_Host_Library/Class/MSC/Src/usbh_msc_bot.c ****   ******************************************************************************
  44:Middlewares/ST/STM32_USB_Host_Library/Class/MSC/Src/usbh_msc_bot.c ****   */
  45:Middlewares/ST/STM32_USB_Host_Library/Class/MSC/Src/usbh_msc_bot.c **** 
  46:Middlewares/ST/STM32_USB_Host_Library/Class/MSC/Src/usbh_msc_bot.c ****   /* BSPDependencies
  47:Middlewares/ST/STM32_USB_Host_Library/Class/MSC/Src/usbh_msc_bot.c ****   - "stm32xxxxx_{eval}{discovery}{nucleo_144}.c"
  48:Middlewares/ST/STM32_USB_Host_Library/Class/MSC/Src/usbh_msc_bot.c ****   - "stm32xxxxx_{eval}{discovery}_io.c"
  49:Middlewares/ST/STM32_USB_Host_Library/Class/MSC/Src/usbh_msc_bot.c ****   - "stm32xxxxx_{eval}{discovery}{adafruit}_lcd.c"
  50:Middlewares/ST/STM32_USB_Host_Library/Class/MSC/Src/usbh_msc_bot.c ****   - "stm32xxxxx_{eval}{discovery}_sdram.c"
  51:Middlewares/ST/STM32_USB_Host_Library/Class/MSC/Src/usbh_msc_bot.c ****   EndBSPDependencies */
  52:Middlewares/ST/STM32_USB_Host_Library/Class/MSC/Src/usbh_msc_bot.c **** 
  53:Middlewares/ST/STM32_USB_Host_Library/Class/MSC/Src/usbh_msc_bot.c **** /* Includes ------------------------------------------------------------------*/
  54:Middlewares/ST/STM32_USB_Host_Library/Class/MSC/Src/usbh_msc_bot.c **** #include "usbh_msc_bot.h"
  55:Middlewares/ST/STM32_USB_Host_Library/Class/MSC/Src/usbh_msc_bot.c **** #include "usbh_msc.h"
  56:Middlewares/ST/STM32_USB_Host_Library/Class/MSC/Src/usbh_msc_bot.c **** 
  57:Middlewares/ST/STM32_USB_Host_Library/Class/MSC/Src/usbh_msc_bot.c **** /** @addtogroup USBH_LIB
  58:Middlewares/ST/STM32_USB_Host_Library/Class/MSC/Src/usbh_msc_bot.c **** * @{
  59:Middlewares/ST/STM32_USB_Host_Library/Class/MSC/Src/usbh_msc_bot.c **** */
  60:Middlewares/ST/STM32_USB_Host_Library/Class/MSC/Src/usbh_msc_bot.c **** 
  61:Middlewares/ST/STM32_USB_Host_Library/Class/MSC/Src/usbh_msc_bot.c **** /** @addtogroup USBH_CLASS
  62:Middlewares/ST/STM32_USB_Host_Library/Class/MSC/Src/usbh_msc_bot.c **** * @{
  63:Middlewares/ST/STM32_USB_Host_Library/Class/MSC/Src/usbh_msc_bot.c **** */
  64:Middlewares/ST/STM32_USB_Host_Library/Class/MSC/Src/usbh_msc_bot.c **** 
  65:Middlewares/ST/STM32_USB_Host_Library/Class/MSC/Src/usbh_msc_bot.c **** /** @addtogroup USBH_MSC_CLASS
  66:Middlewares/ST/STM32_USB_Host_Library/Class/MSC/Src/usbh_msc_bot.c **** * @{
  67:Middlewares/ST/STM32_USB_Host_Library/Class/MSC/Src/usbh_msc_bot.c **** */
  68:Middlewares/ST/STM32_USB_Host_Library/Class/MSC/Src/usbh_msc_bot.c **** 
  69:Middlewares/ST/STM32_USB_Host_Library/Class/MSC/Src/usbh_msc_bot.c **** /** @defgroup USBH_MSC_BOT
  70:Middlewares/ST/STM32_USB_Host_Library/Class/MSC/Src/usbh_msc_bot.c **** * @brief    This file includes the mass storage related functions
  71:Middlewares/ST/STM32_USB_Host_Library/Class/MSC/Src/usbh_msc_bot.c **** * @{
  72:Middlewares/ST/STM32_USB_Host_Library/Class/MSC/Src/usbh_msc_bot.c **** */
  73:Middlewares/ST/STM32_USB_Host_Library/Class/MSC/Src/usbh_msc_bot.c **** 
  74:Middlewares/ST/STM32_USB_Host_Library/Class/MSC/Src/usbh_msc_bot.c **** 
  75:Middlewares/ST/STM32_USB_Host_Library/Class/MSC/Src/usbh_msc_bot.c **** /** @defgroup USBH_MSC_BOT_Private_TypesDefinitions
  76:Middlewares/ST/STM32_USB_Host_Library/Class/MSC/Src/usbh_msc_bot.c **** * @{
  77:Middlewares/ST/STM32_USB_Host_Library/Class/MSC/Src/usbh_msc_bot.c **** */
  78:Middlewares/ST/STM32_USB_Host_Library/Class/MSC/Src/usbh_msc_bot.c **** /**
  79:Middlewares/ST/STM32_USB_Host_Library/Class/MSC/Src/usbh_msc_bot.c **** * @}
  80:Middlewares/ST/STM32_USB_Host_Library/Class/MSC/Src/usbh_msc_bot.c **** */
  81:Middlewares/ST/STM32_USB_Host_Library/Class/MSC/Src/usbh_msc_bot.c **** 
  82:Middlewares/ST/STM32_USB_Host_Library/Class/MSC/Src/usbh_msc_bot.c **** /** @defgroup USBH_MSC_BOT_Private_Defines
  83:Middlewares/ST/STM32_USB_Host_Library/Class/MSC/Src/usbh_msc_bot.c **** * @{
  84:Middlewares/ST/STM32_USB_Host_Library/Class/MSC/Src/usbh_msc_bot.c **** */
  85:Middlewares/ST/STM32_USB_Host_Library/Class/MSC/Src/usbh_msc_bot.c **** /**
  86:Middlewares/ST/STM32_USB_Host_Library/Class/MSC/Src/usbh_msc_bot.c **** * @}
  87:Middlewares/ST/STM32_USB_Host_Library/Class/MSC/Src/usbh_msc_bot.c **** */
  88:Middlewares/ST/STM32_USB_Host_Library/Class/MSC/Src/usbh_msc_bot.c **** 
  89:Middlewares/ST/STM32_USB_Host_Library/Class/MSC/Src/usbh_msc_bot.c **** /** @defgroup USBH_MSC_BOT_Private_Macros
ARM GAS  C:\Users\Patryk\AppData\Local\Temp\ccQkv38E.s 			page 3


  90:Middlewares/ST/STM32_USB_Host_Library/Class/MSC/Src/usbh_msc_bot.c **** * @{
  91:Middlewares/ST/STM32_USB_Host_Library/Class/MSC/Src/usbh_msc_bot.c **** */
  92:Middlewares/ST/STM32_USB_Host_Library/Class/MSC/Src/usbh_msc_bot.c **** /**
  93:Middlewares/ST/STM32_USB_Host_Library/Class/MSC/Src/usbh_msc_bot.c **** * @}
  94:Middlewares/ST/STM32_USB_Host_Library/Class/MSC/Src/usbh_msc_bot.c **** */
  95:Middlewares/ST/STM32_USB_Host_Library/Class/MSC/Src/usbh_msc_bot.c **** 
  96:Middlewares/ST/STM32_USB_Host_Library/Class/MSC/Src/usbh_msc_bot.c **** 
  97:Middlewares/ST/STM32_USB_Host_Library/Class/MSC/Src/usbh_msc_bot.c **** /** @defgroup USBH_MSC_BOT_Private_Variables
  98:Middlewares/ST/STM32_USB_Host_Library/Class/MSC/Src/usbh_msc_bot.c **** * @{
  99:Middlewares/ST/STM32_USB_Host_Library/Class/MSC/Src/usbh_msc_bot.c **** */
 100:Middlewares/ST/STM32_USB_Host_Library/Class/MSC/Src/usbh_msc_bot.c **** 
 101:Middlewares/ST/STM32_USB_Host_Library/Class/MSC/Src/usbh_msc_bot.c **** /**
 102:Middlewares/ST/STM32_USB_Host_Library/Class/MSC/Src/usbh_msc_bot.c **** * @}
 103:Middlewares/ST/STM32_USB_Host_Library/Class/MSC/Src/usbh_msc_bot.c **** */
 104:Middlewares/ST/STM32_USB_Host_Library/Class/MSC/Src/usbh_msc_bot.c **** 
 105:Middlewares/ST/STM32_USB_Host_Library/Class/MSC/Src/usbh_msc_bot.c **** 
 106:Middlewares/ST/STM32_USB_Host_Library/Class/MSC/Src/usbh_msc_bot.c **** /** @defgroup USBH_MSC_BOT_Private_FunctionPrototypes
 107:Middlewares/ST/STM32_USB_Host_Library/Class/MSC/Src/usbh_msc_bot.c **** * @{
 108:Middlewares/ST/STM32_USB_Host_Library/Class/MSC/Src/usbh_msc_bot.c **** */
 109:Middlewares/ST/STM32_USB_Host_Library/Class/MSC/Src/usbh_msc_bot.c **** static USBH_StatusTypeDef USBH_MSC_BOT_Abort(USBH_HandleTypeDef *phost, uint8_t lun, uint8_t dir);
 110:Middlewares/ST/STM32_USB_Host_Library/Class/MSC/Src/usbh_msc_bot.c **** static BOT_CSWStatusTypeDef USBH_MSC_DecodeCSW(USBH_HandleTypeDef *phost);
 111:Middlewares/ST/STM32_USB_Host_Library/Class/MSC/Src/usbh_msc_bot.c **** /**
 112:Middlewares/ST/STM32_USB_Host_Library/Class/MSC/Src/usbh_msc_bot.c **** * @}
 113:Middlewares/ST/STM32_USB_Host_Library/Class/MSC/Src/usbh_msc_bot.c **** */
 114:Middlewares/ST/STM32_USB_Host_Library/Class/MSC/Src/usbh_msc_bot.c **** 
 115:Middlewares/ST/STM32_USB_Host_Library/Class/MSC/Src/usbh_msc_bot.c **** 
 116:Middlewares/ST/STM32_USB_Host_Library/Class/MSC/Src/usbh_msc_bot.c **** /** @defgroup USBH_MSC_BOT_Exported_Variables
 117:Middlewares/ST/STM32_USB_Host_Library/Class/MSC/Src/usbh_msc_bot.c **** * @{
 118:Middlewares/ST/STM32_USB_Host_Library/Class/MSC/Src/usbh_msc_bot.c **** */
 119:Middlewares/ST/STM32_USB_Host_Library/Class/MSC/Src/usbh_msc_bot.c **** /**
 120:Middlewares/ST/STM32_USB_Host_Library/Class/MSC/Src/usbh_msc_bot.c **** * @}
 121:Middlewares/ST/STM32_USB_Host_Library/Class/MSC/Src/usbh_msc_bot.c **** */
 122:Middlewares/ST/STM32_USB_Host_Library/Class/MSC/Src/usbh_msc_bot.c **** 
 123:Middlewares/ST/STM32_USB_Host_Library/Class/MSC/Src/usbh_msc_bot.c **** 
 124:Middlewares/ST/STM32_USB_Host_Library/Class/MSC/Src/usbh_msc_bot.c **** /** @defgroup USBH_MSC_BOT_Private_Functions
 125:Middlewares/ST/STM32_USB_Host_Library/Class/MSC/Src/usbh_msc_bot.c **** * @{
 126:Middlewares/ST/STM32_USB_Host_Library/Class/MSC/Src/usbh_msc_bot.c **** */
 127:Middlewares/ST/STM32_USB_Host_Library/Class/MSC/Src/usbh_msc_bot.c **** 
 128:Middlewares/ST/STM32_USB_Host_Library/Class/MSC/Src/usbh_msc_bot.c **** /**
 129:Middlewares/ST/STM32_USB_Host_Library/Class/MSC/Src/usbh_msc_bot.c ****   * @brief  USBH_MSC_BOT_REQ_Reset
 130:Middlewares/ST/STM32_USB_Host_Library/Class/MSC/Src/usbh_msc_bot.c ****   *         The function the MSC BOT Reset request.
 131:Middlewares/ST/STM32_USB_Host_Library/Class/MSC/Src/usbh_msc_bot.c ****   * @param  phost: Host handle
 132:Middlewares/ST/STM32_USB_Host_Library/Class/MSC/Src/usbh_msc_bot.c ****   * @retval USBH Status
 133:Middlewares/ST/STM32_USB_Host_Library/Class/MSC/Src/usbh_msc_bot.c ****   */
 134:Middlewares/ST/STM32_USB_Host_Library/Class/MSC/Src/usbh_msc_bot.c **** USBH_StatusTypeDef USBH_MSC_BOT_REQ_Reset(USBH_HandleTypeDef *phost)
 135:Middlewares/ST/STM32_USB_Host_Library/Class/MSC/Src/usbh_msc_bot.c **** {
 136:Middlewares/ST/STM32_USB_Host_Library/Class/MSC/Src/usbh_msc_bot.c **** 
 137:Middlewares/ST/STM32_USB_Host_Library/Class/MSC/Src/usbh_msc_bot.c ****   phost->Control.setup.b.bmRequestType = USB_H2D | USB_REQ_TYPE_CLASS
 138:Middlewares/ST/STM32_USB_Host_Library/Class/MSC/Src/usbh_msc_bot.c ****                                                  | USB_REQ_RECIPIENT_INTERFACE;
 139:Middlewares/ST/STM32_USB_Host_Library/Class/MSC/Src/usbh_msc_bot.c **** 
 140:Middlewares/ST/STM32_USB_Host_Library/Class/MSC/Src/usbh_msc_bot.c ****   phost->Control.setup.b.bRequest = USB_REQ_BOT_RESET;
 141:Middlewares/ST/STM32_USB_Host_Library/Class/MSC/Src/usbh_msc_bot.c ****   phost->Control.setup.b.wValue.w = 0U;
 142:Middlewares/ST/STM32_USB_Host_Library/Class/MSC/Src/usbh_msc_bot.c ****   phost->Control.setup.b.wIndex.w = 0U;
 143:Middlewares/ST/STM32_USB_Host_Library/Class/MSC/Src/usbh_msc_bot.c ****   phost->Control.setup.b.wLength.w = 0U;
 144:Middlewares/ST/STM32_USB_Host_Library/Class/MSC/Src/usbh_msc_bot.c **** 
 145:Middlewares/ST/STM32_USB_Host_Library/Class/MSC/Src/usbh_msc_bot.c ****   return USBH_CtlReq(phost, 0U, 0U);
 146:Middlewares/ST/STM32_USB_Host_Library/Class/MSC/Src/usbh_msc_bot.c **** }
ARM GAS  C:\Users\Patryk\AppData\Local\Temp\ccQkv38E.s 			page 4


 147:Middlewares/ST/STM32_USB_Host_Library/Class/MSC/Src/usbh_msc_bot.c **** 
 148:Middlewares/ST/STM32_USB_Host_Library/Class/MSC/Src/usbh_msc_bot.c **** /**
 149:Middlewares/ST/STM32_USB_Host_Library/Class/MSC/Src/usbh_msc_bot.c ****   * @brief  USBH_MSC_BOT_REQ_GetMaxLUN
 150:Middlewares/ST/STM32_USB_Host_Library/Class/MSC/Src/usbh_msc_bot.c ****   *         The function the MSC BOT GetMaxLUN request.
 151:Middlewares/ST/STM32_USB_Host_Library/Class/MSC/Src/usbh_msc_bot.c ****   * @param  phost: Host handle
 152:Middlewares/ST/STM32_USB_Host_Library/Class/MSC/Src/usbh_msc_bot.c ****   * @param  Maxlun: pointer to Maxlun variable
 153:Middlewares/ST/STM32_USB_Host_Library/Class/MSC/Src/usbh_msc_bot.c ****   * @retval USBH Status
 154:Middlewares/ST/STM32_USB_Host_Library/Class/MSC/Src/usbh_msc_bot.c ****   */
 155:Middlewares/ST/STM32_USB_Host_Library/Class/MSC/Src/usbh_msc_bot.c **** USBH_StatusTypeDef USBH_MSC_BOT_REQ_GetMaxLUN(USBH_HandleTypeDef *phost, uint8_t *Maxlun)
 156:Middlewares/ST/STM32_USB_Host_Library/Class/MSC/Src/usbh_msc_bot.c **** {
 157:Middlewares/ST/STM32_USB_Host_Library/Class/MSC/Src/usbh_msc_bot.c ****   phost->Control.setup.b.bmRequestType = USB_D2H | USB_REQ_TYPE_CLASS
 158:Middlewares/ST/STM32_USB_Host_Library/Class/MSC/Src/usbh_msc_bot.c ****                                                  | USB_REQ_RECIPIENT_INTERFACE;
 159:Middlewares/ST/STM32_USB_Host_Library/Class/MSC/Src/usbh_msc_bot.c **** 
 160:Middlewares/ST/STM32_USB_Host_Library/Class/MSC/Src/usbh_msc_bot.c ****   phost->Control.setup.b.bRequest = USB_REQ_GET_MAX_LUN;
 161:Middlewares/ST/STM32_USB_Host_Library/Class/MSC/Src/usbh_msc_bot.c ****   phost->Control.setup.b.wValue.w = 0U;
 162:Middlewares/ST/STM32_USB_Host_Library/Class/MSC/Src/usbh_msc_bot.c ****   phost->Control.setup.b.wIndex.w = 0U;
 163:Middlewares/ST/STM32_USB_Host_Library/Class/MSC/Src/usbh_msc_bot.c ****   phost->Control.setup.b.wLength.w = 1U;
 164:Middlewares/ST/STM32_USB_Host_Library/Class/MSC/Src/usbh_msc_bot.c **** 
 165:Middlewares/ST/STM32_USB_Host_Library/Class/MSC/Src/usbh_msc_bot.c ****   return USBH_CtlReq(phost, Maxlun, 1U);
 166:Middlewares/ST/STM32_USB_Host_Library/Class/MSC/Src/usbh_msc_bot.c **** }
 167:Middlewares/ST/STM32_USB_Host_Library/Class/MSC/Src/usbh_msc_bot.c **** 
 168:Middlewares/ST/STM32_USB_Host_Library/Class/MSC/Src/usbh_msc_bot.c **** 
 169:Middlewares/ST/STM32_USB_Host_Library/Class/MSC/Src/usbh_msc_bot.c **** 
 170:Middlewares/ST/STM32_USB_Host_Library/Class/MSC/Src/usbh_msc_bot.c **** /**
 171:Middlewares/ST/STM32_USB_Host_Library/Class/MSC/Src/usbh_msc_bot.c ****   * @brief  USBH_MSC_BOT_Init
 172:Middlewares/ST/STM32_USB_Host_Library/Class/MSC/Src/usbh_msc_bot.c ****   *         The function Initializes the BOT protocol.
 173:Middlewares/ST/STM32_USB_Host_Library/Class/MSC/Src/usbh_msc_bot.c ****   * @param  phost: Host handle
 174:Middlewares/ST/STM32_USB_Host_Library/Class/MSC/Src/usbh_msc_bot.c ****   * @retval USBH Status
 175:Middlewares/ST/STM32_USB_Host_Library/Class/MSC/Src/usbh_msc_bot.c ****   */
 176:Middlewares/ST/STM32_USB_Host_Library/Class/MSC/Src/usbh_msc_bot.c **** USBH_StatusTypeDef USBH_MSC_BOT_Init(USBH_HandleTypeDef *phost)
 177:Middlewares/ST/STM32_USB_Host_Library/Class/MSC/Src/usbh_msc_bot.c **** {
 178:Middlewares/ST/STM32_USB_Host_Library/Class/MSC/Src/usbh_msc_bot.c **** 
 179:Middlewares/ST/STM32_USB_Host_Library/Class/MSC/Src/usbh_msc_bot.c ****   MSC_HandleTypeDef *MSC_Handle =  (MSC_HandleTypeDef *) phost->pActiveClass->pData;
 180:Middlewares/ST/STM32_USB_Host_Library/Class/MSC/Src/usbh_msc_bot.c **** 
 181:Middlewares/ST/STM32_USB_Host_Library/Class/MSC/Src/usbh_msc_bot.c ****   MSC_Handle->hbot.cbw.field.Signature = BOT_CBW_SIGNATURE;
 182:Middlewares/ST/STM32_USB_Host_Library/Class/MSC/Src/usbh_msc_bot.c ****   MSC_Handle->hbot.cbw.field.Tag = BOT_CBW_TAG;
 183:Middlewares/ST/STM32_USB_Host_Library/Class/MSC/Src/usbh_msc_bot.c ****   MSC_Handle->hbot.state = BOT_SEND_CBW;
 184:Middlewares/ST/STM32_USB_Host_Library/Class/MSC/Src/usbh_msc_bot.c ****   MSC_Handle->hbot.cmd_state = BOT_CMD_SEND;
 185:Middlewares/ST/STM32_USB_Host_Library/Class/MSC/Src/usbh_msc_bot.c **** 
 186:Middlewares/ST/STM32_USB_Host_Library/Class/MSC/Src/usbh_msc_bot.c ****   return USBH_OK;
 187:Middlewares/ST/STM32_USB_Host_Library/Class/MSC/Src/usbh_msc_bot.c **** }
 188:Middlewares/ST/STM32_USB_Host_Library/Class/MSC/Src/usbh_msc_bot.c **** 
 189:Middlewares/ST/STM32_USB_Host_Library/Class/MSC/Src/usbh_msc_bot.c **** 
 190:Middlewares/ST/STM32_USB_Host_Library/Class/MSC/Src/usbh_msc_bot.c **** 
 191:Middlewares/ST/STM32_USB_Host_Library/Class/MSC/Src/usbh_msc_bot.c **** /**
 192:Middlewares/ST/STM32_USB_Host_Library/Class/MSC/Src/usbh_msc_bot.c ****   * @brief  USBH_MSC_BOT_Process
 193:Middlewares/ST/STM32_USB_Host_Library/Class/MSC/Src/usbh_msc_bot.c ****   *         The function handle the BOT protocol.
 194:Middlewares/ST/STM32_USB_Host_Library/Class/MSC/Src/usbh_msc_bot.c ****   * @param  phost: Host handle
 195:Middlewares/ST/STM32_USB_Host_Library/Class/MSC/Src/usbh_msc_bot.c ****   * @param  lun: Logical Unit Number
 196:Middlewares/ST/STM32_USB_Host_Library/Class/MSC/Src/usbh_msc_bot.c ****   * @retval USBH Status
 197:Middlewares/ST/STM32_USB_Host_Library/Class/MSC/Src/usbh_msc_bot.c ****   */
 198:Middlewares/ST/STM32_USB_Host_Library/Class/MSC/Src/usbh_msc_bot.c **** USBH_StatusTypeDef USBH_MSC_BOT_Process (USBH_HandleTypeDef *phost, uint8_t lun)
 199:Middlewares/ST/STM32_USB_Host_Library/Class/MSC/Src/usbh_msc_bot.c **** {
 200:Middlewares/ST/STM32_USB_Host_Library/Class/MSC/Src/usbh_msc_bot.c ****   USBH_StatusTypeDef   status = USBH_BUSY;
 201:Middlewares/ST/STM32_USB_Host_Library/Class/MSC/Src/usbh_msc_bot.c ****   USBH_StatusTypeDef   error  = USBH_BUSY;
 202:Middlewares/ST/STM32_USB_Host_Library/Class/MSC/Src/usbh_msc_bot.c ****   BOT_CSWStatusTypeDef CSW_Status = BOT_CSW_CMD_FAILED;
 203:Middlewares/ST/STM32_USB_Host_Library/Class/MSC/Src/usbh_msc_bot.c ****   USBH_URBStateTypeDef URB_Status = USBH_URB_IDLE;
ARM GAS  C:\Users\Patryk\AppData\Local\Temp\ccQkv38E.s 			page 5


 204:Middlewares/ST/STM32_USB_Host_Library/Class/MSC/Src/usbh_msc_bot.c ****   MSC_HandleTypeDef *MSC_Handle =  (MSC_HandleTypeDef *) phost->pActiveClass->pData;
 205:Middlewares/ST/STM32_USB_Host_Library/Class/MSC/Src/usbh_msc_bot.c ****   uint8_t toggle = 0U;
 206:Middlewares/ST/STM32_USB_Host_Library/Class/MSC/Src/usbh_msc_bot.c **** 
 207:Middlewares/ST/STM32_USB_Host_Library/Class/MSC/Src/usbh_msc_bot.c ****   switch (MSC_Handle->hbot.state)
 208:Middlewares/ST/STM32_USB_Host_Library/Class/MSC/Src/usbh_msc_bot.c ****   {
 209:Middlewares/ST/STM32_USB_Host_Library/Class/MSC/Src/usbh_msc_bot.c ****   case BOT_SEND_CBW:
 210:Middlewares/ST/STM32_USB_Host_Library/Class/MSC/Src/usbh_msc_bot.c ****     MSC_Handle->hbot.cbw.field.LUN = lun;
 211:Middlewares/ST/STM32_USB_Host_Library/Class/MSC/Src/usbh_msc_bot.c ****     MSC_Handle->hbot.state = BOT_SEND_CBW_WAIT;
 212:Middlewares/ST/STM32_USB_Host_Library/Class/MSC/Src/usbh_msc_bot.c ****     USBH_BulkSendData (phost, MSC_Handle->hbot.cbw.data,
 213:Middlewares/ST/STM32_USB_Host_Library/Class/MSC/Src/usbh_msc_bot.c ****                        BOT_CBW_LENGTH, MSC_Handle->OutPipe, 1U);
 214:Middlewares/ST/STM32_USB_Host_Library/Class/MSC/Src/usbh_msc_bot.c **** 
 215:Middlewares/ST/STM32_USB_Host_Library/Class/MSC/Src/usbh_msc_bot.c ****     break;
 216:Middlewares/ST/STM32_USB_Host_Library/Class/MSC/Src/usbh_msc_bot.c **** 
 217:Middlewares/ST/STM32_USB_Host_Library/Class/MSC/Src/usbh_msc_bot.c ****   case BOT_SEND_CBW_WAIT:
 218:Middlewares/ST/STM32_USB_Host_Library/Class/MSC/Src/usbh_msc_bot.c **** 
 219:Middlewares/ST/STM32_USB_Host_Library/Class/MSC/Src/usbh_msc_bot.c ****     URB_Status = USBH_LL_GetURBState(phost, MSC_Handle->OutPipe);
 220:Middlewares/ST/STM32_USB_Host_Library/Class/MSC/Src/usbh_msc_bot.c **** 
 221:Middlewares/ST/STM32_USB_Host_Library/Class/MSC/Src/usbh_msc_bot.c ****     if(URB_Status == USBH_URB_DONE)
 222:Middlewares/ST/STM32_USB_Host_Library/Class/MSC/Src/usbh_msc_bot.c ****     {
 223:Middlewares/ST/STM32_USB_Host_Library/Class/MSC/Src/usbh_msc_bot.c ****       if ( MSC_Handle->hbot.cbw.field.DataTransferLength != 0U)
 224:Middlewares/ST/STM32_USB_Host_Library/Class/MSC/Src/usbh_msc_bot.c ****       {
 225:Middlewares/ST/STM32_USB_Host_Library/Class/MSC/Src/usbh_msc_bot.c ****         /* If there is Data Transfer Stage */
 226:Middlewares/ST/STM32_USB_Host_Library/Class/MSC/Src/usbh_msc_bot.c ****         if (((MSC_Handle->hbot.cbw.field.Flags) & USB_REQ_DIR_MASK) == USB_D2H)
 227:Middlewares/ST/STM32_USB_Host_Library/Class/MSC/Src/usbh_msc_bot.c ****         {
 228:Middlewares/ST/STM32_USB_Host_Library/Class/MSC/Src/usbh_msc_bot.c ****           /* Data Direction is IN */
 229:Middlewares/ST/STM32_USB_Host_Library/Class/MSC/Src/usbh_msc_bot.c ****           MSC_Handle->hbot.state = BOT_DATA_IN;
 230:Middlewares/ST/STM32_USB_Host_Library/Class/MSC/Src/usbh_msc_bot.c ****         }
 231:Middlewares/ST/STM32_USB_Host_Library/Class/MSC/Src/usbh_msc_bot.c ****         else
 232:Middlewares/ST/STM32_USB_Host_Library/Class/MSC/Src/usbh_msc_bot.c ****         {
 233:Middlewares/ST/STM32_USB_Host_Library/Class/MSC/Src/usbh_msc_bot.c ****           /* Data Direction is OUT */
 234:Middlewares/ST/STM32_USB_Host_Library/Class/MSC/Src/usbh_msc_bot.c ****           MSC_Handle->hbot.state = BOT_DATA_OUT;
 235:Middlewares/ST/STM32_USB_Host_Library/Class/MSC/Src/usbh_msc_bot.c ****         }
 236:Middlewares/ST/STM32_USB_Host_Library/Class/MSC/Src/usbh_msc_bot.c ****       }
 237:Middlewares/ST/STM32_USB_Host_Library/Class/MSC/Src/usbh_msc_bot.c **** 
 238:Middlewares/ST/STM32_USB_Host_Library/Class/MSC/Src/usbh_msc_bot.c ****       else
 239:Middlewares/ST/STM32_USB_Host_Library/Class/MSC/Src/usbh_msc_bot.c ****       {/* If there is NO Data Transfer Stage */
 240:Middlewares/ST/STM32_USB_Host_Library/Class/MSC/Src/usbh_msc_bot.c ****         MSC_Handle->hbot.state = BOT_RECEIVE_CSW;
 241:Middlewares/ST/STM32_USB_Host_Library/Class/MSC/Src/usbh_msc_bot.c ****       }
 242:Middlewares/ST/STM32_USB_Host_Library/Class/MSC/Src/usbh_msc_bot.c **** #if (USBH_USE_OS == 1U)
 243:Middlewares/ST/STM32_USB_Host_Library/Class/MSC/Src/usbh_msc_bot.c ****     osMessagePut ( phost->os_event, USBH_URB_EVENT, 0U);
 244:Middlewares/ST/STM32_USB_Host_Library/Class/MSC/Src/usbh_msc_bot.c **** #endif
 245:Middlewares/ST/STM32_USB_Host_Library/Class/MSC/Src/usbh_msc_bot.c **** 
 246:Middlewares/ST/STM32_USB_Host_Library/Class/MSC/Src/usbh_msc_bot.c ****     }
 247:Middlewares/ST/STM32_USB_Host_Library/Class/MSC/Src/usbh_msc_bot.c ****     else if(URB_Status == USBH_URB_NOTREADY)
 248:Middlewares/ST/STM32_USB_Host_Library/Class/MSC/Src/usbh_msc_bot.c ****     {
 249:Middlewares/ST/STM32_USB_Host_Library/Class/MSC/Src/usbh_msc_bot.c ****       /* Re-send CBW */
 250:Middlewares/ST/STM32_USB_Host_Library/Class/MSC/Src/usbh_msc_bot.c ****       MSC_Handle->hbot.state = BOT_SEND_CBW;
 251:Middlewares/ST/STM32_USB_Host_Library/Class/MSC/Src/usbh_msc_bot.c **** #if (USBH_USE_OS == 1U)
 252:Middlewares/ST/STM32_USB_Host_Library/Class/MSC/Src/usbh_msc_bot.c ****     osMessagePut ( phost->os_event, USBH_URB_EVENT, 0U);
 253:Middlewares/ST/STM32_USB_Host_Library/Class/MSC/Src/usbh_msc_bot.c **** #endif
 254:Middlewares/ST/STM32_USB_Host_Library/Class/MSC/Src/usbh_msc_bot.c ****     }
 255:Middlewares/ST/STM32_USB_Host_Library/Class/MSC/Src/usbh_msc_bot.c ****     else
 256:Middlewares/ST/STM32_USB_Host_Library/Class/MSC/Src/usbh_msc_bot.c ****     {
 257:Middlewares/ST/STM32_USB_Host_Library/Class/MSC/Src/usbh_msc_bot.c ****       if(URB_Status == USBH_URB_STALL)
 258:Middlewares/ST/STM32_USB_Host_Library/Class/MSC/Src/usbh_msc_bot.c ****       {
 259:Middlewares/ST/STM32_USB_Host_Library/Class/MSC/Src/usbh_msc_bot.c ****         MSC_Handle->hbot.state  = BOT_ERROR_OUT;
 260:Middlewares/ST/STM32_USB_Host_Library/Class/MSC/Src/usbh_msc_bot.c **** #if (USBH_USE_OS == 1U)
ARM GAS  C:\Users\Patryk\AppData\Local\Temp\ccQkv38E.s 			page 6


 261:Middlewares/ST/STM32_USB_Host_Library/Class/MSC/Src/usbh_msc_bot.c ****         osMessagePut ( phost->os_event, USBH_URB_EVENT, 0U);
 262:Middlewares/ST/STM32_USB_Host_Library/Class/MSC/Src/usbh_msc_bot.c **** #endif
 263:Middlewares/ST/STM32_USB_Host_Library/Class/MSC/Src/usbh_msc_bot.c ****       }
 264:Middlewares/ST/STM32_USB_Host_Library/Class/MSC/Src/usbh_msc_bot.c ****     }
 265:Middlewares/ST/STM32_USB_Host_Library/Class/MSC/Src/usbh_msc_bot.c ****     break;
 266:Middlewares/ST/STM32_USB_Host_Library/Class/MSC/Src/usbh_msc_bot.c **** 
 267:Middlewares/ST/STM32_USB_Host_Library/Class/MSC/Src/usbh_msc_bot.c ****   case BOT_DATA_IN:
 268:Middlewares/ST/STM32_USB_Host_Library/Class/MSC/Src/usbh_msc_bot.c ****     /* Send first packet */
 269:Middlewares/ST/STM32_USB_Host_Library/Class/MSC/Src/usbh_msc_bot.c ****     USBH_BulkReceiveData (phost, MSC_Handle->hbot.pbuf,
 270:Middlewares/ST/STM32_USB_Host_Library/Class/MSC/Src/usbh_msc_bot.c ****                           MSC_Handle->InEpSize, MSC_Handle->InPipe);
 271:Middlewares/ST/STM32_USB_Host_Library/Class/MSC/Src/usbh_msc_bot.c **** 
 272:Middlewares/ST/STM32_USB_Host_Library/Class/MSC/Src/usbh_msc_bot.c ****     MSC_Handle->hbot.state = BOT_DATA_IN_WAIT;
 273:Middlewares/ST/STM32_USB_Host_Library/Class/MSC/Src/usbh_msc_bot.c **** 
 274:Middlewares/ST/STM32_USB_Host_Library/Class/MSC/Src/usbh_msc_bot.c ****     break;
 275:Middlewares/ST/STM32_USB_Host_Library/Class/MSC/Src/usbh_msc_bot.c **** 
 276:Middlewares/ST/STM32_USB_Host_Library/Class/MSC/Src/usbh_msc_bot.c ****   case BOT_DATA_IN_WAIT:
 277:Middlewares/ST/STM32_USB_Host_Library/Class/MSC/Src/usbh_msc_bot.c **** 
 278:Middlewares/ST/STM32_USB_Host_Library/Class/MSC/Src/usbh_msc_bot.c ****     URB_Status = USBH_LL_GetURBState(phost, MSC_Handle->InPipe);
 279:Middlewares/ST/STM32_USB_Host_Library/Class/MSC/Src/usbh_msc_bot.c **** 
 280:Middlewares/ST/STM32_USB_Host_Library/Class/MSC/Src/usbh_msc_bot.c ****     if(URB_Status == USBH_URB_DONE)
 281:Middlewares/ST/STM32_USB_Host_Library/Class/MSC/Src/usbh_msc_bot.c ****     {
 282:Middlewares/ST/STM32_USB_Host_Library/Class/MSC/Src/usbh_msc_bot.c ****       /* Adjust Data pointer and data length */
 283:Middlewares/ST/STM32_USB_Host_Library/Class/MSC/Src/usbh_msc_bot.c ****       if(MSC_Handle->hbot.cbw.field.DataTransferLength > MSC_Handle->InEpSize)
 284:Middlewares/ST/STM32_USB_Host_Library/Class/MSC/Src/usbh_msc_bot.c ****       {
 285:Middlewares/ST/STM32_USB_Host_Library/Class/MSC/Src/usbh_msc_bot.c ****           MSC_Handle->hbot.pbuf += MSC_Handle->InEpSize;
 286:Middlewares/ST/STM32_USB_Host_Library/Class/MSC/Src/usbh_msc_bot.c ****           MSC_Handle->hbot.cbw.field.DataTransferLength -= MSC_Handle->InEpSize;
 287:Middlewares/ST/STM32_USB_Host_Library/Class/MSC/Src/usbh_msc_bot.c ****       }
 288:Middlewares/ST/STM32_USB_Host_Library/Class/MSC/Src/usbh_msc_bot.c ****       else
 289:Middlewares/ST/STM32_USB_Host_Library/Class/MSC/Src/usbh_msc_bot.c ****       {
 290:Middlewares/ST/STM32_USB_Host_Library/Class/MSC/Src/usbh_msc_bot.c ****         MSC_Handle->hbot.cbw.field.DataTransferLength = 0U;
 291:Middlewares/ST/STM32_USB_Host_Library/Class/MSC/Src/usbh_msc_bot.c ****       }
 292:Middlewares/ST/STM32_USB_Host_Library/Class/MSC/Src/usbh_msc_bot.c **** 
 293:Middlewares/ST/STM32_USB_Host_Library/Class/MSC/Src/usbh_msc_bot.c ****       /* More Data To be Received */
 294:Middlewares/ST/STM32_USB_Host_Library/Class/MSC/Src/usbh_msc_bot.c ****       if(MSC_Handle->hbot.cbw.field.DataTransferLength > 0U)
 295:Middlewares/ST/STM32_USB_Host_Library/Class/MSC/Src/usbh_msc_bot.c ****       {
 296:Middlewares/ST/STM32_USB_Host_Library/Class/MSC/Src/usbh_msc_bot.c ****         /* Send next packet */
 297:Middlewares/ST/STM32_USB_Host_Library/Class/MSC/Src/usbh_msc_bot.c ****         USBH_BulkReceiveData (phost, MSC_Handle->hbot.pbuf,
 298:Middlewares/ST/STM32_USB_Host_Library/Class/MSC/Src/usbh_msc_bot.c ****                               MSC_Handle->InEpSize, MSC_Handle->InPipe);
 299:Middlewares/ST/STM32_USB_Host_Library/Class/MSC/Src/usbh_msc_bot.c ****       }
 300:Middlewares/ST/STM32_USB_Host_Library/Class/MSC/Src/usbh_msc_bot.c ****       else
 301:Middlewares/ST/STM32_USB_Host_Library/Class/MSC/Src/usbh_msc_bot.c ****       {
 302:Middlewares/ST/STM32_USB_Host_Library/Class/MSC/Src/usbh_msc_bot.c ****         /* If value was 0, and successful transfer, then change the state */
 303:Middlewares/ST/STM32_USB_Host_Library/Class/MSC/Src/usbh_msc_bot.c ****         MSC_Handle->hbot.state  = BOT_RECEIVE_CSW;
 304:Middlewares/ST/STM32_USB_Host_Library/Class/MSC/Src/usbh_msc_bot.c **** #if (USBH_USE_OS == 1U)
 305:Middlewares/ST/STM32_USB_Host_Library/Class/MSC/Src/usbh_msc_bot.c ****         osMessagePut (phost->os_event, USBH_URB_EVENT, 0U);
 306:Middlewares/ST/STM32_USB_Host_Library/Class/MSC/Src/usbh_msc_bot.c **** #endif
 307:Middlewares/ST/STM32_USB_Host_Library/Class/MSC/Src/usbh_msc_bot.c ****       }
 308:Middlewares/ST/STM32_USB_Host_Library/Class/MSC/Src/usbh_msc_bot.c ****     }
 309:Middlewares/ST/STM32_USB_Host_Library/Class/MSC/Src/usbh_msc_bot.c ****     else if(URB_Status == USBH_URB_STALL)
 310:Middlewares/ST/STM32_USB_Host_Library/Class/MSC/Src/usbh_msc_bot.c ****     {
 311:Middlewares/ST/STM32_USB_Host_Library/Class/MSC/Src/usbh_msc_bot.c ****       /* This is Data IN Stage STALL Condition */
 312:Middlewares/ST/STM32_USB_Host_Library/Class/MSC/Src/usbh_msc_bot.c ****       MSC_Handle->hbot.state  = BOT_ERROR_IN;
 313:Middlewares/ST/STM32_USB_Host_Library/Class/MSC/Src/usbh_msc_bot.c **** 
 314:Middlewares/ST/STM32_USB_Host_Library/Class/MSC/Src/usbh_msc_bot.c ****       /* Refer to USB Mass-Storage Class : BOT (www.usb.org)
 315:Middlewares/ST/STM32_USB_Host_Library/Class/MSC/Src/usbh_msc_bot.c ****       6.7.2 Host expects to receive data from the device
 316:Middlewares/ST/STM32_USB_Host_Library/Class/MSC/Src/usbh_msc_bot.c ****       3. On a STALL condition receiving data, then:
 317:Middlewares/ST/STM32_USB_Host_Library/Class/MSC/Src/usbh_msc_bot.c ****       The host shall accept the data received.
ARM GAS  C:\Users\Patryk\AppData\Local\Temp\ccQkv38E.s 			page 7


 318:Middlewares/ST/STM32_USB_Host_Library/Class/MSC/Src/usbh_msc_bot.c ****       The host shall clear the Bulk-In pipe.
 319:Middlewares/ST/STM32_USB_Host_Library/Class/MSC/Src/usbh_msc_bot.c ****       4. The host shall attempt to receive a CSW.*/
 320:Middlewares/ST/STM32_USB_Host_Library/Class/MSC/Src/usbh_msc_bot.c **** 
 321:Middlewares/ST/STM32_USB_Host_Library/Class/MSC/Src/usbh_msc_bot.c **** #if (USBH_USE_OS == 1U)
 322:Middlewares/ST/STM32_USB_Host_Library/Class/MSC/Src/usbh_msc_bot.c ****     osMessagePut (phost->os_event, USBH_URB_EVENT, 0U);
 323:Middlewares/ST/STM32_USB_Host_Library/Class/MSC/Src/usbh_msc_bot.c **** #endif
 324:Middlewares/ST/STM32_USB_Host_Library/Class/MSC/Src/usbh_msc_bot.c ****     }
 325:Middlewares/ST/STM32_USB_Host_Library/Class/MSC/Src/usbh_msc_bot.c ****     else
 326:Middlewares/ST/STM32_USB_Host_Library/Class/MSC/Src/usbh_msc_bot.c ****     {
 327:Middlewares/ST/STM32_USB_Host_Library/Class/MSC/Src/usbh_msc_bot.c ****     }
 328:Middlewares/ST/STM32_USB_Host_Library/Class/MSC/Src/usbh_msc_bot.c ****     break;
 329:Middlewares/ST/STM32_USB_Host_Library/Class/MSC/Src/usbh_msc_bot.c **** 
 330:Middlewares/ST/STM32_USB_Host_Library/Class/MSC/Src/usbh_msc_bot.c ****   case BOT_DATA_OUT:
 331:Middlewares/ST/STM32_USB_Host_Library/Class/MSC/Src/usbh_msc_bot.c **** 
 332:Middlewares/ST/STM32_USB_Host_Library/Class/MSC/Src/usbh_msc_bot.c ****     USBH_BulkSendData (phost, MSC_Handle->hbot.pbuf,
 333:Middlewares/ST/STM32_USB_Host_Library/Class/MSC/Src/usbh_msc_bot.c ****                        MSC_Handle->OutEpSize, MSC_Handle->OutPipe, 1U);
 334:Middlewares/ST/STM32_USB_Host_Library/Class/MSC/Src/usbh_msc_bot.c **** 
 335:Middlewares/ST/STM32_USB_Host_Library/Class/MSC/Src/usbh_msc_bot.c ****     MSC_Handle->hbot.state  = BOT_DATA_OUT_WAIT;
 336:Middlewares/ST/STM32_USB_Host_Library/Class/MSC/Src/usbh_msc_bot.c ****     break;
 337:Middlewares/ST/STM32_USB_Host_Library/Class/MSC/Src/usbh_msc_bot.c **** 
 338:Middlewares/ST/STM32_USB_Host_Library/Class/MSC/Src/usbh_msc_bot.c ****   case BOT_DATA_OUT_WAIT:
 339:Middlewares/ST/STM32_USB_Host_Library/Class/MSC/Src/usbh_msc_bot.c ****     URB_Status = USBH_LL_GetURBState(phost, MSC_Handle->OutPipe);
 340:Middlewares/ST/STM32_USB_Host_Library/Class/MSC/Src/usbh_msc_bot.c **** 
 341:Middlewares/ST/STM32_USB_Host_Library/Class/MSC/Src/usbh_msc_bot.c ****     if(URB_Status == USBH_URB_DONE)
 342:Middlewares/ST/STM32_USB_Host_Library/Class/MSC/Src/usbh_msc_bot.c ****     {
 343:Middlewares/ST/STM32_USB_Host_Library/Class/MSC/Src/usbh_msc_bot.c ****       /* Adjust Data pointer and data length */
 344:Middlewares/ST/STM32_USB_Host_Library/Class/MSC/Src/usbh_msc_bot.c ****       if(MSC_Handle->hbot.cbw.field.DataTransferLength > MSC_Handle->OutEpSize)
 345:Middlewares/ST/STM32_USB_Host_Library/Class/MSC/Src/usbh_msc_bot.c ****       {
 346:Middlewares/ST/STM32_USB_Host_Library/Class/MSC/Src/usbh_msc_bot.c ****           MSC_Handle->hbot.pbuf += MSC_Handle->OutEpSize;
 347:Middlewares/ST/STM32_USB_Host_Library/Class/MSC/Src/usbh_msc_bot.c ****           MSC_Handle->hbot.cbw.field.DataTransferLength -= MSC_Handle->OutEpSize;
 348:Middlewares/ST/STM32_USB_Host_Library/Class/MSC/Src/usbh_msc_bot.c ****       }
 349:Middlewares/ST/STM32_USB_Host_Library/Class/MSC/Src/usbh_msc_bot.c ****       else
 350:Middlewares/ST/STM32_USB_Host_Library/Class/MSC/Src/usbh_msc_bot.c ****       {
 351:Middlewares/ST/STM32_USB_Host_Library/Class/MSC/Src/usbh_msc_bot.c ****         MSC_Handle->hbot.cbw.field.DataTransferLength = 0U;
 352:Middlewares/ST/STM32_USB_Host_Library/Class/MSC/Src/usbh_msc_bot.c ****       }
 353:Middlewares/ST/STM32_USB_Host_Library/Class/MSC/Src/usbh_msc_bot.c **** 
 354:Middlewares/ST/STM32_USB_Host_Library/Class/MSC/Src/usbh_msc_bot.c ****       /* More Data To be Sent */
 355:Middlewares/ST/STM32_USB_Host_Library/Class/MSC/Src/usbh_msc_bot.c ****       if(MSC_Handle->hbot.cbw.field.DataTransferLength > 0U)
 356:Middlewares/ST/STM32_USB_Host_Library/Class/MSC/Src/usbh_msc_bot.c ****       {
 357:Middlewares/ST/STM32_USB_Host_Library/Class/MSC/Src/usbh_msc_bot.c ****         USBH_BulkSendData (phost, MSC_Handle->hbot.pbuf,
 358:Middlewares/ST/STM32_USB_Host_Library/Class/MSC/Src/usbh_msc_bot.c ****                            MSC_Handle->OutEpSize, MSC_Handle->OutPipe, 1U);
 359:Middlewares/ST/STM32_USB_Host_Library/Class/MSC/Src/usbh_msc_bot.c ****       }
 360:Middlewares/ST/STM32_USB_Host_Library/Class/MSC/Src/usbh_msc_bot.c ****       else
 361:Middlewares/ST/STM32_USB_Host_Library/Class/MSC/Src/usbh_msc_bot.c ****       {
 362:Middlewares/ST/STM32_USB_Host_Library/Class/MSC/Src/usbh_msc_bot.c ****         /* If value was 0, and successful transfer, then change the state */
 363:Middlewares/ST/STM32_USB_Host_Library/Class/MSC/Src/usbh_msc_bot.c ****         MSC_Handle->hbot.state  = BOT_RECEIVE_CSW;
 364:Middlewares/ST/STM32_USB_Host_Library/Class/MSC/Src/usbh_msc_bot.c ****       }
 365:Middlewares/ST/STM32_USB_Host_Library/Class/MSC/Src/usbh_msc_bot.c **** #if (USBH_USE_OS == 1U)
 366:Middlewares/ST/STM32_USB_Host_Library/Class/MSC/Src/usbh_msc_bot.c ****     osMessagePut (phost->os_event, USBH_URB_EVENT, 0U);
 367:Middlewares/ST/STM32_USB_Host_Library/Class/MSC/Src/usbh_msc_bot.c **** #endif
 368:Middlewares/ST/STM32_USB_Host_Library/Class/MSC/Src/usbh_msc_bot.c ****     }
 369:Middlewares/ST/STM32_USB_Host_Library/Class/MSC/Src/usbh_msc_bot.c **** 
 370:Middlewares/ST/STM32_USB_Host_Library/Class/MSC/Src/usbh_msc_bot.c ****     else if(URB_Status == USBH_URB_NOTREADY)
 371:Middlewares/ST/STM32_USB_Host_Library/Class/MSC/Src/usbh_msc_bot.c ****     {
 372:Middlewares/ST/STM32_USB_Host_Library/Class/MSC/Src/usbh_msc_bot.c ****       /* Resend same data */
 373:Middlewares/ST/STM32_USB_Host_Library/Class/MSC/Src/usbh_msc_bot.c ****       MSC_Handle->hbot.state  = BOT_DATA_OUT;
 374:Middlewares/ST/STM32_USB_Host_Library/Class/MSC/Src/usbh_msc_bot.c **** #if (USBH_USE_OS == 1U)
ARM GAS  C:\Users\Patryk\AppData\Local\Temp\ccQkv38E.s 			page 8


 375:Middlewares/ST/STM32_USB_Host_Library/Class/MSC/Src/usbh_msc_bot.c ****     osMessagePut ( phost->os_event, USBH_URB_EVENT, 0U);
 376:Middlewares/ST/STM32_USB_Host_Library/Class/MSC/Src/usbh_msc_bot.c **** #endif
 377:Middlewares/ST/STM32_USB_Host_Library/Class/MSC/Src/usbh_msc_bot.c ****     }
 378:Middlewares/ST/STM32_USB_Host_Library/Class/MSC/Src/usbh_msc_bot.c **** 
 379:Middlewares/ST/STM32_USB_Host_Library/Class/MSC/Src/usbh_msc_bot.c ****     else if(URB_Status == USBH_URB_STALL)
 380:Middlewares/ST/STM32_USB_Host_Library/Class/MSC/Src/usbh_msc_bot.c ****     {
 381:Middlewares/ST/STM32_USB_Host_Library/Class/MSC/Src/usbh_msc_bot.c ****       MSC_Handle->hbot.state  = BOT_ERROR_OUT;
 382:Middlewares/ST/STM32_USB_Host_Library/Class/MSC/Src/usbh_msc_bot.c **** 
 383:Middlewares/ST/STM32_USB_Host_Library/Class/MSC/Src/usbh_msc_bot.c ****       /* Refer to USB Mass-Storage Class : BOT (www.usb.org)
 384:Middlewares/ST/STM32_USB_Host_Library/Class/MSC/Src/usbh_msc_bot.c ****       6.7.3 Ho - Host expects to send data to the device
 385:Middlewares/ST/STM32_USB_Host_Library/Class/MSC/Src/usbh_msc_bot.c ****       3. On a STALL condition sending data, then:
 386:Middlewares/ST/STM32_USB_Host_Library/Class/MSC/Src/usbh_msc_bot.c ****       " The host shall clear the Bulk-Out pipe.
 387:Middlewares/ST/STM32_USB_Host_Library/Class/MSC/Src/usbh_msc_bot.c ****       4. The host shall attempt to receive a CSW.
 388:Middlewares/ST/STM32_USB_Host_Library/Class/MSC/Src/usbh_msc_bot.c ****       */
 389:Middlewares/ST/STM32_USB_Host_Library/Class/MSC/Src/usbh_msc_bot.c **** #if (USBH_USE_OS == 1U)
 390:Middlewares/ST/STM32_USB_Host_Library/Class/MSC/Src/usbh_msc_bot.c ****       osMessagePut ( phost->os_event, USBH_URB_EVENT, 0U);
 391:Middlewares/ST/STM32_USB_Host_Library/Class/MSC/Src/usbh_msc_bot.c **** #endif
 392:Middlewares/ST/STM32_USB_Host_Library/Class/MSC/Src/usbh_msc_bot.c ****     }
 393:Middlewares/ST/STM32_USB_Host_Library/Class/MSC/Src/usbh_msc_bot.c ****     else
 394:Middlewares/ST/STM32_USB_Host_Library/Class/MSC/Src/usbh_msc_bot.c ****     {
 395:Middlewares/ST/STM32_USB_Host_Library/Class/MSC/Src/usbh_msc_bot.c ****     }
 396:Middlewares/ST/STM32_USB_Host_Library/Class/MSC/Src/usbh_msc_bot.c ****     break;
 397:Middlewares/ST/STM32_USB_Host_Library/Class/MSC/Src/usbh_msc_bot.c **** 
 398:Middlewares/ST/STM32_USB_Host_Library/Class/MSC/Src/usbh_msc_bot.c ****   case BOT_RECEIVE_CSW:
 399:Middlewares/ST/STM32_USB_Host_Library/Class/MSC/Src/usbh_msc_bot.c **** 
 400:Middlewares/ST/STM32_USB_Host_Library/Class/MSC/Src/usbh_msc_bot.c ****     USBH_BulkReceiveData (phost, MSC_Handle->hbot.csw.data,
 401:Middlewares/ST/STM32_USB_Host_Library/Class/MSC/Src/usbh_msc_bot.c ****                           BOT_CSW_LENGTH, MSC_Handle->InPipe);
 402:Middlewares/ST/STM32_USB_Host_Library/Class/MSC/Src/usbh_msc_bot.c **** 
 403:Middlewares/ST/STM32_USB_Host_Library/Class/MSC/Src/usbh_msc_bot.c ****     MSC_Handle->hbot.state  = BOT_RECEIVE_CSW_WAIT;
 404:Middlewares/ST/STM32_USB_Host_Library/Class/MSC/Src/usbh_msc_bot.c ****     break;
 405:Middlewares/ST/STM32_USB_Host_Library/Class/MSC/Src/usbh_msc_bot.c **** 
 406:Middlewares/ST/STM32_USB_Host_Library/Class/MSC/Src/usbh_msc_bot.c ****   case BOT_RECEIVE_CSW_WAIT:
 407:Middlewares/ST/STM32_USB_Host_Library/Class/MSC/Src/usbh_msc_bot.c **** 
 408:Middlewares/ST/STM32_USB_Host_Library/Class/MSC/Src/usbh_msc_bot.c ****     URB_Status = USBH_LL_GetURBState(phost, MSC_Handle->InPipe);
 409:Middlewares/ST/STM32_USB_Host_Library/Class/MSC/Src/usbh_msc_bot.c **** 
 410:Middlewares/ST/STM32_USB_Host_Library/Class/MSC/Src/usbh_msc_bot.c ****     /* Decode CSW */
 411:Middlewares/ST/STM32_USB_Host_Library/Class/MSC/Src/usbh_msc_bot.c ****     if(URB_Status == USBH_URB_DONE)
 412:Middlewares/ST/STM32_USB_Host_Library/Class/MSC/Src/usbh_msc_bot.c ****     {
 413:Middlewares/ST/STM32_USB_Host_Library/Class/MSC/Src/usbh_msc_bot.c ****       MSC_Handle->hbot.state = BOT_SEND_CBW;
 414:Middlewares/ST/STM32_USB_Host_Library/Class/MSC/Src/usbh_msc_bot.c ****       MSC_Handle->hbot.cmd_state = BOT_CMD_SEND;
 415:Middlewares/ST/STM32_USB_Host_Library/Class/MSC/Src/usbh_msc_bot.c ****       CSW_Status = USBH_MSC_DecodeCSW(phost);
 416:Middlewares/ST/STM32_USB_Host_Library/Class/MSC/Src/usbh_msc_bot.c **** 
 417:Middlewares/ST/STM32_USB_Host_Library/Class/MSC/Src/usbh_msc_bot.c ****       if(CSW_Status == BOT_CSW_CMD_PASSED)
 418:Middlewares/ST/STM32_USB_Host_Library/Class/MSC/Src/usbh_msc_bot.c ****       {
 419:Middlewares/ST/STM32_USB_Host_Library/Class/MSC/Src/usbh_msc_bot.c ****         status = USBH_OK;
 420:Middlewares/ST/STM32_USB_Host_Library/Class/MSC/Src/usbh_msc_bot.c ****       }
 421:Middlewares/ST/STM32_USB_Host_Library/Class/MSC/Src/usbh_msc_bot.c ****       else
 422:Middlewares/ST/STM32_USB_Host_Library/Class/MSC/Src/usbh_msc_bot.c ****       {
 423:Middlewares/ST/STM32_USB_Host_Library/Class/MSC/Src/usbh_msc_bot.c ****         status = USBH_FAIL;
 424:Middlewares/ST/STM32_USB_Host_Library/Class/MSC/Src/usbh_msc_bot.c ****       }
 425:Middlewares/ST/STM32_USB_Host_Library/Class/MSC/Src/usbh_msc_bot.c **** #if (USBH_USE_OS == 1U)
 426:Middlewares/ST/STM32_USB_Host_Library/Class/MSC/Src/usbh_msc_bot.c ****       osMessagePut (phost->os_event, USBH_URB_EVENT, 0U);
 427:Middlewares/ST/STM32_USB_Host_Library/Class/MSC/Src/usbh_msc_bot.c **** #endif
 428:Middlewares/ST/STM32_USB_Host_Library/Class/MSC/Src/usbh_msc_bot.c ****     }
 429:Middlewares/ST/STM32_USB_Host_Library/Class/MSC/Src/usbh_msc_bot.c ****     else if(URB_Status == USBH_URB_STALL)
 430:Middlewares/ST/STM32_USB_Host_Library/Class/MSC/Src/usbh_msc_bot.c ****     {
 431:Middlewares/ST/STM32_USB_Host_Library/Class/MSC/Src/usbh_msc_bot.c ****       MSC_Handle->hbot.state  = BOT_ERROR_IN;
ARM GAS  C:\Users\Patryk\AppData\Local\Temp\ccQkv38E.s 			page 9


 432:Middlewares/ST/STM32_USB_Host_Library/Class/MSC/Src/usbh_msc_bot.c **** #if (USBH_USE_OS == 1U)
 433:Middlewares/ST/STM32_USB_Host_Library/Class/MSC/Src/usbh_msc_bot.c ****       osMessagePut (phost->os_event, USBH_URB_EVENT, 0U);
 434:Middlewares/ST/STM32_USB_Host_Library/Class/MSC/Src/usbh_msc_bot.c **** #endif
 435:Middlewares/ST/STM32_USB_Host_Library/Class/MSC/Src/usbh_msc_bot.c ****     }
 436:Middlewares/ST/STM32_USB_Host_Library/Class/MSC/Src/usbh_msc_bot.c ****     else
 437:Middlewares/ST/STM32_USB_Host_Library/Class/MSC/Src/usbh_msc_bot.c ****     {
 438:Middlewares/ST/STM32_USB_Host_Library/Class/MSC/Src/usbh_msc_bot.c ****     }
 439:Middlewares/ST/STM32_USB_Host_Library/Class/MSC/Src/usbh_msc_bot.c ****     break;
 440:Middlewares/ST/STM32_USB_Host_Library/Class/MSC/Src/usbh_msc_bot.c **** 
 441:Middlewares/ST/STM32_USB_Host_Library/Class/MSC/Src/usbh_msc_bot.c ****   case BOT_ERROR_IN:
 442:Middlewares/ST/STM32_USB_Host_Library/Class/MSC/Src/usbh_msc_bot.c ****     error = USBH_MSC_BOT_Abort(phost, lun, BOT_DIR_IN);
 443:Middlewares/ST/STM32_USB_Host_Library/Class/MSC/Src/usbh_msc_bot.c **** 
 444:Middlewares/ST/STM32_USB_Host_Library/Class/MSC/Src/usbh_msc_bot.c ****     if (error == USBH_OK)
 445:Middlewares/ST/STM32_USB_Host_Library/Class/MSC/Src/usbh_msc_bot.c ****     {
 446:Middlewares/ST/STM32_USB_Host_Library/Class/MSC/Src/usbh_msc_bot.c ****       MSC_Handle->hbot.state = BOT_RECEIVE_CSW;
 447:Middlewares/ST/STM32_USB_Host_Library/Class/MSC/Src/usbh_msc_bot.c ****     }
 448:Middlewares/ST/STM32_USB_Host_Library/Class/MSC/Src/usbh_msc_bot.c ****     else if (error == USBH_UNRECOVERED_ERROR)
 449:Middlewares/ST/STM32_USB_Host_Library/Class/MSC/Src/usbh_msc_bot.c ****     {
 450:Middlewares/ST/STM32_USB_Host_Library/Class/MSC/Src/usbh_msc_bot.c ****       /* This means that there is a STALL Error limit, Do Reset Recovery */
 451:Middlewares/ST/STM32_USB_Host_Library/Class/MSC/Src/usbh_msc_bot.c ****       MSC_Handle->hbot.state = BOT_UNRECOVERED_ERROR;
 452:Middlewares/ST/STM32_USB_Host_Library/Class/MSC/Src/usbh_msc_bot.c ****     }
 453:Middlewares/ST/STM32_USB_Host_Library/Class/MSC/Src/usbh_msc_bot.c ****     else
 454:Middlewares/ST/STM32_USB_Host_Library/Class/MSC/Src/usbh_msc_bot.c ****     {
 455:Middlewares/ST/STM32_USB_Host_Library/Class/MSC/Src/usbh_msc_bot.c ****     }
 456:Middlewares/ST/STM32_USB_Host_Library/Class/MSC/Src/usbh_msc_bot.c ****     break;
 457:Middlewares/ST/STM32_USB_Host_Library/Class/MSC/Src/usbh_msc_bot.c **** 
 458:Middlewares/ST/STM32_USB_Host_Library/Class/MSC/Src/usbh_msc_bot.c ****   case BOT_ERROR_OUT:
 459:Middlewares/ST/STM32_USB_Host_Library/Class/MSC/Src/usbh_msc_bot.c ****     error = USBH_MSC_BOT_Abort(phost, lun, BOT_DIR_OUT);
 460:Middlewares/ST/STM32_USB_Host_Library/Class/MSC/Src/usbh_msc_bot.c **** 
 461:Middlewares/ST/STM32_USB_Host_Library/Class/MSC/Src/usbh_msc_bot.c ****     if (error == USBH_OK)
 462:Middlewares/ST/STM32_USB_Host_Library/Class/MSC/Src/usbh_msc_bot.c ****     {
 463:Middlewares/ST/STM32_USB_Host_Library/Class/MSC/Src/usbh_msc_bot.c **** 
 464:Middlewares/ST/STM32_USB_Host_Library/Class/MSC/Src/usbh_msc_bot.c ****       toggle = USBH_LL_GetToggle(phost, MSC_Handle->OutPipe);
 465:Middlewares/ST/STM32_USB_Host_Library/Class/MSC/Src/usbh_msc_bot.c ****       USBH_LL_SetToggle(phost, MSC_Handle->OutPipe, 1U - toggle);
 466:Middlewares/ST/STM32_USB_Host_Library/Class/MSC/Src/usbh_msc_bot.c ****       USBH_LL_SetToggle(phost, MSC_Handle->InPipe, 0U);
 467:Middlewares/ST/STM32_USB_Host_Library/Class/MSC/Src/usbh_msc_bot.c ****       MSC_Handle->hbot.state = BOT_ERROR_IN;
 468:Middlewares/ST/STM32_USB_Host_Library/Class/MSC/Src/usbh_msc_bot.c ****     }
 469:Middlewares/ST/STM32_USB_Host_Library/Class/MSC/Src/usbh_msc_bot.c ****     else
 470:Middlewares/ST/STM32_USB_Host_Library/Class/MSC/Src/usbh_msc_bot.c ****     {
 471:Middlewares/ST/STM32_USB_Host_Library/Class/MSC/Src/usbh_msc_bot.c ****       if (error == USBH_UNRECOVERED_ERROR)
 472:Middlewares/ST/STM32_USB_Host_Library/Class/MSC/Src/usbh_msc_bot.c ****       {
 473:Middlewares/ST/STM32_USB_Host_Library/Class/MSC/Src/usbh_msc_bot.c ****         MSC_Handle->hbot.state = BOT_UNRECOVERED_ERROR;
 474:Middlewares/ST/STM32_USB_Host_Library/Class/MSC/Src/usbh_msc_bot.c ****       }
 475:Middlewares/ST/STM32_USB_Host_Library/Class/MSC/Src/usbh_msc_bot.c ****     }
 476:Middlewares/ST/STM32_USB_Host_Library/Class/MSC/Src/usbh_msc_bot.c ****     break;
 477:Middlewares/ST/STM32_USB_Host_Library/Class/MSC/Src/usbh_msc_bot.c **** 
 478:Middlewares/ST/STM32_USB_Host_Library/Class/MSC/Src/usbh_msc_bot.c **** 
 479:Middlewares/ST/STM32_USB_Host_Library/Class/MSC/Src/usbh_msc_bot.c ****   case BOT_UNRECOVERED_ERROR:
 480:Middlewares/ST/STM32_USB_Host_Library/Class/MSC/Src/usbh_msc_bot.c ****     status = USBH_MSC_BOT_REQ_Reset(phost);
 481:Middlewares/ST/STM32_USB_Host_Library/Class/MSC/Src/usbh_msc_bot.c ****     if ( status == USBH_OK)
 482:Middlewares/ST/STM32_USB_Host_Library/Class/MSC/Src/usbh_msc_bot.c ****     {
 483:Middlewares/ST/STM32_USB_Host_Library/Class/MSC/Src/usbh_msc_bot.c ****       MSC_Handle->hbot.state = BOT_SEND_CBW;
 484:Middlewares/ST/STM32_USB_Host_Library/Class/MSC/Src/usbh_msc_bot.c ****     }
 485:Middlewares/ST/STM32_USB_Host_Library/Class/MSC/Src/usbh_msc_bot.c ****     break;
 486:Middlewares/ST/STM32_USB_Host_Library/Class/MSC/Src/usbh_msc_bot.c **** 
 487:Middlewares/ST/STM32_USB_Host_Library/Class/MSC/Src/usbh_msc_bot.c ****   default:
 488:Middlewares/ST/STM32_USB_Host_Library/Class/MSC/Src/usbh_msc_bot.c ****     break;
ARM GAS  C:\Users\Patryk\AppData\Local\Temp\ccQkv38E.s 			page 10


 489:Middlewares/ST/STM32_USB_Host_Library/Class/MSC/Src/usbh_msc_bot.c ****   }
 490:Middlewares/ST/STM32_USB_Host_Library/Class/MSC/Src/usbh_msc_bot.c ****   return status;
 491:Middlewares/ST/STM32_USB_Host_Library/Class/MSC/Src/usbh_msc_bot.c **** }
 492:Middlewares/ST/STM32_USB_Host_Library/Class/MSC/Src/usbh_msc_bot.c **** 
 493:Middlewares/ST/STM32_USB_Host_Library/Class/MSC/Src/usbh_msc_bot.c **** /**
 494:Middlewares/ST/STM32_USB_Host_Library/Class/MSC/Src/usbh_msc_bot.c ****   * @brief  USBH_MSC_BOT_Abort
 495:Middlewares/ST/STM32_USB_Host_Library/Class/MSC/Src/usbh_msc_bot.c ****   *         The function handle the BOT Abort process.
 496:Middlewares/ST/STM32_USB_Host_Library/Class/MSC/Src/usbh_msc_bot.c ****   * @param  phost: Host handle
 497:Middlewares/ST/STM32_USB_Host_Library/Class/MSC/Src/usbh_msc_bot.c ****   * @param  lun: Logical Unit Number
 498:Middlewares/ST/STM32_USB_Host_Library/Class/MSC/Src/usbh_msc_bot.c ****   * @param  dir: direction (0: out / 1 : in)
 499:Middlewares/ST/STM32_USB_Host_Library/Class/MSC/Src/usbh_msc_bot.c ****   * @retval USBH Status
 500:Middlewares/ST/STM32_USB_Host_Library/Class/MSC/Src/usbh_msc_bot.c ****   */
 501:Middlewares/ST/STM32_USB_Host_Library/Class/MSC/Src/usbh_msc_bot.c **** static USBH_StatusTypeDef USBH_MSC_BOT_Abort(USBH_HandleTypeDef *phost, uint8_t lun, uint8_t dir)
 502:Middlewares/ST/STM32_USB_Host_Library/Class/MSC/Src/usbh_msc_bot.c **** {
 503:Middlewares/ST/STM32_USB_Host_Library/Class/MSC/Src/usbh_msc_bot.c ****   USBH_StatusTypeDef status = USBH_FAIL;
 504:Middlewares/ST/STM32_USB_Host_Library/Class/MSC/Src/usbh_msc_bot.c ****   MSC_HandleTypeDef *MSC_Handle =  (MSC_HandleTypeDef *) phost->pActiveClass->pData;
 505:Middlewares/ST/STM32_USB_Host_Library/Class/MSC/Src/usbh_msc_bot.c **** 
 506:Middlewares/ST/STM32_USB_Host_Library/Class/MSC/Src/usbh_msc_bot.c ****   switch (dir)
 507:Middlewares/ST/STM32_USB_Host_Library/Class/MSC/Src/usbh_msc_bot.c ****   {
 508:Middlewares/ST/STM32_USB_Host_Library/Class/MSC/Src/usbh_msc_bot.c ****   case BOT_DIR_IN :
 509:Middlewares/ST/STM32_USB_Host_Library/Class/MSC/Src/usbh_msc_bot.c ****     /* send ClrFeture on Bulk IN endpoint */
 510:Middlewares/ST/STM32_USB_Host_Library/Class/MSC/Src/usbh_msc_bot.c ****     status = USBH_ClrFeature(phost, MSC_Handle->InEp);
 511:Middlewares/ST/STM32_USB_Host_Library/Class/MSC/Src/usbh_msc_bot.c **** 
 512:Middlewares/ST/STM32_USB_Host_Library/Class/MSC/Src/usbh_msc_bot.c ****     break;
 513:Middlewares/ST/STM32_USB_Host_Library/Class/MSC/Src/usbh_msc_bot.c **** 
 514:Middlewares/ST/STM32_USB_Host_Library/Class/MSC/Src/usbh_msc_bot.c ****   case BOT_DIR_OUT :
 515:Middlewares/ST/STM32_USB_Host_Library/Class/MSC/Src/usbh_msc_bot.c ****     /*send ClrFeature on Bulk OUT endpoint */
 516:Middlewares/ST/STM32_USB_Host_Library/Class/MSC/Src/usbh_msc_bot.c ****     status = USBH_ClrFeature(phost, MSC_Handle->OutEp);
 517:Middlewares/ST/STM32_USB_Host_Library/Class/MSC/Src/usbh_msc_bot.c ****     break;
 518:Middlewares/ST/STM32_USB_Host_Library/Class/MSC/Src/usbh_msc_bot.c **** 
 519:Middlewares/ST/STM32_USB_Host_Library/Class/MSC/Src/usbh_msc_bot.c ****   default:
 520:Middlewares/ST/STM32_USB_Host_Library/Class/MSC/Src/usbh_msc_bot.c ****     break;
 521:Middlewares/ST/STM32_USB_Host_Library/Class/MSC/Src/usbh_msc_bot.c ****   }
 522:Middlewares/ST/STM32_USB_Host_Library/Class/MSC/Src/usbh_msc_bot.c ****   return status;
 523:Middlewares/ST/STM32_USB_Host_Library/Class/MSC/Src/usbh_msc_bot.c **** }
 524:Middlewares/ST/STM32_USB_Host_Library/Class/MSC/Src/usbh_msc_bot.c **** 
 525:Middlewares/ST/STM32_USB_Host_Library/Class/MSC/Src/usbh_msc_bot.c **** /**
 526:Middlewares/ST/STM32_USB_Host_Library/Class/MSC/Src/usbh_msc_bot.c ****   * @brief  USBH_MSC_BOT_DecodeCSW
 527:Middlewares/ST/STM32_USB_Host_Library/Class/MSC/Src/usbh_msc_bot.c ****   *         This function decodes the CSW received by the device and updates the
 528:Middlewares/ST/STM32_USB_Host_Library/Class/MSC/Src/usbh_msc_bot.c ****   *         same to upper layer.
 529:Middlewares/ST/STM32_USB_Host_Library/Class/MSC/Src/usbh_msc_bot.c ****   * @param  phost: Host handle
 530:Middlewares/ST/STM32_USB_Host_Library/Class/MSC/Src/usbh_msc_bot.c ****   * @retval USBH Status
 531:Middlewares/ST/STM32_USB_Host_Library/Class/MSC/Src/usbh_msc_bot.c ****   * @notes
 532:Middlewares/ST/STM32_USB_Host_Library/Class/MSC/Src/usbh_msc_bot.c ****   *     Refer to USB Mass-Storage Class : BOT (www.usb.org)
 533:Middlewares/ST/STM32_USB_Host_Library/Class/MSC/Src/usbh_msc_bot.c ****   *    6.3.1 Valid CSW Conditions :
 534:Middlewares/ST/STM32_USB_Host_Library/Class/MSC/Src/usbh_msc_bot.c ****   *     The host shall consider the CSW valid when:
 535:Middlewares/ST/STM32_USB_Host_Library/Class/MSC/Src/usbh_msc_bot.c ****   *     1. dCSWSignature is equal to 53425355h
 536:Middlewares/ST/STM32_USB_Host_Library/Class/MSC/Src/usbh_msc_bot.c ****   *     2. the CSW is 13 (Dh) bytes in length,
 537:Middlewares/ST/STM32_USB_Host_Library/Class/MSC/Src/usbh_msc_bot.c ****   *     3. dCSWTag matches the dCBWTag from the corresponding CBW.
 538:Middlewares/ST/STM32_USB_Host_Library/Class/MSC/Src/usbh_msc_bot.c ****   */
 539:Middlewares/ST/STM32_USB_Host_Library/Class/MSC/Src/usbh_msc_bot.c **** 
 540:Middlewares/ST/STM32_USB_Host_Library/Class/MSC/Src/usbh_msc_bot.c **** static BOT_CSWStatusTypeDef USBH_MSC_DecodeCSW(USBH_HandleTypeDef *phost)
 541:Middlewares/ST/STM32_USB_Host_Library/Class/MSC/Src/usbh_msc_bot.c **** {
  27              		.loc 1 541 0
  28              		.cfi_startproc
  29              		@ args = 0, pretend = 0, frame = 0
  30              		@ frame_needed = 0, uses_anonymous_args = 0
ARM GAS  C:\Users\Patryk\AppData\Local\Temp\ccQkv38E.s 			page 11


  31              	.LVL0:
  32 0000 10B5     		push	{r4, lr}
  33              	.LCFI0:
  34              		.cfi_def_cfa_offset 8
  35              		.cfi_offset 4, -8
  36              		.cfi_offset 14, -4
 542:Middlewares/ST/STM32_USB_Host_Library/Class/MSC/Src/usbh_msc_bot.c ****   MSC_HandleTypeDef *MSC_Handle =  (MSC_HandleTypeDef *) phost->pActiveClass->pData;
  37              		.loc 1 542 0
  38 0002 D0F87833 		ldr	r3, [r0, #888]
  39 0006 DC69     		ldr	r4, [r3, #28]
  40              	.LVL1:
 543:Middlewares/ST/STM32_USB_Host_Library/Class/MSC/Src/usbh_msc_bot.c ****   BOT_CSWStatusTypeDef status = BOT_CSW_CMD_FAILED;
 544:Middlewares/ST/STM32_USB_Host_Library/Class/MSC/Src/usbh_msc_bot.c **** 
 545:Middlewares/ST/STM32_USB_Host_Library/Class/MSC/Src/usbh_msc_bot.c ****     /*Checking if the transfer length is different than 13*/
 546:Middlewares/ST/STM32_USB_Host_Library/Class/MSC/Src/usbh_msc_bot.c ****     if(USBH_LL_GetLastXferSize(phost, MSC_Handle->InPipe) != BOT_CSW_LENGTH)
  41              		.loc 1 546 0
  42 0008 2179     		ldrb	r1, [r4, #4]	@ zero_extendqisi2
  43 000a FFF7FEFF 		bl	USBH_LL_GetLastXferSize
  44              	.LVL2:
  45 000e 0D28     		cmp	r0, #13
  46 0010 12D1     		bne	.L3
 547:Middlewares/ST/STM32_USB_Host_Library/Class/MSC/Src/usbh_msc_bot.c ****     {
 548:Middlewares/ST/STM32_USB_Host_Library/Class/MSC/Src/usbh_msc_bot.c ****       /*(4) Hi > Dn (Host expects to receive data from the device,
 549:Middlewares/ST/STM32_USB_Host_Library/Class/MSC/Src/usbh_msc_bot.c ****       Device intends to transfer no data)
 550:Middlewares/ST/STM32_USB_Host_Library/Class/MSC/Src/usbh_msc_bot.c ****       (5) Hi > Di (Host expects to receive data from the device,
 551:Middlewares/ST/STM32_USB_Host_Library/Class/MSC/Src/usbh_msc_bot.c ****       Device intends to send data to the host)
 552:Middlewares/ST/STM32_USB_Host_Library/Class/MSC/Src/usbh_msc_bot.c ****       (9) Ho > Dn (Host expects to send data to the device,
 553:Middlewares/ST/STM32_USB_Host_Library/Class/MSC/Src/usbh_msc_bot.c ****       Device intends to transfer no data)
 554:Middlewares/ST/STM32_USB_Host_Library/Class/MSC/Src/usbh_msc_bot.c ****       (11) Ho > Do  (Host expects to send data to the device,
 555:Middlewares/ST/STM32_USB_Host_Library/Class/MSC/Src/usbh_msc_bot.c ****       Device intends to receive data from the host)*/
 556:Middlewares/ST/STM32_USB_Host_Library/Class/MSC/Src/usbh_msc_bot.c **** 
 557:Middlewares/ST/STM32_USB_Host_Library/Class/MSC/Src/usbh_msc_bot.c **** 
 558:Middlewares/ST/STM32_USB_Host_Library/Class/MSC/Src/usbh_msc_bot.c ****       status = BOT_CSW_PHASE_ERROR;
 559:Middlewares/ST/STM32_USB_Host_Library/Class/MSC/Src/usbh_msc_bot.c ****     }
 560:Middlewares/ST/STM32_USB_Host_Library/Class/MSC/Src/usbh_msc_bot.c ****     else
 561:Middlewares/ST/STM32_USB_Host_Library/Class/MSC/Src/usbh_msc_bot.c ****     { /* CSW length is Correct */
 562:Middlewares/ST/STM32_USB_Host_Library/Class/MSC/Src/usbh_msc_bot.c **** 
 563:Middlewares/ST/STM32_USB_Host_Library/Class/MSC/Src/usbh_msc_bot.c ****       /* Check validity of the CSW Signature and CSWStatus */
 564:Middlewares/ST/STM32_USB_Host_Library/Class/MSC/Src/usbh_msc_bot.c ****       if(MSC_Handle->hbot.csw.field.Signature == BOT_CSW_SIGNATURE)
  47              		.loc 1 564 0
  48 0012 A26F     		ldr	r2, [r4, #120]
  49 0014 0D4B     		ldr	r3, .L11
  50 0016 9A42     		cmp	r2, r3
  51 0018 10D1     		bne	.L4
 565:Middlewares/ST/STM32_USB_Host_Library/Class/MSC/Src/usbh_msc_bot.c ****       {/* Check Condition 1. dCSWSignature is equal to 53425355h */
 566:Middlewares/ST/STM32_USB_Host_Library/Class/MSC/Src/usbh_msc_bot.c **** 
 567:Middlewares/ST/STM32_USB_Host_Library/Class/MSC/Src/usbh_msc_bot.c ****         if(MSC_Handle->hbot.csw.field.Tag == MSC_Handle->hbot.cbw.field.Tag)
  52              		.loc 1 567 0
  53 001a E26F     		ldr	r2, [r4, #124]
  54 001c A36D     		ldr	r3, [r4, #88]
  55 001e 9A42     		cmp	r2, r3
  56 0020 01D0     		beq	.L10
 543:Middlewares/ST/STM32_USB_Host_Library/Class/MSC/Src/usbh_msc_bot.c **** 
  57              		.loc 1 543 0
  58 0022 0120     		movs	r0, #1
  59 0024 09E0     		b	.L2
  60              	.L10:
ARM GAS  C:\Users\Patryk\AppData\Local\Temp\ccQkv38E.s 			page 12


 568:Middlewares/ST/STM32_USB_Host_Library/Class/MSC/Src/usbh_msc_bot.c ****         {
 569:Middlewares/ST/STM32_USB_Host_Library/Class/MSC/Src/usbh_msc_bot.c ****           /* Check Condition 3. dCSWTag matches the dCBWTag from the
 570:Middlewares/ST/STM32_USB_Host_Library/Class/MSC/Src/usbh_msc_bot.c ****           corresponding CBW */
 571:Middlewares/ST/STM32_USB_Host_Library/Class/MSC/Src/usbh_msc_bot.c **** 
 572:Middlewares/ST/STM32_USB_Host_Library/Class/MSC/Src/usbh_msc_bot.c ****           if(MSC_Handle->hbot.csw.field.Status == 0U)
  61              		.loc 1 572 0
  62 0026 94F88430 		ldrb	r3, [r4, #132]	@ zero_extendqisi2
  63 002a 4BB1     		cbz	r3, .L6
 573:Middlewares/ST/STM32_USB_Host_Library/Class/MSC/Src/usbh_msc_bot.c ****           {
 574:Middlewares/ST/STM32_USB_Host_Library/Class/MSC/Src/usbh_msc_bot.c ****             /* Refer to USB Mass-Storage Class : BOT (www.usb.org)
 575:Middlewares/ST/STM32_USB_Host_Library/Class/MSC/Src/usbh_msc_bot.c **** 
 576:Middlewares/ST/STM32_USB_Host_Library/Class/MSC/Src/usbh_msc_bot.c ****             Hn Host expects no data transfers
 577:Middlewares/ST/STM32_USB_Host_Library/Class/MSC/Src/usbh_msc_bot.c ****             Hi Host expects to receive data from the device
 578:Middlewares/ST/STM32_USB_Host_Library/Class/MSC/Src/usbh_msc_bot.c ****             Ho Host expects to send data to the device
 579:Middlewares/ST/STM32_USB_Host_Library/Class/MSC/Src/usbh_msc_bot.c **** 
 580:Middlewares/ST/STM32_USB_Host_Library/Class/MSC/Src/usbh_msc_bot.c ****             Dn Device intends to transfer no data
 581:Middlewares/ST/STM32_USB_Host_Library/Class/MSC/Src/usbh_msc_bot.c ****             Di Device intends to send data to the host
 582:Middlewares/ST/STM32_USB_Host_Library/Class/MSC/Src/usbh_msc_bot.c ****             Do Device intends to receive data from the host
 583:Middlewares/ST/STM32_USB_Host_Library/Class/MSC/Src/usbh_msc_bot.c **** 
 584:Middlewares/ST/STM32_USB_Host_Library/Class/MSC/Src/usbh_msc_bot.c ****             Section 6.7
 585:Middlewares/ST/STM32_USB_Host_Library/Class/MSC/Src/usbh_msc_bot.c ****             (1) Hn = Dn (Host expects no data transfers,
 586:Middlewares/ST/STM32_USB_Host_Library/Class/MSC/Src/usbh_msc_bot.c ****             Device intends to transfer no data)
 587:Middlewares/ST/STM32_USB_Host_Library/Class/MSC/Src/usbh_msc_bot.c ****             (6) Hi = Di (Host expects to receive data from the device,
 588:Middlewares/ST/STM32_USB_Host_Library/Class/MSC/Src/usbh_msc_bot.c ****             Device intends to send data to the host)
 589:Middlewares/ST/STM32_USB_Host_Library/Class/MSC/Src/usbh_msc_bot.c ****             (12) Ho = Do (Host expects to send data to the device,
 590:Middlewares/ST/STM32_USB_Host_Library/Class/MSC/Src/usbh_msc_bot.c ****             Device intends to receive data from the host)
 591:Middlewares/ST/STM32_USB_Host_Library/Class/MSC/Src/usbh_msc_bot.c **** 
 592:Middlewares/ST/STM32_USB_Host_Library/Class/MSC/Src/usbh_msc_bot.c ****             */
 593:Middlewares/ST/STM32_USB_Host_Library/Class/MSC/Src/usbh_msc_bot.c **** 
 594:Middlewares/ST/STM32_USB_Host_Library/Class/MSC/Src/usbh_msc_bot.c ****             status = BOT_CSW_CMD_PASSED;
 595:Middlewares/ST/STM32_USB_Host_Library/Class/MSC/Src/usbh_msc_bot.c ****           }
 596:Middlewares/ST/STM32_USB_Host_Library/Class/MSC/Src/usbh_msc_bot.c ****           else if(MSC_Handle->hbot.csw.field.Status == 1U)
  64              		.loc 1 596 0
  65 002c 012B     		cmp	r3, #1
  66 002e 09D0     		beq	.L7
 597:Middlewares/ST/STM32_USB_Host_Library/Class/MSC/Src/usbh_msc_bot.c ****           {
 598:Middlewares/ST/STM32_USB_Host_Library/Class/MSC/Src/usbh_msc_bot.c ****             status = BOT_CSW_CMD_FAILED;
 599:Middlewares/ST/STM32_USB_Host_Library/Class/MSC/Src/usbh_msc_bot.c ****           }
 600:Middlewares/ST/STM32_USB_Host_Library/Class/MSC/Src/usbh_msc_bot.c **** 
 601:Middlewares/ST/STM32_USB_Host_Library/Class/MSC/Src/usbh_msc_bot.c ****           else if(MSC_Handle->hbot.csw.field.Status == 2U)
  67              		.loc 1 601 0
  68 0030 022B     		cmp	r3, #2
  69 0032 09D0     		beq	.L8
 543:Middlewares/ST/STM32_USB_Host_Library/Class/MSC/Src/usbh_msc_bot.c **** 
  70              		.loc 1 543 0
  71 0034 0120     		movs	r0, #1
  72 0036 00E0     		b	.L2
  73              	.L3:
 558:Middlewares/ST/STM32_USB_Host_Library/Class/MSC/Src/usbh_msc_bot.c ****     }
  74              		.loc 1 558 0
  75 0038 0220     		movs	r0, #2
  76              	.L2:
  77              	.LVL3:
 602:Middlewares/ST/STM32_USB_Host_Library/Class/MSC/Src/usbh_msc_bot.c ****           {
 603:Middlewares/ST/STM32_USB_Host_Library/Class/MSC/Src/usbh_msc_bot.c ****             /* Refer to USB Mass-Storage Class : BOT (www.usb.org)
 604:Middlewares/ST/STM32_USB_Host_Library/Class/MSC/Src/usbh_msc_bot.c ****             Section 6.7
 605:Middlewares/ST/STM32_USB_Host_Library/Class/MSC/Src/usbh_msc_bot.c ****             (2) Hn < Di ( Host expects no data transfers,
ARM GAS  C:\Users\Patryk\AppData\Local\Temp\ccQkv38E.s 			page 13


 606:Middlewares/ST/STM32_USB_Host_Library/Class/MSC/Src/usbh_msc_bot.c ****             Device intends to send data to the host)
 607:Middlewares/ST/STM32_USB_Host_Library/Class/MSC/Src/usbh_msc_bot.c ****             (3) Hn < Do ( Host expects no data transfers,
 608:Middlewares/ST/STM32_USB_Host_Library/Class/MSC/Src/usbh_msc_bot.c ****             Device intends to receive data from the host)
 609:Middlewares/ST/STM32_USB_Host_Library/Class/MSC/Src/usbh_msc_bot.c ****             (7) Hi < Di ( Host expects to receive data from the device,
 610:Middlewares/ST/STM32_USB_Host_Library/Class/MSC/Src/usbh_msc_bot.c ****             Device intends to send data to the host)
 611:Middlewares/ST/STM32_USB_Host_Library/Class/MSC/Src/usbh_msc_bot.c ****             (8) Hi <> Do ( Host expects to receive data from the device,
 612:Middlewares/ST/STM32_USB_Host_Library/Class/MSC/Src/usbh_msc_bot.c ****             Device intends to receive data from the host)
 613:Middlewares/ST/STM32_USB_Host_Library/Class/MSC/Src/usbh_msc_bot.c ****             (10) Ho <> Di (Host expects to send data to the device,
 614:Middlewares/ST/STM32_USB_Host_Library/Class/MSC/Src/usbh_msc_bot.c ****             Di Device intends to send data to the host)
 615:Middlewares/ST/STM32_USB_Host_Library/Class/MSC/Src/usbh_msc_bot.c ****             (13) Ho < Do (Host expects to send data to the device,
 616:Middlewares/ST/STM32_USB_Host_Library/Class/MSC/Src/usbh_msc_bot.c ****             Device intends to receive data from the host)
 617:Middlewares/ST/STM32_USB_Host_Library/Class/MSC/Src/usbh_msc_bot.c ****             */
 618:Middlewares/ST/STM32_USB_Host_Library/Class/MSC/Src/usbh_msc_bot.c **** 
 619:Middlewares/ST/STM32_USB_Host_Library/Class/MSC/Src/usbh_msc_bot.c ****             status = BOT_CSW_PHASE_ERROR;
 620:Middlewares/ST/STM32_USB_Host_Library/Class/MSC/Src/usbh_msc_bot.c ****           }
 621:Middlewares/ST/STM32_USB_Host_Library/Class/MSC/Src/usbh_msc_bot.c ****           else
 622:Middlewares/ST/STM32_USB_Host_Library/Class/MSC/Src/usbh_msc_bot.c ****           {
 623:Middlewares/ST/STM32_USB_Host_Library/Class/MSC/Src/usbh_msc_bot.c ****           }
 624:Middlewares/ST/STM32_USB_Host_Library/Class/MSC/Src/usbh_msc_bot.c ****         } /* CSW Tag Matching is Checked  */
 625:Middlewares/ST/STM32_USB_Host_Library/Class/MSC/Src/usbh_msc_bot.c ****       } /* CSW Signature Correct Checking */
 626:Middlewares/ST/STM32_USB_Host_Library/Class/MSC/Src/usbh_msc_bot.c ****       else
 627:Middlewares/ST/STM32_USB_Host_Library/Class/MSC/Src/usbh_msc_bot.c ****       {
 628:Middlewares/ST/STM32_USB_Host_Library/Class/MSC/Src/usbh_msc_bot.c ****         /* If the CSW Signature is not valid, We sall return the Phase Error to
 629:Middlewares/ST/STM32_USB_Host_Library/Class/MSC/Src/usbh_msc_bot.c ****         Upper Layers for Reset Recovery */
 630:Middlewares/ST/STM32_USB_Host_Library/Class/MSC/Src/usbh_msc_bot.c **** 
 631:Middlewares/ST/STM32_USB_Host_Library/Class/MSC/Src/usbh_msc_bot.c ****         status = BOT_CSW_PHASE_ERROR;
 632:Middlewares/ST/STM32_USB_Host_Library/Class/MSC/Src/usbh_msc_bot.c ****       }
 633:Middlewares/ST/STM32_USB_Host_Library/Class/MSC/Src/usbh_msc_bot.c ****     } /* CSW Length Check*/
 634:Middlewares/ST/STM32_USB_Host_Library/Class/MSC/Src/usbh_msc_bot.c **** 
 635:Middlewares/ST/STM32_USB_Host_Library/Class/MSC/Src/usbh_msc_bot.c ****   return status;
 636:Middlewares/ST/STM32_USB_Host_Library/Class/MSC/Src/usbh_msc_bot.c **** }
  78              		.loc 1 636 0
  79 003a 10BD     		pop	{r4, pc}
  80              	.LVL4:
  81              	.L4:
 631:Middlewares/ST/STM32_USB_Host_Library/Class/MSC/Src/usbh_msc_bot.c ****       }
  82              		.loc 1 631 0
  83 003c 0220     		movs	r0, #2
  84 003e FCE7     		b	.L2
  85              	.L6:
 594:Middlewares/ST/STM32_USB_Host_Library/Class/MSC/Src/usbh_msc_bot.c ****           }
  86              		.loc 1 594 0
  87 0040 0020     		movs	r0, #0
  88 0042 FAE7     		b	.L2
  89              	.L7:
 598:Middlewares/ST/STM32_USB_Host_Library/Class/MSC/Src/usbh_msc_bot.c ****           }
  90              		.loc 1 598 0
  91 0044 0120     		movs	r0, #1
  92 0046 F8E7     		b	.L2
  93              	.L8:
 619:Middlewares/ST/STM32_USB_Host_Library/Class/MSC/Src/usbh_msc_bot.c ****           }
  94              		.loc 1 619 0
  95 0048 0220     		movs	r0, #2
  96 004a F6E7     		b	.L2
  97              	.L12:
  98              		.align	2
  99              	.L11:
ARM GAS  C:\Users\Patryk\AppData\Local\Temp\ccQkv38E.s 			page 14


 100 004c 55534253 		.word	1396855637
 101              		.cfi_endproc
 102              	.LFE148:
 104              		.section	.text.USBH_MSC_BOT_Abort,"ax",%progbits
 105              		.align	1
 106              		.syntax unified
 107              		.thumb
 108              		.thumb_func
 109              		.fpu fpv5-sp-d16
 111              	USBH_MSC_BOT_Abort:
 112              	.LFB147:
 502:Middlewares/ST/STM32_USB_Host_Library/Class/MSC/Src/usbh_msc_bot.c ****   USBH_StatusTypeDef status = USBH_FAIL;
 113              		.loc 1 502 0
 114              		.cfi_startproc
 115              		@ args = 0, pretend = 0, frame = 0
 116              		@ frame_needed = 0, uses_anonymous_args = 0
 117              	.LVL5:
 118 0000 08B5     		push	{r3, lr}
 119              	.LCFI1:
 120              		.cfi_def_cfa_offset 8
 121              		.cfi_offset 3, -8
 122              		.cfi_offset 14, -4
 123              	.LVL6:
 504:Middlewares/ST/STM32_USB_Host_Library/Class/MSC/Src/usbh_msc_bot.c **** 
 124              		.loc 1 504 0
 125 0002 D0F87833 		ldr	r3, [r0, #888]
 126 0006 DB69     		ldr	r3, [r3, #28]
 127              	.LVL7:
 506:Middlewares/ST/STM32_USB_Host_Library/Class/MSC/Src/usbh_msc_bot.c ****   {
 128              		.loc 1 506 0
 129 0008 1AB1     		cbz	r2, .L15
 130 000a 012A     		cmp	r2, #1
 131 000c 05D0     		beq	.L16
 503:Middlewares/ST/STM32_USB_Host_Library/Class/MSC/Src/usbh_msc_bot.c ****   MSC_HandleTypeDef *MSC_Handle =  (MSC_HandleTypeDef *) phost->pActiveClass->pData;
 132              		.loc 1 503 0
 133 000e 0220     		movs	r0, #2
 134              	.LVL8:
 135 0010 02E0     		b	.L14
 136              	.LVL9:
 137              	.L15:
 510:Middlewares/ST/STM32_USB_Host_Library/Class/MSC/Src/usbh_msc_bot.c **** 
 138              		.loc 1 510 0
 139 0012 D979     		ldrb	r1, [r3, #7]	@ zero_extendqisi2
 140              	.LVL10:
 141 0014 FFF7FEFF 		bl	USBH_ClrFeature
 142              	.LVL11:
 143              	.L14:
 523:Middlewares/ST/STM32_USB_Host_Library/Class/MSC/Src/usbh_msc_bot.c **** 
 144              		.loc 1 523 0
 145 0018 08BD     		pop	{r3, pc}
 146              	.LVL12:
 147              	.L16:
 516:Middlewares/ST/STM32_USB_Host_Library/Class/MSC/Src/usbh_msc_bot.c ****     break;
 148              		.loc 1 516 0
 149 001a 9979     		ldrb	r1, [r3, #6]	@ zero_extendqisi2
 150              	.LVL13:
 151 001c FFF7FEFF 		bl	USBH_ClrFeature
ARM GAS  C:\Users\Patryk\AppData\Local\Temp\ccQkv38E.s 			page 15


 152              	.LVL14:
 517:Middlewares/ST/STM32_USB_Host_Library/Class/MSC/Src/usbh_msc_bot.c **** 
 153              		.loc 1 517 0
 154 0020 FAE7     		b	.L14
 155              		.cfi_endproc
 156              	.LFE147:
 158              		.section	.text.USBH_MSC_BOT_REQ_Reset,"ax",%progbits
 159              		.align	1
 160              		.global	USBH_MSC_BOT_REQ_Reset
 161              		.syntax unified
 162              		.thumb
 163              		.thumb_func
 164              		.fpu fpv5-sp-d16
 166              	USBH_MSC_BOT_REQ_Reset:
 167              	.LFB143:
 135:Middlewares/ST/STM32_USB_Host_Library/Class/MSC/Src/usbh_msc_bot.c **** 
 168              		.loc 1 135 0
 169              		.cfi_startproc
 170              		@ args = 0, pretend = 0, frame = 0
 171              		@ frame_needed = 0, uses_anonymous_args = 0
 172              	.LVL15:
 173 0000 08B5     		push	{r3, lr}
 174              	.LCFI2:
 175              		.cfi_def_cfa_offset 8
 176              		.cfi_offset 3, -8
 177              		.cfi_offset 14, -4
 137:Middlewares/ST/STM32_USB_Host_Library/Class/MSC/Src/usbh_msc_bot.c ****                                                  | USB_REQ_RECIPIENT_INTERFACE;
 178              		.loc 1 137 0
 179 0002 2122     		movs	r2, #33
 180 0004 0274     		strb	r2, [r0, #16]
 140:Middlewares/ST/STM32_USB_Host_Library/Class/MSC/Src/usbh_msc_bot.c ****   phost->Control.setup.b.wValue.w = 0U;
 181              		.loc 1 140 0
 182 0006 FF22     		movs	r2, #255
 183 0008 4274     		strb	r2, [r0, #17]
 141:Middlewares/ST/STM32_USB_Host_Library/Class/MSC/Src/usbh_msc_bot.c ****   phost->Control.setup.b.wIndex.w = 0U;
 184              		.loc 1 141 0
 185 000a 0021     		movs	r1, #0
 186 000c 4182     		strh	r1, [r0, #18]	@ movhi
 142:Middlewares/ST/STM32_USB_Host_Library/Class/MSC/Src/usbh_msc_bot.c ****   phost->Control.setup.b.wLength.w = 0U;
 187              		.loc 1 142 0
 188 000e 8182     		strh	r1, [r0, #20]	@ movhi
 143:Middlewares/ST/STM32_USB_Host_Library/Class/MSC/Src/usbh_msc_bot.c **** 
 189              		.loc 1 143 0
 190 0010 C182     		strh	r1, [r0, #22]	@ movhi
 145:Middlewares/ST/STM32_USB_Host_Library/Class/MSC/Src/usbh_msc_bot.c **** }
 191              		.loc 1 145 0
 192 0012 0A46     		mov	r2, r1
 193 0014 FFF7FEFF 		bl	USBH_CtlReq
 194              	.LVL16:
 146:Middlewares/ST/STM32_USB_Host_Library/Class/MSC/Src/usbh_msc_bot.c **** 
 195              		.loc 1 146 0
 196 0018 08BD     		pop	{r3, pc}
 197              		.cfi_endproc
 198              	.LFE143:
 200              		.section	.text.USBH_MSC_BOT_REQ_GetMaxLUN,"ax",%progbits
 201              		.align	1
 202              		.global	USBH_MSC_BOT_REQ_GetMaxLUN
ARM GAS  C:\Users\Patryk\AppData\Local\Temp\ccQkv38E.s 			page 16


 203              		.syntax unified
 204              		.thumb
 205              		.thumb_func
 206              		.fpu fpv5-sp-d16
 208              	USBH_MSC_BOT_REQ_GetMaxLUN:
 209              	.LFB144:
 156:Middlewares/ST/STM32_USB_Host_Library/Class/MSC/Src/usbh_msc_bot.c ****   phost->Control.setup.b.bmRequestType = USB_D2H | USB_REQ_TYPE_CLASS
 210              		.loc 1 156 0
 211              		.cfi_startproc
 212              		@ args = 0, pretend = 0, frame = 0
 213              		@ frame_needed = 0, uses_anonymous_args = 0
 214              	.LVL17:
 215 0000 08B5     		push	{r3, lr}
 216              	.LCFI3:
 217              		.cfi_def_cfa_offset 8
 218              		.cfi_offset 3, -8
 219              		.cfi_offset 14, -4
 157:Middlewares/ST/STM32_USB_Host_Library/Class/MSC/Src/usbh_msc_bot.c ****                                                  | USB_REQ_RECIPIENT_INTERFACE;
 220              		.loc 1 157 0
 221 0002 A122     		movs	r2, #161
 222 0004 0274     		strb	r2, [r0, #16]
 160:Middlewares/ST/STM32_USB_Host_Library/Class/MSC/Src/usbh_msc_bot.c ****   phost->Control.setup.b.wValue.w = 0U;
 223              		.loc 1 160 0
 224 0006 FE22     		movs	r2, #254
 225 0008 4274     		strb	r2, [r0, #17]
 161:Middlewares/ST/STM32_USB_Host_Library/Class/MSC/Src/usbh_msc_bot.c ****   phost->Control.setup.b.wIndex.w = 0U;
 226              		.loc 1 161 0
 227 000a 0022     		movs	r2, #0
 228 000c 4282     		strh	r2, [r0, #18]	@ movhi
 162:Middlewares/ST/STM32_USB_Host_Library/Class/MSC/Src/usbh_msc_bot.c ****   phost->Control.setup.b.wLength.w = 1U;
 229              		.loc 1 162 0
 230 000e 8282     		strh	r2, [r0, #20]	@ movhi
 163:Middlewares/ST/STM32_USB_Host_Library/Class/MSC/Src/usbh_msc_bot.c **** 
 231              		.loc 1 163 0
 232 0010 0122     		movs	r2, #1
 233 0012 C282     		strh	r2, [r0, #22]	@ movhi
 165:Middlewares/ST/STM32_USB_Host_Library/Class/MSC/Src/usbh_msc_bot.c **** }
 234              		.loc 1 165 0
 235 0014 FFF7FEFF 		bl	USBH_CtlReq
 236              	.LVL18:
 166:Middlewares/ST/STM32_USB_Host_Library/Class/MSC/Src/usbh_msc_bot.c **** 
 237              		.loc 1 166 0
 238 0018 08BD     		pop	{r3, pc}
 239              		.cfi_endproc
 240              	.LFE144:
 242              		.section	.text.USBH_MSC_BOT_Init,"ax",%progbits
 243              		.align	1
 244              		.global	USBH_MSC_BOT_Init
 245              		.syntax unified
 246              		.thumb
 247              		.thumb_func
 248              		.fpu fpv5-sp-d16
 250              	USBH_MSC_BOT_Init:
 251              	.LFB145:
 177:Middlewares/ST/STM32_USB_Host_Library/Class/MSC/Src/usbh_msc_bot.c **** 
 252              		.loc 1 177 0
 253              		.cfi_startproc
ARM GAS  C:\Users\Patryk\AppData\Local\Temp\ccQkv38E.s 			page 17


 254              		@ args = 0, pretend = 0, frame = 0
 255              		@ frame_needed = 0, uses_anonymous_args = 0
 256              		@ link register save eliminated.
 257              	.LVL19:
 179:Middlewares/ST/STM32_USB_Host_Library/Class/MSC/Src/usbh_msc_bot.c **** 
 258              		.loc 1 179 0
 259 0000 D0F87833 		ldr	r3, [r0, #888]
 260 0004 DB69     		ldr	r3, [r3, #28]
 261              	.LVL20:
 181:Middlewares/ST/STM32_USB_Host_Library/Class/MSC/Src/usbh_msc_bot.c ****   MSC_Handle->hbot.cbw.field.Tag = BOT_CBW_TAG;
 262              		.loc 1 181 0
 263 0006 054A     		ldr	r2, .L25
 264 0008 5A65     		str	r2, [r3, #84]
 182:Middlewares/ST/STM32_USB_Host_Library/Class/MSC/Src/usbh_msc_bot.c ****   MSC_Handle->hbot.state = BOT_SEND_CBW;
 265              		.loc 1 182 0
 266 000a 054A     		ldr	r2, .L25+4
 267 000c 9A65     		str	r2, [r3, #88]
 183:Middlewares/ST/STM32_USB_Host_Library/Class/MSC/Src/usbh_msc_bot.c ****   MSC_Handle->hbot.cmd_state = BOT_CMD_SEND;
 268              		.loc 1 183 0
 269 000e 0122     		movs	r2, #1
 270 0010 83F85020 		strb	r2, [r3, #80]
 184:Middlewares/ST/STM32_USB_Host_Library/Class/MSC/Src/usbh_msc_bot.c **** 
 271              		.loc 1 184 0
 272 0014 83F85220 		strb	r2, [r3, #82]
 187:Middlewares/ST/STM32_USB_Host_Library/Class/MSC/Src/usbh_msc_bot.c **** 
 273              		.loc 1 187 0
 274 0018 0020     		movs	r0, #0
 275              	.LVL21:
 276 001a 7047     		bx	lr
 277              	.L26:
 278              		.align	2
 279              	.L25:
 280 001c 55534243 		.word	1128420181
 281 0020 50403020 		.word	540033104
 282              		.cfi_endproc
 283              	.LFE145:
 285              		.section	.text.USBH_MSC_BOT_Process,"ax",%progbits
 286              		.align	1
 287              		.global	USBH_MSC_BOT_Process
 288              		.syntax unified
 289              		.thumb
 290              		.thumb_func
 291              		.fpu fpv5-sp-d16
 293              	USBH_MSC_BOT_Process:
 294              	.LFB146:
 199:Middlewares/ST/STM32_USB_Host_Library/Class/MSC/Src/usbh_msc_bot.c ****   USBH_StatusTypeDef   status = USBH_BUSY;
 295              		.loc 1 199 0
 296              		.cfi_startproc
 297              		@ args = 0, pretend = 0, frame = 0
 298              		@ frame_needed = 0, uses_anonymous_args = 0
 299              	.LVL22:
 300 0000 70B5     		push	{r4, r5, r6, lr}
 301              	.LCFI4:
 302              		.cfi_def_cfa_offset 16
 303              		.cfi_offset 4, -16
 304              		.cfi_offset 5, -12
 305              		.cfi_offset 6, -8
ARM GAS  C:\Users\Patryk\AppData\Local\Temp\ccQkv38E.s 			page 18


 306              		.cfi_offset 14, -4
 307 0002 82B0     		sub	sp, sp, #8
 308              	.LCFI5:
 309              		.cfi_def_cfa_offset 24
 310 0004 0546     		mov	r5, r0
 311              	.LVL23:
 204:Middlewares/ST/STM32_USB_Host_Library/Class/MSC/Src/usbh_msc_bot.c ****   uint8_t toggle = 0U;
 312              		.loc 1 204 0
 313 0006 D0F87833 		ldr	r3, [r0, #888]
 314 000a DC69     		ldr	r4, [r3, #28]
 315              	.LVL24:
 207:Middlewares/ST/STM32_USB_Host_Library/Class/MSC/Src/usbh_msc_bot.c ****   {
 316              		.loc 1 207 0
 317 000c 94F85030 		ldrb	r3, [r4, #80]	@ zero_extendqisi2
 318 0010 013B     		subs	r3, r3, #1
 319 0012 0A2B     		cmp	r3, #10
 320 0014 00F25B81 		bhi	.L60
 321 0018 DFE813F0 		tbh	[pc, r3, lsl #1]
 322              	.L30:
 323 001c 0B00     		.2byte	(.L29-.L30)/2
 324 001e 1B00     		.2byte	(.L31-.L30)/2
 325 0020 5400     		.2byte	(.L32-.L30)/2
 326 0022 5F00     		.2byte	(.L33-.L30)/2
 327 0024 9700     		.2byte	(.L34-.L30)/2
 328 0026 A300     		.2byte	(.L35-.L30)/2
 329 0028 E900     		.2byte	(.L36-.L30)/2
 330 002a F400     		.2byte	(.L37-.L30)/2
 331 002c 1B01     		.2byte	(.L38-.L30)/2
 332 002e 2D01     		.2byte	(.L39-.L30)/2
 333 0030 4F01     		.2byte	(.L40-.L30)/2
 334              		.p2align 1
 335              	.L29:
 210:Middlewares/ST/STM32_USB_Host_Library/Class/MSC/Src/usbh_msc_bot.c ****     MSC_Handle->hbot.state = BOT_SEND_CBW_WAIT;
 336              		.loc 1 210 0
 337 0032 84F86110 		strb	r1, [r4, #97]
 211:Middlewares/ST/STM32_USB_Host_Library/Class/MSC/Src/usbh_msc_bot.c ****     USBH_BulkSendData (phost, MSC_Handle->hbot.cbw.data,
 338              		.loc 1 211 0
 339 0036 0223     		movs	r3, #2
 340 0038 84F85030 		strb	r3, [r4, #80]
 212:Middlewares/ST/STM32_USB_Host_Library/Class/MSC/Src/usbh_msc_bot.c ****                        BOT_CBW_LENGTH, MSC_Handle->OutPipe, 1U);
 341              		.loc 1 212 0
 342 003c 6379     		ldrb	r3, [r4, #5]	@ zero_extendqisi2
 343 003e 0126     		movs	r6, #1
 344 0040 0096     		str	r6, [sp]
 345 0042 1F22     		movs	r2, #31
 346 0044 04F15401 		add	r1, r4, #84
 347              	.LVL25:
 348 0048 FFF7FEFF 		bl	USBH_BulkSendData
 349              	.LVL26:
 350              	.L28:
 491:Middlewares/ST/STM32_USB_Host_Library/Class/MSC/Src/usbh_msc_bot.c **** 
 351              		.loc 1 491 0
 352 004c 3046     		mov	r0, r6
 353 004e 02B0     		add	sp, sp, #8
 354              	.LCFI6:
 355              		.cfi_remember_state
 356              		.cfi_def_cfa_offset 16
ARM GAS  C:\Users\Patryk\AppData\Local\Temp\ccQkv38E.s 			page 19


 357              		@ sp needed
 358 0050 70BD     		pop	{r4, r5, r6, pc}
 359              	.LVL27:
 360              	.L31:
 361              	.LCFI7:
 362              		.cfi_restore_state
 219:Middlewares/ST/STM32_USB_Host_Library/Class/MSC/Src/usbh_msc_bot.c **** 
 363              		.loc 1 219 0
 364 0052 6179     		ldrb	r1, [r4, #5]	@ zero_extendqisi2
 365              	.LVL28:
 366 0054 FFF7FEFF 		bl	USBH_LL_GetURBState
 367              	.LVL29:
 221:Middlewares/ST/STM32_USB_Host_Library/Class/MSC/Src/usbh_msc_bot.c ****     {
 368              		.loc 1 221 0
 369 0058 0128     		cmp	r0, #1
 370 005a 05D0     		beq	.L69
 247:Middlewares/ST/STM32_USB_Host_Library/Class/MSC/Src/usbh_msc_bot.c ****     {
 371              		.loc 1 247 0
 372 005c 0228     		cmp	r0, #2
 373 005e 1CD0     		beq	.L70
 257:Middlewares/ST/STM32_USB_Host_Library/Class/MSC/Src/usbh_msc_bot.c ****       {
 374              		.loc 1 257 0
 375 0060 0528     		cmp	r0, #5
 376 0062 24D0     		beq	.L71
 200:Middlewares/ST/STM32_USB_Host_Library/Class/MSC/Src/usbh_msc_bot.c ****   USBH_StatusTypeDef   error  = USBH_BUSY;
 377              		.loc 1 200 0
 378 0064 0126     		movs	r6, #1
 379 0066 F1E7     		b	.L28
 380              	.L69:
 223:Middlewares/ST/STM32_USB_Host_Library/Class/MSC/Src/usbh_msc_bot.c ****       {
 381              		.loc 1 223 0
 382 0068 E36D     		ldr	r3, [r4, #92]
 383 006a 5BB1     		cbz	r3, .L42
 226:Middlewares/ST/STM32_USB_Host_Library/Class/MSC/Src/usbh_msc_bot.c ****         {
 384              		.loc 1 226 0
 385 006c 94F96030 		ldrsb	r3, [r4, #96]
 386 0070 002B     		cmp	r3, #0
 387 0072 03DB     		blt	.L72
 234:Middlewares/ST/STM32_USB_Host_Library/Class/MSC/Src/usbh_msc_bot.c ****         }
 388              		.loc 1 234 0
 389 0074 0523     		movs	r3, #5
 390 0076 84F85030 		strb	r3, [r4, #80]
 391 007a 06E0     		b	.L44
 392              	.L72:
 229:Middlewares/ST/STM32_USB_Host_Library/Class/MSC/Src/usbh_msc_bot.c ****         }
 393              		.loc 1 229 0
 394 007c 0323     		movs	r3, #3
 395 007e 84F85030 		strb	r3, [r4, #80]
 396 0082 02E0     		b	.L44
 397              	.L42:
 240:Middlewares/ST/STM32_USB_Host_Library/Class/MSC/Src/usbh_msc_bot.c ****       }
 398              		.loc 1 240 0
 399 0084 0723     		movs	r3, #7
 400 0086 84F85030 		strb	r3, [r4, #80]
 401              	.L44:
 243:Middlewares/ST/STM32_USB_Host_Library/Class/MSC/Src/usbh_msc_bot.c **** #endif
 402              		.loc 1 243 0
ARM GAS  C:\Users\Patryk\AppData\Local\Temp\ccQkv38E.s 			page 20


 403 008a 0022     		movs	r2, #0
 404 008c 0221     		movs	r1, #2
 405 008e D5F8CC03 		ldr	r0, [r5, #972]
 406              	.LVL30:
 407 0092 FFF7FEFF 		bl	osMessagePut
 408              	.LVL31:
 200:Middlewares/ST/STM32_USB_Host_Library/Class/MSC/Src/usbh_msc_bot.c ****   USBH_StatusTypeDef   error  = USBH_BUSY;
 409              		.loc 1 200 0
 410 0096 0126     		movs	r6, #1
 411 0098 D8E7     		b	.L28
 412              	.LVL32:
 413              	.L70:
 250:Middlewares/ST/STM32_USB_Host_Library/Class/MSC/Src/usbh_msc_bot.c **** #if (USBH_USE_OS == 1U)
 414              		.loc 1 250 0
 415 009a 0126     		movs	r6, #1
 416 009c 84F85060 		strb	r6, [r4, #80]
 252:Middlewares/ST/STM32_USB_Host_Library/Class/MSC/Src/usbh_msc_bot.c **** #endif
 417              		.loc 1 252 0
 418 00a0 0022     		movs	r2, #0
 419 00a2 0221     		movs	r1, #2
 420 00a4 D5F8CC03 		ldr	r0, [r5, #972]
 421              	.LVL33:
 422 00a8 FFF7FEFF 		bl	osMessagePut
 423              	.LVL34:
 424 00ac CEE7     		b	.L28
 425              	.LVL35:
 426              	.L71:
 259:Middlewares/ST/STM32_USB_Host_Library/Class/MSC/Src/usbh_msc_bot.c **** #if (USBH_USE_OS == 1U)
 427              		.loc 1 259 0
 428 00ae 0A23     		movs	r3, #10
 429 00b0 84F85030 		strb	r3, [r4, #80]
 261:Middlewares/ST/STM32_USB_Host_Library/Class/MSC/Src/usbh_msc_bot.c **** #endif
 430              		.loc 1 261 0
 431 00b4 0022     		movs	r2, #0
 432 00b6 0221     		movs	r1, #2
 433 00b8 D5F8CC03 		ldr	r0, [r5, #972]
 434              	.LVL36:
 435 00bc FFF7FEFF 		bl	osMessagePut
 436              	.LVL37:
 200:Middlewares/ST/STM32_USB_Host_Library/Class/MSC/Src/usbh_msc_bot.c ****   USBH_StatusTypeDef   error  = USBH_BUSY;
 437              		.loc 1 200 0
 438 00c0 0126     		movs	r6, #1
 439 00c2 C3E7     		b	.L28
 440              	.LVL38:
 441              	.L32:
 269:Middlewares/ST/STM32_USB_Host_Library/Class/MSC/Src/usbh_msc_bot.c ****                           MSC_Handle->InEpSize, MSC_Handle->InPipe);
 442              		.loc 1 269 0
 443 00c4 2379     		ldrb	r3, [r4, #4]	@ zero_extendqisi2
 444 00c6 6289     		ldrh	r2, [r4, #10]
 445 00c8 D4F88C10 		ldr	r1, [r4, #140]
 446              	.LVL39:
 447 00cc FFF7FEFF 		bl	USBH_BulkReceiveData
 448              	.LVL40:
 272:Middlewares/ST/STM32_USB_Host_Library/Class/MSC/Src/usbh_msc_bot.c **** 
 449              		.loc 1 272 0
 450 00d0 0423     		movs	r3, #4
 451 00d2 84F85030 		strb	r3, [r4, #80]
ARM GAS  C:\Users\Patryk\AppData\Local\Temp\ccQkv38E.s 			page 21


 200:Middlewares/ST/STM32_USB_Host_Library/Class/MSC/Src/usbh_msc_bot.c ****   USBH_StatusTypeDef   error  = USBH_BUSY;
 452              		.loc 1 200 0
 453 00d6 0126     		movs	r6, #1
 274:Middlewares/ST/STM32_USB_Host_Library/Class/MSC/Src/usbh_msc_bot.c **** 
 454              		.loc 1 274 0
 455 00d8 B8E7     		b	.L28
 456              	.LVL41:
 457              	.L33:
 278:Middlewares/ST/STM32_USB_Host_Library/Class/MSC/Src/usbh_msc_bot.c **** 
 458              		.loc 1 278 0
 459 00da 2179     		ldrb	r1, [r4, #4]	@ zero_extendqisi2
 460              	.LVL42:
 461 00dc FFF7FEFF 		bl	USBH_LL_GetURBState
 462              	.LVL43:
 280:Middlewares/ST/STM32_USB_Host_Library/Class/MSC/Src/usbh_msc_bot.c ****     {
 463              		.loc 1 280 0
 464 00e0 0128     		cmp	r0, #1
 465 00e2 03D0     		beq	.L73
 309:Middlewares/ST/STM32_USB_Host_Library/Class/MSC/Src/usbh_msc_bot.c ****     {
 466              		.loc 1 309 0
 467 00e4 0528     		cmp	r0, #5
 468 00e6 25D0     		beq	.L74
 200:Middlewares/ST/STM32_USB_Host_Library/Class/MSC/Src/usbh_msc_bot.c ****   USBH_StatusTypeDef   error  = USBH_BUSY;
 469              		.loc 1 200 0
 470 00e8 0126     		movs	r6, #1
 471 00ea AFE7     		b	.L28
 472              	.L73:
 283:Middlewares/ST/STM32_USB_Host_Library/Class/MSC/Src/usbh_msc_bot.c ****       {
 473              		.loc 1 283 0
 474 00ec E36D     		ldr	r3, [r4, #92]
 475 00ee 6289     		ldrh	r2, [r4, #10]
 476 00f0 9342     		cmp	r3, r2
 477 00f2 11D9     		bls	.L47
 285:Middlewares/ST/STM32_USB_Host_Library/Class/MSC/Src/usbh_msc_bot.c ****           MSC_Handle->hbot.cbw.field.DataTransferLength -= MSC_Handle->InEpSize;
 478              		.loc 1 285 0
 479 00f4 D4F88C10 		ldr	r1, [r4, #140]
 480 00f8 1144     		add	r1, r1, r2
 481 00fa C4F88C10 		str	r1, [r4, #140]
 286:Middlewares/ST/STM32_USB_Host_Library/Class/MSC/Src/usbh_msc_bot.c ****       }
 482              		.loc 1 286 0
 483 00fe 9B1A     		subs	r3, r3, r2
 484 0100 E365     		str	r3, [r4, #92]
 485              	.L48:
 294:Middlewares/ST/STM32_USB_Host_Library/Class/MSC/Src/usbh_msc_bot.c ****       {
 486              		.loc 1 294 0
 487 0102 E36D     		ldr	r3, [r4, #92]
 488 0104 5BB1     		cbz	r3, .L49
 297:Middlewares/ST/STM32_USB_Host_Library/Class/MSC/Src/usbh_msc_bot.c ****                               MSC_Handle->InEpSize, MSC_Handle->InPipe);
 489              		.loc 1 297 0
 490 0106 2379     		ldrb	r3, [r4, #4]	@ zero_extendqisi2
 491 0108 6289     		ldrh	r2, [r4, #10]
 492 010a D4F88C10 		ldr	r1, [r4, #140]
 493 010e 2846     		mov	r0, r5
 494              	.LVL44:
 495 0110 FFF7FEFF 		bl	USBH_BulkReceiveData
 496              	.LVL45:
 200:Middlewares/ST/STM32_USB_Host_Library/Class/MSC/Src/usbh_msc_bot.c ****   USBH_StatusTypeDef   error  = USBH_BUSY;
ARM GAS  C:\Users\Patryk\AppData\Local\Temp\ccQkv38E.s 			page 22


 497              		.loc 1 200 0
 498 0114 0126     		movs	r6, #1
 499 0116 99E7     		b	.L28
 500              	.LVL46:
 501              	.L47:
 290:Middlewares/ST/STM32_USB_Host_Library/Class/MSC/Src/usbh_msc_bot.c ****       }
 502              		.loc 1 290 0
 503 0118 0023     		movs	r3, #0
 504 011a E365     		str	r3, [r4, #92]
 505 011c F1E7     		b	.L48
 506              	.L49:
 303:Middlewares/ST/STM32_USB_Host_Library/Class/MSC/Src/usbh_msc_bot.c **** #if (USBH_USE_OS == 1U)
 507              		.loc 1 303 0
 508 011e 0723     		movs	r3, #7
 509 0120 84F85030 		strb	r3, [r4, #80]
 305:Middlewares/ST/STM32_USB_Host_Library/Class/MSC/Src/usbh_msc_bot.c **** #endif
 510              		.loc 1 305 0
 511 0124 0022     		movs	r2, #0
 512 0126 0221     		movs	r1, #2
 513 0128 D5F8CC03 		ldr	r0, [r5, #972]
 514              	.LVL47:
 515 012c FFF7FEFF 		bl	osMessagePut
 516              	.LVL48:
 200:Middlewares/ST/STM32_USB_Host_Library/Class/MSC/Src/usbh_msc_bot.c ****   USBH_StatusTypeDef   error  = USBH_BUSY;
 517              		.loc 1 200 0
 518 0130 0126     		movs	r6, #1
 519 0132 8BE7     		b	.L28
 520              	.LVL49:
 521              	.L74:
 312:Middlewares/ST/STM32_USB_Host_Library/Class/MSC/Src/usbh_msc_bot.c **** 
 522              		.loc 1 312 0
 523 0134 0923     		movs	r3, #9
 524 0136 84F85030 		strb	r3, [r4, #80]
 322:Middlewares/ST/STM32_USB_Host_Library/Class/MSC/Src/usbh_msc_bot.c **** #endif
 525              		.loc 1 322 0
 526 013a 0022     		movs	r2, #0
 527 013c 0221     		movs	r1, #2
 528 013e D5F8CC03 		ldr	r0, [r5, #972]
 529              	.LVL50:
 530 0142 FFF7FEFF 		bl	osMessagePut
 531              	.LVL51:
 200:Middlewares/ST/STM32_USB_Host_Library/Class/MSC/Src/usbh_msc_bot.c ****   USBH_StatusTypeDef   error  = USBH_BUSY;
 532              		.loc 1 200 0
 533 0146 0126     		movs	r6, #1
 534 0148 80E7     		b	.L28
 535              	.LVL52:
 536              	.L34:
 332:Middlewares/ST/STM32_USB_Host_Library/Class/MSC/Src/usbh_msc_bot.c ****                        MSC_Handle->OutEpSize, MSC_Handle->OutPipe, 1U);
 537              		.loc 1 332 0
 538 014a 6379     		ldrb	r3, [r4, #5]	@ zero_extendqisi2
 539 014c 2289     		ldrh	r2, [r4, #8]
 540 014e D4F88C10 		ldr	r1, [r4, #140]
 541              	.LVL53:
 542 0152 0126     		movs	r6, #1
 543 0154 0096     		str	r6, [sp]
 544 0156 FFF7FEFF 		bl	USBH_BulkSendData
 545              	.LVL54:
ARM GAS  C:\Users\Patryk\AppData\Local\Temp\ccQkv38E.s 			page 23


 335:Middlewares/ST/STM32_USB_Host_Library/Class/MSC/Src/usbh_msc_bot.c ****     break;
 546              		.loc 1 335 0
 547 015a 0623     		movs	r3, #6
 548 015c 84F85030 		strb	r3, [r4, #80]
 336:Middlewares/ST/STM32_USB_Host_Library/Class/MSC/Src/usbh_msc_bot.c **** 
 549              		.loc 1 336 0
 550 0160 74E7     		b	.L28
 551              	.LVL55:
 552              	.L35:
 339:Middlewares/ST/STM32_USB_Host_Library/Class/MSC/Src/usbh_msc_bot.c **** 
 553              		.loc 1 339 0
 554 0162 6179     		ldrb	r1, [r4, #5]	@ zero_extendqisi2
 555              	.LVL56:
 556 0164 FFF7FEFF 		bl	USBH_LL_GetURBState
 557              	.LVL57:
 341:Middlewares/ST/STM32_USB_Host_Library/Class/MSC/Src/usbh_msc_bot.c ****     {
 558              		.loc 1 341 0
 559 0168 0128     		cmp	r0, #1
 560 016a 05D0     		beq	.L75
 370:Middlewares/ST/STM32_USB_Host_Library/Class/MSC/Src/usbh_msc_bot.c ****     {
 561              		.loc 1 370 0
 562 016c 0228     		cmp	r0, #2
 563 016e 28D0     		beq	.L76
 379:Middlewares/ST/STM32_USB_Host_Library/Class/MSC/Src/usbh_msc_bot.c ****     {
 564              		.loc 1 379 0
 565 0170 0528     		cmp	r0, #5
 566 0172 31D0     		beq	.L77
 200:Middlewares/ST/STM32_USB_Host_Library/Class/MSC/Src/usbh_msc_bot.c ****   USBH_StatusTypeDef   error  = USBH_BUSY;
 567              		.loc 1 200 0
 568 0174 0126     		movs	r6, #1
 569 0176 69E7     		b	.L28
 570              	.L75:
 344:Middlewares/ST/STM32_USB_Host_Library/Class/MSC/Src/usbh_msc_bot.c ****       {
 571              		.loc 1 344 0
 572 0178 E36D     		ldr	r3, [r4, #92]
 573 017a 2289     		ldrh	r2, [r4, #8]
 574 017c 9342     		cmp	r3, r2
 575 017e 13D9     		bls	.L51
 346:Middlewares/ST/STM32_USB_Host_Library/Class/MSC/Src/usbh_msc_bot.c ****           MSC_Handle->hbot.cbw.field.DataTransferLength -= MSC_Handle->OutEpSize;
 576              		.loc 1 346 0
 577 0180 D4F88C10 		ldr	r1, [r4, #140]
 578 0184 1144     		add	r1, r1, r2
 579 0186 C4F88C10 		str	r1, [r4, #140]
 347:Middlewares/ST/STM32_USB_Host_Library/Class/MSC/Src/usbh_msc_bot.c ****       }
 580              		.loc 1 347 0
 581 018a 9B1A     		subs	r3, r3, r2
 582 018c E365     		str	r3, [r4, #92]
 583              	.L52:
 355:Middlewares/ST/STM32_USB_Host_Library/Class/MSC/Src/usbh_msc_bot.c ****       {
 584              		.loc 1 355 0
 585 018e E36D     		ldr	r3, [r4, #92]
 586 0190 6BB9     		cbnz	r3, .L78
 363:Middlewares/ST/STM32_USB_Host_Library/Class/MSC/Src/usbh_msc_bot.c ****       }
 587              		.loc 1 363 0
 588 0192 0723     		movs	r3, #7
 589 0194 84F85030 		strb	r3, [r4, #80]
 590              	.LVL58:
ARM GAS  C:\Users\Patryk\AppData\Local\Temp\ccQkv38E.s 			page 24


 591              	.L54:
 366:Middlewares/ST/STM32_USB_Host_Library/Class/MSC/Src/usbh_msc_bot.c **** #endif
 592              		.loc 1 366 0
 593 0198 0022     		movs	r2, #0
 594 019a 0221     		movs	r1, #2
 595 019c D5F8CC03 		ldr	r0, [r5, #972]
 596 01a0 FFF7FEFF 		bl	osMessagePut
 597              	.LVL59:
 200:Middlewares/ST/STM32_USB_Host_Library/Class/MSC/Src/usbh_msc_bot.c ****   USBH_StatusTypeDef   error  = USBH_BUSY;
 598              		.loc 1 200 0
 599 01a4 0126     		movs	r6, #1
 600 01a6 51E7     		b	.L28
 601              	.LVL60:
 602              	.L51:
 351:Middlewares/ST/STM32_USB_Host_Library/Class/MSC/Src/usbh_msc_bot.c ****       }
 603              		.loc 1 351 0
 604 01a8 0023     		movs	r3, #0
 605 01aa E365     		str	r3, [r4, #92]
 606 01ac EFE7     		b	.L52
 607              	.L78:
 357:Middlewares/ST/STM32_USB_Host_Library/Class/MSC/Src/usbh_msc_bot.c ****                            MSC_Handle->OutEpSize, MSC_Handle->OutPipe, 1U);
 608              		.loc 1 357 0
 609 01ae 6379     		ldrb	r3, [r4, #5]	@ zero_extendqisi2
 610 01b0 2289     		ldrh	r2, [r4, #8]
 611 01b2 D4F88C10 		ldr	r1, [r4, #140]
 612 01b6 0120     		movs	r0, #1
 613              	.LVL61:
 614 01b8 0090     		str	r0, [sp]
 615 01ba 2846     		mov	r0, r5
 616 01bc FFF7FEFF 		bl	USBH_BulkSendData
 617              	.LVL62:
 618 01c0 EAE7     		b	.L54
 619              	.LVL63:
 620              	.L76:
 373:Middlewares/ST/STM32_USB_Host_Library/Class/MSC/Src/usbh_msc_bot.c **** #if (USBH_USE_OS == 1U)
 621              		.loc 1 373 0
 622 01c2 0523     		movs	r3, #5
 623 01c4 84F85030 		strb	r3, [r4, #80]
 375:Middlewares/ST/STM32_USB_Host_Library/Class/MSC/Src/usbh_msc_bot.c **** #endif
 624              		.loc 1 375 0
 625 01c8 0022     		movs	r2, #0
 626 01ca 0221     		movs	r1, #2
 627 01cc D5F8CC03 		ldr	r0, [r5, #972]
 628              	.LVL64:
 629 01d0 FFF7FEFF 		bl	osMessagePut
 630              	.LVL65:
 200:Middlewares/ST/STM32_USB_Host_Library/Class/MSC/Src/usbh_msc_bot.c ****   USBH_StatusTypeDef   error  = USBH_BUSY;
 631              		.loc 1 200 0
 632 01d4 0126     		movs	r6, #1
 633 01d6 39E7     		b	.L28
 634              	.LVL66:
 635              	.L77:
 381:Middlewares/ST/STM32_USB_Host_Library/Class/MSC/Src/usbh_msc_bot.c **** 
 636              		.loc 1 381 0
 637 01d8 0A23     		movs	r3, #10
 638 01da 84F85030 		strb	r3, [r4, #80]
 390:Middlewares/ST/STM32_USB_Host_Library/Class/MSC/Src/usbh_msc_bot.c **** #endif
ARM GAS  C:\Users\Patryk\AppData\Local\Temp\ccQkv38E.s 			page 25


 639              		.loc 1 390 0
 640 01de 0022     		movs	r2, #0
 641 01e0 0221     		movs	r1, #2
 642 01e2 D5F8CC03 		ldr	r0, [r5, #972]
 643              	.LVL67:
 644 01e6 FFF7FEFF 		bl	osMessagePut
 645              	.LVL68:
 200:Middlewares/ST/STM32_USB_Host_Library/Class/MSC/Src/usbh_msc_bot.c ****   USBH_StatusTypeDef   error  = USBH_BUSY;
 646              		.loc 1 200 0
 647 01ea 0126     		movs	r6, #1
 648 01ec 2EE7     		b	.L28
 649              	.LVL69:
 650              	.L36:
 400:Middlewares/ST/STM32_USB_Host_Library/Class/MSC/Src/usbh_msc_bot.c ****                           BOT_CSW_LENGTH, MSC_Handle->InPipe);
 651              		.loc 1 400 0
 652 01ee 2379     		ldrb	r3, [r4, #4]	@ zero_extendqisi2
 653 01f0 0D22     		movs	r2, #13
 654 01f2 04F17801 		add	r1, r4, #120
 655              	.LVL70:
 656 01f6 FFF7FEFF 		bl	USBH_BulkReceiveData
 657              	.LVL71:
 403:Middlewares/ST/STM32_USB_Host_Library/Class/MSC/Src/usbh_msc_bot.c ****     break;
 658              		.loc 1 403 0
 659 01fa 0823     		movs	r3, #8
 660 01fc 84F85030 		strb	r3, [r4, #80]
 200:Middlewares/ST/STM32_USB_Host_Library/Class/MSC/Src/usbh_msc_bot.c ****   USBH_StatusTypeDef   error  = USBH_BUSY;
 661              		.loc 1 200 0
 662 0200 0126     		movs	r6, #1
 404:Middlewares/ST/STM32_USB_Host_Library/Class/MSC/Src/usbh_msc_bot.c **** 
 663              		.loc 1 404 0
 664 0202 23E7     		b	.L28
 665              	.LVL72:
 666              	.L37:
 408:Middlewares/ST/STM32_USB_Host_Library/Class/MSC/Src/usbh_msc_bot.c **** 
 667              		.loc 1 408 0
 668 0204 2179     		ldrb	r1, [r4, #4]	@ zero_extendqisi2
 669              	.LVL73:
 670 0206 FFF7FEFF 		bl	USBH_LL_GetURBState
 671              	.LVL74:
 411:Middlewares/ST/STM32_USB_Host_Library/Class/MSC/Src/usbh_msc_bot.c ****     {
 672              		.loc 1 411 0
 673 020a 0128     		cmp	r0, #1
 674 020c 03D0     		beq	.L79
 429:Middlewares/ST/STM32_USB_Host_Library/Class/MSC/Src/usbh_msc_bot.c ****     {
 675              		.loc 1 429 0
 676 020e 0528     		cmp	r0, #5
 677 0210 14D0     		beq	.L80
 200:Middlewares/ST/STM32_USB_Host_Library/Class/MSC/Src/usbh_msc_bot.c ****   USBH_StatusTypeDef   error  = USBH_BUSY;
 678              		.loc 1 200 0
 679 0212 0126     		movs	r6, #1
 680 0214 1AE7     		b	.L28
 681              	.L79:
 413:Middlewares/ST/STM32_USB_Host_Library/Class/MSC/Src/usbh_msc_bot.c ****       MSC_Handle->hbot.cmd_state = BOT_CMD_SEND;
 682              		.loc 1 413 0
 683 0216 0123     		movs	r3, #1
 684 0218 84F85030 		strb	r3, [r4, #80]
 414:Middlewares/ST/STM32_USB_Host_Library/Class/MSC/Src/usbh_msc_bot.c ****       CSW_Status = USBH_MSC_DecodeCSW(phost);
ARM GAS  C:\Users\Patryk\AppData\Local\Temp\ccQkv38E.s 			page 26


 685              		.loc 1 414 0
 686 021c 84F85230 		strb	r3, [r4, #82]
 415:Middlewares/ST/STM32_USB_Host_Library/Class/MSC/Src/usbh_msc_bot.c **** 
 687              		.loc 1 415 0
 688 0220 2846     		mov	r0, r5
 689              	.LVL75:
 690 0222 FFF7FEFF 		bl	USBH_MSC_DecodeCSW
 691              	.LVL76:
 417:Middlewares/ST/STM32_USB_Host_Library/Class/MSC/Src/usbh_msc_bot.c ****       {
 692              		.loc 1 417 0
 693 0226 38B1     		cbz	r0, .L81
 423:Middlewares/ST/STM32_USB_Host_Library/Class/MSC/Src/usbh_msc_bot.c ****       }
 694              		.loc 1 423 0
 695 0228 0226     		movs	r6, #2
 696              	.L57:
 697              	.LVL77:
 426:Middlewares/ST/STM32_USB_Host_Library/Class/MSC/Src/usbh_msc_bot.c **** #endif
 698              		.loc 1 426 0
 699 022a 0022     		movs	r2, #0
 700 022c 0221     		movs	r1, #2
 701 022e D5F8CC03 		ldr	r0, [r5, #972]
 702              	.LVL78:
 703 0232 FFF7FEFF 		bl	osMessagePut
 704              	.LVL79:
 705 0236 09E7     		b	.L28
 706              	.LVL80:
 707              	.L81:
 419:Middlewares/ST/STM32_USB_Host_Library/Class/MSC/Src/usbh_msc_bot.c ****       }
 708              		.loc 1 419 0
 709 0238 0026     		movs	r6, #0
 710 023a F6E7     		b	.L57
 711              	.LVL81:
 712              	.L80:
 431:Middlewares/ST/STM32_USB_Host_Library/Class/MSC/Src/usbh_msc_bot.c **** #if (USBH_USE_OS == 1U)
 713              		.loc 1 431 0
 714 023c 0923     		movs	r3, #9
 715 023e 84F85030 		strb	r3, [r4, #80]
 433:Middlewares/ST/STM32_USB_Host_Library/Class/MSC/Src/usbh_msc_bot.c **** #endif
 716              		.loc 1 433 0
 717 0242 0022     		movs	r2, #0
 718 0244 0221     		movs	r1, #2
 719 0246 D5F8CC03 		ldr	r0, [r5, #972]
 720              	.LVL82:
 721 024a FFF7FEFF 		bl	osMessagePut
 722              	.LVL83:
 200:Middlewares/ST/STM32_USB_Host_Library/Class/MSC/Src/usbh_msc_bot.c ****   USBH_StatusTypeDef   error  = USBH_BUSY;
 723              		.loc 1 200 0
 724 024e 0126     		movs	r6, #1
 725 0250 FCE6     		b	.L28
 726              	.LVL84:
 727              	.L38:
 442:Middlewares/ST/STM32_USB_Host_Library/Class/MSC/Src/usbh_msc_bot.c **** 
 728              		.loc 1 442 0
 729 0252 0022     		movs	r2, #0
 730 0254 FFF7FEFF 		bl	USBH_MSC_BOT_Abort
 731              	.LVL85:
 444:Middlewares/ST/STM32_USB_Host_Library/Class/MSC/Src/usbh_msc_bot.c ****     {
ARM GAS  C:\Users\Patryk\AppData\Local\Temp\ccQkv38E.s 			page 27


 732              		.loc 1 444 0
 733 0258 18B1     		cbz	r0, .L82
 448:Middlewares/ST/STM32_USB_Host_Library/Class/MSC/Src/usbh_msc_bot.c ****     {
 734              		.loc 1 448 0
 735 025a 0428     		cmp	r0, #4
 736 025c 06D0     		beq	.L83
 200:Middlewares/ST/STM32_USB_Host_Library/Class/MSC/Src/usbh_msc_bot.c ****   USBH_StatusTypeDef   error  = USBH_BUSY;
 737              		.loc 1 200 0
 738 025e 0126     		movs	r6, #1
 739 0260 F4E6     		b	.L28
 740              	.L82:
 446:Middlewares/ST/STM32_USB_Host_Library/Class/MSC/Src/usbh_msc_bot.c ****     }
 741              		.loc 1 446 0
 742 0262 0723     		movs	r3, #7
 743 0264 84F85030 		strb	r3, [r4, #80]
 200:Middlewares/ST/STM32_USB_Host_Library/Class/MSC/Src/usbh_msc_bot.c ****   USBH_StatusTypeDef   error  = USBH_BUSY;
 744              		.loc 1 200 0
 745 0268 0126     		movs	r6, #1
 746 026a EFE6     		b	.L28
 747              	.L83:
 451:Middlewares/ST/STM32_USB_Host_Library/Class/MSC/Src/usbh_msc_bot.c ****     }
 748              		.loc 1 451 0
 749 026c 0B23     		movs	r3, #11
 750 026e 84F85030 		strb	r3, [r4, #80]
 200:Middlewares/ST/STM32_USB_Host_Library/Class/MSC/Src/usbh_msc_bot.c ****   USBH_StatusTypeDef   error  = USBH_BUSY;
 751              		.loc 1 200 0
 752 0272 0126     		movs	r6, #1
 753 0274 EAE6     		b	.L28
 754              	.LVL86:
 755              	.L39:
 459:Middlewares/ST/STM32_USB_Host_Library/Class/MSC/Src/usbh_msc_bot.c **** 
 756              		.loc 1 459 0
 757 0276 0122     		movs	r2, #1
 758 0278 FFF7FEFF 		bl	USBH_MSC_BOT_Abort
 759              	.LVL87:
 461:Middlewares/ST/STM32_USB_Host_Library/Class/MSC/Src/usbh_msc_bot.c ****     {
 760              		.loc 1 461 0
 761 027c 18B1     		cbz	r0, .L84
 471:Middlewares/ST/STM32_USB_Host_Library/Class/MSC/Src/usbh_msc_bot.c ****       {
 762              		.loc 1 471 0
 763 027e 0428     		cmp	r0, #4
 764 0280 16D0     		beq	.L85
 200:Middlewares/ST/STM32_USB_Host_Library/Class/MSC/Src/usbh_msc_bot.c ****   USBH_StatusTypeDef   error  = USBH_BUSY;
 765              		.loc 1 200 0
 766 0282 0126     		movs	r6, #1
 767 0284 E2E6     		b	.L28
 768              	.L84:
 464:Middlewares/ST/STM32_USB_Host_Library/Class/MSC/Src/usbh_msc_bot.c ****       USBH_LL_SetToggle(phost, MSC_Handle->OutPipe, 1U - toggle);
 769              		.loc 1 464 0
 770 0286 6179     		ldrb	r1, [r4, #5]	@ zero_extendqisi2
 771 0288 2846     		mov	r0, r5
 772              	.LVL88:
 773 028a FFF7FEFF 		bl	USBH_LL_GetToggle
 774              	.LVL89:
 465:Middlewares/ST/STM32_USB_Host_Library/Class/MSC/Src/usbh_msc_bot.c ****       USBH_LL_SetToggle(phost, MSC_Handle->InPipe, 0U);
 775              		.loc 1 465 0
 776 028e C0F10102 		rsb	r2, r0, #1
ARM GAS  C:\Users\Patryk\AppData\Local\Temp\ccQkv38E.s 			page 28


 777 0292 D2B2     		uxtb	r2, r2
 778 0294 6179     		ldrb	r1, [r4, #5]	@ zero_extendqisi2
 779 0296 2846     		mov	r0, r5
 780              	.LVL90:
 781 0298 FFF7FEFF 		bl	USBH_LL_SetToggle
 782              	.LVL91:
 466:Middlewares/ST/STM32_USB_Host_Library/Class/MSC/Src/usbh_msc_bot.c ****       MSC_Handle->hbot.state = BOT_ERROR_IN;
 783              		.loc 1 466 0
 784 029c 0022     		movs	r2, #0
 785 029e 2179     		ldrb	r1, [r4, #4]	@ zero_extendqisi2
 786 02a0 2846     		mov	r0, r5
 787 02a2 FFF7FEFF 		bl	USBH_LL_SetToggle
 788              	.LVL92:
 467:Middlewares/ST/STM32_USB_Host_Library/Class/MSC/Src/usbh_msc_bot.c ****     }
 789              		.loc 1 467 0
 790 02a6 0923     		movs	r3, #9
 791 02a8 84F85030 		strb	r3, [r4, #80]
 200:Middlewares/ST/STM32_USB_Host_Library/Class/MSC/Src/usbh_msc_bot.c ****   USBH_StatusTypeDef   error  = USBH_BUSY;
 792              		.loc 1 200 0
 793 02ac 0126     		movs	r6, #1
 794 02ae CDE6     		b	.L28
 795              	.LVL93:
 796              	.L85:
 473:Middlewares/ST/STM32_USB_Host_Library/Class/MSC/Src/usbh_msc_bot.c ****       }
 797              		.loc 1 473 0
 798 02b0 0B23     		movs	r3, #11
 799 02b2 84F85030 		strb	r3, [r4, #80]
 200:Middlewares/ST/STM32_USB_Host_Library/Class/MSC/Src/usbh_msc_bot.c ****   USBH_StatusTypeDef   error  = USBH_BUSY;
 800              		.loc 1 200 0
 801 02b6 0126     		movs	r6, #1
 802 02b8 C8E6     		b	.L28
 803              	.LVL94:
 804              	.L40:
 480:Middlewares/ST/STM32_USB_Host_Library/Class/MSC/Src/usbh_msc_bot.c ****     if ( status == USBH_OK)
 805              		.loc 1 480 0
 806 02ba FFF7FEFF 		bl	USBH_MSC_BOT_REQ_Reset
 807              	.LVL95:
 481:Middlewares/ST/STM32_USB_Host_Library/Class/MSC/Src/usbh_msc_bot.c ****     {
 808              		.loc 1 481 0
 809 02be 0646     		mov	r6, r0
 810 02c0 0028     		cmp	r0, #0
 811 02c2 7FF4C3AE 		bne	.L28
 483:Middlewares/ST/STM32_USB_Host_Library/Class/MSC/Src/usbh_msc_bot.c ****     }
 812              		.loc 1 483 0
 813 02c6 0123     		movs	r3, #1
 814 02c8 84F85030 		strb	r3, [r4, #80]
 815 02cc BEE6     		b	.L28
 816              	.LVL96:
 817              	.L60:
 200:Middlewares/ST/STM32_USB_Host_Library/Class/MSC/Src/usbh_msc_bot.c ****   USBH_StatusTypeDef   error  = USBH_BUSY;
 818              		.loc 1 200 0
 819 02ce 0126     		movs	r6, #1
 820 02d0 BCE6     		b	.L28
 821              		.cfi_endproc
 822              	.LFE146:
 824              		.text
 825              	.Letext0:
ARM GAS  C:\Users\Patryk\AppData\Local\Temp\ccQkv38E.s 			page 29


 826              		.file 2 "c:\\program files (x86)\\gnu\\7_2018-q2-update\\arm-none-eabi\\include\\machine\\_default
 827              		.file 3 "c:\\program files (x86)\\gnu\\7_2018-q2-update\\arm-none-eabi\\include\\sys\\lock.h"
 828              		.file 4 "c:\\program files (x86)\\gnu\\7_2018-q2-update\\arm-none-eabi\\include\\sys\\_types.h"
 829              		.file 5 "c:\\program files (x86)\\gnu\\7_2018-q2-update\\lib\\gcc\\arm-none-eabi\\7.3.1\\include\\
 830              		.file 6 "c:\\program files (x86)\\gnu\\7_2018-q2-update\\arm-none-eabi\\include\\sys\\reent.h"
 831              		.file 7 "c:\\program files (x86)\\gnu\\7_2018-q2-update\\arm-none-eabi\\include\\sys\\_stdint.h"
 832              		.file 8 "c:\\program files (x86)\\gnu\\7_2018-q2-update\\arm-none-eabi\\include\\stdlib.h"
 833              		.file 9 "Drivers/CMSIS/Include/core_cm7.h"
 834              		.file 10 "Drivers/CMSIS/Device/ST/STM32F7xx/Include/system_stm32f7xx.h"
 835              		.file 11 "Middlewares/Third_Party/FreeRTOS/Source/include/task.h"
 836              		.file 12 "Middlewares/Third_Party/FreeRTOS/Source/include/queue.h"
 837              		.file 13 "Middlewares/Third_Party/FreeRTOS/Source/CMSIS_RTOS/cmsis_os.h"
 838              		.file 14 "Middlewares/ST/STM32_USB_Host_Library/Core/Inc/usbh_def.h"
 839              		.file 15 "Middlewares/ST/STM32_USB_Host_Library/Core/Inc/usbh_ctlreq.h"
 840              		.file 16 "Middlewares/ST/STM32_USB_Host_Library/Class/MSC/Inc/usbh_msc_bot.h"
 841              		.file 17 "Middlewares/ST/STM32_USB_Host_Library/Class/MSC/Inc/usbh_msc_scsi.h"
 842              		.file 18 "Middlewares/ST/STM32_USB_Host_Library/Class/MSC/Inc/usbh_msc.h"
 843              		.file 19 "Middlewares/ST/STM32_USB_Host_Library/Core/Inc/usbh_core.h"
 844              		.file 20 "Middlewares/ST/STM32_USB_Host_Library/Core/Inc/usbh_ioreq.h"
ARM GAS  C:\Users\Patryk\AppData\Local\Temp\ccQkv38E.s 			page 30

