ARM GAS  C:\Users\Patryk\AppData\Local\Temp\cccHu4h9.s 			page 1


   1              		.cpu cortex-m7
   2              		.eabi_attribute 27, 1
   3              		.eabi_attribute 28, 1
   4              		.eabi_attribute 20, 1
   5              		.eabi_attribute 21, 1
   6              		.eabi_attribute 23, 3
   7              		.eabi_attribute 24, 1
   8              		.eabi_attribute 25, 1
   9              		.eabi_attribute 26, 1
  10              		.eabi_attribute 30, 1
  11              		.eabi_attribute 34, 1
  12              		.eabi_attribute 18, 4
  13              		.file	"usbh_core.c"
  14              		.text
  15              	.Ltext0:
  16              		.cfi_sections	.debug_frame
  17              		.section	.text.DeInitStateMachine,"ax",%progbits
  18              		.align	1
  19              		.syntax unified
  20              		.thumb
  21              		.thumb_func
  22              		.fpu fpv5-sp-d16
  24              	DeInitStateMachine:
  25              	.LFB145:
  26              		.file 1 "Middlewares/ST/STM32_USB_Host_Library/Core/Src/usbh_core.c"
   1:Middlewares/ST/STM32_USB_Host_Library/Core/Src/usbh_core.c **** /**
   2:Middlewares/ST/STM32_USB_Host_Library/Core/Src/usbh_core.c ****   ******************************************************************************
   3:Middlewares/ST/STM32_USB_Host_Library/Core/Src/usbh_core.c ****   * @file    usbh_core.c
   4:Middlewares/ST/STM32_USB_Host_Library/Core/Src/usbh_core.c ****   * @author  MCD Application Team
   5:Middlewares/ST/STM32_USB_Host_Library/Core/Src/usbh_core.c ****   * @brief   This file implements the functions for the core state machine process
   6:Middlewares/ST/STM32_USB_Host_Library/Core/Src/usbh_core.c ****   *          the enumeration and the control transfer process
   7:Middlewares/ST/STM32_USB_Host_Library/Core/Src/usbh_core.c ****   ******************************************************************************
   8:Middlewares/ST/STM32_USB_Host_Library/Core/Src/usbh_core.c ****   * @attention
   9:Middlewares/ST/STM32_USB_Host_Library/Core/Src/usbh_core.c ****   *
  10:Middlewares/ST/STM32_USB_Host_Library/Core/Src/usbh_core.c ****   * <h2><center>&copy; Copyright (c) 2017 STMicroelectronics International N.V.
  11:Middlewares/ST/STM32_USB_Host_Library/Core/Src/usbh_core.c ****   * All rights reserved.</center></h2>
  12:Middlewares/ST/STM32_USB_Host_Library/Core/Src/usbh_core.c ****   *
  13:Middlewares/ST/STM32_USB_Host_Library/Core/Src/usbh_core.c ****   * Redistribution and use in source and binary forms, with or without
  14:Middlewares/ST/STM32_USB_Host_Library/Core/Src/usbh_core.c ****   * modification, are permitted, provided that the following conditions are met:
  15:Middlewares/ST/STM32_USB_Host_Library/Core/Src/usbh_core.c ****   *
  16:Middlewares/ST/STM32_USB_Host_Library/Core/Src/usbh_core.c ****   * 1. Redistribution of source code must retain the above copyright notice,
  17:Middlewares/ST/STM32_USB_Host_Library/Core/Src/usbh_core.c ****   *    this list of conditions and the following disclaimer.
  18:Middlewares/ST/STM32_USB_Host_Library/Core/Src/usbh_core.c ****   * 2. Redistributions in binary form must reproduce the above copyright notice,
  19:Middlewares/ST/STM32_USB_Host_Library/Core/Src/usbh_core.c ****   *    this list of conditions and the following disclaimer in the documentation
  20:Middlewares/ST/STM32_USB_Host_Library/Core/Src/usbh_core.c ****   *    and/or other materials provided with the distribution.
  21:Middlewares/ST/STM32_USB_Host_Library/Core/Src/usbh_core.c ****   * 3. Neither the name of STMicroelectronics nor the names of other
  22:Middlewares/ST/STM32_USB_Host_Library/Core/Src/usbh_core.c ****   *    contributors to this software may be used to endorse or promote products
  23:Middlewares/ST/STM32_USB_Host_Library/Core/Src/usbh_core.c ****   *    derived from this software without specific written permission.
  24:Middlewares/ST/STM32_USB_Host_Library/Core/Src/usbh_core.c ****   * 4. This software, including modifications and/or derivative works of this
  25:Middlewares/ST/STM32_USB_Host_Library/Core/Src/usbh_core.c ****   *    software, must execute solely and exclusively on microcontroller or
  26:Middlewares/ST/STM32_USB_Host_Library/Core/Src/usbh_core.c ****   *    microprocessor devices manufactured by or for STMicroelectronics.
  27:Middlewares/ST/STM32_USB_Host_Library/Core/Src/usbh_core.c ****   * 5. Redistribution and use of this software other than as permitted under
  28:Middlewares/ST/STM32_USB_Host_Library/Core/Src/usbh_core.c ****   *    this license is void and will automatically terminate your rights under
  29:Middlewares/ST/STM32_USB_Host_Library/Core/Src/usbh_core.c ****   *    this license.
  30:Middlewares/ST/STM32_USB_Host_Library/Core/Src/usbh_core.c ****   *
  31:Middlewares/ST/STM32_USB_Host_Library/Core/Src/usbh_core.c ****   * THIS SOFTWARE IS PROVIDED BY STMICROELECTRONICS AND CONTRIBUTORS "AS IS"
  32:Middlewares/ST/STM32_USB_Host_Library/Core/Src/usbh_core.c ****   * AND ANY EXPRESS, IMPLIED OR STATUTORY WARRANTIES, INCLUDING, BUT NOT
ARM GAS  C:\Users\Patryk\AppData\Local\Temp\cccHu4h9.s 			page 2


  33:Middlewares/ST/STM32_USB_Host_Library/Core/Src/usbh_core.c ****   * LIMITED TO, THE IMPLIED WARRANTIES OF MERCHANTABILITY, FITNESS FOR A
  34:Middlewares/ST/STM32_USB_Host_Library/Core/Src/usbh_core.c ****   * PARTICULAR PURPOSE AND NON-INFRINGEMENT OF THIRD PARTY INTELLECTUAL PROPERTY
  35:Middlewares/ST/STM32_USB_Host_Library/Core/Src/usbh_core.c ****   * RIGHTS ARE DISCLAIMED TO THE FULLEST EXTENT PERMITTED BY LAW. IN NO EVENT
  36:Middlewares/ST/STM32_USB_Host_Library/Core/Src/usbh_core.c ****   * SHALL STMICROELECTRONICS OR CONTRIBUTORS BE LIABLE FOR ANY DIRECT, INDIRECT,
  37:Middlewares/ST/STM32_USB_Host_Library/Core/Src/usbh_core.c ****   * INCIDENTAL, SPECIAL, EXEMPLARY, OR CONSEQUENTIAL DAMAGES (INCLUDING, BUT NOT
  38:Middlewares/ST/STM32_USB_Host_Library/Core/Src/usbh_core.c ****   * LIMITED TO, PROCUREMENT OF SUBSTITUTE GOODS OR SERVICES; LOSS OF USE, DATA,
  39:Middlewares/ST/STM32_USB_Host_Library/Core/Src/usbh_core.c ****   * OR PROFITS; OR BUSINESS INTERRUPTION) HOWEVER CAUSED AND ON ANY THEORY OF
  40:Middlewares/ST/STM32_USB_Host_Library/Core/Src/usbh_core.c ****   * LIABILITY, WHETHER IN CONTRACT, STRICT LIABILITY, OR TORT (INCLUDING
  41:Middlewares/ST/STM32_USB_Host_Library/Core/Src/usbh_core.c ****   * NEGLIGENCE OR OTHERWISE) ARISING IN ANY WAY OUT OF THE USE OF THIS SOFTWARE,
  42:Middlewares/ST/STM32_USB_Host_Library/Core/Src/usbh_core.c ****   * EVEN IF ADVISED OF THE POSSIBILITY OF SUCH DAMAGE.
  43:Middlewares/ST/STM32_USB_Host_Library/Core/Src/usbh_core.c ****   *
  44:Middlewares/ST/STM32_USB_Host_Library/Core/Src/usbh_core.c ****   ******************************************************************************
  45:Middlewares/ST/STM32_USB_Host_Library/Core/Src/usbh_core.c ****   */
  46:Middlewares/ST/STM32_USB_Host_Library/Core/Src/usbh_core.c **** /* Includes ------------------------------------------------------------------*/
  47:Middlewares/ST/STM32_USB_Host_Library/Core/Src/usbh_core.c **** 
  48:Middlewares/ST/STM32_USB_Host_Library/Core/Src/usbh_core.c **** #include "usbh_core.h"
  49:Middlewares/ST/STM32_USB_Host_Library/Core/Src/usbh_core.c **** 
  50:Middlewares/ST/STM32_USB_Host_Library/Core/Src/usbh_core.c **** 
  51:Middlewares/ST/STM32_USB_Host_Library/Core/Src/usbh_core.c **** /** @addtogroup USBH_LIB
  52:Middlewares/ST/STM32_USB_Host_Library/Core/Src/usbh_core.c ****   * @{
  53:Middlewares/ST/STM32_USB_Host_Library/Core/Src/usbh_core.c ****   */
  54:Middlewares/ST/STM32_USB_Host_Library/Core/Src/usbh_core.c **** 
  55:Middlewares/ST/STM32_USB_Host_Library/Core/Src/usbh_core.c **** /** @addtogroup USBH_LIB_CORE
  56:Middlewares/ST/STM32_USB_Host_Library/Core/Src/usbh_core.c ****   * @{
  57:Middlewares/ST/STM32_USB_Host_Library/Core/Src/usbh_core.c ****   */
  58:Middlewares/ST/STM32_USB_Host_Library/Core/Src/usbh_core.c **** 
  59:Middlewares/ST/STM32_USB_Host_Library/Core/Src/usbh_core.c **** /** @defgroup USBH_CORE
  60:Middlewares/ST/STM32_USB_Host_Library/Core/Src/usbh_core.c ****   * @brief This file handles the basic enumeration when a device is connected
  61:Middlewares/ST/STM32_USB_Host_Library/Core/Src/usbh_core.c ****   *          to the host.
  62:Middlewares/ST/STM32_USB_Host_Library/Core/Src/usbh_core.c ****   * @{
  63:Middlewares/ST/STM32_USB_Host_Library/Core/Src/usbh_core.c ****   */
  64:Middlewares/ST/STM32_USB_Host_Library/Core/Src/usbh_core.c **** 
  65:Middlewares/ST/STM32_USB_Host_Library/Core/Src/usbh_core.c **** 
  66:Middlewares/ST/STM32_USB_Host_Library/Core/Src/usbh_core.c **** /** @defgroup USBH_CORE_Private_Defines
  67:Middlewares/ST/STM32_USB_Host_Library/Core/Src/usbh_core.c ****   * @{
  68:Middlewares/ST/STM32_USB_Host_Library/Core/Src/usbh_core.c ****   */
  69:Middlewares/ST/STM32_USB_Host_Library/Core/Src/usbh_core.c **** #define USBH_ADDRESS_DEFAULT                     0x00U
  70:Middlewares/ST/STM32_USB_Host_Library/Core/Src/usbh_core.c **** #define USBH_ADDRESS_ASSIGNED                    0x01U
  71:Middlewares/ST/STM32_USB_Host_Library/Core/Src/usbh_core.c **** #define USBH_MPS_DEFAULT                         0x40U
  72:Middlewares/ST/STM32_USB_Host_Library/Core/Src/usbh_core.c **** /**
  73:Middlewares/ST/STM32_USB_Host_Library/Core/Src/usbh_core.c ****   * @}
  74:Middlewares/ST/STM32_USB_Host_Library/Core/Src/usbh_core.c ****   */
  75:Middlewares/ST/STM32_USB_Host_Library/Core/Src/usbh_core.c **** 
  76:Middlewares/ST/STM32_USB_Host_Library/Core/Src/usbh_core.c **** /** @defgroup USBH_CORE_Private_Macros
  77:Middlewares/ST/STM32_USB_Host_Library/Core/Src/usbh_core.c ****   * @{
  78:Middlewares/ST/STM32_USB_Host_Library/Core/Src/usbh_core.c ****   */
  79:Middlewares/ST/STM32_USB_Host_Library/Core/Src/usbh_core.c **** /**
  80:Middlewares/ST/STM32_USB_Host_Library/Core/Src/usbh_core.c ****   * @}
  81:Middlewares/ST/STM32_USB_Host_Library/Core/Src/usbh_core.c ****   */
  82:Middlewares/ST/STM32_USB_Host_Library/Core/Src/usbh_core.c **** 
  83:Middlewares/ST/STM32_USB_Host_Library/Core/Src/usbh_core.c **** 
  84:Middlewares/ST/STM32_USB_Host_Library/Core/Src/usbh_core.c **** /** @defgroup USBH_CORE_Private_Variables
  85:Middlewares/ST/STM32_USB_Host_Library/Core/Src/usbh_core.c ****   * @{
  86:Middlewares/ST/STM32_USB_Host_Library/Core/Src/usbh_core.c ****   */
  87:Middlewares/ST/STM32_USB_Host_Library/Core/Src/usbh_core.c **** /**
  88:Middlewares/ST/STM32_USB_Host_Library/Core/Src/usbh_core.c ****   * @}
  89:Middlewares/ST/STM32_USB_Host_Library/Core/Src/usbh_core.c ****   */
ARM GAS  C:\Users\Patryk\AppData\Local\Temp\cccHu4h9.s 			page 3


  90:Middlewares/ST/STM32_USB_Host_Library/Core/Src/usbh_core.c **** 
  91:Middlewares/ST/STM32_USB_Host_Library/Core/Src/usbh_core.c **** 
  92:Middlewares/ST/STM32_USB_Host_Library/Core/Src/usbh_core.c **** /** @defgroup USBH_CORE_Private_Functions
  93:Middlewares/ST/STM32_USB_Host_Library/Core/Src/usbh_core.c ****   * @{
  94:Middlewares/ST/STM32_USB_Host_Library/Core/Src/usbh_core.c ****   */
  95:Middlewares/ST/STM32_USB_Host_Library/Core/Src/usbh_core.c **** static USBH_StatusTypeDef  USBH_HandleEnum    (USBH_HandleTypeDef *phost);
  96:Middlewares/ST/STM32_USB_Host_Library/Core/Src/usbh_core.c **** static void                USBH_HandleSof     (USBH_HandleTypeDef *phost);
  97:Middlewares/ST/STM32_USB_Host_Library/Core/Src/usbh_core.c **** static USBH_StatusTypeDef  DeInitStateMachine(USBH_HandleTypeDef *phost);
  98:Middlewares/ST/STM32_USB_Host_Library/Core/Src/usbh_core.c **** 
  99:Middlewares/ST/STM32_USB_Host_Library/Core/Src/usbh_core.c **** #if (USBH_USE_OS == 1U)
 100:Middlewares/ST/STM32_USB_Host_Library/Core/Src/usbh_core.c **** static void USBH_Process_OS(void const * argument);
 101:Middlewares/ST/STM32_USB_Host_Library/Core/Src/usbh_core.c **** #endif
 102:Middlewares/ST/STM32_USB_Host_Library/Core/Src/usbh_core.c **** 
 103:Middlewares/ST/STM32_USB_Host_Library/Core/Src/usbh_core.c **** /**
 104:Middlewares/ST/STM32_USB_Host_Library/Core/Src/usbh_core.c ****   * @brief  HCD_Init
 105:Middlewares/ST/STM32_USB_Host_Library/Core/Src/usbh_core.c ****   *         Initialize the HOST Core.
 106:Middlewares/ST/STM32_USB_Host_Library/Core/Src/usbh_core.c ****   * @param  phost: Host Handle
 107:Middlewares/ST/STM32_USB_Host_Library/Core/Src/usbh_core.c ****   * @param  pUsrFunc: User Callback
 108:Middlewares/ST/STM32_USB_Host_Library/Core/Src/usbh_core.c ****   * @retval USBH Status
 109:Middlewares/ST/STM32_USB_Host_Library/Core/Src/usbh_core.c ****   */
 110:Middlewares/ST/STM32_USB_Host_Library/Core/Src/usbh_core.c **** USBH_StatusTypeDef  USBH_Init(USBH_HandleTypeDef *phost, void (*pUsrFunc)(USBH_HandleTypeDef *phost
 111:Middlewares/ST/STM32_USB_Host_Library/Core/Src/usbh_core.c **** {
 112:Middlewares/ST/STM32_USB_Host_Library/Core/Src/usbh_core.c ****   /* Check whether the USB Host handle is valid */
 113:Middlewares/ST/STM32_USB_Host_Library/Core/Src/usbh_core.c ****   if(phost == NULL)
 114:Middlewares/ST/STM32_USB_Host_Library/Core/Src/usbh_core.c ****   {
 115:Middlewares/ST/STM32_USB_Host_Library/Core/Src/usbh_core.c ****     USBH_ErrLog("Invalid Host handle");
 116:Middlewares/ST/STM32_USB_Host_Library/Core/Src/usbh_core.c ****     return USBH_FAIL;
 117:Middlewares/ST/STM32_USB_Host_Library/Core/Src/usbh_core.c ****   }
 118:Middlewares/ST/STM32_USB_Host_Library/Core/Src/usbh_core.c **** 
 119:Middlewares/ST/STM32_USB_Host_Library/Core/Src/usbh_core.c ****   /* Set DRiver ID */
 120:Middlewares/ST/STM32_USB_Host_Library/Core/Src/usbh_core.c ****   phost->id = id;
 121:Middlewares/ST/STM32_USB_Host_Library/Core/Src/usbh_core.c **** 
 122:Middlewares/ST/STM32_USB_Host_Library/Core/Src/usbh_core.c ****   /* Unlink class*/
 123:Middlewares/ST/STM32_USB_Host_Library/Core/Src/usbh_core.c ****   phost->pActiveClass = NULL;
 124:Middlewares/ST/STM32_USB_Host_Library/Core/Src/usbh_core.c ****   phost->ClassNumber = 0U;
 125:Middlewares/ST/STM32_USB_Host_Library/Core/Src/usbh_core.c **** 
 126:Middlewares/ST/STM32_USB_Host_Library/Core/Src/usbh_core.c ****   /* Restore default states and prepare EP0 */
 127:Middlewares/ST/STM32_USB_Host_Library/Core/Src/usbh_core.c ****   DeInitStateMachine(phost);
 128:Middlewares/ST/STM32_USB_Host_Library/Core/Src/usbh_core.c **** 
 129:Middlewares/ST/STM32_USB_Host_Library/Core/Src/usbh_core.c ****   /* Assign User process */
 130:Middlewares/ST/STM32_USB_Host_Library/Core/Src/usbh_core.c ****   if(pUsrFunc != NULL)
 131:Middlewares/ST/STM32_USB_Host_Library/Core/Src/usbh_core.c ****   {
 132:Middlewares/ST/STM32_USB_Host_Library/Core/Src/usbh_core.c ****     phost->pUser = pUsrFunc;
 133:Middlewares/ST/STM32_USB_Host_Library/Core/Src/usbh_core.c ****   }
 134:Middlewares/ST/STM32_USB_Host_Library/Core/Src/usbh_core.c **** 
 135:Middlewares/ST/STM32_USB_Host_Library/Core/Src/usbh_core.c **** #if (USBH_USE_OS == 1U)
 136:Middlewares/ST/STM32_USB_Host_Library/Core/Src/usbh_core.c **** 
 137:Middlewares/ST/STM32_USB_Host_Library/Core/Src/usbh_core.c ****   /* Create USB Host Queue */
 138:Middlewares/ST/STM32_USB_Host_Library/Core/Src/usbh_core.c ****   osMessageQDef(USBH_Queue, 10, uint16_t);
 139:Middlewares/ST/STM32_USB_Host_Library/Core/Src/usbh_core.c ****   phost->os_event = osMessageCreate (osMessageQ(USBH_Queue), NULL);
 140:Middlewares/ST/STM32_USB_Host_Library/Core/Src/usbh_core.c **** 
 141:Middlewares/ST/STM32_USB_Host_Library/Core/Src/usbh_core.c ****   /*Create USB Host Task */
 142:Middlewares/ST/STM32_USB_Host_Library/Core/Src/usbh_core.c **** #if defined (USBH_PROCESS_STACK_SIZE)
 143:Middlewares/ST/STM32_USB_Host_Library/Core/Src/usbh_core.c ****   osThreadDef(USBH_Thread, USBH_Process_OS, USBH_PROCESS_PRIO, 0, USBH_PROCESS_STACK_SIZE);
 144:Middlewares/ST/STM32_USB_Host_Library/Core/Src/usbh_core.c **** #else
 145:Middlewares/ST/STM32_USB_Host_Library/Core/Src/usbh_core.c ****   osThreadDef(USBH_Thread, USBH_Process_OS, USBH_PROCESS_PRIO, 0, 8 * configMINIMAL_STACK_SIZE);
 146:Middlewares/ST/STM32_USB_Host_Library/Core/Src/usbh_core.c **** #endif
ARM GAS  C:\Users\Patryk\AppData\Local\Temp\cccHu4h9.s 			page 4


 147:Middlewares/ST/STM32_USB_Host_Library/Core/Src/usbh_core.c ****   phost->thread = osThreadCreate (osThread(USBH_Thread), phost);
 148:Middlewares/ST/STM32_USB_Host_Library/Core/Src/usbh_core.c **** #endif
 149:Middlewares/ST/STM32_USB_Host_Library/Core/Src/usbh_core.c **** 
 150:Middlewares/ST/STM32_USB_Host_Library/Core/Src/usbh_core.c ****   /* Initialize low level driver */
 151:Middlewares/ST/STM32_USB_Host_Library/Core/Src/usbh_core.c ****   USBH_LL_Init(phost);
 152:Middlewares/ST/STM32_USB_Host_Library/Core/Src/usbh_core.c ****   return USBH_OK;
 153:Middlewares/ST/STM32_USB_Host_Library/Core/Src/usbh_core.c **** }
 154:Middlewares/ST/STM32_USB_Host_Library/Core/Src/usbh_core.c **** 
 155:Middlewares/ST/STM32_USB_Host_Library/Core/Src/usbh_core.c **** /**
 156:Middlewares/ST/STM32_USB_Host_Library/Core/Src/usbh_core.c ****   * @brief  HCD_Init
 157:Middlewares/ST/STM32_USB_Host_Library/Core/Src/usbh_core.c ****   *         De-Initialize the Host portion of the driver.
 158:Middlewares/ST/STM32_USB_Host_Library/Core/Src/usbh_core.c ****   * @param  phost: Host Handle
 159:Middlewares/ST/STM32_USB_Host_Library/Core/Src/usbh_core.c ****   * @retval USBH Status
 160:Middlewares/ST/STM32_USB_Host_Library/Core/Src/usbh_core.c ****   */
 161:Middlewares/ST/STM32_USB_Host_Library/Core/Src/usbh_core.c **** USBH_StatusTypeDef  USBH_DeInit(USBH_HandleTypeDef *phost)
 162:Middlewares/ST/STM32_USB_Host_Library/Core/Src/usbh_core.c **** {
 163:Middlewares/ST/STM32_USB_Host_Library/Core/Src/usbh_core.c ****   DeInitStateMachine(phost);
 164:Middlewares/ST/STM32_USB_Host_Library/Core/Src/usbh_core.c **** 
 165:Middlewares/ST/STM32_USB_Host_Library/Core/Src/usbh_core.c ****   if(phost->pData != NULL)
 166:Middlewares/ST/STM32_USB_Host_Library/Core/Src/usbh_core.c ****   {
 167:Middlewares/ST/STM32_USB_Host_Library/Core/Src/usbh_core.c ****     USBH_free (phost->pActiveClass->pData);
 168:Middlewares/ST/STM32_USB_Host_Library/Core/Src/usbh_core.c ****     phost->pActiveClass->pData = NULL;
 169:Middlewares/ST/STM32_USB_Host_Library/Core/Src/usbh_core.c ****     USBH_LL_Stop(phost);
 170:Middlewares/ST/STM32_USB_Host_Library/Core/Src/usbh_core.c ****   }
 171:Middlewares/ST/STM32_USB_Host_Library/Core/Src/usbh_core.c **** 
 172:Middlewares/ST/STM32_USB_Host_Library/Core/Src/usbh_core.c ****   return USBH_OK;
 173:Middlewares/ST/STM32_USB_Host_Library/Core/Src/usbh_core.c **** }
 174:Middlewares/ST/STM32_USB_Host_Library/Core/Src/usbh_core.c **** 
 175:Middlewares/ST/STM32_USB_Host_Library/Core/Src/usbh_core.c **** /**
 176:Middlewares/ST/STM32_USB_Host_Library/Core/Src/usbh_core.c ****   * @brief  DeInitStateMachine
 177:Middlewares/ST/STM32_USB_Host_Library/Core/Src/usbh_core.c ****   *         De-Initialize the Host state machine.
 178:Middlewares/ST/STM32_USB_Host_Library/Core/Src/usbh_core.c ****   * @param  phost: Host Handle
 179:Middlewares/ST/STM32_USB_Host_Library/Core/Src/usbh_core.c ****   * @retval USBH Status
 180:Middlewares/ST/STM32_USB_Host_Library/Core/Src/usbh_core.c ****   */
 181:Middlewares/ST/STM32_USB_Host_Library/Core/Src/usbh_core.c **** static USBH_StatusTypeDef  DeInitStateMachine(USBH_HandleTypeDef *phost)
 182:Middlewares/ST/STM32_USB_Host_Library/Core/Src/usbh_core.c **** {
  27              		.loc 1 182 0
  28              		.cfi_startproc
  29              		@ args = 0, pretend = 0, frame = 0
  30              		@ frame_needed = 0, uses_anonymous_args = 0
  31              		@ link register save eliminated.
  32              	.LVL0:
 183:Middlewares/ST/STM32_USB_Host_Library/Core/Src/usbh_core.c ****   uint32_t i = 0U;
  33              		.loc 1 183 0
  34 0000 0023     		movs	r3, #0
 184:Middlewares/ST/STM32_USB_Host_Library/Core/Src/usbh_core.c **** 
 185:Middlewares/ST/STM32_USB_Host_Library/Core/Src/usbh_core.c ****   /* Clear Pipes flags*/
 186:Middlewares/ST/STM32_USB_Host_Library/Core/Src/usbh_core.c ****   for ( ; i < USBH_MAX_PIPES_NBR; i++)
  35              		.loc 1 186 0
  36 0002 05E0     		b	.L2
  37              	.LVL1:
  38              	.L3:
 187:Middlewares/ST/STM32_USB_Host_Library/Core/Src/usbh_core.c ****   {
 188:Middlewares/ST/STM32_USB_Host_Library/Core/Src/usbh_core.c ****     phost->Pipes[i] = 0U;
  39              		.loc 1 188 0 discriminator 2
  40 0004 03F1E002 		add	r2, r3, #224
  41 0008 0021     		movs	r1, #0
ARM GAS  C:\Users\Patryk\AppData\Local\Temp\cccHu4h9.s 			page 5


  42 000a 40F82210 		str	r1, [r0, r2, lsl #2]
 186:Middlewares/ST/STM32_USB_Host_Library/Core/Src/usbh_core.c ****   {
  43              		.loc 1 186 0 discriminator 2
  44 000e 0133     		adds	r3, r3, #1
  45              	.LVL2:
  46              	.L2:
 186:Middlewares/ST/STM32_USB_Host_Library/Core/Src/usbh_core.c ****   {
  47              		.loc 1 186 0 is_stmt 0 discriminator 1
  48 0010 0E2B     		cmp	r3, #14
  49 0012 F7D9     		bls	.L3
 189:Middlewares/ST/STM32_USB_Host_Library/Core/Src/usbh_core.c ****   }
 190:Middlewares/ST/STM32_USB_Host_Library/Core/Src/usbh_core.c **** 
 191:Middlewares/ST/STM32_USB_Host_Library/Core/Src/usbh_core.c ****   for(i = 0U; i< USBH_MAX_DATA_BUFFER; i++)
  50              		.loc 1 191 0 is_stmt 1
  51 0014 0023     		movs	r3, #0
  52              	.LVL3:
  53 0016 04E0     		b	.L4
  54              	.LVL4:
  55              	.L5:
 192:Middlewares/ST/STM32_USB_Host_Library/Core/Src/usbh_core.c ****   {
 193:Middlewares/ST/STM32_USB_Host_Library/Core/Src/usbh_core.c ****     phost->device.Data[i] = 0U;
  56              		.loc 1 193 0 discriminator 3
  57 0018 C218     		adds	r2, r0, r3
  58 001a 0021     		movs	r1, #0
  59 001c 82F81C11 		strb	r1, [r2, #284]
 191:Middlewares/ST/STM32_USB_Host_Library/Core/Src/usbh_core.c ****   {
  60              		.loc 1 191 0 discriminator 3
  61 0020 0133     		adds	r3, r3, #1
  62              	.LVL5:
  63              	.L4:
 191:Middlewares/ST/STM32_USB_Host_Library/Core/Src/usbh_core.c ****   {
  64              		.loc 1 191 0 is_stmt 0 discriminator 1
  65 0022 B3F5007F 		cmp	r3, #512
  66 0026 F7D3     		bcc	.L5
 194:Middlewares/ST/STM32_USB_Host_Library/Core/Src/usbh_core.c ****   }
 195:Middlewares/ST/STM32_USB_Host_Library/Core/Src/usbh_core.c **** 
 196:Middlewares/ST/STM32_USB_Host_Library/Core/Src/usbh_core.c ****   phost->gState = HOST_IDLE;
  67              		.loc 1 196 0 is_stmt 1
  68 0028 0023     		movs	r3, #0
  69              	.LVL6:
  70 002a 0370     		strb	r3, [r0]
 197:Middlewares/ST/STM32_USB_Host_Library/Core/Src/usbh_core.c ****   phost->EnumState = ENUM_IDLE;
  71              		.loc 1 197 0
  72 002c 4370     		strb	r3, [r0, #1]
 198:Middlewares/ST/STM32_USB_Host_Library/Core/Src/usbh_core.c ****   phost->RequestState = CMD_SEND;
  73              		.loc 1 198 0
  74 002e 0122     		movs	r2, #1
  75 0030 8270     		strb	r2, [r0, #2]
 199:Middlewares/ST/STM32_USB_Host_Library/Core/Src/usbh_core.c ****   phost->Timer = 0U;
  76              		.loc 1 199 0
  77 0032 C0F8BC33 		str	r3, [r0, #956]
 200:Middlewares/ST/STM32_USB_Host_Library/Core/Src/usbh_core.c **** 
 201:Middlewares/ST/STM32_USB_Host_Library/Core/Src/usbh_core.c ****   phost->Control.state = CTRL_SETUP;
  78              		.loc 1 201 0
  79 0036 0276     		strb	r2, [r0, #24]
 202:Middlewares/ST/STM32_USB_Host_Library/Core/Src/usbh_core.c ****   phost->Control.pipe_size = USBH_MPS_DEFAULT;
  80              		.loc 1 202 0
ARM GAS  C:\Users\Patryk\AppData\Local\Temp\cccHu4h9.s 			page 6


  81 0038 4021     		movs	r1, #64
  82 003a 8171     		strb	r1, [r0, #6]
 203:Middlewares/ST/STM32_USB_Host_Library/Core/Src/usbh_core.c ****   phost->Control.errorcount = 0U;
  83              		.loc 1 203 0
  84 003c 4376     		strb	r3, [r0, #25]
 204:Middlewares/ST/STM32_USB_Host_Library/Core/Src/usbh_core.c **** 
 205:Middlewares/ST/STM32_USB_Host_Library/Core/Src/usbh_core.c ****   phost->device.address = USBH_ADDRESS_DEFAULT;
  85              		.loc 1 205 0
  86 003e 80F81C33 		strb	r3, [r0, #796]
 206:Middlewares/ST/STM32_USB_Host_Library/Core/Src/usbh_core.c ****   phost->device.speed   = USBH_SPEED_FULL;
  87              		.loc 1 206 0
  88 0042 80F81D23 		strb	r2, [r0, #797]
 207:Middlewares/ST/STM32_USB_Host_Library/Core/Src/usbh_core.c **** 
 208:Middlewares/ST/STM32_USB_Host_Library/Core/Src/usbh_core.c ****   return USBH_OK;
 209:Middlewares/ST/STM32_USB_Host_Library/Core/Src/usbh_core.c **** }
  89              		.loc 1 209 0
  90 0046 1846     		mov	r0, r3
  91              	.LVL7:
  92 0048 7047     		bx	lr
  93              		.cfi_endproc
  94              	.LFE145:
  96              		.section	.text.USBH_HandleSof,"ax",%progbits
  97              		.align	1
  98              		.syntax unified
  99              		.thumb
 100              		.thumb_func
 101              		.fpu fpv5-sp-d16
 103              	USBH_HandleSof:
 104              	.LFB158:
 210:Middlewares/ST/STM32_USB_Host_Library/Core/Src/usbh_core.c **** 
 211:Middlewares/ST/STM32_USB_Host_Library/Core/Src/usbh_core.c **** /**
 212:Middlewares/ST/STM32_USB_Host_Library/Core/Src/usbh_core.c ****   * @brief  USBH_RegisterClass
 213:Middlewares/ST/STM32_USB_Host_Library/Core/Src/usbh_core.c ****   *         Link class driver to Host Core.
 214:Middlewares/ST/STM32_USB_Host_Library/Core/Src/usbh_core.c ****   * @param  phost : Host Handle
 215:Middlewares/ST/STM32_USB_Host_Library/Core/Src/usbh_core.c ****   * @param  pclass: Class handle
 216:Middlewares/ST/STM32_USB_Host_Library/Core/Src/usbh_core.c ****   * @retval USBH Status
 217:Middlewares/ST/STM32_USB_Host_Library/Core/Src/usbh_core.c ****   */
 218:Middlewares/ST/STM32_USB_Host_Library/Core/Src/usbh_core.c **** USBH_StatusTypeDef  USBH_RegisterClass(USBH_HandleTypeDef *phost, USBH_ClassTypeDef *pclass)
 219:Middlewares/ST/STM32_USB_Host_Library/Core/Src/usbh_core.c **** {
 220:Middlewares/ST/STM32_USB_Host_Library/Core/Src/usbh_core.c ****   USBH_StatusTypeDef   status = USBH_OK;
 221:Middlewares/ST/STM32_USB_Host_Library/Core/Src/usbh_core.c **** 
 222:Middlewares/ST/STM32_USB_Host_Library/Core/Src/usbh_core.c ****   if(pclass != 0)
 223:Middlewares/ST/STM32_USB_Host_Library/Core/Src/usbh_core.c ****   {
 224:Middlewares/ST/STM32_USB_Host_Library/Core/Src/usbh_core.c ****     if(phost->ClassNumber < USBH_MAX_NUM_SUPPORTED_CLASS)
 225:Middlewares/ST/STM32_USB_Host_Library/Core/Src/usbh_core.c ****     {
 226:Middlewares/ST/STM32_USB_Host_Library/Core/Src/usbh_core.c ****       /* link the class to the USB Host handle */
 227:Middlewares/ST/STM32_USB_Host_Library/Core/Src/usbh_core.c ****       phost->pClass[phost->ClassNumber++] = pclass;
 228:Middlewares/ST/STM32_USB_Host_Library/Core/Src/usbh_core.c ****       status = USBH_OK;
 229:Middlewares/ST/STM32_USB_Host_Library/Core/Src/usbh_core.c ****     }
 230:Middlewares/ST/STM32_USB_Host_Library/Core/Src/usbh_core.c ****     else
 231:Middlewares/ST/STM32_USB_Host_Library/Core/Src/usbh_core.c ****     {
 232:Middlewares/ST/STM32_USB_Host_Library/Core/Src/usbh_core.c ****       USBH_ErrLog("Max Class Number reached");
 233:Middlewares/ST/STM32_USB_Host_Library/Core/Src/usbh_core.c ****       status = USBH_FAIL;
 234:Middlewares/ST/STM32_USB_Host_Library/Core/Src/usbh_core.c ****     }
 235:Middlewares/ST/STM32_USB_Host_Library/Core/Src/usbh_core.c ****   }
 236:Middlewares/ST/STM32_USB_Host_Library/Core/Src/usbh_core.c ****   else
 237:Middlewares/ST/STM32_USB_Host_Library/Core/Src/usbh_core.c ****   {
ARM GAS  C:\Users\Patryk\AppData\Local\Temp\cccHu4h9.s 			page 7


 238:Middlewares/ST/STM32_USB_Host_Library/Core/Src/usbh_core.c ****     USBH_ErrLog("Invalid Class handle");
 239:Middlewares/ST/STM32_USB_Host_Library/Core/Src/usbh_core.c ****     status = USBH_FAIL;
 240:Middlewares/ST/STM32_USB_Host_Library/Core/Src/usbh_core.c ****   }
 241:Middlewares/ST/STM32_USB_Host_Library/Core/Src/usbh_core.c **** 
 242:Middlewares/ST/STM32_USB_Host_Library/Core/Src/usbh_core.c ****   return status;
 243:Middlewares/ST/STM32_USB_Host_Library/Core/Src/usbh_core.c **** }
 244:Middlewares/ST/STM32_USB_Host_Library/Core/Src/usbh_core.c **** 
 245:Middlewares/ST/STM32_USB_Host_Library/Core/Src/usbh_core.c **** /**
 246:Middlewares/ST/STM32_USB_Host_Library/Core/Src/usbh_core.c ****   * @brief  USBH_SelectInterface
 247:Middlewares/ST/STM32_USB_Host_Library/Core/Src/usbh_core.c ****   *         Select current interface.
 248:Middlewares/ST/STM32_USB_Host_Library/Core/Src/usbh_core.c ****   * @param  phost: Host Handle
 249:Middlewares/ST/STM32_USB_Host_Library/Core/Src/usbh_core.c ****   * @param  interface: Interface number
 250:Middlewares/ST/STM32_USB_Host_Library/Core/Src/usbh_core.c ****   * @retval USBH Status
 251:Middlewares/ST/STM32_USB_Host_Library/Core/Src/usbh_core.c ****   */
 252:Middlewares/ST/STM32_USB_Host_Library/Core/Src/usbh_core.c **** USBH_StatusTypeDef USBH_SelectInterface(USBH_HandleTypeDef *phost, uint8_t interface)
 253:Middlewares/ST/STM32_USB_Host_Library/Core/Src/usbh_core.c **** {
 254:Middlewares/ST/STM32_USB_Host_Library/Core/Src/usbh_core.c ****   USBH_StatusTypeDef   status = USBH_OK;
 255:Middlewares/ST/STM32_USB_Host_Library/Core/Src/usbh_core.c **** 
 256:Middlewares/ST/STM32_USB_Host_Library/Core/Src/usbh_core.c ****   if(interface < phost->device.CfgDesc.bNumInterfaces)
 257:Middlewares/ST/STM32_USB_Host_Library/Core/Src/usbh_core.c ****   {
 258:Middlewares/ST/STM32_USB_Host_Library/Core/Src/usbh_core.c ****     phost->device.current_interface = interface;
 259:Middlewares/ST/STM32_USB_Host_Library/Core/Src/usbh_core.c ****     USBH_UsrLog ("Switching to Interface (#%d)", interface);
 260:Middlewares/ST/STM32_USB_Host_Library/Core/Src/usbh_core.c ****     USBH_UsrLog ("Class    : %xh", phost->device.CfgDesc.Itf_Desc[interface].bInterfaceClass );
 261:Middlewares/ST/STM32_USB_Host_Library/Core/Src/usbh_core.c ****     USBH_UsrLog ("SubClass : %xh", phost->device.CfgDesc.Itf_Desc[interface].bInterfaceSubClass );
 262:Middlewares/ST/STM32_USB_Host_Library/Core/Src/usbh_core.c ****     USBH_UsrLog ("Protocol : %xh", phost->device.CfgDesc.Itf_Desc[interface].bInterfaceProtocol );
 263:Middlewares/ST/STM32_USB_Host_Library/Core/Src/usbh_core.c ****   }
 264:Middlewares/ST/STM32_USB_Host_Library/Core/Src/usbh_core.c ****   else
 265:Middlewares/ST/STM32_USB_Host_Library/Core/Src/usbh_core.c ****   {
 266:Middlewares/ST/STM32_USB_Host_Library/Core/Src/usbh_core.c ****     USBH_ErrLog ("Cannot Select This Interface.");
 267:Middlewares/ST/STM32_USB_Host_Library/Core/Src/usbh_core.c ****     status = USBH_FAIL;
 268:Middlewares/ST/STM32_USB_Host_Library/Core/Src/usbh_core.c ****   }
 269:Middlewares/ST/STM32_USB_Host_Library/Core/Src/usbh_core.c ****   return status;
 270:Middlewares/ST/STM32_USB_Host_Library/Core/Src/usbh_core.c **** }
 271:Middlewares/ST/STM32_USB_Host_Library/Core/Src/usbh_core.c **** 
 272:Middlewares/ST/STM32_USB_Host_Library/Core/Src/usbh_core.c **** /**
 273:Middlewares/ST/STM32_USB_Host_Library/Core/Src/usbh_core.c ****   * @brief  USBH_GetActiveClass
 274:Middlewares/ST/STM32_USB_Host_Library/Core/Src/usbh_core.c ****   *         Return Device Class.
 275:Middlewares/ST/STM32_USB_Host_Library/Core/Src/usbh_core.c ****   * @param  phost: Host Handle
 276:Middlewares/ST/STM32_USB_Host_Library/Core/Src/usbh_core.c ****   * @param  interface: Interface index
 277:Middlewares/ST/STM32_USB_Host_Library/Core/Src/usbh_core.c ****   * @retval Class Code
 278:Middlewares/ST/STM32_USB_Host_Library/Core/Src/usbh_core.c ****   */
 279:Middlewares/ST/STM32_USB_Host_Library/Core/Src/usbh_core.c **** uint8_t USBH_GetActiveClass(USBH_HandleTypeDef *phost)
 280:Middlewares/ST/STM32_USB_Host_Library/Core/Src/usbh_core.c **** {
 281:Middlewares/ST/STM32_USB_Host_Library/Core/Src/usbh_core.c ****    return (phost->device.CfgDesc.Itf_Desc[0].bInterfaceClass);
 282:Middlewares/ST/STM32_USB_Host_Library/Core/Src/usbh_core.c **** }
 283:Middlewares/ST/STM32_USB_Host_Library/Core/Src/usbh_core.c **** /**
 284:Middlewares/ST/STM32_USB_Host_Library/Core/Src/usbh_core.c ****   * @brief  USBH_FindInterface
 285:Middlewares/ST/STM32_USB_Host_Library/Core/Src/usbh_core.c ****   *         Find the interface index for a specific class.
 286:Middlewares/ST/STM32_USB_Host_Library/Core/Src/usbh_core.c ****   * @param  phost: Host Handle
 287:Middlewares/ST/STM32_USB_Host_Library/Core/Src/usbh_core.c ****   * @param  Class: Class code
 288:Middlewares/ST/STM32_USB_Host_Library/Core/Src/usbh_core.c ****   * @param  SubClass: SubClass code
 289:Middlewares/ST/STM32_USB_Host_Library/Core/Src/usbh_core.c ****   * @param  Protocol: Protocol code
 290:Middlewares/ST/STM32_USB_Host_Library/Core/Src/usbh_core.c ****   * @retval interface index in the configuration structure
 291:Middlewares/ST/STM32_USB_Host_Library/Core/Src/usbh_core.c ****   * @note : (1)interface index 0xFF means interface index not found
 292:Middlewares/ST/STM32_USB_Host_Library/Core/Src/usbh_core.c ****   */
 293:Middlewares/ST/STM32_USB_Host_Library/Core/Src/usbh_core.c **** uint8_t  USBH_FindInterface(USBH_HandleTypeDef *phost, uint8_t Class, uint8_t SubClass, uint8_t Pro
 294:Middlewares/ST/STM32_USB_Host_Library/Core/Src/usbh_core.c **** {
ARM GAS  C:\Users\Patryk\AppData\Local\Temp\cccHu4h9.s 			page 8


 295:Middlewares/ST/STM32_USB_Host_Library/Core/Src/usbh_core.c ****   USBH_InterfaceDescTypeDef    *pif ;
 296:Middlewares/ST/STM32_USB_Host_Library/Core/Src/usbh_core.c ****   USBH_CfgDescTypeDef          *pcfg ;
 297:Middlewares/ST/STM32_USB_Host_Library/Core/Src/usbh_core.c ****   uint8_t                        if_ix = 0U;
 298:Middlewares/ST/STM32_USB_Host_Library/Core/Src/usbh_core.c **** 
 299:Middlewares/ST/STM32_USB_Host_Library/Core/Src/usbh_core.c ****   pif = (USBH_InterfaceDescTypeDef *)0;
 300:Middlewares/ST/STM32_USB_Host_Library/Core/Src/usbh_core.c ****   pcfg = &phost->device.CfgDesc;
 301:Middlewares/ST/STM32_USB_Host_Library/Core/Src/usbh_core.c **** 
 302:Middlewares/ST/STM32_USB_Host_Library/Core/Src/usbh_core.c ****   while (if_ix < USBH_MAX_NUM_INTERFACES)
 303:Middlewares/ST/STM32_USB_Host_Library/Core/Src/usbh_core.c ****   {
 304:Middlewares/ST/STM32_USB_Host_Library/Core/Src/usbh_core.c ****     pif = &pcfg->Itf_Desc[if_ix];
 305:Middlewares/ST/STM32_USB_Host_Library/Core/Src/usbh_core.c ****     if(((pif->bInterfaceClass == Class) || (Class == 0xFFU))&&
 306:Middlewares/ST/STM32_USB_Host_Library/Core/Src/usbh_core.c ****        ((pif->bInterfaceSubClass == SubClass) || (SubClass == 0xFFU))&&
 307:Middlewares/ST/STM32_USB_Host_Library/Core/Src/usbh_core.c ****          ((pif->bInterfaceProtocol == Protocol) || (Protocol == 0xFFU)))
 308:Middlewares/ST/STM32_USB_Host_Library/Core/Src/usbh_core.c ****     {
 309:Middlewares/ST/STM32_USB_Host_Library/Core/Src/usbh_core.c ****       return  if_ix;
 310:Middlewares/ST/STM32_USB_Host_Library/Core/Src/usbh_core.c ****     }
 311:Middlewares/ST/STM32_USB_Host_Library/Core/Src/usbh_core.c ****     if_ix++;
 312:Middlewares/ST/STM32_USB_Host_Library/Core/Src/usbh_core.c ****   }
 313:Middlewares/ST/STM32_USB_Host_Library/Core/Src/usbh_core.c ****   return 0xFFU;
 314:Middlewares/ST/STM32_USB_Host_Library/Core/Src/usbh_core.c **** }
 315:Middlewares/ST/STM32_USB_Host_Library/Core/Src/usbh_core.c **** 
 316:Middlewares/ST/STM32_USB_Host_Library/Core/Src/usbh_core.c **** /**
 317:Middlewares/ST/STM32_USB_Host_Library/Core/Src/usbh_core.c ****   * @brief  USBH_FindInterfaceIndex
 318:Middlewares/ST/STM32_USB_Host_Library/Core/Src/usbh_core.c ****   *         Find the interface index for a specific class interface and alternate setting number.
 319:Middlewares/ST/STM32_USB_Host_Library/Core/Src/usbh_core.c ****   * @param  phost: Host Handle
 320:Middlewares/ST/STM32_USB_Host_Library/Core/Src/usbh_core.c ****   * @param  interface_number: interface number
 321:Middlewares/ST/STM32_USB_Host_Library/Core/Src/usbh_core.c ****   * @param  alt_settings    : alternate setting number
 322:Middlewares/ST/STM32_USB_Host_Library/Core/Src/usbh_core.c ****   * @retval interface index in the configuration structure
 323:Middlewares/ST/STM32_USB_Host_Library/Core/Src/usbh_core.c ****   * @note : (1)interface index 0xFF means interface index not found
 324:Middlewares/ST/STM32_USB_Host_Library/Core/Src/usbh_core.c ****   */
 325:Middlewares/ST/STM32_USB_Host_Library/Core/Src/usbh_core.c **** uint8_t  USBH_FindInterfaceIndex(USBH_HandleTypeDef *phost, uint8_t interface_number, uint8_t alt_s
 326:Middlewares/ST/STM32_USB_Host_Library/Core/Src/usbh_core.c **** {
 327:Middlewares/ST/STM32_USB_Host_Library/Core/Src/usbh_core.c ****   USBH_InterfaceDescTypeDef    *pif ;
 328:Middlewares/ST/STM32_USB_Host_Library/Core/Src/usbh_core.c ****   USBH_CfgDescTypeDef          *pcfg ;
 329:Middlewares/ST/STM32_USB_Host_Library/Core/Src/usbh_core.c ****   uint8_t                        if_ix = 0U;
 330:Middlewares/ST/STM32_USB_Host_Library/Core/Src/usbh_core.c **** 
 331:Middlewares/ST/STM32_USB_Host_Library/Core/Src/usbh_core.c ****   pif = (USBH_InterfaceDescTypeDef *)0;
 332:Middlewares/ST/STM32_USB_Host_Library/Core/Src/usbh_core.c ****   pcfg = &phost->device.CfgDesc;
 333:Middlewares/ST/STM32_USB_Host_Library/Core/Src/usbh_core.c **** 
 334:Middlewares/ST/STM32_USB_Host_Library/Core/Src/usbh_core.c ****   while (if_ix < USBH_MAX_NUM_INTERFACES)
 335:Middlewares/ST/STM32_USB_Host_Library/Core/Src/usbh_core.c ****   {
 336:Middlewares/ST/STM32_USB_Host_Library/Core/Src/usbh_core.c ****     pif = &pcfg->Itf_Desc[if_ix];
 337:Middlewares/ST/STM32_USB_Host_Library/Core/Src/usbh_core.c ****     if((pif->bInterfaceNumber == interface_number) && (pif->bAlternateSetting == alt_settings))
 338:Middlewares/ST/STM32_USB_Host_Library/Core/Src/usbh_core.c ****     {
 339:Middlewares/ST/STM32_USB_Host_Library/Core/Src/usbh_core.c ****       return  if_ix;
 340:Middlewares/ST/STM32_USB_Host_Library/Core/Src/usbh_core.c ****     }
 341:Middlewares/ST/STM32_USB_Host_Library/Core/Src/usbh_core.c ****     if_ix++;
 342:Middlewares/ST/STM32_USB_Host_Library/Core/Src/usbh_core.c ****   }
 343:Middlewares/ST/STM32_USB_Host_Library/Core/Src/usbh_core.c ****   return 0xFFU;
 344:Middlewares/ST/STM32_USB_Host_Library/Core/Src/usbh_core.c **** }
 345:Middlewares/ST/STM32_USB_Host_Library/Core/Src/usbh_core.c **** 
 346:Middlewares/ST/STM32_USB_Host_Library/Core/Src/usbh_core.c **** /**
 347:Middlewares/ST/STM32_USB_Host_Library/Core/Src/usbh_core.c ****   * @brief  USBH_Start
 348:Middlewares/ST/STM32_USB_Host_Library/Core/Src/usbh_core.c ****   *         Start the USB Host Core.
 349:Middlewares/ST/STM32_USB_Host_Library/Core/Src/usbh_core.c ****   * @param  phost: Host Handle
 350:Middlewares/ST/STM32_USB_Host_Library/Core/Src/usbh_core.c ****   * @retval USBH Status
 351:Middlewares/ST/STM32_USB_Host_Library/Core/Src/usbh_core.c ****   */
ARM GAS  C:\Users\Patryk\AppData\Local\Temp\cccHu4h9.s 			page 9


 352:Middlewares/ST/STM32_USB_Host_Library/Core/Src/usbh_core.c **** USBH_StatusTypeDef  USBH_Start  (USBH_HandleTypeDef *phost)
 353:Middlewares/ST/STM32_USB_Host_Library/Core/Src/usbh_core.c **** {
 354:Middlewares/ST/STM32_USB_Host_Library/Core/Src/usbh_core.c ****   /* Start the low level driver  */
 355:Middlewares/ST/STM32_USB_Host_Library/Core/Src/usbh_core.c ****   USBH_LL_Start(phost);
 356:Middlewares/ST/STM32_USB_Host_Library/Core/Src/usbh_core.c **** 
 357:Middlewares/ST/STM32_USB_Host_Library/Core/Src/usbh_core.c ****   /* Activate VBUS on the port */
 358:Middlewares/ST/STM32_USB_Host_Library/Core/Src/usbh_core.c ****   USBH_LL_DriverVBUS (phost, TRUE);
 359:Middlewares/ST/STM32_USB_Host_Library/Core/Src/usbh_core.c **** 
 360:Middlewares/ST/STM32_USB_Host_Library/Core/Src/usbh_core.c ****   return USBH_OK;
 361:Middlewares/ST/STM32_USB_Host_Library/Core/Src/usbh_core.c **** }
 362:Middlewares/ST/STM32_USB_Host_Library/Core/Src/usbh_core.c **** 
 363:Middlewares/ST/STM32_USB_Host_Library/Core/Src/usbh_core.c **** /**
 364:Middlewares/ST/STM32_USB_Host_Library/Core/Src/usbh_core.c ****   * @brief  USBH_Stop
 365:Middlewares/ST/STM32_USB_Host_Library/Core/Src/usbh_core.c ****   *         Stop the USB Host Core.
 366:Middlewares/ST/STM32_USB_Host_Library/Core/Src/usbh_core.c ****   * @param  phost: Host Handle
 367:Middlewares/ST/STM32_USB_Host_Library/Core/Src/usbh_core.c ****   * @retval USBH Status
 368:Middlewares/ST/STM32_USB_Host_Library/Core/Src/usbh_core.c ****   */
 369:Middlewares/ST/STM32_USB_Host_Library/Core/Src/usbh_core.c **** USBH_StatusTypeDef  USBH_Stop   (USBH_HandleTypeDef *phost)
 370:Middlewares/ST/STM32_USB_Host_Library/Core/Src/usbh_core.c **** {
 371:Middlewares/ST/STM32_USB_Host_Library/Core/Src/usbh_core.c ****   /* Stop and cleanup the low level driver  */
 372:Middlewares/ST/STM32_USB_Host_Library/Core/Src/usbh_core.c ****   USBH_LL_Stop(phost);
 373:Middlewares/ST/STM32_USB_Host_Library/Core/Src/usbh_core.c **** 
 374:Middlewares/ST/STM32_USB_Host_Library/Core/Src/usbh_core.c ****   /* DeActivate VBUS on the port */
 375:Middlewares/ST/STM32_USB_Host_Library/Core/Src/usbh_core.c ****   USBH_LL_DriverVBUS (phost, FALSE);
 376:Middlewares/ST/STM32_USB_Host_Library/Core/Src/usbh_core.c **** 
 377:Middlewares/ST/STM32_USB_Host_Library/Core/Src/usbh_core.c ****   /* FRee Control Pipes */
 378:Middlewares/ST/STM32_USB_Host_Library/Core/Src/usbh_core.c ****   USBH_FreePipe  (phost, phost->Control.pipe_in);
 379:Middlewares/ST/STM32_USB_Host_Library/Core/Src/usbh_core.c ****   USBH_FreePipe  (phost, phost->Control.pipe_out);
 380:Middlewares/ST/STM32_USB_Host_Library/Core/Src/usbh_core.c **** 
 381:Middlewares/ST/STM32_USB_Host_Library/Core/Src/usbh_core.c ****   return USBH_OK;
 382:Middlewares/ST/STM32_USB_Host_Library/Core/Src/usbh_core.c **** }
 383:Middlewares/ST/STM32_USB_Host_Library/Core/Src/usbh_core.c **** 
 384:Middlewares/ST/STM32_USB_Host_Library/Core/Src/usbh_core.c **** /**
 385:Middlewares/ST/STM32_USB_Host_Library/Core/Src/usbh_core.c ****   * @brief  HCD_ReEnumerate
 386:Middlewares/ST/STM32_USB_Host_Library/Core/Src/usbh_core.c ****   *         Perform a new Enumeration phase.
 387:Middlewares/ST/STM32_USB_Host_Library/Core/Src/usbh_core.c ****   * @param  phost: Host Handle
 388:Middlewares/ST/STM32_USB_Host_Library/Core/Src/usbh_core.c ****   * @retval USBH Status
 389:Middlewares/ST/STM32_USB_Host_Library/Core/Src/usbh_core.c ****   */
 390:Middlewares/ST/STM32_USB_Host_Library/Core/Src/usbh_core.c **** USBH_StatusTypeDef  USBH_ReEnumerate   (USBH_HandleTypeDef *phost)
 391:Middlewares/ST/STM32_USB_Host_Library/Core/Src/usbh_core.c **** {
 392:Middlewares/ST/STM32_USB_Host_Library/Core/Src/usbh_core.c ****   /*Stop Host */
 393:Middlewares/ST/STM32_USB_Host_Library/Core/Src/usbh_core.c ****   USBH_Stop(phost);
 394:Middlewares/ST/STM32_USB_Host_Library/Core/Src/usbh_core.c **** 
 395:Middlewares/ST/STM32_USB_Host_Library/Core/Src/usbh_core.c ****   /*Device has disconnected, so wait for 200 ms */
 396:Middlewares/ST/STM32_USB_Host_Library/Core/Src/usbh_core.c ****   USBH_Delay(200U);
 397:Middlewares/ST/STM32_USB_Host_Library/Core/Src/usbh_core.c **** 
 398:Middlewares/ST/STM32_USB_Host_Library/Core/Src/usbh_core.c ****   /* Set State machines in default state */
 399:Middlewares/ST/STM32_USB_Host_Library/Core/Src/usbh_core.c ****   DeInitStateMachine(phost);
 400:Middlewares/ST/STM32_USB_Host_Library/Core/Src/usbh_core.c **** 
 401:Middlewares/ST/STM32_USB_Host_Library/Core/Src/usbh_core.c ****   /* Start again the host */
 402:Middlewares/ST/STM32_USB_Host_Library/Core/Src/usbh_core.c ****   USBH_Start(phost);
 403:Middlewares/ST/STM32_USB_Host_Library/Core/Src/usbh_core.c **** 
 404:Middlewares/ST/STM32_USB_Host_Library/Core/Src/usbh_core.c **** #if (USBH_USE_OS == 1U)
 405:Middlewares/ST/STM32_USB_Host_Library/Core/Src/usbh_core.c ****       osMessagePut ( phost->os_event, USBH_PORT_EVENT, 0);
 406:Middlewares/ST/STM32_USB_Host_Library/Core/Src/usbh_core.c **** #endif
 407:Middlewares/ST/STM32_USB_Host_Library/Core/Src/usbh_core.c ****   return USBH_OK;
 408:Middlewares/ST/STM32_USB_Host_Library/Core/Src/usbh_core.c **** }
ARM GAS  C:\Users\Patryk\AppData\Local\Temp\cccHu4h9.s 			page 10


 409:Middlewares/ST/STM32_USB_Host_Library/Core/Src/usbh_core.c **** 
 410:Middlewares/ST/STM32_USB_Host_Library/Core/Src/usbh_core.c **** /**
 411:Middlewares/ST/STM32_USB_Host_Library/Core/Src/usbh_core.c ****   * @brief  USBH_Process
 412:Middlewares/ST/STM32_USB_Host_Library/Core/Src/usbh_core.c ****   *         Background process of the USB Core.
 413:Middlewares/ST/STM32_USB_Host_Library/Core/Src/usbh_core.c ****   * @param  phost: Host Handle
 414:Middlewares/ST/STM32_USB_Host_Library/Core/Src/usbh_core.c ****   * @retval USBH Status
 415:Middlewares/ST/STM32_USB_Host_Library/Core/Src/usbh_core.c ****   */
 416:Middlewares/ST/STM32_USB_Host_Library/Core/Src/usbh_core.c **** USBH_StatusTypeDef  USBH_Process(USBH_HandleTypeDef *phost)
 417:Middlewares/ST/STM32_USB_Host_Library/Core/Src/usbh_core.c **** {
 418:Middlewares/ST/STM32_USB_Host_Library/Core/Src/usbh_core.c ****   __IO USBH_StatusTypeDef status = USBH_FAIL;
 419:Middlewares/ST/STM32_USB_Host_Library/Core/Src/usbh_core.c ****   uint8_t idx = 0U;
 420:Middlewares/ST/STM32_USB_Host_Library/Core/Src/usbh_core.c **** 
 421:Middlewares/ST/STM32_USB_Host_Library/Core/Src/usbh_core.c ****   /* check for Host port events */
 422:Middlewares/ST/STM32_USB_Host_Library/Core/Src/usbh_core.c ****   if (((USBH_IsPortEnabled(phost) == 0U)) && (phost->gState != HOST_IDLE))
 423:Middlewares/ST/STM32_USB_Host_Library/Core/Src/usbh_core.c ****   {
 424:Middlewares/ST/STM32_USB_Host_Library/Core/Src/usbh_core.c ****     if(phost->gState != HOST_DEV_DISCONNECTED)
 425:Middlewares/ST/STM32_USB_Host_Library/Core/Src/usbh_core.c ****     {
 426:Middlewares/ST/STM32_USB_Host_Library/Core/Src/usbh_core.c ****       phost->gState = HOST_DEV_DISCONNECTED;
 427:Middlewares/ST/STM32_USB_Host_Library/Core/Src/usbh_core.c ****     }
 428:Middlewares/ST/STM32_USB_Host_Library/Core/Src/usbh_core.c ****   }
 429:Middlewares/ST/STM32_USB_Host_Library/Core/Src/usbh_core.c **** 
 430:Middlewares/ST/STM32_USB_Host_Library/Core/Src/usbh_core.c ****   switch (phost->gState)
 431:Middlewares/ST/STM32_USB_Host_Library/Core/Src/usbh_core.c ****   {
 432:Middlewares/ST/STM32_USB_Host_Library/Core/Src/usbh_core.c ****   case HOST_IDLE :
 433:Middlewares/ST/STM32_USB_Host_Library/Core/Src/usbh_core.c **** 
 434:Middlewares/ST/STM32_USB_Host_Library/Core/Src/usbh_core.c ****     if (phost->device.is_connected)
 435:Middlewares/ST/STM32_USB_Host_Library/Core/Src/usbh_core.c ****     {
 436:Middlewares/ST/STM32_USB_Host_Library/Core/Src/usbh_core.c ****       /* Wait for 200 ms after connection */
 437:Middlewares/ST/STM32_USB_Host_Library/Core/Src/usbh_core.c ****       phost->gState = HOST_DEV_WAIT_FOR_ATTACHMENT;
 438:Middlewares/ST/STM32_USB_Host_Library/Core/Src/usbh_core.c ****       USBH_Delay(200U);
 439:Middlewares/ST/STM32_USB_Host_Library/Core/Src/usbh_core.c ****       USBH_LL_ResetPort(phost);
 440:Middlewares/ST/STM32_USB_Host_Library/Core/Src/usbh_core.c **** #if (USBH_USE_OS == 1U)
 441:Middlewares/ST/STM32_USB_Host_Library/Core/Src/usbh_core.c ****       osMessagePut ( phost->os_event, USBH_PORT_EVENT, 0);
 442:Middlewares/ST/STM32_USB_Host_Library/Core/Src/usbh_core.c **** #endif
 443:Middlewares/ST/STM32_USB_Host_Library/Core/Src/usbh_core.c ****     }
 444:Middlewares/ST/STM32_USB_Host_Library/Core/Src/usbh_core.c ****     break;
 445:Middlewares/ST/STM32_USB_Host_Library/Core/Src/usbh_core.c **** 
 446:Middlewares/ST/STM32_USB_Host_Library/Core/Src/usbh_core.c ****   case HOST_DEV_WAIT_FOR_ATTACHMENT: /* Wait for Port Eabled */
 447:Middlewares/ST/STM32_USB_Host_Library/Core/Src/usbh_core.c **** 
 448:Middlewares/ST/STM32_USB_Host_Library/Core/Src/usbh_core.c ****     if (phost->device.PortEnabled == 1U)
 449:Middlewares/ST/STM32_USB_Host_Library/Core/Src/usbh_core.c ****     {
 450:Middlewares/ST/STM32_USB_Host_Library/Core/Src/usbh_core.c ****       phost->gState = HOST_DEV_ATTACHED;
 451:Middlewares/ST/STM32_USB_Host_Library/Core/Src/usbh_core.c ****     }
 452:Middlewares/ST/STM32_USB_Host_Library/Core/Src/usbh_core.c ****     break;
 453:Middlewares/ST/STM32_USB_Host_Library/Core/Src/usbh_core.c **** 
 454:Middlewares/ST/STM32_USB_Host_Library/Core/Src/usbh_core.c ****   case HOST_DEV_ATTACHED :
 455:Middlewares/ST/STM32_USB_Host_Library/Core/Src/usbh_core.c **** 
 456:Middlewares/ST/STM32_USB_Host_Library/Core/Src/usbh_core.c ****     USBH_UsrLog("USB Device Attached");
 457:Middlewares/ST/STM32_USB_Host_Library/Core/Src/usbh_core.c **** 
 458:Middlewares/ST/STM32_USB_Host_Library/Core/Src/usbh_core.c ****     /* Wait for 100 ms after Reset */
 459:Middlewares/ST/STM32_USB_Host_Library/Core/Src/usbh_core.c ****     USBH_Delay(100U);
 460:Middlewares/ST/STM32_USB_Host_Library/Core/Src/usbh_core.c **** 
 461:Middlewares/ST/STM32_USB_Host_Library/Core/Src/usbh_core.c ****     phost->device.speed = USBH_LL_GetSpeed(phost);
 462:Middlewares/ST/STM32_USB_Host_Library/Core/Src/usbh_core.c **** 
 463:Middlewares/ST/STM32_USB_Host_Library/Core/Src/usbh_core.c ****     phost->gState = HOST_ENUMERATION;
 464:Middlewares/ST/STM32_USB_Host_Library/Core/Src/usbh_core.c **** 
 465:Middlewares/ST/STM32_USB_Host_Library/Core/Src/usbh_core.c ****     phost->Control.pipe_out = USBH_AllocPipe (phost, 0x00U);
ARM GAS  C:\Users\Patryk\AppData\Local\Temp\cccHu4h9.s 			page 11


 466:Middlewares/ST/STM32_USB_Host_Library/Core/Src/usbh_core.c ****     phost->Control.pipe_in  = USBH_AllocPipe (phost, 0x80U);
 467:Middlewares/ST/STM32_USB_Host_Library/Core/Src/usbh_core.c **** 
 468:Middlewares/ST/STM32_USB_Host_Library/Core/Src/usbh_core.c **** 
 469:Middlewares/ST/STM32_USB_Host_Library/Core/Src/usbh_core.c ****     /* Open Control pipes */
 470:Middlewares/ST/STM32_USB_Host_Library/Core/Src/usbh_core.c ****     USBH_OpenPipe (phost,
 471:Middlewares/ST/STM32_USB_Host_Library/Core/Src/usbh_core.c ****                    phost->Control.pipe_in,
 472:Middlewares/ST/STM32_USB_Host_Library/Core/Src/usbh_core.c ****                    0x80U,
 473:Middlewares/ST/STM32_USB_Host_Library/Core/Src/usbh_core.c ****                    phost->device.address,
 474:Middlewares/ST/STM32_USB_Host_Library/Core/Src/usbh_core.c ****                    phost->device.speed,
 475:Middlewares/ST/STM32_USB_Host_Library/Core/Src/usbh_core.c ****                    USBH_EP_CONTROL,
 476:Middlewares/ST/STM32_USB_Host_Library/Core/Src/usbh_core.c ****                    (uint16_t)phost->Control.pipe_size);
 477:Middlewares/ST/STM32_USB_Host_Library/Core/Src/usbh_core.c **** 
 478:Middlewares/ST/STM32_USB_Host_Library/Core/Src/usbh_core.c ****     /* Open Control pipes */
 479:Middlewares/ST/STM32_USB_Host_Library/Core/Src/usbh_core.c ****     USBH_OpenPipe (phost,
 480:Middlewares/ST/STM32_USB_Host_Library/Core/Src/usbh_core.c ****                    phost->Control.pipe_out,
 481:Middlewares/ST/STM32_USB_Host_Library/Core/Src/usbh_core.c ****                    0x00U,
 482:Middlewares/ST/STM32_USB_Host_Library/Core/Src/usbh_core.c ****                    phost->device.address,
 483:Middlewares/ST/STM32_USB_Host_Library/Core/Src/usbh_core.c ****                    phost->device.speed,
 484:Middlewares/ST/STM32_USB_Host_Library/Core/Src/usbh_core.c ****                    USBH_EP_CONTROL,
 485:Middlewares/ST/STM32_USB_Host_Library/Core/Src/usbh_core.c ****                    (uint16_t)phost->Control.pipe_size);
 486:Middlewares/ST/STM32_USB_Host_Library/Core/Src/usbh_core.c **** 
 487:Middlewares/ST/STM32_USB_Host_Library/Core/Src/usbh_core.c **** #if (USBH_USE_OS == 1U)
 488:Middlewares/ST/STM32_USB_Host_Library/Core/Src/usbh_core.c ****     osMessagePut ( phost->os_event, USBH_PORT_EVENT, 0);
 489:Middlewares/ST/STM32_USB_Host_Library/Core/Src/usbh_core.c **** #endif
 490:Middlewares/ST/STM32_USB_Host_Library/Core/Src/usbh_core.c **** 
 491:Middlewares/ST/STM32_USB_Host_Library/Core/Src/usbh_core.c ****     break;
 492:Middlewares/ST/STM32_USB_Host_Library/Core/Src/usbh_core.c **** 
 493:Middlewares/ST/STM32_USB_Host_Library/Core/Src/usbh_core.c ****   case HOST_ENUMERATION:
 494:Middlewares/ST/STM32_USB_Host_Library/Core/Src/usbh_core.c ****     /* Check for enumeration status */
 495:Middlewares/ST/STM32_USB_Host_Library/Core/Src/usbh_core.c ****     if ( USBH_HandleEnum(phost) == USBH_OK)
 496:Middlewares/ST/STM32_USB_Host_Library/Core/Src/usbh_core.c ****     {
 497:Middlewares/ST/STM32_USB_Host_Library/Core/Src/usbh_core.c ****       /* The function shall return USBH_OK when full enumeration is complete */
 498:Middlewares/ST/STM32_USB_Host_Library/Core/Src/usbh_core.c ****       USBH_UsrLog ("Enumeration done.");
 499:Middlewares/ST/STM32_USB_Host_Library/Core/Src/usbh_core.c ****       phost->device.current_interface = 0U;
 500:Middlewares/ST/STM32_USB_Host_Library/Core/Src/usbh_core.c ****       if(phost->device.DevDesc.bNumConfigurations == 1U)
 501:Middlewares/ST/STM32_USB_Host_Library/Core/Src/usbh_core.c ****       {
 502:Middlewares/ST/STM32_USB_Host_Library/Core/Src/usbh_core.c ****         USBH_UsrLog ("This device has only 1 configuration.");
 503:Middlewares/ST/STM32_USB_Host_Library/Core/Src/usbh_core.c ****         phost->gState  = HOST_SET_CONFIGURATION;
 504:Middlewares/ST/STM32_USB_Host_Library/Core/Src/usbh_core.c **** 
 505:Middlewares/ST/STM32_USB_Host_Library/Core/Src/usbh_core.c ****       }
 506:Middlewares/ST/STM32_USB_Host_Library/Core/Src/usbh_core.c ****       else
 507:Middlewares/ST/STM32_USB_Host_Library/Core/Src/usbh_core.c ****       {
 508:Middlewares/ST/STM32_USB_Host_Library/Core/Src/usbh_core.c ****         phost->gState  = HOST_INPUT;
 509:Middlewares/ST/STM32_USB_Host_Library/Core/Src/usbh_core.c ****       }
 510:Middlewares/ST/STM32_USB_Host_Library/Core/Src/usbh_core.c **** 
 511:Middlewares/ST/STM32_USB_Host_Library/Core/Src/usbh_core.c ****     }
 512:Middlewares/ST/STM32_USB_Host_Library/Core/Src/usbh_core.c ****     break;
 513:Middlewares/ST/STM32_USB_Host_Library/Core/Src/usbh_core.c **** 
 514:Middlewares/ST/STM32_USB_Host_Library/Core/Src/usbh_core.c ****   case HOST_INPUT:
 515:Middlewares/ST/STM32_USB_Host_Library/Core/Src/usbh_core.c ****     {
 516:Middlewares/ST/STM32_USB_Host_Library/Core/Src/usbh_core.c ****       /* user callback for end of device basic enumeration */
 517:Middlewares/ST/STM32_USB_Host_Library/Core/Src/usbh_core.c ****       if(phost->pUser != NULL)
 518:Middlewares/ST/STM32_USB_Host_Library/Core/Src/usbh_core.c ****       {
 519:Middlewares/ST/STM32_USB_Host_Library/Core/Src/usbh_core.c ****         phost->pUser(phost, HOST_USER_SELECT_CONFIGURATION);
 520:Middlewares/ST/STM32_USB_Host_Library/Core/Src/usbh_core.c ****         phost->gState = HOST_SET_CONFIGURATION;
 521:Middlewares/ST/STM32_USB_Host_Library/Core/Src/usbh_core.c **** 
 522:Middlewares/ST/STM32_USB_Host_Library/Core/Src/usbh_core.c **** #if (USBH_USE_OS == 1U)
ARM GAS  C:\Users\Patryk\AppData\Local\Temp\cccHu4h9.s 			page 12


 523:Middlewares/ST/STM32_USB_Host_Library/Core/Src/usbh_core.c ****         osMessagePut ( phost->os_event, USBH_STATE_CHANGED_EVENT, 0);
 524:Middlewares/ST/STM32_USB_Host_Library/Core/Src/usbh_core.c **** #endif
 525:Middlewares/ST/STM32_USB_Host_Library/Core/Src/usbh_core.c ****       }
 526:Middlewares/ST/STM32_USB_Host_Library/Core/Src/usbh_core.c ****     }
 527:Middlewares/ST/STM32_USB_Host_Library/Core/Src/usbh_core.c ****     break;
 528:Middlewares/ST/STM32_USB_Host_Library/Core/Src/usbh_core.c **** 
 529:Middlewares/ST/STM32_USB_Host_Library/Core/Src/usbh_core.c ****   case HOST_SET_CONFIGURATION:
 530:Middlewares/ST/STM32_USB_Host_Library/Core/Src/usbh_core.c ****     /* set configuration */
 531:Middlewares/ST/STM32_USB_Host_Library/Core/Src/usbh_core.c ****     if (USBH_SetCfg(phost, (uint16_t)phost->device.CfgDesc.bConfigurationValue) == USBH_OK)
 532:Middlewares/ST/STM32_USB_Host_Library/Core/Src/usbh_core.c ****     {
 533:Middlewares/ST/STM32_USB_Host_Library/Core/Src/usbh_core.c ****       phost->gState  = HOST_SET_WAKEUP_FEATURE;
 534:Middlewares/ST/STM32_USB_Host_Library/Core/Src/usbh_core.c ****       USBH_UsrLog ("Default configuration set.");
 535:Middlewares/ST/STM32_USB_Host_Library/Core/Src/usbh_core.c ****     }
 536:Middlewares/ST/STM32_USB_Host_Library/Core/Src/usbh_core.c **** 
 537:Middlewares/ST/STM32_USB_Host_Library/Core/Src/usbh_core.c **** #if (USBH_USE_OS == 1U)
 538:Middlewares/ST/STM32_USB_Host_Library/Core/Src/usbh_core.c ****     osMessagePut ( phost->os_event, USBH_PORT_EVENT, 0U);
 539:Middlewares/ST/STM32_USB_Host_Library/Core/Src/usbh_core.c **** #endif
 540:Middlewares/ST/STM32_USB_Host_Library/Core/Src/usbh_core.c ****     break;
 541:Middlewares/ST/STM32_USB_Host_Library/Core/Src/usbh_core.c **** 
 542:Middlewares/ST/STM32_USB_Host_Library/Core/Src/usbh_core.c ****   case  HOST_SET_WAKEUP_FEATURE:
 543:Middlewares/ST/STM32_USB_Host_Library/Core/Src/usbh_core.c **** 
 544:Middlewares/ST/STM32_USB_Host_Library/Core/Src/usbh_core.c ****     if ((phost->device.CfgDesc.bmAttributes) & (1U << 5))
 545:Middlewares/ST/STM32_USB_Host_Library/Core/Src/usbh_core.c ****     {
 546:Middlewares/ST/STM32_USB_Host_Library/Core/Src/usbh_core.c ****       if (USBH_SetFeature(phost, FEATURE_SELECTOR_REMOTEWAKEUP) == USBH_OK)
 547:Middlewares/ST/STM32_USB_Host_Library/Core/Src/usbh_core.c ****       {
 548:Middlewares/ST/STM32_USB_Host_Library/Core/Src/usbh_core.c ****         USBH_UsrLog ("Device remote wakeup enabled");
 549:Middlewares/ST/STM32_USB_Host_Library/Core/Src/usbh_core.c ****         phost->gState  = HOST_CHECK_CLASS;
 550:Middlewares/ST/STM32_USB_Host_Library/Core/Src/usbh_core.c ****       }
 551:Middlewares/ST/STM32_USB_Host_Library/Core/Src/usbh_core.c ****     }
 552:Middlewares/ST/STM32_USB_Host_Library/Core/Src/usbh_core.c ****     else
 553:Middlewares/ST/STM32_USB_Host_Library/Core/Src/usbh_core.c ****     {
 554:Middlewares/ST/STM32_USB_Host_Library/Core/Src/usbh_core.c ****       phost->gState  = HOST_CHECK_CLASS;
 555:Middlewares/ST/STM32_USB_Host_Library/Core/Src/usbh_core.c ****     }
 556:Middlewares/ST/STM32_USB_Host_Library/Core/Src/usbh_core.c **** 
 557:Middlewares/ST/STM32_USB_Host_Library/Core/Src/usbh_core.c **** #if (USBH_USE_OS == 1U)
 558:Middlewares/ST/STM32_USB_Host_Library/Core/Src/usbh_core.c ****     osMessagePut ( phost->os_event, USBH_PORT_EVENT, 0U);
 559:Middlewares/ST/STM32_USB_Host_Library/Core/Src/usbh_core.c **** #endif
 560:Middlewares/ST/STM32_USB_Host_Library/Core/Src/usbh_core.c ****     break;
 561:Middlewares/ST/STM32_USB_Host_Library/Core/Src/usbh_core.c **** 
 562:Middlewares/ST/STM32_USB_Host_Library/Core/Src/usbh_core.c ****   case HOST_CHECK_CLASS:
 563:Middlewares/ST/STM32_USB_Host_Library/Core/Src/usbh_core.c **** 
 564:Middlewares/ST/STM32_USB_Host_Library/Core/Src/usbh_core.c ****     if(phost->ClassNumber == 0U)
 565:Middlewares/ST/STM32_USB_Host_Library/Core/Src/usbh_core.c ****     {
 566:Middlewares/ST/STM32_USB_Host_Library/Core/Src/usbh_core.c ****       USBH_UsrLog ("No Class has been registered.");
 567:Middlewares/ST/STM32_USB_Host_Library/Core/Src/usbh_core.c ****     }
 568:Middlewares/ST/STM32_USB_Host_Library/Core/Src/usbh_core.c ****     else
 569:Middlewares/ST/STM32_USB_Host_Library/Core/Src/usbh_core.c ****     {
 570:Middlewares/ST/STM32_USB_Host_Library/Core/Src/usbh_core.c ****       phost->pActiveClass = NULL;
 571:Middlewares/ST/STM32_USB_Host_Library/Core/Src/usbh_core.c **** 
 572:Middlewares/ST/STM32_USB_Host_Library/Core/Src/usbh_core.c ****       for (idx = 0U; idx < USBH_MAX_NUM_SUPPORTED_CLASS; idx++)
 573:Middlewares/ST/STM32_USB_Host_Library/Core/Src/usbh_core.c ****       {
 574:Middlewares/ST/STM32_USB_Host_Library/Core/Src/usbh_core.c ****         if(phost->pClass[idx]->ClassCode == phost->device.CfgDesc.Itf_Desc[0].bInterfaceClass)
 575:Middlewares/ST/STM32_USB_Host_Library/Core/Src/usbh_core.c ****         {
 576:Middlewares/ST/STM32_USB_Host_Library/Core/Src/usbh_core.c ****           phost->pActiveClass = phost->pClass[idx];
 577:Middlewares/ST/STM32_USB_Host_Library/Core/Src/usbh_core.c ****         }
 578:Middlewares/ST/STM32_USB_Host_Library/Core/Src/usbh_core.c ****       }
 579:Middlewares/ST/STM32_USB_Host_Library/Core/Src/usbh_core.c **** 
ARM GAS  C:\Users\Patryk\AppData\Local\Temp\cccHu4h9.s 			page 13


 580:Middlewares/ST/STM32_USB_Host_Library/Core/Src/usbh_core.c ****       if(phost->pActiveClass != NULL)
 581:Middlewares/ST/STM32_USB_Host_Library/Core/Src/usbh_core.c ****       {
 582:Middlewares/ST/STM32_USB_Host_Library/Core/Src/usbh_core.c ****         if(phost->pActiveClass->Init(phost)== USBH_OK)
 583:Middlewares/ST/STM32_USB_Host_Library/Core/Src/usbh_core.c ****         {
 584:Middlewares/ST/STM32_USB_Host_Library/Core/Src/usbh_core.c ****           phost->gState  = HOST_CLASS_REQUEST;
 585:Middlewares/ST/STM32_USB_Host_Library/Core/Src/usbh_core.c ****           USBH_UsrLog ("%s class started.", phost->pActiveClass->Name);
 586:Middlewares/ST/STM32_USB_Host_Library/Core/Src/usbh_core.c **** 
 587:Middlewares/ST/STM32_USB_Host_Library/Core/Src/usbh_core.c ****           /* Inform user that a class has been activated */
 588:Middlewares/ST/STM32_USB_Host_Library/Core/Src/usbh_core.c ****           phost->pUser(phost, HOST_USER_CLASS_SELECTED);
 589:Middlewares/ST/STM32_USB_Host_Library/Core/Src/usbh_core.c ****         }
 590:Middlewares/ST/STM32_USB_Host_Library/Core/Src/usbh_core.c ****         else
 591:Middlewares/ST/STM32_USB_Host_Library/Core/Src/usbh_core.c ****         {
 592:Middlewares/ST/STM32_USB_Host_Library/Core/Src/usbh_core.c ****           phost->gState  = HOST_ABORT_STATE;
 593:Middlewares/ST/STM32_USB_Host_Library/Core/Src/usbh_core.c ****           USBH_UsrLog ("Device not supporting %s class.", phost->pActiveClass->Name);
 594:Middlewares/ST/STM32_USB_Host_Library/Core/Src/usbh_core.c ****         }
 595:Middlewares/ST/STM32_USB_Host_Library/Core/Src/usbh_core.c ****       }
 596:Middlewares/ST/STM32_USB_Host_Library/Core/Src/usbh_core.c ****       else
 597:Middlewares/ST/STM32_USB_Host_Library/Core/Src/usbh_core.c ****       {
 598:Middlewares/ST/STM32_USB_Host_Library/Core/Src/usbh_core.c ****         phost->gState  = HOST_ABORT_STATE;
 599:Middlewares/ST/STM32_USB_Host_Library/Core/Src/usbh_core.c ****         USBH_UsrLog ("No registered class for this device.");
 600:Middlewares/ST/STM32_USB_Host_Library/Core/Src/usbh_core.c ****       }
 601:Middlewares/ST/STM32_USB_Host_Library/Core/Src/usbh_core.c ****     }
 602:Middlewares/ST/STM32_USB_Host_Library/Core/Src/usbh_core.c **** 
 603:Middlewares/ST/STM32_USB_Host_Library/Core/Src/usbh_core.c **** #if (USBH_USE_OS == 1U)
 604:Middlewares/ST/STM32_USB_Host_Library/Core/Src/usbh_core.c ****     osMessagePut ( phost->os_event, USBH_STATE_CHANGED_EVENT, 0);
 605:Middlewares/ST/STM32_USB_Host_Library/Core/Src/usbh_core.c **** #endif
 606:Middlewares/ST/STM32_USB_Host_Library/Core/Src/usbh_core.c ****     break;
 607:Middlewares/ST/STM32_USB_Host_Library/Core/Src/usbh_core.c **** 
 608:Middlewares/ST/STM32_USB_Host_Library/Core/Src/usbh_core.c ****   case HOST_CLASS_REQUEST:
 609:Middlewares/ST/STM32_USB_Host_Library/Core/Src/usbh_core.c ****     /* process class standard control requests state machine */
 610:Middlewares/ST/STM32_USB_Host_Library/Core/Src/usbh_core.c ****     if(phost->pActiveClass != NULL)
 611:Middlewares/ST/STM32_USB_Host_Library/Core/Src/usbh_core.c ****     {
 612:Middlewares/ST/STM32_USB_Host_Library/Core/Src/usbh_core.c ****       status = phost->pActiveClass->Requests(phost);
 613:Middlewares/ST/STM32_USB_Host_Library/Core/Src/usbh_core.c **** 
 614:Middlewares/ST/STM32_USB_Host_Library/Core/Src/usbh_core.c ****       if(status == USBH_OK)
 615:Middlewares/ST/STM32_USB_Host_Library/Core/Src/usbh_core.c ****       {
 616:Middlewares/ST/STM32_USB_Host_Library/Core/Src/usbh_core.c ****         phost->gState  = HOST_CLASS;
 617:Middlewares/ST/STM32_USB_Host_Library/Core/Src/usbh_core.c ****       }
 618:Middlewares/ST/STM32_USB_Host_Library/Core/Src/usbh_core.c ****     }
 619:Middlewares/ST/STM32_USB_Host_Library/Core/Src/usbh_core.c ****     else
 620:Middlewares/ST/STM32_USB_Host_Library/Core/Src/usbh_core.c ****     {
 621:Middlewares/ST/STM32_USB_Host_Library/Core/Src/usbh_core.c ****       phost->gState  = HOST_ABORT_STATE;
 622:Middlewares/ST/STM32_USB_Host_Library/Core/Src/usbh_core.c ****       USBH_ErrLog ("Invalid Class Driver.");
 623:Middlewares/ST/STM32_USB_Host_Library/Core/Src/usbh_core.c **** 
 624:Middlewares/ST/STM32_USB_Host_Library/Core/Src/usbh_core.c **** #if (USBH_USE_OS == 1U)
 625:Middlewares/ST/STM32_USB_Host_Library/Core/Src/usbh_core.c ****     osMessagePut ( phost->os_event, USBH_STATE_CHANGED_EVENT, 0);
 626:Middlewares/ST/STM32_USB_Host_Library/Core/Src/usbh_core.c **** #endif
 627:Middlewares/ST/STM32_USB_Host_Library/Core/Src/usbh_core.c ****     }
 628:Middlewares/ST/STM32_USB_Host_Library/Core/Src/usbh_core.c **** 
 629:Middlewares/ST/STM32_USB_Host_Library/Core/Src/usbh_core.c ****     break;
 630:Middlewares/ST/STM32_USB_Host_Library/Core/Src/usbh_core.c ****   case HOST_CLASS:
 631:Middlewares/ST/STM32_USB_Host_Library/Core/Src/usbh_core.c ****     /* process class state machine */
 632:Middlewares/ST/STM32_USB_Host_Library/Core/Src/usbh_core.c ****     if(phost->pActiveClass != NULL)
 633:Middlewares/ST/STM32_USB_Host_Library/Core/Src/usbh_core.c ****     {
 634:Middlewares/ST/STM32_USB_Host_Library/Core/Src/usbh_core.c ****       phost->pActiveClass->BgndProcess(phost);
 635:Middlewares/ST/STM32_USB_Host_Library/Core/Src/usbh_core.c ****     }
 636:Middlewares/ST/STM32_USB_Host_Library/Core/Src/usbh_core.c ****     break;
ARM GAS  C:\Users\Patryk\AppData\Local\Temp\cccHu4h9.s 			page 14


 637:Middlewares/ST/STM32_USB_Host_Library/Core/Src/usbh_core.c **** 
 638:Middlewares/ST/STM32_USB_Host_Library/Core/Src/usbh_core.c ****   case HOST_DEV_DISCONNECTED :
 639:Middlewares/ST/STM32_USB_Host_Library/Core/Src/usbh_core.c **** 
 640:Middlewares/ST/STM32_USB_Host_Library/Core/Src/usbh_core.c ****     DeInitStateMachine(phost);
 641:Middlewares/ST/STM32_USB_Host_Library/Core/Src/usbh_core.c **** 
 642:Middlewares/ST/STM32_USB_Host_Library/Core/Src/usbh_core.c ****     /* Re-Initilaize Host for new Enumeration */
 643:Middlewares/ST/STM32_USB_Host_Library/Core/Src/usbh_core.c ****     if(phost->pActiveClass != NULL)
 644:Middlewares/ST/STM32_USB_Host_Library/Core/Src/usbh_core.c ****     {
 645:Middlewares/ST/STM32_USB_Host_Library/Core/Src/usbh_core.c ****       phost->pActiveClass->DeInit(phost);
 646:Middlewares/ST/STM32_USB_Host_Library/Core/Src/usbh_core.c ****       phost->pActiveClass = NULL;
 647:Middlewares/ST/STM32_USB_Host_Library/Core/Src/usbh_core.c ****     }
 648:Middlewares/ST/STM32_USB_Host_Library/Core/Src/usbh_core.c ****     break;
 649:Middlewares/ST/STM32_USB_Host_Library/Core/Src/usbh_core.c **** 
 650:Middlewares/ST/STM32_USB_Host_Library/Core/Src/usbh_core.c ****   case HOST_ABORT_STATE:
 651:Middlewares/ST/STM32_USB_Host_Library/Core/Src/usbh_core.c ****   default :
 652:Middlewares/ST/STM32_USB_Host_Library/Core/Src/usbh_core.c ****     break;
 653:Middlewares/ST/STM32_USB_Host_Library/Core/Src/usbh_core.c ****   }
 654:Middlewares/ST/STM32_USB_Host_Library/Core/Src/usbh_core.c ****  return USBH_OK;
 655:Middlewares/ST/STM32_USB_Host_Library/Core/Src/usbh_core.c **** }
 656:Middlewares/ST/STM32_USB_Host_Library/Core/Src/usbh_core.c **** 
 657:Middlewares/ST/STM32_USB_Host_Library/Core/Src/usbh_core.c **** 
 658:Middlewares/ST/STM32_USB_Host_Library/Core/Src/usbh_core.c **** /**
 659:Middlewares/ST/STM32_USB_Host_Library/Core/Src/usbh_core.c ****   * @brief  USBH_HandleEnum
 660:Middlewares/ST/STM32_USB_Host_Library/Core/Src/usbh_core.c ****   *         This function includes the complete enumeration process
 661:Middlewares/ST/STM32_USB_Host_Library/Core/Src/usbh_core.c ****   * @param  phost: Host Handle
 662:Middlewares/ST/STM32_USB_Host_Library/Core/Src/usbh_core.c ****   * @retval USBH_Status
 663:Middlewares/ST/STM32_USB_Host_Library/Core/Src/usbh_core.c ****   */
 664:Middlewares/ST/STM32_USB_Host_Library/Core/Src/usbh_core.c **** static USBH_StatusTypeDef USBH_HandleEnum (USBH_HandleTypeDef *phost)
 665:Middlewares/ST/STM32_USB_Host_Library/Core/Src/usbh_core.c **** {
 666:Middlewares/ST/STM32_USB_Host_Library/Core/Src/usbh_core.c ****   USBH_StatusTypeDef Status = USBH_BUSY;
 667:Middlewares/ST/STM32_USB_Host_Library/Core/Src/usbh_core.c **** 
 668:Middlewares/ST/STM32_USB_Host_Library/Core/Src/usbh_core.c ****   switch (phost->EnumState)
 669:Middlewares/ST/STM32_USB_Host_Library/Core/Src/usbh_core.c ****   {
 670:Middlewares/ST/STM32_USB_Host_Library/Core/Src/usbh_core.c ****   case ENUM_IDLE:
 671:Middlewares/ST/STM32_USB_Host_Library/Core/Src/usbh_core.c ****     /* Get Device Desc for only 1st 8 bytes : To get EP0 MaxPacketSize */
 672:Middlewares/ST/STM32_USB_Host_Library/Core/Src/usbh_core.c ****     if ( USBH_Get_DevDesc(phost, 8U) == USBH_OK)
 673:Middlewares/ST/STM32_USB_Host_Library/Core/Src/usbh_core.c ****     {
 674:Middlewares/ST/STM32_USB_Host_Library/Core/Src/usbh_core.c ****       phost->Control.pipe_size = phost->device.DevDesc.bMaxPacketSize;
 675:Middlewares/ST/STM32_USB_Host_Library/Core/Src/usbh_core.c **** 
 676:Middlewares/ST/STM32_USB_Host_Library/Core/Src/usbh_core.c ****       phost->EnumState = ENUM_GET_FULL_DEV_DESC;
 677:Middlewares/ST/STM32_USB_Host_Library/Core/Src/usbh_core.c **** 
 678:Middlewares/ST/STM32_USB_Host_Library/Core/Src/usbh_core.c ****       /* modify control channels configuration for MaxPacket size */
 679:Middlewares/ST/STM32_USB_Host_Library/Core/Src/usbh_core.c ****       USBH_OpenPipe (phost,
 680:Middlewares/ST/STM32_USB_Host_Library/Core/Src/usbh_core.c ****                            phost->Control.pipe_in,
 681:Middlewares/ST/STM32_USB_Host_Library/Core/Src/usbh_core.c ****                            0x80U,
 682:Middlewares/ST/STM32_USB_Host_Library/Core/Src/usbh_core.c ****                            phost->device.address,
 683:Middlewares/ST/STM32_USB_Host_Library/Core/Src/usbh_core.c ****                            phost->device.speed,
 684:Middlewares/ST/STM32_USB_Host_Library/Core/Src/usbh_core.c ****                            USBH_EP_CONTROL,
 685:Middlewares/ST/STM32_USB_Host_Library/Core/Src/usbh_core.c ****                            (uint16_t)phost->Control.pipe_size);
 686:Middlewares/ST/STM32_USB_Host_Library/Core/Src/usbh_core.c **** 
 687:Middlewares/ST/STM32_USB_Host_Library/Core/Src/usbh_core.c ****       /* Open Control pipes */
 688:Middlewares/ST/STM32_USB_Host_Library/Core/Src/usbh_core.c ****       USBH_OpenPipe (phost,
 689:Middlewares/ST/STM32_USB_Host_Library/Core/Src/usbh_core.c ****                            phost->Control.pipe_out,
 690:Middlewares/ST/STM32_USB_Host_Library/Core/Src/usbh_core.c ****                            0x00U,
 691:Middlewares/ST/STM32_USB_Host_Library/Core/Src/usbh_core.c ****                            phost->device.address,
 692:Middlewares/ST/STM32_USB_Host_Library/Core/Src/usbh_core.c ****                            phost->device.speed,
 693:Middlewares/ST/STM32_USB_Host_Library/Core/Src/usbh_core.c ****                            USBH_EP_CONTROL,
ARM GAS  C:\Users\Patryk\AppData\Local\Temp\cccHu4h9.s 			page 15


 694:Middlewares/ST/STM32_USB_Host_Library/Core/Src/usbh_core.c ****                            (uint16_t)phost->Control.pipe_size);
 695:Middlewares/ST/STM32_USB_Host_Library/Core/Src/usbh_core.c **** 
 696:Middlewares/ST/STM32_USB_Host_Library/Core/Src/usbh_core.c ****     }
 697:Middlewares/ST/STM32_USB_Host_Library/Core/Src/usbh_core.c ****     break;
 698:Middlewares/ST/STM32_USB_Host_Library/Core/Src/usbh_core.c **** 
 699:Middlewares/ST/STM32_USB_Host_Library/Core/Src/usbh_core.c ****   case ENUM_GET_FULL_DEV_DESC:
 700:Middlewares/ST/STM32_USB_Host_Library/Core/Src/usbh_core.c ****     /* Get FULL Device Desc  */
 701:Middlewares/ST/STM32_USB_Host_Library/Core/Src/usbh_core.c ****     if ( USBH_Get_DevDesc(phost, USB_DEVICE_DESC_SIZE)== USBH_OK)
 702:Middlewares/ST/STM32_USB_Host_Library/Core/Src/usbh_core.c ****     {
 703:Middlewares/ST/STM32_USB_Host_Library/Core/Src/usbh_core.c ****       USBH_UsrLog("PID: %xh", phost->device.DevDesc.idProduct );
 704:Middlewares/ST/STM32_USB_Host_Library/Core/Src/usbh_core.c ****       USBH_UsrLog("VID: %xh", phost->device.DevDesc.idVendor );
 705:Middlewares/ST/STM32_USB_Host_Library/Core/Src/usbh_core.c **** 
 706:Middlewares/ST/STM32_USB_Host_Library/Core/Src/usbh_core.c ****       phost->EnumState = ENUM_SET_ADDR;
 707:Middlewares/ST/STM32_USB_Host_Library/Core/Src/usbh_core.c **** 
 708:Middlewares/ST/STM32_USB_Host_Library/Core/Src/usbh_core.c ****     }
 709:Middlewares/ST/STM32_USB_Host_Library/Core/Src/usbh_core.c ****     break;
 710:Middlewares/ST/STM32_USB_Host_Library/Core/Src/usbh_core.c **** 
 711:Middlewares/ST/STM32_USB_Host_Library/Core/Src/usbh_core.c ****   case ENUM_SET_ADDR:
 712:Middlewares/ST/STM32_USB_Host_Library/Core/Src/usbh_core.c ****     /* set address */
 713:Middlewares/ST/STM32_USB_Host_Library/Core/Src/usbh_core.c ****     if ( USBH_SetAddress(phost, USBH_DEVICE_ADDRESS) == USBH_OK)
 714:Middlewares/ST/STM32_USB_Host_Library/Core/Src/usbh_core.c ****     {
 715:Middlewares/ST/STM32_USB_Host_Library/Core/Src/usbh_core.c ****       USBH_Delay(2U);
 716:Middlewares/ST/STM32_USB_Host_Library/Core/Src/usbh_core.c ****       phost->device.address = USBH_DEVICE_ADDRESS;
 717:Middlewares/ST/STM32_USB_Host_Library/Core/Src/usbh_core.c **** 
 718:Middlewares/ST/STM32_USB_Host_Library/Core/Src/usbh_core.c ****       /* user callback for device address assigned */
 719:Middlewares/ST/STM32_USB_Host_Library/Core/Src/usbh_core.c ****       USBH_UsrLog("Address (#%d) assigned.", phost->device.address);
 720:Middlewares/ST/STM32_USB_Host_Library/Core/Src/usbh_core.c ****       phost->EnumState = ENUM_GET_CFG_DESC;
 721:Middlewares/ST/STM32_USB_Host_Library/Core/Src/usbh_core.c **** 
 722:Middlewares/ST/STM32_USB_Host_Library/Core/Src/usbh_core.c ****       /* modify control channels to update device address */
 723:Middlewares/ST/STM32_USB_Host_Library/Core/Src/usbh_core.c ****       USBH_OpenPipe (phost,
 724:Middlewares/ST/STM32_USB_Host_Library/Core/Src/usbh_core.c ****                            phost->Control.pipe_in,
 725:Middlewares/ST/STM32_USB_Host_Library/Core/Src/usbh_core.c ****                            0x80U,
 726:Middlewares/ST/STM32_USB_Host_Library/Core/Src/usbh_core.c ****                            phost->device.address,
 727:Middlewares/ST/STM32_USB_Host_Library/Core/Src/usbh_core.c ****                            phost->device.speed,
 728:Middlewares/ST/STM32_USB_Host_Library/Core/Src/usbh_core.c ****                            USBH_EP_CONTROL,
 729:Middlewares/ST/STM32_USB_Host_Library/Core/Src/usbh_core.c ****                            (uint16_t)phost->Control.pipe_size);
 730:Middlewares/ST/STM32_USB_Host_Library/Core/Src/usbh_core.c **** 
 731:Middlewares/ST/STM32_USB_Host_Library/Core/Src/usbh_core.c ****       /* Open Control pipes */
 732:Middlewares/ST/STM32_USB_Host_Library/Core/Src/usbh_core.c ****       USBH_OpenPipe (phost,
 733:Middlewares/ST/STM32_USB_Host_Library/Core/Src/usbh_core.c ****                            phost->Control.pipe_out,
 734:Middlewares/ST/STM32_USB_Host_Library/Core/Src/usbh_core.c ****                            0x00U,
 735:Middlewares/ST/STM32_USB_Host_Library/Core/Src/usbh_core.c ****                            phost->device.address,
 736:Middlewares/ST/STM32_USB_Host_Library/Core/Src/usbh_core.c ****                            phost->device.speed,
 737:Middlewares/ST/STM32_USB_Host_Library/Core/Src/usbh_core.c ****                            USBH_EP_CONTROL,
 738:Middlewares/ST/STM32_USB_Host_Library/Core/Src/usbh_core.c ****                            (uint16_t)phost->Control.pipe_size);
 739:Middlewares/ST/STM32_USB_Host_Library/Core/Src/usbh_core.c ****     }
 740:Middlewares/ST/STM32_USB_Host_Library/Core/Src/usbh_core.c ****     break;
 741:Middlewares/ST/STM32_USB_Host_Library/Core/Src/usbh_core.c **** 
 742:Middlewares/ST/STM32_USB_Host_Library/Core/Src/usbh_core.c ****   case ENUM_GET_CFG_DESC:
 743:Middlewares/ST/STM32_USB_Host_Library/Core/Src/usbh_core.c ****     /* get standard configuration descriptor */
 744:Middlewares/ST/STM32_USB_Host_Library/Core/Src/usbh_core.c ****     if ( USBH_Get_CfgDesc(phost,
 745:Middlewares/ST/STM32_USB_Host_Library/Core/Src/usbh_core.c ****                           USB_CONFIGURATION_DESC_SIZE) == USBH_OK)
 746:Middlewares/ST/STM32_USB_Host_Library/Core/Src/usbh_core.c ****     {
 747:Middlewares/ST/STM32_USB_Host_Library/Core/Src/usbh_core.c ****       phost->EnumState = ENUM_GET_FULL_CFG_DESC;
 748:Middlewares/ST/STM32_USB_Host_Library/Core/Src/usbh_core.c ****     }
 749:Middlewares/ST/STM32_USB_Host_Library/Core/Src/usbh_core.c ****     break;
 750:Middlewares/ST/STM32_USB_Host_Library/Core/Src/usbh_core.c **** 
ARM GAS  C:\Users\Patryk\AppData\Local\Temp\cccHu4h9.s 			page 16


 751:Middlewares/ST/STM32_USB_Host_Library/Core/Src/usbh_core.c ****   case ENUM_GET_FULL_CFG_DESC:
 752:Middlewares/ST/STM32_USB_Host_Library/Core/Src/usbh_core.c ****     /* get FULL config descriptor (config, interface, endpoints) */
 753:Middlewares/ST/STM32_USB_Host_Library/Core/Src/usbh_core.c ****     if (USBH_Get_CfgDesc(phost,
 754:Middlewares/ST/STM32_USB_Host_Library/Core/Src/usbh_core.c ****                          phost->device.CfgDesc.wTotalLength) == USBH_OK)
 755:Middlewares/ST/STM32_USB_Host_Library/Core/Src/usbh_core.c ****     {
 756:Middlewares/ST/STM32_USB_Host_Library/Core/Src/usbh_core.c ****       phost->EnumState = ENUM_GET_MFC_STRING_DESC;
 757:Middlewares/ST/STM32_USB_Host_Library/Core/Src/usbh_core.c ****     }
 758:Middlewares/ST/STM32_USB_Host_Library/Core/Src/usbh_core.c ****     break;
 759:Middlewares/ST/STM32_USB_Host_Library/Core/Src/usbh_core.c **** 
 760:Middlewares/ST/STM32_USB_Host_Library/Core/Src/usbh_core.c ****   case ENUM_GET_MFC_STRING_DESC:
 761:Middlewares/ST/STM32_USB_Host_Library/Core/Src/usbh_core.c ****     if (phost->device.DevDesc.iManufacturer != 0U)
 762:Middlewares/ST/STM32_USB_Host_Library/Core/Src/usbh_core.c ****     { /* Check that Manufacturer String is available */
 763:Middlewares/ST/STM32_USB_Host_Library/Core/Src/usbh_core.c **** 
 764:Middlewares/ST/STM32_USB_Host_Library/Core/Src/usbh_core.c ****       if ( USBH_Get_StringDesc(phost,
 765:Middlewares/ST/STM32_USB_Host_Library/Core/Src/usbh_core.c ****                                phost->device.DevDesc.iManufacturer,
 766:Middlewares/ST/STM32_USB_Host_Library/Core/Src/usbh_core.c ****                                phost->device.Data,
 767:Middlewares/ST/STM32_USB_Host_Library/Core/Src/usbh_core.c ****                                0xFFU) == USBH_OK)
 768:Middlewares/ST/STM32_USB_Host_Library/Core/Src/usbh_core.c ****       {
 769:Middlewares/ST/STM32_USB_Host_Library/Core/Src/usbh_core.c ****         /* User callback for Manufacturing string */
 770:Middlewares/ST/STM32_USB_Host_Library/Core/Src/usbh_core.c ****         USBH_UsrLog("Manufacturer : %s",  (char *)(void*)phost->device.Data);
 771:Middlewares/ST/STM32_USB_Host_Library/Core/Src/usbh_core.c ****         phost->EnumState = ENUM_GET_PRODUCT_STRING_DESC;
 772:Middlewares/ST/STM32_USB_Host_Library/Core/Src/usbh_core.c **** 
 773:Middlewares/ST/STM32_USB_Host_Library/Core/Src/usbh_core.c **** #if (USBH_USE_OS == 1U)
 774:Middlewares/ST/STM32_USB_Host_Library/Core/Src/usbh_core.c ****     osMessagePut ( phost->os_event, USBH_STATE_CHANGED_EVENT, 0);
 775:Middlewares/ST/STM32_USB_Host_Library/Core/Src/usbh_core.c **** #endif
 776:Middlewares/ST/STM32_USB_Host_Library/Core/Src/usbh_core.c ****       }
 777:Middlewares/ST/STM32_USB_Host_Library/Core/Src/usbh_core.c ****     }
 778:Middlewares/ST/STM32_USB_Host_Library/Core/Src/usbh_core.c ****     else
 779:Middlewares/ST/STM32_USB_Host_Library/Core/Src/usbh_core.c ****     {
 780:Middlewares/ST/STM32_USB_Host_Library/Core/Src/usbh_core.c ****      USBH_UsrLog("Manufacturer : N/A");
 781:Middlewares/ST/STM32_USB_Host_Library/Core/Src/usbh_core.c ****      phost->EnumState = ENUM_GET_PRODUCT_STRING_DESC;
 782:Middlewares/ST/STM32_USB_Host_Library/Core/Src/usbh_core.c **** #if (USBH_USE_OS == 1U)
 783:Middlewares/ST/STM32_USB_Host_Library/Core/Src/usbh_core.c ****     osMessagePut ( phost->os_event, USBH_STATE_CHANGED_EVENT, 0);
 784:Middlewares/ST/STM32_USB_Host_Library/Core/Src/usbh_core.c **** #endif
 785:Middlewares/ST/STM32_USB_Host_Library/Core/Src/usbh_core.c ****     }
 786:Middlewares/ST/STM32_USB_Host_Library/Core/Src/usbh_core.c ****     break;
 787:Middlewares/ST/STM32_USB_Host_Library/Core/Src/usbh_core.c **** 
 788:Middlewares/ST/STM32_USB_Host_Library/Core/Src/usbh_core.c ****   case ENUM_GET_PRODUCT_STRING_DESC:
 789:Middlewares/ST/STM32_USB_Host_Library/Core/Src/usbh_core.c ****     if (phost->device.DevDesc.iProduct != 0U)
 790:Middlewares/ST/STM32_USB_Host_Library/Core/Src/usbh_core.c ****     { /* Check that Product string is available */
 791:Middlewares/ST/STM32_USB_Host_Library/Core/Src/usbh_core.c ****       if ( USBH_Get_StringDesc(phost,
 792:Middlewares/ST/STM32_USB_Host_Library/Core/Src/usbh_core.c ****                                phost->device.DevDesc.iProduct,
 793:Middlewares/ST/STM32_USB_Host_Library/Core/Src/usbh_core.c ****                                phost->device.Data,
 794:Middlewares/ST/STM32_USB_Host_Library/Core/Src/usbh_core.c ****                                0xFFU) == USBH_OK)
 795:Middlewares/ST/STM32_USB_Host_Library/Core/Src/usbh_core.c ****       {
 796:Middlewares/ST/STM32_USB_Host_Library/Core/Src/usbh_core.c ****         /* User callback for Product string */
 797:Middlewares/ST/STM32_USB_Host_Library/Core/Src/usbh_core.c ****         USBH_UsrLog("Product : %s",  (char *)(void *)phost->device.Data);
 798:Middlewares/ST/STM32_USB_Host_Library/Core/Src/usbh_core.c ****         phost->EnumState = ENUM_GET_SERIALNUM_STRING_DESC;
 799:Middlewares/ST/STM32_USB_Host_Library/Core/Src/usbh_core.c ****       }
 800:Middlewares/ST/STM32_USB_Host_Library/Core/Src/usbh_core.c ****     }
 801:Middlewares/ST/STM32_USB_Host_Library/Core/Src/usbh_core.c ****     else
 802:Middlewares/ST/STM32_USB_Host_Library/Core/Src/usbh_core.c ****     {
 803:Middlewares/ST/STM32_USB_Host_Library/Core/Src/usbh_core.c ****       USBH_UsrLog("Product : N/A");
 804:Middlewares/ST/STM32_USB_Host_Library/Core/Src/usbh_core.c ****       phost->EnumState = ENUM_GET_SERIALNUM_STRING_DESC;
 805:Middlewares/ST/STM32_USB_Host_Library/Core/Src/usbh_core.c **** #if (USBH_USE_OS == 1U)
 806:Middlewares/ST/STM32_USB_Host_Library/Core/Src/usbh_core.c ****     osMessagePut ( phost->os_event, USBH_STATE_CHANGED_EVENT, 0);
 807:Middlewares/ST/STM32_USB_Host_Library/Core/Src/usbh_core.c **** #endif
ARM GAS  C:\Users\Patryk\AppData\Local\Temp\cccHu4h9.s 			page 17


 808:Middlewares/ST/STM32_USB_Host_Library/Core/Src/usbh_core.c ****     }
 809:Middlewares/ST/STM32_USB_Host_Library/Core/Src/usbh_core.c ****     break;
 810:Middlewares/ST/STM32_USB_Host_Library/Core/Src/usbh_core.c **** 
 811:Middlewares/ST/STM32_USB_Host_Library/Core/Src/usbh_core.c ****   case ENUM_GET_SERIALNUM_STRING_DESC:
 812:Middlewares/ST/STM32_USB_Host_Library/Core/Src/usbh_core.c ****     if (phost->device.DevDesc.iSerialNumber != 0U)
 813:Middlewares/ST/STM32_USB_Host_Library/Core/Src/usbh_core.c ****     { /* Check that Serial number string is available */
 814:Middlewares/ST/STM32_USB_Host_Library/Core/Src/usbh_core.c ****       if ( USBH_Get_StringDesc(phost,
 815:Middlewares/ST/STM32_USB_Host_Library/Core/Src/usbh_core.c ****                                phost->device.DevDesc.iSerialNumber,
 816:Middlewares/ST/STM32_USB_Host_Library/Core/Src/usbh_core.c ****                                phost->device.Data,
 817:Middlewares/ST/STM32_USB_Host_Library/Core/Src/usbh_core.c ****                                0xFFU) == USBH_OK)
 818:Middlewares/ST/STM32_USB_Host_Library/Core/Src/usbh_core.c ****       {
 819:Middlewares/ST/STM32_USB_Host_Library/Core/Src/usbh_core.c ****         /* User callback for Serial number string */
 820:Middlewares/ST/STM32_USB_Host_Library/Core/Src/usbh_core.c ****          USBH_UsrLog("Serial Number : %s",  (char *)(void*)phost->device.Data);
 821:Middlewares/ST/STM32_USB_Host_Library/Core/Src/usbh_core.c ****         Status = USBH_OK;
 822:Middlewares/ST/STM32_USB_Host_Library/Core/Src/usbh_core.c ****       }
 823:Middlewares/ST/STM32_USB_Host_Library/Core/Src/usbh_core.c ****     }
 824:Middlewares/ST/STM32_USB_Host_Library/Core/Src/usbh_core.c ****     else
 825:Middlewares/ST/STM32_USB_Host_Library/Core/Src/usbh_core.c ****     {
 826:Middlewares/ST/STM32_USB_Host_Library/Core/Src/usbh_core.c ****       USBH_UsrLog("Serial Number : N/A");
 827:Middlewares/ST/STM32_USB_Host_Library/Core/Src/usbh_core.c ****       Status = USBH_OK;
 828:Middlewares/ST/STM32_USB_Host_Library/Core/Src/usbh_core.c **** #if (USBH_USE_OS == 1U)
 829:Middlewares/ST/STM32_USB_Host_Library/Core/Src/usbh_core.c ****     osMessagePut ( phost->os_event, USBH_STATE_CHANGED_EVENT, 0);
 830:Middlewares/ST/STM32_USB_Host_Library/Core/Src/usbh_core.c **** #endif
 831:Middlewares/ST/STM32_USB_Host_Library/Core/Src/usbh_core.c ****     }
 832:Middlewares/ST/STM32_USB_Host_Library/Core/Src/usbh_core.c ****     break;
 833:Middlewares/ST/STM32_USB_Host_Library/Core/Src/usbh_core.c **** 
 834:Middlewares/ST/STM32_USB_Host_Library/Core/Src/usbh_core.c ****   default:
 835:Middlewares/ST/STM32_USB_Host_Library/Core/Src/usbh_core.c ****     break;
 836:Middlewares/ST/STM32_USB_Host_Library/Core/Src/usbh_core.c ****   }
 837:Middlewares/ST/STM32_USB_Host_Library/Core/Src/usbh_core.c ****   return Status;
 838:Middlewares/ST/STM32_USB_Host_Library/Core/Src/usbh_core.c **** }
 839:Middlewares/ST/STM32_USB_Host_Library/Core/Src/usbh_core.c **** 
 840:Middlewares/ST/STM32_USB_Host_Library/Core/Src/usbh_core.c **** /**
 841:Middlewares/ST/STM32_USB_Host_Library/Core/Src/usbh_core.c ****   * @brief  USBH_LL_SetTimer
 842:Middlewares/ST/STM32_USB_Host_Library/Core/Src/usbh_core.c ****   *         Set the initial Host Timer tick
 843:Middlewares/ST/STM32_USB_Host_Library/Core/Src/usbh_core.c ****   * @param  phost: Host Handle
 844:Middlewares/ST/STM32_USB_Host_Library/Core/Src/usbh_core.c ****   * @retval None
 845:Middlewares/ST/STM32_USB_Host_Library/Core/Src/usbh_core.c ****   */
 846:Middlewares/ST/STM32_USB_Host_Library/Core/Src/usbh_core.c **** void  USBH_LL_SetTimer  (USBH_HandleTypeDef *phost, uint32_t time)
 847:Middlewares/ST/STM32_USB_Host_Library/Core/Src/usbh_core.c **** {
 848:Middlewares/ST/STM32_USB_Host_Library/Core/Src/usbh_core.c ****   phost->Timer = time;
 849:Middlewares/ST/STM32_USB_Host_Library/Core/Src/usbh_core.c **** }
 850:Middlewares/ST/STM32_USB_Host_Library/Core/Src/usbh_core.c **** /**
 851:Middlewares/ST/STM32_USB_Host_Library/Core/Src/usbh_core.c ****   * @brief  USBH_LL_IncTimer
 852:Middlewares/ST/STM32_USB_Host_Library/Core/Src/usbh_core.c ****   *         Increment Host Timer tick
 853:Middlewares/ST/STM32_USB_Host_Library/Core/Src/usbh_core.c ****   * @param  phost: Host Handle
 854:Middlewares/ST/STM32_USB_Host_Library/Core/Src/usbh_core.c ****   * @retval None
 855:Middlewares/ST/STM32_USB_Host_Library/Core/Src/usbh_core.c ****   */
 856:Middlewares/ST/STM32_USB_Host_Library/Core/Src/usbh_core.c **** void  USBH_LL_IncTimer  (USBH_HandleTypeDef *phost)
 857:Middlewares/ST/STM32_USB_Host_Library/Core/Src/usbh_core.c **** {
 858:Middlewares/ST/STM32_USB_Host_Library/Core/Src/usbh_core.c ****   phost->Timer ++;
 859:Middlewares/ST/STM32_USB_Host_Library/Core/Src/usbh_core.c ****   USBH_HandleSof(phost);
 860:Middlewares/ST/STM32_USB_Host_Library/Core/Src/usbh_core.c **** }
 861:Middlewares/ST/STM32_USB_Host_Library/Core/Src/usbh_core.c **** 
 862:Middlewares/ST/STM32_USB_Host_Library/Core/Src/usbh_core.c **** /**
 863:Middlewares/ST/STM32_USB_Host_Library/Core/Src/usbh_core.c ****   * @brief  USBH_HandleSof
 864:Middlewares/ST/STM32_USB_Host_Library/Core/Src/usbh_core.c ****   *         Call SOF process
ARM GAS  C:\Users\Patryk\AppData\Local\Temp\cccHu4h9.s 			page 18


 865:Middlewares/ST/STM32_USB_Host_Library/Core/Src/usbh_core.c ****   * @param  phost: Host Handle
 866:Middlewares/ST/STM32_USB_Host_Library/Core/Src/usbh_core.c ****   * @retval None
 867:Middlewares/ST/STM32_USB_Host_Library/Core/Src/usbh_core.c ****   */
 868:Middlewares/ST/STM32_USB_Host_Library/Core/Src/usbh_core.c **** static void  USBH_HandleSof  (USBH_HandleTypeDef *phost)
 869:Middlewares/ST/STM32_USB_Host_Library/Core/Src/usbh_core.c **** {
 105              		.loc 1 869 0
 106              		.cfi_startproc
 107              		@ args = 0, pretend = 0, frame = 0
 108              		@ frame_needed = 0, uses_anonymous_args = 0
 109              	.LVL8:
 110 0000 08B5     		push	{r3, lr}
 111              	.LCFI0:
 112              		.cfi_def_cfa_offset 8
 113              		.cfi_offset 3, -8
 114              		.cfi_offset 14, -4
 870:Middlewares/ST/STM32_USB_Host_Library/Core/Src/usbh_core.c ****   if((phost->gState == HOST_CLASS)&&(phost->pActiveClass != NULL))
 115              		.loc 1 870 0
 116 0002 0378     		ldrb	r3, [r0]	@ zero_extendqisi2
 117 0004 DBB2     		uxtb	r3, r3
 118 0006 0B2B     		cmp	r3, #11
 119 0008 00D0     		beq	.L9
 120              	.LVL9:
 121              	.L6:
 871:Middlewares/ST/STM32_USB_Host_Library/Core/Src/usbh_core.c ****   {
 872:Middlewares/ST/STM32_USB_Host_Library/Core/Src/usbh_core.c ****     phost->pActiveClass->SOFProcess(phost);
 873:Middlewares/ST/STM32_USB_Host_Library/Core/Src/usbh_core.c ****   }
 874:Middlewares/ST/STM32_USB_Host_Library/Core/Src/usbh_core.c **** }
 122              		.loc 1 874 0
 123 000a 08BD     		pop	{r3, pc}
 124              	.LVL10:
 125              	.L9:
 870:Middlewares/ST/STM32_USB_Host_Library/Core/Src/usbh_core.c ****   if((phost->gState == HOST_CLASS)&&(phost->pActiveClass != NULL))
 126              		.loc 1 870 0 discriminator 1
 127 000c D0F87833 		ldr	r3, [r0, #888]
 128 0010 002B     		cmp	r3, #0
 129 0012 FAD0     		beq	.L6
 872:Middlewares/ST/STM32_USB_Host_Library/Core/Src/usbh_core.c ****   }
 130              		.loc 1 872 0
 131 0014 9B69     		ldr	r3, [r3, #24]
 132 0016 9847     		blx	r3
 133              	.LVL11:
 134              		.loc 1 874 0
 135 0018 F7E7     		b	.L6
 136              		.cfi_endproc
 137              	.LFE158:
 139              		.section	.text.USBH_HandleEnum,"ax",%progbits
 140              		.align	1
 141              		.syntax unified
 142              		.thumb
 143              		.thumb_func
 144              		.fpu fpv5-sp-d16
 146              	USBH_HandleEnum:
 147              	.LFB155:
 665:Middlewares/ST/STM32_USB_Host_Library/Core/Src/usbh_core.c ****   USBH_StatusTypeDef Status = USBH_BUSY;
 148              		.loc 1 665 0
 149              		.cfi_startproc
 150              		@ args = 0, pretend = 0, frame = 0
ARM GAS  C:\Users\Patryk\AppData\Local\Temp\cccHu4h9.s 			page 19


 151              		@ frame_needed = 0, uses_anonymous_args = 0
 152              	.LVL12:
 153 0000 70B5     		push	{r4, r5, r6, lr}
 154              	.LCFI1:
 155              		.cfi_def_cfa_offset 16
 156              		.cfi_offset 4, -16
 157              		.cfi_offset 5, -12
 158              		.cfi_offset 6, -8
 159              		.cfi_offset 14, -4
 160 0002 84B0     		sub	sp, sp, #16
 161              	.LCFI2:
 162              		.cfi_def_cfa_offset 32
 163 0004 0446     		mov	r4, r0
 164              	.LVL13:
 668:Middlewares/ST/STM32_USB_Host_Library/Core/Src/usbh_core.c ****   {
 165              		.loc 1 668 0
 166 0006 4378     		ldrb	r3, [r0, #1]	@ zero_extendqisi2
 167 0008 072B     		cmp	r3, #7
 168 000a 00F20681 		bhi	.L24
 169 000e DFE803F0 		tbb	[pc, r3]
 170              	.L13:
 171 0012 04       		.byte	(.L12-.L13)/2
 172 0013 2D       		.byte	(.L14-.L13)/2
 173 0014 47       		.byte	(.L15-.L13)/2
 174 0015 79       		.byte	(.L16-.L13)/2
 175 0016 83       		.byte	(.L17-.L13)/2
 176 0017 8D       		.byte	(.L18-.L13)/2
 177 0018 BA       		.byte	(.L19-.L13)/2
 178 0019 E1       		.byte	(.L20-.L13)/2
 179              		.p2align 1
 180              	.L12:
 672:Middlewares/ST/STM32_USB_Host_Library/Core/Src/usbh_core.c ****     {
 181              		.loc 1 672 0
 182 001a 0821     		movs	r1, #8
 183 001c FFF7FEFF 		bl	USBH_Get_DevDesc
 184              	.LVL14:
 185 0020 18B1     		cbz	r0, .L34
 666:Middlewares/ST/STM32_USB_Host_Library/Core/Src/usbh_core.c **** 
 186              		.loc 1 666 0
 187 0022 0124     		movs	r4, #1
 188              	.LVL15:
 189              	.L11:
 838:Middlewares/ST/STM32_USB_Host_Library/Core/Src/usbh_core.c **** 
 190              		.loc 1 838 0
 191 0024 2046     		mov	r0, r4
 192 0026 04B0     		add	sp, sp, #16
 193              	.LCFI3:
 194              		.cfi_remember_state
 195              		.cfi_def_cfa_offset 16
 196              		@ sp needed
 197 0028 70BD     		pop	{r4, r5, r6, pc}
 198              	.LVL16:
 199              	.L34:
 200              	.LCFI4:
 201              		.cfi_restore_state
 674:Middlewares/ST/STM32_USB_Host_Library/Core/Src/usbh_core.c **** 
 202              		.loc 1 674 0
ARM GAS  C:\Users\Patryk\AppData\Local\Temp\cccHu4h9.s 			page 20


 203 002a 94F82923 		ldrb	r2, [r4, #809]	@ zero_extendqisi2
 204 002e A271     		strb	r2, [r4, #6]
 676:Middlewares/ST/STM32_USB_Host_Library/Core/Src/usbh_core.c **** 
 205              		.loc 1 676 0
 206 0030 0125     		movs	r5, #1
 207 0032 6570     		strb	r5, [r4, #1]
 679:Middlewares/ST/STM32_USB_Host_Library/Core/Src/usbh_core.c ****                            phost->Control.pipe_in,
 208              		.loc 1 679 0
 209 0034 94F81C33 		ldrb	r3, [r4, #796]	@ zero_extendqisi2
 210 0038 2179     		ldrb	r1, [r4, #4]	@ zero_extendqisi2
 211 003a 0292     		str	r2, [sp, #8]
 212 003c 0026     		movs	r6, #0
 213 003e 0196     		str	r6, [sp, #4]
 214 0040 94F81D23 		ldrb	r2, [r4, #797]	@ zero_extendqisi2
 215 0044 0092     		str	r2, [sp]
 216 0046 8022     		movs	r2, #128
 217 0048 2046     		mov	r0, r4
 218 004a FFF7FEFF 		bl	USBH_OpenPipe
 219              	.LVL17:
 688:Middlewares/ST/STM32_USB_Host_Library/Core/Src/usbh_core.c ****                            phost->Control.pipe_out,
 220              		.loc 1 688 0
 221 004e 94F81C33 		ldrb	r3, [r4, #796]	@ zero_extendqisi2
 222 0052 6179     		ldrb	r1, [r4, #5]	@ zero_extendqisi2
 223 0054 A279     		ldrb	r2, [r4, #6]	@ zero_extendqisi2
 224 0056 0292     		str	r2, [sp, #8]
 225 0058 0196     		str	r6, [sp, #4]
 226 005a 94F81D23 		ldrb	r2, [r4, #797]	@ zero_extendqisi2
 227 005e 0092     		str	r2, [sp]
 228 0060 3246     		mov	r2, r6
 229 0062 2046     		mov	r0, r4
 230 0064 FFF7FEFF 		bl	USBH_OpenPipe
 231              	.LVL18:
 666:Middlewares/ST/STM32_USB_Host_Library/Core/Src/usbh_core.c **** 
 232              		.loc 1 666 0
 233 0068 2C46     		mov	r4, r5
 234              	.LVL19:
 235 006a DBE7     		b	.L11
 236              	.LVL20:
 237              	.L14:
 701:Middlewares/ST/STM32_USB_Host_Library/Core/Src/usbh_core.c ****     {
 238              		.loc 1 701 0
 239 006c 1221     		movs	r1, #18
 240 006e FFF7FEFF 		bl	USBH_Get_DevDesc
 241              	.LVL21:
 242 0072 08B1     		cbz	r0, .L35
 666:Middlewares/ST/STM32_USB_Host_Library/Core/Src/usbh_core.c **** 
 243              		.loc 1 666 0
 244 0074 0124     		movs	r4, #1
 245              	.LVL22:
 246 0076 D5E7     		b	.L11
 247              	.LVL23:
 248              	.L35:
 703:Middlewares/ST/STM32_USB_Host_Library/Core/Src/usbh_core.c ****       USBH_UsrLog("VID: %xh", phost->device.DevDesc.idVendor );
 249              		.loc 1 703 0
 250 0078 B4F82C13 		ldrh	r1, [r4, #812]
 251 007c 6A48     		ldr	r0, .L40
 252 007e FFF7FEFF 		bl	printf
ARM GAS  C:\Users\Patryk\AppData\Local\Temp\cccHu4h9.s 			page 21


 253              	.LVL24:
 254 0082 0A20     		movs	r0, #10
 255 0084 FFF7FEFF 		bl	putchar
 256              	.LVL25:
 704:Middlewares/ST/STM32_USB_Host_Library/Core/Src/usbh_core.c **** 
 257              		.loc 1 704 0
 258 0088 B4F82A13 		ldrh	r1, [r4, #810]
 259 008c 6748     		ldr	r0, .L40+4
 260 008e FFF7FEFF 		bl	printf
 261              	.LVL26:
 262 0092 0A20     		movs	r0, #10
 263 0094 FFF7FEFF 		bl	putchar
 264              	.LVL27:
 706:Middlewares/ST/STM32_USB_Host_Library/Core/Src/usbh_core.c **** 
 265              		.loc 1 706 0
 266 0098 0223     		movs	r3, #2
 267 009a 6370     		strb	r3, [r4, #1]
 666:Middlewares/ST/STM32_USB_Host_Library/Core/Src/usbh_core.c **** 
 268              		.loc 1 666 0
 269 009c 0124     		movs	r4, #1
 270              	.LVL28:
 271 009e C1E7     		b	.L11
 272              	.LVL29:
 273              	.L15:
 713:Middlewares/ST/STM32_USB_Host_Library/Core/Src/usbh_core.c ****     {
 274              		.loc 1 713 0
 275 00a0 0121     		movs	r1, #1
 276 00a2 FFF7FEFF 		bl	USBH_SetAddress
 277              	.LVL30:
 278 00a6 08B1     		cbz	r0, .L36
 666:Middlewares/ST/STM32_USB_Host_Library/Core/Src/usbh_core.c **** 
 279              		.loc 1 666 0
 280 00a8 0124     		movs	r4, #1
 281              	.LVL31:
 282 00aa BBE7     		b	.L11
 283              	.LVL32:
 284              	.L36:
 715:Middlewares/ST/STM32_USB_Host_Library/Core/Src/usbh_core.c ****       phost->device.address = USBH_DEVICE_ADDRESS;
 285              		.loc 1 715 0
 286 00ac 0220     		movs	r0, #2
 287 00ae FFF7FEFF 		bl	USBH_Delay
 288              	.LVL33:
 716:Middlewares/ST/STM32_USB_Host_Library/Core/Src/usbh_core.c **** 
 289              		.loc 1 716 0
 290 00b2 0125     		movs	r5, #1
 291 00b4 84F81C53 		strb	r5, [r4, #796]
 719:Middlewares/ST/STM32_USB_Host_Library/Core/Src/usbh_core.c ****       phost->EnumState = ENUM_GET_CFG_DESC;
 292              		.loc 1 719 0
 293 00b8 2946     		mov	r1, r5
 294 00ba 5D48     		ldr	r0, .L40+8
 295 00bc FFF7FEFF 		bl	printf
 296              	.LVL34:
 297 00c0 0A20     		movs	r0, #10
 298 00c2 FFF7FEFF 		bl	putchar
 299              	.LVL35:
 720:Middlewares/ST/STM32_USB_Host_Library/Core/Src/usbh_core.c **** 
 300              		.loc 1 720 0
ARM GAS  C:\Users\Patryk\AppData\Local\Temp\cccHu4h9.s 			page 22


 301 00c6 0323     		movs	r3, #3
 302 00c8 6370     		strb	r3, [r4, #1]
 723:Middlewares/ST/STM32_USB_Host_Library/Core/Src/usbh_core.c ****                            phost->Control.pipe_in,
 303              		.loc 1 723 0
 304 00ca 94F81C33 		ldrb	r3, [r4, #796]	@ zero_extendqisi2
 305 00ce 2179     		ldrb	r1, [r4, #4]	@ zero_extendqisi2
 306 00d0 A279     		ldrb	r2, [r4, #6]	@ zero_extendqisi2
 307 00d2 0292     		str	r2, [sp, #8]
 308 00d4 0026     		movs	r6, #0
 309 00d6 0196     		str	r6, [sp, #4]
 310 00d8 94F81D23 		ldrb	r2, [r4, #797]	@ zero_extendqisi2
 311 00dc 0092     		str	r2, [sp]
 312 00de 8022     		movs	r2, #128
 313 00e0 2046     		mov	r0, r4
 314 00e2 FFF7FEFF 		bl	USBH_OpenPipe
 315              	.LVL36:
 732:Middlewares/ST/STM32_USB_Host_Library/Core/Src/usbh_core.c ****                            phost->Control.pipe_out,
 316              		.loc 1 732 0
 317 00e6 94F81C33 		ldrb	r3, [r4, #796]	@ zero_extendqisi2
 318 00ea 6179     		ldrb	r1, [r4, #5]	@ zero_extendqisi2
 319 00ec A279     		ldrb	r2, [r4, #6]	@ zero_extendqisi2
 320 00ee 0292     		str	r2, [sp, #8]
 321 00f0 0196     		str	r6, [sp, #4]
 322 00f2 94F81D23 		ldrb	r2, [r4, #797]	@ zero_extendqisi2
 323 00f6 0092     		str	r2, [sp]
 324 00f8 3246     		mov	r2, r6
 325 00fa 2046     		mov	r0, r4
 326 00fc FFF7FEFF 		bl	USBH_OpenPipe
 327              	.LVL37:
 666:Middlewares/ST/STM32_USB_Host_Library/Core/Src/usbh_core.c **** 
 328              		.loc 1 666 0
 329 0100 2C46     		mov	r4, r5
 330              	.LVL38:
 331 0102 8FE7     		b	.L11
 332              	.LVL39:
 333              	.L16:
 744:Middlewares/ST/STM32_USB_Host_Library/Core/Src/usbh_core.c ****                           USB_CONFIGURATION_DESC_SIZE) == USBH_OK)
 334              		.loc 1 744 0
 335 0104 0921     		movs	r1, #9
 336 0106 FFF7FEFF 		bl	USBH_Get_CfgDesc
 337              	.LVL40:
 338 010a 0028     		cmp	r0, #0
 339 010c 40F08780 		bne	.L28
 747:Middlewares/ST/STM32_USB_Host_Library/Core/Src/usbh_core.c ****     }
 340              		.loc 1 747 0
 341 0110 0423     		movs	r3, #4
 342 0112 6370     		strb	r3, [r4, #1]
 666:Middlewares/ST/STM32_USB_Host_Library/Core/Src/usbh_core.c **** 
 343              		.loc 1 666 0
 344 0114 0124     		movs	r4, #1
 345              	.LVL41:
 346 0116 85E7     		b	.L11
 347              	.LVL42:
 348              	.L17:
 753:Middlewares/ST/STM32_USB_Host_Library/Core/Src/usbh_core.c ****                          phost->device.CfgDesc.wTotalLength) == USBH_OK)
 349              		.loc 1 753 0
 350 0118 B0F83613 		ldrh	r1, [r0, #822]
ARM GAS  C:\Users\Patryk\AppData\Local\Temp\cccHu4h9.s 			page 23


 351 011c FFF7FEFF 		bl	USBH_Get_CfgDesc
 352              	.LVL43:
 353 0120 0028     		cmp	r0, #0
 354 0122 7ED1     		bne	.L29
 756:Middlewares/ST/STM32_USB_Host_Library/Core/Src/usbh_core.c ****     }
 355              		.loc 1 756 0
 356 0124 0523     		movs	r3, #5
 357 0126 6370     		strb	r3, [r4, #1]
 666:Middlewares/ST/STM32_USB_Host_Library/Core/Src/usbh_core.c **** 
 358              		.loc 1 666 0
 359 0128 0124     		movs	r4, #1
 360              	.LVL44:
 361 012a 7BE7     		b	.L11
 362              	.LVL45:
 363              	.L18:
 761:Middlewares/ST/STM32_USB_Host_Library/Core/Src/usbh_core.c ****     { /* Check that Manufacturer String is available */
 364              		.loc 1 761 0
 365 012c 90F83013 		ldrb	r1, [r0, #816]	@ zero_extendqisi2
 366 0130 C9B1     		cbz	r1, .L21
 766:Middlewares/ST/STM32_USB_Host_Library/Core/Src/usbh_core.c ****                                0xFFU) == USBH_OK)
 367              		.loc 1 766 0
 368 0132 00F58E75 		add	r5, r0, #284
 764:Middlewares/ST/STM32_USB_Host_Library/Core/Src/usbh_core.c ****                                phost->device.DevDesc.iManufacturer,
 369              		.loc 1 764 0
 370 0136 FF23     		movs	r3, #255
 371 0138 2A46     		mov	r2, r5
 372 013a FFF7FEFF 		bl	USBH_Get_StringDesc
 373              	.LVL46:
 374 013e 08B1     		cbz	r0, .L37
 666:Middlewares/ST/STM32_USB_Host_Library/Core/Src/usbh_core.c **** 
 375              		.loc 1 666 0
 376 0140 0124     		movs	r4, #1
 377              	.LVL47:
 378 0142 6FE7     		b	.L11
 379              	.LVL48:
 380              	.L37:
 770:Middlewares/ST/STM32_USB_Host_Library/Core/Src/usbh_core.c ****         phost->EnumState = ENUM_GET_PRODUCT_STRING_DESC;
 381              		.loc 1 770 0
 382 0144 2946     		mov	r1, r5
 383 0146 3B48     		ldr	r0, .L40+12
 384 0148 FFF7FEFF 		bl	printf
 385              	.LVL49:
 386 014c 0A20     		movs	r0, #10
 387 014e FFF7FEFF 		bl	putchar
 388              	.LVL50:
 771:Middlewares/ST/STM32_USB_Host_Library/Core/Src/usbh_core.c **** 
 389              		.loc 1 771 0
 390 0152 0623     		movs	r3, #6
 391 0154 6370     		strb	r3, [r4, #1]
 774:Middlewares/ST/STM32_USB_Host_Library/Core/Src/usbh_core.c **** #endif
 392              		.loc 1 774 0
 393 0156 0022     		movs	r2, #0
 394 0158 0521     		movs	r1, #5
 395 015a D4F8CC03 		ldr	r0, [r4, #972]
 396 015e FFF7FEFF 		bl	osMessagePut
 397              	.LVL51:
 666:Middlewares/ST/STM32_USB_Host_Library/Core/Src/usbh_core.c **** 
ARM GAS  C:\Users\Patryk\AppData\Local\Temp\cccHu4h9.s 			page 24


 398              		.loc 1 666 0
 399 0162 0124     		movs	r4, #1
 400              	.LVL52:
 401 0164 5EE7     		b	.L11
 402              	.LVL53:
 403              	.L21:
 780:Middlewares/ST/STM32_USB_Host_Library/Core/Src/usbh_core.c ****      phost->EnumState = ENUM_GET_PRODUCT_STRING_DESC;
 404              		.loc 1 780 0
 405 0166 3448     		ldr	r0, .L40+16
 406              	.LVL54:
 407 0168 FFF7FEFF 		bl	printf
 408              	.LVL55:
 409 016c 0A20     		movs	r0, #10
 410 016e FFF7FEFF 		bl	putchar
 411              	.LVL56:
 781:Middlewares/ST/STM32_USB_Host_Library/Core/Src/usbh_core.c **** #if (USBH_USE_OS == 1U)
 412              		.loc 1 781 0
 413 0172 0623     		movs	r3, #6
 414 0174 6370     		strb	r3, [r4, #1]
 783:Middlewares/ST/STM32_USB_Host_Library/Core/Src/usbh_core.c **** #endif
 415              		.loc 1 783 0
 416 0176 0022     		movs	r2, #0
 417 0178 0521     		movs	r1, #5
 418 017a D4F8CC03 		ldr	r0, [r4, #972]
 419 017e FFF7FEFF 		bl	osMessagePut
 420              	.LVL57:
 666:Middlewares/ST/STM32_USB_Host_Library/Core/Src/usbh_core.c **** 
 421              		.loc 1 666 0
 422 0182 0124     		movs	r4, #1
 423              	.LVL58:
 424 0184 4EE7     		b	.L11
 425              	.LVL59:
 426              	.L19:
 789:Middlewares/ST/STM32_USB_Host_Library/Core/Src/usbh_core.c ****     { /* Check that Product string is available */
 427              		.loc 1 789 0
 428 0186 90F83113 		ldrb	r1, [r0, #817]	@ zero_extendqisi2
 429 018a 99B1     		cbz	r1, .L22
 793:Middlewares/ST/STM32_USB_Host_Library/Core/Src/usbh_core.c ****                                0xFFU) == USBH_OK)
 430              		.loc 1 793 0
 431 018c 00F58E75 		add	r5, r0, #284
 791:Middlewares/ST/STM32_USB_Host_Library/Core/Src/usbh_core.c ****                                phost->device.DevDesc.iProduct,
 432              		.loc 1 791 0
 433 0190 FF23     		movs	r3, #255
 434 0192 2A46     		mov	r2, r5
 435 0194 FFF7FEFF 		bl	USBH_Get_StringDesc
 436              	.LVL60:
 437 0198 08B1     		cbz	r0, .L38
 666:Middlewares/ST/STM32_USB_Host_Library/Core/Src/usbh_core.c **** 
 438              		.loc 1 666 0
 439 019a 0124     		movs	r4, #1
 440              	.LVL61:
 441 019c 42E7     		b	.L11
 442              	.LVL62:
 443              	.L38:
 797:Middlewares/ST/STM32_USB_Host_Library/Core/Src/usbh_core.c ****         phost->EnumState = ENUM_GET_SERIALNUM_STRING_DESC;
 444              		.loc 1 797 0
 445 019e 2946     		mov	r1, r5
ARM GAS  C:\Users\Patryk\AppData\Local\Temp\cccHu4h9.s 			page 25


 446 01a0 2648     		ldr	r0, .L40+20
 447 01a2 FFF7FEFF 		bl	printf
 448              	.LVL63:
 449 01a6 0A20     		movs	r0, #10
 450 01a8 FFF7FEFF 		bl	putchar
 451              	.LVL64:
 798:Middlewares/ST/STM32_USB_Host_Library/Core/Src/usbh_core.c ****       }
 452              		.loc 1 798 0
 453 01ac 0723     		movs	r3, #7
 454 01ae 6370     		strb	r3, [r4, #1]
 666:Middlewares/ST/STM32_USB_Host_Library/Core/Src/usbh_core.c **** 
 455              		.loc 1 666 0
 456 01b0 0124     		movs	r4, #1
 457              	.LVL65:
 458 01b2 37E7     		b	.L11
 459              	.LVL66:
 460              	.L22:
 803:Middlewares/ST/STM32_USB_Host_Library/Core/Src/usbh_core.c ****       phost->EnumState = ENUM_GET_SERIALNUM_STRING_DESC;
 461              		.loc 1 803 0
 462 01b4 2248     		ldr	r0, .L40+24
 463              	.LVL67:
 464 01b6 FFF7FEFF 		bl	printf
 465              	.LVL68:
 466 01ba 0A20     		movs	r0, #10
 467 01bc FFF7FEFF 		bl	putchar
 468              	.LVL69:
 804:Middlewares/ST/STM32_USB_Host_Library/Core/Src/usbh_core.c **** #if (USBH_USE_OS == 1U)
 469              		.loc 1 804 0
 470 01c0 0723     		movs	r3, #7
 471 01c2 6370     		strb	r3, [r4, #1]
 806:Middlewares/ST/STM32_USB_Host_Library/Core/Src/usbh_core.c **** #endif
 472              		.loc 1 806 0
 473 01c4 0022     		movs	r2, #0
 474 01c6 0521     		movs	r1, #5
 475 01c8 D4F8CC03 		ldr	r0, [r4, #972]
 476 01cc FFF7FEFF 		bl	osMessagePut
 477              	.LVL70:
 666:Middlewares/ST/STM32_USB_Host_Library/Core/Src/usbh_core.c **** 
 478              		.loc 1 666 0
 479 01d0 0124     		movs	r4, #1
 480              	.LVL71:
 481 01d2 27E7     		b	.L11
 482              	.LVL72:
 483              	.L20:
 812:Middlewares/ST/STM32_USB_Host_Library/Core/Src/usbh_core.c ****     { /* Check that Serial number string is available */
 484              		.loc 1 812 0
 485 01d4 90F83213 		ldrb	r1, [r0, #818]	@ zero_extendqisi2
 486 01d8 89B1     		cbz	r1, .L23
 816:Middlewares/ST/STM32_USB_Host_Library/Core/Src/usbh_core.c ****                                0xFFU) == USBH_OK)
 487              		.loc 1 816 0
 488 01da 00F58E75 		add	r5, r0, #284
 814:Middlewares/ST/STM32_USB_Host_Library/Core/Src/usbh_core.c ****                                phost->device.DevDesc.iSerialNumber,
 489              		.loc 1 814 0
 490 01de FF23     		movs	r3, #255
 491 01e0 2A46     		mov	r2, r5
 492 01e2 FFF7FEFF 		bl	USBH_Get_StringDesc
 493              	.LVL73:
ARM GAS  C:\Users\Patryk\AppData\Local\Temp\cccHu4h9.s 			page 26


 494 01e6 0446     		mov	r4, r0
 495              	.LVL74:
 496 01e8 08B1     		cbz	r0, .L39
 666:Middlewares/ST/STM32_USB_Host_Library/Core/Src/usbh_core.c **** 
 497              		.loc 1 666 0
 498 01ea 0124     		movs	r4, #1
 499 01ec 1AE7     		b	.L11
 500              	.L39:
 820:Middlewares/ST/STM32_USB_Host_Library/Core/Src/usbh_core.c ****         Status = USBH_OK;
 501              		.loc 1 820 0
 502 01ee 2946     		mov	r1, r5
 503 01f0 1448     		ldr	r0, .L40+28
 504 01f2 FFF7FEFF 		bl	printf
 505              	.LVL75:
 506 01f6 0A20     		movs	r0, #10
 507 01f8 FFF7FEFF 		bl	putchar
 508              	.LVL76:
 509 01fc 12E7     		b	.L11
 510              	.LVL77:
 511              	.L23:
 826:Middlewares/ST/STM32_USB_Host_Library/Core/Src/usbh_core.c ****       Status = USBH_OK;
 512              		.loc 1 826 0
 513 01fe 1248     		ldr	r0, .L40+32
 514              	.LVL78:
 515 0200 FFF7FEFF 		bl	printf
 516              	.LVL79:
 517 0204 0A20     		movs	r0, #10
 518 0206 FFF7FEFF 		bl	putchar
 519              	.LVL80:
 829:Middlewares/ST/STM32_USB_Host_Library/Core/Src/usbh_core.c **** #endif
 520              		.loc 1 829 0
 521 020a 0022     		movs	r2, #0
 522 020c 0521     		movs	r1, #5
 523 020e D4F8CC03 		ldr	r0, [r4, #972]
 524 0212 FFF7FEFF 		bl	osMessagePut
 525              	.LVL81:
 827:Middlewares/ST/STM32_USB_Host_Library/Core/Src/usbh_core.c **** #if (USBH_USE_OS == 1U)
 526              		.loc 1 827 0
 527 0216 0024     		movs	r4, #0
 528              	.LVL82:
 529 0218 04E7     		b	.L11
 530              	.LVL83:
 531              	.L24:
 666:Middlewares/ST/STM32_USB_Host_Library/Core/Src/usbh_core.c **** 
 532              		.loc 1 666 0
 533 021a 0124     		movs	r4, #1
 534 021c 02E7     		b	.L11
 535              	.LVL84:
 536              	.L28:
 537 021e 0124     		movs	r4, #1
 538              	.LVL85:
 539 0220 00E7     		b	.L11
 540              	.LVL86:
 541              	.L29:
 542 0222 0124     		movs	r4, #1
 543              	.LVL87:
 544 0224 FEE6     		b	.L11
ARM GAS  C:\Users\Patryk\AppData\Local\Temp\cccHu4h9.s 			page 27


 545              	.L41:
 546 0226 00BF     		.align	2
 547              	.L40:
 548 0228 00000000 		.word	.LC3
 549 022c 0C000000 		.word	.LC4
 550 0230 18000000 		.word	.LC5
 551 0234 30000000 		.word	.LC6
 552 0238 44000000 		.word	.LC7
 553 023c 58000000 		.word	.LC8
 554 0240 68000000 		.word	.LC9
 555 0244 78000000 		.word	.LC10
 556 0248 8C000000 		.word	.LC11
 557              		.cfi_endproc
 558              	.LFE155:
 560              		.section	.text.USBH_Init,"ax",%progbits
 561              		.align	1
 562              		.global	USBH_Init
 563              		.syntax unified
 564              		.thumb
 565              		.thumb_func
 566              		.fpu fpv5-sp-d16
 568              	USBH_Init:
 569              	.LFB143:
 111:Middlewares/ST/STM32_USB_Host_Library/Core/Src/usbh_core.c ****   /* Check whether the USB Host handle is valid */
 570              		.loc 1 111 0
 571              		.cfi_startproc
 572              		@ args = 0, pretend = 0, frame = 32
 573              		@ frame_needed = 0, uses_anonymous_args = 0
 574              	.LVL88:
 575 0000 70B5     		push	{r4, r5, r6, lr}
 576              	.LCFI5:
 577              		.cfi_def_cfa_offset 16
 578              		.cfi_offset 4, -16
 579              		.cfi_offset 5, -12
 580              		.cfi_offset 6, -8
 581              		.cfi_offset 14, -4
 582 0002 88B0     		sub	sp, sp, #32
 583              	.LCFI6:
 584              		.cfi_def_cfa_offset 48
 113:Middlewares/ST/STM32_USB_Host_Library/Core/Src/usbh_core.c ****   {
 585              		.loc 1 113 0
 586 0004 58B3     		cbz	r0, .L47
 587 0006 0C46     		mov	r4, r1
 588 0008 0546     		mov	r5, r0
 120:Middlewares/ST/STM32_USB_Host_Library/Core/Src/usbh_core.c **** 
 589              		.loc 1 120 0
 590 000a 80F8C023 		strb	r2, [r0, #960]
 123:Middlewares/ST/STM32_USB_Host_Library/Core/Src/usbh_core.c ****   phost->ClassNumber = 0U;
 591              		.loc 1 123 0
 592 000e 0023     		movs	r3, #0
 593 0010 C0F87833 		str	r3, [r0, #888]
 124:Middlewares/ST/STM32_USB_Host_Library/Core/Src/usbh_core.c **** 
 594              		.loc 1 124 0
 595 0014 C0F87C33 		str	r3, [r0, #892]
 127:Middlewares/ST/STM32_USB_Host_Library/Core/Src/usbh_core.c **** 
 596              		.loc 1 127 0
 597 0018 FFF7FEFF 		bl	DeInitStateMachine
ARM GAS  C:\Users\Patryk\AppData\Local\Temp\cccHu4h9.s 			page 28


 598              	.LVL89:
 130:Middlewares/ST/STM32_USB_Host_Library/Core/Src/usbh_core.c ****   {
 599              		.loc 1 130 0
 600 001c 0CB1     		cbz	r4, .L45
 132:Middlewares/ST/STM32_USB_Host_Library/Core/Src/usbh_core.c ****   }
 601              		.loc 1 132 0
 602 001e C5F8C843 		str	r4, [r5, #968]
 603              	.L45:
 138:Middlewares/ST/STM32_USB_Host_Library/Core/Src/usbh_core.c ****   phost->os_event = osMessageCreate (osMessageQ(USBH_Queue), NULL);
 604              		.loc 1 138 0
 605 0022 144C     		ldr	r4, .L48
 606              	.LVL90:
 607 0024 06AB     		add	r3, sp, #24
 608 0026 94E80300 		ldm	r4, {r0, r1}
 609 002a 83E80300 		stm	r3, {r0, r1}
 139:Middlewares/ST/STM32_USB_Host_Library/Core/Src/usbh_core.c **** 
 610              		.loc 1 139 0
 611 002e 0021     		movs	r1, #0
 612 0030 1846     		mov	r0, r3
 613 0032 FFF7FEFF 		bl	osMessageCreate
 614              	.LVL91:
 615 0036 C5F8CC03 		str	r0, [r5, #972]
 143:Middlewares/ST/STM32_USB_Host_Library/Core/Src/usbh_core.c **** #else
 616              		.loc 1 143 0
 617 003a 01AE     		add	r6, sp, #4
 618 003c 0834     		adds	r4, r4, #8
 619 003e 0FCC     		ldmia	r4!, {r0, r1, r2, r3}
 620 0040 0FC6     		stmia	r6!, {r0, r1, r2, r3}
 621 0042 2368     		ldr	r3, [r4]
 622 0044 3360     		str	r3, [r6]
 147:Middlewares/ST/STM32_USB_Host_Library/Core/Src/usbh_core.c **** #endif
 623              		.loc 1 147 0
 624 0046 2946     		mov	r1, r5
 625 0048 01A8     		add	r0, sp, #4
 626 004a FFF7FEFF 		bl	osThreadCreate
 627              	.LVL92:
 628 004e C5F8D003 		str	r0, [r5, #976]
 151:Middlewares/ST/STM32_USB_Host_Library/Core/Src/usbh_core.c ****   return USBH_OK;
 629              		.loc 1 151 0
 630 0052 2846     		mov	r0, r5
 631 0054 FFF7FEFF 		bl	USBH_LL_Init
 632              	.LVL93:
 152:Middlewares/ST/STM32_USB_Host_Library/Core/Src/usbh_core.c **** }
 633              		.loc 1 152 0
 634 0058 0020     		movs	r0, #0
 635              	.LVL94:
 636              	.L44:
 153:Middlewares/ST/STM32_USB_Host_Library/Core/Src/usbh_core.c **** 
 637              		.loc 1 153 0
 638 005a 08B0     		add	sp, sp, #32
 639              	.LCFI7:
 640              		.cfi_remember_state
 641              		.cfi_def_cfa_offset 16
 642              		@ sp needed
 643 005c 70BD     		pop	{r4, r5, r6, pc}
 644              	.LVL95:
 645              	.L47:
ARM GAS  C:\Users\Patryk\AppData\Local\Temp\cccHu4h9.s 			page 29


 646              	.LCFI8:
 647              		.cfi_restore_state
 115:Middlewares/ST/STM32_USB_Host_Library/Core/Src/usbh_core.c ****     return USBH_FAIL;
 648              		.loc 1 115 0
 649 005e 0648     		ldr	r0, .L48+4
 650              	.LVL96:
 651 0060 FFF7FEFF 		bl	printf
 652              	.LVL97:
 653 0064 0548     		ldr	r0, .L48+8
 654 0066 FFF7FEFF 		bl	printf
 655              	.LVL98:
 656 006a 0A20     		movs	r0, #10
 657 006c FFF7FEFF 		bl	putchar
 658              	.LVL99:
 116:Middlewares/ST/STM32_USB_Host_Library/Core/Src/usbh_core.c ****   }
 659              		.loc 1 116 0
 660 0070 0220     		movs	r0, #2
 661 0072 F2E7     		b	.L44
 662              	.L49:
 663              		.align	2
 664              	.L48:
 665 0074 00000000 		.word	.LANCHOR0
 666 0078 00000000 		.word	.LC12
 667 007c 08000000 		.word	.LC13
 668              		.cfi_endproc
 669              	.LFE143:
 671              		.section	.text.USBH_DeInit,"ax",%progbits
 672              		.align	1
 673              		.global	USBH_DeInit
 674              		.syntax unified
 675              		.thumb
 676              		.thumb_func
 677              		.fpu fpv5-sp-d16
 679              	USBH_DeInit:
 680              	.LFB144:
 162:Middlewares/ST/STM32_USB_Host_Library/Core/Src/usbh_core.c ****   DeInitStateMachine(phost);
 681              		.loc 1 162 0
 682              		.cfi_startproc
 683              		@ args = 0, pretend = 0, frame = 0
 684              		@ frame_needed = 0, uses_anonymous_args = 0
 685              	.LVL100:
 686 0000 10B5     		push	{r4, lr}
 687              	.LCFI9:
 688              		.cfi_def_cfa_offset 8
 689              		.cfi_offset 4, -8
 690              		.cfi_offset 14, -4
 691 0002 0446     		mov	r4, r0
 163:Middlewares/ST/STM32_USB_Host_Library/Core/Src/usbh_core.c **** 
 692              		.loc 1 163 0
 693 0004 FFF7FEFF 		bl	DeInitStateMachine
 694              	.LVL101:
 165:Middlewares/ST/STM32_USB_Host_Library/Core/Src/usbh_core.c ****   {
 695              		.loc 1 165 0
 696 0008 D4F8C433 		ldr	r3, [r4, #964]
 697 000c 5BB1     		cbz	r3, .L51
 167:Middlewares/ST/STM32_USB_Host_Library/Core/Src/usbh_core.c ****     phost->pActiveClass->pData = NULL;
 698              		.loc 1 167 0
ARM GAS  C:\Users\Patryk\AppData\Local\Temp\cccHu4h9.s 			page 30


 699 000e D4F87833 		ldr	r3, [r4, #888]
 700 0012 D869     		ldr	r0, [r3, #28]
 701 0014 FFF7FEFF 		bl	free
 702              	.LVL102:
 168:Middlewares/ST/STM32_USB_Host_Library/Core/Src/usbh_core.c ****     USBH_LL_Stop(phost);
 703              		.loc 1 168 0
 704 0018 D4F87833 		ldr	r3, [r4, #888]
 705 001c 0022     		movs	r2, #0
 706 001e DA61     		str	r2, [r3, #28]
 169:Middlewares/ST/STM32_USB_Host_Library/Core/Src/usbh_core.c ****   }
 707              		.loc 1 169 0
 708 0020 2046     		mov	r0, r4
 709 0022 FFF7FEFF 		bl	USBH_LL_Stop
 710              	.LVL103:
 711              	.L51:
 173:Middlewares/ST/STM32_USB_Host_Library/Core/Src/usbh_core.c **** 
 712              		.loc 1 173 0
 713 0026 0020     		movs	r0, #0
 714 0028 10BD     		pop	{r4, pc}
 715              		.cfi_endproc
 716              	.LFE144:
 718              		.section	.text.USBH_RegisterClass,"ax",%progbits
 719              		.align	1
 720              		.global	USBH_RegisterClass
 721              		.syntax unified
 722              		.thumb
 723              		.thumb_func
 724              		.fpu fpv5-sp-d16
 726              	USBH_RegisterClass:
 727              	.LFB146:
 219:Middlewares/ST/STM32_USB_Host_Library/Core/Src/usbh_core.c ****   USBH_StatusTypeDef   status = USBH_OK;
 728              		.loc 1 219 0
 729              		.cfi_startproc
 730              		@ args = 0, pretend = 0, frame = 0
 731              		@ frame_needed = 0, uses_anonymous_args = 0
 732              	.LVL104:
 733 0000 08B5     		push	{r3, lr}
 734              	.LCFI10:
 735              		.cfi_def_cfa_offset 8
 736              		.cfi_offset 3, -8
 737              		.cfi_offset 14, -4
 738              	.LVL105:
 222:Middlewares/ST/STM32_USB_Host_Library/Core/Src/usbh_core.c ****   {
 739              		.loc 1 222 0
 740 0002 B9B1     		cbz	r1, .L54
 741 0004 0A46     		mov	r2, r1
 224:Middlewares/ST/STM32_USB_Host_Library/Core/Src/usbh_core.c ****     {
 742              		.loc 1 224 0
 743 0006 D0F87C33 		ldr	r3, [r0, #892]
 744 000a 43B9     		cbnz	r3, .L55
 227:Middlewares/ST/STM32_USB_Host_Library/Core/Src/usbh_core.c ****       status = USBH_OK;
 745              		.loc 1 227 0
 746 000c 591C     		adds	r1, r3, #1
 747              	.LVL106:
 748 000e C0F87C13 		str	r1, [r0, #892]
 749 0012 DC33     		adds	r3, r3, #220
 750 0014 00EB8300 		add	r0, r0, r3, lsl #2
ARM GAS  C:\Users\Patryk\AppData\Local\Temp\cccHu4h9.s 			page 31


 751              	.LVL107:
 752 0018 4260     		str	r2, [r0, #4]
 228:Middlewares/ST/STM32_USB_Host_Library/Core/Src/usbh_core.c ****     }
 753              		.loc 1 228 0
 754 001a 0020     		movs	r0, #0
 755              	.LVL108:
 756              	.L56:
 243:Middlewares/ST/STM32_USB_Host_Library/Core/Src/usbh_core.c **** 
 757              		.loc 1 243 0
 758 001c 08BD     		pop	{r3, pc}
 759              	.LVL109:
 760              	.L55:
 232:Middlewares/ST/STM32_USB_Host_Library/Core/Src/usbh_core.c ****       status = USBH_FAIL;
 761              		.loc 1 232 0
 762 001e 0B48     		ldr	r0, .L58
 763              	.LVL110:
 764 0020 FFF7FEFF 		bl	printf
 765              	.LVL111:
 766 0024 0A48     		ldr	r0, .L58+4
 767 0026 FFF7FEFF 		bl	printf
 768              	.LVL112:
 769 002a 0A20     		movs	r0, #10
 770 002c FFF7FEFF 		bl	putchar
 771              	.LVL113:
 233:Middlewares/ST/STM32_USB_Host_Library/Core/Src/usbh_core.c ****     }
 772              		.loc 1 233 0
 773 0030 0220     		movs	r0, #2
 774 0032 F3E7     		b	.L56
 775              	.LVL114:
 776              	.L54:
 238:Middlewares/ST/STM32_USB_Host_Library/Core/Src/usbh_core.c ****     status = USBH_FAIL;
 777              		.loc 1 238 0
 778 0034 0548     		ldr	r0, .L58
 779              	.LVL115:
 780 0036 FFF7FEFF 		bl	printf
 781              	.LVL116:
 782 003a 0648     		ldr	r0, .L58+8
 783 003c FFF7FEFF 		bl	printf
 784              	.LVL117:
 785 0040 0A20     		movs	r0, #10
 786 0042 FFF7FEFF 		bl	putchar
 787              	.LVL118:
 239:Middlewares/ST/STM32_USB_Host_Library/Core/Src/usbh_core.c ****   }
 788              		.loc 1 239 0
 789 0046 0220     		movs	r0, #2
 790 0048 E8E7     		b	.L56
 791              	.L59:
 792 004a 00BF     		.align	2
 793              	.L58:
 794 004c 00000000 		.word	.LC12
 795 0050 00000000 		.word	.LC15
 796 0054 1C000000 		.word	.LC16
 797              		.cfi_endproc
 798              	.LFE146:
 800              		.section	.text.USBH_SelectInterface,"ax",%progbits
 801              		.align	1
 802              		.global	USBH_SelectInterface
ARM GAS  C:\Users\Patryk\AppData\Local\Temp\cccHu4h9.s 			page 32


 803              		.syntax unified
 804              		.thumb
 805              		.thumb_func
 806              		.fpu fpv5-sp-d16
 808              	USBH_SelectInterface:
 809              	.LFB147:
 253:Middlewares/ST/STM32_USB_Host_Library/Core/Src/usbh_core.c ****   USBH_StatusTypeDef   status = USBH_OK;
 810              		.loc 1 253 0
 811              		.cfi_startproc
 812              		@ args = 0, pretend = 0, frame = 0
 813              		@ frame_needed = 0, uses_anonymous_args = 0
 814              	.LVL119:
 815 0000 38B5     		push	{r3, r4, r5, lr}
 816              	.LCFI11:
 817              		.cfi_def_cfa_offset 16
 818              		.cfi_offset 3, -16
 819              		.cfi_offset 4, -12
 820              		.cfi_offset 5, -8
 821              		.cfi_offset 14, -4
 822              	.LVL120:
 256:Middlewares/ST/STM32_USB_Host_Library/Core/Src/usbh_core.c ****   {
 823              		.loc 1 256 0
 824 0002 90F83833 		ldrb	r3, [r0, #824]	@ zero_extendqisi2
 825 0006 8B42     		cmp	r3, r1
 826 0008 26D9     		bls	.L61
 827 000a 0546     		mov	r5, r0
 828 000c 0C46     		mov	r4, r1
 258:Middlewares/ST/STM32_USB_Host_Library/Core/Src/usbh_core.c ****     USBH_UsrLog ("Switching to Interface (#%d)", interface);
 829              		.loc 1 258 0
 830 000e 85F82013 		strb	r1, [r5, #800]
 259:Middlewares/ST/STM32_USB_Host_Library/Core/Src/usbh_core.c ****     USBH_UsrLog ("Class    : %xh", phost->device.CfgDesc.Itf_Desc[interface].bInterfaceClass );
 831              		.loc 1 259 0
 832 0012 1748     		ldr	r0, .L64
 833              	.LVL121:
 834 0014 FFF7FEFF 		bl	printf
 835              	.LVL122:
 836 0018 0A20     		movs	r0, #10
 837 001a FFF7FEFF 		bl	putchar
 838              	.LVL123:
 260:Middlewares/ST/STM32_USB_Host_Library/Core/Src/usbh_core.c ****     USBH_UsrLog ("SubClass : %xh", phost->device.CfgDesc.Itf_Desc[interface].bInterfaceSubClass );
 839              		.loc 1 260 0
 840 001e 1A23     		movs	r3, #26
 841 0020 03FB0454 		mla	r4, r3, r4, r5
 842 0024 94F84313 		ldrb	r1, [r4, #835]	@ zero_extendqisi2
 843 0028 1248     		ldr	r0, .L64+4
 844 002a FFF7FEFF 		bl	printf
 845              	.LVL124:
 846 002e 0A20     		movs	r0, #10
 847 0030 FFF7FEFF 		bl	putchar
 848              	.LVL125:
 261:Middlewares/ST/STM32_USB_Host_Library/Core/Src/usbh_core.c ****     USBH_UsrLog ("Protocol : %xh", phost->device.CfgDesc.Itf_Desc[interface].bInterfaceProtocol );
 849              		.loc 1 261 0
 850 0034 94F84413 		ldrb	r1, [r4, #836]	@ zero_extendqisi2
 851 0038 0F48     		ldr	r0, .L64+8
 852 003a FFF7FEFF 		bl	printf
 853              	.LVL126:
 854 003e 0A20     		movs	r0, #10
ARM GAS  C:\Users\Patryk\AppData\Local\Temp\cccHu4h9.s 			page 33


 855 0040 FFF7FEFF 		bl	putchar
 856              	.LVL127:
 262:Middlewares/ST/STM32_USB_Host_Library/Core/Src/usbh_core.c ****   }
 857              		.loc 1 262 0
 858 0044 94F84513 		ldrb	r1, [r4, #837]	@ zero_extendqisi2
 859 0048 0C48     		ldr	r0, .L64+12
 860 004a FFF7FEFF 		bl	printf
 861              	.LVL128:
 862 004e 0A20     		movs	r0, #10
 863 0050 FFF7FEFF 		bl	putchar
 864              	.LVL129:
 254:Middlewares/ST/STM32_USB_Host_Library/Core/Src/usbh_core.c **** 
 865              		.loc 1 254 0
 866 0054 0020     		movs	r0, #0
 867              	.LVL130:
 868              	.L62:
 270:Middlewares/ST/STM32_USB_Host_Library/Core/Src/usbh_core.c **** 
 869              		.loc 1 270 0
 870 0056 38BD     		pop	{r3, r4, r5, pc}
 871              	.LVL131:
 872              	.L61:
 266:Middlewares/ST/STM32_USB_Host_Library/Core/Src/usbh_core.c ****     status = USBH_FAIL;
 873              		.loc 1 266 0
 874 0058 0948     		ldr	r0, .L64+16
 875              	.LVL132:
 876 005a FFF7FEFF 		bl	printf
 877              	.LVL133:
 878 005e 0948     		ldr	r0, .L64+20
 879 0060 FFF7FEFF 		bl	printf
 880              	.LVL134:
 881 0064 0A20     		movs	r0, #10
 882 0066 FFF7FEFF 		bl	putchar
 883              	.LVL135:
 267:Middlewares/ST/STM32_USB_Host_Library/Core/Src/usbh_core.c ****   }
 884              		.loc 1 267 0
 885 006a 0220     		movs	r0, #2
 886 006c F3E7     		b	.L62
 887              	.L65:
 888 006e 00BF     		.align	2
 889              	.L64:
 890 0070 00000000 		.word	.LC17
 891 0074 20000000 		.word	.LC18
 892 0078 30000000 		.word	.LC19
 893 007c 40000000 		.word	.LC20
 894 0080 00000000 		.word	.LC12
 895 0084 50000000 		.word	.LC21
 896              		.cfi_endproc
 897              	.LFE147:
 899              		.section	.text.USBH_GetActiveClass,"ax",%progbits
 900              		.align	1
 901              		.global	USBH_GetActiveClass
 902              		.syntax unified
 903              		.thumb
 904              		.thumb_func
 905              		.fpu fpv5-sp-d16
 907              	USBH_GetActiveClass:
 908              	.LFB148:
ARM GAS  C:\Users\Patryk\AppData\Local\Temp\cccHu4h9.s 			page 34


 280:Middlewares/ST/STM32_USB_Host_Library/Core/Src/usbh_core.c ****    return (phost->device.CfgDesc.Itf_Desc[0].bInterfaceClass);
 909              		.loc 1 280 0
 910              		.cfi_startproc
 911              		@ args = 0, pretend = 0, frame = 0
 912              		@ frame_needed = 0, uses_anonymous_args = 0
 913              		@ link register save eliminated.
 914              	.LVL136:
 282:Middlewares/ST/STM32_USB_Host_Library/Core/Src/usbh_core.c **** /**
 915              		.loc 1 282 0
 916 0000 90F84303 		ldrb	r0, [r0, #835]	@ zero_extendqisi2
 917              	.LVL137:
 918 0004 7047     		bx	lr
 919              		.cfi_endproc
 920              	.LFE148:
 922              		.section	.text.USBH_FindInterface,"ax",%progbits
 923              		.align	1
 924              		.global	USBH_FindInterface
 925              		.syntax unified
 926              		.thumb
 927              		.thumb_func
 928              		.fpu fpv5-sp-d16
 930              	USBH_FindInterface:
 931              	.LFB149:
 294:Middlewares/ST/STM32_USB_Host_Library/Core/Src/usbh_core.c ****   USBH_InterfaceDescTypeDef    *pif ;
 932              		.loc 1 294 0
 933              		.cfi_startproc
 934              		@ args = 0, pretend = 0, frame = 0
 935              		@ frame_needed = 0, uses_anonymous_args = 0
 936              		@ link register save eliminated.
 937              	.LVL138:
 938 0000 70B4     		push	{r4, r5, r6}
 939              	.LCFI12:
 940              		.cfi_def_cfa_offset 12
 941              		.cfi_offset 4, -12
 942              		.cfi_offset 5, -8
 943              		.cfi_offset 6, -4
 944 0002 0646     		mov	r6, r0
 945              	.LVL139:
 297:Middlewares/ST/STM32_USB_Host_Library/Core/Src/usbh_core.c **** 
 946              		.loc 1 297 0
 947 0004 0020     		movs	r0, #0
 948              	.LVL140:
 302:Middlewares/ST/STM32_USB_Host_Library/Core/Src/usbh_core.c ****   {
 949              		.loc 1 302 0
 950 0006 0AE0     		b	.L68
 951              	.LVL141:
 952              	.L71:
 307:Middlewares/ST/STM32_USB_Host_Library/Core/Src/usbh_core.c ****     {
 953              		.loc 1 307 0 discriminator 1
 954 0008 1A24     		movs	r4, #26
 955 000a 04FB0565 		mla	r5, r4, r5, r6
 956 000e 95F84543 		ldrb	r4, [r5, #837]	@ zero_extendqisi2
 306:Middlewares/ST/STM32_USB_Host_Library/Core/Src/usbh_core.c ****          ((pif->bInterfaceProtocol == Protocol) || (Protocol == 0xFFU)))
 957              		.loc 1 306 0 discriminator 1
 958 0012 9C42     		cmp	r4, r3
 959 0014 1AD0     		beq	.L72
 307:Middlewares/ST/STM32_USB_Host_Library/Core/Src/usbh_core.c ****     {
ARM GAS  C:\Users\Patryk\AppData\Local\Temp\cccHu4h9.s 			page 35


 960              		.loc 1 307 0
 961 0016 FF2B     		cmp	r3, #255
 962 0018 18D0     		beq	.L72
 963              	.L70:
 311:Middlewares/ST/STM32_USB_Host_Library/Core/Src/usbh_core.c ****   }
 964              		.loc 1 311 0
 965 001a 441C     		adds	r4, r0, #1
 966 001c E0B2     		uxtb	r0, r4
 967              	.LVL142:
 968              	.L68:
 302:Middlewares/ST/STM32_USB_Host_Library/Core/Src/usbh_core.c ****   {
 969              		.loc 1 302 0
 970 001e 0128     		cmp	r0, #1
 971 0020 13D8     		bhi	.L75
 304:Middlewares/ST/STM32_USB_Host_Library/Core/Src/usbh_core.c ****     if(((pif->bInterfaceClass == Class) || (Class == 0xFFU))&&
 972              		.loc 1 304 0
 973 0022 0546     		mov	r5, r0
 974              	.LVL143:
 305:Middlewares/ST/STM32_USB_Host_Library/Core/Src/usbh_core.c ****        ((pif->bInterfaceSubClass == SubClass) || (SubClass == 0xFFU))&&
 975              		.loc 1 305 0
 976 0024 1A24     		movs	r4, #26
 977 0026 04FB0064 		mla	r4, r4, r0, r6
 978 002a 94F84343 		ldrb	r4, [r4, #835]	@ zero_extendqisi2
 979 002e 8C42     		cmp	r4, r1
 980 0030 01D0     		beq	.L69
 305:Middlewares/ST/STM32_USB_Host_Library/Core/Src/usbh_core.c ****        ((pif->bInterfaceSubClass == SubClass) || (SubClass == 0xFFU))&&
 981              		.loc 1 305 0 is_stmt 0 discriminator 2
 982 0032 FF29     		cmp	r1, #255
 983 0034 F1D1     		bne	.L70
 984              	.L69:
 306:Middlewares/ST/STM32_USB_Host_Library/Core/Src/usbh_core.c ****          ((pif->bInterfaceProtocol == Protocol) || (Protocol == 0xFFU)))
 985              		.loc 1 306 0 is_stmt 1 discriminator 3
 986 0036 1A24     		movs	r4, #26
 987 0038 04FB0564 		mla	r4, r4, r5, r6
 988 003c 94F84443 		ldrb	r4, [r4, #836]	@ zero_extendqisi2
 305:Middlewares/ST/STM32_USB_Host_Library/Core/Src/usbh_core.c ****        ((pif->bInterfaceSubClass == SubClass) || (SubClass == 0xFFU))&&
 989              		.loc 1 305 0 discriminator 3
 990 0040 9442     		cmp	r4, r2
 991 0042 E1D0     		beq	.L71
 306:Middlewares/ST/STM32_USB_Host_Library/Core/Src/usbh_core.c ****          ((pif->bInterfaceProtocol == Protocol) || (Protocol == 0xFFU)))
 992              		.loc 1 306 0
 993 0044 FF2A     		cmp	r2, #255
 994 0046 E8D1     		bne	.L70
 995 0048 DEE7     		b	.L71
 996              	.LVL144:
 997              	.L75:
 313:Middlewares/ST/STM32_USB_Host_Library/Core/Src/usbh_core.c **** }
 998              		.loc 1 313 0
 999 004a FF20     		movs	r0, #255
 1000              	.LVL145:
 1001              	.L72:
 314:Middlewares/ST/STM32_USB_Host_Library/Core/Src/usbh_core.c **** 
 1002              		.loc 1 314 0
 1003 004c 70BC     		pop	{r4, r5, r6}
 1004              	.LCFI13:
 1005              		.cfi_restore 6
 1006              		.cfi_restore 5
ARM GAS  C:\Users\Patryk\AppData\Local\Temp\cccHu4h9.s 			page 36


 1007              		.cfi_restore 4
 1008              		.cfi_def_cfa_offset 0
 1009              	.LVL146:
 1010 004e 7047     		bx	lr
 1011              		.cfi_endproc
 1012              	.LFE149:
 1014              		.section	.text.USBH_FindInterfaceIndex,"ax",%progbits
 1015              		.align	1
 1016              		.global	USBH_FindInterfaceIndex
 1017              		.syntax unified
 1018              		.thumb
 1019              		.thumb_func
 1020              		.fpu fpv5-sp-d16
 1022              	USBH_FindInterfaceIndex:
 1023              	.LFB150:
 326:Middlewares/ST/STM32_USB_Host_Library/Core/Src/usbh_core.c ****   USBH_InterfaceDescTypeDef    *pif ;
 1024              		.loc 1 326 0
 1025              		.cfi_startproc
 1026              		@ args = 0, pretend = 0, frame = 0
 1027              		@ frame_needed = 0, uses_anonymous_args = 0
 1028              		@ link register save eliminated.
 1029              	.LVL147:
 329:Middlewares/ST/STM32_USB_Host_Library/Core/Src/usbh_core.c **** 
 1030              		.loc 1 329 0
 1031 0000 0023     		movs	r3, #0
 1032              	.LVL148:
 334:Middlewares/ST/STM32_USB_Host_Library/Core/Src/usbh_core.c ****   {
 1033              		.loc 1 334 0
 1034 0002 012B     		cmp	r3, #1
 1035 0004 18D8     		bhi	.L86
 326:Middlewares/ST/STM32_USB_Host_Library/Core/Src/usbh_core.c ****   USBH_InterfaceDescTypeDef    *pif ;
 1036              		.loc 1 326 0
 1037 0006 10B4     		push	{r4}
 1038              	.LCFI14:
 1039              		.cfi_def_cfa_offset 4
 1040              		.cfi_offset 4, -4
 1041              	.LVL149:
 1042              	.L80:
 337:Middlewares/ST/STM32_USB_Host_Library/Core/Src/usbh_core.c ****     {
 1043              		.loc 1 337 0
 1044 0008 1A24     		movs	r4, #26
 1045 000a 04FB0304 		mla	r4, r4, r3, r0
 1046 000e 94F84043 		ldrb	r4, [r4, #832]	@ zero_extendqisi2
 1047 0012 8C42     		cmp	r4, r1
 1048 0014 08D0     		beq	.L87
 1049              	.L78:
 341:Middlewares/ST/STM32_USB_Host_Library/Core/Src/usbh_core.c ****   }
 1050              		.loc 1 341 0
 1051 0016 0133     		adds	r3, r3, #1
 1052              	.LVL150:
 1053 0018 DBB2     		uxtb	r3, r3
 1054              	.LVL151:
 334:Middlewares/ST/STM32_USB_Host_Library/Core/Src/usbh_core.c ****   {
 1055              		.loc 1 334 0
 1056 001a 012B     		cmp	r3, #1
 1057 001c F4D9     		bls	.L80
 343:Middlewares/ST/STM32_USB_Host_Library/Core/Src/usbh_core.c **** }
ARM GAS  C:\Users\Patryk\AppData\Local\Temp\cccHu4h9.s 			page 37


 1058              		.loc 1 343 0
 1059 001e FF23     		movs	r3, #255
 1060              	.LVL152:
 1061              	.L79:
 344:Middlewares/ST/STM32_USB_Host_Library/Core/Src/usbh_core.c **** 
 1062              		.loc 1 344 0
 1063 0020 1846     		mov	r0, r3
 1064              	.LVL153:
 1065 0022 5DF8044B 		ldr	r4, [sp], #4
 1066              	.LCFI15:
 1067              		.cfi_remember_state
 1068              		.cfi_restore 4
 1069              		.cfi_def_cfa_offset 0
 1070 0026 7047     		bx	lr
 1071              	.LVL154:
 1072              	.L87:
 1073              	.LCFI16:
 1074              		.cfi_restore_state
 337:Middlewares/ST/STM32_USB_Host_Library/Core/Src/usbh_core.c ****     {
 1075              		.loc 1 337 0 discriminator 1
 1076 0028 1A24     		movs	r4, #26
 1077 002a 04FB0304 		mla	r4, r4, r3, r0
 1078 002e 94F84143 		ldrb	r4, [r4, #833]	@ zero_extendqisi2
 1079 0032 9442     		cmp	r4, r2
 1080 0034 EFD1     		bne	.L78
 1081 0036 F3E7     		b	.L79
 1082              	.LVL155:
 1083              	.L86:
 1084              	.LCFI17:
 1085              		.cfi_def_cfa_offset 0
 1086              		.cfi_restore 4
 343:Middlewares/ST/STM32_USB_Host_Library/Core/Src/usbh_core.c **** }
 1087              		.loc 1 343 0
 1088 0038 FF23     		movs	r3, #255
 1089              	.LVL156:
 344:Middlewares/ST/STM32_USB_Host_Library/Core/Src/usbh_core.c **** 
 1090              		.loc 1 344 0
 1091 003a 1846     		mov	r0, r3
 1092              	.LVL157:
 1093 003c 7047     		bx	lr
 1094              		.cfi_endproc
 1095              	.LFE150:
 1097              		.section	.text.USBH_Start,"ax",%progbits
 1098              		.align	1
 1099              		.global	USBH_Start
 1100              		.syntax unified
 1101              		.thumb
 1102              		.thumb_func
 1103              		.fpu fpv5-sp-d16
 1105              	USBH_Start:
 1106              	.LFB151:
 353:Middlewares/ST/STM32_USB_Host_Library/Core/Src/usbh_core.c ****   /* Start the low level driver  */
 1107              		.loc 1 353 0
 1108              		.cfi_startproc
 1109              		@ args = 0, pretend = 0, frame = 0
 1110              		@ frame_needed = 0, uses_anonymous_args = 0
 1111              	.LVL158:
ARM GAS  C:\Users\Patryk\AppData\Local\Temp\cccHu4h9.s 			page 38


 1112 0000 10B5     		push	{r4, lr}
 1113              	.LCFI18:
 1114              		.cfi_def_cfa_offset 8
 1115              		.cfi_offset 4, -8
 1116              		.cfi_offset 14, -4
 1117 0002 0446     		mov	r4, r0
 355:Middlewares/ST/STM32_USB_Host_Library/Core/Src/usbh_core.c **** 
 1118              		.loc 1 355 0
 1119 0004 FFF7FEFF 		bl	USBH_LL_Start
 1120              	.LVL159:
 358:Middlewares/ST/STM32_USB_Host_Library/Core/Src/usbh_core.c **** 
 1121              		.loc 1 358 0
 1122 0008 0121     		movs	r1, #1
 1123 000a 2046     		mov	r0, r4
 1124 000c FFF7FEFF 		bl	USBH_LL_DriverVBUS
 1125              	.LVL160:
 361:Middlewares/ST/STM32_USB_Host_Library/Core/Src/usbh_core.c **** 
 1126              		.loc 1 361 0
 1127 0010 0020     		movs	r0, #0
 1128 0012 10BD     		pop	{r4, pc}
 1129              		.cfi_endproc
 1130              	.LFE151:
 1132              		.section	.text.USBH_Stop,"ax",%progbits
 1133              		.align	1
 1134              		.global	USBH_Stop
 1135              		.syntax unified
 1136              		.thumb
 1137              		.thumb_func
 1138              		.fpu fpv5-sp-d16
 1140              	USBH_Stop:
 1141              	.LFB152:
 370:Middlewares/ST/STM32_USB_Host_Library/Core/Src/usbh_core.c ****   /* Stop and cleanup the low level driver  */
 1142              		.loc 1 370 0
 1143              		.cfi_startproc
 1144              		@ args = 0, pretend = 0, frame = 0
 1145              		@ frame_needed = 0, uses_anonymous_args = 0
 1146              	.LVL161:
 1147 0000 10B5     		push	{r4, lr}
 1148              	.LCFI19:
 1149              		.cfi_def_cfa_offset 8
 1150              		.cfi_offset 4, -8
 1151              		.cfi_offset 14, -4
 1152 0002 0446     		mov	r4, r0
 372:Middlewares/ST/STM32_USB_Host_Library/Core/Src/usbh_core.c **** 
 1153              		.loc 1 372 0
 1154 0004 FFF7FEFF 		bl	USBH_LL_Stop
 1155              	.LVL162:
 375:Middlewares/ST/STM32_USB_Host_Library/Core/Src/usbh_core.c **** 
 1156              		.loc 1 375 0
 1157 0008 0021     		movs	r1, #0
 1158 000a 2046     		mov	r0, r4
 1159 000c FFF7FEFF 		bl	USBH_LL_DriverVBUS
 1160              	.LVL163:
 378:Middlewares/ST/STM32_USB_Host_Library/Core/Src/usbh_core.c ****   USBH_FreePipe  (phost, phost->Control.pipe_out);
 1161              		.loc 1 378 0
 1162 0010 2179     		ldrb	r1, [r4, #4]	@ zero_extendqisi2
 1163 0012 2046     		mov	r0, r4
ARM GAS  C:\Users\Patryk\AppData\Local\Temp\cccHu4h9.s 			page 39


 1164 0014 FFF7FEFF 		bl	USBH_FreePipe
 1165              	.LVL164:
 379:Middlewares/ST/STM32_USB_Host_Library/Core/Src/usbh_core.c **** 
 1166              		.loc 1 379 0
 1167 0018 6179     		ldrb	r1, [r4, #5]	@ zero_extendqisi2
 1168 001a 2046     		mov	r0, r4
 1169 001c FFF7FEFF 		bl	USBH_FreePipe
 1170              	.LVL165:
 382:Middlewares/ST/STM32_USB_Host_Library/Core/Src/usbh_core.c **** 
 1171              		.loc 1 382 0
 1172 0020 0020     		movs	r0, #0
 1173 0022 10BD     		pop	{r4, pc}
 1174              		.cfi_endproc
 1175              	.LFE152:
 1177              		.section	.text.USBH_ReEnumerate,"ax",%progbits
 1178              		.align	1
 1179              		.global	USBH_ReEnumerate
 1180              		.syntax unified
 1181              		.thumb
 1182              		.thumb_func
 1183              		.fpu fpv5-sp-d16
 1185              	USBH_ReEnumerate:
 1186              	.LFB153:
 391:Middlewares/ST/STM32_USB_Host_Library/Core/Src/usbh_core.c ****   /*Stop Host */
 1187              		.loc 1 391 0
 1188              		.cfi_startproc
 1189              		@ args = 0, pretend = 0, frame = 0
 1190              		@ frame_needed = 0, uses_anonymous_args = 0
 1191              	.LVL166:
 1192 0000 10B5     		push	{r4, lr}
 1193              	.LCFI20:
 1194              		.cfi_def_cfa_offset 8
 1195              		.cfi_offset 4, -8
 1196              		.cfi_offset 14, -4
 1197 0002 0446     		mov	r4, r0
 393:Middlewares/ST/STM32_USB_Host_Library/Core/Src/usbh_core.c **** 
 1198              		.loc 1 393 0
 1199 0004 FFF7FEFF 		bl	USBH_Stop
 1200              	.LVL167:
 396:Middlewares/ST/STM32_USB_Host_Library/Core/Src/usbh_core.c **** 
 1201              		.loc 1 396 0
 1202 0008 C820     		movs	r0, #200
 1203 000a FFF7FEFF 		bl	USBH_Delay
 1204              	.LVL168:
 399:Middlewares/ST/STM32_USB_Host_Library/Core/Src/usbh_core.c **** 
 1205              		.loc 1 399 0
 1206 000e 2046     		mov	r0, r4
 1207 0010 FFF7FEFF 		bl	DeInitStateMachine
 1208              	.LVL169:
 402:Middlewares/ST/STM32_USB_Host_Library/Core/Src/usbh_core.c **** 
 1209              		.loc 1 402 0
 1210 0014 2046     		mov	r0, r4
 1211 0016 FFF7FEFF 		bl	USBH_Start
 1212              	.LVL170:
 405:Middlewares/ST/STM32_USB_Host_Library/Core/Src/usbh_core.c **** #endif
 1213              		.loc 1 405 0
 1214 001a 0022     		movs	r2, #0
ARM GAS  C:\Users\Patryk\AppData\Local\Temp\cccHu4h9.s 			page 40


 1215 001c 0121     		movs	r1, #1
 1216 001e D4F8CC03 		ldr	r0, [r4, #972]
 1217 0022 FFF7FEFF 		bl	osMessagePut
 1218              	.LVL171:
 408:Middlewares/ST/STM32_USB_Host_Library/Core/Src/usbh_core.c **** 
 1219              		.loc 1 408 0
 1220 0026 0020     		movs	r0, #0
 1221 0028 10BD     		pop	{r4, pc}
 1222              		.cfi_endproc
 1223              	.LFE153:
 1225              		.section	.text.USBH_LL_SetTimer,"ax",%progbits
 1226              		.align	1
 1227              		.global	USBH_LL_SetTimer
 1228              		.syntax unified
 1229              		.thumb
 1230              		.thumb_func
 1231              		.fpu fpv5-sp-d16
 1233              	USBH_LL_SetTimer:
 1234              	.LFB156:
 847:Middlewares/ST/STM32_USB_Host_Library/Core/Src/usbh_core.c ****   phost->Timer = time;
 1235              		.loc 1 847 0
 1236              		.cfi_startproc
 1237              		@ args = 0, pretend = 0, frame = 0
 1238              		@ frame_needed = 0, uses_anonymous_args = 0
 1239              		@ link register save eliminated.
 1240              	.LVL172:
 848:Middlewares/ST/STM32_USB_Host_Library/Core/Src/usbh_core.c **** }
 1241              		.loc 1 848 0
 1242 0000 C0F8BC13 		str	r1, [r0, #956]
 849:Middlewares/ST/STM32_USB_Host_Library/Core/Src/usbh_core.c **** /**
 1243              		.loc 1 849 0
 1244 0004 7047     		bx	lr
 1245              		.cfi_endproc
 1246              	.LFE156:
 1248              		.section	.text.USBH_LL_IncTimer,"ax",%progbits
 1249              		.align	1
 1250              		.global	USBH_LL_IncTimer
 1251              		.syntax unified
 1252              		.thumb
 1253              		.thumb_func
 1254              		.fpu fpv5-sp-d16
 1256              	USBH_LL_IncTimer:
 1257              	.LFB157:
 857:Middlewares/ST/STM32_USB_Host_Library/Core/Src/usbh_core.c ****   phost->Timer ++;
 1258              		.loc 1 857 0
 1259              		.cfi_startproc
 1260              		@ args = 0, pretend = 0, frame = 0
 1261              		@ frame_needed = 0, uses_anonymous_args = 0
 1262              	.LVL173:
 1263 0000 08B5     		push	{r3, lr}
 1264              	.LCFI21:
 1265              		.cfi_def_cfa_offset 8
 1266              		.cfi_offset 3, -8
 1267              		.cfi_offset 14, -4
 858:Middlewares/ST/STM32_USB_Host_Library/Core/Src/usbh_core.c ****   USBH_HandleSof(phost);
 1268              		.loc 1 858 0
 1269 0002 D0F8BC33 		ldr	r3, [r0, #956]
ARM GAS  C:\Users\Patryk\AppData\Local\Temp\cccHu4h9.s 			page 41


 1270 0006 0133     		adds	r3, r3, #1
 1271 0008 C0F8BC33 		str	r3, [r0, #956]
 859:Middlewares/ST/STM32_USB_Host_Library/Core/Src/usbh_core.c **** }
 1272              		.loc 1 859 0
 1273 000c FFF7FEFF 		bl	USBH_HandleSof
 1274              	.LVL174:
 860:Middlewares/ST/STM32_USB_Host_Library/Core/Src/usbh_core.c **** 
 1275              		.loc 1 860 0
 1276 0010 08BD     		pop	{r3, pc}
 1277              		.cfi_endproc
 1278              	.LFE157:
 1280              		.section	.text.USBH_LL_PortEnabled,"ax",%progbits
 1281              		.align	1
 1282              		.global	USBH_LL_PortEnabled
 1283              		.syntax unified
 1284              		.thumb
 1285              		.thumb_func
 1286              		.fpu fpv5-sp-d16
 1288              	USBH_LL_PortEnabled:
 1289              	.LFB159:
 875:Middlewares/ST/STM32_USB_Host_Library/Core/Src/usbh_core.c **** 
 876:Middlewares/ST/STM32_USB_Host_Library/Core/Src/usbh_core.c **** /**
 877:Middlewares/ST/STM32_USB_Host_Library/Core/Src/usbh_core.c ****   * @brief  USBH_PortEnabled
 878:Middlewares/ST/STM32_USB_Host_Library/Core/Src/usbh_core.c ****   *         Port Enabled
 879:Middlewares/ST/STM32_USB_Host_Library/Core/Src/usbh_core.c ****   * @param  phost: Host Handle
 880:Middlewares/ST/STM32_USB_Host_Library/Core/Src/usbh_core.c ****   * @retval None
 881:Middlewares/ST/STM32_USB_Host_Library/Core/Src/usbh_core.c ****   */
 882:Middlewares/ST/STM32_USB_Host_Library/Core/Src/usbh_core.c **** void USBH_LL_PortEnabled (USBH_HandleTypeDef *phost)
 883:Middlewares/ST/STM32_USB_Host_Library/Core/Src/usbh_core.c **** {
 1290              		.loc 1 883 0
 1291              		.cfi_startproc
 1292              		@ args = 0, pretend = 0, frame = 0
 1293              		@ frame_needed = 0, uses_anonymous_args = 0
 1294              		@ link register save eliminated.
 1295              	.LVL175:
 884:Middlewares/ST/STM32_USB_Host_Library/Core/Src/usbh_core.c ****   phost->device.PortEnabled = 1U;
 1296              		.loc 1 884 0
 1297 0000 0123     		movs	r3, #1
 1298 0002 80F81F33 		strb	r3, [r0, #799]
 885:Middlewares/ST/STM32_USB_Host_Library/Core/Src/usbh_core.c **** 
 886:Middlewares/ST/STM32_USB_Host_Library/Core/Src/usbh_core.c ****   return;
 887:Middlewares/ST/STM32_USB_Host_Library/Core/Src/usbh_core.c **** }
 1299              		.loc 1 887 0
 1300 0006 7047     		bx	lr
 1301              		.cfi_endproc
 1302              	.LFE159:
 1304              		.section	.text.USBH_LL_PortDisabled,"ax",%progbits
 1305              		.align	1
 1306              		.global	USBH_LL_PortDisabled
 1307              		.syntax unified
 1308              		.thumb
 1309              		.thumb_func
 1310              		.fpu fpv5-sp-d16
 1312              	USBH_LL_PortDisabled:
 1313              	.LFB160:
 888:Middlewares/ST/STM32_USB_Host_Library/Core/Src/usbh_core.c **** 
 889:Middlewares/ST/STM32_USB_Host_Library/Core/Src/usbh_core.c **** /**
ARM GAS  C:\Users\Patryk\AppData\Local\Temp\cccHu4h9.s 			page 42


 890:Middlewares/ST/STM32_USB_Host_Library/Core/Src/usbh_core.c ****   * @brief  USBH_LL_PortDisabled
 891:Middlewares/ST/STM32_USB_Host_Library/Core/Src/usbh_core.c ****   *         Port Disabled
 892:Middlewares/ST/STM32_USB_Host_Library/Core/Src/usbh_core.c ****   * @param  phost: Host Handle
 893:Middlewares/ST/STM32_USB_Host_Library/Core/Src/usbh_core.c ****   * @retval None
 894:Middlewares/ST/STM32_USB_Host_Library/Core/Src/usbh_core.c ****   */
 895:Middlewares/ST/STM32_USB_Host_Library/Core/Src/usbh_core.c **** void USBH_LL_PortDisabled (USBH_HandleTypeDef *phost)
 896:Middlewares/ST/STM32_USB_Host_Library/Core/Src/usbh_core.c **** {
 1314              		.loc 1 896 0
 1315              		.cfi_startproc
 1316              		@ args = 0, pretend = 0, frame = 0
 1317              		@ frame_needed = 0, uses_anonymous_args = 0
 1318              		@ link register save eliminated.
 1319              	.LVL176:
 897:Middlewares/ST/STM32_USB_Host_Library/Core/Src/usbh_core.c ****   phost->device.PortEnabled = 0U;
 1320              		.loc 1 897 0
 1321 0000 0023     		movs	r3, #0
 1322 0002 80F81F33 		strb	r3, [r0, #799]
 898:Middlewares/ST/STM32_USB_Host_Library/Core/Src/usbh_core.c **** 
 899:Middlewares/ST/STM32_USB_Host_Library/Core/Src/usbh_core.c ****   return;
 900:Middlewares/ST/STM32_USB_Host_Library/Core/Src/usbh_core.c **** }
 1323              		.loc 1 900 0
 1324 0006 7047     		bx	lr
 1325              		.cfi_endproc
 1326              	.LFE160:
 1328              		.section	.text.USBH_IsPortEnabled,"ax",%progbits
 1329              		.align	1
 1330              		.global	USBH_IsPortEnabled
 1331              		.syntax unified
 1332              		.thumb
 1333              		.thumb_func
 1334              		.fpu fpv5-sp-d16
 1336              	USBH_IsPortEnabled:
 1337              	.LFB161:
 901:Middlewares/ST/STM32_USB_Host_Library/Core/Src/usbh_core.c **** 
 902:Middlewares/ST/STM32_USB_Host_Library/Core/Src/usbh_core.c **** /**
 903:Middlewares/ST/STM32_USB_Host_Library/Core/Src/usbh_core.c ****   * @brief  HCD_IsPortEnabled
 904:Middlewares/ST/STM32_USB_Host_Library/Core/Src/usbh_core.c ****   *         Is Port Enabled
 905:Middlewares/ST/STM32_USB_Host_Library/Core/Src/usbh_core.c ****   * @param  phost: Host Handle
 906:Middlewares/ST/STM32_USB_Host_Library/Core/Src/usbh_core.c ****   * @retval None
 907:Middlewares/ST/STM32_USB_Host_Library/Core/Src/usbh_core.c ****   */
 908:Middlewares/ST/STM32_USB_Host_Library/Core/Src/usbh_core.c **** uint8_t USBH_IsPortEnabled(USBH_HandleTypeDef *phost)
 909:Middlewares/ST/STM32_USB_Host_Library/Core/Src/usbh_core.c **** {
 1338              		.loc 1 909 0
 1339              		.cfi_startproc
 1340              		@ args = 0, pretend = 0, frame = 0
 1341              		@ frame_needed = 0, uses_anonymous_args = 0
 1342              		@ link register save eliminated.
 1343              	.LVL177:
 910:Middlewares/ST/STM32_USB_Host_Library/Core/Src/usbh_core.c ****   return(phost->device.PortEnabled);
 911:Middlewares/ST/STM32_USB_Host_Library/Core/Src/usbh_core.c **** }
 1344              		.loc 1 911 0
 1345 0000 90F81F03 		ldrb	r0, [r0, #799]	@ zero_extendqisi2
 1346              	.LVL178:
 1347 0004 7047     		bx	lr
 1348              		.cfi_endproc
 1349              	.LFE161:
 1351              		.section	.text.USBH_Process,"ax",%progbits
ARM GAS  C:\Users\Patryk\AppData\Local\Temp\cccHu4h9.s 			page 43


 1352              		.align	1
 1353              		.global	USBH_Process
 1354              		.syntax unified
 1355              		.thumb
 1356              		.thumb_func
 1357              		.fpu fpv5-sp-d16
 1359              	USBH_Process:
 1360              	.LFB154:
 417:Middlewares/ST/STM32_USB_Host_Library/Core/Src/usbh_core.c ****   __IO USBH_StatusTypeDef status = USBH_FAIL;
 1361              		.loc 1 417 0
 1362              		.cfi_startproc
 1363              		@ args = 0, pretend = 0, frame = 8
 1364              		@ frame_needed = 0, uses_anonymous_args = 0
 1365              	.LVL179:
 1366 0000 30B5     		push	{r4, r5, lr}
 1367              	.LCFI22:
 1368              		.cfi_def_cfa_offset 12
 1369              		.cfi_offset 4, -12
 1370              		.cfi_offset 5, -8
 1371              		.cfi_offset 14, -4
 1372 0002 87B0     		sub	sp, sp, #28
 1373              	.LCFI23:
 1374              		.cfi_def_cfa_offset 40
 1375 0004 0446     		mov	r4, r0
 418:Middlewares/ST/STM32_USB_Host_Library/Core/Src/usbh_core.c ****   uint8_t idx = 0U;
 1376              		.loc 1 418 0
 1377 0006 0223     		movs	r3, #2
 1378 0008 8DF81730 		strb	r3, [sp, #23]
 1379              	.LVL180:
 422:Middlewares/ST/STM32_USB_Host_Library/Core/Src/usbh_core.c ****   {
 1380              		.loc 1 422 0
 1381 000c FFF7FEFF 		bl	USBH_IsPortEnabled
 1382              	.LVL181:
 1383 0010 38B9     		cbnz	r0, .L101
 422:Middlewares/ST/STM32_USB_Host_Library/Core/Src/usbh_core.c ****   {
 1384              		.loc 1 422 0 is_stmt 0 discriminator 1
 1385 0012 2378     		ldrb	r3, [r4]	@ zero_extendqisi2
 1386 0014 2BB1     		cbz	r3, .L101
 424:Middlewares/ST/STM32_USB_Host_Library/Core/Src/usbh_core.c ****     {
 1387              		.loc 1 424 0 is_stmt 1
 1388 0016 2378     		ldrb	r3, [r4]	@ zero_extendqisi2
 1389 0018 DBB2     		uxtb	r3, r3
 1390 001a 032B     		cmp	r3, #3
 1391 001c 01D0     		beq	.L101
 426:Middlewares/ST/STM32_USB_Host_Library/Core/Src/usbh_core.c ****     }
 1392              		.loc 1 426 0
 1393 001e 0323     		movs	r3, #3
 1394 0020 2370     		strb	r3, [r4]
 1395              	.L101:
 430:Middlewares/ST/STM32_USB_Host_Library/Core/Src/usbh_core.c ****   {
 1396              		.loc 1 430 0
 1397 0022 2378     		ldrb	r3, [r4]	@ zero_extendqisi2
 1398 0024 DBB2     		uxtb	r3, r3
 1399 0026 0B2B     		cmp	r3, #11
 1400 0028 62D8     		bhi	.L102
 1401 002a DFE813F0 		tbh	[pc, r3, lsl #1]
 1402              	.L104:
ARM GAS  C:\Users\Patryk\AppData\Local\Temp\cccHu4h9.s 			page 44


 1403 002e 0C00     		.2byte	(.L103-.L104)/2
 1404 0030 1F00     		.2byte	(.L105-.L104)/2
 1405 0032 2600     		.2byte	(.L106-.L104)/2
 1406 0034 4701     		.2byte	(.L107-.L104)/2
 1407 0036 6100     		.2byte	(.L102-.L104)/2
 1408 0038 6400     		.2byte	(.L108-.L104)/2
 1409 003a 1C01     		.2byte	(.L109-.L104)/2
 1410 003c 8200     		.2byte	(.L110-.L104)/2
 1411 003e 9200     		.2byte	(.L111-.L104)/2
 1412 0040 A800     		.2byte	(.L112-.L104)/2
 1413 0042 C500     		.2byte	(.L113-.L104)/2
 1414 0044 3E01     		.2byte	(.L114-.L104)/2
 1415              		.p2align 1
 1416              	.L103:
 434:Middlewares/ST/STM32_USB_Host_Library/Core/Src/usbh_core.c ****     {
 1417              		.loc 1 434 0
 1418 0046 94F81E33 		ldrb	r3, [r4, #798]	@ zero_extendqisi2
 1419 004a 002B     		cmp	r3, #0
 1420 004c 50D0     		beq	.L102
 437:Middlewares/ST/STM32_USB_Host_Library/Core/Src/usbh_core.c ****       USBH_Delay(200U);
 1421              		.loc 1 437 0
 1422 004e 0125     		movs	r5, #1
 1423 0050 2570     		strb	r5, [r4]
 438:Middlewares/ST/STM32_USB_Host_Library/Core/Src/usbh_core.c ****       USBH_LL_ResetPort(phost);
 1424              		.loc 1 438 0
 1425 0052 C820     		movs	r0, #200
 1426 0054 FFF7FEFF 		bl	USBH_Delay
 1427              	.LVL182:
 439:Middlewares/ST/STM32_USB_Host_Library/Core/Src/usbh_core.c **** #if (USBH_USE_OS == 1U)
 1428              		.loc 1 439 0
 1429 0058 2046     		mov	r0, r4
 1430 005a FFF7FEFF 		bl	USBH_LL_ResetPort
 1431              	.LVL183:
 441:Middlewares/ST/STM32_USB_Host_Library/Core/Src/usbh_core.c **** #endif
 1432              		.loc 1 441 0
 1433 005e 0022     		movs	r2, #0
 1434 0060 2946     		mov	r1, r5
 1435 0062 D4F8CC03 		ldr	r0, [r4, #972]
 1436 0066 FFF7FEFF 		bl	osMessagePut
 1437              	.LVL184:
 1438 006a 41E0     		b	.L102
 1439              	.L105:
 448:Middlewares/ST/STM32_USB_Host_Library/Core/Src/usbh_core.c ****     {
 1440              		.loc 1 448 0
 1441 006c 94F81F33 		ldrb	r3, [r4, #799]	@ zero_extendqisi2
 1442 0070 012B     		cmp	r3, #1
 1443 0072 3DD1     		bne	.L102
 450:Middlewares/ST/STM32_USB_Host_Library/Core/Src/usbh_core.c ****     }
 1444              		.loc 1 450 0
 1445 0074 0223     		movs	r3, #2
 1446 0076 2370     		strb	r3, [r4]
 1447 0078 3AE0     		b	.L102
 1448              	.L106:
 456:Middlewares/ST/STM32_USB_Host_Library/Core/Src/usbh_core.c **** 
 1449              		.loc 1 456 0
 1450 007a 9848     		ldr	r0, .L133
 1451 007c FFF7FEFF 		bl	printf
ARM GAS  C:\Users\Patryk\AppData\Local\Temp\cccHu4h9.s 			page 45


 1452              	.LVL185:
 1453 0080 0A20     		movs	r0, #10
 1454 0082 FFF7FEFF 		bl	putchar
 1455              	.LVL186:
 459:Middlewares/ST/STM32_USB_Host_Library/Core/Src/usbh_core.c **** 
 1456              		.loc 1 459 0
 1457 0086 6420     		movs	r0, #100
 1458 0088 FFF7FEFF 		bl	USBH_Delay
 1459              	.LVL187:
 461:Middlewares/ST/STM32_USB_Host_Library/Core/Src/usbh_core.c **** 
 1460              		.loc 1 461 0
 1461 008c 2046     		mov	r0, r4
 1462 008e FFF7FEFF 		bl	USBH_LL_GetSpeed
 1463              	.LVL188:
 1464 0092 84F81D03 		strb	r0, [r4, #797]
 463:Middlewares/ST/STM32_USB_Host_Library/Core/Src/usbh_core.c **** 
 1465              		.loc 1 463 0
 1466 0096 0523     		movs	r3, #5
 1467 0098 2370     		strb	r3, [r4]
 465:Middlewares/ST/STM32_USB_Host_Library/Core/Src/usbh_core.c ****     phost->Control.pipe_in  = USBH_AllocPipe (phost, 0x80U);
 1468              		.loc 1 465 0
 1469 009a 0021     		movs	r1, #0
 1470 009c 2046     		mov	r0, r4
 1471 009e FFF7FEFF 		bl	USBH_AllocPipe
 1472              	.LVL189:
 1473 00a2 6071     		strb	r0, [r4, #5]
 466:Middlewares/ST/STM32_USB_Host_Library/Core/Src/usbh_core.c **** 
 1474              		.loc 1 466 0
 1475 00a4 8021     		movs	r1, #128
 1476 00a6 2046     		mov	r0, r4
 1477 00a8 FFF7FEFF 		bl	USBH_AllocPipe
 1478              	.LVL190:
 1479 00ac 0146     		mov	r1, r0
 1480 00ae 2071     		strb	r0, [r4, #4]
 470:Middlewares/ST/STM32_USB_Host_Library/Core/Src/usbh_core.c ****                    phost->Control.pipe_in,
 1481              		.loc 1 470 0
 1482 00b0 94F81C33 		ldrb	r3, [r4, #796]	@ zero_extendqisi2
 1483 00b4 A279     		ldrb	r2, [r4, #6]	@ zero_extendqisi2
 1484 00b6 0292     		str	r2, [sp, #8]
 1485 00b8 0025     		movs	r5, #0
 1486 00ba 0195     		str	r5, [sp, #4]
 1487 00bc 94F81D23 		ldrb	r2, [r4, #797]	@ zero_extendqisi2
 1488 00c0 0092     		str	r2, [sp]
 1489 00c2 8022     		movs	r2, #128
 1490 00c4 2046     		mov	r0, r4
 1491 00c6 FFF7FEFF 		bl	USBH_OpenPipe
 1492              	.LVL191:
 479:Middlewares/ST/STM32_USB_Host_Library/Core/Src/usbh_core.c ****                    phost->Control.pipe_out,
 1493              		.loc 1 479 0
 1494 00ca 94F81C33 		ldrb	r3, [r4, #796]	@ zero_extendqisi2
 1495 00ce 6179     		ldrb	r1, [r4, #5]	@ zero_extendqisi2
 1496 00d0 A279     		ldrb	r2, [r4, #6]	@ zero_extendqisi2
 1497 00d2 0292     		str	r2, [sp, #8]
 1498 00d4 0195     		str	r5, [sp, #4]
 1499 00d6 94F81D23 		ldrb	r2, [r4, #797]	@ zero_extendqisi2
 1500 00da 0092     		str	r2, [sp]
 1501 00dc 2A46     		mov	r2, r5
ARM GAS  C:\Users\Patryk\AppData\Local\Temp\cccHu4h9.s 			page 46


 1502 00de 2046     		mov	r0, r4
 1503 00e0 FFF7FEFF 		bl	USBH_OpenPipe
 1504              	.LVL192:
 488:Middlewares/ST/STM32_USB_Host_Library/Core/Src/usbh_core.c **** #endif
 1505              		.loc 1 488 0
 1506 00e4 2A46     		mov	r2, r5
 1507 00e6 0121     		movs	r1, #1
 1508 00e8 D4F8CC03 		ldr	r0, [r4, #972]
 1509 00ec FFF7FEFF 		bl	osMessagePut
 1510              	.LVL193:
 1511              	.L102:
 655:Middlewares/ST/STM32_USB_Host_Library/Core/Src/usbh_core.c **** 
 1512              		.loc 1 655 0
 1513 00f0 0020     		movs	r0, #0
 1514 00f2 07B0     		add	sp, sp, #28
 1515              	.LCFI24:
 1516              		.cfi_remember_state
 1517              		.cfi_def_cfa_offset 12
 1518              		@ sp needed
 1519 00f4 30BD     		pop	{r4, r5, pc}
 1520              	.LVL194:
 1521              	.L108:
 1522              	.LCFI25:
 1523              		.cfi_restore_state
 495:Middlewares/ST/STM32_USB_Host_Library/Core/Src/usbh_core.c ****     {
 1524              		.loc 1 495 0
 1525 00f6 2046     		mov	r0, r4
 1526 00f8 FFF7FEFF 		bl	USBH_HandleEnum
 1527              	.LVL195:
 1528 00fc 0028     		cmp	r0, #0
 1529 00fe F7D1     		bne	.L102
 498:Middlewares/ST/STM32_USB_Host_Library/Core/Src/usbh_core.c ****       phost->device.current_interface = 0U;
 1530              		.loc 1 498 0
 1531 0100 7748     		ldr	r0, .L133+4
 1532 0102 FFF7FEFF 		bl	printf
 1533              	.LVL196:
 1534 0106 0A20     		movs	r0, #10
 1535 0108 FFF7FEFF 		bl	putchar
 1536              	.LVL197:
 499:Middlewares/ST/STM32_USB_Host_Library/Core/Src/usbh_core.c ****       if(phost->device.DevDesc.bNumConfigurations == 1U)
 1537              		.loc 1 499 0
 1538 010c 0023     		movs	r3, #0
 1539 010e 84F82033 		strb	r3, [r4, #800]
 500:Middlewares/ST/STM32_USB_Host_Library/Core/Src/usbh_core.c ****       {
 1540              		.loc 1 500 0
 1541 0112 94F83333 		ldrb	r3, [r4, #819]	@ zero_extendqisi2
 1542 0116 012B     		cmp	r3, #1
 1543 0118 02D0     		beq	.L128
 508:Middlewares/ST/STM32_USB_Host_Library/Core/Src/usbh_core.c ****       }
 1544              		.loc 1 508 0
 1545 011a 0723     		movs	r3, #7
 1546 011c 2370     		strb	r3, [r4]
 1547 011e E7E7     		b	.L102
 1548              	.L128:
 502:Middlewares/ST/STM32_USB_Host_Library/Core/Src/usbh_core.c ****         phost->gState  = HOST_SET_CONFIGURATION;
 1549              		.loc 1 502 0
 1550 0120 7048     		ldr	r0, .L133+8
ARM GAS  C:\Users\Patryk\AppData\Local\Temp\cccHu4h9.s 			page 47


 1551 0122 FFF7FEFF 		bl	printf
 1552              	.LVL198:
 1553 0126 0A20     		movs	r0, #10
 1554 0128 FFF7FEFF 		bl	putchar
 1555              	.LVL199:
 503:Middlewares/ST/STM32_USB_Host_Library/Core/Src/usbh_core.c **** 
 1556              		.loc 1 503 0
 1557 012c 0823     		movs	r3, #8
 1558 012e 2370     		strb	r3, [r4]
 1559 0130 DEE7     		b	.L102
 1560              	.L110:
 517:Middlewares/ST/STM32_USB_Host_Library/Core/Src/usbh_core.c ****       {
 1561              		.loc 1 517 0
 1562 0132 D4F8C833 		ldr	r3, [r4, #968]
 1563 0136 002B     		cmp	r3, #0
 1564 0138 DAD0     		beq	.L102
 519:Middlewares/ST/STM32_USB_Host_Library/Core/Src/usbh_core.c ****         phost->gState = HOST_SET_CONFIGURATION;
 1565              		.loc 1 519 0
 1566 013a 0121     		movs	r1, #1
 1567 013c 2046     		mov	r0, r4
 1568 013e 9847     		blx	r3
 1569              	.LVL200:
 520:Middlewares/ST/STM32_USB_Host_Library/Core/Src/usbh_core.c **** 
 1570              		.loc 1 520 0
 1571 0140 0823     		movs	r3, #8
 1572 0142 2370     		strb	r3, [r4]
 523:Middlewares/ST/STM32_USB_Host_Library/Core/Src/usbh_core.c **** #endif
 1573              		.loc 1 523 0
 1574 0144 0022     		movs	r2, #0
 1575 0146 0521     		movs	r1, #5
 1576 0148 D4F8CC03 		ldr	r0, [r4, #972]
 1577 014c FFF7FEFF 		bl	osMessagePut
 1578              	.LVL201:
 1579 0150 CEE7     		b	.L102
 1580              	.L111:
 531:Middlewares/ST/STM32_USB_Host_Library/Core/Src/usbh_core.c ****     {
 1581              		.loc 1 531 0
 1582 0152 94F83913 		ldrb	r1, [r4, #825]	@ zero_extendqisi2
 1583 0156 2046     		mov	r0, r4
 1584 0158 FFF7FEFF 		bl	USBH_SetCfg
 1585              	.LVL202:
 1586 015c 30B1     		cbz	r0, .L129
 1587              	.L116:
 538:Middlewares/ST/STM32_USB_Host_Library/Core/Src/usbh_core.c **** #endif
 1588              		.loc 1 538 0
 1589 015e 0022     		movs	r2, #0
 1590 0160 0121     		movs	r1, #1
 1591 0162 D4F8CC03 		ldr	r0, [r4, #972]
 1592 0166 FFF7FEFF 		bl	osMessagePut
 1593              	.LVL203:
 540:Middlewares/ST/STM32_USB_Host_Library/Core/Src/usbh_core.c **** 
 1594              		.loc 1 540 0
 1595 016a C1E7     		b	.L102
 1596              	.L129:
 533:Middlewares/ST/STM32_USB_Host_Library/Core/Src/usbh_core.c ****       USBH_UsrLog ("Default configuration set.");
 1597              		.loc 1 533 0
 1598 016c 0923     		movs	r3, #9
ARM GAS  C:\Users\Patryk\AppData\Local\Temp\cccHu4h9.s 			page 48


 1599 016e 2370     		strb	r3, [r4]
 534:Middlewares/ST/STM32_USB_Host_Library/Core/Src/usbh_core.c ****     }
 1600              		.loc 1 534 0
 1601 0170 5D48     		ldr	r0, .L133+12
 1602 0172 FFF7FEFF 		bl	printf
 1603              	.LVL204:
 1604 0176 0A20     		movs	r0, #10
 1605 0178 FFF7FEFF 		bl	putchar
 1606              	.LVL205:
 1607 017c EFE7     		b	.L116
 1608              	.L112:
 544:Middlewares/ST/STM32_USB_Host_Library/Core/Src/usbh_core.c ****     {
 1609              		.loc 1 544 0
 1610 017e 94F83B33 		ldrb	r3, [r4, #827]	@ zero_extendqisi2
 1611 0182 13F0200F 		tst	r3, #32
 1612 0186 08D1     		bne	.L130
 554:Middlewares/ST/STM32_USB_Host_Library/Core/Src/usbh_core.c ****     }
 1613              		.loc 1 554 0
 1614 0188 0A23     		movs	r3, #10
 1615 018a 2370     		strb	r3, [r4]
 1616              	.L118:
 558:Middlewares/ST/STM32_USB_Host_Library/Core/Src/usbh_core.c **** #endif
 1617              		.loc 1 558 0
 1618 018c 0022     		movs	r2, #0
 1619 018e 0121     		movs	r1, #1
 1620 0190 D4F8CC03 		ldr	r0, [r4, #972]
 1621 0194 FFF7FEFF 		bl	osMessagePut
 1622              	.LVL206:
 560:Middlewares/ST/STM32_USB_Host_Library/Core/Src/usbh_core.c **** 
 1623              		.loc 1 560 0
 1624 0198 AAE7     		b	.L102
 1625              	.L130:
 546:Middlewares/ST/STM32_USB_Host_Library/Core/Src/usbh_core.c ****       {
 1626              		.loc 1 546 0
 1627 019a 0121     		movs	r1, #1
 1628 019c 2046     		mov	r0, r4
 1629 019e FFF7FEFF 		bl	USBH_SetFeature
 1630              	.LVL207:
 1631 01a2 0028     		cmp	r0, #0
 1632 01a4 F2D1     		bne	.L118
 548:Middlewares/ST/STM32_USB_Host_Library/Core/Src/usbh_core.c ****         phost->gState  = HOST_CHECK_CLASS;
 1633              		.loc 1 548 0
 1634 01a6 5148     		ldr	r0, .L133+16
 1635 01a8 FFF7FEFF 		bl	printf
 1636              	.LVL208:
 1637 01ac 0A20     		movs	r0, #10
 1638 01ae FFF7FEFF 		bl	putchar
 1639              	.LVL209:
 549:Middlewares/ST/STM32_USB_Host_Library/Core/Src/usbh_core.c ****       }
 1640              		.loc 1 549 0
 1641 01b2 0A23     		movs	r3, #10
 1642 01b4 2370     		strb	r3, [r4]
 1643 01b6 E9E7     		b	.L118
 1644              	.L113:
 564:Middlewares/ST/STM32_USB_Host_Library/Core/Src/usbh_core.c ****     {
 1645              		.loc 1 564 0
 1646 01b8 D4F87C33 		ldr	r3, [r4, #892]
ARM GAS  C:\Users\Patryk\AppData\Local\Temp\cccHu4h9.s 			page 49


 1647 01bc E3B1     		cbz	r3, .L131
 570:Middlewares/ST/STM32_USB_Host_Library/Core/Src/usbh_core.c **** 
 1648              		.loc 1 570 0
 1649 01be 0023     		movs	r3, #0
 1650 01c0 C4F87833 		str	r3, [r4, #888]
 1651              	.LVL210:
 1652              	.L121:
 572:Middlewares/ST/STM32_USB_Host_Library/Core/Src/usbh_core.c ****       {
 1653              		.loc 1 572 0 discriminator 1
 1654 01c4 2BB3     		cbz	r3, .L123
 580:Middlewares/ST/STM32_USB_Host_Library/Core/Src/usbh_core.c ****       {
 1655              		.loc 1 580 0
 1656 01c6 D4F87833 		ldr	r3, [r4, #888]
 1657              	.LVL211:
 1658 01ca 002B     		cmp	r3, #0
 1659 01cc 42D0     		beq	.L124
 582:Middlewares/ST/STM32_USB_Host_Library/Core/Src/usbh_core.c ****         {
 1660              		.loc 1 582 0
 1661 01ce 9B68     		ldr	r3, [r3, #8]
 1662 01d0 2046     		mov	r0, r4
 1663 01d2 9847     		blx	r3
 1664              	.LVL212:
 1665 01d4 90BB     		cbnz	r0, .L125
 584:Middlewares/ST/STM32_USB_Host_Library/Core/Src/usbh_core.c ****           USBH_UsrLog ("%s class started.", phost->pActiveClass->Name);
 1666              		.loc 1 584 0
 1667 01d6 0623     		movs	r3, #6
 1668 01d8 2370     		strb	r3, [r4]
 585:Middlewares/ST/STM32_USB_Host_Library/Core/Src/usbh_core.c **** 
 1669              		.loc 1 585 0
 1670 01da D4F87833 		ldr	r3, [r4, #888]
 1671 01de 1968     		ldr	r1, [r3]
 1672 01e0 4348     		ldr	r0, .L133+20
 1673 01e2 FFF7FEFF 		bl	printf
 1674              	.LVL213:
 1675 01e6 0A20     		movs	r0, #10
 1676 01e8 FFF7FEFF 		bl	putchar
 1677              	.LVL214:
 588:Middlewares/ST/STM32_USB_Host_Library/Core/Src/usbh_core.c ****         }
 1678              		.loc 1 588 0
 1679 01ec D4F8C833 		ldr	r3, [r4, #968]
 1680 01f0 0321     		movs	r1, #3
 1681 01f2 2046     		mov	r0, r4
 1682 01f4 9847     		blx	r3
 1683              	.LVL215:
 1684 01f6 05E0     		b	.L120
 1685              	.LVL216:
 1686              	.L131:
 566:Middlewares/ST/STM32_USB_Host_Library/Core/Src/usbh_core.c ****     }
 1687              		.loc 1 566 0
 1688 01f8 3E48     		ldr	r0, .L133+24
 1689 01fa FFF7FEFF 		bl	printf
 1690              	.LVL217:
 1691 01fe 0A20     		movs	r0, #10
 1692 0200 FFF7FEFF 		bl	putchar
 1693              	.LVL218:
 1694              	.L120:
 604:Middlewares/ST/STM32_USB_Host_Library/Core/Src/usbh_core.c **** #endif
ARM GAS  C:\Users\Patryk\AppData\Local\Temp\cccHu4h9.s 			page 50


 1695              		.loc 1 604 0
 1696 0204 0022     		movs	r2, #0
 1697 0206 0521     		movs	r1, #5
 1698 0208 D4F8CC03 		ldr	r0, [r4, #972]
 1699 020c FFF7FEFF 		bl	osMessagePut
 1700              	.LVL219:
 606:Middlewares/ST/STM32_USB_Host_Library/Core/Src/usbh_core.c **** 
 1701              		.loc 1 606 0
 1702 0210 6EE7     		b	.L102
 1703              	.LVL220:
 1704              	.L123:
 574:Middlewares/ST/STM32_USB_Host_Library/Core/Src/usbh_core.c ****         {
 1705              		.loc 1 574 0
 1706 0212 03F1DC02 		add	r2, r3, #220
 1707 0216 04EB8202 		add	r2, r4, r2, lsl #2
 1708 021a 5268     		ldr	r2, [r2, #4]
 1709 021c 1179     		ldrb	r1, [r2, #4]	@ zero_extendqisi2
 1710 021e 94F84323 		ldrb	r2, [r4, #835]	@ zero_extendqisi2
 1711 0222 9142     		cmp	r1, r2
 1712 0224 02D0     		beq	.L132
 1713              	.L122:
 572:Middlewares/ST/STM32_USB_Host_Library/Core/Src/usbh_core.c ****       {
 1714              		.loc 1 572 0 discriminator 2
 1715 0226 0133     		adds	r3, r3, #1
 1716              	.LVL221:
 1717 0228 DBB2     		uxtb	r3, r3
 1718              	.LVL222:
 1719 022a CBE7     		b	.L121
 1720              	.L132:
 576:Middlewares/ST/STM32_USB_Host_Library/Core/Src/usbh_core.c ****         }
 1721              		.loc 1 576 0
 1722 022c 03F1DC02 		add	r2, r3, #220
 1723 0230 04EB8202 		add	r2, r4, r2, lsl #2
 1724 0234 5268     		ldr	r2, [r2, #4]
 1725 0236 C4F87823 		str	r2, [r4, #888]
 1726 023a F4E7     		b	.L122
 1727              	.LVL223:
 1728              	.L125:
 592:Middlewares/ST/STM32_USB_Host_Library/Core/Src/usbh_core.c ****           USBH_UsrLog ("Device not supporting %s class.", phost->pActiveClass->Name);
 1729              		.loc 1 592 0
 1730 023c 0D23     		movs	r3, #13
 1731 023e 2370     		strb	r3, [r4]
 593:Middlewares/ST/STM32_USB_Host_Library/Core/Src/usbh_core.c ****         }
 1732              		.loc 1 593 0
 1733 0240 D4F87833 		ldr	r3, [r4, #888]
 1734 0244 1968     		ldr	r1, [r3]
 1735 0246 2C48     		ldr	r0, .L133+28
 1736 0248 FFF7FEFF 		bl	printf
 1737              	.LVL224:
 1738 024c 0A20     		movs	r0, #10
 1739 024e FFF7FEFF 		bl	putchar
 1740              	.LVL225:
 1741 0252 D7E7     		b	.L120
 1742              	.L124:
 598:Middlewares/ST/STM32_USB_Host_Library/Core/Src/usbh_core.c ****         USBH_UsrLog ("No registered class for this device.");
 1743              		.loc 1 598 0
 1744 0254 0D23     		movs	r3, #13
ARM GAS  C:\Users\Patryk\AppData\Local\Temp\cccHu4h9.s 			page 51


 1745 0256 2370     		strb	r3, [r4]
 599:Middlewares/ST/STM32_USB_Host_Library/Core/Src/usbh_core.c ****       }
 1746              		.loc 1 599 0
 1747 0258 2848     		ldr	r0, .L133+32
 1748 025a FFF7FEFF 		bl	printf
 1749              	.LVL226:
 1750 025e 0A20     		movs	r0, #10
 1751 0260 FFF7FEFF 		bl	putchar
 1752              	.LVL227:
 1753 0264 CEE7     		b	.L120
 1754              	.LVL228:
 1755              	.L109:
 610:Middlewares/ST/STM32_USB_Host_Library/Core/Src/usbh_core.c ****     {
 1756              		.loc 1 610 0
 1757 0266 D4F87833 		ldr	r3, [r4, #888]
 1758 026a 63B1     		cbz	r3, .L126
 612:Middlewares/ST/STM32_USB_Host_Library/Core/Src/usbh_core.c **** 
 1759              		.loc 1 612 0
 1760 026c 1B69     		ldr	r3, [r3, #16]
 1761 026e 2046     		mov	r0, r4
 1762 0270 9847     		blx	r3
 1763              	.LVL229:
 1764 0272 8DF81700 		strb	r0, [sp, #23]
 614:Middlewares/ST/STM32_USB_Host_Library/Core/Src/usbh_core.c ****       {
 1765              		.loc 1 614 0
 1766 0276 9DF81730 		ldrb	r3, [sp, #23]	@ zero_extendqisi2
 1767 027a 002B     		cmp	r3, #0
 1768 027c 7FF438AF 		bne	.L102
 616:Middlewares/ST/STM32_USB_Host_Library/Core/Src/usbh_core.c ****       }
 1769              		.loc 1 616 0
 1770 0280 0B23     		movs	r3, #11
 1771 0282 2370     		strb	r3, [r4]
 1772 0284 34E7     		b	.L102
 1773              	.L126:
 621:Middlewares/ST/STM32_USB_Host_Library/Core/Src/usbh_core.c ****       USBH_ErrLog ("Invalid Class Driver.");
 1774              		.loc 1 621 0
 1775 0286 0D23     		movs	r3, #13
 1776 0288 2370     		strb	r3, [r4]
 622:Middlewares/ST/STM32_USB_Host_Library/Core/Src/usbh_core.c **** 
 1777              		.loc 1 622 0
 1778 028a 1D48     		ldr	r0, .L133+36
 1779 028c FFF7FEFF 		bl	printf
 1780              	.LVL230:
 1781 0290 1C48     		ldr	r0, .L133+40
 1782 0292 FFF7FEFF 		bl	printf
 1783              	.LVL231:
 1784 0296 0A20     		movs	r0, #10
 1785 0298 FFF7FEFF 		bl	putchar
 1786              	.LVL232:
 625:Middlewares/ST/STM32_USB_Host_Library/Core/Src/usbh_core.c **** #endif
 1787              		.loc 1 625 0
 1788 029c 0022     		movs	r2, #0
 1789 029e 0521     		movs	r1, #5
 1790 02a0 D4F8CC03 		ldr	r0, [r4, #972]
 1791 02a4 FFF7FEFF 		bl	osMessagePut
 1792              	.LVL233:
 1793 02a8 22E7     		b	.L102
ARM GAS  C:\Users\Patryk\AppData\Local\Temp\cccHu4h9.s 			page 52


 1794              	.L114:
 632:Middlewares/ST/STM32_USB_Host_Library/Core/Src/usbh_core.c ****     {
 1795              		.loc 1 632 0
 1796 02aa D4F87833 		ldr	r3, [r4, #888]
 1797 02ae 002B     		cmp	r3, #0
 1798 02b0 3FF41EAF 		beq	.L102
 634:Middlewares/ST/STM32_USB_Host_Library/Core/Src/usbh_core.c ****     }
 1799              		.loc 1 634 0
 1800 02b4 5B69     		ldr	r3, [r3, #20]
 1801 02b6 2046     		mov	r0, r4
 1802 02b8 9847     		blx	r3
 1803              	.LVL234:
 1804 02ba 19E7     		b	.L102
 1805              	.L107:
 640:Middlewares/ST/STM32_USB_Host_Library/Core/Src/usbh_core.c **** 
 1806              		.loc 1 640 0
 1807 02bc 2046     		mov	r0, r4
 1808 02be FFF7FEFF 		bl	DeInitStateMachine
 1809              	.LVL235:
 643:Middlewares/ST/STM32_USB_Host_Library/Core/Src/usbh_core.c ****     {
 1810              		.loc 1 643 0
 1811 02c2 D4F87833 		ldr	r3, [r4, #888]
 1812 02c6 002B     		cmp	r3, #0
 1813 02c8 3FF412AF 		beq	.L102
 645:Middlewares/ST/STM32_USB_Host_Library/Core/Src/usbh_core.c ****       phost->pActiveClass = NULL;
 1814              		.loc 1 645 0
 1815 02cc DB68     		ldr	r3, [r3, #12]
 1816 02ce 2046     		mov	r0, r4
 1817 02d0 9847     		blx	r3
 1818              	.LVL236:
 646:Middlewares/ST/STM32_USB_Host_Library/Core/Src/usbh_core.c ****     }
 1819              		.loc 1 646 0
 1820 02d2 0023     		movs	r3, #0
 1821 02d4 C4F87833 		str	r3, [r4, #888]
 1822 02d8 0AE7     		b	.L102
 1823              	.L134:
 1824 02da 00BF     		.align	2
 1825              	.L133:
 1826 02dc 00000000 		.word	.LC22
 1827 02e0 14000000 		.word	.LC23
 1828 02e4 28000000 		.word	.LC24
 1829 02e8 50000000 		.word	.LC25
 1830 02ec 6C000000 		.word	.LC26
 1831 02f0 AC000000 		.word	.LC28
 1832 02f4 8C000000 		.word	.LC27
 1833 02f8 C0000000 		.word	.LC29
 1834 02fc E0000000 		.word	.LC30
 1835 0300 00000000 		.word	.LC12
 1836 0304 08010000 		.word	.LC31
 1837              		.cfi_endproc
 1838              	.LFE154:
 1840              		.section	.text.USBH_Process_OS,"ax",%progbits
 1841              		.align	1
 1842              		.syntax unified
 1843              		.thumb
 1844              		.thumb_func
 1845              		.fpu fpv5-sp-d16
ARM GAS  C:\Users\Patryk\AppData\Local\Temp\cccHu4h9.s 			page 53


 1847              	USBH_Process_OS:
 1848              	.LFB164:
 912:Middlewares/ST/STM32_USB_Host_Library/Core/Src/usbh_core.c **** 
 913:Middlewares/ST/STM32_USB_Host_Library/Core/Src/usbh_core.c **** 
 914:Middlewares/ST/STM32_USB_Host_Library/Core/Src/usbh_core.c **** /**
 915:Middlewares/ST/STM32_USB_Host_Library/Core/Src/usbh_core.c ****   * @brief  USBH_LL_Connect
 916:Middlewares/ST/STM32_USB_Host_Library/Core/Src/usbh_core.c ****   *         Handle USB Host connexion event
 917:Middlewares/ST/STM32_USB_Host_Library/Core/Src/usbh_core.c ****   * @param  phost: Host Handle
 918:Middlewares/ST/STM32_USB_Host_Library/Core/Src/usbh_core.c ****   * @retval USBH_Status
 919:Middlewares/ST/STM32_USB_Host_Library/Core/Src/usbh_core.c ****   */
 920:Middlewares/ST/STM32_USB_Host_Library/Core/Src/usbh_core.c **** USBH_StatusTypeDef  USBH_LL_Connect (USBH_HandleTypeDef *phost)
 921:Middlewares/ST/STM32_USB_Host_Library/Core/Src/usbh_core.c **** {
 922:Middlewares/ST/STM32_USB_Host_Library/Core/Src/usbh_core.c ****   if(phost->gState == HOST_IDLE )
 923:Middlewares/ST/STM32_USB_Host_Library/Core/Src/usbh_core.c ****   {
 924:Middlewares/ST/STM32_USB_Host_Library/Core/Src/usbh_core.c ****     phost->device.is_connected = 1U;
 925:Middlewares/ST/STM32_USB_Host_Library/Core/Src/usbh_core.c **** 
 926:Middlewares/ST/STM32_USB_Host_Library/Core/Src/usbh_core.c ****     if(phost->pUser != NULL)
 927:Middlewares/ST/STM32_USB_Host_Library/Core/Src/usbh_core.c ****     {
 928:Middlewares/ST/STM32_USB_Host_Library/Core/Src/usbh_core.c ****       phost->pUser(phost, HOST_USER_CONNECTION);
 929:Middlewares/ST/STM32_USB_Host_Library/Core/Src/usbh_core.c ****     }
 930:Middlewares/ST/STM32_USB_Host_Library/Core/Src/usbh_core.c ****   }
 931:Middlewares/ST/STM32_USB_Host_Library/Core/Src/usbh_core.c ****   else
 932:Middlewares/ST/STM32_USB_Host_Library/Core/Src/usbh_core.c ****   {
 933:Middlewares/ST/STM32_USB_Host_Library/Core/Src/usbh_core.c ****     if (phost->device.PortEnabled == 1U)
 934:Middlewares/ST/STM32_USB_Host_Library/Core/Src/usbh_core.c ****     {
 935:Middlewares/ST/STM32_USB_Host_Library/Core/Src/usbh_core.c ****       phost->gState = HOST_DEV_ATTACHED;
 936:Middlewares/ST/STM32_USB_Host_Library/Core/Src/usbh_core.c ****     }
 937:Middlewares/ST/STM32_USB_Host_Library/Core/Src/usbh_core.c ****   }
 938:Middlewares/ST/STM32_USB_Host_Library/Core/Src/usbh_core.c **** #if (USBH_USE_OS == 1U)
 939:Middlewares/ST/STM32_USB_Host_Library/Core/Src/usbh_core.c ****   osMessagePut ( phost->os_event, USBH_PORT_EVENT, 0);
 940:Middlewares/ST/STM32_USB_Host_Library/Core/Src/usbh_core.c **** #endif
 941:Middlewares/ST/STM32_USB_Host_Library/Core/Src/usbh_core.c **** 
 942:Middlewares/ST/STM32_USB_Host_Library/Core/Src/usbh_core.c ****   return USBH_OK;
 943:Middlewares/ST/STM32_USB_Host_Library/Core/Src/usbh_core.c **** }
 944:Middlewares/ST/STM32_USB_Host_Library/Core/Src/usbh_core.c **** 
 945:Middlewares/ST/STM32_USB_Host_Library/Core/Src/usbh_core.c **** /**
 946:Middlewares/ST/STM32_USB_Host_Library/Core/Src/usbh_core.c ****   * @brief  USBH_LL_Disconnect
 947:Middlewares/ST/STM32_USB_Host_Library/Core/Src/usbh_core.c ****   *         Handle USB Host disconnection event
 948:Middlewares/ST/STM32_USB_Host_Library/Core/Src/usbh_core.c ****   * @param  phost: Host Handle
 949:Middlewares/ST/STM32_USB_Host_Library/Core/Src/usbh_core.c ****   * @retval USBH_Status
 950:Middlewares/ST/STM32_USB_Host_Library/Core/Src/usbh_core.c ****   */
 951:Middlewares/ST/STM32_USB_Host_Library/Core/Src/usbh_core.c **** USBH_StatusTypeDef  USBH_LL_Disconnect  (USBH_HandleTypeDef *phost)
 952:Middlewares/ST/STM32_USB_Host_Library/Core/Src/usbh_core.c **** {
 953:Middlewares/ST/STM32_USB_Host_Library/Core/Src/usbh_core.c ****   /*Stop Host */
 954:Middlewares/ST/STM32_USB_Host_Library/Core/Src/usbh_core.c ****   USBH_LL_Stop(phost);
 955:Middlewares/ST/STM32_USB_Host_Library/Core/Src/usbh_core.c **** 
 956:Middlewares/ST/STM32_USB_Host_Library/Core/Src/usbh_core.c ****   /* FRee Control Pipes */
 957:Middlewares/ST/STM32_USB_Host_Library/Core/Src/usbh_core.c ****   USBH_FreePipe  (phost, phost->Control.pipe_in);
 958:Middlewares/ST/STM32_USB_Host_Library/Core/Src/usbh_core.c ****   USBH_FreePipe  (phost, phost->Control.pipe_out);
 959:Middlewares/ST/STM32_USB_Host_Library/Core/Src/usbh_core.c **** 
 960:Middlewares/ST/STM32_USB_Host_Library/Core/Src/usbh_core.c ****   phost->device.is_connected = 0U;
 961:Middlewares/ST/STM32_USB_Host_Library/Core/Src/usbh_core.c **** 
 962:Middlewares/ST/STM32_USB_Host_Library/Core/Src/usbh_core.c ****   if(phost->pUser != NULL)
 963:Middlewares/ST/STM32_USB_Host_Library/Core/Src/usbh_core.c ****   {
 964:Middlewares/ST/STM32_USB_Host_Library/Core/Src/usbh_core.c ****     phost->pUser(phost, HOST_USER_DISCONNECTION);
 965:Middlewares/ST/STM32_USB_Host_Library/Core/Src/usbh_core.c ****   }
 966:Middlewares/ST/STM32_USB_Host_Library/Core/Src/usbh_core.c ****   USBH_UsrLog("USB Device disconnected");
ARM GAS  C:\Users\Patryk\AppData\Local\Temp\cccHu4h9.s 			page 54


 967:Middlewares/ST/STM32_USB_Host_Library/Core/Src/usbh_core.c **** 
 968:Middlewares/ST/STM32_USB_Host_Library/Core/Src/usbh_core.c ****   /* Start the low level driver  */
 969:Middlewares/ST/STM32_USB_Host_Library/Core/Src/usbh_core.c ****   USBH_LL_Start(phost);
 970:Middlewares/ST/STM32_USB_Host_Library/Core/Src/usbh_core.c **** 
 971:Middlewares/ST/STM32_USB_Host_Library/Core/Src/usbh_core.c ****   phost->gState = HOST_DEV_DISCONNECTED;
 972:Middlewares/ST/STM32_USB_Host_Library/Core/Src/usbh_core.c **** 
 973:Middlewares/ST/STM32_USB_Host_Library/Core/Src/usbh_core.c **** #if (USBH_USE_OS == 1U)
 974:Middlewares/ST/STM32_USB_Host_Library/Core/Src/usbh_core.c ****   osMessagePut ( phost->os_event, USBH_PORT_EVENT, 0);
 975:Middlewares/ST/STM32_USB_Host_Library/Core/Src/usbh_core.c **** #endif
 976:Middlewares/ST/STM32_USB_Host_Library/Core/Src/usbh_core.c **** 
 977:Middlewares/ST/STM32_USB_Host_Library/Core/Src/usbh_core.c ****   return USBH_OK;
 978:Middlewares/ST/STM32_USB_Host_Library/Core/Src/usbh_core.c **** }
 979:Middlewares/ST/STM32_USB_Host_Library/Core/Src/usbh_core.c **** 
 980:Middlewares/ST/STM32_USB_Host_Library/Core/Src/usbh_core.c **** 
 981:Middlewares/ST/STM32_USB_Host_Library/Core/Src/usbh_core.c **** #if (USBH_USE_OS == 1U)
 982:Middlewares/ST/STM32_USB_Host_Library/Core/Src/usbh_core.c **** /**
 983:Middlewares/ST/STM32_USB_Host_Library/Core/Src/usbh_core.c ****   * @brief  USB Host Thread task
 984:Middlewares/ST/STM32_USB_Host_Library/Core/Src/usbh_core.c ****   * @param  pvParameters not used
 985:Middlewares/ST/STM32_USB_Host_Library/Core/Src/usbh_core.c ****   * @retval None
 986:Middlewares/ST/STM32_USB_Host_Library/Core/Src/usbh_core.c ****   */
 987:Middlewares/ST/STM32_USB_Host_Library/Core/Src/usbh_core.c **** static void USBH_Process_OS(void const * argument)
 988:Middlewares/ST/STM32_USB_Host_Library/Core/Src/usbh_core.c **** {
 1849              		.loc 1 988 0
 1850              		.cfi_startproc
 1851              		@ Volatile: function does not return.
 1852              		@ args = 0, pretend = 0, frame = 16
 1853              		@ frame_needed = 0, uses_anonymous_args = 0
 1854              	.LVL237:
 1855 0000 00B5     		push	{lr}
 1856              	.LCFI26:
 1857              		.cfi_def_cfa_offset 4
 1858              		.cfi_offset 14, -4
 1859 0002 85B0     		sub	sp, sp, #20
 1860              	.LCFI27:
 1861              		.cfi_def_cfa_offset 24
 1862 0004 0446     		mov	r4, r0
 1863              	.LVL238:
 1864              	.L136:
 989:Middlewares/ST/STM32_USB_Host_Library/Core/Src/usbh_core.c ****   osEvent event;
 990:Middlewares/ST/STM32_USB_Host_Library/Core/Src/usbh_core.c **** 
 991:Middlewares/ST/STM32_USB_Host_Library/Core/Src/usbh_core.c ****   for(;;)
 992:Middlewares/ST/STM32_USB_Host_Library/Core/Src/usbh_core.c ****   {
 993:Middlewares/ST/STM32_USB_Host_Library/Core/Src/usbh_core.c ****     event = osMessageGet(((USBH_HandleTypeDef *)argument)->os_event, osWaitForever );
 1865              		.loc 1 993 0
 1866 0006 4FF0FF32 		mov	r2, #-1
 1867 000a D4F8CC13 		ldr	r1, [r4, #972]
 1868 000e 01A8     		add	r0, sp, #4
 1869 0010 FFF7FEFF 		bl	osMessageGet
 1870              	.LVL239:
 994:Middlewares/ST/STM32_USB_Host_Library/Core/Src/usbh_core.c **** 
 995:Middlewares/ST/STM32_USB_Host_Library/Core/Src/usbh_core.c ****     if( event.status == osEventMessage )
 1871              		.loc 1 995 0
 1872 0014 019B     		ldr	r3, [sp, #4]
 1873 0016 102B     		cmp	r3, #16
 1874 0018 F5D1     		bne	.L136
 996:Middlewares/ST/STM32_USB_Host_Library/Core/Src/usbh_core.c ****     {
 997:Middlewares/ST/STM32_USB_Host_Library/Core/Src/usbh_core.c ****       USBH_Process((USBH_HandleTypeDef *)argument);
ARM GAS  C:\Users\Patryk\AppData\Local\Temp\cccHu4h9.s 			page 55


 1875              		.loc 1 997 0
 1876 001a 2046     		mov	r0, r4
 1877 001c FFF7FEFF 		bl	USBH_Process
 1878              	.LVL240:
 1879 0020 F1E7     		b	.L136
 1880              		.cfi_endproc
 1881              	.LFE164:
 1883              		.section	.text.USBH_LL_Connect,"ax",%progbits
 1884              		.align	1
 1885              		.global	USBH_LL_Connect
 1886              		.syntax unified
 1887              		.thumb
 1888              		.thumb_func
 1889              		.fpu fpv5-sp-d16
 1891              	USBH_LL_Connect:
 1892              	.LFB162:
 921:Middlewares/ST/STM32_USB_Host_Library/Core/Src/usbh_core.c ****   if(phost->gState == HOST_IDLE )
 1893              		.loc 1 921 0
 1894              		.cfi_startproc
 1895              		@ args = 0, pretend = 0, frame = 0
 1896              		@ frame_needed = 0, uses_anonymous_args = 0
 1897              	.LVL241:
 1898 0000 10B5     		push	{r4, lr}
 1899              	.LCFI28:
 1900              		.cfi_def_cfa_offset 8
 1901              		.cfi_offset 4, -8
 1902              		.cfi_offset 14, -4
 1903 0002 0446     		mov	r4, r0
 922:Middlewares/ST/STM32_USB_Host_Library/Core/Src/usbh_core.c ****   {
 1904              		.loc 1 922 0
 1905 0004 0378     		ldrb	r3, [r0]	@ zero_extendqisi2
 1906 0006 7BB9     		cbnz	r3, .L140
 924:Middlewares/ST/STM32_USB_Host_Library/Core/Src/usbh_core.c **** 
 1907              		.loc 1 924 0
 1908 0008 0123     		movs	r3, #1
 1909 000a 80F81E33 		strb	r3, [r0, #798]
 926:Middlewares/ST/STM32_USB_Host_Library/Core/Src/usbh_core.c ****     {
 1910              		.loc 1 926 0
 1911 000e D0F8C833 		ldr	r3, [r0, #968]
 1912 0012 0BB1     		cbz	r3, .L141
 928:Middlewares/ST/STM32_USB_Host_Library/Core/Src/usbh_core.c ****     }
 1913              		.loc 1 928 0
 1914 0014 0421     		movs	r1, #4
 1915 0016 9847     		blx	r3
 1916              	.LVL242:
 1917              	.L141:
 939:Middlewares/ST/STM32_USB_Host_Library/Core/Src/usbh_core.c **** #endif
 1918              		.loc 1 939 0
 1919 0018 0022     		movs	r2, #0
 1920 001a 0121     		movs	r1, #1
 1921 001c D4F8CC03 		ldr	r0, [r4, #972]
 1922 0020 FFF7FEFF 		bl	osMessagePut
 1923              	.LVL243:
 943:Middlewares/ST/STM32_USB_Host_Library/Core/Src/usbh_core.c **** 
 1924              		.loc 1 943 0
 1925 0024 0020     		movs	r0, #0
 1926 0026 10BD     		pop	{r4, pc}
ARM GAS  C:\Users\Patryk\AppData\Local\Temp\cccHu4h9.s 			page 56


 1927              	.LVL244:
 1928              	.L140:
 933:Middlewares/ST/STM32_USB_Host_Library/Core/Src/usbh_core.c ****     {
 1929              		.loc 1 933 0
 1930 0028 90F81F33 		ldrb	r3, [r0, #799]	@ zero_extendqisi2
 1931 002c 012B     		cmp	r3, #1
 1932 002e F3D1     		bne	.L141
 935:Middlewares/ST/STM32_USB_Host_Library/Core/Src/usbh_core.c ****     }
 1933              		.loc 1 935 0
 1934 0030 0223     		movs	r3, #2
 1935 0032 0370     		strb	r3, [r0]
 1936 0034 F0E7     		b	.L141
 1937              		.cfi_endproc
 1938              	.LFE162:
 1940              		.section	.text.USBH_LL_Disconnect,"ax",%progbits
 1941              		.align	1
 1942              		.global	USBH_LL_Disconnect
 1943              		.syntax unified
 1944              		.thumb
 1945              		.thumb_func
 1946              		.fpu fpv5-sp-d16
 1948              	USBH_LL_Disconnect:
 1949              	.LFB163:
 952:Middlewares/ST/STM32_USB_Host_Library/Core/Src/usbh_core.c ****   /*Stop Host */
 1950              		.loc 1 952 0
 1951              		.cfi_startproc
 1952              		@ args = 0, pretend = 0, frame = 0
 1953              		@ frame_needed = 0, uses_anonymous_args = 0
 1954              	.LVL245:
 1955 0000 10B5     		push	{r4, lr}
 1956              	.LCFI29:
 1957              		.cfi_def_cfa_offset 8
 1958              		.cfi_offset 4, -8
 1959              		.cfi_offset 14, -4
 1960 0002 0446     		mov	r4, r0
 954:Middlewares/ST/STM32_USB_Host_Library/Core/Src/usbh_core.c **** 
 1961              		.loc 1 954 0
 1962 0004 FFF7FEFF 		bl	USBH_LL_Stop
 1963              	.LVL246:
 957:Middlewares/ST/STM32_USB_Host_Library/Core/Src/usbh_core.c ****   USBH_FreePipe  (phost, phost->Control.pipe_out);
 1964              		.loc 1 957 0
 1965 0008 2179     		ldrb	r1, [r4, #4]	@ zero_extendqisi2
 1966 000a 2046     		mov	r0, r4
 1967 000c FFF7FEFF 		bl	USBH_FreePipe
 1968              	.LVL247:
 958:Middlewares/ST/STM32_USB_Host_Library/Core/Src/usbh_core.c **** 
 1969              		.loc 1 958 0
 1970 0010 6179     		ldrb	r1, [r4, #5]	@ zero_extendqisi2
 1971 0012 2046     		mov	r0, r4
 1972 0014 FFF7FEFF 		bl	USBH_FreePipe
 1973              	.LVL248:
 960:Middlewares/ST/STM32_USB_Host_Library/Core/Src/usbh_core.c **** 
 1974              		.loc 1 960 0
 1975 0018 0023     		movs	r3, #0
 1976 001a 84F81E33 		strb	r3, [r4, #798]
 962:Middlewares/ST/STM32_USB_Host_Library/Core/Src/usbh_core.c ****   {
 1977              		.loc 1 962 0
ARM GAS  C:\Users\Patryk\AppData\Local\Temp\cccHu4h9.s 			page 57


 1978 001e D4F8C833 		ldr	r3, [r4, #968]
 1979 0022 13B1     		cbz	r3, .L144
 964:Middlewares/ST/STM32_USB_Host_Library/Core/Src/usbh_core.c ****   }
 1980              		.loc 1 964 0
 1981 0024 0521     		movs	r1, #5
 1982 0026 2046     		mov	r0, r4
 1983 0028 9847     		blx	r3
 1984              	.LVL249:
 1985              	.L144:
 966:Middlewares/ST/STM32_USB_Host_Library/Core/Src/usbh_core.c **** 
 1986              		.loc 1 966 0
 1987 002a 0948     		ldr	r0, .L146
 1988 002c FFF7FEFF 		bl	printf
 1989              	.LVL250:
 1990 0030 0A20     		movs	r0, #10
 1991 0032 FFF7FEFF 		bl	putchar
 1992              	.LVL251:
 969:Middlewares/ST/STM32_USB_Host_Library/Core/Src/usbh_core.c **** 
 1993              		.loc 1 969 0
 1994 0036 2046     		mov	r0, r4
 1995 0038 FFF7FEFF 		bl	USBH_LL_Start
 1996              	.LVL252:
 971:Middlewares/ST/STM32_USB_Host_Library/Core/Src/usbh_core.c **** 
 1997              		.loc 1 971 0
 1998 003c 0323     		movs	r3, #3
 1999 003e 2370     		strb	r3, [r4]
 974:Middlewares/ST/STM32_USB_Host_Library/Core/Src/usbh_core.c **** #endif
 2000              		.loc 1 974 0
 2001 0040 0022     		movs	r2, #0
 2002 0042 0121     		movs	r1, #1
 2003 0044 D4F8CC03 		ldr	r0, [r4, #972]
 2004 0048 FFF7FEFF 		bl	osMessagePut
 2005              	.LVL253:
 978:Middlewares/ST/STM32_USB_Host_Library/Core/Src/usbh_core.c **** 
 2006              		.loc 1 978 0
 2007 004c 0020     		movs	r0, #0
 2008 004e 10BD     		pop	{r4, pc}
 2009              	.LVL254:
 2010              	.L147:
 2011              		.align	2
 2012              	.L146:
 2013 0050 00000000 		.word	.LC32
 2014              		.cfi_endproc
 2015              	.LFE163:
 2017              		.section	.text.USBH_LL_NotifyURBChange,"ax",%progbits
 2018              		.align	1
 2019              		.global	USBH_LL_NotifyURBChange
 2020              		.syntax unified
 2021              		.thumb
 2022              		.thumb_func
 2023              		.fpu fpv5-sp-d16
 2025              	USBH_LL_NotifyURBChange:
 2026              	.LFB165:
 998:Middlewares/ST/STM32_USB_Host_Library/Core/Src/usbh_core.c ****     }
 999:Middlewares/ST/STM32_USB_Host_Library/Core/Src/usbh_core.c ****    }
1000:Middlewares/ST/STM32_USB_Host_Library/Core/Src/usbh_core.c **** }
1001:Middlewares/ST/STM32_USB_Host_Library/Core/Src/usbh_core.c **** 
ARM GAS  C:\Users\Patryk\AppData\Local\Temp\cccHu4h9.s 			page 58


1002:Middlewares/ST/STM32_USB_Host_Library/Core/Src/usbh_core.c **** /**
1003:Middlewares/ST/STM32_USB_Host_Library/Core/Src/usbh_core.c **** * @brief  USBH_LL_NotifyURBChange
1004:Middlewares/ST/STM32_USB_Host_Library/Core/Src/usbh_core.c **** *         Notify URB state Change
1005:Middlewares/ST/STM32_USB_Host_Library/Core/Src/usbh_core.c **** * @param  phost: Host handle
1006:Middlewares/ST/STM32_USB_Host_Library/Core/Src/usbh_core.c **** * @retval USBH Status
1007:Middlewares/ST/STM32_USB_Host_Library/Core/Src/usbh_core.c **** */
1008:Middlewares/ST/STM32_USB_Host_Library/Core/Src/usbh_core.c **** USBH_StatusTypeDef  USBH_LL_NotifyURBChange (USBH_HandleTypeDef *phost)
1009:Middlewares/ST/STM32_USB_Host_Library/Core/Src/usbh_core.c **** {
 2027              		.loc 1 1009 0
 2028              		.cfi_startproc
 2029              		@ args = 0, pretend = 0, frame = 0
 2030              		@ frame_needed = 0, uses_anonymous_args = 0
 2031              	.LVL255:
 2032 0000 08B5     		push	{r3, lr}
 2033              	.LCFI30:
 2034              		.cfi_def_cfa_offset 8
 2035              		.cfi_offset 3, -8
 2036              		.cfi_offset 14, -4
1010:Middlewares/ST/STM32_USB_Host_Library/Core/Src/usbh_core.c ****   osMessagePut ( phost->os_event, USBH_URB_EVENT, 0U);
 2037              		.loc 1 1010 0
 2038 0002 0022     		movs	r2, #0
 2039 0004 0221     		movs	r1, #2
 2040 0006 D0F8CC03 		ldr	r0, [r0, #972]
 2041              	.LVL256:
 2042 000a FFF7FEFF 		bl	osMessagePut
 2043              	.LVL257:
1011:Middlewares/ST/STM32_USB_Host_Library/Core/Src/usbh_core.c ****   return USBH_OK;
1012:Middlewares/ST/STM32_USB_Host_Library/Core/Src/usbh_core.c **** }
 2044              		.loc 1 1012 0
 2045 000e 0020     		movs	r0, #0
 2046 0010 08BD     		pop	{r3, pc}
 2047              		.cfi_endproc
 2048              	.LFE165:
 2050              		.section	.rodata
 2051              		.align	2
 2052              		.set	.LANCHOR0,. + 0
 2053              	.LC0:
 2054 0000 0A000000 		.word	10
 2055 0004 02000000 		.word	2
 2056              	.LC14:
 2057 0008 00000000 		.word	.LC1
 2058 000c 00000000 		.word	USBH_Process_OS
 2059 0010 0000     		.short	0
 2060 0012 0000     		.space	2
 2061 0014 00000000 		.word	0
 2062 0018 80000000 		.word	128
 2063              		.section	.rodata.USBH_HandleEnum.str1.4,"aMS",%progbits,1
 2064              		.align	2
 2065              	.LC3:
 2066 0000 5049443A 		.ascii	"PID: %xh\000"
 2066      20257868 
 2066      00
 2067 0009 000000   		.space	3
 2068              	.LC4:
 2069 000c 5649443A 		.ascii	"VID: %xh\000"
 2069      20257868 
 2069      00
ARM GAS  C:\Users\Patryk\AppData\Local\Temp\cccHu4h9.s 			page 59


 2070 0015 000000   		.space	3
 2071              	.LC5:
 2072 0018 41646472 		.ascii	"Address (#%d) assigned.\000"
 2072      65737320 
 2072      28232564 
 2072      29206173 
 2072      7369676E 
 2073              	.LC6:
 2074 0030 4D616E75 		.ascii	"Manufacturer : %s\000"
 2074      66616374 
 2074      75726572 
 2074      203A2025 
 2074      7300
 2075 0042 0000     		.space	2
 2076              	.LC7:
 2077 0044 4D616E75 		.ascii	"Manufacturer : N/A\000"
 2077      66616374 
 2077      75726572 
 2077      203A204E 
 2077      2F4100
 2078 0057 00       		.space	1
 2079              	.LC8:
 2080 0058 50726F64 		.ascii	"Product : %s\000"
 2080      75637420 
 2080      3A202573 
 2080      00
 2081 0065 000000   		.space	3
 2082              	.LC9:
 2083 0068 50726F64 		.ascii	"Product : N/A\000"
 2083      75637420 
 2083      3A204E2F 
 2083      4100
 2084 0076 0000     		.space	2
 2085              	.LC10:
 2086 0078 53657269 		.ascii	"Serial Number : %s\000"
 2086      616C204E 
 2086      756D6265 
 2086      72203A20 
 2086      257300
 2087 008b 00       		.space	1
 2088              	.LC11:
 2089 008c 53657269 		.ascii	"Serial Number : N/A\000"
 2089      616C204E 
 2089      756D6265 
 2089      72203A20 
 2089      4E2F4100 
 2090              		.section	.rodata.USBH_Init.str1.4,"aMS",%progbits,1
 2091              		.align	2
 2092              	.LC12:
 2093 0000 4552524F 		.ascii	"ERROR: \000"
 2093      523A2000 
 2094              	.LC13:
 2095 0008 496E7661 		.ascii	"Invalid Host handle\000"
 2095      6C696420 
 2095      486F7374 
 2095      2068616E 
 2095      646C6500 
ARM GAS  C:\Users\Patryk\AppData\Local\Temp\cccHu4h9.s 			page 60


 2096              		.section	.rodata.USBH_LL_Disconnect.str1.4,"aMS",%progbits,1
 2097              		.align	2
 2098              	.LC32:
 2099 0000 55534220 		.ascii	"USB Device disconnected\000"
 2099      44657669 
 2099      63652064 
 2099      6973636F 
 2099      6E6E6563 
 2100              		.section	.rodata.USBH_Process.str1.4,"aMS",%progbits,1
 2101              		.align	2
 2102              	.LC22:
 2103 0000 55534220 		.ascii	"USB Device Attached\000"
 2103      44657669 
 2103      63652041 
 2103      74746163 
 2103      68656400 
 2104              	.LC23:
 2105 0014 456E756D 		.ascii	"Enumeration done.\000"
 2105      65726174 
 2105      696F6E20 
 2105      646F6E65 
 2105      2E00
 2106 0026 0000     		.space	2
 2107              	.LC24:
 2108 0028 54686973 		.ascii	"This device has only 1 configuration.\000"
 2108      20646576 
 2108      69636520 
 2108      68617320 
 2108      6F6E6C79 
 2109 004e 0000     		.space	2
 2110              	.LC25:
 2111 0050 44656661 		.ascii	"Default configuration set.\000"
 2111      756C7420 
 2111      636F6E66 
 2111      69677572 
 2111      6174696F 
 2112 006b 00       		.space	1
 2113              	.LC26:
 2114 006c 44657669 		.ascii	"Device remote wakeup enabled\000"
 2114      63652072 
 2114      656D6F74 
 2114      65207761 
 2114      6B657570 
 2115 0089 000000   		.space	3
 2116              	.LC27:
 2117 008c 4E6F2043 		.ascii	"No Class has been registered.\000"
 2117      6C617373 
 2117      20686173 
 2117      20626565 
 2117      6E207265 
 2118 00aa 0000     		.space	2
 2119              	.LC28:
 2120 00ac 25732063 		.ascii	"%s class started.\000"
 2120      6C617373 
 2120      20737461 
 2120      72746564 
 2120      2E00
ARM GAS  C:\Users\Patryk\AppData\Local\Temp\cccHu4h9.s 			page 61


 2121 00be 0000     		.space	2
 2122              	.LC29:
 2123 00c0 44657669 		.ascii	"Device not supporting %s class.\000"
 2123      6365206E 
 2123      6F742073 
 2123      7570706F 
 2123      7274696E 
 2124              	.LC30:
 2125 00e0 4E6F2072 		.ascii	"No registered class for this device.\000"
 2125      65676973 
 2125      74657265 
 2125      6420636C 
 2125      61737320 
 2126 0105 000000   		.space	3
 2127              	.LC31:
 2128 0108 496E7661 		.ascii	"Invalid Class Driver.\000"
 2128      6C696420 
 2128      436C6173 
 2128      73204472 
 2128      69766572 
 2129              		.section	.rodata.USBH_RegisterClass.str1.4,"aMS",%progbits,1
 2130              		.align	2
 2131              	.LC15:
 2132 0000 4D617820 		.ascii	"Max Class Number reached\000"
 2132      436C6173 
 2132      73204E75 
 2132      6D626572 
 2132      20726561 
 2133 0019 000000   		.space	3
 2134              	.LC16:
 2135 001c 496E7661 		.ascii	"Invalid Class handle\000"
 2135      6C696420 
 2135      436C6173 
 2135      73206861 
 2135      6E646C65 
 2136              		.section	.rodata.USBH_SelectInterface.str1.4,"aMS",%progbits,1
 2137              		.align	2
 2138              	.LC17:
 2139 0000 53776974 		.ascii	"Switching to Interface (#%d)\000"
 2139      6368696E 
 2139      6720746F 
 2139      20496E74 
 2139      65726661 
 2140 001d 000000   		.space	3
 2141              	.LC18:
 2142 0020 436C6173 		.ascii	"Class    : %xh\000"
 2142      73202020 
 2142      203A2025 
 2142      786800
 2143 002f 00       		.space	1
 2144              	.LC19:
 2145 0030 53756243 		.ascii	"SubClass : %xh\000"
 2145      6C617373 
 2145      203A2025 
 2145      786800
 2146 003f 00       		.space	1
 2147              	.LC20:
ARM GAS  C:\Users\Patryk\AppData\Local\Temp\cccHu4h9.s 			page 62


 2148 0040 50726F74 		.ascii	"Protocol : %xh\000"
 2148      6F636F6C 
 2148      203A2025 
 2148      786800
 2149 004f 00       		.space	1
 2150              	.LC21:
 2151 0050 43616E6E 		.ascii	"Cannot Select This Interface.\000"
 2151      6F742053 
 2151      656C6563 
 2151      74205468 
 2151      69732049 
 2152              		.section	.rodata.str1.4,"aMS",%progbits,1
 2153              		.align	2
 2154              	.LC1:
 2155 0000 55534248 		.ascii	"USBH_Thread\000"
 2155      5F546872 
 2155      65616400 
 2156              		.text
 2157              	.Letext0:
 2158              		.file 2 "c:\\program files (x86)\\gnu\\7_2018-q2-update\\arm-none-eabi\\include\\machine\\_default
 2159              		.file 3 "c:\\program files (x86)\\gnu\\7_2018-q2-update\\arm-none-eabi\\include\\sys\\lock.h"
 2160              		.file 4 "c:\\program files (x86)\\gnu\\7_2018-q2-update\\arm-none-eabi\\include\\sys\\_types.h"
 2161              		.file 5 "c:\\program files (x86)\\gnu\\7_2018-q2-update\\lib\\gcc\\arm-none-eabi\\7.3.1\\include\\
 2162              		.file 6 "c:\\program files (x86)\\gnu\\7_2018-q2-update\\arm-none-eabi\\include\\sys\\reent.h"
 2163              		.file 7 "c:\\program files (x86)\\gnu\\7_2018-q2-update\\arm-none-eabi\\include\\sys\\_stdint.h"
 2164              		.file 8 "c:\\program files (x86)\\gnu\\7_2018-q2-update\\arm-none-eabi\\include\\stdlib.h"
 2165              		.file 9 "Drivers/CMSIS/Include/core_cm7.h"
 2166              		.file 10 "Drivers/CMSIS/Device/ST/STM32F7xx/Include/system_stm32f7xx.h"
 2167              		.file 11 "Middlewares/Third_Party/FreeRTOS/Source/include/task.h"
 2168              		.file 12 "Middlewares/Third_Party/FreeRTOS/Source/include/queue.h"
 2169              		.file 13 "Middlewares/Third_Party/FreeRTOS/Source/CMSIS_RTOS/cmsis_os.h"
 2170              		.file 14 "Middlewares/ST/STM32_USB_Host_Library/Core/Inc/usbh_def.h"
 2171              		.file 15 "Middlewares/ST/STM32_USB_Host_Library/Core/Inc/usbh_ctlreq.h"
 2172              		.file 16 "Middlewares/ST/STM32_USB_Host_Library/Core/Inc/usbh_core.h"
 2173              		.file 17 "Middlewares/ST/STM32_USB_Host_Library/Core/Inc/usbh_pipes.h"
 2174              		.file 18 "c:\\program files (x86)\\gnu\\7_2018-q2-update\\arm-none-eabi\\include\\stdio.h"
 2175              		.file 19 "<built-in>"
ARM GAS  C:\Users\Patryk\AppData\Local\Temp\cccHu4h9.s 			page 63


DEFINED SYMBOLS
                            *ABS*:00000000 usbh_core.c
C:\Users\Patryk\AppData\Local\Temp\cccHu4h9.s:18     .text.DeInitStateMachine:00000000 $t
C:\Users\Patryk\AppData\Local\Temp\cccHu4h9.s:24     .text.DeInitStateMachine:00000000 DeInitStateMachine
C:\Users\Patryk\AppData\Local\Temp\cccHu4h9.s:97     .text.USBH_HandleSof:00000000 $t
C:\Users\Patryk\AppData\Local\Temp\cccHu4h9.s:103    .text.USBH_HandleSof:00000000 USBH_HandleSof
C:\Users\Patryk\AppData\Local\Temp\cccHu4h9.s:140    .text.USBH_HandleEnum:00000000 $t
C:\Users\Patryk\AppData\Local\Temp\cccHu4h9.s:146    .text.USBH_HandleEnum:00000000 USBH_HandleEnum
C:\Users\Patryk\AppData\Local\Temp\cccHu4h9.s:171    .text.USBH_HandleEnum:00000012 $d
C:\Users\Patryk\AppData\Local\Temp\cccHu4h9.s:179    .text.USBH_HandleEnum:0000001a $t
C:\Users\Patryk\AppData\Local\Temp\cccHu4h9.s:548    .text.USBH_HandleEnum:00000228 $d
C:\Users\Patryk\AppData\Local\Temp\cccHu4h9.s:561    .text.USBH_Init:00000000 $t
C:\Users\Patryk\AppData\Local\Temp\cccHu4h9.s:568    .text.USBH_Init:00000000 USBH_Init
C:\Users\Patryk\AppData\Local\Temp\cccHu4h9.s:665    .text.USBH_Init:00000074 $d
C:\Users\Patryk\AppData\Local\Temp\cccHu4h9.s:672    .text.USBH_DeInit:00000000 $t
C:\Users\Patryk\AppData\Local\Temp\cccHu4h9.s:679    .text.USBH_DeInit:00000000 USBH_DeInit
C:\Users\Patryk\AppData\Local\Temp\cccHu4h9.s:719    .text.USBH_RegisterClass:00000000 $t
C:\Users\Patryk\AppData\Local\Temp\cccHu4h9.s:726    .text.USBH_RegisterClass:00000000 USBH_RegisterClass
C:\Users\Patryk\AppData\Local\Temp\cccHu4h9.s:794    .text.USBH_RegisterClass:0000004c $d
C:\Users\Patryk\AppData\Local\Temp\cccHu4h9.s:801    .text.USBH_SelectInterface:00000000 $t
C:\Users\Patryk\AppData\Local\Temp\cccHu4h9.s:808    .text.USBH_SelectInterface:00000000 USBH_SelectInterface
C:\Users\Patryk\AppData\Local\Temp\cccHu4h9.s:890    .text.USBH_SelectInterface:00000070 $d
C:\Users\Patryk\AppData\Local\Temp\cccHu4h9.s:900    .text.USBH_GetActiveClass:00000000 $t
C:\Users\Patryk\AppData\Local\Temp\cccHu4h9.s:907    .text.USBH_GetActiveClass:00000000 USBH_GetActiveClass
C:\Users\Patryk\AppData\Local\Temp\cccHu4h9.s:923    .text.USBH_FindInterface:00000000 $t
C:\Users\Patryk\AppData\Local\Temp\cccHu4h9.s:930    .text.USBH_FindInterface:00000000 USBH_FindInterface
C:\Users\Patryk\AppData\Local\Temp\cccHu4h9.s:1015   .text.USBH_FindInterfaceIndex:00000000 $t
C:\Users\Patryk\AppData\Local\Temp\cccHu4h9.s:1022   .text.USBH_FindInterfaceIndex:00000000 USBH_FindInterfaceIndex
C:\Users\Patryk\AppData\Local\Temp\cccHu4h9.s:1098   .text.USBH_Start:00000000 $t
C:\Users\Patryk\AppData\Local\Temp\cccHu4h9.s:1105   .text.USBH_Start:00000000 USBH_Start
C:\Users\Patryk\AppData\Local\Temp\cccHu4h9.s:1133   .text.USBH_Stop:00000000 $t
C:\Users\Patryk\AppData\Local\Temp\cccHu4h9.s:1140   .text.USBH_Stop:00000000 USBH_Stop
C:\Users\Patryk\AppData\Local\Temp\cccHu4h9.s:1178   .text.USBH_ReEnumerate:00000000 $t
C:\Users\Patryk\AppData\Local\Temp\cccHu4h9.s:1185   .text.USBH_ReEnumerate:00000000 USBH_ReEnumerate
C:\Users\Patryk\AppData\Local\Temp\cccHu4h9.s:1226   .text.USBH_LL_SetTimer:00000000 $t
C:\Users\Patryk\AppData\Local\Temp\cccHu4h9.s:1233   .text.USBH_LL_SetTimer:00000000 USBH_LL_SetTimer
C:\Users\Patryk\AppData\Local\Temp\cccHu4h9.s:1249   .text.USBH_LL_IncTimer:00000000 $t
C:\Users\Patryk\AppData\Local\Temp\cccHu4h9.s:1256   .text.USBH_LL_IncTimer:00000000 USBH_LL_IncTimer
C:\Users\Patryk\AppData\Local\Temp\cccHu4h9.s:1281   .text.USBH_LL_PortEnabled:00000000 $t
C:\Users\Patryk\AppData\Local\Temp\cccHu4h9.s:1288   .text.USBH_LL_PortEnabled:00000000 USBH_LL_PortEnabled
C:\Users\Patryk\AppData\Local\Temp\cccHu4h9.s:1305   .text.USBH_LL_PortDisabled:00000000 $t
C:\Users\Patryk\AppData\Local\Temp\cccHu4h9.s:1312   .text.USBH_LL_PortDisabled:00000000 USBH_LL_PortDisabled
C:\Users\Patryk\AppData\Local\Temp\cccHu4h9.s:1329   .text.USBH_IsPortEnabled:00000000 $t
C:\Users\Patryk\AppData\Local\Temp\cccHu4h9.s:1336   .text.USBH_IsPortEnabled:00000000 USBH_IsPortEnabled
C:\Users\Patryk\AppData\Local\Temp\cccHu4h9.s:1352   .text.USBH_Process:00000000 $t
C:\Users\Patryk\AppData\Local\Temp\cccHu4h9.s:1359   .text.USBH_Process:00000000 USBH_Process
C:\Users\Patryk\AppData\Local\Temp\cccHu4h9.s:1403   .text.USBH_Process:0000002e $d
C:\Users\Patryk\AppData\Local\Temp\cccHu4h9.s:1415   .text.USBH_Process:00000046 $t
C:\Users\Patryk\AppData\Local\Temp\cccHu4h9.s:1826   .text.USBH_Process:000002dc $d
C:\Users\Patryk\AppData\Local\Temp\cccHu4h9.s:1841   .text.USBH_Process_OS:00000000 $t
C:\Users\Patryk\AppData\Local\Temp\cccHu4h9.s:1847   .text.USBH_Process_OS:00000000 USBH_Process_OS
C:\Users\Patryk\AppData\Local\Temp\cccHu4h9.s:1884   .text.USBH_LL_Connect:00000000 $t
C:\Users\Patryk\AppData\Local\Temp\cccHu4h9.s:1891   .text.USBH_LL_Connect:00000000 USBH_LL_Connect
C:\Users\Patryk\AppData\Local\Temp\cccHu4h9.s:1941   .text.USBH_LL_Disconnect:00000000 $t
C:\Users\Patryk\AppData\Local\Temp\cccHu4h9.s:1948   .text.USBH_LL_Disconnect:00000000 USBH_LL_Disconnect
C:\Users\Patryk\AppData\Local\Temp\cccHu4h9.s:2013   .text.USBH_LL_Disconnect:00000050 $d
C:\Users\Patryk\AppData\Local\Temp\cccHu4h9.s:2018   .text.USBH_LL_NotifyURBChange:00000000 $t
ARM GAS  C:\Users\Patryk\AppData\Local\Temp\cccHu4h9.s 			page 64


C:\Users\Patryk\AppData\Local\Temp\cccHu4h9.s:2025   .text.USBH_LL_NotifyURBChange:00000000 USBH_LL_NotifyURBChange
C:\Users\Patryk\AppData\Local\Temp\cccHu4h9.s:2051   .rodata:00000000 $d
C:\Users\Patryk\AppData\Local\Temp\cccHu4h9.s:2064   .rodata.USBH_HandleEnum.str1.4:00000000 $d
C:\Users\Patryk\AppData\Local\Temp\cccHu4h9.s:2091   .rodata.USBH_Init.str1.4:00000000 $d
C:\Users\Patryk\AppData\Local\Temp\cccHu4h9.s:2097   .rodata.USBH_LL_Disconnect.str1.4:00000000 $d
C:\Users\Patryk\AppData\Local\Temp\cccHu4h9.s:2101   .rodata.USBH_Process.str1.4:00000000 $d
C:\Users\Patryk\AppData\Local\Temp\cccHu4h9.s:2130   .rodata.USBH_RegisterClass.str1.4:00000000 $d
C:\Users\Patryk\AppData\Local\Temp\cccHu4h9.s:2137   .rodata.USBH_SelectInterface.str1.4:00000000 $d
C:\Users\Patryk\AppData\Local\Temp\cccHu4h9.s:2153   .rodata.str1.4:00000000 $d

UNDEFINED SYMBOLS
USBH_Get_DevDesc
USBH_OpenPipe
printf
putchar
USBH_SetAddress
USBH_Delay
USBH_Get_CfgDesc
USBH_Get_StringDesc
osMessagePut
osMessageCreate
osThreadCreate
USBH_LL_Init
free
USBH_LL_Stop
USBH_LL_Start
USBH_LL_DriverVBUS
USBH_FreePipe
USBH_LL_ResetPort
USBH_LL_GetSpeed
USBH_AllocPipe
USBH_SetCfg
USBH_SetFeature
osMessageGet
