ARM GAS  C:\Users\Student\AppData\Local\Temp\ccZR2NAu.s 			page 1


   1              		.cpu cortex-m7
   2              		.eabi_attribute 27, 1
   3              		.eabi_attribute 28, 1
   4              		.eabi_attribute 20, 1
   5              		.eabi_attribute 21, 1
   6              		.eabi_attribute 23, 3
   7              		.eabi_attribute 24, 1
   8              		.eabi_attribute 25, 1
   9              		.eabi_attribute 26, 1
  10              		.eabi_attribute 30, 1
  11              		.eabi_attribute 34, 1
  12              		.eabi_attribute 18, 4
  13              		.file	"usbh_core.c"
  14              		.text
  15              	.Ltext0:
  16              		.cfi_sections	.debug_frame
  17              		.section	.text.DeInitStateMachine,"ax",%progbits
  18              		.align	1
  19              		.syntax unified
  20              		.thumb
  21              		.thumb_func
  22              		.fpu fpv5-sp-d16
  24              	DeInitStateMachine:
  25              	.LFB143:
  26              		.file 1 "Middlewares/ST/STM32_USB_Host_Library/Core/Src/usbh_core.c"
   1:Middlewares/ST/STM32_USB_Host_Library/Core/Src/usbh_core.c **** /**
   2:Middlewares/ST/STM32_USB_Host_Library/Core/Src/usbh_core.c ****   ******************************************************************************
   3:Middlewares/ST/STM32_USB_Host_Library/Core/Src/usbh_core.c ****   * @file    usbh_core.c
   4:Middlewares/ST/STM32_USB_Host_Library/Core/Src/usbh_core.c ****   * @author  MCD Application Team
   5:Middlewares/ST/STM32_USB_Host_Library/Core/Src/usbh_core.c ****   * @brief   This file implements the functions for the core state machine process
   6:Middlewares/ST/STM32_USB_Host_Library/Core/Src/usbh_core.c ****   *          the enumeration and the control transfer process
   7:Middlewares/ST/STM32_USB_Host_Library/Core/Src/usbh_core.c ****   ******************************************************************************
   8:Middlewares/ST/STM32_USB_Host_Library/Core/Src/usbh_core.c ****   * @attention
   9:Middlewares/ST/STM32_USB_Host_Library/Core/Src/usbh_core.c ****   *
  10:Middlewares/ST/STM32_USB_Host_Library/Core/Src/usbh_core.c ****   * <h2><center>&copy; Copyright (c) 2017 STMicroelectronics International N.V.
  11:Middlewares/ST/STM32_USB_Host_Library/Core/Src/usbh_core.c ****   * All rights reserved.</center></h2>
  12:Middlewares/ST/STM32_USB_Host_Library/Core/Src/usbh_core.c ****   *
  13:Middlewares/ST/STM32_USB_Host_Library/Core/Src/usbh_core.c ****   * Redistribution and use in source and binary forms, with or without
  14:Middlewares/ST/STM32_USB_Host_Library/Core/Src/usbh_core.c ****   * modification, are permitted, provided that the following conditions are met:
  15:Middlewares/ST/STM32_USB_Host_Library/Core/Src/usbh_core.c ****   *
  16:Middlewares/ST/STM32_USB_Host_Library/Core/Src/usbh_core.c ****   * 1. Redistribution of source code must retain the above copyright notice,
  17:Middlewares/ST/STM32_USB_Host_Library/Core/Src/usbh_core.c ****   *    this list of conditions and the following disclaimer.
  18:Middlewares/ST/STM32_USB_Host_Library/Core/Src/usbh_core.c ****   * 2. Redistributions in binary form must reproduce the above copyright notice,
  19:Middlewares/ST/STM32_USB_Host_Library/Core/Src/usbh_core.c ****   *    this list of conditions and the following disclaimer in the documentation
  20:Middlewares/ST/STM32_USB_Host_Library/Core/Src/usbh_core.c ****   *    and/or other materials provided with the distribution.
  21:Middlewares/ST/STM32_USB_Host_Library/Core/Src/usbh_core.c ****   * 3. Neither the name of STMicroelectronics nor the names of other
  22:Middlewares/ST/STM32_USB_Host_Library/Core/Src/usbh_core.c ****   *    contributors to this software may be used to endorse or promote products
  23:Middlewares/ST/STM32_USB_Host_Library/Core/Src/usbh_core.c ****   *    derived from this software without specific written permission.
  24:Middlewares/ST/STM32_USB_Host_Library/Core/Src/usbh_core.c ****   * 4. This software, including modifications and/or derivative works of this
  25:Middlewares/ST/STM32_USB_Host_Library/Core/Src/usbh_core.c ****   *    software, must execute solely and exclusively on microcontroller or
  26:Middlewares/ST/STM32_USB_Host_Library/Core/Src/usbh_core.c ****   *    microprocessor devices manufactured by or for STMicroelectronics.
  27:Middlewares/ST/STM32_USB_Host_Library/Core/Src/usbh_core.c ****   * 5. Redistribution and use of this software other than as permitted under
  28:Middlewares/ST/STM32_USB_Host_Library/Core/Src/usbh_core.c ****   *    this license is void and will automatically terminate your rights under
  29:Middlewares/ST/STM32_USB_Host_Library/Core/Src/usbh_core.c ****   *    this license.
  30:Middlewares/ST/STM32_USB_Host_Library/Core/Src/usbh_core.c ****   *
  31:Middlewares/ST/STM32_USB_Host_Library/Core/Src/usbh_core.c ****   * THIS SOFTWARE IS PROVIDED BY STMICROELECTRONICS AND CONTRIBUTORS "AS IS"
  32:Middlewares/ST/STM32_USB_Host_Library/Core/Src/usbh_core.c ****   * AND ANY EXPRESS, IMPLIED OR STATUTORY WARRANTIES, INCLUDING, BUT NOT
ARM GAS  C:\Users\Student\AppData\Local\Temp\ccZR2NAu.s 			page 2


  33:Middlewares/ST/STM32_USB_Host_Library/Core/Src/usbh_core.c ****   * LIMITED TO, THE IMPLIED WARRANTIES OF MERCHANTABILITY, FITNESS FOR A
  34:Middlewares/ST/STM32_USB_Host_Library/Core/Src/usbh_core.c ****   * PARTICULAR PURPOSE AND NON-INFRINGEMENT OF THIRD PARTY INTELLECTUAL PROPERTY
  35:Middlewares/ST/STM32_USB_Host_Library/Core/Src/usbh_core.c ****   * RIGHTS ARE DISCLAIMED TO THE FULLEST EXTENT PERMITTED BY LAW. IN NO EVENT
  36:Middlewares/ST/STM32_USB_Host_Library/Core/Src/usbh_core.c ****   * SHALL STMICROELECTRONICS OR CONTRIBUTORS BE LIABLE FOR ANY DIRECT, INDIRECT,
  37:Middlewares/ST/STM32_USB_Host_Library/Core/Src/usbh_core.c ****   * INCIDENTAL, SPECIAL, EXEMPLARY, OR CONSEQUENTIAL DAMAGES (INCLUDING, BUT NOT
  38:Middlewares/ST/STM32_USB_Host_Library/Core/Src/usbh_core.c ****   * LIMITED TO, PROCUREMENT OF SUBSTITUTE GOODS OR SERVICES; LOSS OF USE, DATA,
  39:Middlewares/ST/STM32_USB_Host_Library/Core/Src/usbh_core.c ****   * OR PROFITS; OR BUSINESS INTERRUPTION) HOWEVER CAUSED AND ON ANY THEORY OF
  40:Middlewares/ST/STM32_USB_Host_Library/Core/Src/usbh_core.c ****   * LIABILITY, WHETHER IN CONTRACT, STRICT LIABILITY, OR TORT (INCLUDING
  41:Middlewares/ST/STM32_USB_Host_Library/Core/Src/usbh_core.c ****   * NEGLIGENCE OR OTHERWISE) ARISING IN ANY WAY OUT OF THE USE OF THIS SOFTWARE,
  42:Middlewares/ST/STM32_USB_Host_Library/Core/Src/usbh_core.c ****   * EVEN IF ADVISED OF THE POSSIBILITY OF SUCH DAMAGE.
  43:Middlewares/ST/STM32_USB_Host_Library/Core/Src/usbh_core.c ****   *
  44:Middlewares/ST/STM32_USB_Host_Library/Core/Src/usbh_core.c ****   ******************************************************************************
  45:Middlewares/ST/STM32_USB_Host_Library/Core/Src/usbh_core.c ****   */
  46:Middlewares/ST/STM32_USB_Host_Library/Core/Src/usbh_core.c **** /* Includes ------------------------------------------------------------------*/
  47:Middlewares/ST/STM32_USB_Host_Library/Core/Src/usbh_core.c **** 
  48:Middlewares/ST/STM32_USB_Host_Library/Core/Src/usbh_core.c **** #include "usbh_core.h"
  49:Middlewares/ST/STM32_USB_Host_Library/Core/Src/usbh_core.c **** 
  50:Middlewares/ST/STM32_USB_Host_Library/Core/Src/usbh_core.c **** 
  51:Middlewares/ST/STM32_USB_Host_Library/Core/Src/usbh_core.c **** /** @addtogroup USBH_LIB
  52:Middlewares/ST/STM32_USB_Host_Library/Core/Src/usbh_core.c ****   * @{
  53:Middlewares/ST/STM32_USB_Host_Library/Core/Src/usbh_core.c ****   */
  54:Middlewares/ST/STM32_USB_Host_Library/Core/Src/usbh_core.c **** 
  55:Middlewares/ST/STM32_USB_Host_Library/Core/Src/usbh_core.c **** /** @addtogroup USBH_LIB_CORE
  56:Middlewares/ST/STM32_USB_Host_Library/Core/Src/usbh_core.c ****   * @{
  57:Middlewares/ST/STM32_USB_Host_Library/Core/Src/usbh_core.c ****   */
  58:Middlewares/ST/STM32_USB_Host_Library/Core/Src/usbh_core.c **** 
  59:Middlewares/ST/STM32_USB_Host_Library/Core/Src/usbh_core.c **** /** @defgroup USBH_CORE
  60:Middlewares/ST/STM32_USB_Host_Library/Core/Src/usbh_core.c ****   * @brief This file handles the basic enumeration when a device is connected
  61:Middlewares/ST/STM32_USB_Host_Library/Core/Src/usbh_core.c ****   *          to the host.
  62:Middlewares/ST/STM32_USB_Host_Library/Core/Src/usbh_core.c ****   * @{
  63:Middlewares/ST/STM32_USB_Host_Library/Core/Src/usbh_core.c ****   */
  64:Middlewares/ST/STM32_USB_Host_Library/Core/Src/usbh_core.c **** 
  65:Middlewares/ST/STM32_USB_Host_Library/Core/Src/usbh_core.c **** 
  66:Middlewares/ST/STM32_USB_Host_Library/Core/Src/usbh_core.c **** /** @defgroup USBH_CORE_Private_Defines
  67:Middlewares/ST/STM32_USB_Host_Library/Core/Src/usbh_core.c ****   * @{
  68:Middlewares/ST/STM32_USB_Host_Library/Core/Src/usbh_core.c ****   */
  69:Middlewares/ST/STM32_USB_Host_Library/Core/Src/usbh_core.c **** #define USBH_ADDRESS_DEFAULT                     0x00U
  70:Middlewares/ST/STM32_USB_Host_Library/Core/Src/usbh_core.c **** #define USBH_ADDRESS_ASSIGNED                    0x01U
  71:Middlewares/ST/STM32_USB_Host_Library/Core/Src/usbh_core.c **** #define USBH_MPS_DEFAULT                         0x40U
  72:Middlewares/ST/STM32_USB_Host_Library/Core/Src/usbh_core.c **** /**
  73:Middlewares/ST/STM32_USB_Host_Library/Core/Src/usbh_core.c ****   * @}
  74:Middlewares/ST/STM32_USB_Host_Library/Core/Src/usbh_core.c ****   */
  75:Middlewares/ST/STM32_USB_Host_Library/Core/Src/usbh_core.c **** 
  76:Middlewares/ST/STM32_USB_Host_Library/Core/Src/usbh_core.c **** /** @defgroup USBH_CORE_Private_Macros
  77:Middlewares/ST/STM32_USB_Host_Library/Core/Src/usbh_core.c ****   * @{
  78:Middlewares/ST/STM32_USB_Host_Library/Core/Src/usbh_core.c ****   */
  79:Middlewares/ST/STM32_USB_Host_Library/Core/Src/usbh_core.c **** /**
  80:Middlewares/ST/STM32_USB_Host_Library/Core/Src/usbh_core.c ****   * @}
  81:Middlewares/ST/STM32_USB_Host_Library/Core/Src/usbh_core.c ****   */
  82:Middlewares/ST/STM32_USB_Host_Library/Core/Src/usbh_core.c **** 
  83:Middlewares/ST/STM32_USB_Host_Library/Core/Src/usbh_core.c **** 
  84:Middlewares/ST/STM32_USB_Host_Library/Core/Src/usbh_core.c **** /** @defgroup USBH_CORE_Private_Variables
  85:Middlewares/ST/STM32_USB_Host_Library/Core/Src/usbh_core.c ****   * @{
  86:Middlewares/ST/STM32_USB_Host_Library/Core/Src/usbh_core.c ****   */
  87:Middlewares/ST/STM32_USB_Host_Library/Core/Src/usbh_core.c **** /**
  88:Middlewares/ST/STM32_USB_Host_Library/Core/Src/usbh_core.c ****   * @}
  89:Middlewares/ST/STM32_USB_Host_Library/Core/Src/usbh_core.c ****   */
ARM GAS  C:\Users\Student\AppData\Local\Temp\ccZR2NAu.s 			page 3


  90:Middlewares/ST/STM32_USB_Host_Library/Core/Src/usbh_core.c **** 
  91:Middlewares/ST/STM32_USB_Host_Library/Core/Src/usbh_core.c **** 
  92:Middlewares/ST/STM32_USB_Host_Library/Core/Src/usbh_core.c **** /** @defgroup USBH_CORE_Private_Functions
  93:Middlewares/ST/STM32_USB_Host_Library/Core/Src/usbh_core.c ****   * @{
  94:Middlewares/ST/STM32_USB_Host_Library/Core/Src/usbh_core.c ****   */
  95:Middlewares/ST/STM32_USB_Host_Library/Core/Src/usbh_core.c **** static USBH_StatusTypeDef  USBH_HandleEnum    (USBH_HandleTypeDef *phost);
  96:Middlewares/ST/STM32_USB_Host_Library/Core/Src/usbh_core.c **** static void                USBH_HandleSof     (USBH_HandleTypeDef *phost);
  97:Middlewares/ST/STM32_USB_Host_Library/Core/Src/usbh_core.c **** static USBH_StatusTypeDef  DeInitStateMachine(USBH_HandleTypeDef *phost);
  98:Middlewares/ST/STM32_USB_Host_Library/Core/Src/usbh_core.c **** 
  99:Middlewares/ST/STM32_USB_Host_Library/Core/Src/usbh_core.c **** #if (USBH_USE_OS == 1U)
 100:Middlewares/ST/STM32_USB_Host_Library/Core/Src/usbh_core.c **** static void USBH_Process_OS(void const * argument);
 101:Middlewares/ST/STM32_USB_Host_Library/Core/Src/usbh_core.c **** #endif
 102:Middlewares/ST/STM32_USB_Host_Library/Core/Src/usbh_core.c **** 
 103:Middlewares/ST/STM32_USB_Host_Library/Core/Src/usbh_core.c **** /**
 104:Middlewares/ST/STM32_USB_Host_Library/Core/Src/usbh_core.c ****   * @brief  HCD_Init
 105:Middlewares/ST/STM32_USB_Host_Library/Core/Src/usbh_core.c ****   *         Initialize the HOST Core.
 106:Middlewares/ST/STM32_USB_Host_Library/Core/Src/usbh_core.c ****   * @param  phost: Host Handle
 107:Middlewares/ST/STM32_USB_Host_Library/Core/Src/usbh_core.c ****   * @param  pUsrFunc: User Callback
 108:Middlewares/ST/STM32_USB_Host_Library/Core/Src/usbh_core.c ****   * @retval USBH Status
 109:Middlewares/ST/STM32_USB_Host_Library/Core/Src/usbh_core.c ****   */
 110:Middlewares/ST/STM32_USB_Host_Library/Core/Src/usbh_core.c **** USBH_StatusTypeDef  USBH_Init(USBH_HandleTypeDef *phost, void (*pUsrFunc)(USBH_HandleTypeDef *phost
 111:Middlewares/ST/STM32_USB_Host_Library/Core/Src/usbh_core.c **** {
 112:Middlewares/ST/STM32_USB_Host_Library/Core/Src/usbh_core.c ****   /* Check whether the USB Host handle is valid */
 113:Middlewares/ST/STM32_USB_Host_Library/Core/Src/usbh_core.c ****   if(phost == NULL)
 114:Middlewares/ST/STM32_USB_Host_Library/Core/Src/usbh_core.c ****   {
 115:Middlewares/ST/STM32_USB_Host_Library/Core/Src/usbh_core.c ****     USBH_ErrLog("Invalid Host handle");
 116:Middlewares/ST/STM32_USB_Host_Library/Core/Src/usbh_core.c ****     return USBH_FAIL;
 117:Middlewares/ST/STM32_USB_Host_Library/Core/Src/usbh_core.c ****   }
 118:Middlewares/ST/STM32_USB_Host_Library/Core/Src/usbh_core.c **** 
 119:Middlewares/ST/STM32_USB_Host_Library/Core/Src/usbh_core.c ****   /* Set DRiver ID */
 120:Middlewares/ST/STM32_USB_Host_Library/Core/Src/usbh_core.c ****   phost->id = id;
 121:Middlewares/ST/STM32_USB_Host_Library/Core/Src/usbh_core.c **** 
 122:Middlewares/ST/STM32_USB_Host_Library/Core/Src/usbh_core.c ****   /* Unlink class*/
 123:Middlewares/ST/STM32_USB_Host_Library/Core/Src/usbh_core.c ****   phost->pActiveClass = NULL;
 124:Middlewares/ST/STM32_USB_Host_Library/Core/Src/usbh_core.c ****   phost->ClassNumber = 0U;
 125:Middlewares/ST/STM32_USB_Host_Library/Core/Src/usbh_core.c **** 
 126:Middlewares/ST/STM32_USB_Host_Library/Core/Src/usbh_core.c ****   /* Restore default states and prepare EP0 */
 127:Middlewares/ST/STM32_USB_Host_Library/Core/Src/usbh_core.c ****   DeInitStateMachine(phost);
 128:Middlewares/ST/STM32_USB_Host_Library/Core/Src/usbh_core.c **** 
 129:Middlewares/ST/STM32_USB_Host_Library/Core/Src/usbh_core.c ****   /* Assign User process */
 130:Middlewares/ST/STM32_USB_Host_Library/Core/Src/usbh_core.c ****   if(pUsrFunc != NULL)
 131:Middlewares/ST/STM32_USB_Host_Library/Core/Src/usbh_core.c ****   {
 132:Middlewares/ST/STM32_USB_Host_Library/Core/Src/usbh_core.c ****     phost->pUser = pUsrFunc;
 133:Middlewares/ST/STM32_USB_Host_Library/Core/Src/usbh_core.c ****   }
 134:Middlewares/ST/STM32_USB_Host_Library/Core/Src/usbh_core.c **** 
 135:Middlewares/ST/STM32_USB_Host_Library/Core/Src/usbh_core.c **** #if (USBH_USE_OS == 1U)
 136:Middlewares/ST/STM32_USB_Host_Library/Core/Src/usbh_core.c **** 
 137:Middlewares/ST/STM32_USB_Host_Library/Core/Src/usbh_core.c ****   /* Create USB Host Queue */
 138:Middlewares/ST/STM32_USB_Host_Library/Core/Src/usbh_core.c ****   osMessageQDef(USBH_Queue, 10, uint16_t);
 139:Middlewares/ST/STM32_USB_Host_Library/Core/Src/usbh_core.c ****   phost->os_event = osMessageCreate (osMessageQ(USBH_Queue), NULL);
 140:Middlewares/ST/STM32_USB_Host_Library/Core/Src/usbh_core.c **** 
 141:Middlewares/ST/STM32_USB_Host_Library/Core/Src/usbh_core.c ****   /*Create USB Host Task */
 142:Middlewares/ST/STM32_USB_Host_Library/Core/Src/usbh_core.c **** #if defined (USBH_PROCESS_STACK_SIZE)
 143:Middlewares/ST/STM32_USB_Host_Library/Core/Src/usbh_core.c ****   osThreadDef(USBH_Thread, USBH_Process_OS, USBH_PROCESS_PRIO, 0, USBH_PROCESS_STACK_SIZE);
 144:Middlewares/ST/STM32_USB_Host_Library/Core/Src/usbh_core.c **** #else
 145:Middlewares/ST/STM32_USB_Host_Library/Core/Src/usbh_core.c ****   osThreadDef(USBH_Thread, USBH_Process_OS, USBH_PROCESS_PRIO, 0, 8 * configMINIMAL_STACK_SIZE);
 146:Middlewares/ST/STM32_USB_Host_Library/Core/Src/usbh_core.c **** #endif
ARM GAS  C:\Users\Student\AppData\Local\Temp\ccZR2NAu.s 			page 4


 147:Middlewares/ST/STM32_USB_Host_Library/Core/Src/usbh_core.c ****   phost->thread = osThreadCreate (osThread(USBH_Thread), phost);
 148:Middlewares/ST/STM32_USB_Host_Library/Core/Src/usbh_core.c **** #endif
 149:Middlewares/ST/STM32_USB_Host_Library/Core/Src/usbh_core.c **** 
 150:Middlewares/ST/STM32_USB_Host_Library/Core/Src/usbh_core.c ****   /* Initialize low level driver */
 151:Middlewares/ST/STM32_USB_Host_Library/Core/Src/usbh_core.c ****   USBH_LL_Init(phost);
 152:Middlewares/ST/STM32_USB_Host_Library/Core/Src/usbh_core.c ****   return USBH_OK;
 153:Middlewares/ST/STM32_USB_Host_Library/Core/Src/usbh_core.c **** }
 154:Middlewares/ST/STM32_USB_Host_Library/Core/Src/usbh_core.c **** 
 155:Middlewares/ST/STM32_USB_Host_Library/Core/Src/usbh_core.c **** /**
 156:Middlewares/ST/STM32_USB_Host_Library/Core/Src/usbh_core.c ****   * @brief  HCD_Init
 157:Middlewares/ST/STM32_USB_Host_Library/Core/Src/usbh_core.c ****   *         De-Initialize the Host portion of the driver.
 158:Middlewares/ST/STM32_USB_Host_Library/Core/Src/usbh_core.c ****   * @param  phost: Host Handle
 159:Middlewares/ST/STM32_USB_Host_Library/Core/Src/usbh_core.c ****   * @retval USBH Status
 160:Middlewares/ST/STM32_USB_Host_Library/Core/Src/usbh_core.c ****   */
 161:Middlewares/ST/STM32_USB_Host_Library/Core/Src/usbh_core.c **** USBH_StatusTypeDef  USBH_DeInit(USBH_HandleTypeDef *phost)
 162:Middlewares/ST/STM32_USB_Host_Library/Core/Src/usbh_core.c **** {
 163:Middlewares/ST/STM32_USB_Host_Library/Core/Src/usbh_core.c ****   DeInitStateMachine(phost);
 164:Middlewares/ST/STM32_USB_Host_Library/Core/Src/usbh_core.c **** 
 165:Middlewares/ST/STM32_USB_Host_Library/Core/Src/usbh_core.c ****   if(phost->pData != NULL)
 166:Middlewares/ST/STM32_USB_Host_Library/Core/Src/usbh_core.c ****   {
 167:Middlewares/ST/STM32_USB_Host_Library/Core/Src/usbh_core.c ****     USBH_free (phost->pActiveClass->pData);
 168:Middlewares/ST/STM32_USB_Host_Library/Core/Src/usbh_core.c ****     phost->pActiveClass->pData = NULL;
 169:Middlewares/ST/STM32_USB_Host_Library/Core/Src/usbh_core.c ****     USBH_LL_Stop(phost);
 170:Middlewares/ST/STM32_USB_Host_Library/Core/Src/usbh_core.c ****   }
 171:Middlewares/ST/STM32_USB_Host_Library/Core/Src/usbh_core.c **** 
 172:Middlewares/ST/STM32_USB_Host_Library/Core/Src/usbh_core.c ****   return USBH_OK;
 173:Middlewares/ST/STM32_USB_Host_Library/Core/Src/usbh_core.c **** }
 174:Middlewares/ST/STM32_USB_Host_Library/Core/Src/usbh_core.c **** 
 175:Middlewares/ST/STM32_USB_Host_Library/Core/Src/usbh_core.c **** /**
 176:Middlewares/ST/STM32_USB_Host_Library/Core/Src/usbh_core.c ****   * @brief  DeInitStateMachine
 177:Middlewares/ST/STM32_USB_Host_Library/Core/Src/usbh_core.c ****   *         De-Initialize the Host state machine.
 178:Middlewares/ST/STM32_USB_Host_Library/Core/Src/usbh_core.c ****   * @param  phost: Host Handle
 179:Middlewares/ST/STM32_USB_Host_Library/Core/Src/usbh_core.c ****   * @retval USBH Status
 180:Middlewares/ST/STM32_USB_Host_Library/Core/Src/usbh_core.c ****   */
 181:Middlewares/ST/STM32_USB_Host_Library/Core/Src/usbh_core.c **** static USBH_StatusTypeDef  DeInitStateMachine(USBH_HandleTypeDef *phost)
 182:Middlewares/ST/STM32_USB_Host_Library/Core/Src/usbh_core.c **** {
  27              		.loc 1 182 0
  28              		.cfi_startproc
  29              		@ args = 0, pretend = 0, frame = 0
  30              		@ frame_needed = 0, uses_anonymous_args = 0
  31              		@ link register save eliminated.
  32              	.LVL0:
 183:Middlewares/ST/STM32_USB_Host_Library/Core/Src/usbh_core.c ****   uint32_t i = 0U;
  33              		.loc 1 183 0
  34 0000 0023     		movs	r3, #0
 184:Middlewares/ST/STM32_USB_Host_Library/Core/Src/usbh_core.c **** 
 185:Middlewares/ST/STM32_USB_Host_Library/Core/Src/usbh_core.c ****   /* Clear Pipes flags*/
 186:Middlewares/ST/STM32_USB_Host_Library/Core/Src/usbh_core.c ****   for ( ; i < USBH_MAX_PIPES_NBR; i++)
  35              		.loc 1 186 0
  36 0002 05E0     		b	.L2
  37              	.LVL1:
  38              	.L3:
 187:Middlewares/ST/STM32_USB_Host_Library/Core/Src/usbh_core.c ****   {
 188:Middlewares/ST/STM32_USB_Host_Library/Core/Src/usbh_core.c ****     phost->Pipes[i] = 0U;
  39              		.loc 1 188 0 discriminator 2
  40 0004 03F1E002 		add	r2, r3, #224
  41 0008 0021     		movs	r1, #0
ARM GAS  C:\Users\Student\AppData\Local\Temp\ccZR2NAu.s 			page 5


  42 000a 40F82210 		str	r1, [r0, r2, lsl #2]
 186:Middlewares/ST/STM32_USB_Host_Library/Core/Src/usbh_core.c ****   {
  43              		.loc 1 186 0 discriminator 2
  44 000e 0133     		adds	r3, r3, #1
  45              	.LVL2:
  46              	.L2:
 186:Middlewares/ST/STM32_USB_Host_Library/Core/Src/usbh_core.c ****   {
  47              		.loc 1 186 0 is_stmt 0 discriminator 1
  48 0010 0E2B     		cmp	r3, #14
  49 0012 F7D9     		bls	.L3
  50 0014 0023     		movs	r3, #0
  51              	.LVL3:
  52 0016 04E0     		b	.L4
  53              	.LVL4:
  54              	.L5:
 189:Middlewares/ST/STM32_USB_Host_Library/Core/Src/usbh_core.c ****   }
 190:Middlewares/ST/STM32_USB_Host_Library/Core/Src/usbh_core.c **** 
 191:Middlewares/ST/STM32_USB_Host_Library/Core/Src/usbh_core.c ****   for(i = 0U; i< USBH_MAX_DATA_BUFFER; i++)
 192:Middlewares/ST/STM32_USB_Host_Library/Core/Src/usbh_core.c ****   {
 193:Middlewares/ST/STM32_USB_Host_Library/Core/Src/usbh_core.c ****     phost->device.Data[i] = 0U;
  55              		.loc 1 193 0 is_stmt 1 discriminator 3
  56 0018 C218     		adds	r2, r0, r3
  57 001a 0021     		movs	r1, #0
  58 001c 82F81C11 		strb	r1, [r2, #284]
 191:Middlewares/ST/STM32_USB_Host_Library/Core/Src/usbh_core.c ****   {
  59              		.loc 1 191 0 discriminator 3
  60 0020 0133     		adds	r3, r3, #1
  61              	.LVL5:
  62              	.L4:
 191:Middlewares/ST/STM32_USB_Host_Library/Core/Src/usbh_core.c ****   {
  63              		.loc 1 191 0 is_stmt 0 discriminator 1
  64 0022 B3F5007F 		cmp	r3, #512
  65 0026 F7D3     		bcc	.L5
 194:Middlewares/ST/STM32_USB_Host_Library/Core/Src/usbh_core.c ****   }
 195:Middlewares/ST/STM32_USB_Host_Library/Core/Src/usbh_core.c **** 
 196:Middlewares/ST/STM32_USB_Host_Library/Core/Src/usbh_core.c ****   phost->gState = HOST_IDLE;
  66              		.loc 1 196 0 is_stmt 1
  67 0028 0023     		movs	r3, #0
  68              	.LVL6:
  69 002a 0370     		strb	r3, [r0]
 197:Middlewares/ST/STM32_USB_Host_Library/Core/Src/usbh_core.c ****   phost->EnumState = ENUM_IDLE;
  70              		.loc 1 197 0
  71 002c 4370     		strb	r3, [r0, #1]
 198:Middlewares/ST/STM32_USB_Host_Library/Core/Src/usbh_core.c ****   phost->RequestState = CMD_SEND;
  72              		.loc 1 198 0
  73 002e 0122     		movs	r2, #1
  74 0030 8270     		strb	r2, [r0, #2]
 199:Middlewares/ST/STM32_USB_Host_Library/Core/Src/usbh_core.c ****   phost->Timer = 0U;
  75              		.loc 1 199 0
  76 0032 C0F8BC33 		str	r3, [r0, #956]
 200:Middlewares/ST/STM32_USB_Host_Library/Core/Src/usbh_core.c **** 
 201:Middlewares/ST/STM32_USB_Host_Library/Core/Src/usbh_core.c ****   phost->Control.state = CTRL_SETUP;
  77              		.loc 1 201 0
  78 0036 0276     		strb	r2, [r0, #24]
 202:Middlewares/ST/STM32_USB_Host_Library/Core/Src/usbh_core.c ****   phost->Control.pipe_size = USBH_MPS_DEFAULT;
  79              		.loc 1 202 0
  80 0038 4021     		movs	r1, #64
ARM GAS  C:\Users\Student\AppData\Local\Temp\ccZR2NAu.s 			page 6


  81 003a 8171     		strb	r1, [r0, #6]
 203:Middlewares/ST/STM32_USB_Host_Library/Core/Src/usbh_core.c ****   phost->Control.errorcount = 0U;
  82              		.loc 1 203 0
  83 003c 4376     		strb	r3, [r0, #25]
 204:Middlewares/ST/STM32_USB_Host_Library/Core/Src/usbh_core.c **** 
 205:Middlewares/ST/STM32_USB_Host_Library/Core/Src/usbh_core.c ****   phost->device.address = USBH_ADDRESS_DEFAULT;
  84              		.loc 1 205 0
  85 003e 80F81C33 		strb	r3, [r0, #796]
 206:Middlewares/ST/STM32_USB_Host_Library/Core/Src/usbh_core.c ****   phost->device.speed   = USBH_SPEED_FULL;
  86              		.loc 1 206 0
  87 0042 80F81D23 		strb	r2, [r0, #797]
 207:Middlewares/ST/STM32_USB_Host_Library/Core/Src/usbh_core.c **** 
 208:Middlewares/ST/STM32_USB_Host_Library/Core/Src/usbh_core.c ****   return USBH_OK;
 209:Middlewares/ST/STM32_USB_Host_Library/Core/Src/usbh_core.c **** }
  88              		.loc 1 209 0
  89 0046 1846     		mov	r0, r3
  90              	.LVL7:
  91 0048 7047     		bx	lr
  92              		.cfi_endproc
  93              	.LFE143:
  95              		.section	.text.USBH_HandleSof,"ax",%progbits
  96              		.align	1
  97              		.syntax unified
  98              		.thumb
  99              		.thumb_func
 100              		.fpu fpv5-sp-d16
 102              	USBH_HandleSof:
 103              	.LFB156:
 210:Middlewares/ST/STM32_USB_Host_Library/Core/Src/usbh_core.c **** 
 211:Middlewares/ST/STM32_USB_Host_Library/Core/Src/usbh_core.c **** /**
 212:Middlewares/ST/STM32_USB_Host_Library/Core/Src/usbh_core.c ****   * @brief  USBH_RegisterClass
 213:Middlewares/ST/STM32_USB_Host_Library/Core/Src/usbh_core.c ****   *         Link class driver to Host Core.
 214:Middlewares/ST/STM32_USB_Host_Library/Core/Src/usbh_core.c ****   * @param  phost : Host Handle
 215:Middlewares/ST/STM32_USB_Host_Library/Core/Src/usbh_core.c ****   * @param  pclass: Class handle
 216:Middlewares/ST/STM32_USB_Host_Library/Core/Src/usbh_core.c ****   * @retval USBH Status
 217:Middlewares/ST/STM32_USB_Host_Library/Core/Src/usbh_core.c ****   */
 218:Middlewares/ST/STM32_USB_Host_Library/Core/Src/usbh_core.c **** USBH_StatusTypeDef  USBH_RegisterClass(USBH_HandleTypeDef *phost, USBH_ClassTypeDef *pclass)
 219:Middlewares/ST/STM32_USB_Host_Library/Core/Src/usbh_core.c **** {
 220:Middlewares/ST/STM32_USB_Host_Library/Core/Src/usbh_core.c ****   USBH_StatusTypeDef   status = USBH_OK;
 221:Middlewares/ST/STM32_USB_Host_Library/Core/Src/usbh_core.c **** 
 222:Middlewares/ST/STM32_USB_Host_Library/Core/Src/usbh_core.c ****   if(pclass != 0)
 223:Middlewares/ST/STM32_USB_Host_Library/Core/Src/usbh_core.c ****   {
 224:Middlewares/ST/STM32_USB_Host_Library/Core/Src/usbh_core.c ****     if(phost->ClassNumber < USBH_MAX_NUM_SUPPORTED_CLASS)
 225:Middlewares/ST/STM32_USB_Host_Library/Core/Src/usbh_core.c ****     {
 226:Middlewares/ST/STM32_USB_Host_Library/Core/Src/usbh_core.c ****       /* link the class to the USB Host handle */
 227:Middlewares/ST/STM32_USB_Host_Library/Core/Src/usbh_core.c ****       phost->pClass[phost->ClassNumber++] = pclass;
 228:Middlewares/ST/STM32_USB_Host_Library/Core/Src/usbh_core.c ****       status = USBH_OK;
 229:Middlewares/ST/STM32_USB_Host_Library/Core/Src/usbh_core.c ****     }
 230:Middlewares/ST/STM32_USB_Host_Library/Core/Src/usbh_core.c ****     else
 231:Middlewares/ST/STM32_USB_Host_Library/Core/Src/usbh_core.c ****     {
 232:Middlewares/ST/STM32_USB_Host_Library/Core/Src/usbh_core.c ****       USBH_ErrLog("Max Class Number reached");
 233:Middlewares/ST/STM32_USB_Host_Library/Core/Src/usbh_core.c ****       status = USBH_FAIL;
 234:Middlewares/ST/STM32_USB_Host_Library/Core/Src/usbh_core.c ****     }
 235:Middlewares/ST/STM32_USB_Host_Library/Core/Src/usbh_core.c ****   }
 236:Middlewares/ST/STM32_USB_Host_Library/Core/Src/usbh_core.c ****   else
 237:Middlewares/ST/STM32_USB_Host_Library/Core/Src/usbh_core.c ****   {
 238:Middlewares/ST/STM32_USB_Host_Library/Core/Src/usbh_core.c ****     USBH_ErrLog("Invalid Class handle");
ARM GAS  C:\Users\Student\AppData\Local\Temp\ccZR2NAu.s 			page 7


 239:Middlewares/ST/STM32_USB_Host_Library/Core/Src/usbh_core.c ****     status = USBH_FAIL;
 240:Middlewares/ST/STM32_USB_Host_Library/Core/Src/usbh_core.c ****   }
 241:Middlewares/ST/STM32_USB_Host_Library/Core/Src/usbh_core.c **** 
 242:Middlewares/ST/STM32_USB_Host_Library/Core/Src/usbh_core.c ****   return status;
 243:Middlewares/ST/STM32_USB_Host_Library/Core/Src/usbh_core.c **** }
 244:Middlewares/ST/STM32_USB_Host_Library/Core/Src/usbh_core.c **** 
 245:Middlewares/ST/STM32_USB_Host_Library/Core/Src/usbh_core.c **** /**
 246:Middlewares/ST/STM32_USB_Host_Library/Core/Src/usbh_core.c ****   * @brief  USBH_SelectInterface
 247:Middlewares/ST/STM32_USB_Host_Library/Core/Src/usbh_core.c ****   *         Select current interface.
 248:Middlewares/ST/STM32_USB_Host_Library/Core/Src/usbh_core.c ****   * @param  phost: Host Handle
 249:Middlewares/ST/STM32_USB_Host_Library/Core/Src/usbh_core.c ****   * @param  interface: Interface number
 250:Middlewares/ST/STM32_USB_Host_Library/Core/Src/usbh_core.c ****   * @retval USBH Status
 251:Middlewares/ST/STM32_USB_Host_Library/Core/Src/usbh_core.c ****   */
 252:Middlewares/ST/STM32_USB_Host_Library/Core/Src/usbh_core.c **** USBH_StatusTypeDef USBH_SelectInterface(USBH_HandleTypeDef *phost, uint8_t interface)
 253:Middlewares/ST/STM32_USB_Host_Library/Core/Src/usbh_core.c **** {
 254:Middlewares/ST/STM32_USB_Host_Library/Core/Src/usbh_core.c ****   USBH_StatusTypeDef   status = USBH_OK;
 255:Middlewares/ST/STM32_USB_Host_Library/Core/Src/usbh_core.c **** 
 256:Middlewares/ST/STM32_USB_Host_Library/Core/Src/usbh_core.c ****   if(interface < phost->device.CfgDesc.bNumInterfaces)
 257:Middlewares/ST/STM32_USB_Host_Library/Core/Src/usbh_core.c ****   {
 258:Middlewares/ST/STM32_USB_Host_Library/Core/Src/usbh_core.c ****     phost->device.current_interface = interface;
 259:Middlewares/ST/STM32_USB_Host_Library/Core/Src/usbh_core.c ****     USBH_UsrLog ("Switching to Interface (#%d)", interface);
 260:Middlewares/ST/STM32_USB_Host_Library/Core/Src/usbh_core.c ****     USBH_UsrLog ("Class    : %xh", phost->device.CfgDesc.Itf_Desc[interface].bInterfaceClass );
 261:Middlewares/ST/STM32_USB_Host_Library/Core/Src/usbh_core.c ****     USBH_UsrLog ("SubClass : %xh", phost->device.CfgDesc.Itf_Desc[interface].bInterfaceSubClass );
 262:Middlewares/ST/STM32_USB_Host_Library/Core/Src/usbh_core.c ****     USBH_UsrLog ("Protocol : %xh", phost->device.CfgDesc.Itf_Desc[interface].bInterfaceProtocol );
 263:Middlewares/ST/STM32_USB_Host_Library/Core/Src/usbh_core.c ****   }
 264:Middlewares/ST/STM32_USB_Host_Library/Core/Src/usbh_core.c ****   else
 265:Middlewares/ST/STM32_USB_Host_Library/Core/Src/usbh_core.c ****   {
 266:Middlewares/ST/STM32_USB_Host_Library/Core/Src/usbh_core.c ****     USBH_ErrLog ("Cannot Select This Interface.");
 267:Middlewares/ST/STM32_USB_Host_Library/Core/Src/usbh_core.c ****     status = USBH_FAIL;
 268:Middlewares/ST/STM32_USB_Host_Library/Core/Src/usbh_core.c ****   }
 269:Middlewares/ST/STM32_USB_Host_Library/Core/Src/usbh_core.c ****   return status;
 270:Middlewares/ST/STM32_USB_Host_Library/Core/Src/usbh_core.c **** }
 271:Middlewares/ST/STM32_USB_Host_Library/Core/Src/usbh_core.c **** 
 272:Middlewares/ST/STM32_USB_Host_Library/Core/Src/usbh_core.c **** /**
 273:Middlewares/ST/STM32_USB_Host_Library/Core/Src/usbh_core.c ****   * @brief  USBH_GetActiveClass
 274:Middlewares/ST/STM32_USB_Host_Library/Core/Src/usbh_core.c ****   *         Return Device Class.
 275:Middlewares/ST/STM32_USB_Host_Library/Core/Src/usbh_core.c ****   * @param  phost: Host Handle
 276:Middlewares/ST/STM32_USB_Host_Library/Core/Src/usbh_core.c ****   * @param  interface: Interface index
 277:Middlewares/ST/STM32_USB_Host_Library/Core/Src/usbh_core.c ****   * @retval Class Code
 278:Middlewares/ST/STM32_USB_Host_Library/Core/Src/usbh_core.c ****   */
 279:Middlewares/ST/STM32_USB_Host_Library/Core/Src/usbh_core.c **** uint8_t USBH_GetActiveClass(USBH_HandleTypeDef *phost)
 280:Middlewares/ST/STM32_USB_Host_Library/Core/Src/usbh_core.c **** {
 281:Middlewares/ST/STM32_USB_Host_Library/Core/Src/usbh_core.c ****    return (phost->device.CfgDesc.Itf_Desc[0].bInterfaceClass);
 282:Middlewares/ST/STM32_USB_Host_Library/Core/Src/usbh_core.c **** }
 283:Middlewares/ST/STM32_USB_Host_Library/Core/Src/usbh_core.c **** /**
 284:Middlewares/ST/STM32_USB_Host_Library/Core/Src/usbh_core.c ****   * @brief  USBH_FindInterface
 285:Middlewares/ST/STM32_USB_Host_Library/Core/Src/usbh_core.c ****   *         Find the interface index for a specific class.
 286:Middlewares/ST/STM32_USB_Host_Library/Core/Src/usbh_core.c ****   * @param  phost: Host Handle
 287:Middlewares/ST/STM32_USB_Host_Library/Core/Src/usbh_core.c ****   * @param  Class: Class code
 288:Middlewares/ST/STM32_USB_Host_Library/Core/Src/usbh_core.c ****   * @param  SubClass: SubClass code
 289:Middlewares/ST/STM32_USB_Host_Library/Core/Src/usbh_core.c ****   * @param  Protocol: Protocol code
 290:Middlewares/ST/STM32_USB_Host_Library/Core/Src/usbh_core.c ****   * @retval interface index in the configuration structure
 291:Middlewares/ST/STM32_USB_Host_Library/Core/Src/usbh_core.c ****   * @note : (1)interface index 0xFF means interface index not found
 292:Middlewares/ST/STM32_USB_Host_Library/Core/Src/usbh_core.c ****   */
 293:Middlewares/ST/STM32_USB_Host_Library/Core/Src/usbh_core.c **** uint8_t  USBH_FindInterface(USBH_HandleTypeDef *phost, uint8_t Class, uint8_t SubClass, uint8_t Pro
 294:Middlewares/ST/STM32_USB_Host_Library/Core/Src/usbh_core.c **** {
 295:Middlewares/ST/STM32_USB_Host_Library/Core/Src/usbh_core.c ****   USBH_InterfaceDescTypeDef    *pif ;
ARM GAS  C:\Users\Student\AppData\Local\Temp\ccZR2NAu.s 			page 8


 296:Middlewares/ST/STM32_USB_Host_Library/Core/Src/usbh_core.c ****   USBH_CfgDescTypeDef          *pcfg ;
 297:Middlewares/ST/STM32_USB_Host_Library/Core/Src/usbh_core.c ****   uint8_t                        if_ix = 0U;
 298:Middlewares/ST/STM32_USB_Host_Library/Core/Src/usbh_core.c **** 
 299:Middlewares/ST/STM32_USB_Host_Library/Core/Src/usbh_core.c ****   pif = (USBH_InterfaceDescTypeDef *)0;
 300:Middlewares/ST/STM32_USB_Host_Library/Core/Src/usbh_core.c ****   pcfg = &phost->device.CfgDesc;
 301:Middlewares/ST/STM32_USB_Host_Library/Core/Src/usbh_core.c **** 
 302:Middlewares/ST/STM32_USB_Host_Library/Core/Src/usbh_core.c ****   while (if_ix < USBH_MAX_NUM_INTERFACES)
 303:Middlewares/ST/STM32_USB_Host_Library/Core/Src/usbh_core.c ****   {
 304:Middlewares/ST/STM32_USB_Host_Library/Core/Src/usbh_core.c ****     pif = &pcfg->Itf_Desc[if_ix];
 305:Middlewares/ST/STM32_USB_Host_Library/Core/Src/usbh_core.c ****     if(((pif->bInterfaceClass == Class) || (Class == 0xFFU))&&
 306:Middlewares/ST/STM32_USB_Host_Library/Core/Src/usbh_core.c ****        ((pif->bInterfaceSubClass == SubClass) || (SubClass == 0xFFU))&&
 307:Middlewares/ST/STM32_USB_Host_Library/Core/Src/usbh_core.c ****          ((pif->bInterfaceProtocol == Protocol) || (Protocol == 0xFFU)))
 308:Middlewares/ST/STM32_USB_Host_Library/Core/Src/usbh_core.c ****     {
 309:Middlewares/ST/STM32_USB_Host_Library/Core/Src/usbh_core.c ****       return  if_ix;
 310:Middlewares/ST/STM32_USB_Host_Library/Core/Src/usbh_core.c ****     }
 311:Middlewares/ST/STM32_USB_Host_Library/Core/Src/usbh_core.c ****     if_ix++;
 312:Middlewares/ST/STM32_USB_Host_Library/Core/Src/usbh_core.c ****   }
 313:Middlewares/ST/STM32_USB_Host_Library/Core/Src/usbh_core.c ****   return 0xFFU;
 314:Middlewares/ST/STM32_USB_Host_Library/Core/Src/usbh_core.c **** }
 315:Middlewares/ST/STM32_USB_Host_Library/Core/Src/usbh_core.c **** 
 316:Middlewares/ST/STM32_USB_Host_Library/Core/Src/usbh_core.c **** /**
 317:Middlewares/ST/STM32_USB_Host_Library/Core/Src/usbh_core.c ****   * @brief  USBH_FindInterfaceIndex
 318:Middlewares/ST/STM32_USB_Host_Library/Core/Src/usbh_core.c ****   *         Find the interface index for a specific class interface and alternate setting number.
 319:Middlewares/ST/STM32_USB_Host_Library/Core/Src/usbh_core.c ****   * @param  phost: Host Handle
 320:Middlewares/ST/STM32_USB_Host_Library/Core/Src/usbh_core.c ****   * @param  interface_number: interface number
 321:Middlewares/ST/STM32_USB_Host_Library/Core/Src/usbh_core.c ****   * @param  alt_settings    : alternate setting number
 322:Middlewares/ST/STM32_USB_Host_Library/Core/Src/usbh_core.c ****   * @retval interface index in the configuration structure
 323:Middlewares/ST/STM32_USB_Host_Library/Core/Src/usbh_core.c ****   * @note : (1)interface index 0xFF means interface index not found
 324:Middlewares/ST/STM32_USB_Host_Library/Core/Src/usbh_core.c ****   */
 325:Middlewares/ST/STM32_USB_Host_Library/Core/Src/usbh_core.c **** uint8_t  USBH_FindInterfaceIndex(USBH_HandleTypeDef *phost, uint8_t interface_number, uint8_t alt_s
 326:Middlewares/ST/STM32_USB_Host_Library/Core/Src/usbh_core.c **** {
 327:Middlewares/ST/STM32_USB_Host_Library/Core/Src/usbh_core.c ****   USBH_InterfaceDescTypeDef    *pif ;
 328:Middlewares/ST/STM32_USB_Host_Library/Core/Src/usbh_core.c ****   USBH_CfgDescTypeDef          *pcfg ;
 329:Middlewares/ST/STM32_USB_Host_Library/Core/Src/usbh_core.c ****   uint8_t                        if_ix = 0U;
 330:Middlewares/ST/STM32_USB_Host_Library/Core/Src/usbh_core.c **** 
 331:Middlewares/ST/STM32_USB_Host_Library/Core/Src/usbh_core.c ****   pif = (USBH_InterfaceDescTypeDef *)0;
 332:Middlewares/ST/STM32_USB_Host_Library/Core/Src/usbh_core.c ****   pcfg = &phost->device.CfgDesc;
 333:Middlewares/ST/STM32_USB_Host_Library/Core/Src/usbh_core.c **** 
 334:Middlewares/ST/STM32_USB_Host_Library/Core/Src/usbh_core.c ****   while (if_ix < USBH_MAX_NUM_INTERFACES)
 335:Middlewares/ST/STM32_USB_Host_Library/Core/Src/usbh_core.c ****   {
 336:Middlewares/ST/STM32_USB_Host_Library/Core/Src/usbh_core.c ****     pif = &pcfg->Itf_Desc[if_ix];
 337:Middlewares/ST/STM32_USB_Host_Library/Core/Src/usbh_core.c ****     if((pif->bInterfaceNumber == interface_number) && (pif->bAlternateSetting == alt_settings))
 338:Middlewares/ST/STM32_USB_Host_Library/Core/Src/usbh_core.c ****     {
 339:Middlewares/ST/STM32_USB_Host_Library/Core/Src/usbh_core.c ****       return  if_ix;
 340:Middlewares/ST/STM32_USB_Host_Library/Core/Src/usbh_core.c ****     }
 341:Middlewares/ST/STM32_USB_Host_Library/Core/Src/usbh_core.c ****     if_ix++;
 342:Middlewares/ST/STM32_USB_Host_Library/Core/Src/usbh_core.c ****   }
 343:Middlewares/ST/STM32_USB_Host_Library/Core/Src/usbh_core.c ****   return 0xFFU;
 344:Middlewares/ST/STM32_USB_Host_Library/Core/Src/usbh_core.c **** }
 345:Middlewares/ST/STM32_USB_Host_Library/Core/Src/usbh_core.c **** 
 346:Middlewares/ST/STM32_USB_Host_Library/Core/Src/usbh_core.c **** /**
 347:Middlewares/ST/STM32_USB_Host_Library/Core/Src/usbh_core.c ****   * @brief  USBH_Start
 348:Middlewares/ST/STM32_USB_Host_Library/Core/Src/usbh_core.c ****   *         Start the USB Host Core.
 349:Middlewares/ST/STM32_USB_Host_Library/Core/Src/usbh_core.c ****   * @param  phost: Host Handle
 350:Middlewares/ST/STM32_USB_Host_Library/Core/Src/usbh_core.c ****   * @retval USBH Status
 351:Middlewares/ST/STM32_USB_Host_Library/Core/Src/usbh_core.c ****   */
 352:Middlewares/ST/STM32_USB_Host_Library/Core/Src/usbh_core.c **** USBH_StatusTypeDef  USBH_Start  (USBH_HandleTypeDef *phost)
ARM GAS  C:\Users\Student\AppData\Local\Temp\ccZR2NAu.s 			page 9


 353:Middlewares/ST/STM32_USB_Host_Library/Core/Src/usbh_core.c **** {
 354:Middlewares/ST/STM32_USB_Host_Library/Core/Src/usbh_core.c ****   /* Start the low level driver  */
 355:Middlewares/ST/STM32_USB_Host_Library/Core/Src/usbh_core.c ****   USBH_LL_Start(phost);
 356:Middlewares/ST/STM32_USB_Host_Library/Core/Src/usbh_core.c **** 
 357:Middlewares/ST/STM32_USB_Host_Library/Core/Src/usbh_core.c ****   /* Activate VBUS on the port */
 358:Middlewares/ST/STM32_USB_Host_Library/Core/Src/usbh_core.c ****   USBH_LL_DriverVBUS (phost, TRUE);
 359:Middlewares/ST/STM32_USB_Host_Library/Core/Src/usbh_core.c **** 
 360:Middlewares/ST/STM32_USB_Host_Library/Core/Src/usbh_core.c ****   return USBH_OK;
 361:Middlewares/ST/STM32_USB_Host_Library/Core/Src/usbh_core.c **** }
 362:Middlewares/ST/STM32_USB_Host_Library/Core/Src/usbh_core.c **** 
 363:Middlewares/ST/STM32_USB_Host_Library/Core/Src/usbh_core.c **** /**
 364:Middlewares/ST/STM32_USB_Host_Library/Core/Src/usbh_core.c ****   * @brief  USBH_Stop
 365:Middlewares/ST/STM32_USB_Host_Library/Core/Src/usbh_core.c ****   *         Stop the USB Host Core.
 366:Middlewares/ST/STM32_USB_Host_Library/Core/Src/usbh_core.c ****   * @param  phost: Host Handle
 367:Middlewares/ST/STM32_USB_Host_Library/Core/Src/usbh_core.c ****   * @retval USBH Status
 368:Middlewares/ST/STM32_USB_Host_Library/Core/Src/usbh_core.c ****   */
 369:Middlewares/ST/STM32_USB_Host_Library/Core/Src/usbh_core.c **** USBH_StatusTypeDef  USBH_Stop   (USBH_HandleTypeDef *phost)
 370:Middlewares/ST/STM32_USB_Host_Library/Core/Src/usbh_core.c **** {
 371:Middlewares/ST/STM32_USB_Host_Library/Core/Src/usbh_core.c ****   /* Stop and cleanup the low level driver  */
 372:Middlewares/ST/STM32_USB_Host_Library/Core/Src/usbh_core.c ****   USBH_LL_Stop(phost);
 373:Middlewares/ST/STM32_USB_Host_Library/Core/Src/usbh_core.c **** 
 374:Middlewares/ST/STM32_USB_Host_Library/Core/Src/usbh_core.c ****   /* DeActivate VBUS on the port */
 375:Middlewares/ST/STM32_USB_Host_Library/Core/Src/usbh_core.c ****   USBH_LL_DriverVBUS (phost, FALSE);
 376:Middlewares/ST/STM32_USB_Host_Library/Core/Src/usbh_core.c **** 
 377:Middlewares/ST/STM32_USB_Host_Library/Core/Src/usbh_core.c ****   /* FRee Control Pipes */
 378:Middlewares/ST/STM32_USB_Host_Library/Core/Src/usbh_core.c ****   USBH_FreePipe  (phost, phost->Control.pipe_in);
 379:Middlewares/ST/STM32_USB_Host_Library/Core/Src/usbh_core.c ****   USBH_FreePipe  (phost, phost->Control.pipe_out);
 380:Middlewares/ST/STM32_USB_Host_Library/Core/Src/usbh_core.c **** 
 381:Middlewares/ST/STM32_USB_Host_Library/Core/Src/usbh_core.c ****   return USBH_OK;
 382:Middlewares/ST/STM32_USB_Host_Library/Core/Src/usbh_core.c **** }
 383:Middlewares/ST/STM32_USB_Host_Library/Core/Src/usbh_core.c **** 
 384:Middlewares/ST/STM32_USB_Host_Library/Core/Src/usbh_core.c **** /**
 385:Middlewares/ST/STM32_USB_Host_Library/Core/Src/usbh_core.c ****   * @brief  HCD_ReEnumerate
 386:Middlewares/ST/STM32_USB_Host_Library/Core/Src/usbh_core.c ****   *         Perform a new Enumeration phase.
 387:Middlewares/ST/STM32_USB_Host_Library/Core/Src/usbh_core.c ****   * @param  phost: Host Handle
 388:Middlewares/ST/STM32_USB_Host_Library/Core/Src/usbh_core.c ****   * @retval USBH Status
 389:Middlewares/ST/STM32_USB_Host_Library/Core/Src/usbh_core.c ****   */
 390:Middlewares/ST/STM32_USB_Host_Library/Core/Src/usbh_core.c **** USBH_StatusTypeDef  USBH_ReEnumerate   (USBH_HandleTypeDef *phost)
 391:Middlewares/ST/STM32_USB_Host_Library/Core/Src/usbh_core.c **** {
 392:Middlewares/ST/STM32_USB_Host_Library/Core/Src/usbh_core.c ****   /*Stop Host */
 393:Middlewares/ST/STM32_USB_Host_Library/Core/Src/usbh_core.c ****   USBH_Stop(phost);
 394:Middlewares/ST/STM32_USB_Host_Library/Core/Src/usbh_core.c **** 
 395:Middlewares/ST/STM32_USB_Host_Library/Core/Src/usbh_core.c ****   /*Device has disconnected, so wait for 200 ms */
 396:Middlewares/ST/STM32_USB_Host_Library/Core/Src/usbh_core.c ****   USBH_Delay(200U);
 397:Middlewares/ST/STM32_USB_Host_Library/Core/Src/usbh_core.c **** 
 398:Middlewares/ST/STM32_USB_Host_Library/Core/Src/usbh_core.c ****   /* Set State machines in default state */
 399:Middlewares/ST/STM32_USB_Host_Library/Core/Src/usbh_core.c ****   DeInitStateMachine(phost);
 400:Middlewares/ST/STM32_USB_Host_Library/Core/Src/usbh_core.c **** 
 401:Middlewares/ST/STM32_USB_Host_Library/Core/Src/usbh_core.c ****   /* Start again the host */
 402:Middlewares/ST/STM32_USB_Host_Library/Core/Src/usbh_core.c ****   USBH_Start(phost);
 403:Middlewares/ST/STM32_USB_Host_Library/Core/Src/usbh_core.c **** 
 404:Middlewares/ST/STM32_USB_Host_Library/Core/Src/usbh_core.c **** #if (USBH_USE_OS == 1U)
 405:Middlewares/ST/STM32_USB_Host_Library/Core/Src/usbh_core.c ****       osMessagePut ( phost->os_event, USBH_PORT_EVENT, 0);
 406:Middlewares/ST/STM32_USB_Host_Library/Core/Src/usbh_core.c **** #endif
 407:Middlewares/ST/STM32_USB_Host_Library/Core/Src/usbh_core.c ****   return USBH_OK;
 408:Middlewares/ST/STM32_USB_Host_Library/Core/Src/usbh_core.c **** }
 409:Middlewares/ST/STM32_USB_Host_Library/Core/Src/usbh_core.c **** 
ARM GAS  C:\Users\Student\AppData\Local\Temp\ccZR2NAu.s 			page 10


 410:Middlewares/ST/STM32_USB_Host_Library/Core/Src/usbh_core.c **** /**
 411:Middlewares/ST/STM32_USB_Host_Library/Core/Src/usbh_core.c ****   * @brief  USBH_Process
 412:Middlewares/ST/STM32_USB_Host_Library/Core/Src/usbh_core.c ****   *         Background process of the USB Core.
 413:Middlewares/ST/STM32_USB_Host_Library/Core/Src/usbh_core.c ****   * @param  phost: Host Handle
 414:Middlewares/ST/STM32_USB_Host_Library/Core/Src/usbh_core.c ****   * @retval USBH Status
 415:Middlewares/ST/STM32_USB_Host_Library/Core/Src/usbh_core.c ****   */
 416:Middlewares/ST/STM32_USB_Host_Library/Core/Src/usbh_core.c **** USBH_StatusTypeDef  USBH_Process(USBH_HandleTypeDef *phost)
 417:Middlewares/ST/STM32_USB_Host_Library/Core/Src/usbh_core.c **** {
 418:Middlewares/ST/STM32_USB_Host_Library/Core/Src/usbh_core.c ****   __IO USBH_StatusTypeDef status = USBH_FAIL;
 419:Middlewares/ST/STM32_USB_Host_Library/Core/Src/usbh_core.c ****   uint8_t idx = 0U;
 420:Middlewares/ST/STM32_USB_Host_Library/Core/Src/usbh_core.c **** 
 421:Middlewares/ST/STM32_USB_Host_Library/Core/Src/usbh_core.c ****   /* check for Host port events */
 422:Middlewares/ST/STM32_USB_Host_Library/Core/Src/usbh_core.c ****   if (((USBH_IsPortEnabled(phost) == 0U)) && (phost->gState != HOST_IDLE))
 423:Middlewares/ST/STM32_USB_Host_Library/Core/Src/usbh_core.c ****   {
 424:Middlewares/ST/STM32_USB_Host_Library/Core/Src/usbh_core.c ****     if(phost->gState != HOST_DEV_DISCONNECTED)
 425:Middlewares/ST/STM32_USB_Host_Library/Core/Src/usbh_core.c ****     {
 426:Middlewares/ST/STM32_USB_Host_Library/Core/Src/usbh_core.c ****       phost->gState = HOST_DEV_DISCONNECTED;
 427:Middlewares/ST/STM32_USB_Host_Library/Core/Src/usbh_core.c ****     }
 428:Middlewares/ST/STM32_USB_Host_Library/Core/Src/usbh_core.c ****   }
 429:Middlewares/ST/STM32_USB_Host_Library/Core/Src/usbh_core.c **** 
 430:Middlewares/ST/STM32_USB_Host_Library/Core/Src/usbh_core.c ****   switch (phost->gState)
 431:Middlewares/ST/STM32_USB_Host_Library/Core/Src/usbh_core.c ****   {
 432:Middlewares/ST/STM32_USB_Host_Library/Core/Src/usbh_core.c ****   case HOST_IDLE :
 433:Middlewares/ST/STM32_USB_Host_Library/Core/Src/usbh_core.c **** 
 434:Middlewares/ST/STM32_USB_Host_Library/Core/Src/usbh_core.c ****     if (phost->device.is_connected)
 435:Middlewares/ST/STM32_USB_Host_Library/Core/Src/usbh_core.c ****     {
 436:Middlewares/ST/STM32_USB_Host_Library/Core/Src/usbh_core.c ****       /* Wait for 200 ms after connection */
 437:Middlewares/ST/STM32_USB_Host_Library/Core/Src/usbh_core.c ****       phost->gState = HOST_DEV_WAIT_FOR_ATTACHMENT;
 438:Middlewares/ST/STM32_USB_Host_Library/Core/Src/usbh_core.c ****       USBH_Delay(200U);
 439:Middlewares/ST/STM32_USB_Host_Library/Core/Src/usbh_core.c ****       USBH_LL_ResetPort(phost);
 440:Middlewares/ST/STM32_USB_Host_Library/Core/Src/usbh_core.c **** #if (USBH_USE_OS == 1U)
 441:Middlewares/ST/STM32_USB_Host_Library/Core/Src/usbh_core.c ****       osMessagePut ( phost->os_event, USBH_PORT_EVENT, 0);
 442:Middlewares/ST/STM32_USB_Host_Library/Core/Src/usbh_core.c **** #endif
 443:Middlewares/ST/STM32_USB_Host_Library/Core/Src/usbh_core.c ****     }
 444:Middlewares/ST/STM32_USB_Host_Library/Core/Src/usbh_core.c ****     break;
 445:Middlewares/ST/STM32_USB_Host_Library/Core/Src/usbh_core.c **** 
 446:Middlewares/ST/STM32_USB_Host_Library/Core/Src/usbh_core.c ****   case HOST_DEV_WAIT_FOR_ATTACHMENT: /* Wait for Port Eabled */
 447:Middlewares/ST/STM32_USB_Host_Library/Core/Src/usbh_core.c **** 
 448:Middlewares/ST/STM32_USB_Host_Library/Core/Src/usbh_core.c ****     if (phost->device.PortEnabled == 1U)
 449:Middlewares/ST/STM32_USB_Host_Library/Core/Src/usbh_core.c ****     {
 450:Middlewares/ST/STM32_USB_Host_Library/Core/Src/usbh_core.c ****       phost->gState = HOST_DEV_ATTACHED;
 451:Middlewares/ST/STM32_USB_Host_Library/Core/Src/usbh_core.c ****     }
 452:Middlewares/ST/STM32_USB_Host_Library/Core/Src/usbh_core.c ****     break;
 453:Middlewares/ST/STM32_USB_Host_Library/Core/Src/usbh_core.c **** 
 454:Middlewares/ST/STM32_USB_Host_Library/Core/Src/usbh_core.c ****   case HOST_DEV_ATTACHED :
 455:Middlewares/ST/STM32_USB_Host_Library/Core/Src/usbh_core.c **** 
 456:Middlewares/ST/STM32_USB_Host_Library/Core/Src/usbh_core.c ****     USBH_UsrLog("USB Device Attached");
 457:Middlewares/ST/STM32_USB_Host_Library/Core/Src/usbh_core.c **** 
 458:Middlewares/ST/STM32_USB_Host_Library/Core/Src/usbh_core.c ****     /* Wait for 100 ms after Reset */
 459:Middlewares/ST/STM32_USB_Host_Library/Core/Src/usbh_core.c ****     USBH_Delay(100U);
 460:Middlewares/ST/STM32_USB_Host_Library/Core/Src/usbh_core.c **** 
 461:Middlewares/ST/STM32_USB_Host_Library/Core/Src/usbh_core.c ****     phost->device.speed = USBH_LL_GetSpeed(phost);
 462:Middlewares/ST/STM32_USB_Host_Library/Core/Src/usbh_core.c **** 
 463:Middlewares/ST/STM32_USB_Host_Library/Core/Src/usbh_core.c ****     phost->gState = HOST_ENUMERATION;
 464:Middlewares/ST/STM32_USB_Host_Library/Core/Src/usbh_core.c **** 
 465:Middlewares/ST/STM32_USB_Host_Library/Core/Src/usbh_core.c ****     phost->Control.pipe_out = USBH_AllocPipe (phost, 0x00U);
 466:Middlewares/ST/STM32_USB_Host_Library/Core/Src/usbh_core.c ****     phost->Control.pipe_in  = USBH_AllocPipe (phost, 0x80U);
ARM GAS  C:\Users\Student\AppData\Local\Temp\ccZR2NAu.s 			page 11


 467:Middlewares/ST/STM32_USB_Host_Library/Core/Src/usbh_core.c **** 
 468:Middlewares/ST/STM32_USB_Host_Library/Core/Src/usbh_core.c **** 
 469:Middlewares/ST/STM32_USB_Host_Library/Core/Src/usbh_core.c ****     /* Open Control pipes */
 470:Middlewares/ST/STM32_USB_Host_Library/Core/Src/usbh_core.c ****     USBH_OpenPipe (phost,
 471:Middlewares/ST/STM32_USB_Host_Library/Core/Src/usbh_core.c ****                    phost->Control.pipe_in,
 472:Middlewares/ST/STM32_USB_Host_Library/Core/Src/usbh_core.c ****                    0x80U,
 473:Middlewares/ST/STM32_USB_Host_Library/Core/Src/usbh_core.c ****                    phost->device.address,
 474:Middlewares/ST/STM32_USB_Host_Library/Core/Src/usbh_core.c ****                    phost->device.speed,
 475:Middlewares/ST/STM32_USB_Host_Library/Core/Src/usbh_core.c ****                    USBH_EP_CONTROL,
 476:Middlewares/ST/STM32_USB_Host_Library/Core/Src/usbh_core.c ****                    (uint16_t)phost->Control.pipe_size);
 477:Middlewares/ST/STM32_USB_Host_Library/Core/Src/usbh_core.c **** 
 478:Middlewares/ST/STM32_USB_Host_Library/Core/Src/usbh_core.c ****     /* Open Control pipes */
 479:Middlewares/ST/STM32_USB_Host_Library/Core/Src/usbh_core.c ****     USBH_OpenPipe (phost,
 480:Middlewares/ST/STM32_USB_Host_Library/Core/Src/usbh_core.c ****                    phost->Control.pipe_out,
 481:Middlewares/ST/STM32_USB_Host_Library/Core/Src/usbh_core.c ****                    0x00U,
 482:Middlewares/ST/STM32_USB_Host_Library/Core/Src/usbh_core.c ****                    phost->device.address,
 483:Middlewares/ST/STM32_USB_Host_Library/Core/Src/usbh_core.c ****                    phost->device.speed,
 484:Middlewares/ST/STM32_USB_Host_Library/Core/Src/usbh_core.c ****                    USBH_EP_CONTROL,
 485:Middlewares/ST/STM32_USB_Host_Library/Core/Src/usbh_core.c ****                    (uint16_t)phost->Control.pipe_size);
 486:Middlewares/ST/STM32_USB_Host_Library/Core/Src/usbh_core.c **** 
 487:Middlewares/ST/STM32_USB_Host_Library/Core/Src/usbh_core.c **** #if (USBH_USE_OS == 1U)
 488:Middlewares/ST/STM32_USB_Host_Library/Core/Src/usbh_core.c ****     osMessagePut ( phost->os_event, USBH_PORT_EVENT, 0);
 489:Middlewares/ST/STM32_USB_Host_Library/Core/Src/usbh_core.c **** #endif
 490:Middlewares/ST/STM32_USB_Host_Library/Core/Src/usbh_core.c **** 
 491:Middlewares/ST/STM32_USB_Host_Library/Core/Src/usbh_core.c ****     break;
 492:Middlewares/ST/STM32_USB_Host_Library/Core/Src/usbh_core.c **** 
 493:Middlewares/ST/STM32_USB_Host_Library/Core/Src/usbh_core.c ****   case HOST_ENUMERATION:
 494:Middlewares/ST/STM32_USB_Host_Library/Core/Src/usbh_core.c ****     /* Check for enumeration status */
 495:Middlewares/ST/STM32_USB_Host_Library/Core/Src/usbh_core.c ****     if ( USBH_HandleEnum(phost) == USBH_OK)
 496:Middlewares/ST/STM32_USB_Host_Library/Core/Src/usbh_core.c ****     {
 497:Middlewares/ST/STM32_USB_Host_Library/Core/Src/usbh_core.c ****       /* The function shall return USBH_OK when full enumeration is complete */
 498:Middlewares/ST/STM32_USB_Host_Library/Core/Src/usbh_core.c ****       USBH_UsrLog ("Enumeration done.");
 499:Middlewares/ST/STM32_USB_Host_Library/Core/Src/usbh_core.c ****       phost->device.current_interface = 0U;
 500:Middlewares/ST/STM32_USB_Host_Library/Core/Src/usbh_core.c ****       if(phost->device.DevDesc.bNumConfigurations == 1U)
 501:Middlewares/ST/STM32_USB_Host_Library/Core/Src/usbh_core.c ****       {
 502:Middlewares/ST/STM32_USB_Host_Library/Core/Src/usbh_core.c ****         USBH_UsrLog ("This device has only 1 configuration.");
 503:Middlewares/ST/STM32_USB_Host_Library/Core/Src/usbh_core.c ****         phost->gState  = HOST_SET_CONFIGURATION;
 504:Middlewares/ST/STM32_USB_Host_Library/Core/Src/usbh_core.c **** 
 505:Middlewares/ST/STM32_USB_Host_Library/Core/Src/usbh_core.c ****       }
 506:Middlewares/ST/STM32_USB_Host_Library/Core/Src/usbh_core.c ****       else
 507:Middlewares/ST/STM32_USB_Host_Library/Core/Src/usbh_core.c ****       {
 508:Middlewares/ST/STM32_USB_Host_Library/Core/Src/usbh_core.c ****         phost->gState  = HOST_INPUT;
 509:Middlewares/ST/STM32_USB_Host_Library/Core/Src/usbh_core.c ****       }
 510:Middlewares/ST/STM32_USB_Host_Library/Core/Src/usbh_core.c **** 
 511:Middlewares/ST/STM32_USB_Host_Library/Core/Src/usbh_core.c ****     }
 512:Middlewares/ST/STM32_USB_Host_Library/Core/Src/usbh_core.c ****     break;
 513:Middlewares/ST/STM32_USB_Host_Library/Core/Src/usbh_core.c **** 
 514:Middlewares/ST/STM32_USB_Host_Library/Core/Src/usbh_core.c ****   case HOST_INPUT:
 515:Middlewares/ST/STM32_USB_Host_Library/Core/Src/usbh_core.c ****     {
 516:Middlewares/ST/STM32_USB_Host_Library/Core/Src/usbh_core.c ****       /* user callback for end of device basic enumeration */
 517:Middlewares/ST/STM32_USB_Host_Library/Core/Src/usbh_core.c ****       if(phost->pUser != NULL)
 518:Middlewares/ST/STM32_USB_Host_Library/Core/Src/usbh_core.c ****       {
 519:Middlewares/ST/STM32_USB_Host_Library/Core/Src/usbh_core.c ****         phost->pUser(phost, HOST_USER_SELECT_CONFIGURATION);
 520:Middlewares/ST/STM32_USB_Host_Library/Core/Src/usbh_core.c ****         phost->gState = HOST_SET_CONFIGURATION;
 521:Middlewares/ST/STM32_USB_Host_Library/Core/Src/usbh_core.c **** 
 522:Middlewares/ST/STM32_USB_Host_Library/Core/Src/usbh_core.c **** #if (USBH_USE_OS == 1U)
 523:Middlewares/ST/STM32_USB_Host_Library/Core/Src/usbh_core.c ****         osMessagePut ( phost->os_event, USBH_STATE_CHANGED_EVENT, 0);
ARM GAS  C:\Users\Student\AppData\Local\Temp\ccZR2NAu.s 			page 12


 524:Middlewares/ST/STM32_USB_Host_Library/Core/Src/usbh_core.c **** #endif
 525:Middlewares/ST/STM32_USB_Host_Library/Core/Src/usbh_core.c ****       }
 526:Middlewares/ST/STM32_USB_Host_Library/Core/Src/usbh_core.c ****     }
 527:Middlewares/ST/STM32_USB_Host_Library/Core/Src/usbh_core.c ****     break;
 528:Middlewares/ST/STM32_USB_Host_Library/Core/Src/usbh_core.c **** 
 529:Middlewares/ST/STM32_USB_Host_Library/Core/Src/usbh_core.c ****   case HOST_SET_CONFIGURATION:
 530:Middlewares/ST/STM32_USB_Host_Library/Core/Src/usbh_core.c ****     /* set configuration */
 531:Middlewares/ST/STM32_USB_Host_Library/Core/Src/usbh_core.c ****     if (USBH_SetCfg(phost, (uint16_t)phost->device.CfgDesc.bConfigurationValue) == USBH_OK)
 532:Middlewares/ST/STM32_USB_Host_Library/Core/Src/usbh_core.c ****     {
 533:Middlewares/ST/STM32_USB_Host_Library/Core/Src/usbh_core.c ****       phost->gState  = HOST_SET_WAKEUP_FEATURE;
 534:Middlewares/ST/STM32_USB_Host_Library/Core/Src/usbh_core.c ****       USBH_UsrLog ("Default configuration set.");
 535:Middlewares/ST/STM32_USB_Host_Library/Core/Src/usbh_core.c ****     }
 536:Middlewares/ST/STM32_USB_Host_Library/Core/Src/usbh_core.c **** 
 537:Middlewares/ST/STM32_USB_Host_Library/Core/Src/usbh_core.c **** #if (USBH_USE_OS == 1U)
 538:Middlewares/ST/STM32_USB_Host_Library/Core/Src/usbh_core.c ****     osMessagePut ( phost->os_event, USBH_PORT_EVENT, 0U);
 539:Middlewares/ST/STM32_USB_Host_Library/Core/Src/usbh_core.c **** #endif
 540:Middlewares/ST/STM32_USB_Host_Library/Core/Src/usbh_core.c ****     break;
 541:Middlewares/ST/STM32_USB_Host_Library/Core/Src/usbh_core.c **** 
 542:Middlewares/ST/STM32_USB_Host_Library/Core/Src/usbh_core.c ****   case  HOST_SET_WAKEUP_FEATURE:
 543:Middlewares/ST/STM32_USB_Host_Library/Core/Src/usbh_core.c **** 
 544:Middlewares/ST/STM32_USB_Host_Library/Core/Src/usbh_core.c ****     if ((phost->device.CfgDesc.bmAttributes) & (1U << 5))
 545:Middlewares/ST/STM32_USB_Host_Library/Core/Src/usbh_core.c ****     {
 546:Middlewares/ST/STM32_USB_Host_Library/Core/Src/usbh_core.c ****       if (USBH_SetFeature(phost, FEATURE_SELECTOR_REMOTEWAKEUP) == USBH_OK)
 547:Middlewares/ST/STM32_USB_Host_Library/Core/Src/usbh_core.c ****       {
 548:Middlewares/ST/STM32_USB_Host_Library/Core/Src/usbh_core.c ****         USBH_UsrLog ("Device remote wakeup enabled");
 549:Middlewares/ST/STM32_USB_Host_Library/Core/Src/usbh_core.c ****         phost->gState  = HOST_CHECK_CLASS;
 550:Middlewares/ST/STM32_USB_Host_Library/Core/Src/usbh_core.c ****       }
 551:Middlewares/ST/STM32_USB_Host_Library/Core/Src/usbh_core.c ****     }
 552:Middlewares/ST/STM32_USB_Host_Library/Core/Src/usbh_core.c ****     else
 553:Middlewares/ST/STM32_USB_Host_Library/Core/Src/usbh_core.c ****     {
 554:Middlewares/ST/STM32_USB_Host_Library/Core/Src/usbh_core.c ****       phost->gState  = HOST_CHECK_CLASS;
 555:Middlewares/ST/STM32_USB_Host_Library/Core/Src/usbh_core.c ****     }
 556:Middlewares/ST/STM32_USB_Host_Library/Core/Src/usbh_core.c **** 
 557:Middlewares/ST/STM32_USB_Host_Library/Core/Src/usbh_core.c **** #if (USBH_USE_OS == 1U)
 558:Middlewares/ST/STM32_USB_Host_Library/Core/Src/usbh_core.c ****     osMessagePut ( phost->os_event, USBH_PORT_EVENT, 0U);
 559:Middlewares/ST/STM32_USB_Host_Library/Core/Src/usbh_core.c **** #endif
 560:Middlewares/ST/STM32_USB_Host_Library/Core/Src/usbh_core.c ****     break;
 561:Middlewares/ST/STM32_USB_Host_Library/Core/Src/usbh_core.c **** 
 562:Middlewares/ST/STM32_USB_Host_Library/Core/Src/usbh_core.c ****   case HOST_CHECK_CLASS:
 563:Middlewares/ST/STM32_USB_Host_Library/Core/Src/usbh_core.c **** 
 564:Middlewares/ST/STM32_USB_Host_Library/Core/Src/usbh_core.c ****     if(phost->ClassNumber == 0U)
 565:Middlewares/ST/STM32_USB_Host_Library/Core/Src/usbh_core.c ****     {
 566:Middlewares/ST/STM32_USB_Host_Library/Core/Src/usbh_core.c ****       USBH_UsrLog ("No Class has been registered.");
 567:Middlewares/ST/STM32_USB_Host_Library/Core/Src/usbh_core.c ****     }
 568:Middlewares/ST/STM32_USB_Host_Library/Core/Src/usbh_core.c ****     else
 569:Middlewares/ST/STM32_USB_Host_Library/Core/Src/usbh_core.c ****     {
 570:Middlewares/ST/STM32_USB_Host_Library/Core/Src/usbh_core.c ****       phost->pActiveClass = NULL;
 571:Middlewares/ST/STM32_USB_Host_Library/Core/Src/usbh_core.c **** 
 572:Middlewares/ST/STM32_USB_Host_Library/Core/Src/usbh_core.c ****       for (idx = 0U; idx < USBH_MAX_NUM_SUPPORTED_CLASS; idx++)
 573:Middlewares/ST/STM32_USB_Host_Library/Core/Src/usbh_core.c ****       {
 574:Middlewares/ST/STM32_USB_Host_Library/Core/Src/usbh_core.c ****         if(phost->pClass[idx]->ClassCode == phost->device.CfgDesc.Itf_Desc[0].bInterfaceClass)
 575:Middlewares/ST/STM32_USB_Host_Library/Core/Src/usbh_core.c ****         {
 576:Middlewares/ST/STM32_USB_Host_Library/Core/Src/usbh_core.c ****           phost->pActiveClass = phost->pClass[idx];
 577:Middlewares/ST/STM32_USB_Host_Library/Core/Src/usbh_core.c ****         }
 578:Middlewares/ST/STM32_USB_Host_Library/Core/Src/usbh_core.c ****       }
 579:Middlewares/ST/STM32_USB_Host_Library/Core/Src/usbh_core.c **** 
 580:Middlewares/ST/STM32_USB_Host_Library/Core/Src/usbh_core.c ****       if(phost->pActiveClass != NULL)
ARM GAS  C:\Users\Student\AppData\Local\Temp\ccZR2NAu.s 			page 13


 581:Middlewares/ST/STM32_USB_Host_Library/Core/Src/usbh_core.c ****       {
 582:Middlewares/ST/STM32_USB_Host_Library/Core/Src/usbh_core.c ****         if(phost->pActiveClass->Init(phost)== USBH_OK)
 583:Middlewares/ST/STM32_USB_Host_Library/Core/Src/usbh_core.c ****         {
 584:Middlewares/ST/STM32_USB_Host_Library/Core/Src/usbh_core.c ****           phost->gState  = HOST_CLASS_REQUEST;
 585:Middlewares/ST/STM32_USB_Host_Library/Core/Src/usbh_core.c ****           USBH_UsrLog ("%s class started.", phost->pActiveClass->Name);
 586:Middlewares/ST/STM32_USB_Host_Library/Core/Src/usbh_core.c **** 
 587:Middlewares/ST/STM32_USB_Host_Library/Core/Src/usbh_core.c ****           /* Inform user that a class has been activated */
 588:Middlewares/ST/STM32_USB_Host_Library/Core/Src/usbh_core.c ****           phost->pUser(phost, HOST_USER_CLASS_SELECTED);
 589:Middlewares/ST/STM32_USB_Host_Library/Core/Src/usbh_core.c ****         }
 590:Middlewares/ST/STM32_USB_Host_Library/Core/Src/usbh_core.c ****         else
 591:Middlewares/ST/STM32_USB_Host_Library/Core/Src/usbh_core.c ****         {
 592:Middlewares/ST/STM32_USB_Host_Library/Core/Src/usbh_core.c ****           phost->gState  = HOST_ABORT_STATE;
 593:Middlewares/ST/STM32_USB_Host_Library/Core/Src/usbh_core.c ****           USBH_UsrLog ("Device not supporting %s class.", phost->pActiveClass->Name);
 594:Middlewares/ST/STM32_USB_Host_Library/Core/Src/usbh_core.c ****         }
 595:Middlewares/ST/STM32_USB_Host_Library/Core/Src/usbh_core.c ****       }
 596:Middlewares/ST/STM32_USB_Host_Library/Core/Src/usbh_core.c ****       else
 597:Middlewares/ST/STM32_USB_Host_Library/Core/Src/usbh_core.c ****       {
 598:Middlewares/ST/STM32_USB_Host_Library/Core/Src/usbh_core.c ****         phost->gState  = HOST_ABORT_STATE;
 599:Middlewares/ST/STM32_USB_Host_Library/Core/Src/usbh_core.c ****         USBH_UsrLog ("No registered class for this device.");
 600:Middlewares/ST/STM32_USB_Host_Library/Core/Src/usbh_core.c ****       }
 601:Middlewares/ST/STM32_USB_Host_Library/Core/Src/usbh_core.c ****     }
 602:Middlewares/ST/STM32_USB_Host_Library/Core/Src/usbh_core.c **** 
 603:Middlewares/ST/STM32_USB_Host_Library/Core/Src/usbh_core.c **** #if (USBH_USE_OS == 1U)
 604:Middlewares/ST/STM32_USB_Host_Library/Core/Src/usbh_core.c ****     osMessagePut ( phost->os_event, USBH_STATE_CHANGED_EVENT, 0);
 605:Middlewares/ST/STM32_USB_Host_Library/Core/Src/usbh_core.c **** #endif
 606:Middlewares/ST/STM32_USB_Host_Library/Core/Src/usbh_core.c ****     break;
 607:Middlewares/ST/STM32_USB_Host_Library/Core/Src/usbh_core.c **** 
 608:Middlewares/ST/STM32_USB_Host_Library/Core/Src/usbh_core.c ****   case HOST_CLASS_REQUEST:
 609:Middlewares/ST/STM32_USB_Host_Library/Core/Src/usbh_core.c ****     /* process class standard control requests state machine */
 610:Middlewares/ST/STM32_USB_Host_Library/Core/Src/usbh_core.c ****     if(phost->pActiveClass != NULL)
 611:Middlewares/ST/STM32_USB_Host_Library/Core/Src/usbh_core.c ****     {
 612:Middlewares/ST/STM32_USB_Host_Library/Core/Src/usbh_core.c ****       status = phost->pActiveClass->Requests(phost);
 613:Middlewares/ST/STM32_USB_Host_Library/Core/Src/usbh_core.c **** 
 614:Middlewares/ST/STM32_USB_Host_Library/Core/Src/usbh_core.c ****       if(status == USBH_OK)
 615:Middlewares/ST/STM32_USB_Host_Library/Core/Src/usbh_core.c ****       {
 616:Middlewares/ST/STM32_USB_Host_Library/Core/Src/usbh_core.c ****         phost->gState  = HOST_CLASS;
 617:Middlewares/ST/STM32_USB_Host_Library/Core/Src/usbh_core.c ****       }
 618:Middlewares/ST/STM32_USB_Host_Library/Core/Src/usbh_core.c ****     }
 619:Middlewares/ST/STM32_USB_Host_Library/Core/Src/usbh_core.c ****     else
 620:Middlewares/ST/STM32_USB_Host_Library/Core/Src/usbh_core.c ****     {
 621:Middlewares/ST/STM32_USB_Host_Library/Core/Src/usbh_core.c ****       phost->gState  = HOST_ABORT_STATE;
 622:Middlewares/ST/STM32_USB_Host_Library/Core/Src/usbh_core.c ****       USBH_ErrLog ("Invalid Class Driver.");
 623:Middlewares/ST/STM32_USB_Host_Library/Core/Src/usbh_core.c **** 
 624:Middlewares/ST/STM32_USB_Host_Library/Core/Src/usbh_core.c **** #if (USBH_USE_OS == 1U)
 625:Middlewares/ST/STM32_USB_Host_Library/Core/Src/usbh_core.c ****     osMessagePut ( phost->os_event, USBH_STATE_CHANGED_EVENT, 0);
 626:Middlewares/ST/STM32_USB_Host_Library/Core/Src/usbh_core.c **** #endif
 627:Middlewares/ST/STM32_USB_Host_Library/Core/Src/usbh_core.c ****     }
 628:Middlewares/ST/STM32_USB_Host_Library/Core/Src/usbh_core.c **** 
 629:Middlewares/ST/STM32_USB_Host_Library/Core/Src/usbh_core.c ****     break;
 630:Middlewares/ST/STM32_USB_Host_Library/Core/Src/usbh_core.c ****   case HOST_CLASS:
 631:Middlewares/ST/STM32_USB_Host_Library/Core/Src/usbh_core.c ****     /* process class state machine */
 632:Middlewares/ST/STM32_USB_Host_Library/Core/Src/usbh_core.c ****     if(phost->pActiveClass != NULL)
 633:Middlewares/ST/STM32_USB_Host_Library/Core/Src/usbh_core.c ****     {
 634:Middlewares/ST/STM32_USB_Host_Library/Core/Src/usbh_core.c ****       phost->pActiveClass->BgndProcess(phost);
 635:Middlewares/ST/STM32_USB_Host_Library/Core/Src/usbh_core.c ****     }
 636:Middlewares/ST/STM32_USB_Host_Library/Core/Src/usbh_core.c ****     break;
 637:Middlewares/ST/STM32_USB_Host_Library/Core/Src/usbh_core.c **** 
ARM GAS  C:\Users\Student\AppData\Local\Temp\ccZR2NAu.s 			page 14


 638:Middlewares/ST/STM32_USB_Host_Library/Core/Src/usbh_core.c ****   case HOST_DEV_DISCONNECTED :
 639:Middlewares/ST/STM32_USB_Host_Library/Core/Src/usbh_core.c **** 
 640:Middlewares/ST/STM32_USB_Host_Library/Core/Src/usbh_core.c ****     DeInitStateMachine(phost);
 641:Middlewares/ST/STM32_USB_Host_Library/Core/Src/usbh_core.c **** 
 642:Middlewares/ST/STM32_USB_Host_Library/Core/Src/usbh_core.c ****     /* Re-Initilaize Host for new Enumeration */
 643:Middlewares/ST/STM32_USB_Host_Library/Core/Src/usbh_core.c ****     if(phost->pActiveClass != NULL)
 644:Middlewares/ST/STM32_USB_Host_Library/Core/Src/usbh_core.c ****     {
 645:Middlewares/ST/STM32_USB_Host_Library/Core/Src/usbh_core.c ****       phost->pActiveClass->DeInit(phost);
 646:Middlewares/ST/STM32_USB_Host_Library/Core/Src/usbh_core.c ****       phost->pActiveClass = NULL;
 647:Middlewares/ST/STM32_USB_Host_Library/Core/Src/usbh_core.c ****     }
 648:Middlewares/ST/STM32_USB_Host_Library/Core/Src/usbh_core.c ****     break;
 649:Middlewares/ST/STM32_USB_Host_Library/Core/Src/usbh_core.c **** 
 650:Middlewares/ST/STM32_USB_Host_Library/Core/Src/usbh_core.c ****   case HOST_ABORT_STATE:
 651:Middlewares/ST/STM32_USB_Host_Library/Core/Src/usbh_core.c ****   default :
 652:Middlewares/ST/STM32_USB_Host_Library/Core/Src/usbh_core.c ****     break;
 653:Middlewares/ST/STM32_USB_Host_Library/Core/Src/usbh_core.c ****   }
 654:Middlewares/ST/STM32_USB_Host_Library/Core/Src/usbh_core.c ****  return USBH_OK;
 655:Middlewares/ST/STM32_USB_Host_Library/Core/Src/usbh_core.c **** }
 656:Middlewares/ST/STM32_USB_Host_Library/Core/Src/usbh_core.c **** 
 657:Middlewares/ST/STM32_USB_Host_Library/Core/Src/usbh_core.c **** 
 658:Middlewares/ST/STM32_USB_Host_Library/Core/Src/usbh_core.c **** /**
 659:Middlewares/ST/STM32_USB_Host_Library/Core/Src/usbh_core.c ****   * @brief  USBH_HandleEnum
 660:Middlewares/ST/STM32_USB_Host_Library/Core/Src/usbh_core.c ****   *         This function includes the complete enumeration process
 661:Middlewares/ST/STM32_USB_Host_Library/Core/Src/usbh_core.c ****   * @param  phost: Host Handle
 662:Middlewares/ST/STM32_USB_Host_Library/Core/Src/usbh_core.c ****   * @retval USBH_Status
 663:Middlewares/ST/STM32_USB_Host_Library/Core/Src/usbh_core.c ****   */
 664:Middlewares/ST/STM32_USB_Host_Library/Core/Src/usbh_core.c **** static USBH_StatusTypeDef USBH_HandleEnum (USBH_HandleTypeDef *phost)
 665:Middlewares/ST/STM32_USB_Host_Library/Core/Src/usbh_core.c **** {
 666:Middlewares/ST/STM32_USB_Host_Library/Core/Src/usbh_core.c ****   USBH_StatusTypeDef Status = USBH_BUSY;
 667:Middlewares/ST/STM32_USB_Host_Library/Core/Src/usbh_core.c **** 
 668:Middlewares/ST/STM32_USB_Host_Library/Core/Src/usbh_core.c ****   switch (phost->EnumState)
 669:Middlewares/ST/STM32_USB_Host_Library/Core/Src/usbh_core.c ****   {
 670:Middlewares/ST/STM32_USB_Host_Library/Core/Src/usbh_core.c ****   case ENUM_IDLE:
 671:Middlewares/ST/STM32_USB_Host_Library/Core/Src/usbh_core.c ****     /* Get Device Desc for only 1st 8 bytes : To get EP0 MaxPacketSize */
 672:Middlewares/ST/STM32_USB_Host_Library/Core/Src/usbh_core.c ****     if ( USBH_Get_DevDesc(phost, 8U) == USBH_OK)
 673:Middlewares/ST/STM32_USB_Host_Library/Core/Src/usbh_core.c ****     {
 674:Middlewares/ST/STM32_USB_Host_Library/Core/Src/usbh_core.c ****       phost->Control.pipe_size = phost->device.DevDesc.bMaxPacketSize;
 675:Middlewares/ST/STM32_USB_Host_Library/Core/Src/usbh_core.c **** 
 676:Middlewares/ST/STM32_USB_Host_Library/Core/Src/usbh_core.c ****       phost->EnumState = ENUM_GET_FULL_DEV_DESC;
 677:Middlewares/ST/STM32_USB_Host_Library/Core/Src/usbh_core.c **** 
 678:Middlewares/ST/STM32_USB_Host_Library/Core/Src/usbh_core.c ****       /* modify control channels configuration for MaxPacket size */
 679:Middlewares/ST/STM32_USB_Host_Library/Core/Src/usbh_core.c ****       USBH_OpenPipe (phost,
 680:Middlewares/ST/STM32_USB_Host_Library/Core/Src/usbh_core.c ****                            phost->Control.pipe_in,
 681:Middlewares/ST/STM32_USB_Host_Library/Core/Src/usbh_core.c ****                            0x80U,
 682:Middlewares/ST/STM32_USB_Host_Library/Core/Src/usbh_core.c ****                            phost->device.address,
 683:Middlewares/ST/STM32_USB_Host_Library/Core/Src/usbh_core.c ****                            phost->device.speed,
 684:Middlewares/ST/STM32_USB_Host_Library/Core/Src/usbh_core.c ****                            USBH_EP_CONTROL,
 685:Middlewares/ST/STM32_USB_Host_Library/Core/Src/usbh_core.c ****                            (uint16_t)phost->Control.pipe_size);
 686:Middlewares/ST/STM32_USB_Host_Library/Core/Src/usbh_core.c **** 
 687:Middlewares/ST/STM32_USB_Host_Library/Core/Src/usbh_core.c ****       /* Open Control pipes */
 688:Middlewares/ST/STM32_USB_Host_Library/Core/Src/usbh_core.c ****       USBH_OpenPipe (phost,
 689:Middlewares/ST/STM32_USB_Host_Library/Core/Src/usbh_core.c ****                            phost->Control.pipe_out,
 690:Middlewares/ST/STM32_USB_Host_Library/Core/Src/usbh_core.c ****                            0x00U,
 691:Middlewares/ST/STM32_USB_Host_Library/Core/Src/usbh_core.c ****                            phost->device.address,
 692:Middlewares/ST/STM32_USB_Host_Library/Core/Src/usbh_core.c ****                            phost->device.speed,
 693:Middlewares/ST/STM32_USB_Host_Library/Core/Src/usbh_core.c ****                            USBH_EP_CONTROL,
 694:Middlewares/ST/STM32_USB_Host_Library/Core/Src/usbh_core.c ****                            (uint16_t)phost->Control.pipe_size);
ARM GAS  C:\Users\Student\AppData\Local\Temp\ccZR2NAu.s 			page 15


 695:Middlewares/ST/STM32_USB_Host_Library/Core/Src/usbh_core.c **** 
 696:Middlewares/ST/STM32_USB_Host_Library/Core/Src/usbh_core.c ****     }
 697:Middlewares/ST/STM32_USB_Host_Library/Core/Src/usbh_core.c ****     break;
 698:Middlewares/ST/STM32_USB_Host_Library/Core/Src/usbh_core.c **** 
 699:Middlewares/ST/STM32_USB_Host_Library/Core/Src/usbh_core.c ****   case ENUM_GET_FULL_DEV_DESC:
 700:Middlewares/ST/STM32_USB_Host_Library/Core/Src/usbh_core.c ****     /* Get FULL Device Desc  */
 701:Middlewares/ST/STM32_USB_Host_Library/Core/Src/usbh_core.c ****     if ( USBH_Get_DevDesc(phost, USB_DEVICE_DESC_SIZE)== USBH_OK)
 702:Middlewares/ST/STM32_USB_Host_Library/Core/Src/usbh_core.c ****     {
 703:Middlewares/ST/STM32_USB_Host_Library/Core/Src/usbh_core.c ****       USBH_UsrLog("PID: %xh", phost->device.DevDesc.idProduct );
 704:Middlewares/ST/STM32_USB_Host_Library/Core/Src/usbh_core.c ****       USBH_UsrLog("VID: %xh", phost->device.DevDesc.idVendor );
 705:Middlewares/ST/STM32_USB_Host_Library/Core/Src/usbh_core.c **** 
 706:Middlewares/ST/STM32_USB_Host_Library/Core/Src/usbh_core.c ****       phost->EnumState = ENUM_SET_ADDR;
 707:Middlewares/ST/STM32_USB_Host_Library/Core/Src/usbh_core.c **** 
 708:Middlewares/ST/STM32_USB_Host_Library/Core/Src/usbh_core.c ****     }
 709:Middlewares/ST/STM32_USB_Host_Library/Core/Src/usbh_core.c ****     break;
 710:Middlewares/ST/STM32_USB_Host_Library/Core/Src/usbh_core.c **** 
 711:Middlewares/ST/STM32_USB_Host_Library/Core/Src/usbh_core.c ****   case ENUM_SET_ADDR:
 712:Middlewares/ST/STM32_USB_Host_Library/Core/Src/usbh_core.c ****     /* set address */
 713:Middlewares/ST/STM32_USB_Host_Library/Core/Src/usbh_core.c ****     if ( USBH_SetAddress(phost, USBH_DEVICE_ADDRESS) == USBH_OK)
 714:Middlewares/ST/STM32_USB_Host_Library/Core/Src/usbh_core.c ****     {
 715:Middlewares/ST/STM32_USB_Host_Library/Core/Src/usbh_core.c ****       USBH_Delay(2U);
 716:Middlewares/ST/STM32_USB_Host_Library/Core/Src/usbh_core.c ****       phost->device.address = USBH_DEVICE_ADDRESS;
 717:Middlewares/ST/STM32_USB_Host_Library/Core/Src/usbh_core.c **** 
 718:Middlewares/ST/STM32_USB_Host_Library/Core/Src/usbh_core.c ****       /* user callback for device address assigned */
 719:Middlewares/ST/STM32_USB_Host_Library/Core/Src/usbh_core.c ****       USBH_UsrLog("Address (#%d) assigned.", phost->device.address);
 720:Middlewares/ST/STM32_USB_Host_Library/Core/Src/usbh_core.c ****       phost->EnumState = ENUM_GET_CFG_DESC;
 721:Middlewares/ST/STM32_USB_Host_Library/Core/Src/usbh_core.c **** 
 722:Middlewares/ST/STM32_USB_Host_Library/Core/Src/usbh_core.c ****       /* modify control channels to update device address */
 723:Middlewares/ST/STM32_USB_Host_Library/Core/Src/usbh_core.c ****       USBH_OpenPipe (phost,
 724:Middlewares/ST/STM32_USB_Host_Library/Core/Src/usbh_core.c ****                            phost->Control.pipe_in,
 725:Middlewares/ST/STM32_USB_Host_Library/Core/Src/usbh_core.c ****                            0x80U,
 726:Middlewares/ST/STM32_USB_Host_Library/Core/Src/usbh_core.c ****                            phost->device.address,
 727:Middlewares/ST/STM32_USB_Host_Library/Core/Src/usbh_core.c ****                            phost->device.speed,
 728:Middlewares/ST/STM32_USB_Host_Library/Core/Src/usbh_core.c ****                            USBH_EP_CONTROL,
 729:Middlewares/ST/STM32_USB_Host_Library/Core/Src/usbh_core.c ****                            (uint16_t)phost->Control.pipe_size);
 730:Middlewares/ST/STM32_USB_Host_Library/Core/Src/usbh_core.c **** 
 731:Middlewares/ST/STM32_USB_Host_Library/Core/Src/usbh_core.c ****       /* Open Control pipes */
 732:Middlewares/ST/STM32_USB_Host_Library/Core/Src/usbh_core.c ****       USBH_OpenPipe (phost,
 733:Middlewares/ST/STM32_USB_Host_Library/Core/Src/usbh_core.c ****                            phost->Control.pipe_out,
 734:Middlewares/ST/STM32_USB_Host_Library/Core/Src/usbh_core.c ****                            0x00U,
 735:Middlewares/ST/STM32_USB_Host_Library/Core/Src/usbh_core.c ****                            phost->device.address,
 736:Middlewares/ST/STM32_USB_Host_Library/Core/Src/usbh_core.c ****                            phost->device.speed,
 737:Middlewares/ST/STM32_USB_Host_Library/Core/Src/usbh_core.c ****                            USBH_EP_CONTROL,
 738:Middlewares/ST/STM32_USB_Host_Library/Core/Src/usbh_core.c ****                            (uint16_t)phost->Control.pipe_size);
 739:Middlewares/ST/STM32_USB_Host_Library/Core/Src/usbh_core.c ****     }
 740:Middlewares/ST/STM32_USB_Host_Library/Core/Src/usbh_core.c ****     break;
 741:Middlewares/ST/STM32_USB_Host_Library/Core/Src/usbh_core.c **** 
 742:Middlewares/ST/STM32_USB_Host_Library/Core/Src/usbh_core.c ****   case ENUM_GET_CFG_DESC:
 743:Middlewares/ST/STM32_USB_Host_Library/Core/Src/usbh_core.c ****     /* get standard configuration descriptor */
 744:Middlewares/ST/STM32_USB_Host_Library/Core/Src/usbh_core.c ****     if ( USBH_Get_CfgDesc(phost,
 745:Middlewares/ST/STM32_USB_Host_Library/Core/Src/usbh_core.c ****                           USB_CONFIGURATION_DESC_SIZE) == USBH_OK)
 746:Middlewares/ST/STM32_USB_Host_Library/Core/Src/usbh_core.c ****     {
 747:Middlewares/ST/STM32_USB_Host_Library/Core/Src/usbh_core.c ****       phost->EnumState = ENUM_GET_FULL_CFG_DESC;
 748:Middlewares/ST/STM32_USB_Host_Library/Core/Src/usbh_core.c ****     }
 749:Middlewares/ST/STM32_USB_Host_Library/Core/Src/usbh_core.c ****     break;
 750:Middlewares/ST/STM32_USB_Host_Library/Core/Src/usbh_core.c **** 
 751:Middlewares/ST/STM32_USB_Host_Library/Core/Src/usbh_core.c ****   case ENUM_GET_FULL_CFG_DESC:
ARM GAS  C:\Users\Student\AppData\Local\Temp\ccZR2NAu.s 			page 16


 752:Middlewares/ST/STM32_USB_Host_Library/Core/Src/usbh_core.c ****     /* get FULL config descriptor (config, interface, endpoints) */
 753:Middlewares/ST/STM32_USB_Host_Library/Core/Src/usbh_core.c ****     if (USBH_Get_CfgDesc(phost,
 754:Middlewares/ST/STM32_USB_Host_Library/Core/Src/usbh_core.c ****                          phost->device.CfgDesc.wTotalLength) == USBH_OK)
 755:Middlewares/ST/STM32_USB_Host_Library/Core/Src/usbh_core.c ****     {
 756:Middlewares/ST/STM32_USB_Host_Library/Core/Src/usbh_core.c ****       phost->EnumState = ENUM_GET_MFC_STRING_DESC;
 757:Middlewares/ST/STM32_USB_Host_Library/Core/Src/usbh_core.c ****     }
 758:Middlewares/ST/STM32_USB_Host_Library/Core/Src/usbh_core.c ****     break;
 759:Middlewares/ST/STM32_USB_Host_Library/Core/Src/usbh_core.c **** 
 760:Middlewares/ST/STM32_USB_Host_Library/Core/Src/usbh_core.c ****   case ENUM_GET_MFC_STRING_DESC:
 761:Middlewares/ST/STM32_USB_Host_Library/Core/Src/usbh_core.c ****     if (phost->device.DevDesc.iManufacturer != 0U)
 762:Middlewares/ST/STM32_USB_Host_Library/Core/Src/usbh_core.c ****     { /* Check that Manufacturer String is available */
 763:Middlewares/ST/STM32_USB_Host_Library/Core/Src/usbh_core.c **** 
 764:Middlewares/ST/STM32_USB_Host_Library/Core/Src/usbh_core.c ****       if ( USBH_Get_StringDesc(phost,
 765:Middlewares/ST/STM32_USB_Host_Library/Core/Src/usbh_core.c ****                                phost->device.DevDesc.iManufacturer,
 766:Middlewares/ST/STM32_USB_Host_Library/Core/Src/usbh_core.c ****                                phost->device.Data,
 767:Middlewares/ST/STM32_USB_Host_Library/Core/Src/usbh_core.c ****                                0xFFU) == USBH_OK)
 768:Middlewares/ST/STM32_USB_Host_Library/Core/Src/usbh_core.c ****       {
 769:Middlewares/ST/STM32_USB_Host_Library/Core/Src/usbh_core.c ****         /* User callback for Manufacturing string */
 770:Middlewares/ST/STM32_USB_Host_Library/Core/Src/usbh_core.c ****         USBH_UsrLog("Manufacturer : %s",  (char *)(void*)phost->device.Data);
 771:Middlewares/ST/STM32_USB_Host_Library/Core/Src/usbh_core.c ****         phost->EnumState = ENUM_GET_PRODUCT_STRING_DESC;
 772:Middlewares/ST/STM32_USB_Host_Library/Core/Src/usbh_core.c **** 
 773:Middlewares/ST/STM32_USB_Host_Library/Core/Src/usbh_core.c **** #if (USBH_USE_OS == 1U)
 774:Middlewares/ST/STM32_USB_Host_Library/Core/Src/usbh_core.c ****     osMessagePut ( phost->os_event, USBH_STATE_CHANGED_EVENT, 0);
 775:Middlewares/ST/STM32_USB_Host_Library/Core/Src/usbh_core.c **** #endif
 776:Middlewares/ST/STM32_USB_Host_Library/Core/Src/usbh_core.c ****       }
 777:Middlewares/ST/STM32_USB_Host_Library/Core/Src/usbh_core.c ****     }
 778:Middlewares/ST/STM32_USB_Host_Library/Core/Src/usbh_core.c ****     else
 779:Middlewares/ST/STM32_USB_Host_Library/Core/Src/usbh_core.c ****     {
 780:Middlewares/ST/STM32_USB_Host_Library/Core/Src/usbh_core.c ****      USBH_UsrLog("Manufacturer : N/A");
 781:Middlewares/ST/STM32_USB_Host_Library/Core/Src/usbh_core.c ****      phost->EnumState = ENUM_GET_PRODUCT_STRING_DESC;
 782:Middlewares/ST/STM32_USB_Host_Library/Core/Src/usbh_core.c **** #if (USBH_USE_OS == 1U)
 783:Middlewares/ST/STM32_USB_Host_Library/Core/Src/usbh_core.c ****     osMessagePut ( phost->os_event, USBH_STATE_CHANGED_EVENT, 0);
 784:Middlewares/ST/STM32_USB_Host_Library/Core/Src/usbh_core.c **** #endif
 785:Middlewares/ST/STM32_USB_Host_Library/Core/Src/usbh_core.c ****     }
 786:Middlewares/ST/STM32_USB_Host_Library/Core/Src/usbh_core.c ****     break;
 787:Middlewares/ST/STM32_USB_Host_Library/Core/Src/usbh_core.c **** 
 788:Middlewares/ST/STM32_USB_Host_Library/Core/Src/usbh_core.c ****   case ENUM_GET_PRODUCT_STRING_DESC:
 789:Middlewares/ST/STM32_USB_Host_Library/Core/Src/usbh_core.c ****     if (phost->device.DevDesc.iProduct != 0U)
 790:Middlewares/ST/STM32_USB_Host_Library/Core/Src/usbh_core.c ****     { /* Check that Product string is available */
 791:Middlewares/ST/STM32_USB_Host_Library/Core/Src/usbh_core.c ****       if ( USBH_Get_StringDesc(phost,
 792:Middlewares/ST/STM32_USB_Host_Library/Core/Src/usbh_core.c ****                                phost->device.DevDesc.iProduct,
 793:Middlewares/ST/STM32_USB_Host_Library/Core/Src/usbh_core.c ****                                phost->device.Data,
 794:Middlewares/ST/STM32_USB_Host_Library/Core/Src/usbh_core.c ****                                0xFFU) == USBH_OK)
 795:Middlewares/ST/STM32_USB_Host_Library/Core/Src/usbh_core.c ****       {
 796:Middlewares/ST/STM32_USB_Host_Library/Core/Src/usbh_core.c ****         /* User callback for Product string */
 797:Middlewares/ST/STM32_USB_Host_Library/Core/Src/usbh_core.c ****         USBH_UsrLog("Product : %s",  (char *)(void *)phost->device.Data);
 798:Middlewares/ST/STM32_USB_Host_Library/Core/Src/usbh_core.c ****         phost->EnumState = ENUM_GET_SERIALNUM_STRING_DESC;
 799:Middlewares/ST/STM32_USB_Host_Library/Core/Src/usbh_core.c ****       }
 800:Middlewares/ST/STM32_USB_Host_Library/Core/Src/usbh_core.c ****     }
 801:Middlewares/ST/STM32_USB_Host_Library/Core/Src/usbh_core.c ****     else
 802:Middlewares/ST/STM32_USB_Host_Library/Core/Src/usbh_core.c ****     {
 803:Middlewares/ST/STM32_USB_Host_Library/Core/Src/usbh_core.c ****       USBH_UsrLog("Product : N/A");
 804:Middlewares/ST/STM32_USB_Host_Library/Core/Src/usbh_core.c ****       phost->EnumState = ENUM_GET_SERIALNUM_STRING_DESC;
 805:Middlewares/ST/STM32_USB_Host_Library/Core/Src/usbh_core.c **** #if (USBH_USE_OS == 1U)
 806:Middlewares/ST/STM32_USB_Host_Library/Core/Src/usbh_core.c ****     osMessagePut ( phost->os_event, USBH_STATE_CHANGED_EVENT, 0);
 807:Middlewares/ST/STM32_USB_Host_Library/Core/Src/usbh_core.c **** #endif
 808:Middlewares/ST/STM32_USB_Host_Library/Core/Src/usbh_core.c ****     }
ARM GAS  C:\Users\Student\AppData\Local\Temp\ccZR2NAu.s 			page 17


 809:Middlewares/ST/STM32_USB_Host_Library/Core/Src/usbh_core.c ****     break;
 810:Middlewares/ST/STM32_USB_Host_Library/Core/Src/usbh_core.c **** 
 811:Middlewares/ST/STM32_USB_Host_Library/Core/Src/usbh_core.c ****   case ENUM_GET_SERIALNUM_STRING_DESC:
 812:Middlewares/ST/STM32_USB_Host_Library/Core/Src/usbh_core.c ****     if (phost->device.DevDesc.iSerialNumber != 0U)
 813:Middlewares/ST/STM32_USB_Host_Library/Core/Src/usbh_core.c ****     { /* Check that Serial number string is available */
 814:Middlewares/ST/STM32_USB_Host_Library/Core/Src/usbh_core.c ****       if ( USBH_Get_StringDesc(phost,
 815:Middlewares/ST/STM32_USB_Host_Library/Core/Src/usbh_core.c ****                                phost->device.DevDesc.iSerialNumber,
 816:Middlewares/ST/STM32_USB_Host_Library/Core/Src/usbh_core.c ****                                phost->device.Data,
 817:Middlewares/ST/STM32_USB_Host_Library/Core/Src/usbh_core.c ****                                0xFFU) == USBH_OK)
 818:Middlewares/ST/STM32_USB_Host_Library/Core/Src/usbh_core.c ****       {
 819:Middlewares/ST/STM32_USB_Host_Library/Core/Src/usbh_core.c ****         /* User callback for Serial number string */
 820:Middlewares/ST/STM32_USB_Host_Library/Core/Src/usbh_core.c ****          USBH_UsrLog("Serial Number : %s",  (char *)(void*)phost->device.Data);
 821:Middlewares/ST/STM32_USB_Host_Library/Core/Src/usbh_core.c ****         Status = USBH_OK;
 822:Middlewares/ST/STM32_USB_Host_Library/Core/Src/usbh_core.c ****       }
 823:Middlewares/ST/STM32_USB_Host_Library/Core/Src/usbh_core.c ****     }
 824:Middlewares/ST/STM32_USB_Host_Library/Core/Src/usbh_core.c ****     else
 825:Middlewares/ST/STM32_USB_Host_Library/Core/Src/usbh_core.c ****     {
 826:Middlewares/ST/STM32_USB_Host_Library/Core/Src/usbh_core.c ****       USBH_UsrLog("Serial Number : N/A");
 827:Middlewares/ST/STM32_USB_Host_Library/Core/Src/usbh_core.c ****       Status = USBH_OK;
 828:Middlewares/ST/STM32_USB_Host_Library/Core/Src/usbh_core.c **** #if (USBH_USE_OS == 1U)
 829:Middlewares/ST/STM32_USB_Host_Library/Core/Src/usbh_core.c ****     osMessagePut ( phost->os_event, USBH_STATE_CHANGED_EVENT, 0);
 830:Middlewares/ST/STM32_USB_Host_Library/Core/Src/usbh_core.c **** #endif
 831:Middlewares/ST/STM32_USB_Host_Library/Core/Src/usbh_core.c ****     }
 832:Middlewares/ST/STM32_USB_Host_Library/Core/Src/usbh_core.c ****     break;
 833:Middlewares/ST/STM32_USB_Host_Library/Core/Src/usbh_core.c **** 
 834:Middlewares/ST/STM32_USB_Host_Library/Core/Src/usbh_core.c ****   default:
 835:Middlewares/ST/STM32_USB_Host_Library/Core/Src/usbh_core.c ****     break;
 836:Middlewares/ST/STM32_USB_Host_Library/Core/Src/usbh_core.c ****   }
 837:Middlewares/ST/STM32_USB_Host_Library/Core/Src/usbh_core.c ****   return Status;
 838:Middlewares/ST/STM32_USB_Host_Library/Core/Src/usbh_core.c **** }
 839:Middlewares/ST/STM32_USB_Host_Library/Core/Src/usbh_core.c **** 
 840:Middlewares/ST/STM32_USB_Host_Library/Core/Src/usbh_core.c **** /**
 841:Middlewares/ST/STM32_USB_Host_Library/Core/Src/usbh_core.c ****   * @brief  USBH_LL_SetTimer
 842:Middlewares/ST/STM32_USB_Host_Library/Core/Src/usbh_core.c ****   *         Set the initial Host Timer tick
 843:Middlewares/ST/STM32_USB_Host_Library/Core/Src/usbh_core.c ****   * @param  phost: Host Handle
 844:Middlewares/ST/STM32_USB_Host_Library/Core/Src/usbh_core.c ****   * @retval None
 845:Middlewares/ST/STM32_USB_Host_Library/Core/Src/usbh_core.c ****   */
 846:Middlewares/ST/STM32_USB_Host_Library/Core/Src/usbh_core.c **** void  USBH_LL_SetTimer  (USBH_HandleTypeDef *phost, uint32_t time)
 847:Middlewares/ST/STM32_USB_Host_Library/Core/Src/usbh_core.c **** {
 848:Middlewares/ST/STM32_USB_Host_Library/Core/Src/usbh_core.c ****   phost->Timer = time;
 849:Middlewares/ST/STM32_USB_Host_Library/Core/Src/usbh_core.c **** }
 850:Middlewares/ST/STM32_USB_Host_Library/Core/Src/usbh_core.c **** /**
 851:Middlewares/ST/STM32_USB_Host_Library/Core/Src/usbh_core.c ****   * @brief  USBH_LL_IncTimer
 852:Middlewares/ST/STM32_USB_Host_Library/Core/Src/usbh_core.c ****   *         Increment Host Timer tick
 853:Middlewares/ST/STM32_USB_Host_Library/Core/Src/usbh_core.c ****   * @param  phost: Host Handle
 854:Middlewares/ST/STM32_USB_Host_Library/Core/Src/usbh_core.c ****   * @retval None
 855:Middlewares/ST/STM32_USB_Host_Library/Core/Src/usbh_core.c ****   */
 856:Middlewares/ST/STM32_USB_Host_Library/Core/Src/usbh_core.c **** void  USBH_LL_IncTimer  (USBH_HandleTypeDef *phost)
 857:Middlewares/ST/STM32_USB_Host_Library/Core/Src/usbh_core.c **** {
 858:Middlewares/ST/STM32_USB_Host_Library/Core/Src/usbh_core.c ****   phost->Timer ++;
 859:Middlewares/ST/STM32_USB_Host_Library/Core/Src/usbh_core.c ****   USBH_HandleSof(phost);
 860:Middlewares/ST/STM32_USB_Host_Library/Core/Src/usbh_core.c **** }
 861:Middlewares/ST/STM32_USB_Host_Library/Core/Src/usbh_core.c **** 
 862:Middlewares/ST/STM32_USB_Host_Library/Core/Src/usbh_core.c **** /**
 863:Middlewares/ST/STM32_USB_Host_Library/Core/Src/usbh_core.c ****   * @brief  USBH_HandleSof
 864:Middlewares/ST/STM32_USB_Host_Library/Core/Src/usbh_core.c ****   *         Call SOF process
 865:Middlewares/ST/STM32_USB_Host_Library/Core/Src/usbh_core.c ****   * @param  phost: Host Handle
ARM GAS  C:\Users\Student\AppData\Local\Temp\ccZR2NAu.s 			page 18


 866:Middlewares/ST/STM32_USB_Host_Library/Core/Src/usbh_core.c ****   * @retval None
 867:Middlewares/ST/STM32_USB_Host_Library/Core/Src/usbh_core.c ****   */
 868:Middlewares/ST/STM32_USB_Host_Library/Core/Src/usbh_core.c **** static void  USBH_HandleSof  (USBH_HandleTypeDef *phost)
 869:Middlewares/ST/STM32_USB_Host_Library/Core/Src/usbh_core.c **** {
 104              		.loc 1 869 0
 105              		.cfi_startproc
 106              		@ args = 0, pretend = 0, frame = 0
 107              		@ frame_needed = 0, uses_anonymous_args = 0
 108              	.LVL8:
 109 0000 08B5     		push	{r3, lr}
 110              	.LCFI0:
 111              		.cfi_def_cfa_offset 8
 112              		.cfi_offset 3, -8
 113              		.cfi_offset 14, -4
 870:Middlewares/ST/STM32_USB_Host_Library/Core/Src/usbh_core.c ****   if((phost->gState == HOST_CLASS)&&(phost->pActiveClass != NULL))
 114              		.loc 1 870 0
 115 0002 0378     		ldrb	r3, [r0]	@ zero_extendqisi2
 116 0004 DBB2     		uxtb	r3, r3
 117 0006 0B2B     		cmp	r3, #11
 118 0008 00D0     		beq	.L9
 119              	.LVL9:
 120              	.L6:
 121 000a 08BD     		pop	{r3, pc}
 122              	.LVL10:
 123              	.L9:
 124              		.loc 1 870 0 is_stmt 0 discriminator 1
 125 000c D0F87833 		ldr	r3, [r0, #888]
 126 0010 002B     		cmp	r3, #0
 127 0012 FAD0     		beq	.L6
 871:Middlewares/ST/STM32_USB_Host_Library/Core/Src/usbh_core.c ****   {
 872:Middlewares/ST/STM32_USB_Host_Library/Core/Src/usbh_core.c ****     phost->pActiveClass->SOFProcess(phost);
 128              		.loc 1 872 0 is_stmt 1
 129 0014 9B69     		ldr	r3, [r3, #24]
 130 0016 9847     		blx	r3
 131              	.LVL11:
 873:Middlewares/ST/STM32_USB_Host_Library/Core/Src/usbh_core.c ****   }
 874:Middlewares/ST/STM32_USB_Host_Library/Core/Src/usbh_core.c **** }
 132              		.loc 1 874 0
 133 0018 F7E7     		b	.L6
 134              		.cfi_endproc
 135              	.LFE156:
 137              		.section	.text.USBH_HandleEnum,"ax",%progbits
 138              		.align	1
 139              		.syntax unified
 140              		.thumb
 141              		.thumb_func
 142              		.fpu fpv5-sp-d16
 144              	USBH_HandleEnum:
 145              	.LFB153:
 665:Middlewares/ST/STM32_USB_Host_Library/Core/Src/usbh_core.c ****   USBH_StatusTypeDef Status = USBH_BUSY;
 146              		.loc 1 665 0
 147              		.cfi_startproc
 148              		@ args = 0, pretend = 0, frame = 0
 149              		@ frame_needed = 0, uses_anonymous_args = 0
 150              	.LVL12:
 151 0000 70B5     		push	{r4, r5, r6, lr}
 152              	.LCFI1:
ARM GAS  C:\Users\Student\AppData\Local\Temp\ccZR2NAu.s 			page 19


 153              		.cfi_def_cfa_offset 16
 154              		.cfi_offset 4, -16
 155              		.cfi_offset 5, -12
 156              		.cfi_offset 6, -8
 157              		.cfi_offset 14, -4
 158 0002 84B0     		sub	sp, sp, #16
 159              	.LCFI2:
 160              		.cfi_def_cfa_offset 32
 161 0004 0446     		mov	r4, r0
 162              	.LVL13:
 668:Middlewares/ST/STM32_USB_Host_Library/Core/Src/usbh_core.c ****   {
 163              		.loc 1 668 0
 164 0006 4378     		ldrb	r3, [r0, #1]	@ zero_extendqisi2
 165 0008 072B     		cmp	r3, #7
 166 000a 00F20A81 		bhi	.L24
 167 000e DFE813F0 		tbh	[pc, r3, lsl #1]
 168              	.L13:
 169 0012 0800     		.2byte	(.L12-.L13)/2
 170 0014 3100     		.2byte	(.L14-.L13)/2
 171 0016 4B00     		.2byte	(.L15-.L13)/2
 172 0018 7D00     		.2byte	(.L16-.L13)/2
 173 001a 8700     		.2byte	(.L17-.L13)/2
 174 001c 9100     		.2byte	(.L18-.L13)/2
 175 001e BE00     		.2byte	(.L19-.L13)/2
 176 0020 E500     		.2byte	(.L20-.L13)/2
 177              		.p2align 1
 178              	.L12:
 672:Middlewares/ST/STM32_USB_Host_Library/Core/Src/usbh_core.c ****     {
 179              		.loc 1 672 0
 180 0022 0821     		movs	r1, #8
 181 0024 FFF7FEFF 		bl	USBH_Get_DevDesc
 182              	.LVL14:
 183 0028 18B1     		cbz	r0, .L34
 666:Middlewares/ST/STM32_USB_Host_Library/Core/Src/usbh_core.c **** 
 184              		.loc 1 666 0
 185 002a 0124     		movs	r4, #1
 186              	.LVL15:
 187              	.L11:
 838:Middlewares/ST/STM32_USB_Host_Library/Core/Src/usbh_core.c **** 
 188              		.loc 1 838 0
 189 002c 2046     		mov	r0, r4
 190 002e 04B0     		add	sp, sp, #16
 191              	.LCFI3:
 192              		.cfi_remember_state
 193              		.cfi_def_cfa_offset 16
 194              		@ sp needed
 195 0030 70BD     		pop	{r4, r5, r6, pc}
 196              	.LVL16:
 197              	.L34:
 198              	.LCFI4:
 199              		.cfi_restore_state
 674:Middlewares/ST/STM32_USB_Host_Library/Core/Src/usbh_core.c **** 
 200              		.loc 1 674 0
 201 0032 94F82923 		ldrb	r2, [r4, #809]	@ zero_extendqisi2
 202 0036 A271     		strb	r2, [r4, #6]
 676:Middlewares/ST/STM32_USB_Host_Library/Core/Src/usbh_core.c **** 
 203              		.loc 1 676 0
ARM GAS  C:\Users\Student\AppData\Local\Temp\ccZR2NAu.s 			page 20


 204 0038 0125     		movs	r5, #1
 205 003a 6570     		strb	r5, [r4, #1]
 679:Middlewares/ST/STM32_USB_Host_Library/Core/Src/usbh_core.c ****                            phost->Control.pipe_in,
 206              		.loc 1 679 0
 207 003c 94F81C33 		ldrb	r3, [r4, #796]	@ zero_extendqisi2
 208 0040 2179     		ldrb	r1, [r4, #4]	@ zero_extendqisi2
 209 0042 0292     		str	r2, [sp, #8]
 210 0044 0026     		movs	r6, #0
 211 0046 0196     		str	r6, [sp, #4]
 212 0048 94F81D23 		ldrb	r2, [r4, #797]	@ zero_extendqisi2
 213 004c 0092     		str	r2, [sp]
 214 004e 8022     		movs	r2, #128
 215 0050 2046     		mov	r0, r4
 216 0052 FFF7FEFF 		bl	USBH_OpenPipe
 217              	.LVL17:
 688:Middlewares/ST/STM32_USB_Host_Library/Core/Src/usbh_core.c ****                            phost->Control.pipe_out,
 218              		.loc 1 688 0
 219 0056 94F81C33 		ldrb	r3, [r4, #796]	@ zero_extendqisi2
 220 005a 6179     		ldrb	r1, [r4, #5]	@ zero_extendqisi2
 221 005c A279     		ldrb	r2, [r4, #6]	@ zero_extendqisi2
 222 005e 0292     		str	r2, [sp, #8]
 223 0060 0196     		str	r6, [sp, #4]
 224 0062 94F81D23 		ldrb	r2, [r4, #797]	@ zero_extendqisi2
 225 0066 0092     		str	r2, [sp]
 226 0068 3246     		mov	r2, r6
 227 006a 2046     		mov	r0, r4
 228 006c FFF7FEFF 		bl	USBH_OpenPipe
 229              	.LVL18:
 666:Middlewares/ST/STM32_USB_Host_Library/Core/Src/usbh_core.c **** 
 230              		.loc 1 666 0
 231 0070 2C46     		mov	r4, r5
 232              	.LVL19:
 233 0072 DBE7     		b	.L11
 234              	.LVL20:
 235              	.L14:
 701:Middlewares/ST/STM32_USB_Host_Library/Core/Src/usbh_core.c ****     {
 236              		.loc 1 701 0
 237 0074 1221     		movs	r1, #18
 238 0076 FFF7FEFF 		bl	USBH_Get_DevDesc
 239              	.LVL21:
 240 007a 08B1     		cbz	r0, .L35
 666:Middlewares/ST/STM32_USB_Host_Library/Core/Src/usbh_core.c **** 
 241              		.loc 1 666 0
 242 007c 0124     		movs	r4, #1
 243              	.LVL22:
 244 007e D5E7     		b	.L11
 245              	.LVL23:
 246              	.L35:
 703:Middlewares/ST/STM32_USB_Host_Library/Core/Src/usbh_core.c ****       USBH_UsrLog("VID: %xh", phost->device.DevDesc.idVendor );
 247              		.loc 1 703 0
 248 0080 B4F82C13 		ldrh	r1, [r4, #812]
 249 0084 6A48     		ldr	r0, .L40
 250 0086 FFF7FEFF 		bl	printf
 251              	.LVL24:
 252 008a 0A20     		movs	r0, #10
 253 008c FFF7FEFF 		bl	putchar
 254              	.LVL25:
ARM GAS  C:\Users\Student\AppData\Local\Temp\ccZR2NAu.s 			page 21


 704:Middlewares/ST/STM32_USB_Host_Library/Core/Src/usbh_core.c **** 
 255              		.loc 1 704 0
 256 0090 B4F82A13 		ldrh	r1, [r4, #810]
 257 0094 6748     		ldr	r0, .L40+4
 258 0096 FFF7FEFF 		bl	printf
 259              	.LVL26:
 260 009a 0A20     		movs	r0, #10
 261 009c FFF7FEFF 		bl	putchar
 262              	.LVL27:
 706:Middlewares/ST/STM32_USB_Host_Library/Core/Src/usbh_core.c **** 
 263              		.loc 1 706 0
 264 00a0 0223     		movs	r3, #2
 265 00a2 6370     		strb	r3, [r4, #1]
 666:Middlewares/ST/STM32_USB_Host_Library/Core/Src/usbh_core.c **** 
 266              		.loc 1 666 0
 267 00a4 0124     		movs	r4, #1
 268              	.LVL28:
 269 00a6 C1E7     		b	.L11
 270              	.LVL29:
 271              	.L15:
 713:Middlewares/ST/STM32_USB_Host_Library/Core/Src/usbh_core.c ****     {
 272              		.loc 1 713 0
 273 00a8 0121     		movs	r1, #1
 274 00aa FFF7FEFF 		bl	USBH_SetAddress
 275              	.LVL30:
 276 00ae 08B1     		cbz	r0, .L36
 666:Middlewares/ST/STM32_USB_Host_Library/Core/Src/usbh_core.c **** 
 277              		.loc 1 666 0
 278 00b0 0124     		movs	r4, #1
 279              	.LVL31:
 280 00b2 BBE7     		b	.L11
 281              	.LVL32:
 282              	.L36:
 715:Middlewares/ST/STM32_USB_Host_Library/Core/Src/usbh_core.c ****       phost->device.address = USBH_DEVICE_ADDRESS;
 283              		.loc 1 715 0
 284 00b4 0220     		movs	r0, #2
 285 00b6 FFF7FEFF 		bl	USBH_Delay
 286              	.LVL33:
 716:Middlewares/ST/STM32_USB_Host_Library/Core/Src/usbh_core.c **** 
 287              		.loc 1 716 0
 288 00ba 0125     		movs	r5, #1
 289 00bc 84F81C53 		strb	r5, [r4, #796]
 719:Middlewares/ST/STM32_USB_Host_Library/Core/Src/usbh_core.c ****       phost->EnumState = ENUM_GET_CFG_DESC;
 290              		.loc 1 719 0
 291 00c0 2946     		mov	r1, r5
 292 00c2 5D48     		ldr	r0, .L40+8
 293 00c4 FFF7FEFF 		bl	printf
 294              	.LVL34:
 295 00c8 0A20     		movs	r0, #10
 296 00ca FFF7FEFF 		bl	putchar
 297              	.LVL35:
 720:Middlewares/ST/STM32_USB_Host_Library/Core/Src/usbh_core.c **** 
 298              		.loc 1 720 0
 299 00ce 0323     		movs	r3, #3
 300 00d0 6370     		strb	r3, [r4, #1]
 723:Middlewares/ST/STM32_USB_Host_Library/Core/Src/usbh_core.c ****                            phost->Control.pipe_in,
 301              		.loc 1 723 0
ARM GAS  C:\Users\Student\AppData\Local\Temp\ccZR2NAu.s 			page 22


 302 00d2 94F81C33 		ldrb	r3, [r4, #796]	@ zero_extendqisi2
 303 00d6 2179     		ldrb	r1, [r4, #4]	@ zero_extendqisi2
 304 00d8 A279     		ldrb	r2, [r4, #6]	@ zero_extendqisi2
 305 00da 0292     		str	r2, [sp, #8]
 306 00dc 0026     		movs	r6, #0
 307 00de 0196     		str	r6, [sp, #4]
 308 00e0 94F81D23 		ldrb	r2, [r4, #797]	@ zero_extendqisi2
 309 00e4 0092     		str	r2, [sp]
 310 00e6 8022     		movs	r2, #128
 311 00e8 2046     		mov	r0, r4
 312 00ea FFF7FEFF 		bl	USBH_OpenPipe
 313              	.LVL36:
 732:Middlewares/ST/STM32_USB_Host_Library/Core/Src/usbh_core.c ****                            phost->Control.pipe_out,
 314              		.loc 1 732 0
 315 00ee 94F81C33 		ldrb	r3, [r4, #796]	@ zero_extendqisi2
 316 00f2 6179     		ldrb	r1, [r4, #5]	@ zero_extendqisi2
 317 00f4 A279     		ldrb	r2, [r4, #6]	@ zero_extendqisi2
 318 00f6 0292     		str	r2, [sp, #8]
 319 00f8 0196     		str	r6, [sp, #4]
 320 00fa 94F81D23 		ldrb	r2, [r4, #797]	@ zero_extendqisi2
 321 00fe 0092     		str	r2, [sp]
 322 0100 3246     		mov	r2, r6
 323 0102 2046     		mov	r0, r4
 324 0104 FFF7FEFF 		bl	USBH_OpenPipe
 325              	.LVL37:
 666:Middlewares/ST/STM32_USB_Host_Library/Core/Src/usbh_core.c **** 
 326              		.loc 1 666 0
 327 0108 2C46     		mov	r4, r5
 328              	.LVL38:
 329 010a 8FE7     		b	.L11
 330              	.LVL39:
 331              	.L16:
 744:Middlewares/ST/STM32_USB_Host_Library/Core/Src/usbh_core.c ****                           USB_CONFIGURATION_DESC_SIZE) == USBH_OK)
 332              		.loc 1 744 0
 333 010c 0921     		movs	r1, #9
 334 010e FFF7FEFF 		bl	USBH_Get_CfgDesc
 335              	.LVL40:
 336 0112 0028     		cmp	r0, #0
 337 0114 40F08780 		bne	.L28
 747:Middlewares/ST/STM32_USB_Host_Library/Core/Src/usbh_core.c ****     }
 338              		.loc 1 747 0
 339 0118 0423     		movs	r3, #4
 340 011a 6370     		strb	r3, [r4, #1]
 666:Middlewares/ST/STM32_USB_Host_Library/Core/Src/usbh_core.c **** 
 341              		.loc 1 666 0
 342 011c 0124     		movs	r4, #1
 343              	.LVL41:
 344 011e 85E7     		b	.L11
 345              	.LVL42:
 346              	.L17:
 753:Middlewares/ST/STM32_USB_Host_Library/Core/Src/usbh_core.c ****                          phost->device.CfgDesc.wTotalLength) == USBH_OK)
 347              		.loc 1 753 0
 348 0120 B0F83613 		ldrh	r1, [r0, #822]
 349 0124 FFF7FEFF 		bl	USBH_Get_CfgDesc
 350              	.LVL43:
 351 0128 0028     		cmp	r0, #0
 352 012a 7ED1     		bne	.L29
ARM GAS  C:\Users\Student\AppData\Local\Temp\ccZR2NAu.s 			page 23


 756:Middlewares/ST/STM32_USB_Host_Library/Core/Src/usbh_core.c ****     }
 353              		.loc 1 756 0
 354 012c 0523     		movs	r3, #5
 355 012e 6370     		strb	r3, [r4, #1]
 666:Middlewares/ST/STM32_USB_Host_Library/Core/Src/usbh_core.c **** 
 356              		.loc 1 666 0
 357 0130 0124     		movs	r4, #1
 358              	.LVL44:
 359 0132 7BE7     		b	.L11
 360              	.LVL45:
 361              	.L18:
 761:Middlewares/ST/STM32_USB_Host_Library/Core/Src/usbh_core.c ****     { /* Check that Manufacturer String is available */
 362              		.loc 1 761 0
 363 0134 90F83013 		ldrb	r1, [r0, #816]	@ zero_extendqisi2
 364 0138 C9B1     		cbz	r1, .L21
 766:Middlewares/ST/STM32_USB_Host_Library/Core/Src/usbh_core.c ****                                0xFFU) == USBH_OK)
 365              		.loc 1 766 0
 366 013a 00F58E75 		add	r5, r0, #284
 764:Middlewares/ST/STM32_USB_Host_Library/Core/Src/usbh_core.c ****                                phost->device.DevDesc.iManufacturer,
 367              		.loc 1 764 0
 368 013e FF23     		movs	r3, #255
 369 0140 2A46     		mov	r2, r5
 370 0142 FFF7FEFF 		bl	USBH_Get_StringDesc
 371              	.LVL46:
 372 0146 08B1     		cbz	r0, .L37
 666:Middlewares/ST/STM32_USB_Host_Library/Core/Src/usbh_core.c **** 
 373              		.loc 1 666 0
 374 0148 0124     		movs	r4, #1
 375              	.LVL47:
 376 014a 6FE7     		b	.L11
 377              	.LVL48:
 378              	.L37:
 770:Middlewares/ST/STM32_USB_Host_Library/Core/Src/usbh_core.c ****         phost->EnumState = ENUM_GET_PRODUCT_STRING_DESC;
 379              		.loc 1 770 0
 380 014c 2946     		mov	r1, r5
 381 014e 3B48     		ldr	r0, .L40+12
 382 0150 FFF7FEFF 		bl	printf
 383              	.LVL49:
 384 0154 0A20     		movs	r0, #10
 385 0156 FFF7FEFF 		bl	putchar
 386              	.LVL50:
 771:Middlewares/ST/STM32_USB_Host_Library/Core/Src/usbh_core.c **** 
 387              		.loc 1 771 0
 388 015a 0623     		movs	r3, #6
 389 015c 6370     		strb	r3, [r4, #1]
 774:Middlewares/ST/STM32_USB_Host_Library/Core/Src/usbh_core.c **** #endif
 390              		.loc 1 774 0
 391 015e 0022     		movs	r2, #0
 392 0160 0521     		movs	r1, #5
 393 0162 D4F8CC03 		ldr	r0, [r4, #972]
 394 0166 FFF7FEFF 		bl	osMessagePut
 395              	.LVL51:
 666:Middlewares/ST/STM32_USB_Host_Library/Core/Src/usbh_core.c **** 
 396              		.loc 1 666 0
 397 016a 0124     		movs	r4, #1
 398              	.LVL52:
 399 016c 5EE7     		b	.L11
ARM GAS  C:\Users\Student\AppData\Local\Temp\ccZR2NAu.s 			page 24


 400              	.LVL53:
 401              	.L21:
 780:Middlewares/ST/STM32_USB_Host_Library/Core/Src/usbh_core.c ****      phost->EnumState = ENUM_GET_PRODUCT_STRING_DESC;
 402              		.loc 1 780 0
 403 016e 3448     		ldr	r0, .L40+16
 404              	.LVL54:
 405 0170 FFF7FEFF 		bl	printf
 406              	.LVL55:
 407 0174 0A20     		movs	r0, #10
 408 0176 FFF7FEFF 		bl	putchar
 409              	.LVL56:
 781:Middlewares/ST/STM32_USB_Host_Library/Core/Src/usbh_core.c **** #if (USBH_USE_OS == 1U)
 410              		.loc 1 781 0
 411 017a 0623     		movs	r3, #6
 412 017c 6370     		strb	r3, [r4, #1]
 783:Middlewares/ST/STM32_USB_Host_Library/Core/Src/usbh_core.c **** #endif
 413              		.loc 1 783 0
 414 017e 0022     		movs	r2, #0
 415 0180 0521     		movs	r1, #5
 416 0182 D4F8CC03 		ldr	r0, [r4, #972]
 417 0186 FFF7FEFF 		bl	osMessagePut
 418              	.LVL57:
 666:Middlewares/ST/STM32_USB_Host_Library/Core/Src/usbh_core.c **** 
 419              		.loc 1 666 0
 420 018a 0124     		movs	r4, #1
 421              	.LVL58:
 422 018c 4EE7     		b	.L11
 423              	.LVL59:
 424              	.L19:
 789:Middlewares/ST/STM32_USB_Host_Library/Core/Src/usbh_core.c ****     { /* Check that Product string is available */
 425              		.loc 1 789 0
 426 018e 90F83113 		ldrb	r1, [r0, #817]	@ zero_extendqisi2
 427 0192 99B1     		cbz	r1, .L22
 793:Middlewares/ST/STM32_USB_Host_Library/Core/Src/usbh_core.c ****                                0xFFU) == USBH_OK)
 428              		.loc 1 793 0
 429 0194 00F58E75 		add	r5, r0, #284
 791:Middlewares/ST/STM32_USB_Host_Library/Core/Src/usbh_core.c ****                                phost->device.DevDesc.iProduct,
 430              		.loc 1 791 0
 431 0198 FF23     		movs	r3, #255
 432 019a 2A46     		mov	r2, r5
 433 019c FFF7FEFF 		bl	USBH_Get_StringDesc
 434              	.LVL60:
 435 01a0 08B1     		cbz	r0, .L38
 666:Middlewares/ST/STM32_USB_Host_Library/Core/Src/usbh_core.c **** 
 436              		.loc 1 666 0
 437 01a2 0124     		movs	r4, #1
 438              	.LVL61:
 439 01a4 42E7     		b	.L11
 440              	.LVL62:
 441              	.L38:
 797:Middlewares/ST/STM32_USB_Host_Library/Core/Src/usbh_core.c ****         phost->EnumState = ENUM_GET_SERIALNUM_STRING_DESC;
 442              		.loc 1 797 0
 443 01a6 2946     		mov	r1, r5
 444 01a8 2648     		ldr	r0, .L40+20
 445 01aa FFF7FEFF 		bl	printf
 446              	.LVL63:
 447 01ae 0A20     		movs	r0, #10
ARM GAS  C:\Users\Student\AppData\Local\Temp\ccZR2NAu.s 			page 25


 448 01b0 FFF7FEFF 		bl	putchar
 449              	.LVL64:
 798:Middlewares/ST/STM32_USB_Host_Library/Core/Src/usbh_core.c ****       }
 450              		.loc 1 798 0
 451 01b4 0723     		movs	r3, #7
 452 01b6 6370     		strb	r3, [r4, #1]
 666:Middlewares/ST/STM32_USB_Host_Library/Core/Src/usbh_core.c **** 
 453              		.loc 1 666 0
 454 01b8 0124     		movs	r4, #1
 455              	.LVL65:
 456 01ba 37E7     		b	.L11
 457              	.LVL66:
 458              	.L22:
 803:Middlewares/ST/STM32_USB_Host_Library/Core/Src/usbh_core.c ****       phost->EnumState = ENUM_GET_SERIALNUM_STRING_DESC;
 459              		.loc 1 803 0
 460 01bc 2248     		ldr	r0, .L40+24
 461              	.LVL67:
 462 01be FFF7FEFF 		bl	printf
 463              	.LVL68:
 464 01c2 0A20     		movs	r0, #10
 465 01c4 FFF7FEFF 		bl	putchar
 466              	.LVL69:
 804:Middlewares/ST/STM32_USB_Host_Library/Core/Src/usbh_core.c **** #if (USBH_USE_OS == 1U)
 467              		.loc 1 804 0
 468 01c8 0723     		movs	r3, #7
 469 01ca 6370     		strb	r3, [r4, #1]
 806:Middlewares/ST/STM32_USB_Host_Library/Core/Src/usbh_core.c **** #endif
 470              		.loc 1 806 0
 471 01cc 0022     		movs	r2, #0
 472 01ce 0521     		movs	r1, #5
 473 01d0 D4F8CC03 		ldr	r0, [r4, #972]
 474 01d4 FFF7FEFF 		bl	osMessagePut
 475              	.LVL70:
 666:Middlewares/ST/STM32_USB_Host_Library/Core/Src/usbh_core.c **** 
 476              		.loc 1 666 0
 477 01d8 0124     		movs	r4, #1
 478              	.LVL71:
 479 01da 27E7     		b	.L11
 480              	.LVL72:
 481              	.L20:
 812:Middlewares/ST/STM32_USB_Host_Library/Core/Src/usbh_core.c ****     { /* Check that Serial number string is available */
 482              		.loc 1 812 0
 483 01dc 90F83213 		ldrb	r1, [r0, #818]	@ zero_extendqisi2
 484 01e0 89B1     		cbz	r1, .L23
 816:Middlewares/ST/STM32_USB_Host_Library/Core/Src/usbh_core.c ****                                0xFFU) == USBH_OK)
 485              		.loc 1 816 0
 486 01e2 00F58E75 		add	r5, r0, #284
 814:Middlewares/ST/STM32_USB_Host_Library/Core/Src/usbh_core.c ****                                phost->device.DevDesc.iSerialNumber,
 487              		.loc 1 814 0
 488 01e6 FF23     		movs	r3, #255
 489 01e8 2A46     		mov	r2, r5
 490 01ea FFF7FEFF 		bl	USBH_Get_StringDesc
 491              	.LVL73:
 492 01ee 0446     		mov	r4, r0
 493              	.LVL74:
 494 01f0 08B1     		cbz	r0, .L39
 666:Middlewares/ST/STM32_USB_Host_Library/Core/Src/usbh_core.c **** 
ARM GAS  C:\Users\Student\AppData\Local\Temp\ccZR2NAu.s 			page 26


 495              		.loc 1 666 0
 496 01f2 0124     		movs	r4, #1
 497 01f4 1AE7     		b	.L11
 498              	.L39:
 820:Middlewares/ST/STM32_USB_Host_Library/Core/Src/usbh_core.c ****         Status = USBH_OK;
 499              		.loc 1 820 0
 500 01f6 2946     		mov	r1, r5
 501 01f8 1448     		ldr	r0, .L40+28
 502 01fa FFF7FEFF 		bl	printf
 503              	.LVL75:
 504 01fe 0A20     		movs	r0, #10
 505 0200 FFF7FEFF 		bl	putchar
 506              	.LVL76:
 507 0204 12E7     		b	.L11
 508              	.LVL77:
 509              	.L23:
 826:Middlewares/ST/STM32_USB_Host_Library/Core/Src/usbh_core.c ****       Status = USBH_OK;
 510              		.loc 1 826 0
 511 0206 1248     		ldr	r0, .L40+32
 512              	.LVL78:
 513 0208 FFF7FEFF 		bl	printf
 514              	.LVL79:
 515 020c 0A20     		movs	r0, #10
 516 020e FFF7FEFF 		bl	putchar
 517              	.LVL80:
 829:Middlewares/ST/STM32_USB_Host_Library/Core/Src/usbh_core.c **** #endif
 518              		.loc 1 829 0
 519 0212 0022     		movs	r2, #0
 520 0214 0521     		movs	r1, #5
 521 0216 D4F8CC03 		ldr	r0, [r4, #972]
 522 021a FFF7FEFF 		bl	osMessagePut
 523              	.LVL81:
 827:Middlewares/ST/STM32_USB_Host_Library/Core/Src/usbh_core.c **** #if (USBH_USE_OS == 1U)
 524              		.loc 1 827 0
 525 021e 0024     		movs	r4, #0
 526              	.LVL82:
 527 0220 04E7     		b	.L11
 528              	.LVL83:
 529              	.L24:
 666:Middlewares/ST/STM32_USB_Host_Library/Core/Src/usbh_core.c **** 
 530              		.loc 1 666 0
 531 0222 0124     		movs	r4, #1
 532 0224 02E7     		b	.L11
 533              	.LVL84:
 534              	.L28:
 535 0226 0124     		movs	r4, #1
 536              	.LVL85:
 537 0228 00E7     		b	.L11
 538              	.LVL86:
 539              	.L29:
 540 022a 0124     		movs	r4, #1
 541              	.LVL87:
 542 022c FEE6     		b	.L11
 543              	.L41:
 544 022e 00BF     		.align	2
 545              	.L40:
 546 0230 00000000 		.word	.LC3
ARM GAS  C:\Users\Student\AppData\Local\Temp\ccZR2NAu.s 			page 27


 547 0234 0C000000 		.word	.LC4
 548 0238 18000000 		.word	.LC5
 549 023c 30000000 		.word	.LC6
 550 0240 44000000 		.word	.LC7
 551 0244 58000000 		.word	.LC8
 552 0248 68000000 		.word	.LC9
 553 024c 78000000 		.word	.LC10
 554 0250 8C000000 		.word	.LC11
 555              		.cfi_endproc
 556              	.LFE153:
 558              		.section	.text.USBH_Init,"ax",%progbits
 559              		.align	1
 560              		.global	USBH_Init
 561              		.syntax unified
 562              		.thumb
 563              		.thumb_func
 564              		.fpu fpv5-sp-d16
 566              	USBH_Init:
 567              	.LFB141:
 111:Middlewares/ST/STM32_USB_Host_Library/Core/Src/usbh_core.c ****   /* Check whether the USB Host handle is valid */
 568              		.loc 1 111 0
 569              		.cfi_startproc
 570              		@ args = 0, pretend = 0, frame = 32
 571              		@ frame_needed = 0, uses_anonymous_args = 0
 572              	.LVL88:
 573 0000 70B5     		push	{r4, r5, r6, lr}
 574              	.LCFI5:
 575              		.cfi_def_cfa_offset 16
 576              		.cfi_offset 4, -16
 577              		.cfi_offset 5, -12
 578              		.cfi_offset 6, -8
 579              		.cfi_offset 14, -4
 580 0002 88B0     		sub	sp, sp, #32
 581              	.LCFI6:
 582              		.cfi_def_cfa_offset 48
 113:Middlewares/ST/STM32_USB_Host_Library/Core/Src/usbh_core.c ****   {
 583              		.loc 1 113 0
 584 0004 58B3     		cbz	r0, .L47
 585 0006 0C46     		mov	r4, r1
 586 0008 0546     		mov	r5, r0
 120:Middlewares/ST/STM32_USB_Host_Library/Core/Src/usbh_core.c **** 
 587              		.loc 1 120 0
 588 000a 80F8C023 		strb	r2, [r0, #960]
 123:Middlewares/ST/STM32_USB_Host_Library/Core/Src/usbh_core.c ****   phost->ClassNumber = 0U;
 589              		.loc 1 123 0
 590 000e 0023     		movs	r3, #0
 591 0010 C0F87833 		str	r3, [r0, #888]
 124:Middlewares/ST/STM32_USB_Host_Library/Core/Src/usbh_core.c **** 
 592              		.loc 1 124 0
 593 0014 C0F87C33 		str	r3, [r0, #892]
 127:Middlewares/ST/STM32_USB_Host_Library/Core/Src/usbh_core.c **** 
 594              		.loc 1 127 0
 595 0018 FFF7FEFF 		bl	DeInitStateMachine
 596              	.LVL89:
 130:Middlewares/ST/STM32_USB_Host_Library/Core/Src/usbh_core.c ****   {
 597              		.loc 1 130 0
 598 001c 0CB1     		cbz	r4, .L45
ARM GAS  C:\Users\Student\AppData\Local\Temp\ccZR2NAu.s 			page 28


 132:Middlewares/ST/STM32_USB_Host_Library/Core/Src/usbh_core.c ****   }
 599              		.loc 1 132 0
 600 001e C5F8C843 		str	r4, [r5, #968]
 601              	.L45:
 138:Middlewares/ST/STM32_USB_Host_Library/Core/Src/usbh_core.c ****   phost->os_event = osMessageCreate (osMessageQ(USBH_Queue), NULL);
 602              		.loc 1 138 0
 603 0022 144C     		ldr	r4, .L48
 604              	.LVL90:
 605 0024 06AB     		add	r3, sp, #24
 606 0026 94E80300 		ldm	r4, {r0, r1}
 607 002a 83E80300 		stm	r3, {r0, r1}
 139:Middlewares/ST/STM32_USB_Host_Library/Core/Src/usbh_core.c **** 
 608              		.loc 1 139 0
 609 002e 0021     		movs	r1, #0
 610 0030 1846     		mov	r0, r3
 611 0032 FFF7FEFF 		bl	osMessageCreate
 612              	.LVL91:
 613 0036 C5F8CC03 		str	r0, [r5, #972]
 143:Middlewares/ST/STM32_USB_Host_Library/Core/Src/usbh_core.c **** #else
 614              		.loc 1 143 0
 615 003a 01AE     		add	r6, sp, #4
 616 003c 0834     		adds	r4, r4, #8
 617 003e 0FCC     		ldmia	r4!, {r0, r1, r2, r3}
 618 0040 0FC6     		stmia	r6!, {r0, r1, r2, r3}
 619 0042 2368     		ldr	r3, [r4]
 620 0044 3360     		str	r3, [r6]
 147:Middlewares/ST/STM32_USB_Host_Library/Core/Src/usbh_core.c **** #endif
 621              		.loc 1 147 0
 622 0046 2946     		mov	r1, r5
 623 0048 01A8     		add	r0, sp, #4
 624 004a FFF7FEFF 		bl	osThreadCreate
 625              	.LVL92:
 626 004e C5F8D003 		str	r0, [r5, #976]
 151:Middlewares/ST/STM32_USB_Host_Library/Core/Src/usbh_core.c ****   return USBH_OK;
 627              		.loc 1 151 0
 628 0052 2846     		mov	r0, r5
 629 0054 FFF7FEFF 		bl	USBH_LL_Init
 630              	.LVL93:
 152:Middlewares/ST/STM32_USB_Host_Library/Core/Src/usbh_core.c **** }
 631              		.loc 1 152 0
 632 0058 0020     		movs	r0, #0
 633              	.LVL94:
 634              	.L44:
 153:Middlewares/ST/STM32_USB_Host_Library/Core/Src/usbh_core.c **** 
 635              		.loc 1 153 0
 636 005a 08B0     		add	sp, sp, #32
 637              	.LCFI7:
 638              		.cfi_remember_state
 639              		.cfi_def_cfa_offset 16
 640              		@ sp needed
 641 005c 70BD     		pop	{r4, r5, r6, pc}
 642              	.LVL95:
 643              	.L47:
 644              	.LCFI8:
 645              		.cfi_restore_state
 115:Middlewares/ST/STM32_USB_Host_Library/Core/Src/usbh_core.c ****     return USBH_FAIL;
 646              		.loc 1 115 0
ARM GAS  C:\Users\Student\AppData\Local\Temp\ccZR2NAu.s 			page 29


 647 005e 0648     		ldr	r0, .L48+4
 648              	.LVL96:
 649 0060 FFF7FEFF 		bl	printf
 650              	.LVL97:
 651 0064 0548     		ldr	r0, .L48+8
 652 0066 FFF7FEFF 		bl	printf
 653              	.LVL98:
 654 006a 0A20     		movs	r0, #10
 655 006c FFF7FEFF 		bl	putchar
 656              	.LVL99:
 116:Middlewares/ST/STM32_USB_Host_Library/Core/Src/usbh_core.c ****   }
 657              		.loc 1 116 0
 658 0070 0220     		movs	r0, #2
 659 0072 F2E7     		b	.L44
 660              	.L49:
 661              		.align	2
 662              	.L48:
 663 0074 00000000 		.word	.LANCHOR0
 664 0078 00000000 		.word	.LC12
 665 007c 08000000 		.word	.LC13
 666              		.cfi_endproc
 667              	.LFE141:
 669              		.section	.text.USBH_DeInit,"ax",%progbits
 670              		.align	1
 671              		.global	USBH_DeInit
 672              		.syntax unified
 673              		.thumb
 674              		.thumb_func
 675              		.fpu fpv5-sp-d16
 677              	USBH_DeInit:
 678              	.LFB142:
 162:Middlewares/ST/STM32_USB_Host_Library/Core/Src/usbh_core.c ****   DeInitStateMachine(phost);
 679              		.loc 1 162 0
 680              		.cfi_startproc
 681              		@ args = 0, pretend = 0, frame = 0
 682              		@ frame_needed = 0, uses_anonymous_args = 0
 683              	.LVL100:
 684 0000 10B5     		push	{r4, lr}
 685              	.LCFI9:
 686              		.cfi_def_cfa_offset 8
 687              		.cfi_offset 4, -8
 688              		.cfi_offset 14, -4
 689 0002 0446     		mov	r4, r0
 163:Middlewares/ST/STM32_USB_Host_Library/Core/Src/usbh_core.c **** 
 690              		.loc 1 163 0
 691 0004 FFF7FEFF 		bl	DeInitStateMachine
 692              	.LVL101:
 165:Middlewares/ST/STM32_USB_Host_Library/Core/Src/usbh_core.c ****   {
 693              		.loc 1 165 0
 694 0008 D4F8C433 		ldr	r3, [r4, #964]
 695 000c 5BB1     		cbz	r3, .L51
 167:Middlewares/ST/STM32_USB_Host_Library/Core/Src/usbh_core.c ****     phost->pActiveClass->pData = NULL;
 696              		.loc 1 167 0
 697 000e D4F87833 		ldr	r3, [r4, #888]
 698 0012 D869     		ldr	r0, [r3, #28]
 699 0014 FFF7FEFF 		bl	free
 700              	.LVL102:
ARM GAS  C:\Users\Student\AppData\Local\Temp\ccZR2NAu.s 			page 30


 168:Middlewares/ST/STM32_USB_Host_Library/Core/Src/usbh_core.c ****     USBH_LL_Stop(phost);
 701              		.loc 1 168 0
 702 0018 D4F87833 		ldr	r3, [r4, #888]
 703 001c 0022     		movs	r2, #0
 704 001e DA61     		str	r2, [r3, #28]
 169:Middlewares/ST/STM32_USB_Host_Library/Core/Src/usbh_core.c ****   }
 705              		.loc 1 169 0
 706 0020 2046     		mov	r0, r4
 707 0022 FFF7FEFF 		bl	USBH_LL_Stop
 708              	.LVL103:
 709              	.L51:
 173:Middlewares/ST/STM32_USB_Host_Library/Core/Src/usbh_core.c **** 
 710              		.loc 1 173 0
 711 0026 0020     		movs	r0, #0
 712 0028 10BD     		pop	{r4, pc}
 713              		.cfi_endproc
 714              	.LFE142:
 716              		.section	.text.USBH_RegisterClass,"ax",%progbits
 717              		.align	1
 718              		.global	USBH_RegisterClass
 719              		.syntax unified
 720              		.thumb
 721              		.thumb_func
 722              		.fpu fpv5-sp-d16
 724              	USBH_RegisterClass:
 725              	.LFB144:
 219:Middlewares/ST/STM32_USB_Host_Library/Core/Src/usbh_core.c ****   USBH_StatusTypeDef   status = USBH_OK;
 726              		.loc 1 219 0
 727              		.cfi_startproc
 728              		@ args = 0, pretend = 0, frame = 0
 729              		@ frame_needed = 0, uses_anonymous_args = 0
 730              	.LVL104:
 731 0000 08B5     		push	{r3, lr}
 732              	.LCFI10:
 733              		.cfi_def_cfa_offset 8
 734              		.cfi_offset 3, -8
 735              		.cfi_offset 14, -4
 736              	.LVL105:
 222:Middlewares/ST/STM32_USB_Host_Library/Core/Src/usbh_core.c ****   {
 737              		.loc 1 222 0
 738 0002 B9B1     		cbz	r1, .L54
 739 0004 0A46     		mov	r2, r1
 224:Middlewares/ST/STM32_USB_Host_Library/Core/Src/usbh_core.c ****     {
 740              		.loc 1 224 0
 741 0006 D0F87C33 		ldr	r3, [r0, #892]
 742 000a 43B9     		cbnz	r3, .L55
 227:Middlewares/ST/STM32_USB_Host_Library/Core/Src/usbh_core.c ****       status = USBH_OK;
 743              		.loc 1 227 0
 744 000c 591C     		adds	r1, r3, #1
 745              	.LVL106:
 746 000e C0F87C13 		str	r1, [r0, #892]
 747 0012 DC33     		adds	r3, r3, #220
 748 0014 00EB8300 		add	r0, r0, r3, lsl #2
 749              	.LVL107:
 750 0018 4260     		str	r2, [r0, #4]
 228:Middlewares/ST/STM32_USB_Host_Library/Core/Src/usbh_core.c ****     }
 751              		.loc 1 228 0
ARM GAS  C:\Users\Student\AppData\Local\Temp\ccZR2NAu.s 			page 31


 752 001a 0020     		movs	r0, #0
 753 001c 08BD     		pop	{r3, pc}
 754              	.LVL108:
 755              	.L55:
 232:Middlewares/ST/STM32_USB_Host_Library/Core/Src/usbh_core.c ****       status = USBH_FAIL;
 756              		.loc 1 232 0
 757 001e 0B48     		ldr	r0, .L58
 758              	.LVL109:
 759 0020 FFF7FEFF 		bl	printf
 760              	.LVL110:
 761 0024 0A48     		ldr	r0, .L58+4
 762 0026 FFF7FEFF 		bl	printf
 763              	.LVL111:
 764 002a 0A20     		movs	r0, #10
 765 002c FFF7FEFF 		bl	putchar
 766              	.LVL112:
 233:Middlewares/ST/STM32_USB_Host_Library/Core/Src/usbh_core.c ****     }
 767              		.loc 1 233 0
 768 0030 0220     		movs	r0, #2
 769 0032 08BD     		pop	{r3, pc}
 770              	.LVL113:
 771              	.L54:
 238:Middlewares/ST/STM32_USB_Host_Library/Core/Src/usbh_core.c ****     status = USBH_FAIL;
 772              		.loc 1 238 0
 773 0034 0548     		ldr	r0, .L58
 774              	.LVL114:
 775 0036 FFF7FEFF 		bl	printf
 776              	.LVL115:
 777 003a 0648     		ldr	r0, .L58+8
 778 003c FFF7FEFF 		bl	printf
 779              	.LVL116:
 780 0040 0A20     		movs	r0, #10
 781 0042 FFF7FEFF 		bl	putchar
 782              	.LVL117:
 239:Middlewares/ST/STM32_USB_Host_Library/Core/Src/usbh_core.c ****   }
 783              		.loc 1 239 0
 784 0046 0220     		movs	r0, #2
 785              	.LVL118:
 243:Middlewares/ST/STM32_USB_Host_Library/Core/Src/usbh_core.c **** 
 786              		.loc 1 243 0
 787 0048 08BD     		pop	{r3, pc}
 788              	.L59:
 789 004a 00BF     		.align	2
 790              	.L58:
 791 004c 00000000 		.word	.LC12
 792 0050 00000000 		.word	.LC15
 793 0054 1C000000 		.word	.LC16
 794              		.cfi_endproc
 795              	.LFE144:
 797              		.section	.text.USBH_SelectInterface,"ax",%progbits
 798              		.align	1
 799              		.global	USBH_SelectInterface
 800              		.syntax unified
 801              		.thumb
 802              		.thumb_func
 803              		.fpu fpv5-sp-d16
 805              	USBH_SelectInterface:
ARM GAS  C:\Users\Student\AppData\Local\Temp\ccZR2NAu.s 			page 32


 806              	.LFB145:
 253:Middlewares/ST/STM32_USB_Host_Library/Core/Src/usbh_core.c ****   USBH_StatusTypeDef   status = USBH_OK;
 807              		.loc 1 253 0
 808              		.cfi_startproc
 809              		@ args = 0, pretend = 0, frame = 0
 810              		@ frame_needed = 0, uses_anonymous_args = 0
 811              	.LVL119:
 812 0000 38B5     		push	{r3, r4, r5, lr}
 813              	.LCFI11:
 814              		.cfi_def_cfa_offset 16
 815              		.cfi_offset 3, -16
 816              		.cfi_offset 4, -12
 817              		.cfi_offset 5, -8
 818              		.cfi_offset 14, -4
 819              	.LVL120:
 256:Middlewares/ST/STM32_USB_Host_Library/Core/Src/usbh_core.c ****   {
 820              		.loc 1 256 0
 821 0002 90F83833 		ldrb	r3, [r0, #824]	@ zero_extendqisi2
 822 0006 8B42     		cmp	r3, r1
 823 0008 0AD8     		bhi	.L64
 266:Middlewares/ST/STM32_USB_Host_Library/Core/Src/usbh_core.c ****     status = USBH_FAIL;
 824              		.loc 1 266 0
 825 000a 1948     		ldr	r0, .L65
 826              	.LVL121:
 827 000c FFF7FEFF 		bl	printf
 828              	.LVL122:
 829 0010 1848     		ldr	r0, .L65+4
 830 0012 FFF7FEFF 		bl	printf
 831              	.LVL123:
 832 0016 0A20     		movs	r0, #10
 833 0018 FFF7FEFF 		bl	putchar
 834              	.LVL124:
 267:Middlewares/ST/STM32_USB_Host_Library/Core/Src/usbh_core.c ****   }
 835              		.loc 1 267 0
 836 001c 0220     		movs	r0, #2
 837              	.LVL125:
 270:Middlewares/ST/STM32_USB_Host_Library/Core/Src/usbh_core.c **** 
 838              		.loc 1 270 0
 839 001e 38BD     		pop	{r3, r4, r5, pc}
 840              	.LVL126:
 841              	.L64:
 842 0020 0546     		mov	r5, r0
 843 0022 0C46     		mov	r4, r1
 258:Middlewares/ST/STM32_USB_Host_Library/Core/Src/usbh_core.c ****     USBH_UsrLog ("Switching to Interface (#%d)", interface);
 844              		.loc 1 258 0
 845 0024 85F82013 		strb	r1, [r5, #800]
 259:Middlewares/ST/STM32_USB_Host_Library/Core/Src/usbh_core.c ****     USBH_UsrLog ("Class    : %xh", phost->device.CfgDesc.Itf_Desc[interface].bInterfaceClass );
 846              		.loc 1 259 0
 847 0028 1348     		ldr	r0, .L65+8
 848              	.LVL127:
 849 002a FFF7FEFF 		bl	printf
 850              	.LVL128:
 851 002e 0A20     		movs	r0, #10
 852 0030 FFF7FEFF 		bl	putchar
 853              	.LVL129:
 260:Middlewares/ST/STM32_USB_Host_Library/Core/Src/usbh_core.c ****     USBH_UsrLog ("SubClass : %xh", phost->device.CfgDesc.Itf_Desc[interface].bInterfaceSubClass );
 854              		.loc 1 260 0
ARM GAS  C:\Users\Student\AppData\Local\Temp\ccZR2NAu.s 			page 33


 855 0034 1A23     		movs	r3, #26
 856 0036 03FB0454 		mla	r4, r3, r4, r5
 857 003a 94F84313 		ldrb	r1, [r4, #835]	@ zero_extendqisi2
 858 003e 0F48     		ldr	r0, .L65+12
 859 0040 FFF7FEFF 		bl	printf
 860              	.LVL130:
 861 0044 0A20     		movs	r0, #10
 862 0046 FFF7FEFF 		bl	putchar
 863              	.LVL131:
 261:Middlewares/ST/STM32_USB_Host_Library/Core/Src/usbh_core.c ****     USBH_UsrLog ("Protocol : %xh", phost->device.CfgDesc.Itf_Desc[interface].bInterfaceProtocol );
 864              		.loc 1 261 0
 865 004a 94F84413 		ldrb	r1, [r4, #836]	@ zero_extendqisi2
 866 004e 0C48     		ldr	r0, .L65+16
 867 0050 FFF7FEFF 		bl	printf
 868              	.LVL132:
 869 0054 0A20     		movs	r0, #10
 870 0056 FFF7FEFF 		bl	putchar
 871              	.LVL133:
 262:Middlewares/ST/STM32_USB_Host_Library/Core/Src/usbh_core.c ****   }
 872              		.loc 1 262 0
 873 005a 94F84513 		ldrb	r1, [r4, #837]	@ zero_extendqisi2
 874 005e 0948     		ldr	r0, .L65+20
 875 0060 FFF7FEFF 		bl	printf
 876              	.LVL134:
 877 0064 0A20     		movs	r0, #10
 878 0066 FFF7FEFF 		bl	putchar
 879              	.LVL135:
 254:Middlewares/ST/STM32_USB_Host_Library/Core/Src/usbh_core.c **** 
 880              		.loc 1 254 0
 881 006a 0020     		movs	r0, #0
 882 006c 38BD     		pop	{r3, r4, r5, pc}
 883              	.LVL136:
 884              	.L66:
 885 006e 00BF     		.align	2
 886              	.L65:
 887 0070 00000000 		.word	.LC12
 888 0074 50000000 		.word	.LC21
 889 0078 00000000 		.word	.LC17
 890 007c 20000000 		.word	.LC18
 891 0080 30000000 		.word	.LC19
 892 0084 40000000 		.word	.LC20
 893              		.cfi_endproc
 894              	.LFE145:
 896              		.section	.text.USBH_GetActiveClass,"ax",%progbits
 897              		.align	1
 898              		.global	USBH_GetActiveClass
 899              		.syntax unified
 900              		.thumb
 901              		.thumb_func
 902              		.fpu fpv5-sp-d16
 904              	USBH_GetActiveClass:
 905              	.LFB146:
 280:Middlewares/ST/STM32_USB_Host_Library/Core/Src/usbh_core.c ****    return (phost->device.CfgDesc.Itf_Desc[0].bInterfaceClass);
 906              		.loc 1 280 0
 907              		.cfi_startproc
 908              		@ args = 0, pretend = 0, frame = 0
 909              		@ frame_needed = 0, uses_anonymous_args = 0
ARM GAS  C:\Users\Student\AppData\Local\Temp\ccZR2NAu.s 			page 34


 910              		@ link register save eliminated.
 911              	.LVL137:
 282:Middlewares/ST/STM32_USB_Host_Library/Core/Src/usbh_core.c **** /**
 912              		.loc 1 282 0
 913 0000 90F84303 		ldrb	r0, [r0, #835]	@ zero_extendqisi2
 914              	.LVL138:
 915 0004 7047     		bx	lr
 916              		.cfi_endproc
 917              	.LFE146:
 919              		.section	.text.USBH_FindInterface,"ax",%progbits
 920              		.align	1
 921              		.global	USBH_FindInterface
 922              		.syntax unified
 923              		.thumb
 924              		.thumb_func
 925              		.fpu fpv5-sp-d16
 927              	USBH_FindInterface:
 928              	.LFB147:
 294:Middlewares/ST/STM32_USB_Host_Library/Core/Src/usbh_core.c ****   USBH_InterfaceDescTypeDef    *pif ;
 929              		.loc 1 294 0
 930              		.cfi_startproc
 931              		@ args = 0, pretend = 0, frame = 0
 932              		@ frame_needed = 0, uses_anonymous_args = 0
 933              		@ link register save eliminated.
 934              	.LVL139:
 935 0000 70B4     		push	{r4, r5, r6}
 936              	.LCFI12:
 937              		.cfi_def_cfa_offset 12
 938              		.cfi_offset 4, -12
 939              		.cfi_offset 5, -8
 940              		.cfi_offset 6, -4
 941 0002 0646     		mov	r6, r0
 942              	.LVL140:
 297:Middlewares/ST/STM32_USB_Host_Library/Core/Src/usbh_core.c **** 
 943              		.loc 1 297 0
 944 0004 0020     		movs	r0, #0
 945              	.LVL141:
 302:Middlewares/ST/STM32_USB_Host_Library/Core/Src/usbh_core.c ****   {
 946              		.loc 1 302 0
 947 0006 0AE0     		b	.L69
 948              	.LVL142:
 949              	.L70:
 306:Middlewares/ST/STM32_USB_Host_Library/Core/Src/usbh_core.c ****          ((pif->bInterfaceProtocol == Protocol) || (Protocol == 0xFFU)))
 950              		.loc 1 306 0 discriminator 3
 951 0008 1A24     		movs	r4, #26
 952 000a 04FB0564 		mla	r4, r4, r5, r6
 953 000e 94F84443 		ldrb	r4, [r4, #836]	@ zero_extendqisi2
 305:Middlewares/ST/STM32_USB_Host_Library/Core/Src/usbh_core.c ****        ((pif->bInterfaceSubClass == SubClass) || (SubClass == 0xFFU))&&
 954              		.loc 1 305 0 discriminator 3
 955 0012 9442     		cmp	r4, r2
 956 0014 10D0     		beq	.L72
 306:Middlewares/ST/STM32_USB_Host_Library/Core/Src/usbh_core.c ****          ((pif->bInterfaceProtocol == Protocol) || (Protocol == 0xFFU)))
 957              		.loc 1 306 0
 958 0016 FF2A     		cmp	r2, #255
 959 0018 0ED0     		beq	.L72
 960              	.L71:
 311:Middlewares/ST/STM32_USB_Host_Library/Core/Src/usbh_core.c ****   }
ARM GAS  C:\Users\Student\AppData\Local\Temp\ccZR2NAu.s 			page 35


 961              		.loc 1 311 0
 962 001a 441C     		adds	r4, r0, #1
 963 001c E0B2     		uxtb	r0, r4
 964              	.LVL143:
 965              	.L69:
 302:Middlewares/ST/STM32_USB_Host_Library/Core/Src/usbh_core.c ****   {
 966              		.loc 1 302 0
 967 001e 0128     		cmp	r0, #1
 968 0020 14D8     		bhi	.L76
 304:Middlewares/ST/STM32_USB_Host_Library/Core/Src/usbh_core.c ****     if(((pif->bInterfaceClass == Class) || (Class == 0xFFU))&&
 969              		.loc 1 304 0
 970 0022 0546     		mov	r5, r0
 971              	.LVL144:
 305:Middlewares/ST/STM32_USB_Host_Library/Core/Src/usbh_core.c ****        ((pif->bInterfaceSubClass == SubClass) || (SubClass == 0xFFU))&&
 972              		.loc 1 305 0
 973 0024 1A24     		movs	r4, #26
 974 0026 04FB0064 		mla	r4, r4, r0, r6
 975 002a 94F84343 		ldrb	r4, [r4, #835]	@ zero_extendqisi2
 976 002e 8C42     		cmp	r4, r1
 977 0030 EAD0     		beq	.L70
 305:Middlewares/ST/STM32_USB_Host_Library/Core/Src/usbh_core.c ****        ((pif->bInterfaceSubClass == SubClass) || (SubClass == 0xFFU))&&
 978              		.loc 1 305 0 is_stmt 0 discriminator 2
 979 0032 FF29     		cmp	r1, #255
 980 0034 F1D1     		bne	.L71
 981 0036 E7E7     		b	.L70
 982              	.L72:
 307:Middlewares/ST/STM32_USB_Host_Library/Core/Src/usbh_core.c ****     {
 983              		.loc 1 307 0 is_stmt 1 discriminator 1
 984 0038 1A24     		movs	r4, #26
 985 003a 04FB0565 		mla	r5, r4, r5, r6
 986 003e 95F84543 		ldrb	r4, [r5, #837]	@ zero_extendqisi2
 306:Middlewares/ST/STM32_USB_Host_Library/Core/Src/usbh_core.c ****          ((pif->bInterfaceProtocol == Protocol) || (Protocol == 0xFFU)))
 987              		.loc 1 306 0 discriminator 1
 988 0042 9C42     		cmp	r4, r3
 989 0044 03D0     		beq	.L73
 307:Middlewares/ST/STM32_USB_Host_Library/Core/Src/usbh_core.c ****     {
 990              		.loc 1 307 0
 991 0046 FF2B     		cmp	r3, #255
 992 0048 E7D1     		bne	.L71
 993 004a 00E0     		b	.L73
 994              	.LVL145:
 995              	.L76:
 313:Middlewares/ST/STM32_USB_Host_Library/Core/Src/usbh_core.c **** }
 996              		.loc 1 313 0
 997 004c FF20     		movs	r0, #255
 998              	.LVL146:
 999              	.L73:
 314:Middlewares/ST/STM32_USB_Host_Library/Core/Src/usbh_core.c **** 
 1000              		.loc 1 314 0
 1001 004e 70BC     		pop	{r4, r5, r6}
 1002              	.LCFI13:
 1003              		.cfi_restore 6
 1004              		.cfi_restore 5
 1005              		.cfi_restore 4
 1006              		.cfi_def_cfa_offset 0
 1007              	.LVL147:
 1008 0050 7047     		bx	lr
ARM GAS  C:\Users\Student\AppData\Local\Temp\ccZR2NAu.s 			page 36


 1009              		.cfi_endproc
 1010              	.LFE147:
 1012              		.section	.text.USBH_FindInterfaceIndex,"ax",%progbits
 1013              		.align	1
 1014              		.global	USBH_FindInterfaceIndex
 1015              		.syntax unified
 1016              		.thumb
 1017              		.thumb_func
 1018              		.fpu fpv5-sp-d16
 1020              	USBH_FindInterfaceIndex:
 1021              	.LFB148:
 326:Middlewares/ST/STM32_USB_Host_Library/Core/Src/usbh_core.c ****   USBH_InterfaceDescTypeDef    *pif ;
 1022              		.loc 1 326 0
 1023              		.cfi_startproc
 1024              		@ args = 0, pretend = 0, frame = 0
 1025              		@ frame_needed = 0, uses_anonymous_args = 0
 1026              		@ link register save eliminated.
 1027              	.LVL148:
 329:Middlewares/ST/STM32_USB_Host_Library/Core/Src/usbh_core.c **** 
 1028              		.loc 1 329 0
 1029 0000 0023     		movs	r3, #0
 1030              	.LVL149:
 334:Middlewares/ST/STM32_USB_Host_Library/Core/Src/usbh_core.c ****   {
 1031              		.loc 1 334 0
 1032 0002 012B     		cmp	r3, #1
 1033 0004 18D8     		bhi	.L87
 326:Middlewares/ST/STM32_USB_Host_Library/Core/Src/usbh_core.c ****   USBH_InterfaceDescTypeDef    *pif ;
 1034              		.loc 1 326 0
 1035 0006 10B4     		push	{r4}
 1036              	.LCFI14:
 1037              		.cfi_def_cfa_offset 4
 1038              		.cfi_offset 4, -4
 1039              	.LVL150:
 1040              	.L81:
 337:Middlewares/ST/STM32_USB_Host_Library/Core/Src/usbh_core.c ****     {
 1041              		.loc 1 337 0
 1042 0008 1A24     		movs	r4, #26
 1043 000a 04FB0304 		mla	r4, r4, r3, r0
 1044 000e 94F84043 		ldrb	r4, [r4, #832]	@ zero_extendqisi2
 1045 0012 8C42     		cmp	r4, r1
 1046 0014 08D0     		beq	.L88
 1047              	.L79:
 341:Middlewares/ST/STM32_USB_Host_Library/Core/Src/usbh_core.c ****   }
 1048              		.loc 1 341 0
 1049 0016 0133     		adds	r3, r3, #1
 1050              	.LVL151:
 1051 0018 DBB2     		uxtb	r3, r3
 1052              	.LVL152:
 334:Middlewares/ST/STM32_USB_Host_Library/Core/Src/usbh_core.c ****   {
 1053              		.loc 1 334 0
 1054 001a 012B     		cmp	r3, #1
 1055 001c F4D9     		bls	.L81
 343:Middlewares/ST/STM32_USB_Host_Library/Core/Src/usbh_core.c **** }
 1056              		.loc 1 343 0
 1057 001e FF23     		movs	r3, #255
 1058              	.LVL153:
 1059              	.L80:
ARM GAS  C:\Users\Student\AppData\Local\Temp\ccZR2NAu.s 			page 37


 344:Middlewares/ST/STM32_USB_Host_Library/Core/Src/usbh_core.c **** 
 1060              		.loc 1 344 0
 1061 0020 1846     		mov	r0, r3
 1062              	.LVL154:
 1063 0022 5DF8044B 		ldr	r4, [sp], #4
 1064              	.LCFI15:
 1065              		.cfi_remember_state
 1066              		.cfi_restore 4
 1067              		.cfi_def_cfa_offset 0
 1068 0026 7047     		bx	lr
 1069              	.LVL155:
 1070              	.L88:
 1071              	.LCFI16:
 1072              		.cfi_restore_state
 337:Middlewares/ST/STM32_USB_Host_Library/Core/Src/usbh_core.c ****     {
 1073              		.loc 1 337 0 discriminator 1
 1074 0028 1A24     		movs	r4, #26
 1075 002a 04FB0304 		mla	r4, r4, r3, r0
 1076 002e 94F84143 		ldrb	r4, [r4, #833]	@ zero_extendqisi2
 1077 0032 9442     		cmp	r4, r2
 1078 0034 EFD1     		bne	.L79
 1079 0036 F3E7     		b	.L80
 1080              	.LVL156:
 1081              	.L87:
 1082              	.LCFI17:
 1083              		.cfi_def_cfa_offset 0
 1084              		.cfi_restore 4
 343:Middlewares/ST/STM32_USB_Host_Library/Core/Src/usbh_core.c **** }
 1085              		.loc 1 343 0
 1086 0038 FF23     		movs	r3, #255
 1087              	.LVL157:
 344:Middlewares/ST/STM32_USB_Host_Library/Core/Src/usbh_core.c **** 
 1088              		.loc 1 344 0
 1089 003a 1846     		mov	r0, r3
 1090              	.LVL158:
 1091 003c 7047     		bx	lr
 1092              		.cfi_endproc
 1093              	.LFE148:
 1095              		.section	.text.USBH_Start,"ax",%progbits
 1096              		.align	1
 1097              		.global	USBH_Start
 1098              		.syntax unified
 1099              		.thumb
 1100              		.thumb_func
 1101              		.fpu fpv5-sp-d16
 1103              	USBH_Start:
 1104              	.LFB149:
 353:Middlewares/ST/STM32_USB_Host_Library/Core/Src/usbh_core.c ****   /* Start the low level driver  */
 1105              		.loc 1 353 0
 1106              		.cfi_startproc
 1107              		@ args = 0, pretend = 0, frame = 0
 1108              		@ frame_needed = 0, uses_anonymous_args = 0
 1109              	.LVL159:
 1110 0000 10B5     		push	{r4, lr}
 1111              	.LCFI18:
 1112              		.cfi_def_cfa_offset 8
 1113              		.cfi_offset 4, -8
ARM GAS  C:\Users\Student\AppData\Local\Temp\ccZR2NAu.s 			page 38


 1114              		.cfi_offset 14, -4
 1115 0002 0446     		mov	r4, r0
 355:Middlewares/ST/STM32_USB_Host_Library/Core/Src/usbh_core.c **** 
 1116              		.loc 1 355 0
 1117 0004 FFF7FEFF 		bl	USBH_LL_Start
 1118              	.LVL160:
 358:Middlewares/ST/STM32_USB_Host_Library/Core/Src/usbh_core.c **** 
 1119              		.loc 1 358 0
 1120 0008 0121     		movs	r1, #1
 1121 000a 2046     		mov	r0, r4
 1122 000c FFF7FEFF 		bl	USBH_LL_DriverVBUS
 1123              	.LVL161:
 361:Middlewares/ST/STM32_USB_Host_Library/Core/Src/usbh_core.c **** 
 1124              		.loc 1 361 0
 1125 0010 0020     		movs	r0, #0
 1126 0012 10BD     		pop	{r4, pc}
 1127              		.cfi_endproc
 1128              	.LFE149:
 1130              		.section	.text.USBH_Stop,"ax",%progbits
 1131              		.align	1
 1132              		.global	USBH_Stop
 1133              		.syntax unified
 1134              		.thumb
 1135              		.thumb_func
 1136              		.fpu fpv5-sp-d16
 1138              	USBH_Stop:
 1139              	.LFB150:
 370:Middlewares/ST/STM32_USB_Host_Library/Core/Src/usbh_core.c ****   /* Stop and cleanup the low level driver  */
 1140              		.loc 1 370 0
 1141              		.cfi_startproc
 1142              		@ args = 0, pretend = 0, frame = 0
 1143              		@ frame_needed = 0, uses_anonymous_args = 0
 1144              	.LVL162:
 1145 0000 10B5     		push	{r4, lr}
 1146              	.LCFI19:
 1147              		.cfi_def_cfa_offset 8
 1148              		.cfi_offset 4, -8
 1149              		.cfi_offset 14, -4
 1150 0002 0446     		mov	r4, r0
 372:Middlewares/ST/STM32_USB_Host_Library/Core/Src/usbh_core.c **** 
 1151              		.loc 1 372 0
 1152 0004 FFF7FEFF 		bl	USBH_LL_Stop
 1153              	.LVL163:
 375:Middlewares/ST/STM32_USB_Host_Library/Core/Src/usbh_core.c **** 
 1154              		.loc 1 375 0
 1155 0008 0021     		movs	r1, #0
 1156 000a 2046     		mov	r0, r4
 1157 000c FFF7FEFF 		bl	USBH_LL_DriverVBUS
 1158              	.LVL164:
 378:Middlewares/ST/STM32_USB_Host_Library/Core/Src/usbh_core.c ****   USBH_FreePipe  (phost, phost->Control.pipe_out);
 1159              		.loc 1 378 0
 1160 0010 2179     		ldrb	r1, [r4, #4]	@ zero_extendqisi2
 1161 0012 2046     		mov	r0, r4
 1162 0014 FFF7FEFF 		bl	USBH_FreePipe
 1163              	.LVL165:
 379:Middlewares/ST/STM32_USB_Host_Library/Core/Src/usbh_core.c **** 
 1164              		.loc 1 379 0
ARM GAS  C:\Users\Student\AppData\Local\Temp\ccZR2NAu.s 			page 39


 1165 0018 6179     		ldrb	r1, [r4, #5]	@ zero_extendqisi2
 1166 001a 2046     		mov	r0, r4
 1167 001c FFF7FEFF 		bl	USBH_FreePipe
 1168              	.LVL166:
 382:Middlewares/ST/STM32_USB_Host_Library/Core/Src/usbh_core.c **** 
 1169              		.loc 1 382 0
 1170 0020 0020     		movs	r0, #0
 1171 0022 10BD     		pop	{r4, pc}
 1172              		.cfi_endproc
 1173              	.LFE150:
 1175              		.section	.text.USBH_ReEnumerate,"ax",%progbits
 1176              		.align	1
 1177              		.global	USBH_ReEnumerate
 1178              		.syntax unified
 1179              		.thumb
 1180              		.thumb_func
 1181              		.fpu fpv5-sp-d16
 1183              	USBH_ReEnumerate:
 1184              	.LFB151:
 391:Middlewares/ST/STM32_USB_Host_Library/Core/Src/usbh_core.c ****   /*Stop Host */
 1185              		.loc 1 391 0
 1186              		.cfi_startproc
 1187              		@ args = 0, pretend = 0, frame = 0
 1188              		@ frame_needed = 0, uses_anonymous_args = 0
 1189              	.LVL167:
 1190 0000 10B5     		push	{r4, lr}
 1191              	.LCFI20:
 1192              		.cfi_def_cfa_offset 8
 1193              		.cfi_offset 4, -8
 1194              		.cfi_offset 14, -4
 1195 0002 0446     		mov	r4, r0
 393:Middlewares/ST/STM32_USB_Host_Library/Core/Src/usbh_core.c **** 
 1196              		.loc 1 393 0
 1197 0004 FFF7FEFF 		bl	USBH_Stop
 1198              	.LVL168:
 396:Middlewares/ST/STM32_USB_Host_Library/Core/Src/usbh_core.c **** 
 1199              		.loc 1 396 0
 1200 0008 C820     		movs	r0, #200
 1201 000a FFF7FEFF 		bl	USBH_Delay
 1202              	.LVL169:
 399:Middlewares/ST/STM32_USB_Host_Library/Core/Src/usbh_core.c **** 
 1203              		.loc 1 399 0
 1204 000e 2046     		mov	r0, r4
 1205 0010 FFF7FEFF 		bl	DeInitStateMachine
 1206              	.LVL170:
 402:Middlewares/ST/STM32_USB_Host_Library/Core/Src/usbh_core.c **** 
 1207              		.loc 1 402 0
 1208 0014 2046     		mov	r0, r4
 1209 0016 FFF7FEFF 		bl	USBH_Start
 1210              	.LVL171:
 405:Middlewares/ST/STM32_USB_Host_Library/Core/Src/usbh_core.c **** #endif
 1211              		.loc 1 405 0
 1212 001a 0022     		movs	r2, #0
 1213 001c 0121     		movs	r1, #1
 1214 001e D4F8CC03 		ldr	r0, [r4, #972]
 1215 0022 FFF7FEFF 		bl	osMessagePut
 1216              	.LVL172:
ARM GAS  C:\Users\Student\AppData\Local\Temp\ccZR2NAu.s 			page 40


 408:Middlewares/ST/STM32_USB_Host_Library/Core/Src/usbh_core.c **** 
 1217              		.loc 1 408 0
 1218 0026 0020     		movs	r0, #0
 1219 0028 10BD     		pop	{r4, pc}
 1220              		.cfi_endproc
 1221              	.LFE151:
 1223              		.section	.text.USBH_LL_SetTimer,"ax",%progbits
 1224              		.align	1
 1225              		.global	USBH_LL_SetTimer
 1226              		.syntax unified
 1227              		.thumb
 1228              		.thumb_func
 1229              		.fpu fpv5-sp-d16
 1231              	USBH_LL_SetTimer:
 1232              	.LFB154:
 847:Middlewares/ST/STM32_USB_Host_Library/Core/Src/usbh_core.c ****   phost->Timer = time;
 1233              		.loc 1 847 0
 1234              		.cfi_startproc
 1235              		@ args = 0, pretend = 0, frame = 0
 1236              		@ frame_needed = 0, uses_anonymous_args = 0
 1237              		@ link register save eliminated.
 1238              	.LVL173:
 848:Middlewares/ST/STM32_USB_Host_Library/Core/Src/usbh_core.c **** }
 1239              		.loc 1 848 0
 1240 0000 C0F8BC13 		str	r1, [r0, #956]
 1241 0004 7047     		bx	lr
 1242              		.cfi_endproc
 1243              	.LFE154:
 1245              		.section	.text.USBH_LL_IncTimer,"ax",%progbits
 1246              		.align	1
 1247              		.global	USBH_LL_IncTimer
 1248              		.syntax unified
 1249              		.thumb
 1250              		.thumb_func
 1251              		.fpu fpv5-sp-d16
 1253              	USBH_LL_IncTimer:
 1254              	.LFB155:
 857:Middlewares/ST/STM32_USB_Host_Library/Core/Src/usbh_core.c ****   phost->Timer ++;
 1255              		.loc 1 857 0
 1256              		.cfi_startproc
 1257              		@ args = 0, pretend = 0, frame = 0
 1258              		@ frame_needed = 0, uses_anonymous_args = 0
 1259              	.LVL174:
 1260 0000 08B5     		push	{r3, lr}
 1261              	.LCFI21:
 1262              		.cfi_def_cfa_offset 8
 1263              		.cfi_offset 3, -8
 1264              		.cfi_offset 14, -4
 858:Middlewares/ST/STM32_USB_Host_Library/Core/Src/usbh_core.c ****   USBH_HandleSof(phost);
 1265              		.loc 1 858 0
 1266 0002 D0F8BC33 		ldr	r3, [r0, #956]
 1267 0006 0133     		adds	r3, r3, #1
 1268 0008 C0F8BC33 		str	r3, [r0, #956]
 859:Middlewares/ST/STM32_USB_Host_Library/Core/Src/usbh_core.c **** }
 1269              		.loc 1 859 0
 1270 000c FFF7FEFF 		bl	USBH_HandleSof
 1271              	.LVL175:
ARM GAS  C:\Users\Student\AppData\Local\Temp\ccZR2NAu.s 			page 41


 1272 0010 08BD     		pop	{r3, pc}
 1273              		.cfi_endproc
 1274              	.LFE155:
 1276              		.section	.text.USBH_LL_PortEnabled,"ax",%progbits
 1277              		.align	1
 1278              		.global	USBH_LL_PortEnabled
 1279              		.syntax unified
 1280              		.thumb
 1281              		.thumb_func
 1282              		.fpu fpv5-sp-d16
 1284              	USBH_LL_PortEnabled:
 1285              	.LFB157:
 875:Middlewares/ST/STM32_USB_Host_Library/Core/Src/usbh_core.c **** 
 876:Middlewares/ST/STM32_USB_Host_Library/Core/Src/usbh_core.c **** /**
 877:Middlewares/ST/STM32_USB_Host_Library/Core/Src/usbh_core.c ****   * @brief  USBH_PortEnabled
 878:Middlewares/ST/STM32_USB_Host_Library/Core/Src/usbh_core.c ****   *         Port Enabled
 879:Middlewares/ST/STM32_USB_Host_Library/Core/Src/usbh_core.c ****   * @param  phost: Host Handle
 880:Middlewares/ST/STM32_USB_Host_Library/Core/Src/usbh_core.c ****   * @retval None
 881:Middlewares/ST/STM32_USB_Host_Library/Core/Src/usbh_core.c ****   */
 882:Middlewares/ST/STM32_USB_Host_Library/Core/Src/usbh_core.c **** void USBH_LL_PortEnabled (USBH_HandleTypeDef *phost)
 883:Middlewares/ST/STM32_USB_Host_Library/Core/Src/usbh_core.c **** {
 1286              		.loc 1 883 0
 1287              		.cfi_startproc
 1288              		@ args = 0, pretend = 0, frame = 0
 1289              		@ frame_needed = 0, uses_anonymous_args = 0
 1290              		@ link register save eliminated.
 1291              	.LVL176:
 884:Middlewares/ST/STM32_USB_Host_Library/Core/Src/usbh_core.c ****   phost->device.PortEnabled = 1U;
 1292              		.loc 1 884 0
 1293 0000 0123     		movs	r3, #1
 1294 0002 80F81F33 		strb	r3, [r0, #799]
 1295 0006 7047     		bx	lr
 1296              		.cfi_endproc
 1297              	.LFE157:
 1299              		.section	.text.USBH_LL_PortDisabled,"ax",%progbits
 1300              		.align	1
 1301              		.global	USBH_LL_PortDisabled
 1302              		.syntax unified
 1303              		.thumb
 1304              		.thumb_func
 1305              		.fpu fpv5-sp-d16
 1307              	USBH_LL_PortDisabled:
 1308              	.LFB158:
 885:Middlewares/ST/STM32_USB_Host_Library/Core/Src/usbh_core.c **** 
 886:Middlewares/ST/STM32_USB_Host_Library/Core/Src/usbh_core.c ****   return;
 887:Middlewares/ST/STM32_USB_Host_Library/Core/Src/usbh_core.c **** }
 888:Middlewares/ST/STM32_USB_Host_Library/Core/Src/usbh_core.c **** 
 889:Middlewares/ST/STM32_USB_Host_Library/Core/Src/usbh_core.c **** /**
 890:Middlewares/ST/STM32_USB_Host_Library/Core/Src/usbh_core.c ****   * @brief  USBH_LL_PortDisabled
 891:Middlewares/ST/STM32_USB_Host_Library/Core/Src/usbh_core.c ****   *         Port Disabled
 892:Middlewares/ST/STM32_USB_Host_Library/Core/Src/usbh_core.c ****   * @param  phost: Host Handle
 893:Middlewares/ST/STM32_USB_Host_Library/Core/Src/usbh_core.c ****   * @retval None
 894:Middlewares/ST/STM32_USB_Host_Library/Core/Src/usbh_core.c ****   */
 895:Middlewares/ST/STM32_USB_Host_Library/Core/Src/usbh_core.c **** void USBH_LL_PortDisabled (USBH_HandleTypeDef *phost)
 896:Middlewares/ST/STM32_USB_Host_Library/Core/Src/usbh_core.c **** {
 1309              		.loc 1 896 0
 1310              		.cfi_startproc
ARM GAS  C:\Users\Student\AppData\Local\Temp\ccZR2NAu.s 			page 42


 1311              		@ args = 0, pretend = 0, frame = 0
 1312              		@ frame_needed = 0, uses_anonymous_args = 0
 1313              		@ link register save eliminated.
 1314              	.LVL177:
 897:Middlewares/ST/STM32_USB_Host_Library/Core/Src/usbh_core.c ****   phost->device.PortEnabled = 0U;
 1315              		.loc 1 897 0
 1316 0000 0023     		movs	r3, #0
 1317 0002 80F81F33 		strb	r3, [r0, #799]
 1318 0006 7047     		bx	lr
 1319              		.cfi_endproc
 1320              	.LFE158:
 1322              		.section	.text.USBH_IsPortEnabled,"ax",%progbits
 1323              		.align	1
 1324              		.global	USBH_IsPortEnabled
 1325              		.syntax unified
 1326              		.thumb
 1327              		.thumb_func
 1328              		.fpu fpv5-sp-d16
 1330              	USBH_IsPortEnabled:
 1331              	.LFB159:
 898:Middlewares/ST/STM32_USB_Host_Library/Core/Src/usbh_core.c **** 
 899:Middlewares/ST/STM32_USB_Host_Library/Core/Src/usbh_core.c ****   return;
 900:Middlewares/ST/STM32_USB_Host_Library/Core/Src/usbh_core.c **** }
 901:Middlewares/ST/STM32_USB_Host_Library/Core/Src/usbh_core.c **** 
 902:Middlewares/ST/STM32_USB_Host_Library/Core/Src/usbh_core.c **** /**
 903:Middlewares/ST/STM32_USB_Host_Library/Core/Src/usbh_core.c ****   * @brief  HCD_IsPortEnabled
 904:Middlewares/ST/STM32_USB_Host_Library/Core/Src/usbh_core.c ****   *         Is Port Enabled
 905:Middlewares/ST/STM32_USB_Host_Library/Core/Src/usbh_core.c ****   * @param  phost: Host Handle
 906:Middlewares/ST/STM32_USB_Host_Library/Core/Src/usbh_core.c ****   * @retval None
 907:Middlewares/ST/STM32_USB_Host_Library/Core/Src/usbh_core.c ****   */
 908:Middlewares/ST/STM32_USB_Host_Library/Core/Src/usbh_core.c **** uint8_t USBH_IsPortEnabled(USBH_HandleTypeDef *phost)
 909:Middlewares/ST/STM32_USB_Host_Library/Core/Src/usbh_core.c **** {
 1332              		.loc 1 909 0
 1333              		.cfi_startproc
 1334              		@ args = 0, pretend = 0, frame = 0
 1335              		@ frame_needed = 0, uses_anonymous_args = 0
 1336              		@ link register save eliminated.
 1337              	.LVL178:
 910:Middlewares/ST/STM32_USB_Host_Library/Core/Src/usbh_core.c ****   return(phost->device.PortEnabled);
 911:Middlewares/ST/STM32_USB_Host_Library/Core/Src/usbh_core.c **** }
 1338              		.loc 1 911 0
 1339 0000 90F81F03 		ldrb	r0, [r0, #799]	@ zero_extendqisi2
 1340              	.LVL179:
 1341 0004 7047     		bx	lr
 1342              		.cfi_endproc
 1343              	.LFE159:
 1345              		.section	.text.USBH_Process,"ax",%progbits
 1346              		.align	1
 1347              		.global	USBH_Process
 1348              		.syntax unified
 1349              		.thumb
 1350              		.thumb_func
 1351              		.fpu fpv5-sp-d16
 1353              	USBH_Process:
 1354              	.LFB152:
 417:Middlewares/ST/STM32_USB_Host_Library/Core/Src/usbh_core.c ****   __IO USBH_StatusTypeDef status = USBH_FAIL;
 1355              		.loc 1 417 0
ARM GAS  C:\Users\Student\AppData\Local\Temp\ccZR2NAu.s 			page 43


 1356              		.cfi_startproc
 1357              		@ args = 0, pretend = 0, frame = 8
 1358              		@ frame_needed = 0, uses_anonymous_args = 0
 1359              	.LVL180:
 1360 0000 30B5     		push	{r4, r5, lr}
 1361              	.LCFI22:
 1362              		.cfi_def_cfa_offset 12
 1363              		.cfi_offset 4, -12
 1364              		.cfi_offset 5, -8
 1365              		.cfi_offset 14, -4
 1366 0002 87B0     		sub	sp, sp, #28
 1367              	.LCFI23:
 1368              		.cfi_def_cfa_offset 40
 1369 0004 0446     		mov	r4, r0
 418:Middlewares/ST/STM32_USB_Host_Library/Core/Src/usbh_core.c ****   uint8_t idx = 0U;
 1370              		.loc 1 418 0
 1371 0006 0223     		movs	r3, #2
 1372 0008 8DF81730 		strb	r3, [sp, #23]
 1373              	.LVL181:
 422:Middlewares/ST/STM32_USB_Host_Library/Core/Src/usbh_core.c ****   {
 1374              		.loc 1 422 0
 1375 000c FFF7FEFF 		bl	USBH_IsPortEnabled
 1376              	.LVL182:
 1377 0010 38B9     		cbnz	r0, .L102
 422:Middlewares/ST/STM32_USB_Host_Library/Core/Src/usbh_core.c ****   {
 1378              		.loc 1 422 0 is_stmt 0 discriminator 1
 1379 0012 2378     		ldrb	r3, [r4]	@ zero_extendqisi2
 1380 0014 2BB1     		cbz	r3, .L102
 424:Middlewares/ST/STM32_USB_Host_Library/Core/Src/usbh_core.c ****     {
 1381              		.loc 1 424 0 is_stmt 1
 1382 0016 2378     		ldrb	r3, [r4]	@ zero_extendqisi2
 1383 0018 DBB2     		uxtb	r3, r3
 1384 001a 032B     		cmp	r3, #3
 1385 001c 01D0     		beq	.L102
 426:Middlewares/ST/STM32_USB_Host_Library/Core/Src/usbh_core.c ****     }
 1386              		.loc 1 426 0
 1387 001e 0323     		movs	r3, #3
 1388 0020 2370     		strb	r3, [r4]
 1389              	.L102:
 430:Middlewares/ST/STM32_USB_Host_Library/Core/Src/usbh_core.c ****   {
 1390              		.loc 1 430 0
 1391 0022 2378     		ldrb	r3, [r4]	@ zero_extendqisi2
 1392 0024 DBB2     		uxtb	r3, r3
 1393 0026 0B2B     		cmp	r3, #11
 1394 0028 62D8     		bhi	.L103
 1395 002a DFE813F0 		tbh	[pc, r3, lsl #1]
 1396              	.L105:
 1397 002e 0C00     		.2byte	(.L104-.L105)/2
 1398 0030 1F00     		.2byte	(.L106-.L105)/2
 1399 0032 2600     		.2byte	(.L107-.L105)/2
 1400 0034 4701     		.2byte	(.L108-.L105)/2
 1401 0036 6100     		.2byte	(.L103-.L105)/2
 1402 0038 6400     		.2byte	(.L109-.L105)/2
 1403 003a 1C01     		.2byte	(.L110-.L105)/2
 1404 003c 8200     		.2byte	(.L111-.L105)/2
 1405 003e 9200     		.2byte	(.L112-.L105)/2
 1406 0040 A800     		.2byte	(.L113-.L105)/2
ARM GAS  C:\Users\Student\AppData\Local\Temp\ccZR2NAu.s 			page 44


 1407 0042 C500     		.2byte	(.L114-.L105)/2
 1408 0044 3E01     		.2byte	(.L115-.L105)/2
 1409              		.p2align 1
 1410              	.L104:
 434:Middlewares/ST/STM32_USB_Host_Library/Core/Src/usbh_core.c ****     {
 1411              		.loc 1 434 0
 1412 0046 94F81E33 		ldrb	r3, [r4, #798]	@ zero_extendqisi2
 1413 004a 002B     		cmp	r3, #0
 1414 004c 50D0     		beq	.L103
 437:Middlewares/ST/STM32_USB_Host_Library/Core/Src/usbh_core.c ****       USBH_Delay(200U);
 1415              		.loc 1 437 0
 1416 004e 0125     		movs	r5, #1
 1417 0050 2570     		strb	r5, [r4]
 438:Middlewares/ST/STM32_USB_Host_Library/Core/Src/usbh_core.c ****       USBH_LL_ResetPort(phost);
 1418              		.loc 1 438 0
 1419 0052 C820     		movs	r0, #200
 1420 0054 FFF7FEFF 		bl	USBH_Delay
 1421              	.LVL183:
 439:Middlewares/ST/STM32_USB_Host_Library/Core/Src/usbh_core.c **** #if (USBH_USE_OS == 1U)
 1422              		.loc 1 439 0
 1423 0058 2046     		mov	r0, r4
 1424 005a FFF7FEFF 		bl	USBH_LL_ResetPort
 1425              	.LVL184:
 441:Middlewares/ST/STM32_USB_Host_Library/Core/Src/usbh_core.c **** #endif
 1426              		.loc 1 441 0
 1427 005e 0022     		movs	r2, #0
 1428 0060 2946     		mov	r1, r5
 1429 0062 D4F8CC03 		ldr	r0, [r4, #972]
 1430 0066 FFF7FEFF 		bl	osMessagePut
 1431              	.LVL185:
 1432 006a 41E0     		b	.L103
 1433              	.L106:
 448:Middlewares/ST/STM32_USB_Host_Library/Core/Src/usbh_core.c ****     {
 1434              		.loc 1 448 0
 1435 006c 94F81F33 		ldrb	r3, [r4, #799]	@ zero_extendqisi2
 1436 0070 012B     		cmp	r3, #1
 1437 0072 3DD1     		bne	.L103
 450:Middlewares/ST/STM32_USB_Host_Library/Core/Src/usbh_core.c ****     }
 1438              		.loc 1 450 0
 1439 0074 0223     		movs	r3, #2
 1440 0076 2370     		strb	r3, [r4]
 1441 0078 3AE0     		b	.L103
 1442              	.L107:
 456:Middlewares/ST/STM32_USB_Host_Library/Core/Src/usbh_core.c **** 
 1443              		.loc 1 456 0
 1444 007a 9848     		ldr	r0, .L134
 1445 007c FFF7FEFF 		bl	printf
 1446              	.LVL186:
 1447 0080 0A20     		movs	r0, #10
 1448 0082 FFF7FEFF 		bl	putchar
 1449              	.LVL187:
 459:Middlewares/ST/STM32_USB_Host_Library/Core/Src/usbh_core.c **** 
 1450              		.loc 1 459 0
 1451 0086 6420     		movs	r0, #100
 1452 0088 FFF7FEFF 		bl	USBH_Delay
 1453              	.LVL188:
 461:Middlewares/ST/STM32_USB_Host_Library/Core/Src/usbh_core.c **** 
ARM GAS  C:\Users\Student\AppData\Local\Temp\ccZR2NAu.s 			page 45


 1454              		.loc 1 461 0
 1455 008c 2046     		mov	r0, r4
 1456 008e FFF7FEFF 		bl	USBH_LL_GetSpeed
 1457              	.LVL189:
 1458 0092 84F81D03 		strb	r0, [r4, #797]
 463:Middlewares/ST/STM32_USB_Host_Library/Core/Src/usbh_core.c **** 
 1459              		.loc 1 463 0
 1460 0096 0523     		movs	r3, #5
 1461 0098 2370     		strb	r3, [r4]
 465:Middlewares/ST/STM32_USB_Host_Library/Core/Src/usbh_core.c ****     phost->Control.pipe_in  = USBH_AllocPipe (phost, 0x80U);
 1462              		.loc 1 465 0
 1463 009a 0021     		movs	r1, #0
 1464 009c 2046     		mov	r0, r4
 1465 009e FFF7FEFF 		bl	USBH_AllocPipe
 1466              	.LVL190:
 1467 00a2 6071     		strb	r0, [r4, #5]
 466:Middlewares/ST/STM32_USB_Host_Library/Core/Src/usbh_core.c **** 
 1468              		.loc 1 466 0
 1469 00a4 8021     		movs	r1, #128
 1470 00a6 2046     		mov	r0, r4
 1471 00a8 FFF7FEFF 		bl	USBH_AllocPipe
 1472              	.LVL191:
 1473 00ac 0146     		mov	r1, r0
 1474 00ae 2071     		strb	r0, [r4, #4]
 470:Middlewares/ST/STM32_USB_Host_Library/Core/Src/usbh_core.c ****                    phost->Control.pipe_in,
 1475              		.loc 1 470 0
 1476 00b0 94F81C33 		ldrb	r3, [r4, #796]	@ zero_extendqisi2
 1477 00b4 A279     		ldrb	r2, [r4, #6]	@ zero_extendqisi2
 1478 00b6 0292     		str	r2, [sp, #8]
 1479 00b8 0025     		movs	r5, #0
 1480 00ba 0195     		str	r5, [sp, #4]
 1481 00bc 94F81D23 		ldrb	r2, [r4, #797]	@ zero_extendqisi2
 1482 00c0 0092     		str	r2, [sp]
 1483 00c2 8022     		movs	r2, #128
 1484 00c4 2046     		mov	r0, r4
 1485 00c6 FFF7FEFF 		bl	USBH_OpenPipe
 1486              	.LVL192:
 479:Middlewares/ST/STM32_USB_Host_Library/Core/Src/usbh_core.c ****                    phost->Control.pipe_out,
 1487              		.loc 1 479 0
 1488 00ca 94F81C33 		ldrb	r3, [r4, #796]	@ zero_extendqisi2
 1489 00ce 6179     		ldrb	r1, [r4, #5]	@ zero_extendqisi2
 1490 00d0 A279     		ldrb	r2, [r4, #6]	@ zero_extendqisi2
 1491 00d2 0292     		str	r2, [sp, #8]
 1492 00d4 0195     		str	r5, [sp, #4]
 1493 00d6 94F81D23 		ldrb	r2, [r4, #797]	@ zero_extendqisi2
 1494 00da 0092     		str	r2, [sp]
 1495 00dc 2A46     		mov	r2, r5
 1496 00de 2046     		mov	r0, r4
 1497 00e0 FFF7FEFF 		bl	USBH_OpenPipe
 1498              	.LVL193:
 488:Middlewares/ST/STM32_USB_Host_Library/Core/Src/usbh_core.c **** #endif
 1499              		.loc 1 488 0
 1500 00e4 2A46     		mov	r2, r5
 1501 00e6 0121     		movs	r1, #1
 1502 00e8 D4F8CC03 		ldr	r0, [r4, #972]
 1503 00ec FFF7FEFF 		bl	osMessagePut
 1504              	.LVL194:
ARM GAS  C:\Users\Student\AppData\Local\Temp\ccZR2NAu.s 			page 46


 1505              	.L103:
 655:Middlewares/ST/STM32_USB_Host_Library/Core/Src/usbh_core.c **** 
 1506              		.loc 1 655 0
 1507 00f0 0020     		movs	r0, #0
 1508 00f2 07B0     		add	sp, sp, #28
 1509              	.LCFI24:
 1510              		.cfi_remember_state
 1511              		.cfi_def_cfa_offset 12
 1512              		@ sp needed
 1513 00f4 30BD     		pop	{r4, r5, pc}
 1514              	.LVL195:
 1515              	.L109:
 1516              	.LCFI25:
 1517              		.cfi_restore_state
 495:Middlewares/ST/STM32_USB_Host_Library/Core/Src/usbh_core.c ****     {
 1518              		.loc 1 495 0
 1519 00f6 2046     		mov	r0, r4
 1520 00f8 FFF7FEFF 		bl	USBH_HandleEnum
 1521              	.LVL196:
 1522 00fc 0028     		cmp	r0, #0
 1523 00fe F7D1     		bne	.L103
 498:Middlewares/ST/STM32_USB_Host_Library/Core/Src/usbh_core.c ****       phost->device.current_interface = 0U;
 1524              		.loc 1 498 0
 1525 0100 7748     		ldr	r0, .L134+4
 1526 0102 FFF7FEFF 		bl	printf
 1527              	.LVL197:
 1528 0106 0A20     		movs	r0, #10
 1529 0108 FFF7FEFF 		bl	putchar
 1530              	.LVL198:
 499:Middlewares/ST/STM32_USB_Host_Library/Core/Src/usbh_core.c ****       if(phost->device.DevDesc.bNumConfigurations == 1U)
 1531              		.loc 1 499 0
 1532 010c 0023     		movs	r3, #0
 1533 010e 84F82033 		strb	r3, [r4, #800]
 500:Middlewares/ST/STM32_USB_Host_Library/Core/Src/usbh_core.c ****       {
 1534              		.loc 1 500 0
 1535 0112 94F83333 		ldrb	r3, [r4, #819]	@ zero_extendqisi2
 1536 0116 012B     		cmp	r3, #1
 1537 0118 02D0     		beq	.L129
 508:Middlewares/ST/STM32_USB_Host_Library/Core/Src/usbh_core.c ****       }
 1538              		.loc 1 508 0
 1539 011a 0723     		movs	r3, #7
 1540 011c 2370     		strb	r3, [r4]
 1541 011e E7E7     		b	.L103
 1542              	.L129:
 502:Middlewares/ST/STM32_USB_Host_Library/Core/Src/usbh_core.c ****         phost->gState  = HOST_SET_CONFIGURATION;
 1543              		.loc 1 502 0
 1544 0120 7048     		ldr	r0, .L134+8
 1545 0122 FFF7FEFF 		bl	printf
 1546              	.LVL199:
 1547 0126 0A20     		movs	r0, #10
 1548 0128 FFF7FEFF 		bl	putchar
 1549              	.LVL200:
 503:Middlewares/ST/STM32_USB_Host_Library/Core/Src/usbh_core.c **** 
 1550              		.loc 1 503 0
 1551 012c 0823     		movs	r3, #8
 1552 012e 2370     		strb	r3, [r4]
 1553 0130 DEE7     		b	.L103
ARM GAS  C:\Users\Student\AppData\Local\Temp\ccZR2NAu.s 			page 47


 1554              	.L111:
 517:Middlewares/ST/STM32_USB_Host_Library/Core/Src/usbh_core.c ****       {
 1555              		.loc 1 517 0
 1556 0132 D4F8C833 		ldr	r3, [r4, #968]
 1557 0136 002B     		cmp	r3, #0
 1558 0138 DAD0     		beq	.L103
 519:Middlewares/ST/STM32_USB_Host_Library/Core/Src/usbh_core.c ****         phost->gState = HOST_SET_CONFIGURATION;
 1559              		.loc 1 519 0
 1560 013a 0121     		movs	r1, #1
 1561 013c 2046     		mov	r0, r4
 1562 013e 9847     		blx	r3
 1563              	.LVL201:
 520:Middlewares/ST/STM32_USB_Host_Library/Core/Src/usbh_core.c **** 
 1564              		.loc 1 520 0
 1565 0140 0823     		movs	r3, #8
 1566 0142 2370     		strb	r3, [r4]
 523:Middlewares/ST/STM32_USB_Host_Library/Core/Src/usbh_core.c **** #endif
 1567              		.loc 1 523 0
 1568 0144 0022     		movs	r2, #0
 1569 0146 0521     		movs	r1, #5
 1570 0148 D4F8CC03 		ldr	r0, [r4, #972]
 1571 014c FFF7FEFF 		bl	osMessagePut
 1572              	.LVL202:
 1573 0150 CEE7     		b	.L103
 1574              	.L112:
 531:Middlewares/ST/STM32_USB_Host_Library/Core/Src/usbh_core.c ****     {
 1575              		.loc 1 531 0
 1576 0152 94F83913 		ldrb	r1, [r4, #825]	@ zero_extendqisi2
 1577 0156 2046     		mov	r0, r4
 1578 0158 FFF7FEFF 		bl	USBH_SetCfg
 1579              	.LVL203:
 1580 015c 30B1     		cbz	r0, .L130
 1581              	.L117:
 538:Middlewares/ST/STM32_USB_Host_Library/Core/Src/usbh_core.c **** #endif
 1582              		.loc 1 538 0
 1583 015e 0022     		movs	r2, #0
 1584 0160 0121     		movs	r1, #1
 1585 0162 D4F8CC03 		ldr	r0, [r4, #972]
 1586 0166 FFF7FEFF 		bl	osMessagePut
 1587              	.LVL204:
 540:Middlewares/ST/STM32_USB_Host_Library/Core/Src/usbh_core.c **** 
 1588              		.loc 1 540 0
 1589 016a C1E7     		b	.L103
 1590              	.L130:
 533:Middlewares/ST/STM32_USB_Host_Library/Core/Src/usbh_core.c ****       USBH_UsrLog ("Default configuration set.");
 1591              		.loc 1 533 0
 1592 016c 0923     		movs	r3, #9
 1593 016e 2370     		strb	r3, [r4]
 534:Middlewares/ST/STM32_USB_Host_Library/Core/Src/usbh_core.c ****     }
 1594              		.loc 1 534 0
 1595 0170 5D48     		ldr	r0, .L134+12
 1596 0172 FFF7FEFF 		bl	printf
 1597              	.LVL205:
 1598 0176 0A20     		movs	r0, #10
 1599 0178 FFF7FEFF 		bl	putchar
 1600              	.LVL206:
 1601 017c EFE7     		b	.L117
ARM GAS  C:\Users\Student\AppData\Local\Temp\ccZR2NAu.s 			page 48


 1602              	.L113:
 544:Middlewares/ST/STM32_USB_Host_Library/Core/Src/usbh_core.c ****     {
 1603              		.loc 1 544 0
 1604 017e 94F83B33 		ldrb	r3, [r4, #827]	@ zero_extendqisi2
 1605 0182 13F0200F 		tst	r3, #32
 1606 0186 08D1     		bne	.L131
 554:Middlewares/ST/STM32_USB_Host_Library/Core/Src/usbh_core.c ****     }
 1607              		.loc 1 554 0
 1608 0188 0A23     		movs	r3, #10
 1609 018a 2370     		strb	r3, [r4]
 1610              	.L119:
 558:Middlewares/ST/STM32_USB_Host_Library/Core/Src/usbh_core.c **** #endif
 1611              		.loc 1 558 0
 1612 018c 0022     		movs	r2, #0
 1613 018e 0121     		movs	r1, #1
 1614 0190 D4F8CC03 		ldr	r0, [r4, #972]
 1615 0194 FFF7FEFF 		bl	osMessagePut
 1616              	.LVL207:
 560:Middlewares/ST/STM32_USB_Host_Library/Core/Src/usbh_core.c **** 
 1617              		.loc 1 560 0
 1618 0198 AAE7     		b	.L103
 1619              	.L131:
 546:Middlewares/ST/STM32_USB_Host_Library/Core/Src/usbh_core.c ****       {
 1620              		.loc 1 546 0
 1621 019a 0121     		movs	r1, #1
 1622 019c 2046     		mov	r0, r4
 1623 019e FFF7FEFF 		bl	USBH_SetFeature
 1624              	.LVL208:
 1625 01a2 0028     		cmp	r0, #0
 1626 01a4 F2D1     		bne	.L119
 548:Middlewares/ST/STM32_USB_Host_Library/Core/Src/usbh_core.c ****         phost->gState  = HOST_CHECK_CLASS;
 1627              		.loc 1 548 0
 1628 01a6 5148     		ldr	r0, .L134+16
 1629 01a8 FFF7FEFF 		bl	printf
 1630              	.LVL209:
 1631 01ac 0A20     		movs	r0, #10
 1632 01ae FFF7FEFF 		bl	putchar
 1633              	.LVL210:
 549:Middlewares/ST/STM32_USB_Host_Library/Core/Src/usbh_core.c ****       }
 1634              		.loc 1 549 0
 1635 01b2 0A23     		movs	r3, #10
 1636 01b4 2370     		strb	r3, [r4]
 1637 01b6 E9E7     		b	.L119
 1638              	.L114:
 564:Middlewares/ST/STM32_USB_Host_Library/Core/Src/usbh_core.c ****     {
 1639              		.loc 1 564 0
 1640 01b8 D4F87C33 		ldr	r3, [r4, #892]
 1641 01bc 13B3     		cbz	r3, .L132
 570:Middlewares/ST/STM32_USB_Host_Library/Core/Src/usbh_core.c **** 
 1642              		.loc 1 570 0
 1643 01be 0023     		movs	r3, #0
 1644 01c0 C4F87833 		str	r3, [r4, #888]
 1645              	.LVL211:
 1646              	.L122:
 572:Middlewares/ST/STM32_USB_Host_Library/Core/Src/usbh_core.c ****       {
 1647              		.loc 1 572 0 discriminator 1
 1648 01c4 2BB3     		cbz	r3, .L124
ARM GAS  C:\Users\Student\AppData\Local\Temp\ccZR2NAu.s 			page 49


 580:Middlewares/ST/STM32_USB_Host_Library/Core/Src/usbh_core.c ****       {
 1649              		.loc 1 580 0
 1650 01c6 D4F87833 		ldr	r3, [r4, #888]
 1651              	.LVL212:
 1652 01ca 002B     		cmp	r3, #0
 1653 01cc 42D0     		beq	.L125
 582:Middlewares/ST/STM32_USB_Host_Library/Core/Src/usbh_core.c ****         {
 1654              		.loc 1 582 0
 1655 01ce 9B68     		ldr	r3, [r3, #8]
 1656 01d0 2046     		mov	r0, r4
 1657 01d2 9847     		blx	r3
 1658              	.LVL213:
 1659 01d4 90BB     		cbnz	r0, .L126
 584:Middlewares/ST/STM32_USB_Host_Library/Core/Src/usbh_core.c ****           USBH_UsrLog ("%s class started.", phost->pActiveClass->Name);
 1660              		.loc 1 584 0
 1661 01d6 0623     		movs	r3, #6
 1662 01d8 2370     		strb	r3, [r4]
 585:Middlewares/ST/STM32_USB_Host_Library/Core/Src/usbh_core.c **** 
 1663              		.loc 1 585 0
 1664 01da D4F87833 		ldr	r3, [r4, #888]
 1665 01de 1968     		ldr	r1, [r3]
 1666 01e0 4348     		ldr	r0, .L134+20
 1667 01e2 FFF7FEFF 		bl	printf
 1668              	.LVL214:
 1669 01e6 0A20     		movs	r0, #10
 1670 01e8 FFF7FEFF 		bl	putchar
 1671              	.LVL215:
 588:Middlewares/ST/STM32_USB_Host_Library/Core/Src/usbh_core.c ****         }
 1672              		.loc 1 588 0
 1673 01ec D4F8C833 		ldr	r3, [r4, #968]
 1674 01f0 0321     		movs	r1, #3
 1675 01f2 2046     		mov	r0, r4
 1676 01f4 9847     		blx	r3
 1677              	.LVL216:
 1678              	.L121:
 604:Middlewares/ST/STM32_USB_Host_Library/Core/Src/usbh_core.c **** #endif
 1679              		.loc 1 604 0
 1680 01f6 0022     		movs	r2, #0
 1681 01f8 0521     		movs	r1, #5
 1682 01fa D4F8CC03 		ldr	r0, [r4, #972]
 1683 01fe FFF7FEFF 		bl	osMessagePut
 1684              	.LVL217:
 606:Middlewares/ST/STM32_USB_Host_Library/Core/Src/usbh_core.c **** 
 1685              		.loc 1 606 0
 1686 0202 75E7     		b	.L103
 1687              	.LVL218:
 1688              	.L132:
 566:Middlewares/ST/STM32_USB_Host_Library/Core/Src/usbh_core.c ****     }
 1689              		.loc 1 566 0
 1690 0204 3B48     		ldr	r0, .L134+24
 1691 0206 FFF7FEFF 		bl	printf
 1692              	.LVL219:
 1693 020a 0A20     		movs	r0, #10
 1694 020c FFF7FEFF 		bl	putchar
 1695              	.LVL220:
 1696 0210 F1E7     		b	.L121
 1697              	.LVL221:
ARM GAS  C:\Users\Student\AppData\Local\Temp\ccZR2NAu.s 			page 50


 1698              	.L124:
 574:Middlewares/ST/STM32_USB_Host_Library/Core/Src/usbh_core.c ****         {
 1699              		.loc 1 574 0
 1700 0212 03F1DC02 		add	r2, r3, #220
 1701 0216 04EB8202 		add	r2, r4, r2, lsl #2
 1702 021a 5268     		ldr	r2, [r2, #4]
 1703 021c 1179     		ldrb	r1, [r2, #4]	@ zero_extendqisi2
 1704 021e 94F84323 		ldrb	r2, [r4, #835]	@ zero_extendqisi2
 1705 0222 9142     		cmp	r1, r2
 1706 0224 02D0     		beq	.L133
 1707              	.L123:
 572:Middlewares/ST/STM32_USB_Host_Library/Core/Src/usbh_core.c ****       {
 1708              		.loc 1 572 0 discriminator 2
 1709 0226 0133     		adds	r3, r3, #1
 1710              	.LVL222:
 1711 0228 DBB2     		uxtb	r3, r3
 1712              	.LVL223:
 1713 022a CBE7     		b	.L122
 1714              	.L133:
 576:Middlewares/ST/STM32_USB_Host_Library/Core/Src/usbh_core.c ****         }
 1715              		.loc 1 576 0
 1716 022c 03F1DC02 		add	r2, r3, #220
 1717 0230 04EB8202 		add	r2, r4, r2, lsl #2
 1718 0234 5268     		ldr	r2, [r2, #4]
 1719 0236 C4F87823 		str	r2, [r4, #888]
 1720 023a F4E7     		b	.L123
 1721              	.LVL224:
 1722              	.L126:
 592:Middlewares/ST/STM32_USB_Host_Library/Core/Src/usbh_core.c ****           USBH_UsrLog ("Device not supporting %s class.", phost->pActiveClass->Name);
 1723              		.loc 1 592 0
 1724 023c 0D23     		movs	r3, #13
 1725 023e 2370     		strb	r3, [r4]
 593:Middlewares/ST/STM32_USB_Host_Library/Core/Src/usbh_core.c ****         }
 1726              		.loc 1 593 0
 1727 0240 D4F87833 		ldr	r3, [r4, #888]
 1728 0244 1968     		ldr	r1, [r3]
 1729 0246 2C48     		ldr	r0, .L134+28
 1730 0248 FFF7FEFF 		bl	printf
 1731              	.LVL225:
 1732 024c 0A20     		movs	r0, #10
 1733 024e FFF7FEFF 		bl	putchar
 1734              	.LVL226:
 1735 0252 D0E7     		b	.L121
 1736              	.L125:
 598:Middlewares/ST/STM32_USB_Host_Library/Core/Src/usbh_core.c ****         USBH_UsrLog ("No registered class for this device.");
 1737              		.loc 1 598 0
 1738 0254 0D23     		movs	r3, #13
 1739 0256 2370     		strb	r3, [r4]
 599:Middlewares/ST/STM32_USB_Host_Library/Core/Src/usbh_core.c ****       }
 1740              		.loc 1 599 0
 1741 0258 2848     		ldr	r0, .L134+32
 1742 025a FFF7FEFF 		bl	printf
 1743              	.LVL227:
 1744 025e 0A20     		movs	r0, #10
 1745 0260 FFF7FEFF 		bl	putchar
 1746              	.LVL228:
 1747 0264 C7E7     		b	.L121
ARM GAS  C:\Users\Student\AppData\Local\Temp\ccZR2NAu.s 			page 51


 1748              	.LVL229:
 1749              	.L110:
 610:Middlewares/ST/STM32_USB_Host_Library/Core/Src/usbh_core.c ****     {
 1750              		.loc 1 610 0
 1751 0266 D4F87833 		ldr	r3, [r4, #888]
 1752 026a 63B1     		cbz	r3, .L127
 612:Middlewares/ST/STM32_USB_Host_Library/Core/Src/usbh_core.c **** 
 1753              		.loc 1 612 0
 1754 026c 1B69     		ldr	r3, [r3, #16]
 1755 026e 2046     		mov	r0, r4
 1756 0270 9847     		blx	r3
 1757              	.LVL230:
 1758 0272 8DF81700 		strb	r0, [sp, #23]
 614:Middlewares/ST/STM32_USB_Host_Library/Core/Src/usbh_core.c ****       {
 1759              		.loc 1 614 0
 1760 0276 9DF81730 		ldrb	r3, [sp, #23]	@ zero_extendqisi2
 1761 027a 002B     		cmp	r3, #0
 1762 027c 7FF438AF 		bne	.L103
 616:Middlewares/ST/STM32_USB_Host_Library/Core/Src/usbh_core.c ****       }
 1763              		.loc 1 616 0
 1764 0280 0B23     		movs	r3, #11
 1765 0282 2370     		strb	r3, [r4]
 1766 0284 34E7     		b	.L103
 1767              	.L127:
 621:Middlewares/ST/STM32_USB_Host_Library/Core/Src/usbh_core.c ****       USBH_ErrLog ("Invalid Class Driver.");
 1768              		.loc 1 621 0
 1769 0286 0D23     		movs	r3, #13
 1770 0288 2370     		strb	r3, [r4]
 622:Middlewares/ST/STM32_USB_Host_Library/Core/Src/usbh_core.c **** 
 1771              		.loc 1 622 0
 1772 028a 1D48     		ldr	r0, .L134+36
 1773 028c FFF7FEFF 		bl	printf
 1774              	.LVL231:
 1775 0290 1C48     		ldr	r0, .L134+40
 1776 0292 FFF7FEFF 		bl	printf
 1777              	.LVL232:
 1778 0296 0A20     		movs	r0, #10
 1779 0298 FFF7FEFF 		bl	putchar
 1780              	.LVL233:
 625:Middlewares/ST/STM32_USB_Host_Library/Core/Src/usbh_core.c **** #endif
 1781              		.loc 1 625 0
 1782 029c 0022     		movs	r2, #0
 1783 029e 0521     		movs	r1, #5
 1784 02a0 D4F8CC03 		ldr	r0, [r4, #972]
 1785 02a4 FFF7FEFF 		bl	osMessagePut
 1786              	.LVL234:
 1787 02a8 22E7     		b	.L103
 1788              	.L115:
 632:Middlewares/ST/STM32_USB_Host_Library/Core/Src/usbh_core.c ****     {
 1789              		.loc 1 632 0
 1790 02aa D4F87833 		ldr	r3, [r4, #888]
 1791 02ae 002B     		cmp	r3, #0
 1792 02b0 3FF41EAF 		beq	.L103
 634:Middlewares/ST/STM32_USB_Host_Library/Core/Src/usbh_core.c ****     }
 1793              		.loc 1 634 0
 1794 02b4 5B69     		ldr	r3, [r3, #20]
 1795 02b6 2046     		mov	r0, r4
ARM GAS  C:\Users\Student\AppData\Local\Temp\ccZR2NAu.s 			page 52


 1796 02b8 9847     		blx	r3
 1797              	.LVL235:
 1798 02ba 19E7     		b	.L103
 1799              	.L108:
 640:Middlewares/ST/STM32_USB_Host_Library/Core/Src/usbh_core.c **** 
 1800              		.loc 1 640 0
 1801 02bc 2046     		mov	r0, r4
 1802 02be FFF7FEFF 		bl	DeInitStateMachine
 1803              	.LVL236:
 643:Middlewares/ST/STM32_USB_Host_Library/Core/Src/usbh_core.c ****     {
 1804              		.loc 1 643 0
 1805 02c2 D4F87833 		ldr	r3, [r4, #888]
 1806 02c6 002B     		cmp	r3, #0
 1807 02c8 3FF412AF 		beq	.L103
 645:Middlewares/ST/STM32_USB_Host_Library/Core/Src/usbh_core.c ****       phost->pActiveClass = NULL;
 1808              		.loc 1 645 0
 1809 02cc DB68     		ldr	r3, [r3, #12]
 1810 02ce 2046     		mov	r0, r4
 1811 02d0 9847     		blx	r3
 1812              	.LVL237:
 646:Middlewares/ST/STM32_USB_Host_Library/Core/Src/usbh_core.c ****     }
 1813              		.loc 1 646 0
 1814 02d2 0023     		movs	r3, #0
 1815 02d4 C4F87833 		str	r3, [r4, #888]
 1816 02d8 0AE7     		b	.L103
 1817              	.L135:
 1818 02da 00BF     		.align	2
 1819              	.L134:
 1820 02dc 00000000 		.word	.LC22
 1821 02e0 14000000 		.word	.LC23
 1822 02e4 28000000 		.word	.LC24
 1823 02e8 50000000 		.word	.LC25
 1824 02ec 6C000000 		.word	.LC26
 1825 02f0 AC000000 		.word	.LC28
 1826 02f4 8C000000 		.word	.LC27
 1827 02f8 C0000000 		.word	.LC29
 1828 02fc E0000000 		.word	.LC30
 1829 0300 00000000 		.word	.LC12
 1830 0304 08010000 		.word	.LC31
 1831              		.cfi_endproc
 1832              	.LFE152:
 1834              		.section	.text.USBH_Process_OS,"ax",%progbits
 1835              		.align	1
 1836              		.syntax unified
 1837              		.thumb
 1838              		.thumb_func
 1839              		.fpu fpv5-sp-d16
 1841              	USBH_Process_OS:
 1842              	.LFB162:
 912:Middlewares/ST/STM32_USB_Host_Library/Core/Src/usbh_core.c **** 
 913:Middlewares/ST/STM32_USB_Host_Library/Core/Src/usbh_core.c **** 
 914:Middlewares/ST/STM32_USB_Host_Library/Core/Src/usbh_core.c **** /**
 915:Middlewares/ST/STM32_USB_Host_Library/Core/Src/usbh_core.c ****   * @brief  USBH_LL_Connect
 916:Middlewares/ST/STM32_USB_Host_Library/Core/Src/usbh_core.c ****   *         Handle USB Host connexion event
 917:Middlewares/ST/STM32_USB_Host_Library/Core/Src/usbh_core.c ****   * @param  phost: Host Handle
 918:Middlewares/ST/STM32_USB_Host_Library/Core/Src/usbh_core.c ****   * @retval USBH_Status
 919:Middlewares/ST/STM32_USB_Host_Library/Core/Src/usbh_core.c ****   */
ARM GAS  C:\Users\Student\AppData\Local\Temp\ccZR2NAu.s 			page 53


 920:Middlewares/ST/STM32_USB_Host_Library/Core/Src/usbh_core.c **** USBH_StatusTypeDef  USBH_LL_Connect (USBH_HandleTypeDef *phost)
 921:Middlewares/ST/STM32_USB_Host_Library/Core/Src/usbh_core.c **** {
 922:Middlewares/ST/STM32_USB_Host_Library/Core/Src/usbh_core.c ****   if(phost->gState == HOST_IDLE )
 923:Middlewares/ST/STM32_USB_Host_Library/Core/Src/usbh_core.c ****   {
 924:Middlewares/ST/STM32_USB_Host_Library/Core/Src/usbh_core.c ****     phost->device.is_connected = 1U;
 925:Middlewares/ST/STM32_USB_Host_Library/Core/Src/usbh_core.c **** 
 926:Middlewares/ST/STM32_USB_Host_Library/Core/Src/usbh_core.c ****     if(phost->pUser != NULL)
 927:Middlewares/ST/STM32_USB_Host_Library/Core/Src/usbh_core.c ****     {
 928:Middlewares/ST/STM32_USB_Host_Library/Core/Src/usbh_core.c ****       phost->pUser(phost, HOST_USER_CONNECTION);
 929:Middlewares/ST/STM32_USB_Host_Library/Core/Src/usbh_core.c ****     }
 930:Middlewares/ST/STM32_USB_Host_Library/Core/Src/usbh_core.c ****   }
 931:Middlewares/ST/STM32_USB_Host_Library/Core/Src/usbh_core.c ****   else
 932:Middlewares/ST/STM32_USB_Host_Library/Core/Src/usbh_core.c ****   {
 933:Middlewares/ST/STM32_USB_Host_Library/Core/Src/usbh_core.c ****     if (phost->device.PortEnabled == 1U)
 934:Middlewares/ST/STM32_USB_Host_Library/Core/Src/usbh_core.c ****     {
 935:Middlewares/ST/STM32_USB_Host_Library/Core/Src/usbh_core.c ****       phost->gState = HOST_DEV_ATTACHED;
 936:Middlewares/ST/STM32_USB_Host_Library/Core/Src/usbh_core.c ****     }
 937:Middlewares/ST/STM32_USB_Host_Library/Core/Src/usbh_core.c ****   }
 938:Middlewares/ST/STM32_USB_Host_Library/Core/Src/usbh_core.c **** #if (USBH_USE_OS == 1U)
 939:Middlewares/ST/STM32_USB_Host_Library/Core/Src/usbh_core.c ****   osMessagePut ( phost->os_event, USBH_PORT_EVENT, 0);
 940:Middlewares/ST/STM32_USB_Host_Library/Core/Src/usbh_core.c **** #endif
 941:Middlewares/ST/STM32_USB_Host_Library/Core/Src/usbh_core.c **** 
 942:Middlewares/ST/STM32_USB_Host_Library/Core/Src/usbh_core.c ****   return USBH_OK;
 943:Middlewares/ST/STM32_USB_Host_Library/Core/Src/usbh_core.c **** }
 944:Middlewares/ST/STM32_USB_Host_Library/Core/Src/usbh_core.c **** 
 945:Middlewares/ST/STM32_USB_Host_Library/Core/Src/usbh_core.c **** /**
 946:Middlewares/ST/STM32_USB_Host_Library/Core/Src/usbh_core.c ****   * @brief  USBH_LL_Disconnect
 947:Middlewares/ST/STM32_USB_Host_Library/Core/Src/usbh_core.c ****   *         Handle USB Host disconnection event
 948:Middlewares/ST/STM32_USB_Host_Library/Core/Src/usbh_core.c ****   * @param  phost: Host Handle
 949:Middlewares/ST/STM32_USB_Host_Library/Core/Src/usbh_core.c ****   * @retval USBH_Status
 950:Middlewares/ST/STM32_USB_Host_Library/Core/Src/usbh_core.c ****   */
 951:Middlewares/ST/STM32_USB_Host_Library/Core/Src/usbh_core.c **** USBH_StatusTypeDef  USBH_LL_Disconnect  (USBH_HandleTypeDef *phost)
 952:Middlewares/ST/STM32_USB_Host_Library/Core/Src/usbh_core.c **** {
 953:Middlewares/ST/STM32_USB_Host_Library/Core/Src/usbh_core.c ****   /*Stop Host */
 954:Middlewares/ST/STM32_USB_Host_Library/Core/Src/usbh_core.c ****   USBH_LL_Stop(phost);
 955:Middlewares/ST/STM32_USB_Host_Library/Core/Src/usbh_core.c **** 
 956:Middlewares/ST/STM32_USB_Host_Library/Core/Src/usbh_core.c ****   /* FRee Control Pipes */
 957:Middlewares/ST/STM32_USB_Host_Library/Core/Src/usbh_core.c ****   USBH_FreePipe  (phost, phost->Control.pipe_in);
 958:Middlewares/ST/STM32_USB_Host_Library/Core/Src/usbh_core.c ****   USBH_FreePipe  (phost, phost->Control.pipe_out);
 959:Middlewares/ST/STM32_USB_Host_Library/Core/Src/usbh_core.c **** 
 960:Middlewares/ST/STM32_USB_Host_Library/Core/Src/usbh_core.c ****   phost->device.is_connected = 0U;
 961:Middlewares/ST/STM32_USB_Host_Library/Core/Src/usbh_core.c **** 
 962:Middlewares/ST/STM32_USB_Host_Library/Core/Src/usbh_core.c ****   if(phost->pUser != NULL)
 963:Middlewares/ST/STM32_USB_Host_Library/Core/Src/usbh_core.c ****   {
 964:Middlewares/ST/STM32_USB_Host_Library/Core/Src/usbh_core.c ****     phost->pUser(phost, HOST_USER_DISCONNECTION);
 965:Middlewares/ST/STM32_USB_Host_Library/Core/Src/usbh_core.c ****   }
 966:Middlewares/ST/STM32_USB_Host_Library/Core/Src/usbh_core.c ****   USBH_UsrLog("USB Device disconnected");
 967:Middlewares/ST/STM32_USB_Host_Library/Core/Src/usbh_core.c **** 
 968:Middlewares/ST/STM32_USB_Host_Library/Core/Src/usbh_core.c ****   /* Start the low level driver  */
 969:Middlewares/ST/STM32_USB_Host_Library/Core/Src/usbh_core.c ****   USBH_LL_Start(phost);
 970:Middlewares/ST/STM32_USB_Host_Library/Core/Src/usbh_core.c **** 
 971:Middlewares/ST/STM32_USB_Host_Library/Core/Src/usbh_core.c ****   phost->gState = HOST_DEV_DISCONNECTED;
 972:Middlewares/ST/STM32_USB_Host_Library/Core/Src/usbh_core.c **** 
 973:Middlewares/ST/STM32_USB_Host_Library/Core/Src/usbh_core.c **** #if (USBH_USE_OS == 1U)
 974:Middlewares/ST/STM32_USB_Host_Library/Core/Src/usbh_core.c ****   osMessagePut ( phost->os_event, USBH_PORT_EVENT, 0);
 975:Middlewares/ST/STM32_USB_Host_Library/Core/Src/usbh_core.c **** #endif
 976:Middlewares/ST/STM32_USB_Host_Library/Core/Src/usbh_core.c **** 
ARM GAS  C:\Users\Student\AppData\Local\Temp\ccZR2NAu.s 			page 54


 977:Middlewares/ST/STM32_USB_Host_Library/Core/Src/usbh_core.c ****   return USBH_OK;
 978:Middlewares/ST/STM32_USB_Host_Library/Core/Src/usbh_core.c **** }
 979:Middlewares/ST/STM32_USB_Host_Library/Core/Src/usbh_core.c **** 
 980:Middlewares/ST/STM32_USB_Host_Library/Core/Src/usbh_core.c **** 
 981:Middlewares/ST/STM32_USB_Host_Library/Core/Src/usbh_core.c **** #if (USBH_USE_OS == 1U)
 982:Middlewares/ST/STM32_USB_Host_Library/Core/Src/usbh_core.c **** /**
 983:Middlewares/ST/STM32_USB_Host_Library/Core/Src/usbh_core.c ****   * @brief  USB Host Thread task
 984:Middlewares/ST/STM32_USB_Host_Library/Core/Src/usbh_core.c ****   * @param  pvParameters not used
 985:Middlewares/ST/STM32_USB_Host_Library/Core/Src/usbh_core.c ****   * @retval None
 986:Middlewares/ST/STM32_USB_Host_Library/Core/Src/usbh_core.c ****   */
 987:Middlewares/ST/STM32_USB_Host_Library/Core/Src/usbh_core.c **** static void USBH_Process_OS(void const * argument)
 988:Middlewares/ST/STM32_USB_Host_Library/Core/Src/usbh_core.c **** {
 1843              		.loc 1 988 0
 1844              		.cfi_startproc
 1845              		@ Volatile: function does not return.
 1846              		@ args = 0, pretend = 0, frame = 16
 1847              		@ frame_needed = 0, uses_anonymous_args = 0
 1848              	.LVL238:
 1849 0000 00B5     		push	{lr}
 1850              	.LCFI26:
 1851              		.cfi_def_cfa_offset 4
 1852              		.cfi_offset 14, -4
 1853 0002 85B0     		sub	sp, sp, #20
 1854              	.LCFI27:
 1855              		.cfi_def_cfa_offset 24
 1856 0004 0446     		mov	r4, r0
 1857              	.LVL239:
 1858              	.L137:
 989:Middlewares/ST/STM32_USB_Host_Library/Core/Src/usbh_core.c ****   osEvent event;
 990:Middlewares/ST/STM32_USB_Host_Library/Core/Src/usbh_core.c **** 
 991:Middlewares/ST/STM32_USB_Host_Library/Core/Src/usbh_core.c ****   for(;;)
 992:Middlewares/ST/STM32_USB_Host_Library/Core/Src/usbh_core.c ****   {
 993:Middlewares/ST/STM32_USB_Host_Library/Core/Src/usbh_core.c ****     event = osMessageGet(((USBH_HandleTypeDef *)argument)->os_event, osWaitForever );
 1859              		.loc 1 993 0
 1860 0006 4FF0FF32 		mov	r2, #-1
 1861 000a D4F8CC13 		ldr	r1, [r4, #972]
 1862 000e 01A8     		add	r0, sp, #4
 1863 0010 FFF7FEFF 		bl	osMessageGet
 1864              	.LVL240:
 994:Middlewares/ST/STM32_USB_Host_Library/Core/Src/usbh_core.c **** 
 995:Middlewares/ST/STM32_USB_Host_Library/Core/Src/usbh_core.c ****     if( event.status == osEventMessage )
 1865              		.loc 1 995 0
 1866 0014 019B     		ldr	r3, [sp, #4]
 1867 0016 102B     		cmp	r3, #16
 1868 0018 F5D1     		bne	.L137
 996:Middlewares/ST/STM32_USB_Host_Library/Core/Src/usbh_core.c ****     {
 997:Middlewares/ST/STM32_USB_Host_Library/Core/Src/usbh_core.c ****       USBH_Process((USBH_HandleTypeDef *)argument);
 1869              		.loc 1 997 0
 1870 001a 2046     		mov	r0, r4
 1871 001c FFF7FEFF 		bl	USBH_Process
 1872              	.LVL241:
 1873 0020 F1E7     		b	.L137
 1874              		.cfi_endproc
 1875              	.LFE162:
 1877              		.section	.text.USBH_LL_Connect,"ax",%progbits
 1878              		.align	1
 1879              		.global	USBH_LL_Connect
ARM GAS  C:\Users\Student\AppData\Local\Temp\ccZR2NAu.s 			page 55


 1880              		.syntax unified
 1881              		.thumb
 1882              		.thumb_func
 1883              		.fpu fpv5-sp-d16
 1885              	USBH_LL_Connect:
 1886              	.LFB160:
 921:Middlewares/ST/STM32_USB_Host_Library/Core/Src/usbh_core.c ****   if(phost->gState == HOST_IDLE )
 1887              		.loc 1 921 0
 1888              		.cfi_startproc
 1889              		@ args = 0, pretend = 0, frame = 0
 1890              		@ frame_needed = 0, uses_anonymous_args = 0
 1891              	.LVL242:
 1892 0000 10B5     		push	{r4, lr}
 1893              	.LCFI28:
 1894              		.cfi_def_cfa_offset 8
 1895              		.cfi_offset 4, -8
 1896              		.cfi_offset 14, -4
 1897 0002 0446     		mov	r4, r0
 922:Middlewares/ST/STM32_USB_Host_Library/Core/Src/usbh_core.c ****   {
 1898              		.loc 1 922 0
 1899 0004 0378     		ldrb	r3, [r0]	@ zero_extendqisi2
 1900 0006 7BB9     		cbnz	r3, .L141
 924:Middlewares/ST/STM32_USB_Host_Library/Core/Src/usbh_core.c **** 
 1901              		.loc 1 924 0
 1902 0008 0123     		movs	r3, #1
 1903 000a 80F81E33 		strb	r3, [r0, #798]
 926:Middlewares/ST/STM32_USB_Host_Library/Core/Src/usbh_core.c ****     {
 1904              		.loc 1 926 0
 1905 000e D0F8C833 		ldr	r3, [r0, #968]
 1906 0012 0BB1     		cbz	r3, .L142
 928:Middlewares/ST/STM32_USB_Host_Library/Core/Src/usbh_core.c ****     }
 1907              		.loc 1 928 0
 1908 0014 0421     		movs	r1, #4
 1909 0016 9847     		blx	r3
 1910              	.LVL243:
 1911              	.L142:
 939:Middlewares/ST/STM32_USB_Host_Library/Core/Src/usbh_core.c **** #endif
 1912              		.loc 1 939 0
 1913 0018 0022     		movs	r2, #0
 1914 001a 0121     		movs	r1, #1
 1915 001c D4F8CC03 		ldr	r0, [r4, #972]
 1916 0020 FFF7FEFF 		bl	osMessagePut
 1917              	.LVL244:
 943:Middlewares/ST/STM32_USB_Host_Library/Core/Src/usbh_core.c **** 
 1918              		.loc 1 943 0
 1919 0024 0020     		movs	r0, #0
 1920 0026 10BD     		pop	{r4, pc}
 1921              	.LVL245:
 1922              	.L141:
 933:Middlewares/ST/STM32_USB_Host_Library/Core/Src/usbh_core.c ****     {
 1923              		.loc 1 933 0
 1924 0028 90F81F33 		ldrb	r3, [r0, #799]	@ zero_extendqisi2
 1925 002c 012B     		cmp	r3, #1
 1926 002e F3D1     		bne	.L142
 935:Middlewares/ST/STM32_USB_Host_Library/Core/Src/usbh_core.c ****     }
 1927              		.loc 1 935 0
 1928 0030 0223     		movs	r3, #2
ARM GAS  C:\Users\Student\AppData\Local\Temp\ccZR2NAu.s 			page 56


 1929 0032 0370     		strb	r3, [r0]
 1930 0034 F0E7     		b	.L142
 1931              		.cfi_endproc
 1932              	.LFE160:
 1934              		.section	.text.USBH_LL_Disconnect,"ax",%progbits
 1935              		.align	1
 1936              		.global	USBH_LL_Disconnect
 1937              		.syntax unified
 1938              		.thumb
 1939              		.thumb_func
 1940              		.fpu fpv5-sp-d16
 1942              	USBH_LL_Disconnect:
 1943              	.LFB161:
 952:Middlewares/ST/STM32_USB_Host_Library/Core/Src/usbh_core.c ****   /*Stop Host */
 1944              		.loc 1 952 0
 1945              		.cfi_startproc
 1946              		@ args = 0, pretend = 0, frame = 0
 1947              		@ frame_needed = 0, uses_anonymous_args = 0
 1948              	.LVL246:
 1949 0000 10B5     		push	{r4, lr}
 1950              	.LCFI29:
 1951              		.cfi_def_cfa_offset 8
 1952              		.cfi_offset 4, -8
 1953              		.cfi_offset 14, -4
 1954 0002 0446     		mov	r4, r0
 954:Middlewares/ST/STM32_USB_Host_Library/Core/Src/usbh_core.c **** 
 1955              		.loc 1 954 0
 1956 0004 FFF7FEFF 		bl	USBH_LL_Stop
 1957              	.LVL247:
 957:Middlewares/ST/STM32_USB_Host_Library/Core/Src/usbh_core.c ****   USBH_FreePipe  (phost, phost->Control.pipe_out);
 1958              		.loc 1 957 0
 1959 0008 2179     		ldrb	r1, [r4, #4]	@ zero_extendqisi2
 1960 000a 2046     		mov	r0, r4
 1961 000c FFF7FEFF 		bl	USBH_FreePipe
 1962              	.LVL248:
 958:Middlewares/ST/STM32_USB_Host_Library/Core/Src/usbh_core.c **** 
 1963              		.loc 1 958 0
 1964 0010 6179     		ldrb	r1, [r4, #5]	@ zero_extendqisi2
 1965 0012 2046     		mov	r0, r4
 1966 0014 FFF7FEFF 		bl	USBH_FreePipe
 1967              	.LVL249:
 960:Middlewares/ST/STM32_USB_Host_Library/Core/Src/usbh_core.c **** 
 1968              		.loc 1 960 0
 1969 0018 0023     		movs	r3, #0
 1970 001a 84F81E33 		strb	r3, [r4, #798]
 962:Middlewares/ST/STM32_USB_Host_Library/Core/Src/usbh_core.c ****   {
 1971              		.loc 1 962 0
 1972 001e D4F8C833 		ldr	r3, [r4, #968]
 1973 0022 13B1     		cbz	r3, .L145
 964:Middlewares/ST/STM32_USB_Host_Library/Core/Src/usbh_core.c ****   }
 1974              		.loc 1 964 0
 1975 0024 0521     		movs	r1, #5
 1976 0026 2046     		mov	r0, r4
 1977 0028 9847     		blx	r3
 1978              	.LVL250:
 1979              	.L145:
 966:Middlewares/ST/STM32_USB_Host_Library/Core/Src/usbh_core.c **** 
ARM GAS  C:\Users\Student\AppData\Local\Temp\ccZR2NAu.s 			page 57


 1980              		.loc 1 966 0
 1981 002a 0948     		ldr	r0, .L147
 1982 002c FFF7FEFF 		bl	printf
 1983              	.LVL251:
 1984 0030 0A20     		movs	r0, #10
 1985 0032 FFF7FEFF 		bl	putchar
 1986              	.LVL252:
 969:Middlewares/ST/STM32_USB_Host_Library/Core/Src/usbh_core.c **** 
 1987              		.loc 1 969 0
 1988 0036 2046     		mov	r0, r4
 1989 0038 FFF7FEFF 		bl	USBH_LL_Start
 1990              	.LVL253:
 971:Middlewares/ST/STM32_USB_Host_Library/Core/Src/usbh_core.c **** 
 1991              		.loc 1 971 0
 1992 003c 0323     		movs	r3, #3
 1993 003e 2370     		strb	r3, [r4]
 974:Middlewares/ST/STM32_USB_Host_Library/Core/Src/usbh_core.c **** #endif
 1994              		.loc 1 974 0
 1995 0040 0022     		movs	r2, #0
 1996 0042 0121     		movs	r1, #1
 1997 0044 D4F8CC03 		ldr	r0, [r4, #972]
 1998 0048 FFF7FEFF 		bl	osMessagePut
 1999              	.LVL254:
 978:Middlewares/ST/STM32_USB_Host_Library/Core/Src/usbh_core.c **** 
 2000              		.loc 1 978 0
 2001 004c 0020     		movs	r0, #0
 2002 004e 10BD     		pop	{r4, pc}
 2003              	.LVL255:
 2004              	.L148:
 2005              		.align	2
 2006              	.L147:
 2007 0050 00000000 		.word	.LC32
 2008              		.cfi_endproc
 2009              	.LFE161:
 2011              		.section	.text.USBH_LL_NotifyURBChange,"ax",%progbits
 2012              		.align	1
 2013              		.global	USBH_LL_NotifyURBChange
 2014              		.syntax unified
 2015              		.thumb
 2016              		.thumb_func
 2017              		.fpu fpv5-sp-d16
 2019              	USBH_LL_NotifyURBChange:
 2020              	.LFB163:
 998:Middlewares/ST/STM32_USB_Host_Library/Core/Src/usbh_core.c ****     }
 999:Middlewares/ST/STM32_USB_Host_Library/Core/Src/usbh_core.c ****    }
1000:Middlewares/ST/STM32_USB_Host_Library/Core/Src/usbh_core.c **** }
1001:Middlewares/ST/STM32_USB_Host_Library/Core/Src/usbh_core.c **** 
1002:Middlewares/ST/STM32_USB_Host_Library/Core/Src/usbh_core.c **** /**
1003:Middlewares/ST/STM32_USB_Host_Library/Core/Src/usbh_core.c **** * @brief  USBH_LL_NotifyURBChange
1004:Middlewares/ST/STM32_USB_Host_Library/Core/Src/usbh_core.c **** *         Notify URB state Change
1005:Middlewares/ST/STM32_USB_Host_Library/Core/Src/usbh_core.c **** * @param  phost: Host handle
1006:Middlewares/ST/STM32_USB_Host_Library/Core/Src/usbh_core.c **** * @retval USBH Status
1007:Middlewares/ST/STM32_USB_Host_Library/Core/Src/usbh_core.c **** */
1008:Middlewares/ST/STM32_USB_Host_Library/Core/Src/usbh_core.c **** USBH_StatusTypeDef  USBH_LL_NotifyURBChange (USBH_HandleTypeDef *phost)
1009:Middlewares/ST/STM32_USB_Host_Library/Core/Src/usbh_core.c **** {
 2021              		.loc 1 1009 0
 2022              		.cfi_startproc
ARM GAS  C:\Users\Student\AppData\Local\Temp\ccZR2NAu.s 			page 58


 2023              		@ args = 0, pretend = 0, frame = 0
 2024              		@ frame_needed = 0, uses_anonymous_args = 0
 2025              	.LVL256:
 2026 0000 08B5     		push	{r3, lr}
 2027              	.LCFI30:
 2028              		.cfi_def_cfa_offset 8
 2029              		.cfi_offset 3, -8
 2030              		.cfi_offset 14, -4
1010:Middlewares/ST/STM32_USB_Host_Library/Core/Src/usbh_core.c ****   osMessagePut ( phost->os_event, USBH_URB_EVENT, 0U);
 2031              		.loc 1 1010 0
 2032 0002 0022     		movs	r2, #0
 2033 0004 0221     		movs	r1, #2
 2034 0006 D0F8CC03 		ldr	r0, [r0, #972]
 2035              	.LVL257:
 2036 000a FFF7FEFF 		bl	osMessagePut
 2037              	.LVL258:
1011:Middlewares/ST/STM32_USB_Host_Library/Core/Src/usbh_core.c ****   return USBH_OK;
1012:Middlewares/ST/STM32_USB_Host_Library/Core/Src/usbh_core.c **** }
 2038              		.loc 1 1012 0
 2039 000e 0020     		movs	r0, #0
 2040 0010 08BD     		pop	{r3, pc}
 2041              		.cfi_endproc
 2042              	.LFE163:
 2044              		.section	.rodata
 2045              		.align	2
 2046              		.set	.LANCHOR0,. + 0
 2047              	.LC0:
 2048 0000 0A000000 		.word	10
 2049 0004 02000000 		.word	2
 2050              	.LC14:
 2051 0008 00000000 		.word	.LC1
 2052 000c 00000000 		.word	USBH_Process_OS
 2053 0010 0000     		.short	0
 2054 0012 0000     		.space	2
 2055 0014 00000000 		.word	0
 2056 0018 80000000 		.word	128
 2057              		.section	.rodata.USBH_HandleEnum.str1.4,"aMS",%progbits,1
 2058              		.align	2
 2059              	.LC3:
 2060 0000 5049443A 		.ascii	"PID: %xh\000"
 2060      20257868 
 2060      00
 2061 0009 000000   		.space	3
 2062              	.LC4:
 2063 000c 5649443A 		.ascii	"VID: %xh\000"
 2063      20257868 
 2063      00
 2064 0015 000000   		.space	3
 2065              	.LC5:
 2066 0018 41646472 		.ascii	"Address (#%d) assigned.\000"
 2066      65737320 
 2066      28232564 
 2066      29206173 
 2066      7369676E 
 2067              	.LC6:
 2068 0030 4D616E75 		.ascii	"Manufacturer : %s\000"
 2068      66616374 
ARM GAS  C:\Users\Student\AppData\Local\Temp\ccZR2NAu.s 			page 59


 2068      75726572 
 2068      203A2025 
 2068      7300
 2069 0042 0000     		.space	2
 2070              	.LC7:
 2071 0044 4D616E75 		.ascii	"Manufacturer : N/A\000"
 2071      66616374 
 2071      75726572 
 2071      203A204E 
 2071      2F4100
 2072 0057 00       		.space	1
 2073              	.LC8:
 2074 0058 50726F64 		.ascii	"Product : %s\000"
 2074      75637420 
 2074      3A202573 
 2074      00
 2075 0065 000000   		.space	3
 2076              	.LC9:
 2077 0068 50726F64 		.ascii	"Product : N/A\000"
 2077      75637420 
 2077      3A204E2F 
 2077      4100
 2078 0076 0000     		.space	2
 2079              	.LC10:
 2080 0078 53657269 		.ascii	"Serial Number : %s\000"
 2080      616C204E 
 2080      756D6265 
 2080      72203A20 
 2080      257300
 2081 008b 00       		.space	1
 2082              	.LC11:
 2083 008c 53657269 		.ascii	"Serial Number : N/A\000"
 2083      616C204E 
 2083      756D6265 
 2083      72203A20 
 2083      4E2F4100 
 2084              		.section	.rodata.USBH_Init.str1.4,"aMS",%progbits,1
 2085              		.align	2
 2086              	.LC12:
 2087 0000 4552524F 		.ascii	"ERROR: \000"
 2087      523A2000 
 2088              	.LC13:
 2089 0008 496E7661 		.ascii	"Invalid Host handle\000"
 2089      6C696420 
 2089      486F7374 
 2089      2068616E 
 2089      646C6500 
 2090              		.section	.rodata.USBH_LL_Disconnect.str1.4,"aMS",%progbits,1
 2091              		.align	2
 2092              	.LC32:
 2093 0000 55534220 		.ascii	"USB Device disconnected\000"
 2093      44657669 
 2093      63652064 
 2093      6973636F 
 2093      6E6E6563 
 2094              		.section	.rodata.USBH_Process.str1.4,"aMS",%progbits,1
 2095              		.align	2
ARM GAS  C:\Users\Student\AppData\Local\Temp\ccZR2NAu.s 			page 60


 2096              	.LC22:
 2097 0000 55534220 		.ascii	"USB Device Attached\000"
 2097      44657669 
 2097      63652041 
 2097      74746163 
 2097      68656400 
 2098              	.LC23:
 2099 0014 456E756D 		.ascii	"Enumeration done.\000"
 2099      65726174 
 2099      696F6E20 
 2099      646F6E65 
 2099      2E00
 2100 0026 0000     		.space	2
 2101              	.LC24:
 2102 0028 54686973 		.ascii	"This device has only 1 configuration.\000"
 2102      20646576 
 2102      69636520 
 2102      68617320 
 2102      6F6E6C79 
 2103 004e 0000     		.space	2
 2104              	.LC25:
 2105 0050 44656661 		.ascii	"Default configuration set.\000"
 2105      756C7420 
 2105      636F6E66 
 2105      69677572 
 2105      6174696F 
 2106 006b 00       		.space	1
 2107              	.LC26:
 2108 006c 44657669 		.ascii	"Device remote wakeup enabled\000"
 2108      63652072 
 2108      656D6F74 
 2108      65207761 
 2108      6B657570 
 2109 0089 000000   		.space	3
 2110              	.LC27:
 2111 008c 4E6F2043 		.ascii	"No Class has been registered.\000"
 2111      6C617373 
 2111      20686173 
 2111      20626565 
 2111      6E207265 
 2112 00aa 0000     		.space	2
 2113              	.LC28:
 2114 00ac 25732063 		.ascii	"%s class started.\000"
 2114      6C617373 
 2114      20737461 
 2114      72746564 
 2114      2E00
 2115 00be 0000     		.space	2
 2116              	.LC29:
 2117 00c0 44657669 		.ascii	"Device not supporting %s class.\000"
 2117      6365206E 
 2117      6F742073 
 2117      7570706F 
 2117      7274696E 
 2118              	.LC30:
 2119 00e0 4E6F2072 		.ascii	"No registered class for this device.\000"
 2119      65676973 
ARM GAS  C:\Users\Student\AppData\Local\Temp\ccZR2NAu.s 			page 61


 2119      74657265 
 2119      6420636C 
 2119      61737320 
 2120 0105 000000   		.space	3
 2121              	.LC31:
 2122 0108 496E7661 		.ascii	"Invalid Class Driver.\000"
 2122      6C696420 
 2122      436C6173 
 2122      73204472 
 2122      69766572 
 2123              		.section	.rodata.USBH_RegisterClass.str1.4,"aMS",%progbits,1
 2124              		.align	2
 2125              	.LC15:
 2126 0000 4D617820 		.ascii	"Max Class Number reached\000"
 2126      436C6173 
 2126      73204E75 
 2126      6D626572 
 2126      20726561 
 2127 0019 000000   		.space	3
 2128              	.LC16:
 2129 001c 496E7661 		.ascii	"Invalid Class handle\000"
 2129      6C696420 
 2129      436C6173 
 2129      73206861 
 2129      6E646C65 
 2130              		.section	.rodata.USBH_SelectInterface.str1.4,"aMS",%progbits,1
 2131              		.align	2
 2132              	.LC17:
 2133 0000 53776974 		.ascii	"Switching to Interface (#%d)\000"
 2133      6368696E 
 2133      6720746F 
 2133      20496E74 
 2133      65726661 
 2134 001d 000000   		.space	3
 2135              	.LC18:
 2136 0020 436C6173 		.ascii	"Class    : %xh\000"
 2136      73202020 
 2136      203A2025 
 2136      786800
 2137 002f 00       		.space	1
 2138              	.LC19:
 2139 0030 53756243 		.ascii	"SubClass : %xh\000"
 2139      6C617373 
 2139      203A2025 
 2139      786800
 2140 003f 00       		.space	1
 2141              	.LC20:
 2142 0040 50726F74 		.ascii	"Protocol : %xh\000"
 2142      6F636F6C 
 2142      203A2025 
 2142      786800
 2143 004f 00       		.space	1
 2144              	.LC21:
 2145 0050 43616E6E 		.ascii	"Cannot Select This Interface.\000"
 2145      6F742053 
 2145      656C6563 
 2145      74205468 
ARM GAS  C:\Users\Student\AppData\Local\Temp\ccZR2NAu.s 			page 62


 2145      69732049 
 2146              		.section	.rodata.str1.4,"aMS",%progbits,1
 2147              		.align	2
 2148              	.LC1:
 2149 0000 55534248 		.ascii	"USBH_Thread\000"
 2149      5F546872 
 2149      65616400 
 2150              		.text
 2151              	.Letext0:
 2152              		.file 2 "c:\\gcc_toolchain\\6_2017-q1-update\\arm-none-eabi\\include\\machine\\_default_types.h"
 2153              		.file 3 "c:\\gcc_toolchain\\6_2017-q1-update\\arm-none-eabi\\include\\sys\\lock.h"
 2154              		.file 4 "c:\\gcc_toolchain\\6_2017-q1-update\\arm-none-eabi\\include\\sys\\_types.h"
 2155              		.file 5 "c:\\gcc_toolchain\\6_2017-q1-update\\lib\\gcc\\arm-none-eabi\\6.3.1\\include\\stddef.h"
 2156              		.file 6 "c:\\gcc_toolchain\\6_2017-q1-update\\arm-none-eabi\\include\\sys\\reent.h"
 2157              		.file 7 "c:\\gcc_toolchain\\6_2017-q1-update\\arm-none-eabi\\include\\sys\\_stdint.h"
 2158              		.file 8 "c:\\gcc_toolchain\\6_2017-q1-update\\arm-none-eabi\\include\\stdlib.h"
 2159              		.file 9 "Drivers/CMSIS/Include/core_cm7.h"
 2160              		.file 10 "Drivers/CMSIS/Device/ST/STM32F7xx/Include/system_stm32f7xx.h"
 2161              		.file 11 "Middlewares/Third_Party/FreeRTOS/Source/include/task.h"
 2162              		.file 12 "Middlewares/Third_Party/FreeRTOS/Source/include/queue.h"
 2163              		.file 13 "Middlewares/Third_Party/FreeRTOS/Source/CMSIS_RTOS/cmsis_os.h"
 2164              		.file 14 "Middlewares/ST/STM32_USB_Host_Library/Core/Inc/usbh_def.h"
 2165              		.file 15 "Middlewares/ST/STM32_USB_Host_Library/Core/Inc/usbh_ctlreq.h"
 2166              		.file 16 "Middlewares/ST/STM32_USB_Host_Library/Core/Inc/usbh_core.h"
 2167              		.file 17 "Middlewares/ST/STM32_USB_Host_Library/Core/Inc/usbh_pipes.h"
 2168              		.file 18 "c:\\gcc_toolchain\\6_2017-q1-update\\arm-none-eabi\\include\\stdio.h"
 2169              		.file 19 "<built-in>"
ARM GAS  C:\Users\Student\AppData\Local\Temp\ccZR2NAu.s 			page 63

